		Time			Cycle	PC		Insn	Decoded instruction	Register and memory contents
          65000	         5	80000004	00000293	addi	x5,x0,0	  x0:0x00000000  x5=0x00000000
          75000	         6	80000008	00000313	addi	x6,x0,0	  x0:0x00000000  x6=0x00000000
          85000	         7	8000000c	00628263	beq	x5,x6,80000010	  x5:0x00000000  x6:0x00000000
          95000	         8	00000000	00000013	addi	x0,x0,0	  x0:0x00000000
         105000	         9	8000000c	00000013	addi	x0,x0,0	  x0:0x00000000
         115000	        10	80000010	00000c97	auipc	x25,0x0	 x25=0x8000000c
         125000	        11	80000014	00cc8c93	addi	x25,x25,12	 x25:0x8000000c x25=0x80000018
         135000	        12	80000018	000c8067	jalr	x0,x25,0	 x25:0x80000018
         145000	        13	00000000	00000013	addi	x0,x0,0	  x0:0x00000000
         155000	        14	80000018	00000013	addi	x0,x0,0	  x0:0x00000000
         165000	        15	8000001c	400006b7	lui	x13,0x40000	 x13=0x40000000
         175000	        16	80000020	10068693	addi	x13,x13,256	 x13:0x40000000 x13=0x40000100
         185000	        17	80000024	00000013	addi	x0,x0,0	  x0:0x00000000
         195000	        18	80000028	0000a497	auipc	x9,0xa	  x9=0x8000a024
         205000	        19	8000002c	fa048493	addi	x9,x9,-96	  x9:0x8000a024  x9=0x80009fc4
         215000	        20	80000030	00007697	auipc	x13,0x7	 x13=0x8000702c
         225000	        21	80000034	77468693	addi	x13,x13,1908	 x13:0x8000702c x13=0x800077a0
         235000	        22	80000038	0016e693	ori	x13,x13,1	 x13:0x800077a0 x13=0x800077a1
         245000	        23	8000003c	00000013	addi	x0,x0,0	  x0:0x00000000
         255000	        24	80000040	00000697	auipc	x13,0x0	 x13=0x8000003c
         265000	        25	80000044	02068693	addi	x13,x13,32	 x13:0x8000003c x13=0x8000005c
         275000	        26	80000048	00000013	addi	x0,x0,0	  x0:0x00000000
         285000	        27	8000004c	00000013	addi	x0,x0,0	  x0:0x00000000
         295000	        28	80000050	000026b7	lui	x13,0x2	 x13=0x00002000
         305000	        29	80000054	80068693	addi	x13,x13,-2048	 x13:0x00002000 x13=0x00001800
         315000	        30	80000058	00000013	addi	x0,x0,0	  x0:0x00000000
         325000	        31	8000005c	00000013	addi	x0,x0,0	  x0:0x00000000
         335000	        32	80000060	00000013	addi	x0,x0,0	  x0:0x00000000
         345000	        33	80000064	cb05c0b7	lui	x1,0xcb05c	  x1=0xcb05c000
         355000	        34	80000068	13008093	addi	x1,x1,304	  x1:0xcb05c000  x1=0xcb05c130
         365000	        35	8000006c	c272c137	lui	x2,0xc272c	  x2=0xc272c000
         375000	        36	80000070	76f10113	addi	x2,x2,1903	  x2:0xc272c000  x2=0xc272c76f
         385000	        37	80000074	fc8a41b7	lui	x3,0xfc8a4	  x3=0xfc8a4000
         395000	        38	80000078	a6018193	addi	x3,x3,-1440	  x3:0xfc8a4000  x3=0xfc8a3a60
         405000	        39	8000007c	00000213	addi	x4,x0,0	  x0:0x00000000  x4=0x00000000
         415000	        40	80000080	f35b7337	lui	x6,0xf35b7	  x6=0xf35b7000
         425000	        41	80000084	d7a30313	addi	x6,x6,-646	  x6:0xf35b7000  x6=0xf35b6d7a
         435000	        42	80000088	94b9e3b7	lui	x7,0x94b9e	  x7=0x94b9e000
         445000	        43	8000008c	e6538393	addi	x7,x7,-411	  x7:0x94b9e000  x7=0x94b9de65
         455000	        44	80000090	a63d5437	lui	x8,0xa63d5	  x8=0xa63d5000
         465000	        45	80000094	1fb40413	addi	x8,x8,507	  x8:0xa63d5000  x8=0xa63d51fb
         475000	        46	80000098	00600513	addi	x10,x0,6	  x0:0x00000000 x10=0x00000006
         485000	        47	8000009c	f944d5b7	lui	x11,0xf944d	 x11=0xf944d000
         495000	        48	800000a0	3df58593	addi	x11,x11,991	 x11:0xf944d000 x11=0xf944d3df
         505000	        49	800000a4	c83ae637	lui	x12,0xc83ae	 x12=0xc83ae000
         515000	        50	800000a8	68360613	addi	x12,x12,1667	 x12:0xc83ae000 x12=0xc83ae683
         525000	        51	800000ac	f84f46b7	lui	x13,0xf84f4	 x13=0xf84f4000
         535000	        52	800000b0	ede68693	addi	x13,x13,-290	 x13:0xf84f4000 x13=0xf84f3ede
         545000	        53	800000b4	80000737	lui	x14,0x80000	 x14=0x80000000
         555000	        54	800000b8	800007b7	lui	x15,0x80000	 x15=0x80000000
         565000	        55	800000bc	e7956837	lui	x16,0xe7956	 x16=0xe7956000
         575000	        56	800000c0	4a180813	addi	x16,x16,1185	 x16:0xe7956000 x16=0xe79564a1
         585000	        57	800000c4	800008b7	lui	x17,0x80000	 x17=0x80000000
         595000	        58	800000c8	00000913	addi	x18,x0,0	  x0:0x00000000 x18=0x00000000
         605000	        59	800000cc	800009b7	lui	x19,0x80000	 x19=0x80000000
         615000	        60	800000d0	80000a37	lui	x20,0x80000	 x20=0x80000000
         625000	        61	800000d4	00000a93	addi	x21,x0,0	  x0:0x00000000 x21=0x00000000
         635000	        62	800000d8	00000b13	addi	x22,x0,0	  x0:0x00000000 x22=0x00000000
         645000	        63	800000dc	00000b93	addi	x23,x0,0	  x0:0x00000000 x23=0x00000000
         655000	        64	800000e0	fb6bfc37	lui	x24,0xfb6bf	 x24=0xfb6bf000
         665000	        65	800000e4	816c0c13	addi	x24,x24,-2026	 x24:0xfb6bf000 x24=0xfb6be816
         675000	        66	800000e8	80000cb7	lui	x25,0x80000	 x25=0x80000000
         685000	        67	800000ec	00400d13	addi	x26,x0,4	  x0:0x00000000 x26=0x00000004
         695000	        68	800000f0	00000d93	addi	x27,x0,0	  x0:0x00000000 x27=0x00000000
         705000	        69	800000f4	f8309e37	lui	x28,0xf8309	 x28=0xf8309000
         715000	        70	800000f8	041e0e13	addi	x28,x28,65	 x28:0xf8309000 x28=0xf8309041
         725000	        71	800000fc	80000eb7	lui	x29,0x80000	 x29=0x80000000
         735000	        72	80000100	fb50ef37	lui	x30,0xfb50e	 x30=0xfb50e000
         745000	        73	80000104	6c4f0f13	addi	x30,x30,1732	 x30:0xfb50e000 x30=0xfb50e6c4
         755000	        74	80000108	d4689fb7	lui	x31,0xd4689	 x31=0xd4689000
         765000	        75	8000010c	d43f8f93	addi	x31,x31,-701	 x31:0xd4689000 x31=0xd4688d43
         775000	        76	80000110	0000a297	auipc	x5,0xa	  x5=0x8000a10c
         785000	        77	80000114	e7828293	addi	x5,x5,-392	  x5:0x8000a10c  x5=0x80009f84
         795000	        78	80000118	00000013	addi	x0,x0,0	  x0:0x00000000
         805000	        79	8000011c	00004f97	auipc	x31,0x4	 x31=0x80004118
         815000	        80	80000120	5ecf8f93	addi	x31,x31,1516	 x31:0x80004118 x31=0x80004704
         825000	        81	80000124	40e55793	srai	x15,x10,0xe	 x10:0x00000006 x15=0x00000000
         835000	        82	80000128	403451b3	sra	x3,x8,x3	  x8:0xa63d51fb  x3:0xfc8a3a60  x3=0xa63d51fb
         845000	        83	8000012c	00d3f8b3	and	x17,x7,x13	  x7:0x94b9de65 x13:0xf84f3ede x17=0x90091e44
         855000	        84	80000130	99f83613	sltiu	x12,x16,-1633	 x16:0xe79564a1 x12=0x00000001
         865000	        85	80000134	df8f8f93	addi	x31,x31,-520	 x31:0x80004704 x31=0x800044fc
         875000	        86	80000138	cbaca5b7	lui	x11,0xcbaca	 x11=0xcbaca000
         885000	        87	8000013c	01b31793	slli	x15,x6,0x1b	  x6:0xf35b6d7a x15=0xd0000000
         895000	        88	80000140	208f8367	jalr	x6,x31,520	 x31:0x800044fc  x6=0x80000140
         905000	        89	00000000	00000013	addi	x0,x0,0	  x0:0x00000000
         915000	        90	80004704	00000013	addi	x0,x0,0	  x0:0x00000000
         925000	        91	80004708	fec28293	addi	x5,x5,-20	  x5:0x80009f84  x5=0x80009f70
         935000	        92	8000470c	014616b3	sll	x13,x12,x20	 x12:0x00000001 x20:0x80000000 x13=0x00000001
         945000	        93	80004710	01f69d33	sll	x26,x13,x31	 x13:0x00000001 x31:0x800044fc x26=0x10000000
         955000	        94	80004714	0062a223	sw	x6,4(x5)	  x5:0x80009f70  x6:0x80000140 PA:0x80009f74
         965000	        95	80004718	354b11b7	lui	x3,0x354b1	  x3=0x354b1000
         975000	        96	8000471c	140d8f97	auipc	x31,0x140d8	 x31=0x940dc718
         985000	        97	80004720	ef073017	auipc	x0,0xef073	
         995000	        98	80004724	e68c8fb7	lui	x31,0xe68c8	 x31=0xe68c8000
        1005000	        99	80004728	41305a93	srai	x21,x0,0x13	  x0:0x00000000 x21=0x00000000
        1015000	       100	8000472c	9cbb5417	auipc	x8,0x9cbb5	  x8=0x1cbb9728
        1025000	       101	80004730	ffffc797	auipc	x15,0xffffc	 x15=0x8000072c
        1035000	       102	80004734	b9c78793	addi	x15,x15,-1124	 x15:0x8000072c x15=0x800002c8
        1045000	       103	80004738	a0dfee17	auipc	x28,0xa0dfe	 x28=0x20e02734
        1055000	       104	8000473c	01106633	or	x12,x0,x17	  x0:0x00000000 x17:0x90091e44 x12=0x90091e44
        1065000	       105	80004740	02778793	addi	x15,x15,39	 x15:0x800002c8 x15=0x800002ef
        1075000	       106	80004744	0179d713	srli	x14,x19,0x17	 x19:0x80000000 x14=0x00000100
        1085000	       107	80004748	00bf8e63	beq	x31,x11,80004764	 x31:0xe68c8000 x11:0xcbaca000
        1095000	       108	8000474c	410b5413	srai	x8,x22,0x10	 x22:0x00000000  x8=0x00000000
        1105000	       109	80004750	0013adb7	lui	x27,0x13a	 x27=0x0013a000
        1115000	       110	80004754	93b37f13	andi	x30,x6,-1733	  x6:0x80000140 x30=0x80000100
        1125000	       111	80004758	40970db3	sub	x27,x14,x9	 x14:0x00000100  x9:0x80009fc4 x27=0x7fff613c
        1135000	       112	8000475c	004dd533	srl	x10,x27,x4	 x27:0x7fff613c  x4:0x00000000 x10=0x7fff613c
        1145000	       113	80004760	0102c333	xor	x6,x5,x16	  x5:0x80009f70 x16:0xe79564a1  x6=0x6795fbd1
        1155000	       114	80004764	fd978367	jalr	x6,x15,-39	 x15:0x800002ef  x6=0x80004764
        1165000	       115	00000000	00000013	addi	x0,x0,0	  x0:0x00000000
        1175000	       116	800002c8	00000013	addi	x0,x0,0	  x0:0x00000000
        1185000	       117	800002cc	41ba5713	srai	x14,x20,0x1b	 x20:0x80000000 x14=0xfffffff0
        1195000	       118	800002d0	00d5e5b3	or	x11,x11,x13	 x11:0xcbaca000 x13:0x00000001 x11=0xcbaca001
        1205000	       119	800002d4	01bf3033	sltu	x0,x30,x27	 x30:0x80000100 x27:0x7fff613c
        1215000	       120	800002d8	00ea2633	slt	x12,x20,x14	 x20:0x80000000 x14:0xfffffff0 x12=0x00000001
        1225000	       121	800002dc	fcc28293	addi	x5,x5,-52	  x5:0x80009f70  x5=0x80009f3c
        1235000	       122	800002e0	b2d62693	slti	x13,x12,-1235	 x12:0x00000001 x13=0x00000000
        1245000	       123	800002e4	005960b3	or	x1,x18,x5	 x18:0x00000000  x5:0x80009f3c  x1=0x80009f3c
        1255000	       124	800002e8	0190f1b3	and	x3,x1,x25	  x1:0x80009f3c x25:0x80000000  x3=0x80000000
        1265000	       125	800002ec	0062a223	sw	x6,4(x5)	  x5:0x80009f3c  x6:0x80004764 PA:0x80009f40
        1275000	       126	800002f0	414a8bb3	sub	x23,x21,x20	 x21:0x00000000 x20:0x80000000 x23=0x80000000
        1285000	       127	800002f4	00009117	auipc	x2,0x9	  x2=0x800092f0
        1295000	       128	800002f8	86110113	addi	x2,x2,-1951	  x2:0x800092f0  x2=0x80008b51
        1305000	       129	800002fc	fde10f83	lb	x31,-34(x2)	  x2:0x80008b51 x31=0xffffffc3 PA:0x80008b2f
        1315000	       130	80000300	fdc10a03	lb	x20,-36(x2)	  x2:0x80008b51 x20=0x00000079 PA:0x80008b2d
        1325000	       131	80000304	01cbaab3	slt	x21,x23,x28	 x23:0x80000000 x28:0x20e02734 x21=0x00000001
        1335000	       132	80000308	003c4a33	xor	x20,x24,x3	 x24:0xfb6be816  x3:0x80000000 x20=0x7b6be816
        1345000	       133	8000030c	1bb9eab7	lui	x21,0x1bb9e	 x21=0x1bb9e000
        1355000	       134	80000310	48e87593	andi	x11,x16,1166	 x16:0xe79564a1 x11=0x00000480
        1365000	       135	80000314	02c14803	lbu	x16,44(x2)	  x2:0x80008b51 x16=0x000000bd PA:0x80008b7d
        1375000	       136	80000318	40b48f33	sub	x30,x9,x11	  x9:0x80009fc4 x11:0x00000480 x30=0x80009b44
        1385000	       137	8000031c	006ffc33	and	x24,x31,x6	 x31:0xffffffc3  x6:0x80004764 x24=0x80004740
        1395000	       138	80000320	37babf93	sltiu	x31,x21,891	 x21:0x1bb9e000 x31=0x00000000
        1405000	       139	80000324	414d8b33	sub	x22,x27,x20	 x27:0x7fff613c x20:0x7b6be816 x22=0x04937926
        1415000	       140	80000328	51b28d13	addi	x26,x5,1307	  x5:0x80009f3c x26=0x8000a457
        1425000	       141	8000032c	94dcca13	xori	x20,x25,-1715	 x25:0x80000000 x20=0x7ffff94d
        1435000	       142	80000330	ff9129a3	sw	x25,-13(x2)	  x2:0x80008b51 x25:0x80000000 PA:0x80008b44
        1445000	       143	80000334	fce12ba3	sw	x14,-41(x2)	  x2:0x80008b51 x14:0xfffffff0 PA:0x80008b28
        1455000	       144	80000338	fdd10ea3	sb	x29,-35(x2)	  x2:0x80008b51 x29:0x80000000 PA:0x80008b2e
        1465000	       145	8000033c	fc914883	lbu	x17,-55(x2)	  x2:0x80008b51 x17=0x000000fe PA:0x80008b1a
        1475000	       146	80000340	e5acf013	andi	x0,x25,-422	 x25:0x80000000
        1485000	       147	80000344	01541713	slli	x14,x8,0x15	  x8:0x00000000 x14=0x00000000
        1495000	       148	80000348	00d114a3	sh	x13,9(x2)	  x2:0x80008b51 x13:0x00000000 PA:0x80008b5a
        1505000	       149	8000034c	ffa10da3	sb	x26,-5(x2)	  x2:0x80008b51 x26:0x8000a457 PA:0x80008b4c
        1515000	       150	80000350	e62c4a93	xori	x21,x24,-414	 x24:0x80004740 x21=0x7fffb922
        1525000	       151	80000354	ffd14503	lbu	x10,-3(x2)	  x2:0x80008b51 x10=0x00000083 PA:0x80008b4e
        1535000	       152	80000358	416dd3b3	sra	x7,x27,x22	 x27:0x7fff613c x22:0x04937926  x7=0x01fffd84
        1545000	       153	8000035c	01312803	lw	x16,19(x2)	  x2:0x80008b51 x16=0x84db5895 PA:0x80008b64
        1555000	       154	80000360	e9e48593	addi	x11,x9,-354	  x9:0x80009fc4 x11=0x80009e62
        1565000	       155	80000364	3f394e13	xori	x28,x18,1011	 x18:0x00000000 x28=0x000003f3
        1575000	       156	80000368	002051b3	srl	x3,x0,x2	  x0:0x00000000  x2:0x80008b51  x3=0x00000000
        1585000	       157	8000036c	e7247e13	andi	x28,x8,-398	  x8:0x00000000 x28=0x00000000
        1595000	       158	80000370	007daeb3	slt	x29,x27,x7	 x27:0x7fff613c  x7:0x01fffd84 x29=0x00000000
        1605000	       159	80000374	fe410983	lb	x19,-28(x2)	  x2:0x80008b51 x19=0xffffffbd PA:0x80008b35
        1615000	       160	80000378	00d163b3	or	x7,x2,x13	  x2:0x80008b51 x13:0x00000000  x7=0x80008b51
        1625000	       161	8000037c	ff110303	lb	x6,-15(x2)	  x2:0x80008b51  x6=0xffffff85 PA:0x80008b42
        1635000	       162	80000380	00f116a3	sh	x15,13(x2)	  x2:0x80008b51 x15:0x800002ef PA:0x80008b5e
        1645000	       163	80000384	00009d17	auipc	x26,0x9	 x26=0x80009380
        1655000	       164	80000388	822d0d13	addi	x26,x26,-2014	 x26:0x80009380 x26=0x80008ba2
        1665000	       165	8000038c	0120ebb3	or	x23,x1,x18	  x1:0x80009f3c x18:0x00000000 x23=0x80009f3c
        1675000	       166	80000390	62f2a113	slti	x2,x5,1583	  x5:0x80009f3c  x2=0x00000001
        1685000	       167	80000394	07fbf317	auipc	x6,0x7fbf	  x6=0x87fbf390
        1695000	       168	80000398	00e33633	sltu	x12,x6,x14	  x6:0x87fbf390 x14:0x00000000 x12=0x00000000
        1705000	       169	8000039c	7cd78a93	addi	x21,x15,1997	 x15:0x800002ef x21=0x80000abc
        1715000	       170	800003a0	4163df33	sra	x30,x7,x22	  x7:0x80008b51 x22:0x04937926 x30=0xfe00022d
        1725000	       171	800003a4	00397233	and	x4,x18,x3	 x18:0x00000000  x3:0x00000000  x4=0x00000000
        1735000	       172	800003a8	018d2323	sw	x24,6(x26)	 x26:0x80008ba2 x24:0x80004740 PA:0x80008ba8
        1745000	       173	800003ac	fecd1c23	sh	x12,-8(x26)	 x26:0x80008ba2 x12:0x00000000 PA:0x80008b9a
        1755000	       174	800003b0	ff6d0ca3	sb	x22,-7(x26)	 x26:0x80008ba2 x22:0x04937926 PA:0x80008b9b
        1765000	       175	800003b4	01fe1213	slli	x4,x28,0x1f	 x28:0x00000000  x4=0x00000000
        1775000	       176	800003b8	017d85b3	add	x11,x27,x23	 x27:0x7fff613c x23:0x80009f3c x11=0x00000078
        1785000	       177	800003bc	00be1233	sll	x4,x28,x11	 x28:0x00000000 x11:0x00000078  x4=0x00000000
        1795000	       178	800003c0	ff1d4f83	lbu	x31,-15(x26)	 x26:0x80008ba2 x31=0x000000ac PA:0x80008b93
        1805000	       179	800003c4	fecd0ba3	sb	x12,-9(x26)	 x26:0x80008ba2 x12:0x00000000 PA:0x80008b99
        1815000	       180	800003c8	006eb133	sltu	x2,x29,x6	 x29:0x00000000  x6:0x87fbf390  x2=0x00000001
        1825000	       181	800003cc	ffcd0003	lb	x0,-4(x26)	 x26:0x80008ba2 PA:0x80008b9e
        1835000	       182	800003d0	002cd213	srli	x4,x25,0x2	 x25:0x80000000  x4=0x20000000
        1845000	       183	800003d4	40d5d593	srai	x11,x11,0xd	 x11:0x00000078 x11=0x00000000
        1855000	       184	800003d8	fe6d0ea3	sb	x6,-3(x26)	 x26:0x80008ba2  x6:0x87fbf390 PA:0x80008b9f
        1865000	       185	800003dc	41495f93	srai	x31,x18,0x14	 x18:0x00000000 x31=0x00000000
        1875000	       186	800003e0	ff0d0503	lb	x10,-16(x26)	 x26:0x80008ba2 x10=0x0000002a PA:0x80008b92
        1885000	       187	800003e4	ff7d4503	lbu	x10,-9(x26)	 x26:0x80008ba2 x10=0x00000000 PA:0x80008b99
        1895000	       188	800003e8	ffad0083	lb	x1,-6(x26)	 x26:0x80008ba2  x1=0xffffffbe PA:0x80008b9c
        1905000	       189	800003ec	ebc5be13	sltiu	x28,x11,-324	 x11:0x00000000 x28=0x00000001
        1915000	       190	800003f0	01925ab3	srl	x21,x4,x25	  x4:0x20000000 x25:0x80000000 x21=0x20000000
        1925000	       191	800003f4	018d2323	sw	x24,6(x26)	 x26:0x80008ba2 x24:0x80004740 PA:0x80008ba8
        1935000	       192	800003f8	003d0503	lb	x10,3(x26)	 x26:0x80008ba2 x10=0xffffffba PA:0x80008ba5
        1945000	       193	800003fc	002b2833	slt	x16,x22,x2	 x22:0x04937926  x2:0x00000001 x16=0x00000000
        1955000	       194	80000400	ded2e393	ori	x7,x5,-531	  x5:0x80009f3c  x7=0xfffffffd
        1965000	       195	80000404	010d0e03	lb	x28,16(x26)	 x26:0x80008ba2 x28=0xffffffb0 PA:0x80008bb2
        1975000	       196	80000408	fefd1e23	sh	x15,-4(x26)	 x26:0x80008ba2 x15:0x800002ef PA:0x80008b9e
        1985000	       197	8000040c	00000013	addi	x0,x0,0	  x0:0x00000000
        1995000	       198	80000410	016d07a3	sb	x22,15(x26)	 x26:0x80008ba2 x22:0x04937926 PA:0x80008bb1
        2005000	       199	80000414	009d00a3	sb	x9,1(x26)	 x26:0x80008ba2  x9:0x80009fc4 PA:0x80008ba3
        2015000	       200	80000418	00008897	auipc	x17,0x8	 x17=0x80008414
        2025000	       201	8000041c	e7588893	addi	x17,x17,-395	 x17:0x80008414 x17=0x80008289
        2035000	       202	80000420	e3e88983	lb	x19,-450(x17)	 x17:0x80008289 x19=0x0000006d PA:0x800080c7
        2045000	       203	80000424	e8e89fa3	sh	x14,-353(x17)	 x17:0x80008289 x14:0x00000000 PA:0x80008128
        2055000	       204	80000428	48d89e03	lh	x28,1165(x17)	 x17:0x80008289 x28=0x00006cc8 PA:0x80008716
        2065000	       205	8000042c	d7e2a593	slti	x11,x5,-642	  x5:0x80009f3c x11=0x00000001
        2075000	       206	80000430	0f988023	sb	x25,224(x17)	 x17:0x80008289 x25:0x80000000 PA:0x80008369
        2085000	       207	80000434	01afe333	or	x6,x31,x26	 x31:0x00000000 x26:0x80008ba2  x6=0x80008ba2
        2095000	       208	80000438	01650d33	add	x26,x10,x22	 x10:0xffffffba x22:0x04937926 x26=0x049378e0
        2105000	       209	8000043c	530896a3	sh	x16,1325(x17)	 x17:0x80008289 x16:0x00000000 PA:0x800087b6
        2115000	       210	80000440	02e88003	lb	x0,46(x17)	 x17:0x80008289 PA:0x800082b7
        2125000	       211	80000444	54888903	lb	x18,1352(x17)	 x17:0x80008289 x18=0xffffffc7 PA:0x800087d1
        2135000	       212	80000448	5398db83	lhu	x23,1337(x17)	 x17:0x80008289 x23=0x0000e6da PA:0x800087c2
        2145000	       213	8000044c	40088e23	sb	x0,1052(x17)	 x17:0x80008289  x0:0x00000000 PA:0x800086a5
        2155000	       214	80000450	e3888c03	lb	x24,-456(x17)	 x17:0x80008289 x24=0x0000002c PA:0x800080c1
        2165000	       215	80000454	09a88b03	lb	x22,154(x17)	 x17:0x80008289 x22=0x00000036 PA:0x80008323
        2175000	       216	80000458	9785e793	ori	x15,x11,-1672	 x11:0x00000001 x15=0xfffff979
        2185000	       217	8000045c	00831913	slli	x18,x6,0x8	  x6:0x80008ba2 x18=0x008ba200
        2195000	       218	80000460	ebc8a3a3	sw	x28,-345(x17)	 x17:0x80008289 x28:0x00006cc8 PA:0x80008130
        2205000	       219	80000464	35b8db83	lhu	x23,859(x17)	 x17:0x80008289 x23=0x000002a2 PA:0x800085e4
        2215000	       220	80000468	fdc88ba3	sb	x28,-41(x17)	 x17:0x80008289 x28:0x00006cc8 PA:0x80008260
        2225000	       221	8000046c	f448afa3	sw	x4,-161(x17)	 x17:0x80008289  x4:0x20000000 PA:0x800081e8
        2235000	       222	80000470	056894a3	sh	x22,73(x17)	 x17:0x80008289 x22:0x00000036 PA:0x800082d2
        2245000	       223	80000474	195e6113	ori	x2,x28,405	 x28:0x00006cc8  x2=0x00006ddd
        2255000	       224	80000478	4fa88183	lb	x3,1274(x17)	 x17:0x80008289  x3=0x00000001 PA:0x80008783
        2265000	       225	8000047c	eb688703	lb	x14,-330(x17)	 x17:0x80008289 x14=0x00000017 PA:0x8000813f
        2275000	       226	80000480	00000013	addi	x0,x0,0	  x0:0x00000000
        2285000	       227	80000484	00dd5233	srl	x4,x26,x13	 x26:0x049378e0 x13:0x00000000  x4=0x049378e0
        2295000	       228	80000488	20088a83	lb	x21,512(x17)	 x17:0x80008289 x21=0xffffffca PA:0x80008489
        2305000	       229	8000048c	068883a3	sb	x8,103(x17)	 x17:0x80008289  x8:0x00000000 PA:0x800082f0
        2315000	       230	80000490	13688403	lb	x8,310(x17)	 x17:0x80008289  x8=0x00000046 PA:0x800083bf
        2325000	       231	80000494	12d89383	lh	x7,301(x17)	 x17:0x80008289  x7=0x000057e8 PA:0x800083b6
        2335000	       232	80000498	40ed86b3	sub	x13,x27,x14	 x27:0x7fff613c x14:0x00000017 x13=0x7fff6125
        2345000	       233	8000049c	ec58c383	lbu	x7,-315(x17)	 x17:0x80008289  x7=0x000000ae PA:0x8000814e
        2355000	       234	800004a0	8557cf93	xori	x31,x15,-1963	 x15:0xfffff979 x31=0x0000012c
        2365000	       235	800004a4	44d8cb03	lbu	x22,1101(x17)	 x17:0x80008289 x22=0x00000045 PA:0x800086d6
        2375000	       236	800004a8	01311a13	slli	x20,x2,0x13	  x2:0x00006ddd x20=0x6ee80000
        2385000	       237	800004ac	19a897a3	sh	x26,399(x17)	 x17:0x80008289 x26:0x049378e0 PA:0x80008418
        2395000	       238	800004b0	e5b8c903	lbu	x18,-421(x17)	 x17:0x80008289 x18=0x00000015 PA:0x800080e4
        2405000	       239	800004b4	3fc88223	sb	x28,996(x17)	 x17:0x80008289 x28:0x00006cc8 PA:0x8000866d
        2415000	       240	800004b8	3618de03	lhu	x28,865(x17)	 x17:0x80008289 x28=0x0000b72d PA:0x800085ea
        2425000	       241	800004bc	00eb1913	slli	x18,x22,0xe	 x22:0x00000045 x18=0x00114000
        2435000	       242	800004c0	41928533	sub	x10,x5,x25	  x5:0x80009f3c x25:0x80000000 x10=0x00009f3c
        2445000	       243	800004c4	1af8d603	lhu	x12,431(x17)	 x17:0x80008289 x12=0x00009571 PA:0x80008438
        2455000	       244	800004c8	00dd4433	xor	x8,x26,x13	 x26:0x049378e0 x13:0x7fff6125  x8=0x7b6c19c5
        2465000	       245	800004cc	00bcfbb3	and	x23,x25,x11	 x25:0x80000000 x11:0x00000001 x23=0x00000000
        2475000	       246	800004d0	3af88f03	lb	x30,943(x17)	 x17:0x80008289 x30=0x0000001c PA:0x80008638
        2485000	       247	800004d4	00008117	auipc	x2,0x8	  x2=0x800084d0
        2495000	       248	800004d8	cfa10113	addi	x2,x2,-774	  x2:0x800084d0  x2=0x800081ca
        2505000	       249	800004dc	94ce0193	addi	x3,x28,-1716	 x28:0x0000b72d  x3=0x0000b079
        2515000	       250	800004e0	40895433	sra	x8,x18,x8	 x18:0x00114000  x8:0x7b6c19c5  x8=0x00008a00
        2525000	       251	800004e4	00910383	lb	x7,9(x2)	  x2:0x800081ca  x7=0x00000059 PA:0x800081d3
        2535000	       252	800004e8	4f882f93	slti	x31,x16,1272	 x16:0x00000000 x31=0x00000001
        2545000	       253	800004ec	a0e10e17	auipc	x28,0xa0e10	 x28=0x20e104e8
        2555000	       254	800004f0	b67930b7	lui	x1,0xb6793	  x1=0xb6793000
        2565000	       255	800004f4	00691bb3	sll	x23,x18,x6	 x18:0x00114000  x6:0x80008ba2 x23=0x00450000
        2575000	       256	800004f8	ffd10083	lb	x1,-3(x2)	  x2:0x800081ca  x1=0xffffffdf PA:0x800081c7
        2585000	       257	800004fc	ff211703	lh	x14,-14(x2)	  x2:0x800081ca x14=0xffffd677 PA:0x800081bc
        2595000	       258	80000500	e343ca93	xori	x21,x7,-460	  x7:0x00000059 x21=0xfffffe6d
        2605000	       259	80000504	002448b3	xor	x17,x8,x2	  x8:0x00008a00  x2:0x800081ca x17=0x80000bca
        2615000	       260	80000508	00615783	lhu	x15,6(x2)	  x2:0x800081ca x15=0x00009c59 PA:0x800081d0
        2625000	       261	8000050c	ff914f03	lbu	x30,-7(x2)	  x2:0x800081ca x30=0x00000059 PA:0x800081c3
        2635000	       262	80000510	00231c13	slli	x24,x6,0x2	  x6:0x80008ba2 x24=0x00022e88
        2645000	       263	80000514	01b20333	add	x6,x4,x27	  x4:0x049378e0 x27:0x7fff613c  x6=0x8492da1c
        2655000	       264	80000518	ff810703	lb	x14,-8(x2)	  x2:0x800081ca x14=0x0000005e PA:0x800081c2
        2665000	       265	8000051c	00b14503	lbu	x10,11(x2)	  x2:0x800081ca x10=0x00000035 PA:0x800081d5
        2675000	       266	80000520	016ed313	srli	x6,x29,0x16	 x29:0x00000000  x6=0x00000000
        2685000	       267	80000524	01412123	sw	x20,2(x2)	  x2:0x800081ca x20:0x6ee80000 PA:0x800081cc
        2695000	       268	80000528	386a7b93	andi	x23,x20,902	 x20:0x6ee80000 x23=0x00000000
        2705000	       269	8000052c	00f14b83	lbu	x23,15(x2)	  x2:0x800081ca x23=0x000000b5 PA:0x800081d9
        2715000	       270	80000530	00f14203	lbu	x4,15(x2)	  x2:0x800081ca  x4=0x000000b5 PA:0x800081d9
        2725000	       271	80000534	aa2ce797	auipc	x15,0xaa2ce	 x15=0x2a2ce530
        2735000	       272	80000538	00000013	addi	x0,x0,0	  x0:0x00000000
        2745000	       273	8000053c	afd88b37	lui	x22,0xafd88	 x22=0xafd88000
        2755000	       274	80000540	00000013	addi	x0,x0,0	  x0:0x00000000
        2765000	       275	80000544	ffa14703	lbu	x14,-6(x2)	  x2:0x800081ca x14=0x00000035 PA:0x800081c4
        2775000	       276	80000548	ff510503	lb	x10,-11(x2)	  x2:0x800081ca x10=0x0000004d PA:0x800081bf
        2785000	       277	8000054c	ff714f03	lbu	x30,-9(x2)	  x2:0x800081ca x30=0x000000ac PA:0x800081c1
        2795000	       278	80000550	00008117	auipc	x2,0x8	  x2=0x8000854c
        2805000	       279	80000554	21c10113	addi	x2,x2,540	  x2:0x8000854c  x2=0x80008768
        2815000	       280	80000558	01b40433	add	x8,x8,x27	  x8:0x00008a00 x27:0x7fff613c  x8=0x7fffeb3c
        2825000	       281	8000055c	01711823	sh	x23,16(x2)	  x2:0x80008768 x23:0x000000b5 PA:0x80008778
        2835000	       282	80000560	03310f03	lb	x30,51(x2)	  x2:0x80008768 x30=0xffffff9e PA:0x8000879b
        2845000	       283	80000564	01f10a83	lb	x21,31(x2)	  x2:0x80008768 x21=0x00000036 PA:0x80008787
        2855000	       284	80000568	8bb58037	lui	x0,0x8bb58	
        2865000	       285	8000056c	734cfe93	andi	x29,x25,1844	 x25:0x80000000 x29=0x00000000
        2875000	       286	80000570	01611083	lh	x1,22(x2)	  x2:0x80008768  x1=0x000074e8 PA:0x8000877e
        2885000	       287	80000574	e0e9c913	xori	x18,x19,-498	 x19:0x0000006d x18=0xfffffe63
        2895000	       288	80000578	fff102a3	sb	x31,-27(x2)	  x2:0x80008768 x31:0x00000001 PA:0x8000874d
        2905000	       289	8000057c	00c98333	add	x6,x19,x12	 x19:0x0000006d x12:0x00009571  x6=0x000095de
        2915000	       290	80000580	00cfebb3	or	x23,x31,x12	 x31:0x00000001 x12:0x00009571 x23=0x00009571
        2925000	       291	80000584	018407b3	add	x15,x8,x24	  x8:0x7fffeb3c x24:0x00022e88 x15=0x800219c4
        2935000	       292	80000588	25608597	auipc	x11,0x25608	 x11=0xa5608584
        2945000	       293	8000058c	01211f13	slli	x30,x2,0x12	  x2:0x80008768 x30=0x1da00000
        2955000	       294	80000590	fed10703	lb	x14,-19(x2)	  x2:0x80008768 x14=0xffffffcc PA:0x80008755
        2965000	       295	80000594	fe114903	lbu	x18,-31(x2)	  x2:0x80008768 x18=0x00000068 PA:0x80008749
        2975000	       296	80000598	f82f0e93	addi	x29,x30,-126	 x30:0x1da00000 x29=0x1d9fff82
        2985000	       297	8000059c	fd1109a3	sb	x17,-45(x2)	  x2:0x80008768 x17:0x80000bca PA:0x8000873b
        2995000	       298	800005a0	01445ab3	srl	x21,x8,x20	  x8:0x7fffeb3c x20:0x6ee80000 x21=0x7fffeb3c
        3005000	       299	800005a4	0071b7b3	sltu	x15,x3,x7	  x3:0x0000b079  x7:0x00000059 x15=0x00000000
        3015000	       300	800005a8	fff14d83	lbu	x27,-1(x2)	  x2:0x80008768 x27=0x000000bc PA:0x80008767
        3025000	       301	800005ac	00c78db3	add	x27,x15,x12	 x15:0x00000000 x12:0x00009571 x27=0x00009571
        3035000	       302	800005b0	517c7e93	andi	x29,x24,1303	 x24:0x00022e88 x29=0x00000400
        3045000	       303	800005b4	fe714883	lbu	x17,-25(x2)	  x2:0x80008768 x17=0x000000cb PA:0x8000874f
        3055000	       304	800005b8	fd210723	sb	x18,-50(x2)	  x2:0x80008768 x18:0x00000068 PA:0x80008736
        3065000	       305	800005bc	0604a593	slti	x11,x9,96	  x9:0x80009fc4 x11=0x00000001
        3075000	       306	800005c0	02510603	lb	x12,37(x2)	  x2:0x80008768 x12=0xffffff8d PA:0x8000878d
        3085000	       307	800005c4	40f10bb3	sub	x23,x2,x15	  x2:0x80008768 x15:0x00000000 x23=0x80008768
        3095000	       308	800005c8	fca10fa3	sb	x10,-33(x2)	  x2:0x80008768 x10:0x0000004d PA:0x80008747
        3105000	       309	800005cc	40415693	srai	x13,x2,0x4	  x2:0x80008768 x13=0xf8000876
        3115000	       310	800005d0	fc314003	lbu	x0,-61(x2)	  x2:0x80008768 PA:0x8000872b
        3125000	       311	800005d4	01110503	lb	x10,17(x2)	  x2:0x80008768 x10=0x00000000 PA:0x80008779
        3135000	       312	800005d8	00210923	sb	x2,18(x2)	  x2:0x80008768  x2:0x80008768 PA:0x8000877a
        3145000	       313	800005dc	ff914383	lbu	x7,-7(x2)	  x2:0x80008768  x7=0x00000075 PA:0x80008761
        3155000	       314	800005e0	00e10923	sb	x14,18(x2)	  x2:0x80008768 x14:0xffffffcc PA:0x8000877a
        3165000	       315	800005e4	b8d40b13	addi	x22,x8,-1139	  x8:0x7fffeb3c x22=0x7fffe6c9
        3175000	       316	800005e8	01314f03	lbu	x30,19(x2)	  x2:0x80008768 x30=0x0000002b PA:0x8000877b
        3185000	       317	800005ec	508aaa13	slti	x20,x21,1288	 x21:0x7fffeb3c x20=0x00000000
        3195000	       318	800005f0	fed12423	sw	x13,-24(x2)	  x2:0x80008768 x13:0xf8000876 PA:0x80008750
        3205000	       319	800005f4	ff9103a3	sb	x25,-25(x2)	  x2:0x80008768 x25:0x80000000 PA:0x8000874f
        3215000	       320	800005f8	ff314e83	lbu	x29,-13(x2)	  x2:0x80008768 x29=0x000000fb PA:0x8000875b
        3225000	       321	800005fc	00008117	auipc	x2,0x8	  x2=0x800085f8
        3235000	       322	80000600	56a10113	addi	x2,x2,1386	  x2:0x800085f8  x2=0x80008b62
        3245000	       323	80000604	0190deb3	srl	x29,x1,x25	  x1:0x000074e8 x25:0x80000000 x29=0x000074e8
        3255000	       324	80000608	29e2a893	slti	x17,x5,670	  x5:0x80009f3c x17=0x00000001
        3265000	       325	8000060c	01011b83	lh	x23,16(x2)	  x2:0x80008b62 x23=0xffffef8f PA:0x80008b72
        3275000	       326	80000610	01010e23	sb	x16,28(x2)	  x2:0x80008b62 x16:0x00000000 PA:0x80008b7e
        3285000	       327	80000614	008db733	sltu	x14,x27,x8	 x27:0x00009571  x8:0x7fffeb3c x14=0x00000001
        3295000	       328	80000618	41558c33	sub	x24,x11,x21	 x11:0x00000001 x21:0x7fffeb3c x24=0x800014c5
        3305000	       329	8000061c	05910f83	lb	x31,89(x2)	  x2:0x80008b62 x31=0x00000006 PA:0x80008bbb
        3315000	       330	80000620	02a10e23	sb	x10,60(x2)	  x2:0x80008b62 x10:0x00000000 PA:0x80008b9e
        3325000	       331	80000624	01ccf433	and	x8,x25,x28	 x25:0x80000000 x28:0x20e104e8  x8=0x00000000
        3335000	       332	80000628	0190beb3	sltu	x29,x1,x25	  x1:0x000074e8 x25:0x80000000 x29=0x00000001
        3345000	       333	8000062c	e1c42bb7	lui	x23,0xe1c42	 x23=0xe1c42000
        3355000	       334	80000630	f4514e03	lbu	x28,-187(x2)	  x2:0x80008b62 x28=0x0000003d PA:0x80008aa7
        3365000	       335	80000634	00d46e33	or	x28,x8,x13	  x8:0x00000000 x13:0xf8000876 x28=0xf8000876
        3375000	       336	80000638	f7011183	lh	x3,-144(x2)	  x2:0x80008b62  x3=0xfffff20c PA:0x80008ad2
        3385000	       337	8000063c	00000013	addi	x0,x0,0	  x0:0x00000000
        3395000	       338	80000640	02510ba3	sb	x5,55(x2)	  x2:0x80008b62  x5:0x80009f3c PA:0x80008b99
        3405000	       339	80000644	403f8c33	sub	x24,x31,x3	 x31:0x00000006  x3:0xfffff20c x24=0x00000dfa
        3415000	       340	80000648	e4e37593	andi	x11,x6,-434	  x6:0x000095de x11=0x0000944e
        3425000	       341	8000064c	01eb81b3	add	x3,x23,x30	 x23:0xe1c42000 x30:0x0000002b  x3=0xe1c4202b
        3435000	       342	80000650	40555893	srai	x17,x10,0x5	 x10:0x00000000 x17=0x00000000
        3445000	       343	80000654	f4411783	lh	x15,-188(x2)	  x2:0x80008b62 x15=0x00003d4a PA:0x80008aa6
        3455000	       344	80000658	20a9a1b7	lui	x3,0x20a9a	  x3=0x20a9a000
        3465000	       345	8000065c	cc6e7f97	auipc	x31,0xcc6e7	 x31=0x4c6e7658
        3475000	       346	80000660	40505a13	srai	x20,x0,0x5	  x0:0x00000000 x20=0x00000000
        3485000	       347	80000664	0d114783	lbu	x15,209(x2)	  x2:0x80008b62 x15=0x000000e7 PA:0x80008c33
        3495000	       348	00000000	00000013	addi	x0,x0,0	  x0:0x00000000
        3505000	       349	80000668	019796b3	sll	x13,x15,x25	 x15:0x000000e7 x25:0x80000000 x13=0x000000e7
        3515000	       350	8000066c	1606cf93	xori	x31,x13,352	 x13:0x000000e7 x31=0x00000187
        3525000	       351	80000670	4e5fb393	sltiu	x7,x31,1253	 x31:0x00000187  x7=0x00000001
        3535000	       352	80000674	ff010d23	sb	x16,-6(x2)	  x2:0x80008b62 x16:0x00000000 PA:0x80008b5c
        3545000	       353	80000678	f8c15b03	lhu	x22,-116(x2)	  x2:0x80008b62 x22=0x0000d73f PA:0x80008aee
        3555000	       354	8000067c	01c29713	slli	x14,x5,0x1c	  x5:0x80009f3c x14=0xc0000000
        3565000	       355	80000680	f9011903	lh	x18,-112(x2)	  x2:0x80008b62 x18=0x00003bf0 PA:0x80008af2
        3575000	       356	80000684	024103a3	sb	x4,39(x2)	  x2:0x80008b62  x4:0x000000b5 PA:0x80008b89
        3585000	       357	80000688	0d900193	addi	x3,x0,217	  x0:0x00000000  x3=0x000000d9
        3595000	       358	8000068c	41a68333	sub	x6,x13,x26	 x13:0x000000e7 x26:0x049378e0  x6=0xfb6c8807
        3605000	       359	80000690	0f710803	lb	x16,247(x2)	  x2:0x80008b62 x16=0xffffffb3 PA:0x80008c59
        3615000	       360	80000694	41c6dd13	srai	x26,x13,0x1c	 x13:0x000000e7 x26=0x00000000
        3625000	       361	80000698	0128fbb3	and	x23,x17,x18	 x17:0x00000000 x18:0x00003bf0 x23=0x00000000
        3635000	       362	8000069c	f1014683	lbu	x13,-240(x2)	  x2:0x80008b62 x13=0x000000ac PA:0x80008a72
        3645000	       363	800006a0	00af1513	slli	x10,x30,0xa	 x30:0x0000002b x10=0x0000ac00
        3655000	       364	800006a4	40f08fb3	sub	x31,x1,x15	  x1:0x000074e8 x15:0x000000e7 x31=0x00007401
        3665000	       365	800006a8	ef14b993	sltiu	x19,x9,-271	  x9:0x80009fc4 x19=0x00000001
        3675000	       366	800006ac	01603ab3	sltu	x21,x0,x22	  x0:0x00000000 x22:0x0000d73f x21=0x00000001
        3685000	       367	800006b0	f4c10fa3	sb	x12,-161(x2)	  x2:0x80008b62 x12:0xffffff8d PA:0x80008ac1
        3695000	       368	800006b4	f5311b23	sh	x19,-170(x2)	  x2:0x80008b62 x19:0x00000001 PA:0x80008ab8
        3705000	       369	800006b8	f1c14983	lbu	x19,-228(x2)	  x2:0x80008b62 x19=0x00000026 PA:0x80008a7e
        3715000	       370	800006bc	f9514503	lbu	x10,-107(x2)	  x2:0x80008b62 x10=0x00000079 PA:0x80008af7
        3725000	       371	800006c0	f1e14c03	lbu	x24,-226(x2)	  x2:0x80008b62 x24=0x000000d3 PA:0x80008a80
        3735000	       372	800006c4	00009117	auipc	x2,0x9	  x2=0x800096c0
        3745000	       373	800006c8	8f310113	addi	x2,x2,-1805	  x2:0x800096c0  x2=0x80008fb3
        3755000	       374	800006cc	fff111a3	sh	x31,-29(x2)	  x2:0x80008fb3 x31:0x00007401 PA:0x80008f96
        3765000	       375	800006d0	03310a03	lb	x20,51(x2)	  x2:0x80008fb3 x20=0x00000047 PA:0x80008fe6
        3775000	       376	800006d4	00b10583	lb	x11,11(x2)	  x2:0x80008fb3 x11=0xffffffb4 PA:0x80008fbe
        3785000	       377	800006d8	11a3aa17	auipc	x20,0x11a3a	 x20=0x91a3a6d4
        3795000	       378	800006dc	00de71b3	and	x3,x28,x13	 x28:0xf8000876 x13:0x000000ac  x3=0x00000024
        3805000	       379	800006e0	fc210423	sb	x2,-56(x2)	  x2:0x80008fb3  x2:0x80008fb3 PA:0x80008f7b
        3815000	       380	800006e4	fc710aa3	sb	x7,-43(x2)	  x2:0x80008fb3  x7:0x00000001 PA:0x80008f88
        3825000	       381	800006e8	01d11ca3	sh	x29,25(x2)	  x2:0x80008fb3 x29:0x00000001 PA:0x80008fcc
        3835000	       382	800006ec	00720db3	add	x27,x4,x7	  x4:0x000000b5  x7:0x00000001 x27=0x000000b6
        3845000	       383	800006f0	86a8b193	sltiu	x3,x17,-1942	 x17:0x00000000  x3=0x00000001
        3855000	       384	800006f4	fda10b83	lb	x23,-38(x2)	  x2:0x80008fb3 x23=0xffffffbd PA:0x80008f8d
        3865000	       385	800006f8	02a14603	lbu	x12,42(x2)	  x2:0x80008fb3 x12=0x0000005b PA:0x80008fdd
        3875000	       386	800006fc	9643f393	andi	x7,x7,-1692	  x7:0x00000001  x7=0x00000000
        3885000	       387	80000700	ff614b83	lbu	x23,-10(x2)	  x2:0x80008fb3 x23=0x000000e0 PA:0x80008fa9
        3895000	       388	80000704	01347433	and	x8,x8,x19	  x8:0x00000000 x19:0x00000026  x8=0x00000000
        3905000	       389	80000708	11fc0513	addi	x10,x24,287	 x24:0x000000d3 x10=0x000001f2
        3915000	       390	8000070c	01480733	add	x14,x16,x20	 x16:0xffffffb3 x20:0x91a3a6d4 x14=0x91a3a687
        3925000	       391	80000710	00410083	lb	x1,4(x2)	  x2:0x80008fb3  x1=0x00000040 PA:0x80008fb7
        3935000	       392	80000714	fe915683	lhu	x13,-23(x2)	  x2:0x80008fb3 x13=0x00000679 PA:0x80008f9c
        3945000	       393	80000718	c5f12d13	slti	x26,x2,-929	  x2:0x80008fb3 x26=0x00000001
        3955000	       394	8000071c	92413f97	auipc	x31,0x92413	 x31=0x12413718
        3965000	       395	80000720	fd710e23	sb	x23,-36(x2)	  x2:0x80008fb3 x23:0x000000e0 PA:0x80008f8f
        3975000	       396	80000724	4d4ab913	sltiu	x18,x21,1236	 x21:0x00000001 x18=0x00000001
        3985000	       397	80000728	7ecefe93	andi	x29,x29,2028	 x29:0x00000001 x29=0x00000000
        3995000	       398	8000072c	40015d93	srai	x27,x2,0x0	  x2:0x80008fb3 x27=0x80008fb3
        4005000	       399	80000730	41220fb3	sub	x31,x4,x18	  x4:0x000000b5 x18:0x00000001 x31=0x000000b4
        4015000	       400	80000734	fff14003	lbu	x0,-1(x2)	  x2:0x80008fb3 PA:0x80008fb2
        4025000	       401	80000738	00bcb033	sltu	x0,x25,x11	 x25:0x80000000 x11:0xffffffb4
        4035000	       402	8000073c	02715603	lhu	x12,39(x2)	  x2:0x80008fb3 x12=0x00006fdc PA:0x80008fda
        4045000	       403	80000740	fcf14a03	lbu	x20,-49(x2)	  x2:0x80008fb3 x20=0x000000c0 PA:0x80008f82
        4055000	       404	80000744	0009df33	srl	x30,x19,x0	 x19:0x00000026  x0:0x00000000 x30=0x00000026
        4065000	       405	80000748	10908b93	addi	x23,x1,265	  x1:0x00000040 x23=0x00000149
        4075000	       406	8000074c	019b03b3	add	x7,x22,x25	 x22:0x0000d73f x25:0x80000000  x7=0x8000d73f
        4085000	       407	80000750	02214503	lbu	x10,34(x2)	  x2:0x80008fb3 x10=0x00000036 PA:0x80008fd5
        4095000	       408	80000754	01010223	sb	x16,4(x2)	  x2:0x80008fb3 x16:0xffffffb3 PA:0x80008fb7
        4105000	       409	80000758	02e10683	lb	x13,46(x2)	  x2:0x80008fb3 x13=0xffffffa1 PA:0x80008fe1
        4115000	       410	8000075c	014549b3	xor	x19,x10,x20	 x10:0x00000036 x20:0x000000c0 x19=0x000000f6
        4125000	       411	80000760	007d9993	slli	x19,x27,0x7	 x27:0x80008fb3 x19=0x0047d980
        4135000	       412	80000764	c7d4fb17	auipc	x22,0xc7d4f	 x22=0x47d4f760
        4145000	       413	80000768	ff010e03	lb	x28,-16(x2)	  x2:0x80008fb3 x28=0x00000019 PA:0x80008fa3
        4155000	       414	8000076c	00c10183	lb	x3,12(x2)	  x2:0x80008fb3  x3=0xffffffe7 PA:0x80008fbf
        4165000	       415	80000770	5076a213	slti	x4,x13,1287	 x13:0xffffffa1  x4=0x00000001
        4175000	       416	80000774	01a55593	srli	x11,x10,0x1a	 x10:0x00000036 x11=0x00000000
        4185000	       417	80000778	01110723	sb	x17,14(x2)	  x2:0x80008fb3 x17:0x00000000 PA:0x80008fc1
        4195000	       418	8000077c	b7b996b7	lui	x13,0xb7b99	 x13=0xb7b99000
        4205000	       419	80000780	40be0633	sub	x12,x28,x11	 x28:0x00000019 x11:0x00000000 x12=0x00000019
        4215000	       420	80000784	c5946813	ori	x16,x8,-935	  x8:0x00000000 x16=0xfffffc59
        4225000	       421	80000788	b7db3093	sltiu	x1,x22,-1155	 x22:0x47d4f760  x1=0x00000001
        4235000	       422	8000078c	fce14903	lbu	x18,-50(x2)	  x2:0x80008fb3 x18=0x00000047 PA:0x80008f81
        4245000	       423	80000790	02410923	sb	x4,50(x2)	  x2:0x80008fb3  x4:0x00000001 PA:0x80008fe5
        4255000	       424	80000794	01014a03	lbu	x20,16(x2)	  x2:0x80008fb3 x20=0x0000003b PA:0x80008fc3
        4265000	       425	80000798	ff010903	lb	x18,-16(x2)	  x2:0x80008fb3 x18=0x00000019 PA:0x80008fa3
        4275000	       426	8000079c	21af0593	addi	x11,x30,538	 x30:0x00000026 x11=0x00000240
        4285000	       427	800007a0	ffe10f03	lb	x30,-2(x2)	  x2:0x80008fb3 x30=0xffffff9f PA:0x80008fb1
        4295000	       428	800007a4	4f748813	addi	x16,x9,1271	  x9:0x80009fc4 x16=0x8000a4bb
        4305000	       429	800007a8	fec14b03	lbu	x22,-20(x2)	  x2:0x80008fb3 x22=0x000000ef PA:0x80008f9f
        4315000	       430	800007ac	02314303	lbu	x6,35(x2)	  x2:0x80008fb3  x6=0x0000006b PA:0x80008fd6
        4325000	       431	800007b0	00824e33	xor	x28,x4,x8	  x4:0x00000001  x8:0x00000000 x28=0x00000001
        4335000	       432	800007b4	fd410903	lb	x18,-44(x2)	  x2:0x80008fb3 x18=0x00000072 PA:0x80008f87
        4345000	       433	800007b8	fc214f03	lbu	x30,-62(x2)	  x2:0x80008fb3 x30=0x00000021 PA:0x80008f75
        4355000	       434	800007bc	00008117	auipc	x2,0x8	  x2=0x800087b8
        4365000	       435	800007c0	f9210113	addi	x2,x2,-110	  x2:0x800087b8  x2=0x8000874a
        4375000	       436	800007c4	fcc14f83	lbu	x31,-52(x2)	  x2:0x8000874a x31=0x000000c8 PA:0x80008716
        4385000	       437	800007c8	fc214d83	lbu	x27,-62(x2)	  x2:0x8000874a x27=0x000000a3 PA:0x8000870c
        4395000	       438	800007cc	ab99ff37	lui	x30,0xab99f	 x30=0xab99f000
        4405000	       439	800007d0	00b6c0b3	xor	x1,x13,x11	 x13:0xb7b99000 x11:0x00000240  x1=0xb7b99240
        4415000	       440	800007d4	02e11b83	lh	x23,46(x2)	  x2:0x8000874a x23=0x000000b5 PA:0x80008778
        4425000	       441	800007d8	014d5733	srl	x14,x26,x20	 x26:0x00000001 x20:0x0000003b x14=0x00000000
        4435000	       442	800007dc	fff10823	sb	x31,-16(x2)	  x2:0x8000874a x31:0x000000c8 PA:0x8000873a
        4445000	       443	800007e0	00000013	addi	x0,x0,0	  x0:0x00000000
        4455000	       444	800007e4	00000013	addi	x0,x0,0	  x0:0x00000000
        4465000	       445	800007e8	00000013	addi	x0,x0,0	  x0:0x00000000
        4475000	       446	800007ec	40485933	sra	x18,x16,x4	 x16:0x8000a4bb  x4:0x00000001 x18=0xc000525d
        4485000	       447	800007f0	ba6a1717	auipc	x14,0xba6a1	 x14=0x3a6a17ec
        4495000	       448	800007f4	01e45db3	srl	x27,x8,x30	  x8:0x00000000 x30:0xab99f000 x27=0x00000000
        4505000	       449	800007f8	fdc11003	lh	x0,-36(x2)	  x2:0x8000874a PA:0x80008726
        4515000	       450	800007fc	01dfd013	srli	x0,x31,0x1d	 x31:0x000000c8
        4525000	       451	80000800	02b10e03	lb	x28,43(x2)	  x2:0x8000874a x28=0xfffffffc PA:0x80008775
        4535000	       452	80000804	01610da3	sb	x22,27(x2)	  x2:0x8000874a x22:0x000000ef PA:0x80008765
        4545000	       453	80000808	01db9e33	sll	x28,x23,x29	 x23:0x000000b5 x29:0x00000000 x28=0x000000b5
        4555000	       454	8000080c	a8ecbc13	sltiu	x24,x25,-1394	 x25:0x80000000 x24=0x00000001
        4565000	       455	80000810	ebac8a97	auipc	x21,0xebac8	 x21=0x6bac880c
        4575000	       456	80000814	01ca7b33	and	x22,x20,x28	 x20:0x0000003b x28:0x000000b5 x22=0x00000031
        4585000	       457	80000818	022100a3	sb	x2,33(x2)	  x2:0x8000874a  x2:0x8000874a PA:0x8000876b
        4595000	       458	8000081c	02212123	sw	x2,34(x2)	  x2:0x8000874a  x2:0x8000874a PA:0x8000876c
        4605000	       459	80000820	4198da13	srai	x20,x17,0x19	 x17:0x00000000 x20=0x00000000
        4615000	       460	80000824	fc714403	lbu	x8,-57(x2)	  x2:0x8000874a  x8=0x000000ab PA:0x80008711
        4625000	       461	80000828	fd510823	sb	x21,-48(x2)	  x2:0x8000874a x21:0x6bac880c PA:0x8000871a
        4635000	       462	8000082c	41bf5033	sra	x0,x30,x27	 x30:0xab99f000 x27:0x00000000
        4645000	       463	80000830	00df7eb3	and	x29,x30,x13	 x30:0xab99f000 x13:0xb7b99000 x29=0xa3999000
        4655000	       464	80000834	fe414f03	lbu	x30,-28(x2)	  x2:0x8000874a x30=0x00000091 PA:0x8000872e
        4665000	       465	80000838	fc310303	lb	x6,-61(x2)	  x2:0x8000874a  x6=0xffffffda PA:0x8000870d
        4675000	       466	8000083c	00314803	lbu	x16,3(x2)	  x2:0x8000874a x16=0x00000001 PA:0x8000874d
        4685000	       467	80000840	01b14783	lbu	x15,27(x2)	  x2:0x8000874a x15=0x000000ef PA:0x80008765
        4695000	       468	80000844	fcb106a3	sb	x11,-51(x2)	  x2:0x8000874a x11:0x00000240 PA:0x80008717
        4705000	       469	80000848	fe610ba3	sb	x6,-9(x2)	  x2:0x8000874a  x6:0xffffffda PA:0x80008741
        4715000	       470	8000084c	002b1f13	slli	x30,x22,0x2	 x22:0x00000031 x30=0x000000c4
        4725000	       471	80000850	00000013	addi	x0,x0,0	  x0:0x00000000
        4735000	       472	80000854	3e53a313	slti	x6,x7,997	  x7:0x8000d73f  x6=0x00000001
        4745000	       473	80000858	012647b3	xor	x15,x12,x18	 x12:0x00000019 x18:0xc000525d x15=0xc0005244
        4755000	       474	8000085c	fd1102a3	sb	x17,-59(x2)	  x2:0x8000874a x17:0x00000000 PA:0x8000870f
        4765000	       475	80000860	2cb84c37	lui	x24,0x2cb84	 x24=0x2cb84000
        4775000	       476	80000864	01b190b3	sll	x1,x3,x27	  x3:0xffffffe7 x27:0x00000000  x1=0xffffffe7
        4785000	       477	80000868	00e10403	lb	x8,14(x2)	  x2:0x8000874a  x8=0xffffffdf PA:0x80008758
        4795000	       478	8000086c	011103a3	sb	x17,7(x2)	  x2:0x8000874a x17:0x00000000 PA:0x80008751
        4805000	       479	80000870	2a40fb13	andi	x22,x1,676	  x1:0xffffffe7 x22=0x000002a4
        4815000	       480	80000874	03d10b03	lb	x22,61(x2)	  x2:0x8000874a x22=0x00000036 PA:0x80008787
        4825000	       481	80000878	03510e03	lb	x28,53(x2)	  x2:0x8000874a x28=0x00000074 PA:0x8000877f
        4835000	       482	8000087c	90a64a97	auipc	x21,0x90a64	 x21=0x10a64878
        4845000	       483	80000880	de0f6213	ori	x4,x30,-544	 x30:0x000000c4  x4=0xfffffde4
        4855000	       484	80000884	ff415d83	lhu	x27,-12(x2)	  x2:0x8000874a x27=0x00009b41 PA:0x8000873e
        4865000	       485	80000888	00000013	addi	x0,x0,0	  x0:0x00000000
        4875000	       486	8000088c	04d10023	sb	x13,64(x2)	  x2:0x8000874a x13:0xb7b99000 PA:0x8000878a
        4885000	       487	80000890	00df8463	beq	x31,x13,80000898	 x31:0x000000c8 x13:0xb7b99000
        4895000	       488	80000894	027b5e63	bge	x22,x7,800008d0	 x22:0x00000036  x7:0x8000d73f
        4905000	       489	00000000	00000013	addi	x0,x0,0	  x0:0x00000000
        4915000	       490	800008cc	00000013	addi	x0,x0,0	  x0:0x00000000
        4925000	       491	800008d0	013c4eb3	xor	x29,x24,x19	 x24:0x2cb84000 x19:0x0047d980 x29=0x2cff9980
        4935000	       492	800008d4	8434b693	sltiu	x13,x9,-1981	  x9:0x80009fc4 x13=0x00000001
        4945000	       493	800008d8	403687b3	sub	x15,x13,x3	 x13:0x00000001  x3:0xffffffe7 x15=0x0000001a
        4955000	       494	800008dc	1cb7f993	andi	x19,x15,459	 x15:0x0000001a x19=0x0000000a
        4965000	       495	800008e0	0156fb33	and	x22,x13,x21	 x13:0x00000001 x21:0x10a64878 x22=0x00000000
        4975000	       496	800008e4	02066063	bltu	x12,x0,80000904	 x12:0x00000019  x0:0x00000000
        4985000	       497	800008e8	20c33e93	sltiu	x29,x6,524	  x6:0x00000001 x29=0x00000001
        4995000	       498	800008ec	01f31213	slli	x4,x6,0x1f	  x6:0x00000001  x4=0x80000000
        5005000	       499	800008f0	000ed113	srli	x2,x29,0x0	 x29:0x00000001  x2=0x00000001
        5015000	       500	800008f4	40fd0b33	sub	x22,x26,x15	 x26:0x00000001 x15:0x0000001a x22=0xffffffe7
        5025000	       501	800008f8	00dacfb3	xor	x31,x21,x13	 x21:0x10a64878 x13:0x00000001 x31=0x10a64879
        5035000	       502	800008fc	00839733	sll	x14,x7,x8	  x7:0x8000d73f  x8:0xffffffdf x14=0x80000000
        5045000	       503	80000900	01f8e463	bltu	x17,x31,80000908	 x17:0x00000000 x31:0x10a64879
        5055000	       504	00000000	00000013	addi	x0,x0,0	  x0:0x00000000
        5065000	       505	80000904	00000013	addi	x0,x0,0	  x0:0x00000000
        5075000	       506	80000908	40bf5713	srai	x14,x30,0xb	 x30:0x000000c4 x14=0x00000000
        5085000	       507	8000090c	00000013	addi	x0,x0,0	  x0:0x00000000
        5095000	       508	80000910	41cc81b3	sub	x3,x25,x28	 x25:0x80000000 x28:0x00000074  x3=0x7fffff8c
        5105000	       509	80000914	00fbf5b3	and	x11,x23,x15	 x23:0x000000b5 x15:0x0000001a x11=0x00000010
        5115000	       510	80000918	03919063	bne	x3,x25,80000938	  x3:0x7fffff8c x25:0x80000000
        5125000	       511	00000000	00000013	addi	x0,x0,0	  x0:0x00000000
        5135000	       512	80000934	00000013	addi	x0,x0,0	  x0:0x00000000
        5145000	       513	80000938	01d55c13	srli	x24,x10,0x1d	 x10:0x00000036 x24=0x00000000
        5155000	       514	8000093c	40505133	sra	x2,x0,x5	  x0:0x00000000  x5:0x80009f3c  x2=0x00000000
        5165000	       515	80000940	9cfdc113	xori	x2,x27,-1585	 x27:0x00009b41  x2=0xffff628e
        5175000	       516	80000944	df49c193	xori	x3,x19,-524	 x19:0x0000000a  x3=0xfffffdfe
        5185000	       517	80000948	0d475c63	bge	x14,x20,80000a20	 x14:0x00000000 x20:0x00000000
        5195000	       518	00000000	00000013	addi	x0,x0,0	  x0:0x00000000
        5205000	       519	80000a1c	00000013	addi	x0,x0,0	  x0:0x00000000
        5215000	       520	80000a20	70b1bd93	sltiu	x27,x3,1803	  x3:0xfffffdfe x27=0x00000000
        5225000	       521	80000a24	877dbd13	sltiu	x26,x27,-1929	 x27:0x00000000 x26=0x00000001
        5235000	       522	80000a28	011dddb3	srl	x27,x27,x17	 x27:0x00000000 x17:0x00000000 x27=0x00000000
        5245000	       523	80000a2c	01d10d33	add	x26,x2,x29	  x2:0xffff628e x29:0x00000001 x26=0xffff628f
        5255000	       524	80000a30	003ceab3	or	x21,x25,x3	 x25:0x80000000  x3:0xfffffdfe x21=0xfffffdfe
        5265000	       525	80000a34	41b28a33	sub	x20,x5,x27	  x5:0x80009f3c x27:0x00000000 x20=0x80009f3c
        5275000	       526	80000a38	f60801b7	lui	x3,0xf6080	  x3=0xf6080000
        5285000	       527	80000a3c	004b26b3	slt	x13,x22,x4	 x22:0xffffffe7  x4:0x80000000 x13=0x00000000
        5295000	       528	80000a40	016b7f13	andi	x30,x22,22	 x22:0xffffffe7 x30=0x00000006
        5305000	       529	80000a44	003808b3	add	x17,x16,x3	 x16:0x00000001  x3:0xf6080000 x17=0xf6080001
        5315000	       530	80000a48	01d68533	add	x10,x13,x29	 x13:0x00000000 x29:0x00000001 x10=0x00000001
        5325000	       531	80000a4c	00ed7263	bgeu	x26,x14,80000a50	 x26:0xffff628f x14:0x00000000
        5335000	       532	00000000	00000013	addi	x0,x0,0	  x0:0x00000000
        5345000	       533	80000a4c	00000013	addi	x0,x0,0	  x0:0x00000000
        5355000	       534	80000a50	f7463837	lui	x16,0xf7463	 x16=0xf7463000
        5365000	       535	80000a54	00000013	addi	x0,x0,0	  x0:0x00000000
        5375000	       536	80000a58	e6e3ed37	lui	x26,0xe6e3e	 x26=0xe6e3e000
        5385000	       537	80000a5c	0082bbb3	sltu	x23,x5,x8	  x5:0x80009f3c  x8:0xffffffdf x23=0x00000001
        5395000	       538	80000a60	e128ec13	ori	x24,x17,-494	 x17:0xf6080001 x24=0xfffffe13
        5405000	       539	80000a64	415b85b3	sub	x11,x23,x21	 x23:0x00000001 x21:0xfffffdfe x11=0x00000203
        5415000	       540	80000a68	e49b8d93	addi	x27,x23,-439	 x23:0x00000001 x27=0xfffffe4a
        5425000	       541	80000a6c	cd30b393	sltiu	x7,x1,-813	  x1:0xffffffe7  x7=0x00000000
        5435000	       542	80000a70	410ad9b3	sra	x19,x21,x16	 x21:0xfffffdfe x16:0xf7463000 x19=0xfffffdfe
        5445000	       543	80000a74	01f0d463	bge	x1,x31,80000a7c	  x1:0xffffffe7 x31:0x10a64879
        5455000	       544	80000a78	6dc455b7	lui	x11,0x6dc45	 x11=0x6dc45000
        5465000	       545	80000a7c	a0ec9997	auipc	x19,0xa0ec9	 x19=0x20ec9a78
        5475000	       546	80000a80	00000013	addi	x0,x0,0	  x0:0x00000000
        5485000	       547	80000a84	05fce463	bltu	x25,x31,80000acc	 x25:0x80000000 x31:0x10a64879
        5495000	       548	80000a88	00f9bbb3	sltu	x23,x19,x15	 x19:0x20ec9a78 x15:0x0000001a x23=0x00000000
        5505000	       549	80000a8c	63926f13	ori	x30,x4,1593	  x4:0x80000000 x30=0x80000639
        5515000	       550	80000a90	b2256d13	ori	x26,x10,-1246	 x10:0x00000001 x26=0xfffffb23
        5525000	       551	80000a94	000078b3	and	x17,x0,x0	  x0:0x00000000  x0:0x00000000 x17=0x00000000
        5535000	       552	80000a98	01c75e33	srl	x28,x14,x28	 x14:0x00000000 x28:0x00000074 x28=0x00000000
        5545000	       553	80000a9c	00000013	addi	x0,x0,0	  x0:0x00000000
        5555000	       554	80000aa0	41178eb3	sub	x29,x15,x17	 x15:0x0000001a x17:0x00000000 x29=0x0000001a
        5565000	       555	80000aa4	4066d093	srai	x1,x13,0x6	 x13:0x00000000  x1=0x00000000
        5575000	       556	80000aa8	058c8263	beq	x25,x24,80000aec	 x25:0x80000000 x24:0xfffffe13
        5585000	       557	80000aac	0587f063	bgeu	x15,x24,80000aec	 x15:0x0000001a x24:0xfffffe13
        5595000	       558	80000ab0	03129a63	bne	x5,x17,80000ae4	  x5:0x80009f3c x17:0x00000000
        5605000	       559	00000000	00000013	addi	x0,x0,0	  x0:0x00000000
        5615000	       560	80000ae0	00000013	addi	x0,x0,0	  x0:0x00000000
        5625000	       561	80000ae4	01f04263	blt	x0,x31,80000ae8	  x0:0x00000000 x31:0x10a64879
        5635000	       562	00000000	00000013	addi	x0,x0,0	  x0:0x00000000
        5645000	       563	80000ae4	00000013	addi	x0,x0,0	  x0:0x00000000
        5655000	       564	80000ae8	010b6ab3	or	x21,x22,x16	 x22:0xffffffe7 x16:0xf7463000 x21=0xffffffe7
        5665000	       565	80000aec	00815ab3	srl	x21,x2,x8	  x2:0xffff628e  x8:0xffffffdf x21=0x00000001
        5675000	       566	80000af0	40d40b33	sub	x22,x8,x13	  x8:0xffffffdf x13:0x00000000 x22=0xffffffdf
        5685000	       567	80000af4	0225c113	xori	x2,x11,34	 x11:0x6dc45000  x2=0x6dc45022
        5695000	       568	80000af8	3c3d3c13	sltiu	x24,x26,963	 x26:0xfffffb23 x24=0x00000000
        5705000	       569	80000afc	a055ce93	xori	x29,x11,-1531	 x11:0x6dc45000 x29=0x923baa05
        5715000	       570	80000b00	6a31c313	xori	x6,x3,1699	  x3:0xf6080000  x6=0xf60806a3
        5725000	       571	80000b04	00000013	addi	x0,x0,0	  x0:0x00000000
        5735000	       572	80000b08	00f2ddb3	srl	x27,x5,x15	  x5:0x80009f3c x15:0x0000001a x27=0x00000020
        5745000	       573	80000b0c	006c7f33	and	x30,x24,x6	 x24:0x00000000  x6:0xf60806a3 x30=0x00000000
        5755000	       574	80000b10	415d5793	srai	x15,x26,0x15	 x26:0xfffffb23 x15=0xffffffff
        5765000	       575	80000b14	00757f33	and	x30,x10,x7	 x10:0x00000001  x7:0x00000000 x30=0x00000000
        5775000	       576	80000b18	6f223b13	sltiu	x22,x4,1778	  x4:0x80000000 x22=0x00000000
        5785000	       577	80000b1c	03530263	beq	x6,x21,80000b40	  x6:0xf60806a3 x21:0x00000001
        5795000	       578	80000b20	0183d093	srli	x1,x7,0x18	  x7:0x00000000  x1=0x00000000
        5805000	       579	80000b24	01f1cd33	xor	x26,x3,x31	  x3:0xf6080000 x31:0x10a64879 x26=0xe6ae4879
        5815000	       580	80000b28	00000013	addi	x0,x0,0	  x0:0x00000000
        5825000	       581	80000b2c	b6fed8b7	lui	x17,0xb6fed	 x17=0xb6fed000
        5835000	       582	80000b30	00e90033	add	x0,x18,x14	 x18:0xc000525d x14:0x00000000
        5845000	       583	80000b34	03885a63	bge	x16,x24,80000b68	 x16:0xf7463000 x24:0x00000000
        5855000	       584	80000b38	030cdc63	bge	x25,x16,80000b70	 x25:0x80000000 x16:0xf7463000
        5865000	       585	80000b3c	7665ec13	ori	x24,x11,1894	 x11:0x6dc45000 x24=0x6dc45766
        5875000	       586	80000b40	01f6f663	bgeu	x13,x31,80000b4c	 x13:0x00000000 x31:0x10a64879
        5885000	       587	80000b44	00c31133	sll	x2,x6,x12	  x6:0xf60806a3 x12:0x00000019  x2=0x46000000
        5895000	       588	80000b48	00ee3433	sltu	x8,x28,x14	 x28:0x00000000 x14:0x00000000  x8=0x00000000
        5905000	       589	80000b4c	00fdd263	bge	x27,x15,80000b50	 x27:0x00000020 x15:0xffffffff
        5915000	       590	00000000	00000013	addi	x0,x0,0	  x0:0x00000000
        5925000	       591	80000b4c	00000013	addi	x0,x0,0	  x0:0x00000000
        5935000	       592	80000b50	01a79e93	slli	x29,x15,0x1a	 x15:0xffffffff x29=0xfc000000
        5945000	       593	80000b54	006b2db3	slt	x27,x22,x6	 x22:0x00000000  x6:0xf60806a3 x27=0x00000000
        5955000	       594	80000b58	0599f463	bgeu	x19,x25,80000ba0	 x19:0x20ec9a78 x25:0x80000000
        5965000	       595	80000b5c	03e98063	beq	x19,x30,80000b7c	 x19:0x20ec9a78 x30:0x00000000
        5975000	       596	80000b60	11826b93	ori	x23,x4,280	  x4:0x80000000 x23=0x80000118
        5985000	       597	80000b64	03186a63	bltu	x16,x17,80000b98	 x16:0xf7463000 x17:0xb6fed000
        5995000	       598	80000b68	05ba1663	bne	x20,x27,80000bb4	 x20:0x80009f3c x27:0x00000000
        6005000	       599	00000000	00000013	addi	x0,x0,0	  x0:0x00000000
        6015000	       600	80000bb0	00000013	addi	x0,x0,0	  x0:0x00000000
        6025000	       601	80000bb4	00e745b3	xor	x11,x14,x14	 x14:0x00000000 x14:0x00000000 x11=0x00000000
        6035000	       602	80000bb8	03f28263	beq	x5,x31,80000bdc	  x5:0x80009f3c x31:0x10a64879
        6045000	       603	80000bbc	01a45793	srli	x15,x8,0x1a	  x8:0x00000000 x15=0x00000000
        6055000	       604	80000bc0	1534e193	ori	x3,x9,339	  x9:0x80009fc4  x3=0x80009fd7
        6065000	       605	80000bc4	00000013	addi	x0,x0,0	  x0:0x00000000
        6075000	       606	80000bc8	01980033	add	x0,x16,x25	 x16:0xf7463000 x25:0x80000000
        6085000	       607	80000bcc	00945463	bge	x8,x9,80000bd4	  x8:0x00000000  x9:0x80009fc4
        6095000	       608	00000000	00000013	addi	x0,x0,0	  x0:0x00000000
        6105000	       609	80000bd0	00000013	addi	x0,x0,0	  x0:0x00000000
        6115000	       610	80000bd4	873c7693	andi	x13,x24,-1933	 x24:0x6dc45766 x13=0x6dc45062
        6125000	       611	80000bd8	fe56e013	ori	x0,x13,-27	 x13:0x6dc45062
        6135000	       612	80000bdc	40040bb3	sub	x23,x8,x0	  x8:0x00000000  x0:0x00000000 x23=0x00000000
        6145000	       613	80000be0	3ffd3d13	sltiu	x26,x26,1023	 x26:0xe6ae4879 x26=0x00000000
        6155000	       614	80000be4	00c31b13	slli	x22,x6,0xc	  x6:0xf60806a3 x22=0x806a3000
        6165000	       615	80000be8	b4e8ec13	ori	x24,x17,-1202	 x17:0xb6fed000 x24=0xfffffb4e
        6175000	       616	80000bec	7de78917	auipc	x18,0x7de78	 x18=0xfde78be8
        6185000	       617	80000bf0	009c6263	bltu	x24,x9,80000bf4	 x24:0xfffffb4e  x9:0x80009fc4
        6195000	       618	80000bf4	01e8f463	bgeu	x17,x30,80000bfc	 x17:0xb6fed000 x30:0x00000000
        6205000	       619	00000000	00000013	addi	x0,x0,0	  x0:0x00000000
        6215000	       620	80000bf8	00000013	addi	x0,x0,0	  x0:0x00000000
        6225000	       621	80000bfc	04fa6263	bltu	x20,x15,80000c40	 x20:0x80009f3c x15:0x00000000
        6235000	       622	80000c00	01205d93	srli	x27,x0,0x12	  x0:0x00000000 x27=0x00000000
        6245000	       623	80000c04	03ea7a63	bgeu	x20,x30,80000c38	 x20:0x80009f3c x30:0x00000000
        6255000	       624	00000000	00000013	addi	x0,x0,0	  x0:0x00000000
        6265000	       625	80000c34	00000013	addi	x0,x0,0	  x0:0x00000000
        6275000	       626	80000c38	037f7663	bgeu	x30,x23,80000c64	 x30:0x00000000 x23:0x00000000
        6285000	       627	00000000	00000013	addi	x0,x0,0	  x0:0x00000000
        6295000	       628	80000c60	00000013	addi	x0,x0,0	  x0:0x00000000
        6305000	       629	80000c64	40e785b3	sub	x11,x15,x14	 x15:0x00000000 x14:0x00000000 x11=0x00000000
        6315000	       630	80000c68	011ec633	xor	x12,x29,x17	 x29:0xfc000000 x17:0xb6fed000 x12=0x4afed000
        6325000	       631	80000c6c	03ee7a63	bgeu	x28,x30,80000ca0	 x28:0x00000000 x30:0x00000000
        6335000	       632	00000000	00000013	addi	x0,x0,0	  x0:0x00000000
        6345000	       633	80000c9c	00000013	addi	x0,x0,0	  x0:0x00000000
        6355000	       634	80000ca0	413b5693	srai	x13,x22,0x13	 x22:0x806a3000 x13=0xfffff00d
        6365000	       635	80000ca4	0186c263	blt	x13,x24,80000ca8	 x13:0xfffff00d x24:0xfffffb4e
        6375000	       636	00000000	00000013	addi	x0,x0,0	  x0:0x00000000
        6385000	       637	80000ca4	00000013	addi	x0,x0,0	  x0:0x00000000
        6395000	       638	80000ca8	44e03593	sltiu	x11,x0,1102	  x0:0x00000000 x11=0x00000001
        6405000	       639	80000cac	41565bb3	sra	x23,x12,x21	 x12:0x4afed000 x21:0x00000001 x23=0x257f6800
        6415000	       640	80000cb0	02fa1063	bne	x20,x15,80000cd0	 x20:0x80009f3c x15:0x00000000
        6425000	       641	00000000	00000013	addi	x0,x0,0	  x0:0x00000000
        6435000	       642	80000ccc	00000013	addi	x0,x0,0	  x0:0x00000000
        6445000	       643	80000cd0	01291d93	slli	x27,x18,0x12	 x18:0xfde78be8 x27=0x2fa00000
        6455000	       644	80000cd4	03fe5263	bge	x28,x31,80000cf8	 x28:0x00000000 x31:0x10a64879
        6465000	       645	80000cd8	4ddccd37	lui	x26,0x4ddcc	 x26=0x4ddcc000
        6475000	       646	80000cdc	00a17663	bgeu	x2,x10,80000ce8	  x2:0x46000000 x10:0x00000001
        6485000	       647	00000000	00000013	addi	x0,x0,0	  x0:0x00000000
        6495000	       648	80000ce4	00000013	addi	x0,x0,0	  x0:0x00000000
        6505000	       649	80000ce8	016a9db3	sll	x27,x21,x22	 x21:0x00000001 x22:0x806a3000 x27=0x00000001
        6515000	       650	80000cec	407e56b3	sra	x13,x28,x7	 x28:0x00000000  x7:0x00000000 x13=0x00000000
        6525000	       651	80000cf0	016e9733	sll	x14,x29,x22	 x29:0xfc000000 x22:0x806a3000 x14=0xfc000000
        6535000	       652	80000cf4	41b9d913	srai	x18,x19,0x1b	 x19:0x20ec9a78 x18=0x00000004
        6545000	       653	80000cf8	33386e93	ori	x29,x16,819	 x16:0xf7463000 x29=0xf7463333
        6555000	       654	80000cfc	02704063	blt	x0,x7,80000d1c	  x0:0x00000000  x7:0x00000000
        6565000	       655	80000d00	0333da63	bge	x7,x19,80000d34	  x7:0x00000000 x19:0x20ec9a78
        6575000	       656	80000d04	001138b3	sltu	x17,x2,x1	  x2:0x46000000  x1:0x00000000 x17=0x00000000
        6585000	       657	80000d08	02454e63	blt	x10,x4,80000d44	 x10:0x00000001  x4:0x80000000
        6595000	       658	80000d0c	95736d93	ori	x27,x6,-1705	  x6:0xf60806a3 x27=0xfffffff7
        6605000	       659	80000d10	fbac6c13	ori	x24,x24,-70	 x24:0xfffffb4e x24=0xfffffffe
        6615000	       660	80000d14	412f8533	sub	x10,x31,x18	 x31:0x10a64879 x18:0x00000004 x10=0x10a64875
        6625000	       661	80000d18	00323ab3	sltu	x21,x4,x3	  x4:0x80000000  x3:0x80009fd7 x21=0x00000001
        6635000	       662	80000d1c	01211113	slli	x2,x2,0x12	  x2:0x46000000  x2=0x00000000
        6645000	       663	80000d20	404e51b3	sra	x3,x28,x4	 x28:0x00000000  x4:0x80000000  x3=0x00000000
        6655000	       664	80000d24	018b5fb3	srl	x31,x22,x24	 x22:0x806a3000 x24:0xfffffffe x31=0x00000002
        6665000	       665	80000d28	0040fd33	and	x26,x1,x4	  x1:0x00000000  x4:0x80000000 x26=0x00000000
        6675000	       666	80000d2c	006316b3	sll	x13,x6,x6	  x6:0xf60806a3  x6:0xf60806a3 x13=0xb0403518
        6685000	       667	80000d30	012d15b3	sll	x11,x26,x18	 x26:0x00000000 x18:0x00000004 x11=0x00000000
        6695000	       668	80000d34	409f0f33	sub	x30,x30,x9	 x30:0x00000000  x9:0x80009fc4 x30=0x7fff603c
        6705000	       669	80000d38	ffb44693	xori	x13,x8,-5	  x8:0x00000000 x13=0xfffffffb
        6715000	       670	80000d3c	ef42a613	slti	x12,x5,-268	  x5:0x80009f3c x12=0x00000001
        6725000	       671	80000d40	d8bd6513	ori	x10,x26,-629	 x26:0x00000000 x10=0xfffffd8b
        6735000	       672	80000d44	046af263	bgeu	x21,x6,80000d88	 x21:0x00000001  x6:0xf60806a3
        6745000	       673	80000d48	c165ef37	lui	x30,0xc165e	 x30=0xc165e000
        6755000	       674	80000d4c	a15d6b13	ori	x22,x26,-1515	 x26:0x00000000 x22=0xfffffa15
        6765000	       675	80000d50	02e6fa63	bgeu	x13,x14,80000d84	 x13:0xfffffffb x14:0xfc000000
        6775000	       676	00000000	00000013	addi	x0,x0,0	  x0:0x00000000
        6785000	       677	80000d80	00000013	addi	x0,x0,0	  x0:0x00000000
        6795000	       678	80000d84	0199c6b3	xor	x13,x19,x25	 x19:0x20ec9a78 x25:0x80000000 x13=0xa0ec9a78
        6805000	       679	80000d88	02a69e63	bne	x13,x10,80000dc4	 x13:0xa0ec9a78 x10:0xfffffd8b
        6815000	       680	00000000	00000013	addi	x0,x0,0	  x0:0x00000000
        6825000	       681	80000dc0	00000013	addi	x0,x0,0	  x0:0x00000000
        6835000	       682	80000dc4	0142a633	slt	x12,x5,x20	  x5:0x80009f3c x20:0x80009f3c x12=0x00000000
        6845000	       683	80000dc8	d29b6413	ori	x8,x22,-727	 x22:0xfffffa15  x8=0xffffff3d
        6855000	       684	80000dcc	4011d193	srai	x3,x3,0x1	  x3:0x00000000  x3=0x00000000
        6865000	       685	80000dd0	01880263	beq	x16,x24,80000dd4	 x16:0xf7463000 x24:0xfffffffe
        6875000	       686	80000dd4	01fd9d33	sll	x26,x27,x31	 x27:0xfffffff7 x31:0x00000002 x26=0xffffffdc
        6885000	       687	80000dd8	00008e97	auipc	x29,0x8	 x29=0x80008dd4
        6895000	       688	80000ddc	f5ae8e93	addi	x29,x29,-166	 x29:0x80008dd4 x29=0x80008d2e
        6905000	       689	80000de0	033ec403	lbu	x8,51(x29)	 x29:0x80008d2e  x8=0x00000022 PA:0x80008d61
        6915000	       690	80000de4	00a1d893	srli	x17,x3,0xa	  x3:0x00000000 x17=0x00000000
        6925000	       691	80000de8	ffbe9f23	sh	x27,-2(x29)	 x29:0x80008d2e x27:0xfffffff7 PA:0x80008d2c
        6935000	       692	80000dec	016e9583	lh	x11,22(x29)	 x29:0x80008d2e x11=0xffffffd1 PA:0x80008d44
        6945000	       693	80000df0	b4983913	sltiu	x18,x16,-1207	 x16:0xf7463000 x18=0x00000001
        6955000	       694	80000df4	011e83a3	sb	x17,7(x29)	 x29:0x80008d2e x17:0x00000000 PA:0x80008d35
        6965000	       695	80000df8	00dd5533	srl	x10,x26,x13	 x26:0xffffffdc x13:0xa0ec9a78 x10=0x000000ff
        6975000	       696	80000dfc	011ed113	srli	x2,x29,0x11	 x29:0x80008d2e  x2=0x00004000
        6985000	       697	80000e00	003e8003	lb	x0,3(x29)	 x29:0x80008d2e PA:0x80008d31
        6995000	       698	80000e04	00ce83a3	sb	x12,7(x29)	 x29:0x80008d2e x12:0x00000000 PA:0x80008d35
        7005000	       699	80000e08	017a1613	slli	x12,x20,0x17	 x20:0x80009f3c x12=0x9e000000
        7015000	       700	80000e0c	01813c33	sltu	x24,x2,x24	  x2:0x00004000 x24:0xfffffffe x24=0x00000001
        7025000	       701	80000e10	fe7e8383	lb	x7,-25(x29)	 x29:0x80008d2e  x7=0xffffffa5 PA:0x80008d15
        7035000	       702	80000e14	026ed803	lhu	x16,38(x29)	 x29:0x80008d2e x16=0x0000a4e8 PA:0x80008d54
        7045000	       703	00000000	00000013	addi	x0,x0,0	  x0:0x00000000
        7055000	       704	80000e18	01a825b3	slt	x11,x16,x26	 x16:0x0000a4e8 x26:0xffffffdc x11=0x00000000
        7065000	       705	80000e1c	fffe84a3	sb	x31,-23(x29)	 x29:0x80008d2e x31:0x00000002 PA:0x80008d17
        7075000	       706	80000e20	018f1333	sll	x6,x30,x24	 x30:0xc165e000 x24:0x00000001  x6=0x82cbc000
        7085000	       707	80000e24	01be1193	slli	x3,x28,0x1b	 x28:0x00000000  x3=0x00000000
        7095000	       708	80000e28	01462333	slt	x6,x12,x20	 x12:0x9e000000 x20:0x80009f3c  x6=0x00000000
        7105000	       709	80000e2c	015e8403	lb	x8,21(x29)	 x29:0x80008d2e  x8=0x00000010 PA:0x80008d43
        7115000	       710	80000e30	00b66bb3	or	x23,x12,x11	 x12:0x9e000000 x11:0x00000000 x23=0x9e000000
        7125000	       711	80000e34	01924e33	xor	x28,x4,x25	  x4:0x80000000 x25:0x80000000 x28=0x00000000
        7135000	       712	80000e38	fc2e86a3	sb	x2,-51(x29)	 x29:0x80008d2e  x2:0x00004000 PA:0x80008cfb
        7145000	       713	80000e3c	00000013	addi	x0,x0,0	  x0:0x00000000
        7155000	       714	80000e40	0081abb3	slt	x23,x3,x8	  x3:0x00000000  x8:0x00000010 x23=0x00000001
        7165000	       715	80000e44	038e9883	lh	x17,56(x29)	 x29:0x80008d2e x17=0x00004bb3 PA:0x80008d66
        7175000	       716	80000e48	034e9e03	lh	x28,52(x29)	 x29:0x80008d2e x28=0x0000224f PA:0x80008d62
        7185000	       717	80000e4c	fefe8203	lb	x4,-17(x29)	 x29:0x80008d2e  x4=0xffffffaf PA:0x80008d1d
        7195000	       718	80000e50	edfb4093	xori	x1,x22,-289	 x22:0xfffffa15  x1=0x000004ca
        7205000	       719	80000e54	005ecd03	lbu	x26,5(x29)	 x29:0x80008d2e x26=0x0000009b PA:0x80008d33
        7215000	       720	80000e58	00ce9a23	sh	x12,20(x29)	 x29:0x80008d2e x12:0x9e000000 PA:0x80008d42
        7225000	       721	80000e5c	084b2f93	slti	x31,x22,132	 x22:0xfffffa15 x31=0x00000001
        7235000	       722	80000e60	710a0313	addi	x6,x20,1808	 x20:0x80009f3c  x6=0x8000a64c
        7245000	       723	80000e64	01aedb03	lhu	x22,26(x29)	 x29:0x80008d2e x22=0x00001767 PA:0x80008d48
        7255000	       724	80000e68	fdbec003	lbu	x0,-37(x29)	 x29:0x80008d2e PA:0x80008d09
        7265000	       725	80000e6c	fdbe8e03	lb	x28,-37(x29)	 x29:0x80008d2e x28=0x00000035 PA:0x80008d09
        7275000	       726	80000e70	fd6e80a3	sb	x22,-63(x29)	 x29:0x80008d2e x22:0x00001767 PA:0x80008cef
        7285000	       727	80000e74	ffee8b83	lb	x23,-2(x29)	 x29:0x80008d2e x23=0xfffffff7 PA:0x80008d2c
        7295000	       728	80000e78	e198f513	andi	x10,x17,-487	 x17:0x00004bb3 x10=0x00004a11
        7305000	       729	80000e7c	019ec603	lbu	x12,25(x29)	 x29:0x80008d2e x12=0x000000a2 PA:0x80008d47
        7315000	       730	80000e80	028e9583	lh	x11,40(x29)	 x29:0x80008d2e x11=0xfffff99d PA:0x80008d56
        7325000	       731	80000e84	401c8a33	sub	x20,x25,x1	 x25:0x80000000  x1:0x000004ca x20=0x7ffffb36
        7335000	       732	80000e88	5e2cab13	slti	x22,x25,1506	 x25:0x80000000 x22=0x00000001
        7345000	       733	80000e8c	004ec303	lbu	x6,4(x29)	 x29:0x80008d2e  x6=0x000000bb PA:0x80008d32
        7355000	       734	80000e90	40485fb3	sra	x31,x16,x4	 x16:0x0000a4e8  x4:0xffffffaf x31=0x00000001
        7365000	       735	80000e94	fe13f317	auipc	x6,0xfe13f	  x6=0x7e13fe90
        7375000	       736	80000e98	03fe8ea3	sb	x31,61(x29)	 x29:0x80008d2e x31:0x00000001 PA:0x80008d6b
        7385000	       737	80000e9c	030ec603	lbu	x12,48(x29)	 x29:0x80008d2e x12=0x000000ec PA:0x80008d5e
        7395000	       738	80000ea0	035ea123	sw	x21,34(x29)	 x29:0x80008d2e x21:0x00000001 PA:0x80008d50
        7405000	       739	80000ea4	031e8803	lb	x16,49(x29)	 x29:0x80008d2e x16=0xffffffe6 PA:0x80008d5f
        7415000	       740	80000ea8	009033b3	sltu	x7,x0,x9	  x0:0x00000000  x9:0x80009fc4  x7=0x00000001
        7425000	       741	80000eac	fc4ec183	lbu	x3,-60(x29)	 x29:0x80008d2e  x3=0x000000bc PA:0x80008cf2
        7435000	       742	80000eb0	00055e13	srli	x28,x10,0x0	 x10:0x00004a11 x28=0x00004a11
        7445000	       743	80000eb4	956fc917	auipc	x18,0x956fc	 x18=0x156fceb0
        7455000	       744	80000eb8	02ae9c63	bne	x29,x10,80000ef0	 x29:0x80008d2e x10:0x00004a11
        7465000	       745	00000000	00000013	addi	x0,x0,0	  x0:0x00000000
        7475000	       746	80000eec	00000013	addi	x0,x0,0	  x0:0x00000000
        7485000	       747	80000ef0	29a54e13	xori	x28,x10,666	 x10:0x00004a11 x28=0x0000488b
        7495000	       748	80000ef4	05385463	bge	x16,x19,80000f3c	 x16:0xffffffe6 x19:0x20ec9a78
        7505000	       749	80000ef8	0131a433	slt	x8,x3,x19	  x3:0x000000bc x19:0x20ec9a78  x8=0x00000001
        7515000	       750	80000efc	00000013	addi	x0,x0,0	  x0:0x00000000
        7525000	       751	80000f00	01cd2d33	slt	x26,x26,x28	 x26:0x0000009b x28:0x0000488b x26=0x00000001
        7535000	       752	80000f04	4133df13	srai	x30,x7,0x13	  x7:0x00000001 x30=0x00000000
        7545000	       753	80000f08	00a37633	and	x12,x6,x10	  x6:0x7e13fe90 x10:0x00004a11 x12=0x00004a10
        7555000	       754	80000f0c	1380ab13	slti	x22,x1,312	  x1:0x000004ca x22=0x00000000
        7565000	       755	80000f10	74b341b7	lui	x3,0x74b34	  x3=0x74b34000
        7575000	       756	80000f14	01c7bd33	sltu	x26,x15,x28	 x15:0x00000000 x28:0x0000488b x26=0x00000001
        7585000	       757	80000f18	4065d833	sra	x16,x11,x6	 x11:0xfffff99d  x6:0x7e13fe90 x16=0xffffffff
        7595000	       758	80000f1c	411dde93	srai	x29,x27,0x11	 x27:0xfffffff7 x29=0xffffffff
        7605000	       759	80000f20	00000013	addi	x0,x0,0	  x0:0x00000000
        7615000	       760	80000f24	013176b3	and	x13,x2,x19	  x2:0x00004000 x19:0x20ec9a78 x13=0x00000000
        7625000	       761	80000f28	02704263	blt	x0,x7,80000f4c	  x0:0x00000000  x7:0x00000001
        7635000	       762	00000000	00000013	addi	x0,x0,0	  x0:0x00000000
        7645000	       763	80000f48	00000013	addi	x0,x0,0	  x0:0x00000000
        7655000	       764	80000f4c	001fac33	slt	x24,x31,x1	 x31:0x00000001  x1:0x000004ca x24=0x00000001
        7665000	       765	80000f50	01a25b93	srli	x23,x4,0x1a	  x4:0xffffffaf x23=0x0000003f
        7675000	       766	80000f54	004c58b3	srl	x17,x24,x4	 x24:0x00000001  x4:0xffffffaf x17=0x00000000
        7685000	       767	80000f58	0040c133	xor	x2,x1,x4	  x1:0x000004ca  x4:0xffffffaf  x2=0xfffffb65
        7695000	       768	80000f5c	40250733	sub	x14,x10,x2	 x10:0x00004a11  x2:0xfffffb65 x14=0x00004eac
        7705000	       769	80000f60	019b0333	add	x6,x22,x25	 x22:0x00000000 x25:0x80000000  x6=0x80000000
        7715000	       770	80000f64	021fc063	blt	x31,x1,80000f84	 x31:0x00000001  x1:0x000004ca
        7725000	       771	00000000	00000013	addi	x0,x0,0	  x0:0x00000000
        7735000	       772	80000f80	00000013	addi	x0,x0,0	  x0:0x00000000
        7745000	       773	80000f84	31974893	xori	x17,x14,793	 x14:0x00004eac x17=0x00004db5
        7755000	       774	80000f88	01f8d693	srli	x13,x17,0x1f	 x17:0x00004db5 x13=0x00000000
        7765000	       775	80000f8c	03ad0063	beq	x26,x26,80000fac	 x26:0x00000001 x26:0x00000001
        7775000	       776	00000000	00000013	addi	x0,x0,0	  x0:0x00000000
        7785000	       777	80000fa8	00000013	addi	x0,x0,0	  x0:0x00000000
        7795000	       778	80000fac	0e255537	lui	x10,0xe255	 x10=0x0e255000
        7805000	       779	80000fb0	e7b6f813	andi	x16,x13,-389	 x13:0x00000000 x16=0x00000000
        7815000	       780	80000fb4	39e46613	ori	x12,x8,926	  x8:0x00000001 x12=0x0000039f
        7825000	       781	80000fb8	01da0463	beq	x20,x29,80000fc0	 x20:0x7ffffb36 x29:0xffffffff
        7835000	       782	80000fbc	0056f0b3	and	x1,x13,x5	 x13:0x00000000  x5:0x80009f3c  x1=0x00000000
        7845000	       783	80000fc0	0166a9b3	slt	x19,x13,x22	 x13:0x00000000 x22:0x00000000 x19=0x00000000
        7855000	       784	80000fc4	00f89833	sll	x16,x17,x15	 x17:0x00004db5 x15:0x00000000 x16=0x00004db5
        7865000	       785	80000fc8	012c3033	sltu	x0,x24,x18	 x24:0x00000001 x18:0x156fceb0
        7875000	       786	80000fcc	5e2e2313	slti	x6,x28,1506	 x28:0x0000488b  x6=0x00000000
        7885000	       787	80000fd0	03121a63	bne	x4,x17,80001004	  x4:0xffffffaf x17:0x00004db5
        7895000	       788	00000000	00000013	addi	x0,x0,0	  x0:0x00000000
        7905000	       789	80001000	00000013	addi	x0,x0,0	  x0:0x00000000
        7915000	       790	80001004	01a35e33	srl	x28,x6,x26	  x6:0x00000000 x26:0x00000001 x28=0x00000000
        7925000	       791	80001008	00000013	addi	x0,x0,0	  x0:0x00000000
        7935000	       792	8000100c	4129d413	srai	x8,x19,0x12	 x19:0x00000000  x8=0x00000000
        7945000	       793	80001010	004e8db3	add	x27,x29,x4	 x29:0xffffffff  x4:0xffffffaf x27=0xffffffae
        7955000	       794	80001014	910a85b7	lui	x11,0x910a8	 x11=0x910a8000
        7965000	       795	80001018	0421c263	blt	x3,x2,8000105c	  x3:0x74b34000  x2:0xfffffb65
        7975000	       796	8000101c	015b4263	blt	x22,x21,80001020	 x22:0x00000000 x21:0x00000001
        7985000	       797	00000000	00000013	addi	x0,x0,0	  x0:0x00000000
        7995000	       798	8000101c	00000013	addi	x0,x0,0	  x0:0x00000000
        8005000	       799	80001020	0319ca63	blt	x19,x17,80001054	 x19:0x00000000 x17:0x00004db5
        8015000	       800	00000000	00000013	addi	x0,x0,0	  x0:0x00000000
        8025000	       801	80001050	00000013	addi	x0,x0,0	  x0:0x00000000
        8035000	       802	80001054	b129c737	lui	x14,0xb129c	 x14=0xb129c000
        8045000	       803	80001058	005a30b3	sltu	x1,x20,x5	 x20:0x7ffffb36  x5:0x80009f3c  x1=0x00000001
        8055000	       804	8000105c	01c4f9b3	and	x19,x9,x28	  x9:0x80009fc4 x28:0x00000000 x19=0x00000000
        8065000	       805	80001060	dff2d397	auipc	x7,0xdff2d	  x7=0x5ff2e05c
        8075000	       806	80001064	76b12d13	slti	x26,x2,1899	  x2:0xfffffb65 x26=0x00000001
        8085000	       807	80001068	02ab8863	beq	x23,x10,80001098	 x23:0x0000003f x10:0x0e255000
        8095000	       808	8000106c	00076133	or	x2,x14,x0	 x14:0xb129c000  x0:0x00000000  x2=0xb129c000
        8105000	       809	80001070	02b71063	bne	x14,x11,80001090	 x14:0xb129c000 x11:0x910a8000
        8115000	       810	00000000	00000013	addi	x0,x0,0	  x0:0x00000000
        8125000	       811	8000108c	00000013	addi	x0,x0,0	  x0:0x00000000
        8135000	       812	80001090	00f953b3	srl	x7,x18,x15	 x18:0x156fceb0 x15:0x00000000  x7=0x156fceb0
        8145000	       813	80001094	ede6b393	sltiu	x7,x13,-290	 x13:0x00000000  x7=0x00000001
        8155000	       814	80001098	0003d263	bge	x7,x0,8000109c	  x7:0x00000001  x0:0x00000000
        8165000	       815	00000000	00000013	addi	x0,x0,0	  x0:0x00000000
        8175000	       816	80001098	00000013	addi	x0,x0,0	  x0:0x00000000
        8185000	       817	8000109c	0095b433	sltu	x8,x11,x9	 x11:0x910a8000  x9:0x80009fc4  x8=0x00000000
        8195000	       818	800010a0	01cfa733	slt	x14,x31,x28	 x31:0x00000001 x28:0x00000000 x14=0x00000000
        8205000	       819	800010a4	719b2c37	lui	x24,0x719b2	 x24=0x719b2000
        8215000	       820	800010a8	00b6f333	and	x6,x13,x11	 x13:0x00000000 x11:0x910a8000  x6=0x00000000
        8225000	       821	800010ac	0071b933	sltu	x18,x3,x7	  x3:0x74b34000  x7:0x00000001 x18=0x00000000
        8235000	       822	800010b0	402f5b33	sra	x22,x30,x2	 x30:0x00000000  x2:0xb129c000 x22=0x00000000
        8245000	       823	800010b4	aa85a337	lui	x6,0xaa85a	  x6=0xaa85a000
        8255000	       824	800010b8	df6c3213	sltiu	x4,x24,-522	 x24:0x719b2000  x4=0x00000001
        8265000	       825	800010bc	00df8263	beq	x31,x13,800010c0	 x31:0x00000001 x13:0x00000000
        8275000	       826	800010c0	0317c263	blt	x15,x17,800010e4	 x15:0x00000000 x17:0x00004db5
        8285000	       827	00000000	00000013	addi	x0,x0,0	  x0:0x00000000
        8295000	       828	800010e0	00000013	addi	x0,x0,0	  x0:0x00000000
        8305000	       829	800010e4	00000013	addi	x0,x0,0	  x0:0x00000000
        8315000	       830	800010e8	0109d463	bge	x19,x16,800010f0	 x19:0x00000000 x16:0x00004db5
        8325000	       831	800010ec	00000013	addi	x0,x0,0	  x0:0x00000000
        8335000	       832	800010f0	014b2933	slt	x18,x22,x20	 x22:0x00000000 x20:0x7ffffb36 x18=0x00000001
        8345000	       833	800010f4	01c1a5b3	slt	x11,x3,x28	  x3:0x74b34000 x28:0x00000000 x11=0x00000000
        8355000	       834	800010f8	00c71433	sll	x8,x14,x12	 x14:0x00000000 x12:0x0000039f  x8=0x00000000
        8365000	       835	800010fc	00000013	addi	x0,x0,0	  x0:0x00000000
        8375000	       836	80001100	00404733	xor	x14,x0,x4	  x0:0x00000000  x4:0x00000001 x14=0x00000001
        8385000	       837	80001104	ab326a93	ori	x21,x4,-1357	  x4:0x00000001 x21=0xfffffab3
        8395000	       838	80001108	043c8f93	addi	x31,x25,67	 x25:0x80000000 x31=0x80000043
        8405000	       839	8000110c	4b990e13	addi	x28,x18,1209	 x18:0x00000001 x28=0x000004ba
        8415000	       840	80001110	02b10863	beq	x2,x11,80001140	  x2:0xb129c000 x11:0x00000000
        8425000	       841	80001114	3781e117	auipc	x2,0x3781e	  x2=0xb781f110
        8435000	       842	80001118	010dd463	bge	x27,x16,80001120	 x27:0xffffffae x16:0x00004db5
        8445000	       843	8000111c	03c5ca63	blt	x11,x28,80001150	 x11:0x00000000 x28:0x000004ba
        8455000	       844	00000000	00000013	addi	x0,x0,0	  x0:0x00000000
        8465000	       845	8000114c	00000013	addi	x0,x0,0	  x0:0x00000000
        8475000	       846	80001150	e2c90a13	addi	x20,x18,-468	 x18:0x00000001 x20=0xfffffe2d
        8485000	       847	80001154	001ef663	bgeu	x29,x1,80001160	 x29:0xffffffff  x1:0x00000001
        8495000	       848	00000000	00000013	addi	x0,x0,0	  x0:0x00000000
        8505000	       849	8000115c	00000013	addi	x0,x0,0	  x0:0x00000000
        8515000	       850	80001160	00c8bab3	sltu	x21,x17,x12	 x17:0x00004db5 x12:0x0000039f x21=0x00000000
        8525000	       851	80001164	f567b893	sltiu	x17,x15,-170	 x15:0x00000000 x17=0x00000001
        8535000	       852	80001168	b6218f13	addi	x30,x3,-1182	  x3:0x74b34000 x30=0x74b33b62
        8545000	       853	8000116c	405b8ab3	sub	x21,x23,x5	 x23:0x0000003f  x5:0x80009f3c x21=0x7fff6103
        8555000	       854	80001170	4a075b97	auipc	x23,0x4a075	 x23=0xca07616c
        8565000	       855	80001174	00e1b8b3	sltu	x17,x3,x14	  x3:0x74b34000 x14:0x00000001 x17=0x00000000
        8575000	       856	80001178	ee2ee9b7	lui	x19,0xee2ee	 x19=0xee2ee000
        8585000	       857	8000117c	01e88463	beq	x17,x30,80001184	 x17:0x00000000 x30:0x74b33b62
        8595000	       858	80001180	48608993	addi	x19,x1,1158	  x1:0x00000001 x19=0x00000487
        8605000	       859	80001184	01a8c533	xor	x10,x17,x26	 x17:0x00000000 x26:0x00000001 x10=0x00000001
        8615000	       860	80001188	004f7463	bgeu	x30,x4,80001190	 x30:0x74b33b62  x4:0x00000001
        8625000	       861	00000000	00000013	addi	x0,x0,0	  x0:0x00000000
        8635000	       862	8000118c	00000013	addi	x0,x0,0	  x0:0x00000000
        8645000	       863	80001190	40dad8b3	sra	x17,x21,x13	 x21:0x7fff6103 x13:0x00000000 x17=0x7fff6103
        8655000	       864	80001194	01bb1f93	slli	x31,x22,0x1b	 x22:0x00000000 x31=0x00000000
        8665000	       865	80001198	004d23b3	slt	x7,x26,x4	 x26:0x00000001  x4:0x00000001  x7=0x00000000
        8675000	       866	8000119c	00d1a0b3	slt	x1,x3,x13	  x3:0x74b34000 x13:0x00000000  x1=0x00000000
        8685000	       867	800011a0	01891613	slli	x12,x18,0x18	 x18:0x00000001 x12=0x01000000
        8695000	       868	800011a4	0117da13	srli	x20,x15,0x11	 x15:0x00000000 x20=0x00000000
        8705000	       869	800011a8	049f0263	beq	x30,x9,800011ec	 x30:0x74b33b62  x9:0x80009fc4
        8715000	       870	800011ac	00d02d33	slt	x26,x0,x13	  x0:0x00000000 x13:0x00000000 x26=0x00000000
        8725000	       871	800011b0	47672d13	slti	x26,x14,1142	 x14:0x00000001 x26=0x00000001
        8735000	       872	800011b4	01d9da13	srli	x20,x19,0x1d	 x19:0x00000487 x20=0x00000000
        8745000	       873	800011b8	03b18c63	beq	x3,x27,800011f0	  x3:0x74b34000 x27:0xffffffae
        8755000	       874	800011bc	015d5db3	srl	x27,x26,x21	 x26:0x00000001 x21:0x7fff6103 x27=0x00000000
        8765000	       875	800011c0	408d0eb3	sub	x29,x26,x8	 x26:0x00000001  x8:0x00000000 x29=0x00000001
        8775000	       876	800011c4	d4167893	andi	x17,x12,-703	 x12:0x01000000 x17=0x01000000
        8785000	       877	800011c8	49038c13	addi	x24,x7,1168	  x7:0x00000000 x24=0x00000490
        8795000	       878	800011cc	0199d833	srl	x16,x19,x25	 x19:0x00000487 x25:0x80000000 x16=0x00000487
        8805000	       879	800011d0	0313ca63	blt	x7,x17,80001204	  x7:0x00000000 x17:0x01000000
        8815000	       880	00000000	00000013	addi	x0,x0,0	  x0:0x00000000
        8825000	       881	80001200	00000013	addi	x0,x0,0	  x0:0x00000000
        8835000	       882	80001204	042a4463	blt	x20,x2,8000124c	 x20:0x00000000  x2:0xb781f110
        8845000	       883	80001208	0223da63	bge	x7,x2,8000123c	  x7:0x00000000  x2:0xb781f110
        8855000	       884	00000000	00000013	addi	x0,x0,0	  x0:0x00000000
        8865000	       885	80001238	00000013	addi	x0,x0,0	  x0:0x00000000
        8875000	       886	8000123c	4059d593	srai	x11,x19,0x5	 x19:0x00000487 x11=0x00000024
        8885000	       887	80001240	007e71b3	and	x3,x28,x7	 x28:0x000004ba  x7:0x00000000  x3=0x00000000
        8895000	       888	80001244	407b06b3	sub	x13,x22,x7	 x22:0x00000000  x7:0x00000000 x13=0x00000000
        8905000	       889	80001248	9e87f393	andi	x7,x15,-1560	 x15:0x00000000  x7=0x00000000
        8915000	       890	8000124c	02b40063	beq	x8,x11,8000126c	  x8:0x00000000 x11:0x00000024
        8925000	       891	80001250	407b5533	sra	x10,x22,x7	 x22:0x00000000  x7:0x00000000 x10=0x00000000
        8935000	       892	80001254	055a7263	bgeu	x20,x21,80001298	 x20:0x00000000 x21:0x7fff6103
        8945000	       893	80001258	ce3c0a13	addi	x20,x24,-797	 x24:0x00000490 x20=0x00000173
        8955000	       894	8000125c	01429d13	slli	x26,x5,0x14	  x5:0x80009f3c x26=0xf3c00000
        8965000	       895	80001260	04afc263	blt	x31,x10,800012a4	 x31:0x00000000 x10:0x00000000
        8975000	       896	80001264	014d7463	bgeu	x26,x20,8000126c	 x26:0xf3c00000 x20:0x00000173
        8985000	       897	00000000	00000013	addi	x0,x0,0	  x0:0x00000000
        8995000	       898	80001268	00000013	addi	x0,x0,0	  x0:0x00000000
        9005000	       899	8000126c	012ad513	srli	x10,x21,0x12	 x21:0x7fff6103 x10=0x00001fff
        9015000	       900	80001270	bda8a517	auipc	x10,0xbda8a	 x10=0x3da8b26c
        9025000	       901	80001274	b2f77693	andi	x13,x14,-1233	 x14:0x00000001 x13=0x00000001
        9035000	       902	80001278	00971393	slli	x7,x14,0x9	 x14:0x00000001  x7=0x00000200
        9045000	       903	8000127c	22d7bf17	auipc	x30,0x22d7b	 x30=0xa2d7c278
        9055000	       904	80001280	0114ba33	sltu	x20,x9,x17	  x9:0x80009fc4 x17:0x01000000 x20=0x00000000
        9065000	       905	80001284	02ee1863	bne	x28,x14,800012b4	 x28:0x000004ba x14:0x00000001
        9075000	       906	00000000	00000013	addi	x0,x0,0	  x0:0x00000000
        9085000	       907	800012b0	00000013	addi	x0,x0,0	  x0:0x00000000
        9095000	       908	800012b4	acd5b993	sltiu	x19,x11,-1331	 x11:0x00000024 x19=0x00000001
        9105000	       909	800012b8	41595093	srai	x1,x18,0x15	 x18:0x00000001  x1=0x00000000
        9115000	       910	800012bc	08b67a13	andi	x20,x12,139	 x12:0x01000000 x20=0x00000000
        9125000	       911	800012c0	01c2f5b3	and	x11,x5,x28	  x5:0x80009f3c x28:0x000004ba x11=0x00000438
        9135000	       912	800012c4	437f4213	xori	x4,x30,1079	 x30:0xa2d7c278  x4=0xa2d7c64f
        9145000	       913	800012c8	0042d113	srli	x2,x5,0x4	  x5:0x80009f3c  x2=0x080009f3
        9155000	       914	800012cc	015c8463	beq	x25,x21,800012d4	 x25:0x80000000 x21:0x7fff6103
        9165000	       915	800012d0	40e45fb3	sra	x31,x8,x14	  x8:0x00000000 x14:0x00000001 x31=0x00000000
        9175000	       916	800012d4	018efc63	bgeu	x29,x24,800012ec	 x29:0x00000001 x24:0x00000490
        9185000	       917	800012d8	66eca993	slti	x19,x25,1646	 x25:0x80000000 x19=0x00000001
        9195000	       918	800012dc	9c447a93	andi	x21,x8,-1596	  x8:0x00000000 x21=0x00000000
        9205000	       919	800012e0	413f0433	sub	x8,x30,x19	 x30:0xa2d7c278 x19:0x00000001  x8=0xa2d7c277
        9215000	       920	800012e4	e8aae6b7	lui	x13,0xe8aae	 x13=0xe8aae000
        9225000	       921	800012e8	01c521b3	slt	x3,x10,x28	 x10:0x3da8b26c x28:0x000004ba  x3=0x00000000
        9235000	       922	800012ec	00c19663	bne	x3,x12,800012f8	  x3:0x00000000 x12:0x01000000
        9245000	       923	00000000	00000013	addi	x0,x0,0	  x0:0x00000000
        9255000	       924	800012f4	00000013	addi	x0,x0,0	  x0:0x00000000
        9265000	       925	800012f8	00e58313	addi	x6,x11,14	 x11:0x00000438  x6=0x00000446
        9275000	       926	800012fc	00000013	addi	x0,x0,0	  x0:0x00000000
        9285000	       927	80001300	40b00fb3	sub	x31,x0,x11	  x0:0x00000000 x11:0x00000438 x31=0xfffffbc8
        9295000	       928	80001304	87dd7893	andi	x17,x26,-1923	 x26:0xf3c00000 x17=0xf3c00000
        9305000	       929	80001308	00000013	addi	x0,x0,0	  x0:0x00000000
        9315000	       930	8000130c	30868593	addi	x11,x13,776	 x13:0xe8aae000 x11=0xe8aae308
        9325000	       931	80001310	eeed3437	lui	x8,0xeeed3	  x8=0xeeed3000
        9335000	       932	80001314	40090533	sub	x10,x18,x0	 x18:0x00000001  x0:0x00000000 x10=0x00000001
        9345000	       933	80001318	337ef213	andi	x4,x29,823	 x29:0x00000001  x4=0x00000001
        9355000	       934	8000131c	03bfca63	blt	x31,x27,80001350	 x31:0xfffffbc8 x27:0x00000000
        9365000	       935	00000000	00000013	addi	x0,x0,0	  x0:0x00000000
        9375000	       936	8000134c	00000013	addi	x0,x0,0	  x0:0x00000000
        9385000	       937	80001350	0079f5b3	and	x11,x19,x7	 x19:0x00000001  x7:0x00000200 x11=0x00000000
        9395000	       938	80001354	03a64c63	blt	x12,x26,8000138c	 x12:0x01000000 x26:0xf3c00000
        9405000	       939	80001358	05d44663	blt	x8,x29,800013a4	  x8:0xeeed3000 x29:0x00000001
        9415000	       940	00000000	00000013	addi	x0,x0,0	  x0:0x00000000
        9425000	       941	800013a0	00000013	addi	x0,x0,0	  x0:0x00000000
        9435000	       942	800013a4	00cbc663	blt	x23,x12,800013b0	 x23:0xca07616c x12:0x01000000
        9445000	       943	00000000	00000013	addi	x0,x0,0	  x0:0x00000000
        9455000	       944	800013ac	00000013	addi	x0,x0,0	  x0:0x00000000
        9465000	       945	800013b0	42f13613	sltiu	x12,x2,1071	  x2:0x080009f3 x12=0x00000000
        9475000	       946	800013b4	00db00b3	add	x1,x22,x13	 x22:0x00000000 x13:0xe8aae000  x1=0xe8aae000
        9485000	       947	800013b8	04cd8463	beq	x27,x12,80001400	 x27:0x00000000 x12:0x00000000
        9495000	       948	00000000	00000013	addi	x0,x0,0	  x0:0x00000000
        9505000	       949	800013fc	00000013	addi	x0,x0,0	  x0:0x00000000
        9515000	       950	80001400	c90fa613	slti	x12,x31,-880	 x31:0xfffffbc8 x12=0x00000001
        9525000	       951	80001404	000c45b3	xor	x11,x24,x0	 x24:0x00000490  x0:0x00000000 x11=0x00000490
        9535000	       952	80001408	b0da0f13	addi	x30,x20,-1267	 x20:0x00000000 x30=0xfffffb0d
        9545000	       953	8000140c	00701ab3	sll	x21,x0,x7	  x0:0x00000000  x7:0x00000200 x21=0x00000000
        9555000	       954	80001410	01e94a33	xor	x20,x18,x30	 x18:0x00000001 x30:0xfffffb0d x20=0xfffffb0c
        9565000	       955	80001414	1a8e9597	auipc	x11,0x1a8e9	 x11=0x9a8ea410
        9575000	       956	80001418	01b14bb3	xor	x23,x2,x27	  x2:0x080009f3 x27:0x00000000 x23=0x080009f3
        9585000	       957	8000141c	02fbf263	bgeu	x23,x15,80001440	 x23:0x080009f3 x15:0x00000000
        9595000	       958	00000000	00000013	addi	x0,x0,0	  x0:0x00000000
        9605000	       959	8000143c	00000013	addi	x0,x0,0	  x0:0x00000000
        9615000	       960	80001440	40f456b3	sra	x13,x8,x15	  x8:0xeeed3000 x15:0x00000000 x13=0xeeed3000
        9625000	       961	80001444	008c1593	slli	x11,x24,0x8	 x24:0x00000490 x11=0x00049000
        9635000	       962	80001448	0048e463	bltu	x17,x4,80001450	 x17:0xf3c00000  x4:0x00000001
        9645000	       963	8000144c	4008d333	sra	x6,x17,x0	 x17:0xf3c00000  x0:0x00000000  x6=0xf3c00000
        9655000	       964	80001450	0208c063	blt	x17,x0,80001470	 x17:0xf3c00000  x0:0x00000000
        9665000	       965	00000000	00000013	addi	x0,x0,0	  x0:0x00000000
        9675000	       966	8000146c	00000013	addi	x0,x0,0	  x0:0x00000000
        9685000	       967	80001470	0052d6b3	srl	x13,x5,x5	  x5:0x80009f3c  x5:0x80009f3c x13=0x00000008
        9695000	       968	80001474	403959b3	sra	x19,x18,x3	 x18:0x00000001  x3:0x00000000 x19=0x00000001
        9705000	       969	80001478	1a3f4093	xori	x1,x30,419	 x30:0xfffffb0d  x1=0xfffffaae
        9715000	       970	8000147c	016638b3	sltu	x17,x12,x22	 x12:0x00000001 x22:0x00000000 x17=0x00000000
        9725000	       971	80001480	08aa0263	beq	x20,x10,80001504	 x20:0xfffffb0c x10:0x00000001
        9735000	       972	80001484	b94c0f93	addi	x31,x24,-1132	 x24:0x00000490 x31=0x00000024
        9745000	       973	80001488	01d1a033	slt	x0,x3,x29	  x3:0x00000000 x29:0x00000001
        9755000	       974	8000148c	06b46663	bltu	x8,x11,800014f8	  x8:0xeeed3000 x11:0x00049000
        9765000	       975	80001490	8aa70793	addi	x15,x14,-1878	 x14:0x00000001 x15=0xfffff8ab
        9775000	       976	80001494	033b4e63	blt	x22,x19,800014d0	 x22:0x00000000 x19:0x00000001
        9785000	       977	00000000	00000013	addi	x0,x0,0	  x0:0x00000000
        9795000	       978	800014cc	00000013	addi	x0,x0,0	  x0:0x00000000
        9805000	       979	800014d0	7a2e2f93	slti	x31,x28,1954	 x28:0x000004ba x31=0x00000001
        9815000	       980	800014d4	01f149b3	xor	x19,x2,x31	  x2:0x080009f3 x31:0x00000001 x19=0x080009f2
        9825000	       981	800014d8	00e2d093	srli	x1,x5,0xe	  x5:0x80009f3c  x1=0x00020002
        9835000	       982	800014dc	02fcea63	bltu	x25,x15,80001510	 x25:0x80000000 x15:0xfffff8ab
        9845000	       983	00000000	00000013	addi	x0,x0,0	  x0:0x00000000
        9855000	       984	8000150c	00000013	addi	x0,x0,0	  x0:0x00000000
        9865000	       985	80001510	01ea9e33	sll	x28,x21,x30	 x21:0x00000000 x30:0xfffffb0d x28=0x00000000
        9875000	       986	80001514	74032093	slti	x1,x6,1856	  x6:0xf3c00000  x1=0x00000001
        9885000	       987	80001518	025d8263	beq	x27,x5,8000153c	 x27:0x00000000  x5:0x80009f3c
        9895000	       988	8000151c	8859d697	auipc	x13,0x8859d	 x13=0x0859e518
        9905000	       989	80001520	01a69833	sll	x16,x13,x26	 x13:0x0859e518 x26:0xf3c00000 x16=0x0859e518
        9915000	       990	80001524	41e7d033	sra	x0,x15,x30	 x15:0xfffff8ab x30:0xfffffb0d
        9925000	       991	80001528	58107113	andi	x2,x0,1409	  x0:0x00000000  x2=0x00000000
        9935000	       992	8000152c	0031c3b3	xor	x7,x3,x3	  x3:0x00000000  x3:0x00000000  x7=0x00000000
        9945000	       993	80001530	03219a63	bne	x3,x18,80001564	  x3:0x00000000 x18:0x00000001
        9955000	       994	00000000	00000013	addi	x0,x0,0	  x0:0x00000000
        9965000	       995	80001560	00000013	addi	x0,x0,0	  x0:0x00000000
        9975000	       996	80001564	00973eb3	sltu	x29,x14,x9	 x14:0x00000001  x9:0x80009fc4 x29=0x00000001
        9985000	       997	80001568	02e07e63	bgeu	x0,x14,800015a4	  x0:0x00000000 x14:0x00000001
        9995000	       998	8000156c	00ab56b3	srl	x13,x22,x10	 x22:0x00000000 x10:0x00000001 x13=0x00000000
       10005000	       999	80001570	7f36ae13	slti	x28,x13,2035	 x13:0x00000000 x28=0x00000001
       10015000	      1000	80001574	409bdc33	sra	x24,x23,x9	 x23:0x080009f3  x9:0x80009fc4 x24=0x0080009f
       10025000	      1001	80001578	41d20433	sub	x8,x4,x29	  x4:0x00000001 x29:0x00000001  x8=0x00000000
       10035000	      1002	8000157c	41418c33	sub	x24,x3,x20	  x3:0x00000000 x20:0xfffffb0c x24=0x000004f4
       10045000	      1003	80001580	410d00b3	sub	x1,x26,x16	 x26:0xf3c00000 x16:0x0859e518  x1=0xeb661ae8
       10055000	      1004	80001584	00a55113	srli	x2,x10,0xa	 x10:0x00000001  x2=0x00000000
       10065000	      1005	80001588	0475e463	bltu	x11,x7,800015d0	 x11:0x00049000  x7:0x00000000
       10075000	      1006	8000158c	7abde113	ori	x2,x27,1963	 x27:0x00000000  x2=0x000007ab
       10085000	      1007	80001590	643ab513	sltiu	x10,x21,1603	 x21:0x00000000 x10=0x00000001
       10095000	      1008	80001594	03f0cc63	blt	x1,x31,800015cc	  x1:0xeb661ae8 x31:0x00000001
       10105000	      1009	00000000	00000013	addi	x0,x0,0	  x0:0x00000000
       10115000	      1010	800015c8	00000013	addi	x0,x0,0	  x0:0x00000000
       10125000	      1011	800015cc	00ed68b3	or	x17,x26,x14	 x26:0xf3c00000 x14:0x00000001 x17=0xf3c00001
       10135000	      1012	800015d0	02d21063	bne	x4,x13,800015f0	  x4:0x00000001 x13:0x00000000
       10145000	      1013	00000000	00000013	addi	x0,x0,0	  x0:0x00000000
       10155000	      1014	800015ec	00000013	addi	x0,x0,0	  x0:0x00000000
       10165000	      1015	800015f0	0173d593	srli	x11,x7,0x17	  x7:0x00000000 x11=0x00000000
       10175000	      1016	800015f4	41ab5033	sra	x0,x22,x26	 x22:0x00000000 x26:0xf3c00000
       10185000	      1017	800015f8	00647f33	and	x30,x8,x6	  x8:0x00000000  x6:0xf3c00000 x30=0x00000000
       10195000	      1018	800015fc	0433d063	bge	x7,x3,8000163c	  x7:0x00000000  x3:0x00000000
       10205000	      1019	00000000	00000013	addi	x0,x0,0	  x0:0x00000000
       10215000	      1020	80001638	00000013	addi	x0,x0,0	  x0:0x00000000
       10225000	      1021	8000163c	02d64263	blt	x12,x13,80001660	 x12:0x00000001 x13:0x00000000
       10235000	      1022	80001640	61a9aa13	slti	x20,x19,1562	 x19:0x080009f2 x20=0x00000000
       10245000	      1023	80001644	d3643197	auipc	x3,0xd3643	  x3=0x53644640
       10255000	      1024	80001648	403ed9b3	sra	x19,x29,x3	 x29:0x00000001  x3:0x53644640 x19=0x00000001
       10265000	      1025	8000164c	26e58f93	addi	x31,x11,622	 x11:0x00000000 x31=0x0000026e
       10275000	      1026	80001650	b8e06013	ori	x0,x0,-1138	  x0:0x00000000
       10285000	      1027	80001654	00f76463	bltu	x14,x15,8000165c	 x14:0x00000001 x15:0xfffff8ab
       10295000	      1028	00000000	00000013	addi	x0,x0,0	  x0:0x00000000
       10305000	      1029	80001658	00000013	addi	x0,x0,0	  x0:0x00000000
       10315000	      1030	8000165c	00000013	addi	x0,x0,0	  x0:0x00000000
       10325000	      1031	80001660	05631263	bne	x6,x22,800016a4	  x6:0xf3c00000 x22:0x00000000
       10335000	      1032	00000000	00000013	addi	x0,x0,0	  x0:0x00000000
       10345000	      1033	800016a0	00000013	addi	x0,x0,0	  x0:0x00000000
       10355000	      1034	800016a4	03944c63	blt	x8,x25,800016dc	  x8:0x00000000 x25:0x80000000
       10365000	      1035	800016a8	00cd9533	sll	x10,x27,x12	 x27:0x00000000 x12:0x00000001 x10=0x00000000
       10375000	      1036	800016ac	41b1d113	srai	x2,x3,0x1b	  x3:0x53644640  x2=0x0000000a
       10385000	      1037	800016b0	9ff70f13	addi	x30,x14,-1537	 x14:0x00000001 x30=0xfffffa00
       10395000	      1038	800016b4	8698af13	slti	x30,x17,-1943	 x17:0xf3c00001 x30=0x00000001
       10405000	      1039	800016b8	35376393	ori	x7,x14,851	 x14:0x00000001  x7=0x00000353
       10415000	      1040	800016bc	0168ffb3	and	x31,x17,x22	 x17:0xf3c00001 x22:0x00000000 x31=0x00000000
       10425000	      1041	800016c0	8cb7bb13	sltiu	x22,x15,-1845	 x15:0xfffff8ab x22=0x00000001
       10435000	      1042	800016c4	01e12fb3	slt	x31,x2,x30	  x2:0x0000000a x30:0x00000001 x31=0x00000000
       10445000	      1043	800016c8	dcc6fe93	andi	x29,x13,-564	 x13:0x00000000 x29=0x00000000
       10455000	      1044	800016cc	000bfe33	and	x28,x23,x0	 x23:0x080009f3  x0:0x00000000 x28=0x00000000
       10465000	      1045	800016d0	41b28133	sub	x2,x5,x27	  x5:0x80009f3c x27:0x00000000  x2=0x80009f3c
       10475000	      1046	800016d4	00408263	beq	x1,x4,800016d8	  x1:0xeb661ae8  x4:0x00000001
       10485000	      1047	800016d8	01fd26b3	slt	x13,x26,x31	 x26:0xf3c00000 x31:0x00000000 x13=0x00000001
       10495000	      1048	800016dc	0152d813	srli	x16,x5,0x15	  x5:0x80009f3c x16=0x00000400
       10505000	      1049	800016e0	41dd2597	auipc	x11,0x41dd2	 x11=0xc1dd36dc
       10515000	      1050	800016e4	00e4c263	blt	x9,x14,800016e8	  x9:0x80009fc4 x14:0x00000001
       10525000	      1051	00000000	00000013	addi	x0,x0,0	  x0:0x00000000
       10535000	      1052	800016e4	00000013	addi	x0,x0,0	  x0:0x00000000
       10545000	      1053	800016e8	41c65fb3	sra	x31,x12,x28	 x12:0x00000001 x28:0x00000000 x31=0x00000001
       10555000	      1054	800016ec	00ab55b3	srl	x11,x22,x10	 x22:0x00000001 x10:0x00000000 x11=0x00000001
       10565000	      1055	800016f0	01294463	blt	x18,x18,800016f8	 x18:0x00000001 x18:0x00000001
       10575000	      1056	800016f4	01e4d813	srli	x16,x9,0x1e	  x9:0x80009fc4 x16=0x00000002
       10585000	      1057	800016f8	0234fa63	bgeu	x9,x3,8000172c	  x9:0x80009fc4  x3:0x53644640
       10595000	      1058	00000000	00000013	addi	x0,x0,0	  x0:0x00000000
       10605000	      1059	80001728	00000013	addi	x0,x0,0	  x0:0x00000000
       10615000	      1060	8000172c	03f6f063	bgeu	x13,x31,8000174c	 x13:0x00000001 x31:0x00000001
       10625000	      1061	00000000	00000013	addi	x0,x0,0	  x0:0x00000000
       10635000	      1062	80001748	00000013	addi	x0,x0,0	  x0:0x00000000
       10645000	      1063	8000174c	00323333	sltu	x6,x4,x3	  x4:0x00000001  x3:0x53644640  x6=0x00000001
       10655000	      1064	80001750	00f33433	sltu	x8,x6,x15	  x6:0x00000001 x15:0xfffff8ab  x8=0x00000001
       10665000	      1065	80001754	04c86463	bltu	x16,x12,8000179c	 x16:0x00000002 x12:0x00000001
       10675000	      1066	80001758	02194863	blt	x18,x1,80001788	 x18:0x00000001  x1:0xeb661ae8
       10685000	      1067	8000175c	02900a63	beq	x0,x9,80001790	  x0:0x00000000  x9:0x80009fc4
       10695000	      1068	80001760	017e4e33	xor	x28,x28,x23	 x28:0x00000000 x23:0x080009f3 x28=0x080009f3
       10705000	      1069	80001764	7f3ef013	andi	x0,x29,2035	 x29:0x00000000
       10715000	      1070	80001768	00000013	addi	x0,x0,0	  x0:0x00000000
       10725000	      1071	8000176c	00f79213	slli	x4,x15,0xf	 x15:0xfffff8ab  x4=0xfc558000
       10735000	      1072	80001770	0363e063	bltu	x7,x22,80001790	  x7:0x00000353 x22:0x00000001
       10745000	      1073	80001774	70eff793	andi	x15,x31,1806	 x31:0x00000001 x15=0x00000000
       10755000	      1074	80001778	00000013	addi	x0,x0,0	  x0:0x00000000
       10765000	      1075	8000177c	00000013	addi	x0,x0,0	  x0:0x00000000
       10775000	      1076	80001780	01219433	sll	x8,x3,x18	  x3:0x53644640 x18:0x00000001  x8=0xa6c88c80
       10785000	      1077	80001784	566e4237	lui	x4,0x566e4	  x4=0x566e4000
       10795000	      1078	80001788	02184663	blt	x16,x1,800017b4	 x16:0x00000002  x1:0xeb661ae8
       10805000	      1079	8000178c	6e331697	auipc	x13,0x6e331	 x13=0xee332788
       10815000	      1080	80001790	5ea9b513	sltiu	x10,x19,1514	 x19:0x00000001 x10=0x00000001
       10825000	      1081	80001794	00000013	addi	x0,x0,0	  x0:0x00000000
       10835000	      1082	80001798	41ea88b3	sub	x17,x21,x30	 x21:0x00000000 x30:0x00000001 x17=0xffffffff
       10845000	      1083	8000179c	00830263	beq	x6,x8,800017a0	  x6:0x00000001  x8:0xa6c88c80
       10855000	      1084	800017a0	0567d263	bge	x15,x22,800017e4	 x15:0x00000000 x22:0x00000001
       10865000	      1085	800017a4	01ce0663	beq	x28,x28,800017b0	 x28:0x080009f3 x28:0x080009f3
       10875000	      1086	00000000	00000013	addi	x0,x0,0	  x0:0x00000000
       10885000	      1087	800017ac	00000013	addi	x0,x0,0	  x0:0x00000000
       10895000	      1088	800017b0	020ac263	blt	x21,x0,800017d4	 x21:0x00000000  x0:0x00000000
       10905000	      1089	800017b4	4159de13	srai	x28,x19,0x15	 x19:0x00000001 x28=0x00000000
       10915000	      1090	800017b8	0470d663	bge	x1,x7,80001804	  x1:0xeb661ae8  x7:0x00000353
       10925000	      1091	800017bc	001e9713	slli	x14,x29,0x1	 x29:0x00000000 x14=0x00000000
       10935000	      1092	800017c0	00380933	add	x18,x16,x3	 x16:0x00000002  x3:0x53644640 x18=0x53644642
       10945000	      1093	800017c4	00fa4633	xor	x12,x20,x15	 x20:0x00000000 x15:0x00000000 x12=0x00000000
       10955000	      1094	800017c8	8661ac13	slti	x24,x3,-1946	  x3:0x53644640 x24=0x00000000
       10965000	      1095	800017cc	6fedb917	auipc	x18,0x6fedb	 x18=0xefedc7c8
       10975000	      1096	800017d0	00c75e13	srli	x28,x14,0xc	 x14:0x00000000 x28=0x00000000
       10985000	      1097	800017d4	01cb4e33	xor	x28,x22,x28	 x22:0x00000001 x28:0x00000000 x28=0x00000001
       10995000	      1098	800017d8	503b0117	auipc	x2,0x503b0	  x2=0xd03b17d4
       11005000	      1099	800017dc	015b83b3	add	x7,x23,x21	 x23:0x080009f3 x21:0x00000000  x7=0x080009f3
       11015000	      1100	800017e0	37c17b93	andi	x23,x2,892	  x2:0xd03b17d4 x23=0x00000354
       11025000	      1101	800017e4	0205c063	blt	x11,x0,80001804	 x11:0x00000001  x0:0x00000000
       11035000	      1102	800017e8	40130133	sub	x2,x6,x1	  x6:0x00000001  x1:0xeb661ae8  x2=0x1499e519
       11045000	      1103	800017ec	00455793	srli	x15,x10,0x4	 x10:0x00000001 x15=0x00000000
       11055000	      1104	800017f0	0187d033	srl	x0,x15,x24	 x15:0x00000000 x24:0x00000000
       11065000	      1105	800017f4	77c0b893	sltiu	x17,x1,1916	  x1:0xeb661ae8 x17=0x00000000
       11075000	      1106	800017f8	01e8b7b3	sltu	x15,x17,x30	 x17:0x00000000 x30:0x00000001 x15=0x00000001
       11085000	      1107	800017fc	01151bb3	sll	x23,x10,x17	 x10:0x00000001 x17:0x00000000 x23=0x00000001
       11095000	      1108	80001800	0046efb3	or	x31,x13,x4	 x13:0xee332788  x4:0x566e4000 x31=0xfe7f6788
       11105000	      1109	80001804	0146b6b3	sltu	x13,x13,x20	 x13:0xee332788 x20:0x00000000 x13=0x00000000
       11115000	      1110	80001808	01698833	add	x16,x19,x22	 x19:0x00000001 x22:0x00000001 x16=0x00000002
       11125000	      1111	8000180c	6b973413	sltiu	x8,x14,1721	 x14:0x00000000  x8=0x00000001
       11135000	      1112	80001810	7eaef193	andi	x3,x29,2026	 x29:0x00000000  x3=0x00000000
       11145000	      1113	80001814	044cc063	blt	x25,x4,80001854	 x25:0x80000000  x4:0x566e4000
       11155000	      1114	00000000	00000013	addi	x0,x0,0	  x0:0x00000000
       11165000	      1115	80001850	00000013	addi	x0,x0,0	  x0:0x00000000
       11175000	      1116	80001854	0099b533	sltu	x10,x19,x9	 x19:0x00000001  x9:0x80009fc4 x10=0x00000001
       11185000	      1117	80001858	00ccac33	slt	x24,x25,x12	 x25:0x80000000 x12:0x00000000 x24=0x00000001
       11195000	      1118	8000185c	00000013	addi	x0,x0,0	  x0:0x00000000
       11205000	      1119	80001860	a6856193	ori	x3,x10,-1432	 x10:0x00000001  x3=0xfffffa69
       11215000	      1120	80001864	00007697	auipc	x13,0x7	 x13=0x80008860
       11225000	      1121	80001868	58a68693	addi	x13,x13,1418	 x13:0x80008860 x13=0x80008dea
       11235000	      1122	8000186c	8e7fe0b7	lui	x1,0x8e7fe	  x1=0x8e7fe000
       11245000	      1123	80001870	01bfb233	sltu	x4,x31,x27	 x31:0xfe7f6788 x27:0x00000000  x4=0x00000000
       11255000	      1124	80001874	01ebbc33	sltu	x24,x23,x30	 x23:0x00000001 x30:0x00000001 x24=0x00000000
       11265000	      1125	80001878	00000013	addi	x0,x0,0	  x0:0x00000000
       11275000	      1126	8000187c	c8e43a93	sltiu	x21,x8,-882	  x8:0x00000001 x21=0x00000001
       11285000	      1127	80001880	ff66a303	lw	x6,-10(x13)	 x13:0x80008dea  x6=0x47dc7eae PA:0x80008de0
       11295000	      1128	80001884	41c751b3	sra	x3,x14,x28	 x14:0x00000000 x28:0x00000001  x3=0x00000000
       11305000	      1129	80001888	03d6c203	lbu	x4,61(x13)	 x13:0x80008dea  x4=0x000000a2 PA:0x80008e27
       11315000	      1130	8000188c	35258937	lui	x18,0x35258	 x18=0x35258000
       11325000	      1131	80001890	fef68b23	sb	x15,-10(x13)	 x13:0x80008dea x15:0x00000001 PA:0x80008de0
       11335000	      1132	80001894	87dd6397	auipc	x7,0x87dd6	  x7=0x07dd7890
       11345000	      1133	80001898	01190d33	add	x26,x18,x17	 x18:0x35258000 x17:0x00000000 x26=0x35258000
       11355000	      1134	8000189c	ff768303	lb	x6,-9(x13)	 x13:0x80008dea  x6=0x0000007e PA:0x80008de1
       11365000	      1135	800018a0	fc768a23	sb	x7,-44(x13)	 x13:0x80008dea  x7:0x07dd7890 PA:0x80008dbe
       11375000	      1136	800018a4	abb4f413	andi	x8,x9,-1349	  x9:0x80009fc4  x8=0x80009a80
       11385000	      1137	800018a8	411c5a33	sra	x20,x24,x17	 x24:0x00000000 x17:0x00000000 x20=0x00000000
       11395000	      1138	800018ac	fee6a883	lw	x17,-18(x13)	 x13:0x80008dea x17=0x0033949f PA:0x80008dd8
       11405000	      1139	800018b0	fea68b23	sb	x10,-10(x13)	 x13:0x80008dea x10:0x00000001 PA:0x80008de0
       11415000	      1140	800018b4	00211113	slli	x2,x2,0x2	  x2:0x1499e519  x2=0x52679464
       11425000	      1141	800018b8	00969e33	sll	x28,x13,x9	 x13:0x80008dea  x9:0x80009fc4 x28=0x0008dea0
       11435000	      1142	800018bc	ffa69a03	lh	x20,-6(x13)	 x13:0x80008dea x20=0x00007ce8 PA:0x80008de4
       11445000	      1143	800018c0	fc66c783	lbu	x15,-58(x13)	 x13:0x80008dea x15=0x000000d3 PA:0x80008db0
       11455000	      1144	800018c4	00568c33	add	x24,x13,x5	 x13:0x80008dea  x5:0x80009f3c x24=0x00012d26
       11465000	      1145	800018c8	004687a3	sb	x4,15(x13)	 x13:0x80008dea  x4:0x000000a2 PA:0x80008df9
       11475000	      1146	800018cc	49f92a13	slti	x20,x18,1183	 x18:0x35258000 x20=0x00000000
       11485000	      1147	800018d0	01b5d913	srli	x18,x11,0x1b	 x11:0x00000001 x18=0x00000000
       11495000	      1148	800018d4	41940133	sub	x2,x8,x25	  x8:0x80009a80 x25:0x80000000  x2=0x00009a80
       11505000	      1149	800018d8	00b16f33	or	x30,x2,x11	  x2:0x00009a80 x11:0x00000001 x30=0x00009a81
       11515000	      1150	800018dc	4166d313	srai	x6,x13,0x16	 x13:0x80008dea  x6=0xfffffe00
       11525000	      1151	800018e0	3bb1a917	auipc	x18,0x3bb1a	 x18=0xbbb1b8dc
       11535000	      1152	800018e4	00b68383	lb	x7,11(x13)	 x13:0x80008dea  x7=0xffffffc9 PA:0x80008df5
       11545000	      1153	800018e8	fdd6cf03	lbu	x30,-35(x13)	 x13:0x80008dea x30=0x00000037 PA:0x80008dc7
       11555000	      1154	800018ec	0094adb3	slt	x27,x9,x9	  x9:0x80009fc4  x9:0x80009fc4 x27=0x00000000
       11565000	      1155	800018f0	9e9c0a13	addi	x20,x24,-1559	 x24:0x00012d26 x20=0x0001270f
       11575000	      1156	800018f4	00069c03	lh	x24,0(x13)	 x13:0x80008dea x24=0xffffef54 PA:0x80008dea
       11585000	      1157	800018f8	8f714517	auipc	x10,0x8f714	 x10=0x0f7158f4
       11595000	      1158	800018fc	03a68ba3	sb	x26,55(x13)	 x13:0x80008dea x26:0x35258000 PA:0x80008e21
       11605000	      1159	80001900	014d8233	add	x4,x27,x20	 x27:0x00000000 x20:0x0001270f  x4=0x0001270f
       11615000	      1160	80001904	020dc793	xori	x15,x27,32	 x27:0x00000000 x15=0x00000020
       11625000	      1161	80001908	03468a23	sb	x20,52(x13)	 x13:0x80008dea x20:0x0001270f PA:0x80008e1e
       11635000	      1162	8000190c	fda687a3	sb	x26,-49(x13)	 x13:0x80008dea x26:0x35258000 PA:0x80008db9
       11645000	      1163	80001910	416ed713	srai	x14,x29,0x16	 x29:0x00000000 x14=0x00000000
       11655000	      1164	80001914	ff96c883	lbu	x17,-7(x13)	 x13:0x80008dea x17=0x00000047 PA:0x80008de3
       11665000	      1165	80001918	ffd68d83	lb	x27,-3(x13)	 x13:0x80008dea x27=0x0000006e PA:0x80008de7
       11675000	      1166	8000191c	fd069c23	sh	x16,-40(x13)	 x13:0x80008dea x16:0x00000002 PA:0x80008dc2
       11685000	      1167	80001920	fb507613	andi	x12,x0,-75	  x0:0x00000000 x12=0x00000000
       11695000	      1168	80001924	5fcdc913	xori	x18,x27,1532	 x27:0x0000006e x18=0x00000592
       11705000	      1169	80001928	00415fb3	srl	x31,x2,x4	  x2:0x00009a80  x4:0x0001270f x31=0x00000001
       11715000	      1170	8000192c	a7e7ce93	xori	x29,x15,-1410	 x15:0x00000020 x29=0xfffffa5e
       11725000	      1171	80001930	40c15c33	sra	x24,x2,x12	  x2:0x00009a80 x12:0x00000000 x24=0x00009a80
       11735000	      1172	80001934	01a71013	slli	x0,x14,0x1a	 x14:0x00000000
       11745000	      1173	80001938	40cb5513	srai	x10,x22,0xc	 x22:0x00000001 x10=0x00000000
       11755000	      1174	8000193c	419d5e13	srai	x28,x26,0x19	 x26:0x35258000 x28=0x0000001a
       11765000	      1175	80001940	01f247b3	xor	x15,x4,x31	  x4:0x0001270f x31:0x00000001 x15=0x0001270e
       11775000	      1176	80001944	004e5e33	srl	x28,x28,x4	 x28:0x0000001a  x4:0x0001270f x28=0x00000000
       11785000	      1177	80001948	00000013	addi	x0,x0,0	  x0:0x00000000
       11795000	      1178	8000194c	052d4663	blt	x26,x18,80001998	 x26:0x35258000 x18:0x00000592
       11805000	      1179	80001950	05a9c063	blt	x19,x26,80001990	 x19:0x00000001 x26:0x35258000
       11815000	      1180	00000000	00000013	addi	x0,x0,0	  x0:0x00000000
       11825000	      1181	8000198c	00000013	addi	x0,x0,0	  x0:0x00000000
       11835000	      1182	80001990	00177b33	and	x22,x14,x1	 x14:0x00000000  x1:0x8e7fe000 x22=0x00000000
       11845000	      1183	80001994	00aef933	and	x18,x29,x10	 x29:0xfffffa5e x10:0x00000000 x18=0x00000000
       11855000	      1184	80001998	02dc4e63	blt	x24,x13,800019d4	 x24:0x00009a80 x13:0x80008dea
       11865000	      1185	8000199c	012aba33	sltu	x20,x21,x18	 x21:0x00000001 x18:0x00000000 x20=0x00000000
       11875000	      1186	800019a0	451b2993	slti	x19,x22,1105	 x22:0x00000000 x19=0x00000001
       11885000	      1187	800019a4	02c8d863	bge	x17,x12,800019d4	 x17:0x00000047 x12:0x00000000
       11895000	      1188	00000000	00000013	addi	x0,x0,0	  x0:0x00000000
       11905000	      1189	800019d0	00000013	addi	x0,x0,0	  x0:0x00000000
       11915000	      1190	800019d4	00e18db3	add	x27,x3,x14	  x3:0x00000000 x14:0x00000000 x27=0x00000000
       11925000	      1191	800019d8	48c88513	addi	x10,x17,1164	 x17:0x00000047 x10=0x000004d3
       11935000	      1192	800019dc	407fd633	sra	x12,x31,x7	 x31:0x00000001  x7:0xffffffc9 x12=0x00000000
       11945000	      1193	800019e0	05fc9463	bne	x25,x31,80001a28	 x25:0x80000000 x31:0x00000001
       11955000	      1194	00000000	00000013	addi	x0,x0,0	  x0:0x00000000
       11965000	      1195	80001a24	00000013	addi	x0,x0,0	  x0:0x00000000
       11975000	      1196	80001a28	191e7d93	andi	x27,x28,401	 x28:0x00000000 x27=0x00000000
       11985000	      1197	80001a2c	0076fd33	and	x26,x13,x7	 x13:0x80008dea  x7:0xffffffc9 x26=0x80008dc8
       11995000	      1198	80001a30	0113f263	bgeu	x7,x17,80001a34	  x7:0xffffffc9 x17:0x00000047
       12005000	      1199	00000000	00000013	addi	x0,x0,0	  x0:0x00000000
       12015000	      1200	80001a30	00000013	addi	x0,x0,0	  x0:0x00000000
       12025000	      1201	80001a34	00c40263	beq	x8,x12,80001a38	  x8:0x80009a80 x12:0x00000000
       12035000	      1202	80001a38	01c9c463	blt	x19,x28,80001a40	 x19:0x00000001 x28:0x00000000
       12045000	      1203	80001a3c	4bb1fe93	andi	x29,x3,1211	  x3:0x00000000 x29=0x00000000
       12055000	      1204	80001a40	77304c13	xori	x24,x0,1907	  x0:0x00000000 x24=0x00000773
       12065000	      1205	80001a44	000969b3	or	x19,x18,x0	 x18:0x00000000  x0:0x00000000 x19=0x00000000
       12075000	      1206	80001a48	bdedad13	slti	x26,x27,-1058	 x27:0x00000000 x26=0x00000000
       12085000	      1207	80001a4c	02807a63	bgeu	x0,x8,80001a80	  x0:0x00000000  x8:0x80009a80
       12095000	      1208	80001a50	acccb8b7	lui	x17,0xacccb	 x17=0xacccb000
       12105000	      1209	80001a54	01505c63	bge	x0,x21,80001a6c	  x0:0x00000000 x21:0x00000001
       12115000	      1210	80001a58	40bfd413	srai	x8,x31,0xb	 x31:0x00000001  x8=0x00000000
       12125000	      1211	80001a5c	f95e2393	slti	x7,x28,-107	 x28:0x00000000  x7=0x00000000
       12135000	      1212	80001a60	012f5463	bge	x30,x18,80001a68	 x30:0x00000037 x18:0x00000000
       12145000	      1213	00000000	00000013	addi	x0,x0,0	  x0:0x00000000
       12155000	      1214	80001a64	00000013	addi	x0,x0,0	  x0:0x00000000
       12165000	      1215	80001a68	01aadbb3	srl	x23,x21,x26	 x21:0x00000001 x26:0x00000000 x23=0x00000001
       12175000	      1216	80001a6c	00f67663	bgeu	x12,x15,80001a78	 x12:0x00000000 x15:0x0001270e
       12185000	      1217	80001a70	01fea0b3	slt	x1,x29,x31	 x29:0x00000000 x31:0x00000001  x1=0x00000001
       12195000	      1218	80001a74	a1527893	andi	x17,x4,-1515	  x4:0x0001270f x17=0x00012205
       12205000	      1219	80001a78	58ed4897	auipc	x17,0x58ed4	 x17=0xd8ed5a74
       12215000	      1220	80001a7c	00c007b3	add	x15,x0,x12	  x0:0x00000000 x12:0x00000000 x15=0x00000000
       12225000	      1221	80001a80	6d69cb93	xori	x23,x19,1750	 x19:0x00000000 x23=0x000006d6
       12235000	      1222	80001a84	04b8c263	blt	x17,x11,80001ac8	 x17:0xd8ed5a74 x11:0x00000001
       12245000	      1223	00000000	00000013	addi	x0,x0,0	  x0:0x00000000
       12255000	      1224	80001ac4	00000013	addi	x0,x0,0	  x0:0x00000000
       12265000	      1225	80001ac8	01bafdb3	and	x27,x21,x27	 x21:0x00000001 x27:0x00000000 x27=0x00000000
       12275000	      1226	80001acc	008c5fb3	srl	x31,x24,x8	 x24:0x00000773  x8:0x00000000 x31=0x00000773
       12285000	      1227	80001ad0	00a96a33	or	x20,x18,x10	 x18:0x00000000 x10:0x000004d3 x20=0x000004d3
       12295000	      1228	80001ad4	442a3397	auipc	x7,0x442a3	  x7=0xc42a4ad0
       12305000	      1229	80001ad8	03df6063	bltu	x30,x29,80001af8	 x30:0x00000037 x29:0x00000000
       12315000	      1230	80001adc	0390da63	bge	x1,x25,80001b10	  x1:0x00000001 x25:0x80000000
       12325000	      1231	00000000	00000013	addi	x0,x0,0	  x0:0x00000000
       12335000	      1232	80001b0c	00000013	addi	x0,x0,0	  x0:0x00000000
       12345000	      1233	80001b10	80136313	ori	x6,x6,-2047	  x6:0xfffffe00  x6=0xfffffe01
       12355000	      1234	80001b14	c8acf213	andi	x4,x25,-886	 x25:0x80000000  x4=0x80000000
       12365000	      1235	80001b18	96596397	auipc	x7,0x96596	  x7=0x16597b14
       12375000	      1236	80001b1c	eecb8613	addi	x12,x23,-276	 x23:0x000006d6 x12=0x000005c2
       12385000	      1237	80001b20	1271bd93	sltiu	x27,x3,295	  x3:0x00000000 x27=0x00000001
       12395000	      1238	80001b24	009f5533	srl	x10,x30,x9	 x30:0x00000037  x9:0x80009fc4 x10=0x00000003
       12405000	      1239	80001b28	035f7063	bgeu	x30,x21,80001b48	 x30:0x00000037 x21:0x00000001
       12415000	      1240	00000000	00000013	addi	x0,x0,0	  x0:0x00000000
       12425000	      1241	80001b44	00000013	addi	x0,x0,0	  x0:0x00000000
       12435000	      1242	80001b48	0004c433	xor	x8,x9,x0	  x9:0x80009fc4  x0:0x00000000  x8=0x80009fc4
       12445000	      1243	80001b4c	7bd74613	xori	x12,x14,1981	 x14:0x00000000 x12=0x000007bd
       12455000	      1244	80001b50	9dbb4c13	xori	x24,x22,-1573	 x22:0x00000000 x24=0xfffff9db
       12465000	      1245	80001b54	4f370613	addi	x12,x14,1267	 x14:0x00000000 x12=0x000004f3
       12475000	      1246	80001b58	01db16b3	sll	x13,x22,x29	 x22:0x00000000 x29:0x00000000 x13=0x00000000
       12485000	      1247	80001b5c	bca08213	addi	x4,x1,-1078	  x1:0x00000001  x4=0xfffffbcb
       12495000	      1248	80001b60	0c01ffb7	lui	x31,0xc01f	 x31=0x0c01f000
       12505000	      1249	80001b64	011e2433	slt	x8,x28,x17	 x28:0x00000000 x17:0xd8ed5a74  x8=0x00000000
       12515000	      1250	80001b68	b23b2a17	auipc	x20,0xb23b2	 x20=0x323b3b64
       12525000	      1251	80001b6c	200afc37	lui	x24,0x200af	 x24=0x200af000
       12535000	      1252	80001b70	0175f263	bgeu	x11,x23,80001b74	 x11:0x00000001 x23:0x000006d6
       12545000	      1253	80001b74	409f5213	srai	x4,x30,0x9	 x30:0x00000037  x4=0x00000000
       12555000	      1254	80001b78	00831313	slli	x6,x6,0x8	  x6:0xfffffe01  x6=0xfffe0100
       12565000	      1255	80001b7c	01b175b3	and	x11,x2,x27	  x2:0x00009a80 x27:0x00000001 x11=0x00000000
       12575000	      1256	80001b80	00000013	addi	x0,x0,0	  x0:0x00000000
       12585000	      1257	80001b84	419dd633	sra	x12,x27,x25	 x27:0x00000001 x25:0x80000000 x12=0x00000001
       12595000	      1258	80001b88	018a4663	blt	x20,x24,80001b94	 x20:0x323b3b64 x24:0x200af000
       12605000	      1259	80001b8c	0060d733	srl	x14,x1,x6	  x1:0x00000001  x6:0xfffe0100 x14=0x00000001
       12615000	      1260	80001b90	01a429b3	slt	x19,x8,x26	  x8:0x00000000 x26:0x00000000 x19=0x00000000
       12625000	      1261	80001b94	40ba5093	srai	x1,x20,0xb	 x20:0x323b3b64  x1=0x00064767
       12635000	      1262	80001b98	02db8863	beq	x23,x13,80001bc8	 x23:0x000006d6 x13:0x00000000
       12645000	      1263	80001b9c	29b7fd13	andi	x26,x15,667	 x15:0x00000000 x26=0x00000000
       12655000	      1264	80001ba0	b8243f93	sltiu	x31,x8,-1150	  x8:0x00000000 x31=0x00000001
       12665000	      1265	80001ba4	022b7a63	bgeu	x22,x2,80001bd8	 x22:0x00000000  x2:0x00009a80
       12675000	      1266	80001ba8	00563c33	sltu	x24,x12,x5	 x12:0x00000001  x5:0x80009f3c x24=0x00000001
       12685000	      1267	80001bac	1bbe3397	auipc	x7,0x1bbe3	  x7=0x9bbe4ba8
       12695000	      1268	80001bb0	0113f263	bgeu	x7,x17,80001bb4	  x7:0x9bbe4ba8 x17:0xd8ed5a74
       12705000	      1269	80001bb4	03914a63	blt	x2,x25,80001be8	  x2:0x00009a80 x25:0x80000000
       12715000	      1270	80001bb8	010b4f33	xor	x30,x22,x16	 x22:0x00000000 x16:0x00000002 x30=0x00000002
       12725000	      1271	80001bbc	0139db13	srli	x22,x19,0x13	 x19:0x00000000 x22=0x00000000
       12735000	      1272	80001bc0	03ee8c63	beq	x29,x30,80001bf8	 x29:0x00000000 x30:0x00000002
       12745000	      1273	80001bc4	3f292f93	slti	x31,x18,1010	 x18:0x00000000 x31=0x00000001
       12755000	      1274	80001bc8	01081663	bne	x16,x16,80001bd4	 x16:0x00000002 x16:0x00000002
       12765000	      1275	80001bcc	019ff733	and	x14,x31,x25	 x31:0x00000001 x25:0x80000000 x14=0x00000000
       12775000	      1276	80001bd0	41275533	sra	x10,x14,x18	 x14:0x00000000 x18:0x00000000 x10=0x00000000
       12785000	      1277	80001bd4	82692b37	lui	x22,0x82692	 x22=0x82692000
       12795000	      1278	80001bd8	01cb65b3	or	x11,x22,x28	 x22:0x82692000 x28:0x00000000 x11=0x82692000
       12805000	      1279	80001bdc	07d8a813	slti	x16,x17,125	 x17:0xd8ed5a74 x16=0x00000001
       12815000	      1280	80001be0	01879f93	slli	x31,x15,0x18	 x15:0x00000000 x31=0x00000000
       12825000	      1281	80001be4	11741d37	lui	x26,0x11741	 x26=0x11741000
       12835000	      1282	80001be8	01738463	beq	x7,x23,80001bf0	  x7:0x9bbe4ba8 x23:0x000006d6
       12845000	      1283	80001bec	0112d463	bge	x5,x17,80001bf4	  x5:0x80009f3c x17:0xd8ed5a74
       12855000	      1284	80001bf0	2cb4ad97	auipc	x27,0x2cb4a	 x27=0xacb4bbec
       12865000	      1285	80001bf4	01281633	sll	x12,x16,x18	 x16:0x00000001 x18:0x00000000 x12=0x00000001
       12875000	      1286	80001bf8	00991c63	bne	x18,x9,80001c10	 x18:0x00000000  x9:0x80009fc4
       12885000	      1287	00000000	00000013	addi	x0,x0,0	  x0:0x00000000
       12895000	      1288	80001c0c	00000013	addi	x0,x0,0	  x0:0x00000000
       12905000	      1289	80001c10	a1d2ae93	slti	x29,x5,-1507	  x5:0x80009f3c x29=0x00000001
       12915000	      1290	80001c14	0185f533	and	x10,x11,x24	 x11:0x82692000 x24:0x00000001 x10=0x00000000
       12925000	      1291	80001c18	46bf2697	auipc	x13,0x46bf2	 x13=0xc6bf3c14
       12935000	      1292	80001c1c	00384c33	xor	x24,x16,x3	 x16:0x00000001  x3:0x00000000 x24=0x00000001
       12945000	      1293	80001c20	00000013	addi	x0,x0,0	  x0:0x00000000
       12955000	      1294	80001c24	408708b3	sub	x17,x14,x8	 x14:0x00000000  x8:0x00000000 x17=0x00000000
       12965000	      1295	80001c28	0202c063	blt	x5,x0,80001c48	  x5:0x80009f3c  x0:0x00000000
       12975000	      1296	00000000	00000013	addi	x0,x0,0	  x0:0x00000000
       12985000	      1297	80001c44	00000013	addi	x0,x0,0	  x0:0x00000000
       12995000	      1298	80001c48	79c9fe37	lui	x28,0x79c9f	 x28=0x79c9f000
       13005000	      1299	80001c4c	1cd3bd97	auipc	x27,0x1cd3b	 x27=0x9cd3cc48
       13015000	      1300	80001c50	01f83033	sltu	x0,x16,x31	 x16:0x00000001 x31:0x00000000
       13025000	      1301	80001c54	414fd513	srai	x10,x31,0x14	 x31:0x00000000 x10=0x00000000
       13035000	      1302	80001c58	0234f063	bgeu	x9,x3,80001c78	  x9:0x80009fc4  x3:0x00000000
       13045000	      1303	00000000	00000013	addi	x0,x0,0	  x0:0x00000000
       13055000	      1304	80001c74	00000013	addi	x0,x0,0	  x0:0x00000000
       13065000	      1305	80001c78	00a039b3	sltu	x19,x0,x10	  x0:0x00000000 x10:0x00000000 x19=0x00000000
       13075000	      1306	80001c7c	11560463	beq	x12,x21,80001d84	 x12:0x00000001 x21:0x00000001
       13085000	      1307	00000000	00000013	addi	x0,x0,0	  x0:0x00000000
       13095000	      1308	80001d80	00000013	addi	x0,x0,0	  x0:0x00000000
       13105000	      1309	80001d84	00767133	and	x2,x12,x7	 x12:0x00000001  x7:0x9bbe4ba8  x2=0x00000000
       13115000	      1310	80001d88	40408633	sub	x12,x1,x4	  x1:0x00064767  x4:0x00000000 x12=0x00064767
       13125000	      1311	80001d8c	b543c313	xori	x6,x7,-1196	  x7:0x9bbe4ba8  x6=0x6441b0fc
       13135000	      1312	80001d90	01078663	beq	x15,x16,80001d9c	 x15:0x00000000 x16:0x00000001
       13145000	      1313	80001d94	00000013	addi	x0,x0,0	  x0:0x00000000
       13155000	      1314	80001d98	00e66b33	or	x22,x12,x14	 x12:0x00064767 x14:0x00000000 x22=0x00064767
       13165000	      1315	80001d9c	02ca5663	bge	x20,x12,80001dc8	 x20:0x323b3b64 x12:0x00064767
       13175000	      1316	00000000	00000013	addi	x0,x0,0	  x0:0x00000000
       13185000	      1317	80001dc4	00000013	addi	x0,x0,0	  x0:0x00000000
       13195000	      1318	80001dc8	01005bb3	srl	x23,x0,x16	  x0:0x00000000 x16:0x00000001 x23=0x00000000
       13205000	      1319	80001dcc	03869263	bne	x13,x24,80001df0	 x13:0xc6bf3c14 x24:0x00000001
       13215000	      1320	00000000	00000013	addi	x0,x0,0	  x0:0x00000000
       13225000	      1321	80001dec	00000013	addi	x0,x0,0	  x0:0x00000000
       13235000	      1322	80001df0	991b6b13	ori	x22,x22,-1647	 x22:0x00064767 x22=0xfffffff7
       13245000	      1323	80001df4	40875193	srai	x3,x14,0x8	 x14:0x00000000  x3=0x00000000
       13255000	      1324	80001df8	40720e33	sub	x28,x4,x7	  x4:0x00000000  x7:0x9bbe4ba8 x28=0x6441b458
       13265000	      1325	80001dfc	05b31463	bne	x6,x27,80001e44	  x6:0x6441b0fc x27:0x9cd3cc48
       13275000	      1326	00000000	00000013	addi	x0,x0,0	  x0:0x00000000
       13285000	      1327	80001e40	00000013	addi	x0,x0,0	  x0:0x00000000
       13295000	      1328	80001e44	012fb8b3	sltu	x17,x31,x18	 x31:0x00000000 x18:0x00000000 x17=0x00000000
       13305000	      1329	80001e48	00e2d463	bge	x5,x14,80001e50	  x5:0x80009f3c x14:0x00000000
       13315000	      1330	80001e4c	41cbd693	srai	x13,x23,0x1c	 x23:0x00000000 x13=0x00000000
       13325000	      1331	80001e50	007297b3	sll	x15,x5,x7	  x5:0x80009f3c  x7:0x9bbe4ba8 x15=0x009f3c00
       13335000	      1332	80001e54	ff642113	slti	x2,x8,-10	  x8:0x00000000  x2=0x00000000
       13345000	      1333	80001e58	5409ef93	ori	x31,x19,1344	 x19:0x00000000 x31=0x00000540
       13355000	      1334	80001e5c	01254c63	blt	x10,x18,80001e74	 x10:0x00000000 x18:0x00000000
       13365000	      1335	80001e60	0054f9b3	and	x19,x9,x5	  x9:0x80009fc4  x5:0x80009f3c x19=0x80009f04
       13375000	      1336	80001e64	00d1d193	srli	x3,x3,0xd	  x3:0x00000000  x3=0x00000000
       13385000	      1337	80001e68	0130a8b3	slt	x17,x1,x19	  x1:0x00064767 x19:0x80009f04 x17=0x00000000
       13395000	      1338	80001e6c	037e1e63	bne	x28,x23,80001ea8	 x28:0x6441b458 x23:0x00000000
       13405000	      1339	00000000	00000013	addi	x0,x0,0	  x0:0x00000000
       13415000	      1340	80001ea4	00000013	addi	x0,x0,0	  x0:0x00000000
       13425000	      1341	80001ea8	00000013	addi	x0,x0,0	  x0:0x00000000
       13435000	      1342	80001eac	037bc263	blt	x23,x23,80001ed0	 x23:0x00000000 x23:0x00000000
       13445000	      1343	80001eb0	00be0233	add	x4,x28,x11	 x28:0x6441b458 x11:0x82692000  x4=0xe6aad458
       13455000	      1344	80001eb4	01ab49b3	xor	x19,x22,x26	 x22:0xfffffff7 x26:0x11741000 x19=0xee8beff7
       13465000	      1345	80001eb8	fd00c913	xori	x18,x1,-48	  x1:0x00064767 x18=0xfff9b8b7
       13475000	      1346	80001ebc	01fae1b3	or	x3,x21,x31	 x21:0x00000001 x31:0x00000540  x3=0x00000541
       13485000	      1347	80001ec0	01f65613	srli	x12,x12,0x1f	 x12:0x00064767 x12=0x00000000
       13495000	      1348	80001ec4	04981263	bne	x16,x9,80001f08	 x16:0x00000001  x9:0x80009fc4
       13505000	      1349	00000000	00000013	addi	x0,x0,0	  x0:0x00000000
       13515000	      1350	80001f04	00000013	addi	x0,x0,0	  x0:0x00000000
       13525000	      1351	80001f08	41208633	sub	x12,x1,x18	  x1:0x00064767 x18:0xfff9b8b7 x12=0x000c8eb0
       13535000	      1352	80001f0c	011161b3	or	x3,x2,x17	  x2:0x00000000 x17:0x00000000  x3=0x00000000
       13545000	      1353	80001f10	00c75013	srli	x0,x14,0xc	 x14:0x00000000
       13555000	      1354	80001f14	41aa09b3	sub	x19,x20,x26	 x20:0x323b3b64 x26:0x11741000 x19=0x20c72b64
       13565000	      1355	80001f18	408c03b3	sub	x7,x24,x8	 x24:0x00000001  x8:0x00000000  x7=0x00000001
       13575000	      1356	80001f1c	e2017013	andi	x0,x2,-480	  x2:0x00000000
       13585000	      1357	80001f20	00faf463	bgeu	x21,x15,80001f28	 x21:0x00000001 x15:0x009f3c00
       13595000	      1358	80001f24	01d01993	slli	x19,x0,0x1d	  x0:0x00000000 x19=0x00000000
       13605000	      1359	80001f28	0570c663	blt	x1,x23,80001f74	  x1:0x00064767 x23:0x00000000
       13615000	      1360	80001f2c	7f7df8b7	lui	x17,0x7f7df	 x17=0x7f7df000
       13625000	      1361	80001f30	41a35d13	srai	x26,x6,0x1a	  x6:0x6441b0fc x26=0x00000019
       13635000	      1362	80001f34	e55b4213	xori	x4,x22,-427	 x22:0xfffffff7  x4=0x000001a2
       13645000	      1363	80001f38	b6a70e93	addi	x29,x14,-1174	 x14:0x00000000 x29=0xfffffb6a
       13655000	      1364	80001f3c	017d9893	slli	x17,x27,0x17	 x27:0x9cd3cc48 x17=0x24000000
       13665000	      1365	80001f40	008a1933	sll	x18,x20,x8	 x20:0x323b3b64  x8:0x00000000 x18=0x323b3b64
       13675000	      1366	80001f44	0783bc13	sltiu	x24,x7,120	  x7:0x00000001 x24=0x00000001
       13685000	      1367	80001f48	1b139e37	lui	x28,0x1b139	 x28=0x1b139000
       13695000	      1368	80001f4c	00bdfe33	and	x28,x27,x11	 x27:0x9cd3cc48 x11:0x82692000 x28=0x80410000
       13705000	      1369	80001f50	41645813	srai	x16,x8,0x16	  x8:0x00000000 x16=0x00000000
       13715000	      1370	80001f54	046a8463	beq	x21,x6,80001f9c	 x21:0x00000001  x6:0x6441b0fc
       13725000	      1371	80001f58	039af063	bgeu	x21,x25,80001f78	 x21:0x00000001 x25:0x80000000
       13735000	      1372	80001f5c	0012ad33	slt	x26,x5,x1	  x5:0x80009f3c  x1:0x00064767 x26=0x00000001
       13745000	      1373	80001f60	41f20533	sub	x10,x4,x31	  x4:0x000001a2 x31:0x00000540 x10=0xfffffc62
       13755000	      1374	80001f64	00aef663	bgeu	x29,x10,80001f70	 x29:0xfffffb6a x10:0xfffffc62
       13765000	      1375	80001f68	03e5c263	blt	x11,x30,80001f8c	 x11:0x82692000 x30:0x00000002
       13775000	      1376	00000000	00000013	addi	x0,x0,0	  x0:0x00000000
       13785000	      1377	80001f88	00000013	addi	x0,x0,0	  x0:0x00000000
       13795000	      1378	80001f8c	04ce9063	bne	x29,x12,80001fcc	 x29:0xfffffb6a x12:0x000c8eb0
       13805000	      1379	00000000	00000013	addi	x0,x0,0	  x0:0x00000000
       13815000	      1380	80001fc8	00000013	addi	x0,x0,0	  x0:0x00000000
       13825000	      1381	80001fcc	e4c90237	lui	x4,0xe4c90	  x4=0xe4c90000
       13835000	      1382	80001fd0	00000013	addi	x0,x0,0	  x0:0x00000000
       13845000	      1383	80001fd4	014f1133	sll	x2,x30,x20	 x30:0x00000002 x20:0x323b3b64  x2=0x00000020
       13855000	      1384	80001fd8	00d77333	and	x6,x14,x13	 x14:0x00000000 x13:0x00000000  x6=0x00000000
       13865000	      1385	80001fdc	00829a13	slli	x20,x5,0x8	  x5:0x80009f3c x20=0x009f3c00
       13875000	      1386	80001fe0	01425413	srli	x8,x4,0x14	  x4:0xe4c90000  x8=0x00000e4c
       13885000	      1387	80001fe4	01717263	bgeu	x2,x23,80001fe8	  x2:0x00000020 x23:0x00000000
       13895000	      1388	00000000	00000013	addi	x0,x0,0	  x0:0x00000000
       13905000	      1389	80001fe4	00000013	addi	x0,x0,0	  x0:0x00000000
       13915000	      1390	80001fe8	599b0793	addi	x15,x22,1433	 x22:0xfffffff7 x15=0x00000590
       13925000	      1391	80001fec	cf6b0813	addi	x16,x22,-778	 x22:0xfffffff7 x16=0xfffffced
       13935000	      1392	80001ff0	01a6c5b3	xor	x11,x13,x26	 x13:0x00000000 x26:0x00000001 x11=0x00000001
       13945000	      1393	80001ff4	00c0f7b3	and	x15,x1,x12	  x1:0x00064767 x12:0x000c8eb0 x15=0x00040620
       13955000	      1394	80001ff8	0a1f2bb7	lui	x23,0xa1f2	 x23=0x0a1f2000
       13965000	      1395	80001ffc	01ef4fb3	xor	x31,x30,x30	 x30:0x00000002 x30:0x00000002 x31=0x00000000
       13975000	      1396	80002000	e2a37797	auipc	x15,0xe2a37	 x15=0x62a38ffc
       13985000	      1397	80002004	01a10b33	add	x22,x2,x26	  x2:0x00000020 x26:0x00000001 x22=0x00000021
       13995000	      1398	80002008	e04ebc13	sltiu	x24,x29,-508	 x29:0xfffffb6a x24=0x00000001
       14005000	      1399	8000200c	00d6f663	bgeu	x13,x13,80002018	 x13:0x00000000 x13:0x00000000
       14015000	      1400	00000000	00000013	addi	x0,x0,0	  x0:0x00000000
       14025000	      1401	80002014	00000013	addi	x0,x0,0	  x0:0x00000000
       14035000	      1402	80002018	ad2ff093	andi	x1,x31,-1326	 x31:0x00000000  x1=0x00000000
       14045000	      1403	8000201c	53bc7413	andi	x8,x24,1339	 x24:0x00000001  x8=0x00000001
       14055000	      1404	80002020	7bbbe613	ori	x12,x23,1979	 x23:0x0a1f2000 x12=0x0a1f27bb
       14065000	      1405	80002024	30d3eb13	ori	x22,x7,781	  x7:0x00000001 x22=0x0000030d
       14075000	      1406	80002028	158ca093	slti	x1,x25,344	 x25:0x80000000  x1=0x00000001
       14085000	      1407	8000202c	001e1893	slli	x17,x28,0x1	 x28:0x80410000 x17=0x00820000
       14095000	      1408	80002030	4ea3ef93	ori	x31,x7,1258	  x7:0x00000001 x31=0x000004eb
       14105000	      1409	80002034	011988b3	add	x17,x19,x17	 x19:0x00000000 x17:0x00820000 x17=0x00820000
       14115000	      1410	80002038	001fa333	slt	x6,x31,x1	 x31:0x000004eb  x1:0x00000001  x6=0x00000000
       14125000	      1411	8000203c	00d5a533	slt	x10,x11,x13	 x11:0x00000001 x13:0x00000000 x10=0x00000000
       14135000	      1412	80002040	0088e8b3	or	x17,x17,x8	 x17:0x00820000  x8:0x00000001 x17=0x00820001
       14145000	      1413	80002044	00980d33	add	x26,x16,x9	 x16:0xfffffced  x9:0x80009fc4 x26=0x80009cb1
       14155000	      1414	80002048	00fdbb33	sltu	x22,x27,x15	 x27:0x9cd3cc48 x15:0x62a38ffc x22=0x00000000
       14165000	      1415	8000204c	01fe7bb3	and	x23,x28,x31	 x28:0x80410000 x31:0x000004eb x23=0x00000000
       14175000	      1416	80002050	01c44933	xor	x18,x8,x28	  x8:0x00000001 x28:0x80410000 x18=0x80410001
       14185000	      1417	80002054	00000013	addi	x0,x0,0	  x0:0x00000000
       14195000	      1418	80002058	c822a313	slti	x6,x5,-894	  x5:0x80009f3c  x6=0x00000001
       14205000	      1419	8000205c	40d28433	sub	x8,x5,x13	  x5:0x80009f3c x13:0x00000000  x8=0x80009f3c
       14215000	      1420	80002060	924d7913	andi	x18,x26,-1756	 x26:0x80009cb1 x18=0x80009820
       14225000	      1421	80002064	00043d33	sltu	x26,x8,x0	  x8:0x80009f3c  x0:0x00000000 x26=0x00000000
       14235000	      1422	80002068	00811263	bne	x2,x8,8000206c	  x2:0x00000020  x8:0x80009f3c
       14245000	      1423	00000000	00000013	addi	x0,x0,0	  x0:0x00000000
       14255000	      1424	80002068	00000013	addi	x0,x0,0	  x0:0x00000000
       14265000	      1425	8000206c	41ed8833	sub	x16,x27,x30	 x27:0x9cd3cc48 x30:0x00000002 x16=0x9cd3cc46
       14275000	      1426	80002070	01a459b3	srl	x19,x8,x26	  x8:0x80009f3c x26:0x00000000 x19=0x80009f3c
       14285000	      1427	80002074	045a0463	beq	x20,x5,800020bc	 x20:0x009f3c00  x5:0x80009f3c
       14295000	      1428	80002078	01d11813	slli	x16,x2,0x1d	  x2:0x00000020 x16=0x00000000
       14305000	      1429	8000207c	0140c633	xor	x12,x1,x20	  x1:0x00000001 x20:0x009f3c00 x12=0x009f3c01
       14315000	      1430	80002080	4fdff613	andi	x12,x31,1277	 x31:0x000004eb x12=0x000004e9
       14325000	      1431	80002084	03574a63	blt	x14,x21,800020b8	 x14:0x00000000 x21:0x00000001
       14335000	      1432	00000000	00000013	addi	x0,x0,0	  x0:0x00000000
       14345000	      1433	800020b4	00000013	addi	x0,x0,0	  x0:0x00000000
       14355000	      1434	800020b8	409d53b3	sra	x7,x26,x9	 x26:0x00000000  x9:0x80009fc4  x7=0x00000000
       14365000	      1435	800020bc	41745913	srai	x18,x8,0x17	  x8:0x80009f3c x18=0xffffff00
       14375000	      1436	800020c0	01ab43b3	xor	x7,x22,x26	 x22:0x00000000 x26:0x00000000  x7=0x00000000
       14385000	      1437	800020c4	00ed1313	slli	x6,x26,0xe	 x26:0x00000000  x6=0x00000000
       14395000	      1438	800020c8	4667ab93	slti	x23,x15,1126	 x15:0x62a38ffc x23=0x00000000
       14405000	      1439	800020cc	00007597	auipc	x11,0x7	 x11=0x800090c8
       14415000	      1440	800020d0	ba958593	addi	x11,x11,-1111	 x11:0x800090c8 x11=0x80008c71
       14425000	      1441	800020d4	00c58523	sb	x12,10(x11)	 x11:0x80008c71 x12:0x000004e9 PA:0x80008c7b
       14435000	      1442	800020d8	ff05c603	lbu	x12,-16(x11)	 x11:0x80008c71 x12=0x00000013 PA:0x80008c61
       14445000	      1443	800020dc	ff258e23	sb	x18,-4(x11)	 x11:0x80008c71 x18:0xffffff00 PA:0x80008c6d
       14455000	      1444	800020e0	00000013	addi	x0,x0,0	  x0:0x00000000
       14465000	      1445	800020e4	00858503	lb	x10,8(x11)	 x11:0x80008c71 x10=0xffffffa1 PA:0x80008c79
       14475000	      1446	800020e8	01f58323	sb	x31,6(x11)	 x11:0x80008c71 x31:0x000004eb PA:0x80008c77
       14485000	      1447	800020ec	25707813	andi	x16,x0,599	  x0:0x00000000 x16=0x00000000
       14495000	      1448	800020f0	4045d333	sra	x6,x11,x4	 x11:0x80008c71  x4:0xe4c90000  x6=0x80008c71
       14505000	      1449	800020f4	ffc58aa3	sb	x28,-11(x11)	 x11:0x80008c71 x28:0x80410000 PA:0x80008c66
       14515000	      1450	800020f8	004fedb3	or	x27,x31,x4	 x31:0x000004eb  x4:0xe4c90000 x27=0xe4c904eb
       14525000	      1451	800020fc	00fa4c33	xor	x24,x20,x15	 x20:0x009f3c00 x15:0x62a38ffc x24=0x623cb3fc
       14535000	      1452	80002100	9710cc13	xori	x24,x1,-1679	  x1:0x00000001 x24=0xfffff970
       14545000	      1453	80002104	ff45c503	lbu	x10,-12(x11)	 x11:0x80008c71 x10=0x000000fd PA:0x80008c65
       14555000	      1454	80002108	00000013	addi	x0,x0,0	  x0:0x00000000
       14565000	      1455	8000210c	ff758d83	lb	x27,-9(x11)	 x11:0x80008c71 x27=0xffffffef PA:0x80008c68
       14575000	      1456	80002110	ff759103	lh	x2,-9(x11)	 x11:0x80008c71  x2=0xffffb9ef PA:0x80008c68
       14585000	      1457	80002114	ff658f03	lb	x30,-10(x11)	 x11:0x80008c71 x30=0x00000023 PA:0x80008c67
       14595000	      1458	80002118	002456b3	srl	x13,x8,x2	  x8:0x80009f3c  x2:0xffffb9ef x13=0x00010001
       14605000	      1459	8000211c	017581a3	sb	x23,3(x11)	 x11:0x80008c71 x23:0x00000000 PA:0x80008c74
       14615000	      1460	80002120	0082b233	sltu	x4,x5,x8	  x5:0x80009f3c  x8:0x80009f3c  x4=0x00000000
       14625000	      1461	80002124	209b6037	lui	x0,0x209b6	
       14635000	      1462	80002128	ffd5df83	lhu	x31,-3(x11)	 x11:0x80008c71 x31=0x000042b8 PA:0x80008c6e
       14645000	      1463	8000212c	00058403	lb	x8,0(x11)	 x11:0x80008c71  x8=0xffffffe2 PA:0x80008c71
       14655000	      1464	80002130	ff25c503	lbu	x10,-14(x11)	 x11:0x80008c71 x10=0x00000099 PA:0x80008c63
       14665000	      1465	80002134	ff15d403	lhu	x8,-15(x11)	 x11:0x80008c71  x8=0x000099df PA:0x80008c62
       14675000	      1466	80002138	fe458a23	sb	x4,-12(x11)	 x11:0x80008c71  x4:0x00000000 PA:0x80008c65
       14685000	      1467	8000213c	417a53b3	sra	x7,x20,x23	 x20:0x009f3c00 x23:0x00000000  x7=0x009f3c00
       14695000	      1468	80002140	0105c603	lbu	x12,16(x11)	 x11:0x80008c71 x12=0x00000068 PA:0x80008c81
       14705000	      1469	80002144	014a3ab3	sltu	x21,x20,x20	 x20:0x009f3c00 x20:0x009f3c00 x21=0x00000000
       14715000	      1470	80002148	006543b3	xor	x7,x10,x6	 x10:0x00000099  x6:0x80008c71  x7=0x80008ce8
       14725000	      1471	8000214c	00458223	sb	x4,4(x11)	 x11:0x80008c71  x4:0x00000000 PA:0x80008c75
       14735000	      1472	80002150	008d0633	add	x12,x26,x8	 x26:0x00000000  x8:0x000099df x12=0x000099df
       14745000	      1473	80002154	ae45e093	ori	x1,x11,-1308	 x11:0x80008c71  x1=0xfffffef5
       14755000	      1474	80002158	ffb5ce03	lbu	x28,-5(x11)	 x11:0x80008c71 x28=0x00000075 PA:0x80008c6c
       14765000	      1475	8000215c	0025c083	lbu	x1,2(x11)	 x11:0x80008c71  x1=0x00000096 PA:0x80008c73
       14775000	      1476	80002160	ffe588a3	sb	x30,-15(x11)	 x11:0x80008c71 x30:0x00000023 PA:0x80008c62
       14785000	      1477	80002164	ff05c683	lbu	x13,-16(x11)	 x11:0x80008c71 x13=0x00000013 PA:0x80008c61
       14795000	      1478	00000000	00000013	addi	x0,x0,0	  x0:0x00000000
       14805000	      1479	80002168	c6db3417	auipc	x8,0xc6db3	  x8=0x46db5164
       14815000	      1480	8000216c	19712393	slti	x7,x2,407	  x2:0xffffb9ef  x7=0x00000001
       14825000	      1481	80002170	ff458a83	lb	x21,-12(x11)	 x11:0x80008c71 x21=0x00000000 PA:0x80008c65
       14835000	      1482	80002174	00000013	addi	x0,x0,0	  x0:0x00000000
       14845000	      1483	80002178	40865a13	srai	x20,x12,0x8	 x12:0x000099df x20=0x00000099
       14855000	      1484	8000217c	41898633	sub	x12,x19,x24	 x19:0x80009f3c x24:0xfffff970 x12=0x8000a5cc
       14865000	      1485	80002180	00f58323	sb	x15,6(x11)	 x11:0x80008c71 x15:0x62a38ffc PA:0x80008c77
       14875000	      1486	80002184	0095d503	lhu	x10,9(x11)	 x11:0x80008c71 x10=0x0000e9c1 PA:0x80008c7a
       14885000	      1487	80002188	ff358e83	lb	x29,-13(x11)	 x11:0x80008c71 x29=0x0000006d PA:0x80008c64
       14895000	      1488	8000218c	9005fa93	andi	x21,x11,-1792	 x11:0x80008c71 x21=0x80008800
       14905000	      1489	80002190	01e9bdb3	sltu	x27,x19,x30	 x19:0x80009f3c x30:0x00000023 x27=0x00000000
       14915000	      1490	80002194	00c42b33	slt	x22,x8,x12	  x8:0x46db5164 x12:0x8000a5cc x22=0x00000000
       14925000	      1491	80002198	03aa6063	bltu	x20,x26,800021b8	 x20:0x00000099 x26:0x00000000
       14935000	      1492	8000219c	00c607b3	add	x15,x12,x12	 x12:0x8000a5cc x12:0x8000a5cc x15=0x00014b98
       14945000	      1493	800021a0	007e8f33	add	x30,x29,x7	 x29:0x0000006d  x7:0x00000001 x30=0x0000006e
       14955000	      1494	800021a4	007326b3	slt	x13,x6,x7	  x6:0x80008c71  x7:0x00000001 x13=0x00000001
       14965000	      1495	800021a8	03c87e63	bgeu	x16,x28,800021e4	 x16:0x00000000 x28:0x00000075
       14975000	      1496	800021ac	014c5e33	srl	x28,x24,x20	 x24:0xfffff970 x20:0x00000099 x28=0x0000007f
       14985000	      1497	800021b0	96356817	auipc	x16,0x96356	 x16=0x163581ac
       14995000	      1498	800021b4	00a88933	add	x18,x17,x10	 x17:0x00820001 x10:0x0000e9c1 x18=0x0082e9c2
       15005000	      1499	800021b8	40fbd693	srai	x13,x23,0xf	 x23:0x00000000 x13=0x00000000
       15015000	      1500	800021bc	00f51463	bne	x10,x15,800021c4	 x10:0x0000e9c1 x15:0x00014b98
       15025000	      1501	00000000	00000013	addi	x0,x0,0	  x0:0x00000000
       15035000	      1502	800021c0	00000013	addi	x0,x0,0	  x0:0x00000000
       15045000	      1503	800021c4	01454263	blt	x10,x20,800021c8	 x10:0x0000e9c1 x20:0x00000099
       15055000	      1504	800021c8	897f7e13	andi	x28,x30,-1897	 x30:0x0000006e x28=0x00000006
       15065000	      1505	800021cc	1498a593	slti	x11,x17,329	 x17:0x00820001 x11=0x00000000
       15075000	      1506	800021d0	b17e3e93	sltiu	x29,x28,-1257	 x28:0x00000006 x29=0x00000001
       15085000	      1507	800021d4	d837f613	andi	x12,x15,-637	 x15:0x00014b98 x12=0x00014980
       15095000	      1508	800021d8	91e4ff17	auipc	x30,0x91e4f	 x30=0x11e511d4
       15105000	      1509	800021dc	0430d263	bge	x1,x3,80002220	  x1:0x00000096  x3:0x00000000
       15115000	      1510	00000000	00000013	addi	x0,x0,0	  x0:0x00000000
       15125000	      1511	8000221c	00000013	addi	x0,x0,0	  x0:0x00000000
       15135000	      1512	80002220	41725fb3	sra	x31,x4,x23	  x4:0x00000000 x23:0x00000000 x31=0x00000000
       15145000	      1513	80002224	001cd313	srli	x6,x25,0x1	 x25:0x80000000  x6=0x40000000
       15155000	      1514	80002228	0029fd33	and	x26,x19,x2	 x19:0x80009f3c  x2:0xffffb9ef x26=0x8000992c
       15165000	      1515	8000222c	02bdec63	bltu	x27,x11,80002264	 x27:0x00000000 x11:0x00000000
       15175000	      1516	80002230	01a8e6b3	or	x13,x17,x26	 x17:0x00820001 x26:0x8000992c x13=0x8082992d
       15185000	      1517	80002234	404dd333	sra	x6,x27,x4	 x27:0x00000000  x4:0x00000000  x6=0x00000000
       15195000	      1518	80002238	7477e417	auipc	x8,0x7477e	  x8=0xf4780234
       15205000	      1519	8000223c	005c5d33	srl	x26,x24,x5	 x24:0xfffff970  x5:0x80009f3c x26=0x0000000f
       15215000	      1520	80002240	001045b3	xor	x11,x0,x1	  x0:0x00000000  x1:0x00000096 x11=0x00000096
       15225000	      1521	80002244	c362e113	ori	x2,x5,-970	  x5:0x80009f3c  x2=0xffffff3e
       15235000	      1522	80002248	b8638593	addi	x11,x7,-1146	  x7:0x00000001 x11=0xfffffb87
       15245000	      1523	8000224c	00405513	srli	x10,x0,0x4	  x0:0x00000000 x10=0x00000000
       15255000	      1524	80002250	400a0633	sub	x12,x20,x0	 x20:0x00000099  x0:0x00000000 x12=0x00000099
       15265000	      1525	80002254	02c4c263	blt	x9,x12,80002278	  x9:0x80009fc4 x12:0x00000099
       15275000	      1526	00000000	00000013	addi	x0,x0,0	  x0:0x00000000
       15285000	      1527	80002274	00000013	addi	x0,x0,0	  x0:0x00000000
       15295000	      1528	80002278	22651a37	lui	x20,0x22651	 x20=0x22651000
       15305000	      1529	8000227c	00851113	slli	x2,x10,0x8	 x10:0x00000000  x2=0x00000000
       15315000	      1530	80002280	0009d213	srli	x4,x19,0x0	 x19:0x80009f3c  x4=0x80009f3c
       15325000	      1531	80002284	000f1e93	slli	x29,x30,0x0	 x30:0x11e511d4 x29=0x11e511d4
       15335000	      1532	80002288	34438613	addi	x12,x7,836	  x7:0x00000001 x12=0x00000345
       15345000	      1533	8000228c	7d57e5b7	lui	x11,0x7d57e	 x11=0x7d57e000
       15355000	      1534	80002290	00000013	addi	x0,x0,0	  x0:0x00000000
       15365000	      1535	80002294	00cc9d93	slli	x27,x25,0xc	 x25:0x80000000 x27=0x00000000
       15375000	      1536	80002298	01634533	xor	x10,x6,x22	  x6:0x00000000 x22:0x00000000 x10=0x00000000
       15385000	      1537	8000229c	b36fbb37	lui	x22,0xb36fb	 x22=0xb36fb000
       15395000	      1538	800022a0	00407eb3	and	x29,x0,x4	  x0:0x00000000  x4:0x80009f3c x29=0x00000000
       15405000	      1539	800022a4	01e56fb3	or	x31,x10,x30	 x10:0x00000000 x30:0x11e511d4 x31=0x11e511d4
       15415000	      1540	800022a8	85fb8b13	addi	x22,x23,-1953	 x23:0x00000000 x22=0xfffff85f
       15425000	      1541	800022ac	00081263	bne	x16,x0,800022b0	 x16:0x163581ac  x0:0x00000000
       15435000	      1542	00000000	00000013	addi	x0,x0,0	  x0:0x00000000
       15445000	      1543	800022ac	00000013	addi	x0,x0,0	  x0:0x00000000
       15455000	      1544	800022b0	01539263	bne	x7,x21,800022b4	  x7:0x00000001 x21:0x80008800
       15465000	      1545	00000000	00000013	addi	x0,x0,0	  x0:0x00000000
       15475000	      1546	800022b0	00000013	addi	x0,x0,0	  x0:0x00000000
       15485000	      1547	800022b4	00b48233	add	x4,x9,x11	  x9:0x80009fc4 x11:0x7d57e000  x4=0xfd587fc4
       15495000	      1548	800022b8	f4c07193	andi	x3,x0,-180	  x0:0x00000000  x3=0x00000000
       15505000	      1549	800022bc	02e21a63	bne	x4,x14,800022f0	  x4:0xfd587fc4 x14:0x00000000
       15515000	      1550	00000000	00000013	addi	x0,x0,0	  x0:0x00000000
       15525000	      1551	800022ec	00000013	addi	x0,x0,0	  x0:0x00000000
       15535000	      1552	800022f0	0081fdb3	and	x27,x3,x8	  x3:0x00000000  x8:0xf4780234 x27=0x00000000
       15545000	      1553	800022f4	dceb7913	andi	x18,x22,-562	 x22:0xfffff85f x18=0xfffff84e
       15555000	      1554	800022f8	00437fb3	and	x31,x6,x4	  x6:0x00000000  x4:0xfd587fc4 x31=0x00000000
       15565000	      1555	800022fc	019ae133	or	x2,x21,x25	 x21:0x80008800 x25:0x80000000  x2=0x80008800
       15575000	      1556	80002300	01793b33	sltu	x22,x18,x23	 x18:0xfffff84e x23:0x00000000 x22=0x00000000
       15585000	      1557	80002304	05144263	blt	x8,x17,80002348	  x8:0xf4780234 x17:0x00820001
       15595000	      1558	00000000	00000013	addi	x0,x0,0	  x0:0x00000000
       15605000	      1559	80002344	00000013	addi	x0,x0,0	  x0:0x00000000
       15615000	      1560	80002348	008b9a93	slli	x21,x23,0x8	 x23:0x00000000 x21=0x00000000
       15625000	      1561	8000234c	8e258113	addi	x2,x11,-1822	 x11:0x7d57e000  x2=0x7d57d8e2
       15635000	      1562	80002350	01215f33	srl	x30,x2,x18	  x2:0x7d57d8e2 x18:0xfffff84e x30=0x0001f55f
       15645000	      1563	80002354	e0c1c317	auipc	x6,0xe0c1c	  x6=0x60c1e350
       15655000	      1564	80002358	018a9913	slli	x18,x21,0x18	 x21:0x00000000 x18=0x00000000
       15665000	      1565	8000235c	01ca7c33	and	x24,x20,x28	 x20:0x22651000 x28:0x00000006 x24=0x00000000
       15675000	      1566	80002360	01e81ab3	sll	x21,x16,x30	 x16:0x163581ac x30:0x0001f55f x21=0x00000000
       15685000	      1567	80002364	00492db3	slt	x27,x18,x4	 x18:0x00000000  x4:0xfd587fc4 x27=0x00000000
       15695000	      1568	80002368	017f5793	srli	x15,x30,0x17	 x30:0x0001f55f x15=0x00000000
       15705000	      1569	8000236c	00553933	sltu	x18,x10,x5	 x10:0x00000000  x5:0x80009f3c x18=0x00000001
       15715000	      1570	80002370	34433013	sltiu	x0,x6,836	  x6:0x60c1e350
       15725000	      1571	80002374	0093c463	blt	x7,x9,8000237c	  x7:0x00000001  x9:0x80009fc4
       15735000	      1572	80002378	012f8833	add	x16,x31,x18	 x31:0x00000000 x18:0x00000001 x16=0x00000001
       15745000	      1573	8000237c	28acc313	xori	x6,x25,650	 x25:0x80000000  x6=0x8000028a
       15755000	      1574	80002380	fefb8793	addi	x15,x23,-17	 x23:0x00000000 x15=0xffffffef
       15765000	      1575	80002384	00000013	addi	x0,x0,0	  x0:0x00000000
       15775000	      1576	80002388	00c85913	srli	x18,x16,0xc	 x16:0x00000001 x18=0x00000000
       15785000	      1577	8000238c	01f19a33	sll	x20,x3,x31	  x3:0x00000000 x31:0x00000000 x20=0x00000000
       15795000	      1578	80002390	ebda8b13	addi	x22,x21,-323	 x21:0x00000000 x22=0xfffffebd
       15805000	      1579	80002394	a433ea13	ori	x20,x7,-1469	  x7:0x00000001 x20=0xfffffa43
       15815000	      1580	80002398	014e98b3	sll	x17,x29,x20	 x29:0x00000000 x20:0xfffffa43 x17=0x00000000
       15825000	      1581	8000239c	03149063	bne	x9,x17,800023bc	  x9:0x80009fc4 x17:0x00000000
       15835000	      1582	00000000	00000013	addi	x0,x0,0	  x0:0x00000000
       15845000	      1583	800023b8	00000013	addi	x0,x0,0	  x0:0x00000000
       15855000	      1584	800023bc	0051d813	srli	x16,x3,0x5	  x3:0x00000000 x16=0x00000000
       15865000	      1585	800023c0	40495bb3	sra	x23,x18,x4	 x18:0x00000000  x4:0xfd587fc4 x23=0x00000000
       15875000	      1586	800023c4	ab5b0c13	addi	x24,x22,-1355	 x22:0xfffffebd x24=0xfffff972
       15885000	      1587	800023c8	05076063	bltu	x14,x16,80002408	 x14:0x00000000 x16:0x00000000
       15895000	      1588	800023cc	bf152893	slti	x17,x10,-1039	 x10:0x00000000 x17=0x00000000
       15905000	      1589	800023d0	01aa1c33	sll	x24,x20,x26	 x20:0xfffffa43 x26:0x0000000f x24=0xfd218000
       15915000	      1590	800023d4	3ca14713	xori	x14,x2,970	  x2:0x7d57d8e2 x14=0x7d57db28
       15925000	      1591	800023d8	00761613	slli	x12,x12,0x7	 x12:0x00000345 x12=0x0001a280
       15935000	      1592	800023dc	5cb17513	andi	x10,x2,1483	  x2:0x7d57d8e2 x10=0x000000c2
       15945000	      1593	800023e0	023a6863	bltu	x20,x3,80002410	 x20:0xfffffa43  x3:0x00000000
       15955000	      1594	800023e4	f509e513	ori	x10,x19,-176	 x19:0x80009f3c x10=0xffffff7c
       15965000	      1595	800023e8	24c0bb13	sltiu	x22,x1,588	  x1:0x00000096 x22=0x00000001
       15975000	      1596	800023ec	006fe133	or	x2,x31,x6	 x31:0x00000000  x6:0x8000028a  x2=0x8000028a
       15985000	      1597	800023f0	ac9b5e97	auipc	x29,0xac9b5	 x29=0x2c9b73ec
       15995000	      1598	800023f4	f6ce8313	addi	x6,x29,-148	 x29:0x2c9b73ec  x6=0x2c9b7358
       16005000	      1599	800023f8	04278663	beq	x15,x2,80002444	 x15:0xffffffef  x2:0x8000028a
       16015000	      1600	800023fc	02184663	blt	x16,x1,80002428	 x16:0x00000000  x1:0x00000096
       16025000	      1601	00000000	00000013	addi	x0,x0,0	  x0:0x00000000
       16035000	      1602	80002424	00000013	addi	x0,x0,0	  x0:0x00000000
       16045000	      1603	80002428	00315263	bge	x2,x3,8000242c	  x2:0x8000028a  x3:0x00000000
       16055000	      1604	8000242c	418e0e33	sub	x28,x28,x24	 x28:0x00000006 x24:0xfd218000 x28=0x02de8006
       16065000	      1605	80002430	00b9e3b3	or	x7,x19,x11	 x19:0x80009f3c x11:0x7d57e000  x7=0xfd57ff3c
       16075000	      1606	80002434	d1c7f893	andi	x17,x15,-740	 x15:0xffffffef x17=0xfffffd0c
       16085000	      1607	80002438	01668a33	add	x20,x13,x22	 x13:0x8082992d x22:0x00000001 x20=0x8082992e
       16095000	      1608	8000243c	03994663	blt	x18,x25,80002468	 x18:0x00000000 x25:0x80000000
       16105000	      1609	80002440	014c6e33	or	x28,x24,x20	 x24:0xfd218000 x20:0x8082992e x28=0xfda3992e
       16115000	      1610	80002444	f52ee913	ori	x18,x29,-174	 x29:0x2c9b73ec x18=0xfffffffe
       16125000	      1611	80002448	00a39133	sll	x2,x7,x10	  x7:0xfd57ff3c x10:0xffffff7c  x2=0xc0000000
       16135000	      1612	8000244c	033afa63	bgeu	x21,x19,80002480	 x21:0x00000000 x19:0x80009f3c
       16145000	      1613	80002450	776d9d37	lui	x26,0x776d9	 x26=0x776d9000
       16155000	      1614	80002454	000a7e33	and	x28,x20,x0	 x20:0x8082992e  x0:0x00000000 x28=0x00000000
       16165000	      1615	80002458	32286c13	ori	x24,x16,802	 x16:0x00000000 x24=0x00000322
       16175000	      1616	8000245c	00a668b3	or	x17,x12,x10	 x12:0x0001a280 x10:0xffffff7c x17=0xfffffffc
       16185000	      1617	80002460	41dadc33	sra	x24,x21,x29	 x21:0x00000000 x29:0x2c9b73ec x24=0x00000000
       16195000	      1618	80002464	01cf0463	beq	x30,x28,8000246c	 x30:0x0001f55f x28:0x00000000
       16205000	      1619	80002468	83feac13	slti	x24,x29,-1985	 x29:0x2c9b73ec x24=0x00000000
       16215000	      1620	8000246c	051e0463	beq	x28,x17,800024b4	 x28:0x00000000 x17:0xfffffffc
       16225000	      1621	80002470	cef86a93	ori	x21,x16,-785	 x16:0x00000000 x21=0xfffffcef
       16235000	      1622	80002474	00000013	addi	x0,x0,0	  x0:0x00000000
       16245000	      1623	80002478	01b41f33	sll	x30,x8,x27	  x8:0xf4780234 x27:0x00000000 x30=0xf4780234
       16255000	      1624	8000247c	03d27e63	bgeu	x4,x29,800024b8	  x4:0xfd587fc4 x29:0x2c9b73ec
       16265000	      1625	00000000	00000013	addi	x0,x0,0	  x0:0x00000000
       16275000	      1626	800024b4	00000013	addi	x0,x0,0	  x0:0x00000000
       16285000	      1627	800024b8	01be5593	srli	x11,x28,0x1b	 x28:0x00000000 x11=0x00000000
       16295000	      1628	800024bc	41c40933	sub	x18,x8,x28	  x8:0xf4780234 x28:0x00000000 x18=0xf4780234
       16305000	      1629	800024c0	053ad063	bge	x21,x19,80002500	 x21:0xfffffcef x19:0x80009f3c
       16315000	      1630	00000000	00000013	addi	x0,x0,0	  x0:0x00000000
       16325000	      1631	800024fc	00000013	addi	x0,x0,0	  x0:0x00000000
       16335000	      1632	80002500	00000013	addi	x0,x0,0	  x0:0x00000000
       16345000	      1633	80002504	4118d8b3	sra	x17,x17,x17	 x17:0xfffffffc x17:0xfffffffc x17=0xffffffff
       16355000	      1634	80002508	0461cd93	xori	x27,x3,70	  x3:0x00000000 x27=0x00000046
       16365000	      1635	8000250c	6bcda713	slti	x14,x27,1724	 x27:0x00000046 x14=0x00000001
       16375000	      1636	80002510	00691033	sll	x0,x18,x6	 x18:0xf4780234  x6:0x2c9b7358
       16385000	      1637	80002514	0330d063	bge	x1,x19,80002534	  x1:0x00000096 x19:0x80009f3c
       16395000	      1638	00000000	00000013	addi	x0,x0,0	  x0:0x00000000
       16405000	      1639	80002530	00000013	addi	x0,x0,0	  x0:0x00000000
       16415000	      1640	80002534	411e57b3	sra	x15,x28,x17	 x28:0x00000000 x17:0xffffffff x15=0x00000000
       16425000	      1641	80002538	006f6233	or	x4,x30,x6	 x30:0xf4780234  x6:0x2c9b7358  x4=0xfcfb737c
       16435000	      1642	8000253c	01976c33	or	x24,x14,x25	 x14:0x00000001 x25:0x80000000 x24=0x80000001
       16445000	      1643	80002540	016f8ab3	add	x21,x31,x22	 x31:0x00000000 x22:0x00000001 x21=0x00000001
       16455000	      1644	80002544	0056b633	sltu	x12,x13,x5	 x13:0x8082992d  x5:0x80009f3c x12=0x00000000
       16465000	      1645	80002548	40af5393	srai	x7,x30,0xa	 x30:0xf4780234  x7=0xfffd1e00
       16475000	      1646	8000254c	013e9733	sll	x14,x29,x19	 x29:0x2c9b73ec x19:0x80009f3c x14=0xc0000000
       16485000	      1647	80002550	0ac06a63	bltu	x0,x12,80002604	  x0:0x00000000 x12:0x00000000
       16495000	      1648	80002554	0a6b9c63	bne	x23,x6,8000260c	 x23:0x00000000  x6:0x2c9b7358
       16505000	      1649	00000000	00000013	addi	x0,x0,0	  x0:0x00000000
       16515000	      1650	80002608	00000013	addi	x0,x0,0	  x0:0x00000000
       16525000	      1651	8000260c	00000013	addi	x0,x0,0	  x0:0x00000000
       16535000	      1652	80002610	0083e633	or	x12,x7,x8	  x7:0xfffd1e00  x8:0xf4780234 x12=0xfffd1e34
       16545000	      1653	80002614	404b5eb3	sra	x29,x22,x4	 x22:0x00000001  x4:0xfcfb737c x29=0x00000000
       16555000	      1654	80002618	03690a63	beq	x18,x22,8000264c	 x18:0xf4780234 x22:0x00000001
       16565000	      1655	8000261c	c019f813	andi	x16,x19,-1023	 x19:0x80009f3c x16=0x80009c00
       16575000	      1656	80002620	007ef933	and	x18,x29,x7	 x29:0x00000000  x7:0xfffd1e00 x18=0x00000000
       16585000	      1657	80002624	03775a63	bge	x14,x23,80002658	 x14:0xc0000000 x23:0x00000000
       16595000	      1658	80002628	40aed013	srai	x0,x29,0xa	 x29:0x00000000
       16605000	      1659	8000262c	01eb9b33	sll	x22,x23,x30	 x23:0x00000000 x30:0xf4780234 x22=0x00000000
       16615000	      1660	80002630	c989c713	xori	x14,x19,-872	 x19:0x80009f3c x14=0x7fff63a4
       16625000	      1661	80002634	00900233	add	x4,x0,x9	  x0:0x00000000  x9:0x80009fc4  x4=0x80009fc4
       16635000	      1662	80002638	01029993	slli	x19,x5,0x10	  x5:0x80009f3c x19=0x9f3c0000
       16645000	      1663	8000263c	61983a93	sltiu	x21,x16,1561	 x16:0x80009c00 x21=0x00000000
       16655000	      1664	80002640	6dac3093	sltiu	x1,x24,1754	 x24:0x80000001  x1=0x00000000
       16665000	      1665	80002644	0225e063	bltu	x11,x2,80002664	 x11:0x00000000  x2:0xc0000000
       16675000	      1666	00000000	00000013	addi	x0,x0,0	  x0:0x00000000
       16685000	      1667	80002660	00000013	addi	x0,x0,0	  x0:0x00000000
       16695000	      1668	80002664	00950633	add	x12,x10,x9	 x10:0xffffff7c  x9:0x80009fc4 x12=0x80009f40
       16705000	      1669	80002668	04766463	bltu	x12,x7,800026b0	 x12:0x80009f40  x7:0xfffd1e00
       16715000	      1670	00000000	00000013	addi	x0,x0,0	  x0:0x00000000
       16725000	      1671	800026ac	00000013	addi	x0,x0,0	  x0:0x00000000
       16735000	      1672	800026b0	05f98263	beq	x19,x31,800026f4	 x19:0x9f3c0000 x31:0x00000000
       16745000	      1673	800026b4	013639b3	sltu	x19,x12,x19	 x12:0x80009f40 x19:0x9f3c0000 x19=0x00000001
       16755000	      1674	800026b8	00a57733	and	x14,x10,x10	 x10:0xffffff7c x10:0xffffff7c x14=0xffffff7c
       16765000	      1675	800026bc	edb77f93	andi	x31,x14,-293	 x14:0xffffff7c x31=0xfffffe58
       16775000	      1676	800026c0	69962c13	slti	x24,x12,1689	 x12:0x80009f40 x24=0x00000001
       16785000	      1677	800026c4	00000013	addi	x0,x0,0	  x0:0x00000000
       16795000	      1678	800026c8	00614d33	xor	x26,x2,x6	  x2:0xc0000000  x6:0x2c9b7358 x26=0xec9b7358
       16805000	      1679	800026cc	ecd56013	ori	x0,x10,-307	 x10:0xffffff7c
       16815000	      1680	800026d0	f2f24f93	xori	x31,x4,-209	  x4:0x80009fc4 x31=0x7fff60eb
       16825000	      1681	800026d4	03f05863	bge	x0,x31,80002704	  x0:0x00000000 x31:0x7fff60eb
       16835000	      1682	800026d8	01891f93	slli	x31,x18,0x18	 x18:0x00000000 x31=0x00000000
       16845000	      1683	800026dc	03509a63	bne	x1,x21,80002710	  x1:0x00000000 x21:0x00000000
       16855000	      1684	800026e0	00000013	addi	x0,x0,0	  x0:0x00000000
       16865000	      1685	800026e4	01af0433	add	x8,x30,x26	 x30:0xf4780234 x26:0xec9b7358  x8=0xe113758c
       16875000	      1686	800026e8	0094fab3	and	x21,x9,x9	  x9:0x80009fc4  x9:0x80009fc4 x21=0x80009fc4
       16885000	      1687	800026ec	017dda13	srli	x20,x27,0x17	 x27:0x00000046 x20=0x00000000
       16895000	      1688	800026f0	004f5f13	srli	x30,x30,0x4	 x30:0xf4780234 x30=0x0f478023
       16905000	      1689	800026f4	00bbfa33	and	x20,x23,x11	 x23:0x00000000 x11:0x00000000 x20=0x00000000
       16915000	      1690	800026f8	067efd13	andi	x26,x29,103	 x29:0x00000000 x26=0x00000000
       16925000	      1691	800026fc	01f6b433	sltu	x8,x13,x31	 x13:0x8082992d x31:0x00000000  x8=0x00000000
       16935000	      1692	80002700	b0b74b13	xori	x22,x14,-1269	 x14:0xffffff7c x22=0x00000477
       16945000	      1693	80002704	0185f463	bgeu	x11,x24,8000270c	 x11:0x00000000 x24:0x00000001
       16955000	      1694	80002708	41f80733	sub	x14,x16,x31	 x16:0x80009c00 x31:0x00000000 x14=0x80009c00
       16965000	      1695	8000270c	4025d3b3	sra	x7,x11,x2	 x11:0x00000000  x2:0xc0000000  x7=0x00000000
       16975000	      1696	80002710	c5ec8913	addi	x18,x25,-930	 x25:0x80000000 x18=0x7ffffc5e
       16985000	      1697	80002714	00b92933	slt	x18,x18,x11	 x18:0x7ffffc5e x11:0x00000000 x18=0x00000000
       16995000	      1698	80002718	03571063	bne	x14,x21,80002738	 x14:0x80009c00 x21:0x80009fc4
       17005000	      1699	00000000	00000013	addi	x0,x0,0	  x0:0x00000000
       17015000	      1700	80002734	00000013	addi	x0,x0,0	  x0:0x00000000
       17025000	      1701	80002738	01bd7e33	and	x28,x26,x27	 x26:0x00000000 x27:0x00000046 x28=0x00000000
       17035000	      1702	8000273c	03b00c63	beq	x0,x27,80002774	  x0:0x00000000 x27:0x00000046
       17045000	      1703	80002740	aae3ee93	ori	x29,x7,-1362	  x7:0x00000000 x29=0xfffffaae
       17055000	      1704	80002744	4452f713	andi	x14,x5,1093	  x5:0x80009f3c x14=0x00000404
       17065000	      1705	80002748	003d6313	ori	x6,x26,3	 x26:0x00000000  x6=0x00000003
       17075000	      1706	8000274c	00519d13	slli	x26,x3,0x5	  x3:0x00000000 x26=0x00000000
       17085000	      1707	80002750	9d5e7093	andi	x1,x28,-1579	 x28:0x00000000  x1=0x00000000
       17095000	      1708	80002754	00631013	slli	x0,x6,0x6	  x6:0x00000003
       17105000	      1709	80002758	0191de13	srli	x28,x3,0x19	  x3:0x00000000 x28=0x00000000
       17115000	      1710	8000275c	00d52733	slt	x14,x10,x13	 x10:0xffffff7c x13:0x8082992d x14=0x00000000
       17125000	      1711	80002760	01edb633	sltu	x12,x27,x30	 x27:0x00000046 x30:0x0f478023 x12=0x00000001
       17135000	      1712	80002764	3c9d3c13	sltiu	x24,x26,969	 x26:0x00000000 x24=0x00000001
       17145000	      1713	80002768	00000013	addi	x0,x0,0	  x0:0x00000000
       17155000	      1714	8000276c	003b5833	srl	x16,x22,x3	 x22:0x00000477  x3:0x00000000 x16=0x00000477
       17165000	      1715	80002770	05305263	bge	x0,x19,800027b4	  x0:0x00000000 x19:0x00000001
       17175000	      1716	80002774	02398263	beq	x19,x3,80002798	 x19:0x00000001  x3:0x00000000
       17185000	      1717	80002778	00000013	addi	x0,x0,0	  x0:0x00000000
       17195000	      1718	8000277c	01fddf13	srli	x30,x27,0x1f	 x27:0x00000046 x30=0x00000000
       17205000	      1719	80002780	21e4f613	andi	x12,x9,542	  x9:0x80009fc4 x12=0x00000204
       17215000	      1720	80002784	f18f6513	ori	x10,x30,-232	 x30:0x00000000 x10=0xffffff18
       17225000	      1721	80002788	0076b6b3	sltu	x13,x13,x7	 x13:0x8082992d  x7:0x00000000 x13=0x00000000
       17235000	      1722	8000278c	41e55893	srai	x17,x10,0x1e	 x10:0xffffff18 x17=0xffffffff
       17245000	      1723	80002790	59d9a537	lui	x10,0x59d9a	 x10=0x59d9a000
       17255000	      1724	80002794	009a5133	srl	x2,x20,x9	 x20:0x00000000  x9:0x80009fc4  x2=0x00000000
       17265000	      1725	80002798	98d08e93	addi	x29,x1,-1651	  x1:0x00000000 x29=0xfffff98d
       17275000	      1726	8000279c	05dde463	bltu	x27,x29,800027e4	 x27:0x00000046 x29:0xfffff98d
       17285000	      1727	00000000	00000013	addi	x0,x0,0	  x0:0x00000000
       17295000	      1728	800027e0	00000013	addi	x0,x0,0	  x0:0x00000000
       17305000	      1729	800027e4	01012233	slt	x4,x2,x16	  x2:0x00000000 x16:0x00000477  x4=0x00000001
       17315000	      1730	800027e8	a39da113	slti	x2,x27,-1479	 x27:0x00000046  x2=0x00000000
       17325000	      1731	800027ec	0114dfb3	srl	x31,x9,x17	  x9:0x80009fc4 x17:0xffffffff x31=0x00000001
       17335000	      1732	800027f0	7035b893	sltiu	x17,x11,1795	 x11:0x00000000 x17=0x00000001
       17345000	      1733	800027f4	039e8263	beq	x29,x25,80002818	 x29:0xfffff98d x25:0x80000000
       17355000	      1734	800027f8	403a05b3	sub	x11,x20,x3	 x20:0x00000000  x3:0x00000000 x11=0x00000000
       17365000	      1735	800027fc	01a69733	sll	x14,x13,x26	 x13:0x00000000 x26:0x00000000 x14=0x00000000
       17375000	      1736	80002800	717c3d93	sltiu	x27,x24,1815	 x24:0x00000001 x27=0x00000001
       17385000	      1737	80002804	01550663	beq	x10,x21,80002810	 x10:0x59d9a000 x21:0x80009fc4
       17395000	      1738	80002808	2bd98e13	addi	x28,x19,701	 x19:0x00000001 x28=0x000002be
       17405000	      1739	8000280c	4180de93	srai	x29,x1,0x18	  x1:0x00000000 x29=0x00000000
       17415000	      1740	80002810	04e61063	bne	x12,x14,80002850	 x12:0x00000204 x14:0x00000000
       17425000	      1741	00000000	00000013	addi	x0,x0,0	  x0:0x00000000
       17435000	      1742	8000284c	00000013	addi	x0,x0,0	  x0:0x00000000
       17445000	      1743	80002850	00164633	xor	x12,x12,x1	 x12:0x00000204  x1:0x00000000 x12=0x00000204
       17455000	      1744	80002854	00b7a3b3	slt	x7,x15,x11	 x15:0x00000000 x11:0x00000000  x7=0x00000000
       17465000	      1745	80002858	00221a93	slli	x21,x4,0x2	  x4:0x00000001 x21=0x00000004
       17475000	      1746	8000285c	009b9fb3	sll	x31,x23,x9	 x23:0x00000000  x9:0x80009fc4 x31=0x00000000
       17485000	      1747	80002860	6edffa93	andi	x21,x31,1773	 x31:0x00000000 x21=0x00000000
       17495000	      1748	80002864	01cd7263	bgeu	x26,x28,80002868	 x26:0x00000000 x28:0x000002be
       17505000	      1749	80002868	012eed33	or	x26,x29,x18	 x29:0x00000000 x18:0x00000000 x26=0x00000000
       17515000	      1750	8000286c	00fb5b13	srli	x22,x22,0xf	 x22:0x00000477 x22=0x00000000
       17525000	      1751	80002870	6eff3b93	sltiu	x23,x30,1775	 x30:0x00000000 x23=0x00000001
       17535000	      1752	80002874	00773733	sltu	x14,x14,x7	 x14:0x00000000  x7:0x00000000 x14=0x00000000
       17545000	      1753	80002878	013c91b3	sll	x3,x25,x19	 x25:0x80000000 x19:0x00000001  x3=0x00000000
       17555000	      1754	8000287c	00ccb733	sltu	x14,x25,x12	 x25:0x80000000 x12:0x00000204 x14=0x00000000
       17565000	      1755	80002880	11a48413	addi	x8,x9,282	  x9:0x80009fc4  x8=0x8000a0de
       17575000	      1756	80002884	d1026137	lui	x2,0xd1026	  x2=0xd1026000
       17585000	      1757	80002888	4136dbb3	sra	x23,x13,x19	 x13:0x00000000 x19:0x00000001 x23=0x00000000
       17595000	      1758	8000288c	2c1ca393	slti	x7,x25,705	 x25:0x80000000  x7=0x00000001
       17605000	      1759	80002890	01fad7b3	srl	x15,x21,x31	 x21:0x00000000 x31:0x00000000 x15=0x00000000
       17615000	      1760	80002894	e4e0e6b7	lui	x13,0xe4e0e	 x13=0xe4e0e000
       17625000	      1761	80002898	01b397b3	sll	x15,x7,x27	  x7:0x00000001 x27:0x00000001 x15=0x00000002
       17635000	      1762	8000289c	00e5e263	bltu	x11,x14,800028a0	 x11:0x00000000 x14:0x00000000
       17645000	      1763	800028a0	afab4593	xori	x11,x22,-1286	 x22:0x00000000 x11=0xfffffafa
       17655000	      1764	800028a4	aa063893	sltiu	x17,x12,-1376	 x12:0x00000204 x17=0x00000001
       17665000	      1765	800028a8	018f4b33	xor	x22,x30,x24	 x30:0x00000000 x24:0x00000001 x22=0x00000001
       17675000	      1766	800028ac	20ab6b93	ori	x23,x22,522	 x22:0x00000001 x23=0x0000020b
       17685000	      1767	800028b0	58114e37	lui	x28,0x58114	 x28=0x58114000
       17695000	      1768	800028b4	01744233	xor	x4,x8,x23	  x8:0x8000a0de x23:0x0000020b  x4=0x8000a2d5
       17705000	      1769	800028b8	2d872193	slti	x3,x14,728	 x14:0x00000000  x3=0x00000001
       17715000	      1770	800028bc	ecbd3b97	auipc	x23,0xecbd3	 x23=0x6cbd58b8
       17725000	      1771	800028c0	00000013	addi	x0,x0,0	  x0:0x00000000
       17735000	      1772	800028c4	11514a63	blt	x2,x21,800029d8	  x2:0xd1026000 x21:0x00000000
       17745000	      1773	00000000	00000013	addi	x0,x0,0	  x0:0x00000000
       17755000	      1774	800029d4	00000013	addi	x0,x0,0	  x0:0x00000000
       17765000	      1775	800029d8	61f126b7	lui	x13,0x61f12	 x13=0x61f12000
       17775000	      1776	800029dc	00000013	addi	x0,x0,0	  x0:0x00000000
       17785000	      1777	800029e0	41ea5933	sra	x18,x20,x30	 x20:0x00000000 x30:0x00000000 x18=0x00000000
       17795000	      1778	800029e4	2dfa55b7	lui	x11,0x2dfa5	 x11=0x2dfa5000
       17805000	      1779	800029e8	03436263	bltu	x6,x20,80002a0c	  x6:0x00000003 x20:0x00000000
       17815000	      1780	800029ec	95b6a137	lui	x2,0x95b6a	  x2=0x95b6a000
       17825000	      1781	800029f0	00d30133	add	x2,x6,x13	  x6:0x00000003 x13:0x61f12000  x2=0x61f12003
       17835000	      1782	800029f4	01c35593	srli	x11,x6,0x1c	  x6:0x00000003 x11=0x00000000
       17845000	      1783	800029f8	5451cb97	auipc	x23,0x5451c	 x23=0xd451e9f4
       17855000	      1784	800029fc	22a9e213	ori	x4,x19,554	 x19:0x00000001  x4=0x0000022b
       17865000	      1785	80002a00	0d4e6a93	ori	x21,x28,212	 x28:0x58114000 x21=0x581140d4
       17875000	      1786	80002a04	d2606e93	ori	x29,x0,-730	  x0:0x00000000 x29=0xfffffd26
       17885000	      1787	80002a08	403901b3	sub	x3,x18,x3	 x18:0x00000000  x3:0x00000001  x3=0xffffffff
       17895000	      1788	80002a0c	00b2c733	xor	x14,x5,x11	  x5:0x80009f3c x11:0x00000000 x14=0x80009f3c
       17905000	      1789	80002a10	02cb9a63	bne	x23,x12,80002a44	 x23:0xd451e9f4 x12:0x00000204
       17915000	      1790	00000000	00000013	addi	x0,x0,0	  x0:0x00000000
       17925000	      1791	80002a40	00000013	addi	x0,x0,0	  x0:0x00000000
       17935000	      1792	80002a44	2ec16917	auipc	x18,0x2ec16	 x18=0xaec18a40
       17945000	      1793	80002a48	d1aec313	xori	x6,x29,-742	 x29:0xfffffd26  x6=0x0000003c
       17955000	      1794	80002a4c	03308a63	beq	x1,x19,80002a80	  x1:0x00000000 x19:0x00000001
       17965000	      1795	80002a50	786b2613	slti	x12,x22,1926	 x22:0x00000001 x12=0x00000001
       17975000	      1796	80002a54	5fd18997	auipc	x19,0x5fd18	 x19=0xdfd1aa50
       17985000	      1797	80002a58	006173b3	and	x7,x2,x6	  x2:0x61f12003  x6:0x0000003c  x7=0x00000000
       17995000	      1798	80002a5c	881a6813	ori	x16,x20,-1919	 x20:0x00000000 x16=0xfffff881
       18005000	      1799	80002a60	19f09597	auipc	x11,0x19f09	 x11=0x99f0ba5c
       18015000	      1800	80002a64	05374263	blt	x14,x19,80002aa8	 x14:0x80009f3c x19:0xdfd1aa50
       18025000	      1801	00000000	00000013	addi	x0,x0,0	  x0:0x00000000
       18035000	      1802	80002aa4	00000013	addi	x0,x0,0	  x0:0x00000000
       18045000	      1803	80002aa8	1a738d97	auipc	x27,0x1a738	 x27=0x9a73aaa4
       18055000	      1804	80002aac	00000013	addi	x0,x0,0	  x0:0x00000000
       18065000	      1805	80002ab0	01605c33	srl	x24,x0,x22	  x0:0x00000000 x22:0x00000001 x24=0x00000000
       18075000	      1806	80002ab4	01645833	srl	x16,x8,x22	  x8:0x8000a0de x22:0x00000001 x16=0x4000506f
       18085000	      1807	80002ab8	8e24a893	slti	x17,x9,-1822	  x9:0x80009fc4 x17=0x00000001
       18095000	      1808	80002abc	00d19e33	sll	x28,x3,x13	  x3:0xffffffff x13:0x61f12000 x28=0xffffffff
       18105000	      1809	80002ac0	01da48b3	xor	x17,x20,x29	 x20:0x00000000 x29:0xfffffd26 x17=0xfffffd26
       18115000	      1810	80002ac4	05838263	beq	x7,x24,80002b08	  x7:0x00000000 x24:0x00000000
       18125000	      1811	00000000	00000013	addi	x0,x0,0	  x0:0x00000000
       18135000	      1812	80002b04	00000013	addi	x0,x0,0	  x0:0x00000000
       18145000	      1813	80002b08	00000013	addi	x0,x0,0	  x0:0x00000000
       18155000	      1814	80002b0c	e3e42b93	slti	x23,x8,-450	  x8:0x8000a0de x23=0x00000001
       18165000	      1815	80002b10	d149fa13	andi	x20,x19,-748	 x19:0xdfd1aa50 x20=0xdfd1a810
       18175000	      1816	80002b14	01111813	slli	x16,x2,0x11	  x2:0x61f12003 x16=0x40060000
       18185000	      1817	80002b18	f5fe4517	auipc	x10,0xf5fe4	 x10=0x75fe6b14
       18195000	      1818	80002b1c	4195d413	srai	x8,x11,0x19	 x11:0x99f0ba5c  x8=0xffffffcc
       18205000	      1819	80002b20	00000013	addi	x0,x0,0	  x0:0x00000000
       18215000	      1820	80002b24	829c7b13	andi	x22,x24,-2007	 x24:0x00000000 x22=0x00000000
       18225000	      1821	80002b28	025a0663	beq	x20,x5,80002b54	 x20:0xdfd1a810  x5:0x80009f3c
       18235000	      1822	80002b2c	02e7e263	bltu	x15,x14,80002b50	 x15:0x00000002 x14:0x80009f3c
       18245000	      1823	00000000	00000013	addi	x0,x0,0	  x0:0x00000000
       18255000	      1824	80002b4c	00000013	addi	x0,x0,0	  x0:0x00000000
       18265000	      1825	80002b50	480cee93	ori	x29,x25,1152	 x25:0x80000000 x29=0x80000480
       18275000	      1826	80002b54	89f62f93	slti	x31,x12,-1889	 x12:0x00000001 x31=0x00000000
       18285000	      1827	80002b58	96201c37	lui	x24,0x96201	 x24=0x96201000
       18295000	      1828	80002b5c	00a1d6b3	srl	x13,x3,x10	  x3:0xffffffff x10:0x75fe6b14 x13=0x00000fff
       18305000	      1829	80002b60	72cefd93	andi	x27,x29,1836	 x29:0x80000480 x27=0x00000400
       18315000	      1830	80002b64	e8be4093	xori	x1,x28,-373	 x28:0xffffffff  x1=0x00000174
       18325000	      1831	80002b68	01976ab3	or	x21,x14,x25	 x14:0x80009f3c x25:0x80000000 x21=0x80009f3c
       18335000	      1832	80002b6c	01eef463	bgeu	x29,x30,80002b74	 x29:0x80000480 x30:0x00000000
       18345000	      1833	00000000	00000013	addi	x0,x0,0	  x0:0x00000000
       18355000	      1834	80002b70	00000013	addi	x0,x0,0	  x0:0x00000000
       18365000	      1835	80002b74	50cf3013	sltiu	x0,x30,1292	 x30:0x00000000
       18375000	      1836	80002b78	4b15f913	andi	x18,x11,1201	 x11:0x99f0ba5c x18=0x00000010
       18385000	      1837	80002b7c	008b5e63	bge	x22,x8,80002b98	 x22:0x00000000  x8:0xffffffcc
       18395000	      1838	00000000	00000013	addi	x0,x0,0	  x0:0x00000000
       18405000	      1839	80002b94	00000013	addi	x0,x0,0	  x0:0x00000000
       18415000	      1840	80002b98	0166c3b3	xor	x7,x13,x22	 x13:0x00000fff x22:0x00000000  x7=0x00000fff
       18425000	      1841	80002b9c	41618a33	sub	x20,x3,x22	  x3:0xffffffff x22:0x00000000 x20=0xffffffff
       18435000	      1842	80002ba0	01c41d93	slli	x27,x8,0x1c	  x8:0xffffffcc x27=0xc0000000
       18445000	      1843	80002ba4	41a4d3b3	sra	x7,x9,x26	  x9:0x80009fc4 x26:0x00000000  x7=0x80009fc4
       18455000	      1844	80002ba8	69cc3513	sltiu	x10,x24,1692	 x24:0x96201000 x10=0x00000000
       18465000	      1845	80002bac	00ed4f33	xor	x30,x26,x14	 x26:0x00000000 x14:0x80009f3c x30=0x80009f3c
       18475000	      1846	80002bb0	419b00b3	sub	x1,x22,x25	 x22:0x00000000 x25:0x80000000  x1=0x80000000
       18485000	      1847	80002bb4	00000013	addi	x0,x0,0	  x0:0x00000000
       18495000	      1848	80002bb8	0042a303	lw	x6,4(x5)	  x5:0x80009f3c  x6=0x80004764 PA:0x80009f40
       18505000	      1849	80002bbc	03428293	addi	x5,x5,52	  x5:0x80009f3c  x5=0x80009f70
       18515000	      1850	80002bc0	00000013	addi	x0,x0,0	  x0:0x00000000
       18525000	      1851	80002bc4	000779b3	and	x19,x14,x0	 x14:0x80009f3c  x0:0x00000000 x19=0x00000000
       18535000	      1852	80002bc8	41a2d193	srai	x3,x5,0x1a	  x5:0x80009f70  x3=0xffffffe0
       18545000	      1853	80002bcc	00030213	addi	x4,x6,0	  x6:0x80004764  x4=0x80004764
       18555000	      1854	80002bd0	00020267	jalr	x4,x4,0	  x4:0x80004764  x4=0x80002bd0
       18565000	      1855	00000000	00000013	addi	x0,x0,0	  x0:0x00000000
       18575000	      1856	80004764	00000013	addi	x0,x0,0	  x0:0x00000000
       18585000	      1857	80004768	00004f97	auipc	x31,0x4	 x31=0x80008764
       18595000	      1858	8000476c	cd3f8f93	addi	x31,x31,-813	 x31:0x80008764 x31=0x80008437
       18605000	      1859	80004770	c2b3fdb7	lui	x27,0xc2b3f	 x27=0xc2b3f000
       18615000	      1860	80004774	febfdb83	lhu	x23,-21(x31)	 x31:0x80008437 x23=0x0000f1ba PA:0x80008422
       18625000	      1861	80004778	620c8593	addi	x11,x25,1568	 x25:0x80000000 x11=0x80000620
       18635000	      1862	8000477c	41aed5b3	sra	x11,x29,x26	 x29:0x80000480 x26:0x00000000 x11=0x80000480
       18645000	      1863	80004780	01e0c7b3	xor	x15,x1,x30	  x1:0x80000000 x30:0x80009f3c x15=0x00009f3c
       18655000	      1864	80004784	fe7f9303	lh	x6,-25(x31)	 x31:0x80008437  x6=0x00002ce6 PA:0x8000841e
       18665000	      1865	80004788	a283feb7	lui	x29,0xa283f	 x29=0xa283f000
       18675000	      1866	8000478c	019fcd03	lbu	x26,25(x31)	 x31:0x80008437 x26=0x00000020 PA:0x80008450
       18685000	      1867	80004790	fc0f8a83	lb	x21,-64(x31)	 x31:0x80008437 x21=0x0000007a PA:0x800083f7
       18695000	      1868	80004794	003077b3	and	x15,x0,x3	  x0:0x00000000  x3:0xffffffe0 x15=0x00000000
       18705000	      1869	80004798	41fc5db3	sra	x27,x24,x31	 x24:0x96201000 x31:0x80008437 x27=0xffffff2c
       18715000	      1870	8000479c	010b8733	add	x14,x23,x16	 x23:0x0000f1ba x16:0x40060000 x14=0x4006f1ba
       18725000	      1871	800047a0	fe6f8523	sb	x6,-22(x31)	 x31:0x80008437  x6:0x00002ce6 PA:0x80008421
       18735000	      1872	800047a4	fd2f8123	sb	x18,-62(x31)	 x31:0x80008437 x18:0x00000010 PA:0x800083f9
       18745000	      1873	800047a8	02df8123	sb	x13,34(x31)	 x31:0x80008437 x13:0x00000fff PA:0x80008459
       18755000	      1874	800047ac	00000013	addi	x0,x0,0	  x0:0x00000000
       18765000	      1875	800047b0	01aada93	srli	x21,x21,0x1a	 x21:0x0000007a x21=0x00000000
       18775000	      1876	800047b4	a764fd13	andi	x26,x9,-1418	  x9:0x80009fc4 x26=0x80009a44
       18785000	      1877	800047b8	03cf8a83	lb	x21,60(x31)	 x31:0x80008437 x21=0x00000050 PA:0x80008473
       18795000	      1878	800047bc	fd0fc603	lbu	x12,-48(x31)	 x31:0x80008437 x12=0x000000c3 PA:0x80008407
       18805000	      1879	800047c0	01f7bdb3	sltu	x27,x15,x31	 x15:0x00000000 x31:0x80008437 x27=0x00000001
       18815000	      1880	800047c4	01ffde83	lhu	x29,31(x31)	 x31:0x80008437 x29=0x00006aee PA:0x80008456
       18825000	      1881	800047c8	010d75b3	and	x11,x26,x16	 x26:0x80009a44 x16:0x40060000 x11=0x00000000
       18835000	      1882	800047cc	3118f393	andi	x7,x17,785	 x17:0xfffffd26  x7=0x00000100
       18845000	      1883	800047d0	00cf8d83	lb	x27,12(x31)	 x31:0x80008437 x27=0x0000006e PA:0x80008443
       18855000	      1884	800047d4	fdaf9fa3	sh	x26,-33(x31)	 x31:0x80008437 x26:0x80009a44 PA:0x80008416
       18865000	      1885	800047d8	00e9a533	slt	x10,x19,x14	 x19:0x00000000 x14:0x4006f1ba x10=0x00000001
       18875000	      1886	800047dc	fd5f93a3	sh	x21,-57(x31)	 x31:0x80008437 x21:0x00000050 PA:0x800083fe
       18885000	      1887	800047e0	9fcda513	slti	x10,x27,-1540	 x27:0x0000006e x10=0x00000000
       18895000	      1888	800047e4	004218b3	sll	x17,x4,x4	  x4:0x80002bd0  x4:0x80002bd0 x17=0x2bd00000
       18905000	      1889	800047e8	fc1f8e23	sb	x1,-36(x31)	 x31:0x80008437  x1:0x80000000 PA:0x80008413
       18915000	      1890	800047ec	4018d693	srai	x13,x17,0x1	 x17:0x2bd00000 x13=0x15e80000
       18925000	      1891	800047f0	fdafca03	lbu	x20,-38(x31)	 x31:0x80008437 x20=0x000000f3 PA:0x80008411
       18935000	      1892	800047f4	032f8e03	lb	x28,50(x31)	 x31:0x80008437 x28=0x00000027 PA:0x80008469
       18945000	      1893	800047f8	01ff7133	and	x2,x30,x31	 x30:0x80009f3c x31:0x80008437  x2=0x80008434
       18955000	      1894	800047fc	0060de33	srl	x28,x1,x6	  x1:0x80000000  x6:0x00002ce6 x28=0x02000000
       18965000	      1895	80004800	01607133	and	x2,x0,x22	  x0:0x00000000 x22:0x00000000  x2=0x00000000
       18975000	      1896	80004804	018fa4a3	sw	x24,9(x31)	 x31:0x80008437 x24:0x96201000 PA:0x80008440
       18985000	      1897	80004808	d62bcb13	xori	x22,x23,-670	 x23:0x0000f1ba x22=0xffff0cd8
       18995000	      1898	8000480c	037fc683	lbu	x13,55(x31)	 x31:0x80008437 x13=0x000000f7 PA:0x8000846e
       19005000	      1899	80004810	004898b3	sll	x17,x17,x4	 x17:0x2bd00000  x4:0x80002bd0 x17=0x00000000
       19015000	      1900	80004814	01497633	and	x12,x18,x20	 x18:0x00000010 x20:0x000000f3 x12=0x00000010
       19025000	      1901	80004818	c615a037	lui	x0,0xc615a	
       19035000	      1902	8000481c	009fcd03	lbu	x26,9(x31)	 x31:0x80008437 x26=0x00000000 PA:0x80008440
       19045000	      1903	80004820	fd9fcd83	lbu	x27,-39(x31)	 x31:0x80008437 x27=0x000000b8 PA:0x80008410
       19055000	      1904	80004824	40705f93	srai	x31,x0,0x7	  x0:0x00000000 x31=0x00000000
       19065000	      1905	80004828	dec391b7	lui	x3,0xdec39	  x3=0xdec39000
       19075000	      1906	8000482c	d1758893	addi	x17,x11,-745	 x11:0x00000000 x17=0xfffffd17
       19085000	      1907	80004830	bf981117	auipc	x2,0xbf981	  x2=0x3f98582c
       19095000	      1908	80004834	0064cb33	xor	x22,x9,x6	  x9:0x80009fc4  x6:0x00002ce6 x22=0x8000b322
       19105000	      1909	80004838	016e0c33	add	x24,x28,x22	 x28:0x02000000 x22:0x8000b322 x24=0x8200b322
       19115000	      1910	8000483c	018ee433	or	x8,x29,x24	 x29:0x00006aee x24:0x8200b322  x8=0x8200fbee
       19125000	      1911	80004840	8429b913	sltiu	x18,x19,-1982	 x19:0x00000000 x18=0x00000001
       19135000	      1912	80004844	404dda93	srai	x21,x27,0x4	 x27:0x000000b8 x21=0x0000000b
       19145000	      1913	80004848	a16d8a97	auipc	x21,0xa16d8	 x21=0x216dc844
       19155000	      1914	8000484c	00027b33	and	x22,x4,x0	  x4:0x80002bd0  x0:0x00000000 x22=0x00000000
       19165000	      1915	80004850	003fdc13	srli	x24,x31,0x3	 x31:0x00000000 x24=0x00000000
       19175000	      1916	80004854	4032dd93	srai	x27,x5,0x3	  x5:0x80009f70 x27=0xf00013ee
       19185000	      1917	80004858	40450b33	sub	x22,x10,x4	 x10:0x00000000  x4:0x80002bd0 x22=0x7fffd430
       19195000	      1918	8000485c	90e73797	auipc	x15,0x90e73	 x15=0x10e77858
       19205000	      1919	80004860	18dc3213	sltiu	x4,x24,397	 x24:0x00000000  x4=0x00000001
       19215000	      1920	80004864	0190a5b3	slt	x11,x1,x25	  x1:0x80000000 x25:0x80000000 x11=0x00000000
       19225000	      1921	80004868	285e4b13	xori	x22,x28,645	 x28:0x02000000 x22=0x02000285
       19235000	      1922	8000486c	00d14133	xor	x2,x2,x13	  x2:0x3f98582c x13:0x000000f7  x2=0x3f9858db
       19245000	      1923	80004870	002a1093	slli	x1,x20,0x2	 x20:0x000000f3  x1=0x000003cc
       19255000	      1924	80004874	2e304d93	xori	x27,x0,739	  x0:0x00000000 x27=0x000002e3
       19265000	      1925	80004878	7a988713	addi	x14,x17,1961	 x17:0xfffffd17 x14=0x000004c0
       19275000	      1926	8000487c	51c6a113	slti	x2,x13,1308	 x13:0x000000f7  x2=0x00000001
       19285000	      1927	80004880	05a3c063	blt	x7,x26,800048c0	  x7:0x00000100 x26:0x00000000
       19295000	      1928	80004884	eb2b4137	lui	x2,0xeb2b4	  x2=0xeb2b4000
       19305000	      1929	80004888	47b34197	auipc	x3,0x47b34	  x3=0xc7b38884
       19315000	      1930	8000488c	20523193	sltiu	x3,x4,517	  x4:0x00000001  x3=0x00000001
       19325000	      1931	80004890	01fdda63	bge	x27,x31,800048a4	 x27:0x000002e3 x31:0x00000000
       19335000	      1932	00000000	00000013	addi	x0,x0,0	  x0:0x00000000
       19345000	      1933	800048a0	00000013	addi	x0,x0,0	  x0:0x00000000
       19355000	      1934	800048a4	58f44193	xori	x3,x8,1423	  x8:0x8200fbee  x3=0x8200fe61
       19365000	      1935	800048a8	ed61b213	sltiu	x4,x3,-298	  x3:0x8200fe61  x4=0x00000001
       19375000	      1936	800048ac	004a93b3	sll	x7,x21,x4	 x21:0x216dc844  x4:0x00000001  x7=0x42db9088
       19385000	      1937	800048b0	05ea7063	bgeu	x20,x30,800048f0	 x20:0x000000f3 x30:0x80009f3c
       19395000	      1938	800048b4	016ad263	bge	x21,x22,800048b8	 x21:0x216dc844 x22:0x02000285
       19405000	      1939	00000000	00000013	addi	x0,x0,0	  x0:0x00000000
       19415000	      1940	800048b4	00000013	addi	x0,x0,0	  x0:0x00000000
       19425000	      1941	800048b8	01fd7133	and	x2,x26,x31	 x26:0x00000000 x31:0x00000000  x2=0x00000000
       19435000	      1942	800048bc	006b0ab3	add	x21,x22,x6	 x22:0x02000285  x6:0x00002ce6 x21=0x02002f6b
       19445000	      1943	800048c0	7dce8e13	addi	x28,x29,2012	 x29:0x00006aee x28=0x000072ca
       19455000	      1944	800048c4	01267933	and	x18,x12,x18	 x12:0x00000010 x18:0x00000001 x18=0x00000000
       19465000	      1945	800048c8	01412333	slt	x6,x2,x20	  x2:0x00000000 x20:0x000000f3  x6=0x00000001
       19475000	      1946	800048cc	17dd6e13	ori	x28,x26,381	 x26:0x00000000 x28=0x0000017d
       19485000	      1947	800048d0	041a8063	beq	x21,x1,80004910	 x21:0x02002f6b  x1:0x000003cc
       19495000	      1948	800048d4	02de5263	bge	x28,x13,800048f8	 x28:0x0000017d x13:0x000000f7
       19505000	      1949	00000000	00000013	addi	x0,x0,0	  x0:0x00000000
       19515000	      1950	800048f4	00000013	addi	x0,x0,0	  x0:0x00000000
       19525000	      1951	800048f8	d0c2fa93	andi	x21,x5,-756	  x5:0x80009f70 x21=0x80009d00
       19535000	      1952	800048fc	73664a93	xori	x21,x12,1846	 x12:0x00000010 x21=0x00000726
       19545000	      1953	80004900	90e58a13	addi	x20,x11,-1778	 x11:0x00000000 x20=0xfffff90e
       19555000	      1954	80004904	eec42a13	slti	x20,x8,-276	  x8:0x8200fbee x20=0x00000001
       19565000	      1955	80004908	26def617	auipc	x12,0x26def	 x12=0xa6df3904
       19575000	      1956	8000490c	9aa6a413	slti	x8,x13,-1622	 x13:0x000000f7  x8=0x00000000
       19585000	      1957	80004910	408b0333	sub	x6,x22,x8	 x22:0x02000285  x8:0x00000000  x6=0x02000285
       19595000	      1958	80004914	04c8d663	bge	x17,x12,80004960	 x17:0xfffffd17 x12:0xa6df3904
       19605000	      1959	00000000	00000013	addi	x0,x0,0	  x0:0x00000000
       19615000	      1960	8000495c	00000013	addi	x0,x0,0	  x0:0x00000000
       19625000	      1961	80004960	00957eb3	and	x29,x10,x9	 x10:0x00000000  x9:0x80009fc4 x29=0x00000000
       19635000	      1962	80004964	01603533	sltu	x10,x0,x22	  x0:0x00000000 x22:0x02000285 x10=0x00000001
       19645000	      1963	80004968	80208597	auipc	x11,0x80208	 x11=0x0020c964
       19655000	      1964	8000496c	e2ca53b7	lui	x7,0xe2ca5	  x7=0xe2ca5000
       19665000	      1965	80004970	010bee33	or	x28,x23,x16	 x23:0x0000f1ba x16:0x40060000 x28=0x4006f1ba
       19675000	      1966	80004974	00228f33	add	x30,x5,x2	  x5:0x80009f70  x2:0x00000000 x30=0x80009f70
       19685000	      1967	80004978	02279063	bne	x15,x2,80004998	 x15:0x10e77858  x2:0x00000000
       19695000	      1968	00000000	00000013	addi	x0,x0,0	  x0:0x00000000
       19705000	      1969	80004994	00000013	addi	x0,x0,0	  x0:0x00000000
       19715000	      1970	80004998	4116d713	srai	x14,x13,0x11	 x13:0x000000f7 x14=0x00000000
       19725000	      1971	8000499c	00000013	addi	x0,x0,0	  x0:0x00000000
       19735000	      1972	800049a0	003ecc63	blt	x29,x3,800049b8	 x29:0x00000000  x3:0x8200fe61
       19745000	      1973	800049a4	01909133	sll	x2,x1,x25	  x1:0x000003cc x25:0x80000000  x2=0x000003cc
       19755000	      1974	800049a8	0001c333	xor	x6,x3,x0	  x3:0x8200fe61  x0:0x00000000  x6=0x8200fe61
       19765000	      1975	800049ac	5a497f93	andi	x31,x18,1444	 x18:0x00000000 x31=0x00000000
       19775000	      1976	800049b0	01deff33	and	x30,x29,x29	 x29:0x00000000 x29:0x00000000 x30=0x00000000
       19785000	      1977	800049b4	2fc03e13	sltiu	x28,x0,764	  x0:0x00000000 x28=0x00000001
       19795000	      1978	800049b8	41f98633	sub	x12,x19,x31	 x19:0x00000000 x31:0x00000000 x12=0x00000000
       19805000	      1979	800049bc	0209f663	bgeu	x19,x0,800049e8	 x19:0x00000000  x0:0x00000000
       19815000	      1980	00000000	00000013	addi	x0,x0,0	  x0:0x00000000
       19825000	      1981	800049e4	00000013	addi	x0,x0,0	  x0:0x00000000
       19835000	      1982	800049e8	406b50b3	sra	x1,x22,x6	 x22:0x02000285  x6:0x8200fe61  x1=0x01000142
       19845000	      1983	800049ec	01de3e33	sltu	x28,x28,x29	 x28:0x00000001 x29:0x00000000 x28=0x00000000
       19855000	      1984	800049f0	7835fe97	auipc	x29,0x7835f	 x29=0xf83639ec
       19865000	      1985	800049f4	88afbf13	sltiu	x30,x31,-1910	 x31:0x00000000 x30=0x00000001
       19875000	      1986	800049f8	0075c133	xor	x2,x11,x7	 x11:0x0020c964  x7:0xe2ca5000  x2=0xe2ea9964
       19885000	      1987	800049fc	01898bb3	add	x23,x19,x24	 x19:0x00000000 x24:0x00000000 x23=0x00000000
       19895000	      1988	80004a00	00000013	addi	x0,x0,0	  x0:0x00000000
       19905000	      1989	80004a04	01aa2433	slt	x8,x20,x26	 x20:0x00000001 x26:0x00000000  x8=0x00000000
       19915000	      1990	80004a08	03108263	beq	x1,x17,80004a2c	  x1:0x01000142 x17:0xfffffd17
       19925000	      1991	80004a0c	1543f893	andi	x17,x7,340	  x7:0xe2ca5000 x17=0x00000000
       19935000	      1992	80004a10	6244b213	sltiu	x4,x9,1572	  x9:0x80009fc4  x4=0x00000000
       19945000	      1993	80004a14	01ab4a33	xor	x20,x22,x26	 x22:0x02000285 x26:0x00000000 x20=0x02000285
       19955000	      1994	80004a18	004c5a63	bge	x24,x4,80004a2c	 x24:0x00000000  x4:0x00000000
       19965000	      1995	00000000	00000013	addi	x0,x0,0	  x0:0x00000000
       19975000	      1996	80004a28	00000013	addi	x0,x0,0	  x0:0x00000000
       19985000	      1997	80004a2c	00fe5a93	srli	x21,x28,0xf	 x28:0x00000000 x21=0x00000000
       19995000	      1998	80004a30	00530e33	add	x28,x6,x5	  x6:0x8200fe61  x5:0x80009f70 x28=0x02019dd1
       20005000	      1999	80004a34	0042a303	lw	x6,4(x5)	  x5:0x80009f70  x6=0x80000140 PA:0x80009f74
       20015000	      2000	80004a38	01c39c33	sll	x24,x7,x28	  x7:0xe2ca5000 x28:0x02019dd1 x24=0xa0000000
       20025000	      2001	80004a3c	01428293	addi	x5,x5,20	  x5:0x80009f70  x5=0x80009f84
       20035000	      2002	80004a40	f12b6993	ori	x19,x22,-238	 x22:0x02000285 x19=0xffffff97
       20045000	      2003	80004a44	7cdfbc13	sltiu	x24,x31,1997	 x31:0x00000000 x24=0x00000001
       20055000	      2004	80004a48	00130f13	addi	x30,x6,1	  x6:0x80000140 x30=0x80000141
       20065000	      2005	80004a4c	000f0f67	jalr	x30,x30,0	 x30:0x80000141 x30=0x80004a4c
       20075000	      2006	00000000	00000013	addi	x0,x0,0	  x0:0x00000000
       20085000	      2007	80000140	00000013	addi	x0,x0,0	  x0:0x00000000
       20095000	      2008	80000144	00003317	auipc	x6,0x3	  x6=0x80003140
       20105000	      2009	80000148	a9030313	addi	x6,x6,-1392	  x6:0x80003140  x6=0x80002bd0
       20115000	      2010	8000014c	c279d9b7	lui	x19,0xc279d	 x19=0xc279d000
       20125000	      2011	80000150	b8d68413	addi	x8,x13,-1139	 x13:0x000000f7  x8=0xfffffc84
       20135000	      2012	80000154	c8530313	addi	x6,x6,-891	  x6:0x80002bd0  x6=0x80002855
       20145000	      2013	80000158	01479833	sll	x16,x15,x20	 x15:0x10e77858 x20:0x02000285 x16=0x1cef0b00
       20155000	      2014	8000015c	00a09533	sll	x10,x1,x10	  x1:0x01000142 x10:0x00000001 x10=0x02000284
       20165000	      2015	80000160	017d9793	slli	x15,x27,0x17	 x27:0x000002e3 x15=0x71800000
       20175000	      2016	80000164	015d98b3	sll	x17,x27,x21	 x27:0x000002e3 x21:0x00000000 x17=0x000002e3
       20185000	      2017	80000168	37b30367	jalr	x6,x6,891	  x6:0x80002855  x6=0x80000168
       20195000	      2018	00000000	00000013	addi	x0,x0,0	  x0:0x00000000
       20205000	      2019	80002bd0	00000013	addi	x0,x0,0	  x0:0x00000000
       20215000	      2020	80002bd4	002dac33	slt	x24,x27,x2	 x27:0x000002e3  x2:0xe2ea9964 x24=0x00000000
       20225000	      2021	80002bd8	dfcbcb93	xori	x23,x23,-516	 x23:0x00000000 x23=0xfffffdfc
       20235000	      2022	80002bdc	fe828293	addi	x5,x5,-24	  x5:0x80009f84  x5=0x80009f6c
       20245000	      2023	80002be0	00ef1913	slli	x18,x30,0xe	 x30:0x80004a4c x18=0x12930000
       20255000	      2024	80002be4	01bb78b3	and	x17,x22,x27	 x22:0x02000285 x27:0x000002e3 x17=0x00000281
       20265000	      2025	80002be8	00eb0f33	add	x30,x22,x14	 x22:0x02000285 x14:0x00000000 x30=0x02000285
       20275000	      2026	80002bec	00b667b3	or	x15,x12,x11	 x12:0x00000000 x11:0x0020c964 x15=0x0020c964
       20285000	      2027	80002bf0	2e6ff393	andi	x7,x31,742	 x31:0x00000000  x7=0x00000000
       20295000	      2028	80002bf4	41755393	srai	x7,x10,0x17	 x10:0x02000284  x7=0x00000004
       20305000	      2029	80002bf8	0062a223	sw	x6,4(x5)	  x5:0x80009f6c  x6:0x80000168 PA:0x80009f70
       20315000	      2030	80002bfc	005db733	sltu	x14,x27,x5	 x27:0x000002e3  x5:0x80009f6c x14=0x00000001
       20325000	      2031	80002c00	41cdd013	srai	x0,x27,0x1c	 x27:0x000002e3
       20335000	      2032	80002c04	00006117	auipc	x2,0x6	  x2=0x80008c00
       20345000	      2033	80002c08	bce10113	addi	x2,x2,-1074	  x2:0x80008c00  x2=0x800087ce
       20355000	      2034	80002c0c	fd211f83	lh	x31,-46(x2)	  x2:0x800087ce x31=0x00006ef7 PA:0x800087a0
       20365000	      2035	80002c10	018f1633	sll	x12,x30,x24	 x30:0x02000285 x24:0x00000000 x12=0x02000285
       20375000	      2036	80002c14	ff010d03	lb	x26,-16(x2)	  x2:0x800087ce x26=0xffffffba PA:0x800087be
       20385000	      2037	80002c18	00f2abb3	slt	x23,x5,x15	  x5:0x80009f6c x15:0x0020c964 x23=0x00000001
       20395000	      2038	80002c1c	fef14083	lbu	x1,-17(x2)	  x2:0x800087ce  x1=0x00000031 PA:0x800087bd
       20405000	      2039	80002c20	00999093	slli	x1,x19,0x9	 x19:0xc279d000  x1=0xf3a00000
       20415000	      2040	80002c24	fee10b03	lb	x22,-18(x2)	  x2:0x800087ce x22=0x00000041 PA:0x800087bc
       20425000	      2041	80002c28	fd815783	lhu	x15,-40(x2)	  x2:0x800087ce x15=0x00005a2b PA:0x800087a6
       20435000	      2042	80002c2c	01e17633	and	x12,x2,x30	  x2:0x800087ce x30:0x02000285 x12=0x00000284
       20445000	      2043	80002c30	02610a03	lb	x20,38(x2)	  x2:0x800087ce x20=0xffffffb0 PA:0x800087f4
       20455000	      2044	80002c34	fcc11d03	lh	x26,-52(x2)	  x2:0x800087ce x26=0xffff9e8c PA:0x8000879a
       20465000	      2045	80002c38	ee1aed13	ori	x26,x21,-287	 x21:0x00000000 x26=0xfffffee1
       20475000	      2046	80002c3c	015c5b93	srli	x23,x24,0x15	 x24:0x00000000 x23=0x00000000
       20485000	      2047	80002c40	00e11003	lh	x0,14(x2)	  x2:0x800087ce PA:0x800087dc
       20495000	      2048	80002c44	00514503	lbu	x10,5(x2)	  x2:0x800087ce x10=0x00000023 PA:0x800087d3
       20505000	      2049	80002c48	03b10d03	lb	x26,59(x2)	  x2:0x800087ce x26=0xffffffef PA:0x80008809
       20515000	      2050	80002c4c	ff211183	lh	x3,-14(x2)	  x2:0x800087ce  x3=0xffff9422 PA:0x800087c0
       20525000	      2051	80002c50	006a5e13	srli	x28,x20,0x6	 x20:0xffffffb0 x28=0x03fffffe
       20535000	      2052	80002c54	02212f23	sw	x2,62(x2)	  x2:0x800087ce  x2:0x800087ce PA:0x8000880c
       20545000	      2053	80002c58	01dd9d13	slli	x26,x27,0x1d	 x27:0x000002e3 x26=0x60000000
       20555000	      2054	80002c5c	fe010b83	lb	x23,-32(x2)	  x2:0x800087ce x23=0xffffffe1 PA:0x800087ae
       20565000	      2055	80002c60	02114083	lbu	x1,33(x2)	  x2:0x800087ce  x1=0x00000063 PA:0x800087ef
       20575000	      2056	80002c64	fd910303	lb	x6,-39(x2)	  x2:0x800087ce  x6=0x0000005a PA:0x800087a7
       20585000	      2057	80002c68	00cfb6b3	sltu	x13,x31,x12	 x31:0x00006ef7 x12:0x00000284 x13=0x00000000
       20595000	      2058	80002c6c	25074613	xori	x12,x14,592	 x14:0x00000001 x12=0x00000251
       20605000	      2059	80002c70	03610903	lb	x18,54(x2)	  x2:0x800087ce x18=0x00000056 PA:0x80008804
       20615000	      2060	80002c74	00000013	addi	x0,x0,0	  x0:0x00000000
       20625000	      2061	80002c78	02b14e83	lbu	x29,43(x2)	  x2:0x800087ce x29=0x000000bd PA:0x800087f9
       20635000	      2062	80002c7c	00000013	addi	x0,x0,0	  x0:0x00000000
       20645000	      2063	80002c80	00000013	addi	x0,x0,0	  x0:0x00000000
       20655000	      2064	80002c84	fc511323	sh	x5,-58(x2)	  x2:0x800087ce  x5:0x80009f6c PA:0x80008794
       20665000	      2065	80002c88	ff510e83	lb	x29,-11(x2)	  x2:0x800087ce x29=0xffffffe6 PA:0x800087c3
       20675000	      2066	80002c8c	009f9c33	sll	x24,x31,x9	 x31:0x00006ef7  x9:0x80009fc4 x24=0x0006ef70
       20685000	      2067	80002c90	01814c33	xor	x24,x2,x24	  x2:0x800087ce x24:0x0006ef70 x24=0x800668be
       20695000	      2068	80002c94	002c9f33	sll	x30,x25,x2	 x25:0x80000000  x2:0x800087ce x30=0x00000000
       20705000	      2069	80002c98	015d96b3	sll	x13,x27,x21	 x27:0x000002e3 x21:0x00000000 x13=0x000002e3
       20715000	      2070	80002c9c	01e1db13	srli	x22,x3,0x1e	  x3:0xffff9422 x22=0x00000003
       20725000	      2071	80002ca0	fc110803	lb	x16,-63(x2)	  x2:0x800087ce x16=0x00000060 PA:0x8000878f
       20735000	      2072	80002ca4	03a103a3	sb	x26,39(x2)	  x2:0x800087ce x26:0x60000000 PA:0x800087f5
       20745000	      2073	80002ca8	00241813	slli	x16,x8,0x2	  x8:0xfffffc84 x16=0xfffff210
       20755000	      2074	80002cac	0127c6b3	xor	x13,x15,x18	 x15:0x00005a2b x18:0x00000056 x13=0x00005a7d
       20765000	      2075	80002cb0	01fcdd13	srli	x26,x25,0x1f	 x25:0x80000000 x26=0x00000001
       20775000	      2076	80002cb4	fdc14583	lbu	x11,-36(x2)	  x2:0x800087ce x11=0x000000a2 PA:0x800087aa
       20785000	      2077	80002cb8	fef14003	lbu	x0,-17(x2)	  x2:0x800087ce PA:0x800087bd
       20795000	      2078	80002cbc	ff015f83	lhu	x31,-16(x2)	  x2:0x800087ce x31=0x000024ba PA:0x800087be
       20805000	      2079	80002cc0	00006117	auipc	x2,0x6	  x2=0x80008cbc
       20815000	      2080	80002cc4	a9210113	addi	x2,x2,-1390	  x2:0x80008cbc  x2=0x8000874e
       20825000	      2081	80002cc8	001de833	or	x16,x27,x1	 x27:0x000002e3  x1:0x00000063 x16=0x000002e3
       20835000	      2082	80002ccc	01ca35b3	sltu	x11,x20,x28	 x20:0xffffffb0 x28:0x03fffffe x11=0x00000000
       20845000	      2083	80002cd0	01511123	sh	x21,2(x2)	  x2:0x8000874e x21:0x00000000 PA:0x80008750
       20855000	      2084	80002cd4	ff111c23	sh	x17,-8(x2)	  x2:0x8000874e x17:0x00000281 PA:0x80008746
       20865000	      2085	80002cd8	008105a3	sb	x8,11(x2)	  x2:0x8000874e  x8:0xfffffc84 PA:0x80008759
       20875000	      2086	80002cdc	01657f17	auipc	x30,0x1657	 x30=0x81659cd8
       20885000	      2087	80002ce0	ff910083	lb	x1,-7(x2)	  x2:0x8000874e  x1=0x00000002 PA:0x80008747
       20895000	      2088	80002ce4	01f103a3	sb	x31,7(x2)	  x2:0x8000874e x31:0x000024ba PA:0x80008755
       20905000	      2089	80002ce8	d195a593	slti	x11,x11,-743	 x11:0x00000000 x11=0x00000000
       20915000	      2090	80002cec	14e6e093	ori	x1,x13,334	 x13:0x00005a7d  x1=0x00005b7f
       20925000	      2091	80002cf0	00e104a3	sb	x14,9(x2)	  x2:0x8000874e x14:0x00000001 PA:0x80008757
       20935000	      2092	80002cf4	ff910783	lb	x15,-7(x2)	  x2:0x8000874e x15=0x00000002 PA:0x80008747
       20945000	      2093	80002cf8	ff210ea3	sb	x18,-3(x2)	  x2:0x8000874e x18:0x00000056 PA:0x8000874b
       20955000	      2094	80002cfc	ff414603	lbu	x12,-12(x2)	  x2:0x8000874e x12=0x0000003b PA:0x80008742
       20965000	      2095	80002d00	01328d33	add	x26,x5,x19	  x5:0x80009f6c x19:0xc279d000 x26=0x427a6f6c
       20975000	      2096	80002d04	00f14603	lbu	x12,15(x2)	  x2:0x8000874e x12=0x0000008e PA:0x8000875d
       20985000	      2097	80002d08	e595fc13	andi	x24,x11,-423	 x11:0x00000000 x24=0x00000000
       20995000	      2098	80002d0c	7ab1ab13	slti	x22,x3,1963	  x3:0xffff9422 x22=0x00000001
       21005000	      2099	80002d10	00910003	lb	x0,9(x2)	  x2:0x8000874e PA:0x80008757
       21015000	      2100	80002d14	00012523	sw	x0,10(x2)	  x2:0x8000874e  x0:0x00000000 PA:0x80008758
       21025000	      2101	80002d18	01b68db3	add	x27,x13,x27	 x13:0x00005a7d x27:0x000002e3 x27=0x00005d60
       21035000	      2102	80002d1c	00766733	or	x14,x12,x7	 x12:0x0000008e  x7:0x00000004 x14=0x0000008e
       21045000	      2103	80002d20	001106a3	sb	x1,13(x2)	  x2:0x8000874e  x1:0x00005b7f PA:0x8000875b
       21055000	      2104	80002d24	401a8a33	sub	x20,x21,x1	 x21:0x00000000  x1:0x00005b7f x20=0xffffa481
       21065000	      2105	80002d28	41a3d5b3	sra	x11,x7,x26	  x7:0x00000004 x26:0x427a6f6c x11=0x00000000
       21075000	      2106	80002d2c	419d5693	srai	x13,x26,0x19	 x26:0x427a6f6c x13=0x00000021
       21085000	      2107	80002d30	00911123	sh	x9,2(x2)	  x2:0x8000874e  x9:0x80009fc4 PA:0x80008750
       21095000	      2108	80002d34	2eef6793	ori	x15,x30,750	 x30:0x81659cd8 x15=0x81659efe
       21105000	      2109	80002d38	efdbe193	ori	x3,x23,-259	 x23:0xffffffe1  x3=0xfffffffd
       21115000	      2110	80002d3c	01284e33	xor	x28,x16,x18	 x16:0x000002e3 x18:0x00000056 x28=0x000002b5
       21125000	      2111	80002d40	fe511c23	sh	x5,-8(x2)	  x2:0x8000874e  x5:0x80009f6c PA:0x80008746
       21135000	      2112	80002d44	00005c17	auipc	x24,0x5	 x24=0x80007d40
       21145000	      2113	80002d48	7b4c0c13	addi	x24,x24,1972	 x24:0x80007d40 x24=0x800084f4
       21155000	      2114	80002d4c	41c2d6b3	sra	x13,x5,x28	  x5:0x80009f6c x28:0x000002b5 x13=0xfffffc00
       21165000	      2115	80002d50	01268833	add	x16,x13,x18	 x13:0xfffffc00 x18:0x00000056 x16=0xfffffc56
       21175000	      2116	80002d54	00ac0b83	lb	x23,10(x24)	 x24:0x800084f4 x23=0xffffffe0 PA:0x800084fe
       21185000	      2117	80002d58	ff2c0b83	lb	x23,-14(x24)	 x24:0x800084f4 x23=0x00000036 PA:0x800084e6
       21195000	      2118	80002d5c	000c2983	lw	x19,0(x24)	 x24:0x800084f4 x19=0x07b28122 PA:0x800084f4
       21205000	      2119	00000000	00000013	addi	x0,x0,0	  x0:0x00000000
       21215000	      2120	80002d60	01799f33	sll	x30,x19,x23	 x19:0x07b28122 x23:0x00000036 x30=0x48800000
       21225000	      2121	80002d64	ff5c4103	lbu	x2,-11(x24)	 x24:0x800084f4  x2=0x00000007 PA:0x800084e9
       21235000	      2122	80002d68	01201113	slli	x2,x0,0x12	  x0:0x00000000  x2=0x00000000
       21245000	      2123	80002d6c	01f4b033	sltu	x0,x9,x31	  x9:0x80009fc4 x31:0x000024ba
       21255000	      2124	80002d70	f5c84f13	xori	x30,x16,-164	 x16:0xfffffc56 x30=0x0000030a
       21265000	      2125	80002d74	01aa5533	srl	x10,x20,x26	 x20:0xffffa481 x26:0x427a6f6c x10=0x000ffffa
       21275000	      2126	80002d78	14e5bb93	sltiu	x23,x11,334	 x11:0x00000000 x23=0x00000001
       21285000	      2127	80002d7c	41f15db3	sra	x27,x2,x31	  x2:0x00000000 x31:0x000024ba x27=0x00000000
       21295000	      2128	80002d80	f454f513	andi	x10,x9,-187	  x9:0x80009fc4 x10=0x80009f44
       21305000	      2129	80002d84	0139db13	srli	x22,x19,0x13	 x19:0x07b28122 x22=0x000000f6
       21315000	      2130	80002d88	00ac0323	sb	x10,6(x24)	 x24:0x800084f4 x10:0x80009f44 PA:0x800084fa
       21325000	      2131	80002d8c	00125433	srl	x8,x4,x1	  x4:0x00000000  x1:0x00005b7f  x8=0x00000000
       21335000	      2132	80002d90	fe3c0a23	sb	x3,-12(x24)	 x24:0x800084f4  x3:0xfffffffd PA:0x800084e8
       21345000	      2133	80002d94	221e0713	addi	x14,x28,545	 x28:0x000002b5 x14=0x000004d6
       21355000	      2134	80002d98	00cc5683	lhu	x13,12(x24)	 x24:0x800084f4 x13=0x0000445b PA:0x80008500
       21365000	      2135	80002d9c	0123cb33	xor	x22,x7,x18	  x7:0x00000004 x18:0x00000056 x22=0x00000052
       21375000	      2136	80002da0	014f1333	sll	x6,x30,x20	 x30:0x0000030a x20:0xffffa481  x6=0x00000614
       21385000	      2137	80002da4	19a5e117	auipc	x2,0x19a5e	  x2=0x99a60da0
       21395000	      2138	80002da8	00fa1d13	slli	x26,x20,0xf	 x20:0xffffa481 x26=0xd2408000
       21405000	      2139	80002dac	ff6c1a83	lh	x21,-10(x24)	 x24:0x800084f4 x21=0xffffc391 PA:0x800084ea
       21415000	      2140	80002db0	005fff33	and	x30,x31,x5	 x31:0x000024ba  x5:0x80009f6c x30=0x00000428
       21425000	      2141	80002db4	007f5e13	srli	x28,x30,0x7	 x30:0x00000428 x28=0x00000008
       21435000	      2142	80002db8	018cc533	xor	x10,x25,x24	 x25:0x80000000 x24:0x800084f4 x10=0x000084f4
       21445000	      2143	80002dbc	ff3c0d23	sb	x19,-6(x24)	 x24:0x800084f4 x19:0x07b28122 PA:0x800084ee
       21455000	      2144	80002dc0	418fd793	srai	x15,x31,0x18	 x31:0x000024ba x15=0x00000000
       21465000	      2145	80002dc4	004c07a3	sb	x4,15(x24)	 x24:0x800084f4  x4:0x00000000 PA:0x80008503
       21475000	      2146	80002dc8	00006097	auipc	x1,0x6	  x1=0x80008dc4
       21485000	      2147	80002dcc	e9a08093	addi	x1,x1,-358	  x1:0x80008dc4  x1=0x80008c5e
       21495000	      2148	80002dd0	01e0a183	lw	x3,30(x1)	  x1:0x80008c5e  x3=0x1b6293ca PA:0x80008c7c
       21505000	      2149	80002dd4	34b21417	auipc	x8,0x34b21	  x8=0xb4b23dd0
       21515000	      2150	80002dd8	01c02233	slt	x4,x0,x28	  x0:0x00000000 x28:0x00000008  x4=0x00000001
       21525000	      2151	80002ddc	01d7d593	srli	x11,x15,0x1d	 x15:0x00000000 x11=0x00000000
       21535000	      2152	80002de0	fd9089a3	sb	x25,-45(x1)	  x1:0x80008c5e x25:0x80000000 PA:0x80008c31
       21545000	      2153	80002de4	0280de03	lhu	x28,40(x1)	  x1:0x80008c5e x28=0x00003583 PA:0x80008c86
       21555000	      2154	80002de8	fd30c803	lbu	x16,-45(x1)	  x1:0x80008c5e x16=0x00000000 PA:0x80008c31
       21565000	      2155	80002dec	1cb34713	xori	x14,x6,459	  x6:0x00000614 x14=0x000007df
       21575000	      2156	80002df0	fdd0c203	lbu	x4,-35(x1)	  x1:0x80008c5e  x4=0x0000003e PA:0x80008c3b
       21585000	      2157	80002df4	00808e23	sb	x8,28(x1)	  x1:0x80008c5e  x8:0xb4b23dd0 PA:0x80008c7a
       21595000	      2158	80002df8	01208f03	lb	x30,18(x1)	  x1:0x80008c5e x30=0xffffff8d PA:0x80008c70
       21605000	      2159	80002dfc	fe708703	lb	x14,-25(x1)	  x1:0x80008c5e x14=0x0000005e PA:0x80008c45
       21615000	      2160	80002e00	fe108b83	lb	x23,-31(x1)	  x1:0x80008c5e x23=0x00000034 PA:0x80008c3f
       21625000	      2161	80002e04	03f0c203	lbu	x4,63(x1)	  x1:0x80008c5e  x4=0x00000022 PA:0x80008c9d
       21635000	      2162	80002e08	020080a3	sb	x0,33(x1)	  x1:0x80008c5e  x0:0x00000000 PA:0x80008c7f
       21645000	      2163	80002e0c	411b5833	sra	x16,x22,x17	 x22:0x00000052 x17:0x00000281 x16=0x00000029
       21655000	      2164	80002e10	00e56bb3	or	x23,x10,x14	 x10:0x000084f4 x14:0x0000005e x23=0x000084fe
       21665000	      2165	80002e14	40255433	sra	x8,x10,x2	 x10:0x000084f4  x2:0x99a60da0  x8=0x000084f4
       21675000	      2166	80002e18	04009023	sh	x0,64(x1)	  x1:0x80008c5e  x0:0x00000000 PA:0x80008c9e
       21685000	      2167	80002e1c	011091b3	sll	x3,x1,x17	  x1:0x80008c5e x17:0x00000281  x3=0x000118bc
       21695000	      2168	80002e20	40db5713	srai	x14,x22,0xd	 x22:0x00000052 x14=0x00000000
       21705000	      2169	80002e24	fd609123	sh	x22,-62(x1)	  x1:0x80008c5e x22:0x00000052 PA:0x80008c20
       21715000	      2170	80002e28	ffc09703	lh	x14,-4(x1)	  x1:0x80008c5e x14=0xffffe1f1 PA:0x80008c5a
       21725000	      2171	80002e2c	b4be6693	ori	x13,x28,-1205	 x28:0x00003583 x13=0xffffffcb
       21735000	      2172	80002e30	fea0ae03	lw	x28,-22(x1)	  x1:0x80008c5e x28=0xeb86ff98 PA:0x80008c48
       21745000	      2173	80002e34	fd50c683	lbu	x13,-43(x1)	  x1:0x80008c5e x13=0x000000e7 PA:0x80008c33
       21755000	      2174	80002e38	03208603	lb	x12,50(x1)	  x1:0x80008c5e x12=0x0000002e PA:0x80008c90
       21765000	      2175	80002e3c	2b31ce13	xori	x28,x3,691	  x3:0x000118bc x28=0x00011a0f
       21775000	      2176	80002e40	0330c383	lbu	x7,51(x1)	  x1:0x80008c5e  x7=0x000000aa PA:0x80008c91
       21785000	      2177	80002e44	fc108aa3	sb	x1,-43(x1)	  x1:0x80008c5e  x1:0x80008c5e PA:0x80008c33
       21795000	      2178	80002e48	00c766b3	or	x13,x14,x12	 x14:0xffffe1f1 x12:0x0000002e x13=0xffffe1ff
       21805000	      2179	80002e4c	00aa0fb3	add	x31,x20,x10	 x20:0xffffa481 x10:0x000084f4 x31=0x00002975
       21815000	      2180	80002e50	777a2893	slti	x17,x20,1911	 x20:0xffffa481 x17=0x00000001
       21825000	      2181	80002e54	03a08883	lb	x17,58(x1)	  x1:0x80008c5e x17=0x0000006d PA:0x80008c98
       21835000	      2182	80002e58	02309a23	sh	x3,52(x1)	  x1:0x80008c5e  x3:0x000118bc PA:0x80008c92
       21845000	      2183	80002e5c	00b08983	lb	x19,11(x1)	  x1:0x80008c5e x19=0xffffffb9 PA:0x80008c69
       21855000	      2184	80002e60	002ce233	or	x4,x25,x2	 x25:0x80000000  x2:0x99a60da0  x4=0x99a60da0
       21865000	      2185	80002e64	40ed8d33	sub	x26,x27,x14	 x27:0x00000000 x14:0xffffe1f1 x26=0x00001e0f
       21875000	      2186	80002e68	fee0d703	lhu	x14,-18(x1)	  x1:0x80008c5e x14=0x000072f9 PA:0x80008c4c
       21885000	      2187	80002e6c	02b98a63	beq	x19,x11,80002ea0	 x19:0xffffffb9 x11:0x00000000
       21895000	      2188	80002e70	016c5813	srli	x16,x24,0x16	 x24:0x800084f4 x16=0x00000200
       21905000	      2189	80002e74	41f2d993	srai	x19,x5,0x1f	  x5:0x80009f6c x19=0xffffffff
       21915000	      2190	80002e78	017a8e63	beq	x21,x23,80002e94	 x21:0xffffc391 x23:0x000084fe
       21925000	      2191	80002e7c	fdf3e413	ori	x8,x7,-33	  x7:0x000000aa  x8=0xffffffff
       21935000	      2192	80002e80	01deb633	sltu	x12,x29,x29	 x29:0xffffffe6 x29:0xffffffe6 x12=0x00000000
       21945000	      2193	80002e84	00fd45b3	xor	x11,x26,x15	 x26:0x00001e0f x15:0x00000000 x11=0x00001e0f
       21955000	      2194	80002e88	04079263	bne	x15,x0,80002ecc	 x15:0x00000000  x0:0x00000000
       21965000	      2195	80002e8c	407c5413	srai	x8,x24,0x7	 x24:0x800084f4  x8=0xff000109
       21975000	      2196	80002e90	03735063	bge	x6,x23,80002eb0	  x6:0x00000614 x23:0x000084fe
       21985000	      2197	80002e94	b5d7c193	xori	x3,x15,-1187	 x15:0x00000000  x3=0xfffffb5d
       21995000	      2198	80002e98	01848833	add	x16,x9,x24	  x9:0x80009fc4 x24:0x800084f4 x16=0x000124b8
       22005000	      2199	80002e9c	f38d2893	slti	x17,x26,-200	 x26:0x00001e0f x17=0x00000000
       22015000	      2200	80002ea0	41bc0233	sub	x4,x24,x27	 x24:0x800084f4 x27:0x00000000  x4=0x800084f4
       22025000	      2201	80002ea4	00d4b9b3	sltu	x19,x9,x13	  x9:0x80009fc4 x13:0xffffe1ff x19=0x00000001
       22035000	      2202	80002ea8	1d148117	auipc	x2,0x1d148	  x2=0x9d14aea4
       22045000	      2203	80002eac	000f7833	and	x16,x30,x0	 x30:0xffffff8d  x0:0x00000000 x16=0x00000000
       22055000	      2204	80002eb0	00aa9713	slli	x14,x21,0xa	 x21:0xffffc391 x14=0xff0e4400
       22065000	      2205	80002eb4	ee968393	addi	x7,x13,-279	 x13:0xffffe1ff  x7=0xffffe0e8
       22075000	      2206	80002eb8	00a77533	and	x10,x14,x10	 x14:0xff0e4400 x10:0x000084f4 x10=0x00000400
       22085000	      2207	80002ebc	d2b6ba37	lui	x20,0xd2b6b	 x20=0xd2b6b000
       22095000	      2208	80002ec0	659a0337	lui	x6,0x659a0	  x6=0x659a0000
       22105000	      2209	80002ec4	02ed5463	bge	x26,x14,80002eec	 x26:0x00001e0f x14:0xff0e4400
       22115000	      2210	00000000	00000013	addi	x0,x0,0	  x0:0x00000000
       22125000	      2211	80002ee8	00000013	addi	x0,x0,0	  x0:0x00000000
       22135000	      2212	80002eec	00856263	bltu	x10,x8,80002ef0	 x10:0x00000400  x8:0xff000109
       22145000	      2213	00000000	00000013	addi	x0,x0,0	  x0:0x00000000
       22155000	      2214	80002eec	00000013	addi	x0,x0,0	  x0:0x00000000
       22165000	      2215	80002ef0	00259863	bne	x11,x2,80002f00	 x11:0x00001e0f  x2:0x9d14aea4
       22175000	      2216	00000000	00000013	addi	x0,x0,0	  x0:0x00000000
       22185000	      2217	80002efc	00000013	addi	x0,x0,0	  x0:0x00000000
       22195000	      2218	80002f00	00377533	and	x10,x14,x3	 x14:0xff0e4400  x3:0xfffffb5d x10=0xff0e4000
       22205000	      2219	80002f04	408a5113	srai	x2,x20,0x8	 x20:0xd2b6b000  x2=0xffd2b6b0
       22215000	      2220	80002f08	01acd933	srl	x18,x25,x26	 x25:0x80000000 x26:0x00001e0f x18=0x00010000
       22225000	      2221	80002f0c	00177263	bgeu	x14,x1,80002f10	 x14:0xff0e4400  x1:0x80008c5e
       22235000	      2222	00000000	00000013	addi	x0,x0,0	  x0:0x00000000
       22245000	      2223	80002f0c	00000013	addi	x0,x0,0	  x0:0x00000000
       22255000	      2224	80002f10	02ed7463	bgeu	x26,x14,80002f38	 x26:0x00001e0f x14:0xff0e4400
       22265000	      2225	80002f14	e5510593	addi	x11,x2,-427	  x2:0xffd2b6b0 x11=0xffd2b505
       22275000	      2226	80002f18	013a0ab3	add	x21,x20,x19	 x20:0xd2b6b000 x19:0x00000001 x21=0xd2b6b001
       22285000	      2227	80002f1c	99cb0e93	addi	x29,x22,-1636	 x22:0x00000052 x29=0xfffff9ee
       22295000	      2228	80002f20	9d0fea13	ori	x20,x31,-1584	 x31:0x00002975 x20=0xfffff9f5
       22305000	      2229	80002f24	0017ff33	and	x30,x15,x1	 x15:0x00000000  x1:0x80008c5e x30=0x00000000
       22315000	      2230	80002f28	03854263	blt	x10,x24,80002f4c	 x10:0xff0e4000 x24:0x800084f4
       22325000	      2231	80002f2c	01ee0333	add	x6,x28,x30	 x28:0x00011a0f x30:0x00000000  x6=0x00011a0f
       22335000	      2232	80002f30	dccbb8b7	lui	x17,0xdccbb	 x17=0xdccbb000
       22345000	      2233	80002f34	c6652937	lui	x18,0xc6652	 x18=0xc6652000
       22355000	      2234	80002f38	6df27993	andi	x19,x4,1759	  x4:0x800084f4 x19=0x000004d4
       22365000	      2235	80002f3c	007db933	sltu	x18,x27,x7	 x27:0x00000000  x7:0xffffe0e8 x18=0x00000001
       22375000	      2236	80002f40	00bb3933	sltu	x18,x22,x11	 x22:0x00000052 x11:0xffd2b505 x18=0x00000001
       22385000	      2237	80002f44	40495793	srai	x15,x18,0x4	 x18:0x00000001 x15=0x00000000
       22395000	      2238	80002f48	01db9663	bne	x23,x29,80002f54	 x23:0x000084fe x29:0xfffff9ee
       22405000	      2239	00000000	00000013	addi	x0,x0,0	  x0:0x00000000
       22415000	      2240	80002f50	00000013	addi	x0,x0,0	  x0:0x00000000
       22425000	      2241	80002f54	2bdba893	slti	x17,x23,701	 x23:0x000084fe x17=0x00000000
       22435000	      2242	80002f58	007fcdb3	xor	x27,x31,x7	 x31:0x00002975  x7:0xffffe0e8 x27=0xffffc99d
       22445000	      2243	80002f5c	035c6e63	bltu	x24,x21,80002f98	 x24:0x800084f4 x21:0xd2b6b001
       22455000	      2244	00000000	00000013	addi	x0,x0,0	  x0:0x00000000
       22465000	      2245	80002f94	00000013	addi	x0,x0,0	  x0:0x00000000
       22475000	      2246	80002f98	023ede63	bge	x29,x3,80002fd4	 x29:0xfffff9ee  x3:0xfffffb5d
       22485000	      2247	80002f9c	28ba8213	addi	x4,x21,651	 x21:0xd2b6b001  x4=0xd2b6b28c
       22495000	      2248	80002fa0	00b31313	slli	x6,x6,0xb	  x6:0x00011a0f  x6=0x08d07800
       22505000	      2249	80002fa4	c6f58613	addi	x12,x11,-913	 x11:0xffd2b505 x12=0xffd2b174
       22515000	      2250	80002fa8	00000013	addi	x0,x0,0	  x0:0x00000000
       22525000	      2251	80002fac	01ee2233	slt	x4,x28,x30	 x28:0x00011a0f x30:0x00000000  x4=0x00000000
       22535000	      2252	80002fb0	0062d113	srli	x2,x5,0x6	  x5:0x80009f6c  x2=0x0200027d
       22545000	      2253	80002fb4	01d62033	slt	x0,x12,x29	 x12:0xffd2b174 x29:0xfffff9ee
       22555000	      2254	80002fb8	41c4df93	srai	x31,x9,0x1c	  x9:0x80009fc4 x31=0xfffffff8
       22565000	      2255	80002fbc	01574e33	xor	x28,x14,x21	 x14:0xff0e4400 x21:0xd2b6b001 x28=0x2db8f401
       22575000	      2256	80002fc0	01cb5893	srli	x17,x22,0x1c	 x22:0x00000052 x17=0x00000000
       22585000	      2257	80002fc4	d7200f13	addi	x30,x0,-654	  x0:0x00000000 x30=0xfffffd72
       22595000	      2258	80002fc8	009e4e63	blt	x28,x9,80002fe4	 x28:0x2db8f401  x9:0x80009fc4
       22605000	      2259	80002fcc	00000013	addi	x0,x0,0	  x0:0x00000000
       22615000	      2260	80002fd0	40b48633	sub	x12,x9,x11	  x9:0x80009fc4 x11:0xffd2b505 x12=0x802deabf
       22625000	      2261	80002fd4	ccc5a993	slti	x19,x11,-820	 x11:0xffd2b505 x19=0x00000001
       22635000	      2262	80002fd8	3cfb4513	xori	x10,x22,975	 x22:0x00000052 x10=0x0000039d
       22645000	      2263	80002fdc	019f0933	add	x18,x30,x25	 x30:0xfffffd72 x25:0x80000000 x18=0x7ffffd72
       22655000	      2264	80002fe0	00a77c33	and	x24,x14,x10	 x14:0xff0e4400 x10:0x0000039d x24=0x00000000
       22665000	      2265	80002fe4	5e384793	xori	x15,x16,1507	 x16:0x00000000 x15=0x000005e3
       22675000	      2266	80002fe8	4abc6093	ori	x1,x24,1195	 x24:0x00000000  x1=0x000004ab
       22685000	      2267	80002fec	01041bb3	sll	x23,x8,x16	  x8:0xff000109 x16:0x00000000 x23=0xff000109
       22695000	      2268	80002ff0	00f23b33	sltu	x22,x4,x15	  x4:0x00000000 x15:0x000005e3 x22=0x00000001
       22705000	      2269	80002ff4	0412e063	bltu	x5,x1,80003034	  x5:0x80009f6c  x1:0x000004ab
       22715000	      2270	80002ff8	514cf893	andi	x17,x25,1300	 x25:0x80000000 x17=0x00000000
       22725000	      2271	80002ffc	01336263	bltu	x6,x19,80003000	  x6:0x08d07800 x19:0x00000001
       22735000	      2272	80003000	01d318b3	sll	x17,x6,x29	  x6:0x08d07800 x29:0xfffff9ee x17=0x1e000000
       22745000	      2273	80003004	00619e63	bne	x3,x6,80003020	  x3:0xfffffb5d  x6:0x08d07800
       22755000	      2274	00000000	00000013	addi	x0,x0,0	  x0:0x00000000
       22765000	      2275	8000301c	00000013	addi	x0,x0,0	  x0:0x00000000
       22775000	      2276	80003020	0236f463	bgeu	x13,x3,80003048	 x13:0xffffe1ff  x3:0xfffffb5d
       22785000	      2277	80003024	03744463	blt	x8,x23,8000304c	  x8:0xff000109 x23:0xff000109
       22795000	      2278	80003028	34b3f117	auipc	x2,0x34b3f	  x2=0xb4b42024
       22805000	      2279	8000302c	4013da93	srai	x21,x7,0x1	  x7:0xffffe0e8 x21=0xfffff074
       22815000	      2280	80003030	40a05f13	srai	x30,x0,0xa	  x0:0x00000000 x30=0x00000000
       22825000	      2281	80003034	01871e63	bne	x14,x24,80003050	 x14:0xff0e4400 x24:0x00000000
       22835000	      2282	00000000	00000013	addi	x0,x0,0	  x0:0x00000000
       22845000	      2283	8000304c	00000013	addi	x0,x0,0	  x0:0x00000000
       22855000	      2284	80003050	40135b33	sra	x22,x6,x1	  x6:0x08d07800  x1:0x000004ab x22=0x00011a0f
       22865000	      2285	80003054	6f1d4fb7	lui	x31,0x6f1d4	 x31=0x6f1d4000
       22875000	      2286	80003058	40b855b3	sra	x11,x16,x11	 x16:0x00000000 x11:0xffd2b505 x11=0x00000000
       22885000	      2287	8000305c	1248e893	ori	x17,x17,292	 x17:0x1e000000 x17=0x1e000124
       22895000	      2288	80003060	04d63637	lui	x12,0x4d63	 x12=0x04d63000
       22905000	      2289	80003064	0137a133	slt	x2,x15,x19	 x15:0x000005e3 x19:0x00000001  x2=0x00000000
       22915000	      2290	80003068	05bdc263	blt	x27,x27,800030ac	 x27:0xffffc99d x27:0xffffc99d
       22925000	      2291	8000306c	76618c13	addi	x24,x3,1894	  x3:0xfffffb5d x24=0x000002c3
       22935000	      2292	80003070	41cbd433	sra	x8,x23,x28	 x23:0xff000109 x28:0x2db8f401  x8=0xff800084
       22945000	      2293	80003074	409b0d33	sub	x26,x22,x9	 x22:0x00011a0f  x9:0x80009fc4 x26=0x80007a4b
       22955000	      2294	80003078	00e44833	xor	x16,x8,x14	  x8:0xff800084 x14:0xff0e4400 x16=0x008e4484
       22965000	      2295	8000307c	d701fd93	andi	x27,x3,-656	  x3:0xfffffb5d x27=0xfffff950
       22975000	      2296	80003080	0102d313	srli	x6,x5,0x10	  x5:0x80009f6c  x6=0x00008000
       22985000	      2297	80003084	010d5a63	bge	x26,x16,80003098	 x26:0x80007a4b x16:0x008e4484
       22995000	      2298	80003088	01262033	slt	x0,x12,x18	 x12:0x04d63000 x18:0x7ffffd72
       23005000	      2299	8000308c	40f5d033	sra	x0,x11,x15	 x11:0x00000000 x15:0x000005e3
       23015000	      2300	80003090	01ace933	or	x18,x25,x26	 x25:0x80000000 x26:0x80007a4b x18=0x80007a4b
       23025000	      2301	80003094	066fd063	bge	x31,x6,800030f4	 x31:0x6f1d4000  x6:0x00008000
       23035000	      2302	00000000	00000013	addi	x0,x0,0	  x0:0x00000000
       23045000	      2303	800030f0	00000013	addi	x0,x0,0	  x0:0x00000000
       23055000	      2304	800030f4	40bb0033	sub	x0,x22,x11	 x22:0x00011a0f x11:0x00000000
       23065000	      2305	800030f8	cdb30a37	lui	x20,0xcdb30	 x20=0xcdb30000
       23075000	      2306	800030fc	02ca4e63	blt	x20,x12,80003138	 x20:0xcdb30000 x12:0x04d63000
       23085000	      2307	00000000	00000013	addi	x0,x0,0	  x0:0x00000000
       23095000	      2308	80003134	00000013	addi	x0,x0,0	  x0:0x00000000
       23105000	      2309	80003138	9f46a213	slti	x4,x13,-1548	 x13:0xffffe1ff  x4=0x00000001
       23115000	      2310	8000313c	fe4c3813	sltiu	x16,x24,-28	 x24:0x000002c3 x16=0x00000001
       23125000	      2311	80003140	00e8ac33	slt	x24,x17,x14	 x17:0x1e000124 x14:0xff0e4400 x24=0x00000000
       23135000	      2312	80003144	014461b3	or	x3,x8,x20	  x8:0xff800084 x20:0xcdb30000  x3=0xffb30084
       23145000	      2313	80003148	0000bf33	sltu	x30,x1,x0	  x1:0x000004ab  x0:0x00000000 x30=0x00000000
       23155000	      2314	8000314c	402ad933	sra	x18,x21,x2	 x21:0xfffff074  x2:0x00000000 x18=0xfffff074
       23165000	      2315	80003150	4c528d97	auipc	x27,0x4c528	 x27=0xcc52b14c
       23175000	      2316	80003154	ade84a13	xori	x20,x16,-1314	 x16:0x00000001 x20=0xfffffadf
       23185000	      2317	80003158	40fe5db3	sra	x27,x28,x15	 x28:0x2db8f401 x15:0x000005e3 x27=0x05b71e80
       23195000	      2318	8000315c	00000013	addi	x0,x0,0	  x0:0x00000000
       23205000	      2319	80003160	03fe7a63	bgeu	x28,x31,80003194	 x28:0x2db8f401 x31:0x6f1d4000
       23215000	      2320	80003164	00141ab3	sll	x21,x8,x1	  x8:0xff800084  x1:0x000004ab x21=0x00042000
       23225000	      2321	80003168	24d06f93	ori	x31,x0,589	  x0:0x00000000 x31=0x0000024d
       23235000	      2322	8000316c	1c8ceb13	ori	x22,x25,456	 x25:0x80000000 x22=0x800001c8
       23245000	      2323	80003170	840ff213	andi	x4,x31,-1984	 x31:0x0000024d  x4=0x00000040
       23255000	      2324	80003174	18cd6b93	ori	x23,x26,396	 x26:0x80007a4b x23=0x80007bcf
       23265000	      2325	80003178	e69d2217	auipc	x4,0xe69d2	  x4=0x669d5174
       23275000	      2326	8000317c	bbcaf3b7	lui	x7,0xbbcaf	  x7=0xbbcaf000
       23285000	      2327	80003180	01699313	slli	x6,x19,0x16	 x19:0x00000001  x6=0x00400000
       23295000	      2328	80003184	0a433513	sltiu	x10,x6,164	  x6:0x00400000 x10=0x00000000
       23305000	      2329	80003188	00000013	addi	x0,x0,0	  x0:0x00000000
       23315000	      2330	8000318c	5c4dbb93	sltiu	x23,x27,1476	 x27:0x05b71e80 x23=0x00000000
       23325000	      2331	80003190	02411463	bne	x2,x4,800031b8	  x2:0x00000000  x4:0x669d5174
       23335000	      2332	00000000	00000013	addi	x0,x0,0	  x0:0x00000000
       23345000	      2333	800031b4	00000013	addi	x0,x0,0	  x0:0x00000000
       23355000	      2334	800031b8	005e4d33	xor	x26,x28,x5	 x28:0x2db8f401  x5:0x80009f6c x26=0xadb86b6d
       23365000	      2335	800031bc	00ea5533	srl	x10,x20,x14	 x20:0xfffffadf x14:0xff0e4400 x10=0xfffffadf
       23375000	      2336	800031c0	00895393	srli	x7,x18,0x8	 x18:0xfffff074  x7=0x00fffff0
       23385000	      2337	800031c4	fc3a8213	addi	x4,x21,-61	 x21:0x00042000  x4=0x00041fc3
       23395000	      2338	800031c8	03f87a63	bgeu	x16,x31,800031fc	 x16:0x00000001 x31:0x0000024d
       23405000	      2339	800031cc	2d731337	lui	x6,0x2d731	  x6=0x2d731000
       23415000	      2340	800031d0	91618f13	addi	x30,x3,-1770	  x3:0xffb30084 x30=0xffb2f99a
       23425000	      2341	800031d4	b309a113	slti	x2,x19,-1232	 x19:0x00000001  x2=0x00000000
       23435000	      2342	800031d8	0448f663	bgeu	x17,x4,80003224	 x17:0x1e000124  x4:0x00041fc3
       23445000	      2343	00000000	00000013	addi	x0,x0,0	  x0:0x00000000
       23455000	      2344	80003220	00000013	addi	x0,x0,0	  x0:0x00000000
       23465000	      2345	80003224	a0a8e197	auipc	x3,0xa0a8e	  x3=0x20a91220
       23475000	      2346	80003228	004b6b33	or	x22,x22,x4	 x22:0x800001c8  x4:0x00041fc3 x22=0x80041fcb
       23485000	      2347	8000322c	00a8a033	slt	x0,x17,x10	 x17:0x1e000124 x10:0xfffffadf
       23495000	      2348	80003230	38d0a193	slti	x3,x1,909	  x1:0x000004ab  x3=0x00000000
       23505000	      2349	80003234	01cb07b3	add	x15,x22,x28	 x22:0x80041fcb x28:0x2db8f401 x15=0xadbd13cc
       23515000	      2350	80003238	01d76e63	bltu	x14,x29,80003254	 x14:0xff0e4400 x29:0xfffff9ee
       23525000	      2351	00000000	00000013	addi	x0,x0,0	  x0:0x00000000
       23535000	      2352	80003250	00000013	addi	x0,x0,0	  x0:0x00000000
       23545000	      2353	80003254	01071633	sll	x12,x14,x16	 x14:0xff0e4400 x16:0x00000001 x12=0xfe1c8800
       23555000	      2354	80003258	753a3193	sltiu	x3,x20,1875	 x20:0xfffffadf  x3=0x00000000
       23565000	      2355	8000325c	005cea63	bltu	x25,x5,80003270	 x25:0x80000000  x5:0x80009f6c
       23575000	      2356	00000000	00000013	addi	x0,x0,0	  x0:0x00000000
       23585000	      2357	8000326c	00000013	addi	x0,x0,0	  x0:0x00000000
       23595000	      2358	80003270	01963f33	sltu	x30,x12,x25	 x12:0xfe1c8800 x25:0x80000000 x30=0x00000000
       23605000	      2359	80003274	08610413	addi	x8,x2,134	  x2:0x00000000  x8=0x00000086
       23615000	      2360	80003278	13388a37	lui	x20,0x13388	 x20=0x13388000
       23625000	      2361	8000327c	00000013	addi	x0,x0,0	  x0:0x00000000
       23635000	      2362	80003280	da878393	addi	x7,x15,-600	 x15:0xadbd13cc  x7=0xadbd1174
       23645000	      2363	80003284	cb012b13	slti	x22,x2,-848	  x2:0x00000000 x22=0x00000000
       23655000	      2364	80003288	02a28263	beq	x5,x10,800032ac	  x5:0x80009f6c x10:0xfffffadf
       23665000	      2365	8000328c	0d1d7237	lui	x4,0xd1d7	  x4=0x0d1d7000
       23675000	      2366	80003290	0131e863	bltu	x3,x19,800032a0	  x3:0x00000000 x19:0x00000001
       23685000	      2367	00000000	00000013	addi	x0,x0,0	  x0:0x00000000
       23695000	      2368	8000329c	00000013	addi	x0,x0,0	  x0:0x00000000
       23705000	      2369	800032a0	01af5e13	srli	x28,x30,0x1a	 x30:0x00000000 x28=0x00000000
       23715000	      2370	800032a4	bff16a17	auipc	x20,0xbff16	 x20=0x3ff192a0
       23725000	      2371	800032a8	02c11e63	bne	x2,x12,800032e4	  x2:0x00000000 x12:0xfe1c8800
       23735000	      2372	00000000	00000013	addi	x0,x0,0	  x0:0x00000000
       23745000	      2373	800032e0	00000013	addi	x0,x0,0	  x0:0x00000000
       23755000	      2374	800032e4	ab632417	auipc	x8,0xab632	  x8=0x2b6352e0
       23765000	      2375	800032e8	01ca7663	bgeu	x20,x28,800032f4	 x20:0x3ff192a0 x28:0x00000000
       23775000	      2376	00000000	00000013	addi	x0,x0,0	  x0:0x00000000
       23785000	      2377	800032f0	00000013	addi	x0,x0,0	  x0:0x00000000
       23795000	      2378	800032f4	015030b3	sltu	x1,x0,x21	  x0:0x00000000 x21:0x00042000  x1=0x00000001
       23805000	      2379	800032f8	41c60633	sub	x12,x12,x28	 x12:0xfe1c8800 x28:0x00000000 x12=0xfe1c8800
       23815000	      2380	800032fc	0347c463	blt	x15,x20,80003324	 x15:0xadbd13cc x20:0x3ff192a0
       23825000	      2381	00000000	00000013	addi	x0,x0,0	  x0:0x00000000
       23835000	      2382	80003320	00000013	addi	x0,x0,0	  x0:0x00000000
       23845000	      2383	80003324	d312c113	xori	x2,x5,-719	  x5:0x80009f6c  x2=0x7fff625d
       23855000	      2384	80003328	00000013	addi	x0,x0,0	  x0:0x00000000
       23865000	      2385	8000332c	01d95813	srli	x16,x18,0x1d	 x18:0xfffff074 x16=0x00000007
       23875000	      2386	80003330	41090e33	sub	x28,x18,x16	 x18:0xfffff074 x16:0x00000007 x28=0xfffff06d
       23885000	      2387	80003334	03ff9463	bne	x31,x31,8000335c	 x31:0x0000024d x31:0x0000024d
       23895000	      2388	80003338	414786b3	sub	x13,x15,x20	 x15:0xadbd13cc x20:0x3ff192a0 x13=0x6dcb812c
       23905000	      2389	8000333c	f3f42413	slti	x8,x8,-193	  x8:0x2b6352e0  x8=0x00000000
       23915000	      2390	80003340	01caf7b3	and	x15,x21,x28	 x21:0x00042000 x28:0xfffff06d x15=0x00042000
       23925000	      2391	80003344	0177fe63	bgeu	x15,x23,80003360	 x15:0x00042000 x23:0x00000000
       23935000	      2392	00000000	00000013	addi	x0,x0,0	  x0:0x00000000
       23945000	      2393	8000335c	00000013	addi	x0,x0,0	  x0:0x00000000
       23955000	      2394	80003360	f503be93	sltiu	x29,x7,-176	  x7:0xadbd1174 x29=0x00000001
       23965000	      2395	80003364	01c35013	srli	x0,x6,0x1c	  x6:0x2d731000
       23975000	      2396	80003368	41315b33	sra	x22,x2,x19	  x2:0x7fff625d x19:0x00000001 x22=0x3fffb12e
       23985000	      2397	8000336c	011209b3	add	x19,x4,x17	  x4:0x0d1d7000 x17:0x1e000124 x19=0x2b1d7124
       23995000	      2398	80003370	00d25d33	srl	x26,x4,x13	  x4:0x0d1d7000 x13:0x6dcb812c x26=0x0000d1d7
       24005000	      2399	80003374	0202ea63	bltu	x5,x0,800033a8	  x5:0x80009f6c  x0:0x00000000
       24015000	      2400	80003378	002b8b33	add	x22,x23,x2	 x23:0x00000000  x2:0x7fff625d x22=0x7fff625d
       24025000	      2401	8000337c	0002b933	sltu	x18,x5,x0	  x5:0x80009f6c  x0:0x00000000 x18=0x00000000
       24035000	      2402	80003380	4117db93	srai	x23,x15,0x11	 x15:0x00042000 x23=0x00000002
       24045000	      2403	80003384	01ddc9b3	xor	x19,x27,x29	 x27:0x05b71e80 x29:0x00000001 x19=0x05b71e81
       24055000	      2404	80003388	002877b3	and	x15,x16,x2	 x16:0x00000007  x2:0x7fff625d x15=0x00000005
       24065000	      2405	8000338c	00f3da63	bge	x7,x15,800033a0	  x7:0xadbd1174 x15:0x00000005
       24075000	      2406	80003390	00f84d33	xor	x26,x16,x15	 x16:0x00000007 x15:0x00000005 x26=0x00000002
       24085000	      2407	80003394	001d1713	slli	x14,x26,0x1	 x26:0x00000002 x14=0x00000004
       24095000	      2408	80003398	01026a33	or	x20,x4,x16	  x4:0x0d1d7000 x16:0x00000007 x20=0x0d1d7007
       24105000	      2409	8000339c	9d34a013	slti	x0,x9,-1581	  x9:0x80009fc4
       24115000	      2410	800033a0	00000013	addi	x0,x0,0	  x0:0x00000000
       24125000	      2411	800033a4	01f2af33	slt	x30,x5,x31	  x5:0x80009f6c x31:0x0000024d x30=0x00000001
       24135000	      2412	800033a8	01b69e33	sll	x28,x13,x27	 x13:0x6dcb812c x27:0x05b71e80 x28=0x6dcb812c
       24145000	      2413	800033ac	00167863	bgeu	x12,x1,800033bc	 x12:0xfe1c8800  x1:0x00000001
       24155000	      2414	00000000	00000013	addi	x0,x0,0	  x0:0x00000000
       24165000	      2415	800033b8	00000013	addi	x0,x0,0	  x0:0x00000000
       24175000	      2416	800033bc	00501913	slli	x18,x0,0x5	  x0:0x00000000 x18=0x00000000
       24185000	      2417	800033c0	52e17713	andi	x14,x2,1326	  x2:0x7fff625d x14=0x0000000c
       24195000	      2418	800033c4	d031b513	sltiu	x10,x3,-765	  x3:0x00000000 x10=0x00000001
       24205000	      2419	800033c8	01e68ab3	add	x21,x13,x30	 x13:0x6dcb812c x30:0x00000001 x21=0x6dcb812d
       24215000	      2420	800033cc	cb280913	addi	x18,x16,-846	 x16:0x00000007 x18=0xfffffcb9
       24225000	      2421	800033d0	04c56263	bltu	x10,x12,80003414	 x10:0x00000001 x12:0xfe1c8800
       24235000	      2422	00000000	00000013	addi	x0,x0,0	  x0:0x00000000
       24245000	      2423	80003410	00000013	addi	x0,x0,0	  x0:0x00000000
       24255000	      2424	80003414	8c9e0393	addi	x7,x28,-1847	 x28:0x6dcb812c  x7=0x6dcb79f5
       24265000	      2425	80003418	01da05b3	add	x11,x20,x29	 x20:0x0d1d7007 x29:0x00000001 x11=0x0d1d7008
       24275000	      2426	8000341c	007491b3	sll	x3,x9,x7	  x9:0x80009fc4  x7:0x6dcb79f5  x3=0xf8800000
       24285000	      2427	80003420	71df6093	ori	x1,x30,1821	 x30:0x00000001  x1=0x0000071d
       24295000	      2428	80003424	4135d033	sra	x0,x11,x19	 x11:0x0d1d7008 x19:0x05b71e81
       24305000	      2429	80003428	00380133	add	x2,x16,x3	 x16:0x00000007  x3:0xf8800000  x2=0xf8800007
       24315000	      2430	8000342c	00225013	srli	x0,x4,0x2	  x4:0x0d1d7000
       24325000	      2431	80003430	03b4e463	bltu	x9,x27,80003458	  x9:0x80009fc4 x27:0x05b71e80
       24335000	      2432	80003434	01fb8263	beq	x23,x31,80003438	 x23:0x00000002 x31:0x0000024d
       24345000	      2433	80003438	c0d80593	addi	x11,x16,-1011	 x16:0x00000007 x11=0xfffffc14
       24355000	      2434	8000343c	0482e513	ori	x10,x5,72	  x5:0x80009f6c x10=0x80009f6c
       24365000	      2435	80003440	01206e33	or	x28,x0,x18	  x0:0x00000000 x18:0xfffffcb9 x28=0xfffffcb9
       24375000	      2436	80003444	00731793	slli	x15,x6,0x7	  x6:0x2d731000 x15=0xb9880000
       24385000	      2437	80003448	00a1bab3	sltu	x21,x3,x10	  x3:0xf8800000 x10:0x80009f6c x21=0x00000000
       24395000	      2438	8000344c	dc5e8213	addi	x4,x29,-571	 x29:0x00000001  x4=0xfffffdc6
       24405000	      2439	80003450	013be8b3	or	x17,x23,x19	 x23:0x00000002 x19:0x05b71e81 x17=0x05b71e83
       24415000	      2440	80003454	00606663	bltu	x0,x6,80003460	  x0:0x00000000  x6:0x2d731000
       24425000	      2441	00000000	00000013	addi	x0,x0,0	  x0:0x00000000
       24435000	      2442	8000345c	00000013	addi	x0,x0,0	  x0:0x00000000
       24445000	      2443	80003460	01cb0263	beq	x22,x28,80003464	 x22:0x7fff625d x28:0xfffffcb9
       24455000	      2444	80003464	00999d13	slli	x26,x19,0x9	 x19:0x05b71e81 x26=0x6e3d0200
       24465000	      2445	80003468	017831b3	sltu	x3,x16,x23	 x16:0x00000007 x23:0x00000002  x3=0x00000000
       24475000	      2446	8000346c	6dc9a913	slti	x18,x19,1756	 x19:0x05b71e81 x18=0x00000000
       24485000	      2447	80003470	8e27c693	xori	x13,x15,-1822	 x15:0xb9880000 x13=0x4677f8e2
       24495000	      2448	80003474	020ee463	bltu	x29,x0,8000349c	 x29:0x00000001  x0:0x00000000
       24505000	      2449	80003478	0074ee63	bltu	x9,x7,80003494	  x9:0x80009fc4  x7:0x6dcb79f5
       24515000	      2450	8000347c	03540e63	beq	x8,x21,800034b8	  x8:0x00000000 x21:0x00000000
       24525000	      2451	00000000	00000013	addi	x0,x0,0	  x0:0x00000000
       24535000	      2452	800034b4	00000013	addi	x0,x0,0	  x0:0x00000000
       24545000	      2453	800034b8	12da4e13	xori	x28,x20,301	 x20:0x0d1d7007 x28=0x0d1d712a
       24555000	      2454	800034bc	00f92f33	slt	x30,x18,x15	 x18:0x00000000 x15:0xb9880000 x30=0x00000000
       24565000	      2455	800034c0	51ebb013	sltiu	x0,x23,1310	 x23:0x00000002
       24575000	      2456	800034c4	02c50063	beq	x10,x12,800034e4	 x10:0x80009f6c x12:0xfe1c8800
       24585000	      2457	800034c8	423b8e13	addi	x28,x23,1059	 x23:0x00000002 x28=0x00000425
       24595000	      2458	800034cc	00e9e533	or	x10,x19,x14	 x19:0x05b71e81 x14:0x0000000c x10=0x05b71e8d
       24605000	      2459	800034d0	8a50f213	andi	x4,x1,-1883	  x1:0x0000071d  x4=0x00000005
       24615000	      2460	800034d4	41a68233	sub	x4,x13,x26	 x13:0x4677f8e2 x26:0x6e3d0200  x4=0xd83af6e2
       24625000	      2461	800034d8	01445a13	srli	x20,x8,0x14	  x8:0x00000000 x20=0x00000000
       24635000	      2462	800034dc	4005db93	srai	x23,x11,0x0	 x11:0xfffffc14 x23=0xfffffc14
       24645000	      2463	800034e0	0032fa33	and	x20,x5,x3	  x5:0x80009f6c  x3:0x00000000 x20=0x00000000
       24655000	      2464	800034e4	4dd12593	slti	x11,x2,1245	  x2:0xf8800007 x11=0x00000001
       24665000	      2465	800034e8	7a42a917	auipc	x18,0x7a42a	 x18=0xfa42d4e4
       24675000	      2466	800034ec	02629a63	bne	x5,x6,80003520	  x5:0x80009f6c  x6:0x2d731000
       24685000	      2467	00000000	00000013	addi	x0,x0,0	  x0:0x00000000
       24695000	      2468	8000351c	00000013	addi	x0,x0,0	  x0:0x00000000
       24705000	      2469	80003520	de89f713	andi	x14,x19,-536	 x19:0x05b71e81 x14=0x05b71c80
       24715000	      2470	80003524	00525a13	srli	x20,x4,0x5	  x4:0xd83af6e2 x20=0x06c1d7b7
       24725000	      2471	80003528	0df23d13	sltiu	x26,x4,223	  x4:0xd83af6e2 x26=0x00000000
       24735000	      2472	8000352c	01fc9bb3	sll	x23,x25,x31	 x25:0x80000000 x31:0x0000024d x23=0x00000000
       24745000	      2473	80003530	3cf32693	slti	x13,x6,975	  x6:0x2d731000 x13=0x00000000
       24755000	      2474	80003534	00541633	sll	x12,x8,x5	  x8:0x00000000  x5:0x80009f6c x12=0x00000000
       24765000	      2475	80003538	eada6e93	ori	x29,x20,-339	 x20:0x06c1d7b7 x29=0xffffffbf
       24775000	      2476	8000353c	367da613	slti	x12,x27,871	 x27:0x05b71e80 x12=0x00000000
       24785000	      2477	80003540	00a8cfb3	xor	x31,x17,x10	 x17:0x05b71e83 x10:0x05b71e8d x31=0x0000000e
       24795000	      2478	80003544	01086333	or	x6,x16,x16	 x16:0x00000007 x16:0x00000007  x6=0x00000007
       24805000	      2479	80003548	00a98e63	beq	x19,x10,80003564	 x19:0x05b71e81 x10:0x05b71e8d
       24815000	      2480	8000354c	3cd9fd13	andi	x26,x19,973	 x19:0x05b71e81 x26=0x00000281
       24825000	      2481	80003550	038cde63	bge	x25,x24,8000358c	 x25:0x80000000 x24:0x00000000
       24835000	      2482	80003554	00000013	addi	x0,x0,0	  x0:0x00000000
       24845000	      2483	80003558	01178233	add	x4,x15,x17	 x15:0xb9880000 x17:0x05b71e83  x4=0xbf3f1e83
       24855000	      2484	8000355c	9d2f8913	addi	x18,x31,-1582	 x31:0x0000000e x18=0xfffff9e0
       24865000	      2485	80003560	006b8db3	add	x27,x23,x6	 x23:0x00000000  x6:0x00000007 x27=0x00000007
       24875000	      2486	80003564	d32da413	slti	x8,x27,-718	 x27:0x00000007  x8=0x00000000
       24885000	      2487	80003568	03e88463	beq	x17,x30,80003590	 x17:0x05b71e83 x30:0x00000000
       24895000	      2488	8000356c	00000013	addi	x0,x0,0	  x0:0x00000000
       24905000	      2489	80003570	00b96f33	or	x30,x18,x11	 x18:0xfffff9e0 x11:0x00000001 x30=0xfffff9e1
       24915000	      2490	80003574	03109a63	bne	x1,x17,800035a8	  x1:0x0000071d x17:0x05b71e83
       24925000	      2491	00000000	00000013	addi	x0,x0,0	  x0:0x00000000
       24935000	      2492	800035a4	00000013	addi	x0,x0,0	  x0:0x00000000
       24945000	      2493	800035a8	00b8c0b3	xor	x1,x17,x11	 x17:0x05b71e83 x11:0x00000001  x1=0x05b71e82
       24955000	      2494	800035ac	00fd9fb3	sll	x31,x27,x15	 x27:0x00000007 x15:0xb9880000 x31=0x00000007
       24965000	      2495	800035b0	03490263	beq	x18,x20,800035d4	 x18:0xfffff9e0 x20:0x06c1d7b7
       24975000	      2496	800035b4	9222cc13	xori	x24,x5,-1758	  x5:0x80009f6c x24=0x7fff664e
       24985000	      2497	800035b8	40de8e33	sub	x28,x29,x13	 x29:0xffffffbf x13:0x00000000 x28=0xffffffbf
       24995000	      2498	800035bc	8b73ddb7	lui	x27,0x8b73d	 x27=0x8b73d000
       25005000	      2499	800035c0	409b5a93	srai	x21,x22,0x9	 x22:0x7fff625d x21=0x003fffb1
       25015000	      2500	800035c4	01f95e63	bge	x18,x31,800035e0	 x18:0xfffff9e0 x31:0x00000007
       25025000	      2501	800035c8	00000013	addi	x0,x0,0	  x0:0x00000000
       25035000	      2502	800035cc	40e7d693	srai	x13,x15,0xe	 x15:0xb9880000 x13=0xfffee620
       25045000	      2503	800035d0	00000013	addi	x0,x0,0	  x0:0x00000000
       25055000	      2504	800035d4	03f71063	bne	x14,x31,800035f4	 x14:0x05b71c80 x31:0x00000007
       25065000	      2505	00000000	00000013	addi	x0,x0,0	  x0:0x00000000
       25075000	      2506	800035f0	00000013	addi	x0,x0,0	  x0:0x00000000
       25085000	      2507	800035f4	c066ffb7	lui	x31,0xc066f	 x31=0xc066f000
       25095000	      2508	800035f8	2acbc417	auipc	x8,0x2acbc	  x8=0xaacbf5f4
       25105000	      2509	800035fc	002135b3	sltu	x11,x2,x2	  x2:0xf8800007  x2:0xf8800007 x11=0x00000000
       25115000	      2510	80003600	0260fa63	bgeu	x1,x6,80003634	  x1:0x05b71e82  x6:0x00000007
       25125000	      2511	00000000	00000013	addi	x0,x0,0	  x0:0x00000000
       25135000	      2512	80003630	00000013	addi	x0,x0,0	  x0:0x00000000
       25145000	      2513	80003634	2c69f793	andi	x15,x19,710	 x19:0x05b71e81 x15=0x00000280
       25155000	      2514	80003638	048067b7	lui	x15,0x4806	 x15=0x04806000
       25165000	      2515	8000363c	01790b33	add	x22,x18,x23	 x18:0xfffff9e0 x23:0x00000000 x22=0xfffff9e0
       25175000	      2516	80003640	402e5033	sra	x0,x28,x2	 x28:0xffffffbf  x2:0xf8800007
       25185000	      2517	80003644	01462733	slt	x14,x12,x20	 x12:0x00000000 x20:0x06c1d7b7 x14=0x00000001
       25195000	      2518	80003648	009bc333	xor	x6,x23,x9	 x23:0x00000000  x9:0x80009fc4  x6=0x80009fc4
       25205000	      2519	8000364c	410b0eb3	sub	x29,x22,x16	 x22:0xfffff9e0 x16:0x00000007 x29=0xfffff9d9
       25215000	      2520	80003650	c482a917	auipc	x18,0xc482a	 x18=0x4482d64c
       25225000	      2521	80003654	cb074993	xori	x19,x14,-848	 x14:0x00000001 x19=0xfffffcb1
       25235000	      2522	80003658	05f28663	beq	x5,x31,800036a4	  x5:0x80009f6c x31:0xc066f000
       25245000	      2523	8000365c	044c5063	bge	x24,x4,8000369c	 x24:0x7fff664e  x4:0xbf3f1e83
       25255000	      2524	00000000	00000013	addi	x0,x0,0	  x0:0x00000000
       25265000	      2525	80003698	00000013	addi	x0,x0,0	  x0:0x00000000
       25275000	      2526	8000369c	169e57b7	lui	x15,0x169e5	 x15=0x169e5000
       25285000	      2527	800036a0	01008733	add	x14,x1,x16	  x1:0x05b71e82 x16:0x00000007 x14=0x05b71e89
       25295000	      2528	800036a4	dbc07113	andi	x2,x0,-580	  x0:0x00000000  x2=0x00000000
       25305000	      2529	800036a8	41658db3	sub	x27,x11,x22	 x11:0x00000000 x22:0xfffff9e0 x27=0x00000620
       25315000	      2530	800036ac	41a0da33	sra	x20,x1,x26	  x1:0x05b71e82 x26:0x00000281 x20=0x02db8f41
       25325000	      2531	800036b0	02411e63	bne	x2,x4,800036ec	  x2:0x00000000  x4:0xbf3f1e83
       25335000	      2532	00000000	00000013	addi	x0,x0,0	  x0:0x00000000
       25345000	      2533	800036e8	00000013	addi	x0,x0,0	  x0:0x00000000
       25355000	      2534	800036ec	00d5edb3	or	x27,x11,x13	 x11:0x00000000 x13:0xfffee620 x27=0xfffee620
       25365000	      2535	800036f0	41ff5613	srai	x12,x30,0x1f	 x30:0xfffff9e1 x12=0xffffffff
       25375000	      2536	800036f4	40325833	sra	x16,x4,x3	  x4:0xbf3f1e83  x3:0x00000000 x16=0xbf3f1e83
       25385000	      2537	800036f8	2218ae13	slti	x28,x17,545	 x17:0x05b71e83 x28=0x00000000
       25395000	      2538	800036fc	f2ce4913	xori	x18,x28,-212	 x28:0x00000000 x18=0xffffff2c
       25405000	      2539	80003700	002a5b93	srli	x23,x20,0x2	 x20:0x02db8f41 x23=0x00b6e3d0
       25415000	      2540	80003704	0067ad33	slt	x26,x15,x6	 x15:0x169e5000  x6:0x80009fc4 x26=0x00000000
       25425000	      2541	80003708	3d2b4e93	xori	x29,x22,978	 x22:0xfffff9e0 x29=0xfffffa32
       25435000	      2542	8000370c	006491b3	sll	x3,x9,x6	  x9:0x80009fc4  x6:0x80009fc4  x3=0x0009fc40
       25445000	      2543	80003710	0b9fe513	ori	x10,x31,185	 x31:0xc066f000 x10=0xc066f0b9
       25455000	      2544	80003714	01e51e93	slli	x29,x10,0x1e	 x10:0xc066f0b9 x29=0x40000000
       25465000	      2545	80003718	019ad393	srli	x7,x21,0x19	 x21:0x003fffb1  x7=0x00000000
       25475000	      2546	8000371c	3a2d6793	ori	x15,x26,930	 x26:0x00000000 x15=0x000003a2
       25485000	      2547	80003720	ec160693	addi	x13,x12,-319	 x12:0xffffffff x13=0xfffffec0
       25495000	      2548	80003724	01605093	srli	x1,x0,0x16	  x0:0x00000000  x1=0x00000000
       25505000	      2549	80003728	00f2a033	slt	x0,x5,x15	  x5:0x80009f6c x15:0x000003a2
       25515000	      2550	8000372c	8c4a1ab7	lui	x21,0x8c4a1	 x21=0x8c4a1000
       25525000	      2551	80003730	400b5713	srai	x14,x22,0x0	 x22:0xfffff9e0 x14=0xfffff9e0
       25535000	      2552	80003734	416adab3	sra	x21,x21,x22	 x21:0x8c4a1000 x22:0xfffff9e0 x21=0x8c4a1000
       25545000	      2553	80003738	00174863	blt	x14,x1,80003748	 x14:0xfffff9e0  x1:0x00000000
       25555000	      2554	00000000	00000013	addi	x0,x0,0	  x0:0x00000000
       25565000	      2555	80003744	00000013	addi	x0,x0,0	  x0:0x00000000
       25575000	      2556	80003748	024d4463	blt	x26,x4,80003770	 x26:0x00000000  x4:0xbf3f1e83
       25585000	      2557	8000374c	0e28fb37	lui	x22,0xe28f	 x22=0x0e28f000
       25595000	      2558	80003750	03675063	bge	x14,x22,80003770	 x14:0xfffff9e0 x22:0x0e28f000
       25605000	      2559	80003754	0167abb3	slt	x23,x15,x22	 x15:0x000003a2 x22:0x0e28f000 x23=0x00000001
       25615000	      2560	80003758	017bf233	and	x4,x23,x23	 x23:0x00000001 x23:0x00000001  x4=0x00000001
       25625000	      2561	8000375c	388f6993	ori	x19,x30,904	 x30:0xfffff9e1 x19=0xfffffbe9
       25635000	      2562	80003760	6bf6cd13	xori	x26,x13,1727	 x13:0xfffffec0 x26=0xfffff87f
       25645000	      2563	80003764	0144c663	blt	x9,x20,80003770	  x9:0x80009fc4 x20:0x02db8f41
       25655000	      2564	00000000	00000013	addi	x0,x0,0	  x0:0x00000000
       25665000	      2565	8000376c	00000013	addi	x0,x0,0	  x0:0x00000000
       25675000	      2566	80003770	009e48b3	xor	x17,x28,x9	 x28:0x00000000  x9:0x80009fc4 x17=0x80009fc4
       25685000	      2567	80003774	d93d7e13	andi	x28,x26,-621	 x26:0xfffff87f x28=0xfffff813
       25695000	      2568	80003778	002ea433	slt	x8,x29,x2	 x29:0x40000000  x2:0x00000000  x8=0x00000000
       25705000	      2569	8000377c	01e31d33	sll	x26,x6,x30	  x6:0x80009fc4 x30:0xfffff9e1 x26=0x00013f88
       25715000	      2570	80003780	4076dfb3	sra	x31,x13,x7	 x13:0xfffffec0  x7:0x00000000 x31=0xfffffec0
       25725000	      2571	80003784	0042a303	lw	x6,4(x5)	  x5:0x80009f6c  x6=0x80000168 PA:0x80009f70
       25735000	      2572	80003788	01828293	addi	x5,x5,24	  x5:0x80009f6c  x5=0x80009f84
       25745000	      2573	8000378c	017c8533	add	x10,x25,x23	 x25:0x80000000 x23:0x00000001 x10=0x80000001
       25755000	      2574	80003790	e028f513	andi	x10,x17,-510	 x17:0x80009fc4 x10=0x80009e00
       25765000	      2575	80003794	0097df33	srl	x30,x15,x9	 x15:0x000003a2  x9:0x80009fc4 x30=0x0000003a
       25775000	      2576	80003798	00fbbc33	sltu	x24,x23,x15	 x23:0x00000001 x15:0x000003a2 x24=0x00000001
       25785000	      2577	8000379c	01c827b3	slt	x15,x16,x28	 x16:0xbf3f1e83 x28:0xfffff813 x15=0x00000001
       25795000	      2578	800037a0	ebfe8893	addi	x17,x29,-321	 x29:0x40000000 x17=0x3ffffebf
       25805000	      2579	800037a4	00030913	addi	x18,x6,0	  x6:0x80000168 x18=0x80000168
       25815000	      2580	800037a8	00090967	jalr	x18,x18,0	 x18:0x80000168 x18=0x800037a8
       25825000	      2581	00000000	00000013	addi	x0,x0,0	  x0:0x00000000
       25835000	      2582	80000168	00000013	addi	x0,x0,0	  x0:0x00000000
       25845000	      2583	8000016c	00003b97	auipc	x23,0x3	 x23=0x80003168
       25855000	      2584	80000170	a68b8b93	addi	x23,x23,-1432	 x23:0x80003168 x23=0x80002bd0
       25865000	      2585	80000174	01539133	sll	x2,x7,x21	  x7:0x00000000 x21:0x8c4a1000  x2=0x00000000
       25875000	      2586	80000178	00000013	addi	x0,x0,0	  x0:0x00000000
       25885000	      2587	8000017c	0092bb33	sltu	x22,x5,x9	  x5:0x80009f84  x9:0x80009fc4 x22=0x00000001
       25895000	      2588	80000180	f3bb8b93	addi	x23,x23,-197	 x23:0x80002bd0 x23=0x80002b0b
       25905000	      2589	80000184	00343533	sltu	x10,x8,x3	  x8:0x00000000  x3:0x0009fc40 x10=0x00000001
       25915000	      2590	80000188	00151463	bne	x10,x1,80000190	 x10:0x00000001  x1:0x00000000
       25925000	      2591	00000000	00000013	addi	x0,x0,0	  x0:0x00000000
       25935000	      2592	8000018c	00000013	addi	x0,x0,0	  x0:0x00000000
       25945000	      2593	80000190	0c6b8367	jalr	x6,x23,198	 x23:0x80002b0b  x6=0x80000190
       25955000	      2594	00000000	00000013	addi	x0,x0,0	  x0:0x00000000
       25965000	      2595	80002bd0	00000013	addi	x0,x0,0	  x0:0x00000000
       25975000	      2596	80002bd4	002dac33	slt	x24,x27,x2	 x27:0xfffee620  x2:0x00000000 x24=0x00000001
       25985000	      2597	80002bd8	dfcbcb93	xori	x23,x23,-516	 x23:0x80002b0b x23=0x7fffd6f7
       25995000	      2598	80002bdc	fe828293	addi	x5,x5,-24	  x5:0x80009f84  x5=0x80009f6c
       26005000	      2599	80002be0	00ef1913	slli	x18,x30,0xe	 x30:0x0000003a x18=0x000e8000
       26015000	      2600	80002be4	01bb78b3	and	x17,x22,x27	 x22:0x00000001 x27:0xfffee620 x17=0x00000000
       26025000	      2601	80002be8	00eb0f33	add	x30,x22,x14	 x22:0x00000001 x14:0xfffff9e0 x30=0xfffff9e1
       26035000	      2602	80002bec	00b667b3	or	x15,x12,x11	 x12:0xffffffff x11:0x00000000 x15=0xffffffff
       26045000	      2603	80002bf0	2e6ff393	andi	x7,x31,742	 x31:0xfffffec0  x7=0x000002c0
       26055000	      2604	80002bf4	41755393	srai	x7,x10,0x17	 x10:0x00000001  x7=0x00000000
       26065000	      2605	80002bf8	0062a223	sw	x6,4(x5)	  x5:0x80009f6c  x6:0x80000190 PA:0x80009f70
       26075000	      2606	80002bfc	005db733	sltu	x14,x27,x5	 x27:0xfffee620  x5:0x80009f6c x14=0x00000000
       26085000	      2607	80002c00	41cdd013	srai	x0,x27,0x1c	 x27:0xfffee620
       26095000	      2608	80002c04	00006117	auipc	x2,0x6	  x2=0x80008c00
       26105000	      2609	80002c08	bce10113	addi	x2,x2,-1074	  x2:0x80008c00  x2=0x800087ce
       26115000	      2610	80002c0c	fd211f83	lh	x31,-46(x2)	  x2:0x800087ce x31=0x00006ef7 PA:0x800087a0
       26125000	      2611	80002c10	018f1633	sll	x12,x30,x24	 x30:0xfffff9e1 x24:0x00000001 x12=0xfffff3c2
       26135000	      2612	80002c14	ff010d03	lb	x26,-16(x2)	  x2:0x800087ce x26=0xffffffba PA:0x800087be
       26145000	      2613	80002c18	00f2abb3	slt	x23,x5,x15	  x5:0x80009f6c x15:0xffffffff x23=0x00000001
       26155000	      2614	80002c1c	fef14083	lbu	x1,-17(x2)	  x2:0x800087ce  x1=0x00000031 PA:0x800087bd
       26165000	      2615	80002c20	00999093	slli	x1,x19,0x9	 x19:0xfffffbe9  x1=0xfff7d200
       26175000	      2616	80002c24	fee10b03	lb	x22,-18(x2)	  x2:0x800087ce x22=0x00000041 PA:0x800087bc
       26185000	      2617	80002c28	fd815783	lhu	x15,-40(x2)	  x2:0x800087ce x15=0x00005a2b PA:0x800087a6
       26195000	      2618	80002c2c	01e17633	and	x12,x2,x30	  x2:0x800087ce x30:0xfffff9e1 x12=0x800081c0
       26205000	      2619	80002c30	02610a03	lb	x20,38(x2)	  x2:0x800087ce x20=0xffffffb0 PA:0x800087f4
       26215000	      2620	80002c34	fcc11d03	lh	x26,-52(x2)	  x2:0x800087ce x26=0xffff9e8c PA:0x8000879a
       26225000	      2621	80002c38	ee1aed13	ori	x26,x21,-287	 x21:0x8c4a1000 x26=0xfffffee1
       26235000	      2622	80002c3c	015c5b93	srli	x23,x24,0x15	 x24:0x00000001 x23=0x00000000
       26245000	      2623	80002c40	00e11003	lh	x0,14(x2)	  x2:0x800087ce PA:0x800087dc
       26255000	      2624	80002c44	00514503	lbu	x10,5(x2)	  x2:0x800087ce x10=0x00000023 PA:0x800087d3
       26265000	      2625	80002c48	03b10d03	lb	x26,59(x2)	  x2:0x800087ce x26=0xffffffef PA:0x80008809
       26275000	      2626	80002c4c	ff211183	lh	x3,-14(x2)	  x2:0x800087ce  x3=0xffff9422 PA:0x800087c0
       26285000	      2627	80002c50	006a5e13	srli	x28,x20,0x6	 x20:0xffffffb0 x28=0x03fffffe
       26295000	      2628	80002c54	02212f23	sw	x2,62(x2)	  x2:0x800087ce  x2:0x800087ce PA:0x8000880c
       26305000	      2629	80002c58	01dd9d13	slli	x26,x27,0x1d	 x27:0xfffee620 x26=0x00000000
       26315000	      2630	80002c5c	fe010b83	lb	x23,-32(x2)	  x2:0x800087ce x23=0xffffffe1 PA:0x800087ae
       26325000	      2631	80002c60	02114083	lbu	x1,33(x2)	  x2:0x800087ce  x1=0x00000063 PA:0x800087ef
       26335000	      2632	80002c64	fd910303	lb	x6,-39(x2)	  x2:0x800087ce  x6=0x0000005a PA:0x800087a7
       26345000	      2633	80002c68	00cfb6b3	sltu	x13,x31,x12	 x31:0x00006ef7 x12:0x800081c0 x13=0x00000001
       26355000	      2634	80002c6c	25074613	xori	x12,x14,592	 x14:0x00000000 x12=0x00000250
       26365000	      2635	80002c70	03610903	lb	x18,54(x2)	  x2:0x800087ce x18=0x00000056 PA:0x80008804
       26375000	      2636	80002c74	00000013	addi	x0,x0,0	  x0:0x00000000
       26385000	      2637	80002c78	02b14e83	lbu	x29,43(x2)	  x2:0x800087ce x29=0x000000bd PA:0x800087f9
       26395000	      2638	80002c7c	00000013	addi	x0,x0,0	  x0:0x00000000
       26405000	      2639	80002c80	00000013	addi	x0,x0,0	  x0:0x00000000
       26415000	      2640	80002c84	fc511323	sh	x5,-58(x2)	  x2:0x800087ce  x5:0x80009f6c PA:0x80008794
       26425000	      2641	80002c88	ff510e83	lb	x29,-11(x2)	  x2:0x800087ce x29=0xffffffe6 PA:0x800087c3
       26435000	      2642	80002c8c	009f9c33	sll	x24,x31,x9	 x31:0x00006ef7  x9:0x80009fc4 x24=0x0006ef70
       26445000	      2643	80002c90	01814c33	xor	x24,x2,x24	  x2:0x800087ce x24:0x0006ef70 x24=0x800668be
       26455000	      2644	80002c94	002c9f33	sll	x30,x25,x2	 x25:0x80000000  x2:0x800087ce x30=0x00000000
       26465000	      2645	80002c98	015d96b3	sll	x13,x27,x21	 x27:0xfffee620 x21:0x8c4a1000 x13=0xfffee620
       26475000	      2646	80002c9c	01e1db13	srli	x22,x3,0x1e	  x3:0xffff9422 x22=0x00000003
       26485000	      2647	80002ca0	fc110803	lb	x16,-63(x2)	  x2:0x800087ce x16=0x00000060 PA:0x8000878f
       26495000	      2648	80002ca4	03a103a3	sb	x26,39(x2)	  x2:0x800087ce x26:0x00000000 PA:0x800087f5
       26505000	      2649	80002ca8	00241813	slli	x16,x8,0x2	  x8:0x00000000 x16=0x00000000
       26515000	      2650	80002cac	0127c6b3	xor	x13,x15,x18	 x15:0x00005a2b x18:0x00000056 x13=0x00005a7d
       26525000	      2651	80002cb0	01fcdd13	srli	x26,x25,0x1f	 x25:0x80000000 x26=0x00000001
       26535000	      2652	80002cb4	fdc14583	lbu	x11,-36(x2)	  x2:0x800087ce x11=0x000000a2 PA:0x800087aa
       26545000	      2653	80002cb8	fef14003	lbu	x0,-17(x2)	  x2:0x800087ce PA:0x800087bd
       26555000	      2654	80002cbc	ff015f83	lhu	x31,-16(x2)	  x2:0x800087ce x31=0x000024ba PA:0x800087be
       26565000	      2655	80002cc0	00006117	auipc	x2,0x6	  x2=0x80008cbc
       26575000	      2656	80002cc4	a9210113	addi	x2,x2,-1390	  x2:0x80008cbc  x2=0x8000874e
       26585000	      2657	80002cc8	001de833	or	x16,x27,x1	 x27:0xfffee620  x1:0x00000063 x16=0xfffee663
       26595000	      2658	80002ccc	01ca35b3	sltu	x11,x20,x28	 x20:0xffffffb0 x28:0x03fffffe x11=0x00000000
       26605000	      2659	80002cd0	01511123	sh	x21,2(x2)	  x2:0x8000874e x21:0x8c4a1000 PA:0x80008750
       26615000	      2660	80002cd4	ff111c23	sh	x17,-8(x2)	  x2:0x8000874e x17:0x00000000 PA:0x80008746
       26625000	      2661	80002cd8	008105a3	sb	x8,11(x2)	  x2:0x8000874e  x8:0x00000000 PA:0x80008759
       26635000	      2662	80002cdc	01657f17	auipc	x30,0x1657	 x30=0x81659cd8
       26645000	      2663	80002ce0	ff910083	lb	x1,-7(x2)	  x2:0x8000874e  x1=0x00000000 PA:0x80008747
       26655000	      2664	80002ce4	01f103a3	sb	x31,7(x2)	  x2:0x8000874e x31:0x000024ba PA:0x80008755
       26665000	      2665	80002ce8	d195a593	slti	x11,x11,-743	 x11:0x00000000 x11=0x00000000
       26675000	      2666	80002cec	14e6e093	ori	x1,x13,334	 x13:0x00005a7d  x1=0x00005b7f
       26685000	      2667	80002cf0	00e104a3	sb	x14,9(x2)	  x2:0x8000874e x14:0x00000000 PA:0x80008757
       26695000	      2668	80002cf4	ff910783	lb	x15,-7(x2)	  x2:0x8000874e x15=0x00000000 PA:0x80008747
       26705000	      2669	80002cf8	ff210ea3	sb	x18,-3(x2)	  x2:0x8000874e x18:0x00000056 PA:0x8000874b
       26715000	      2670	80002cfc	ff414603	lbu	x12,-12(x2)	  x2:0x8000874e x12=0x0000003b PA:0x80008742
       26725000	      2671	80002d00	01328d33	add	x26,x5,x19	  x5:0x80009f6c x19:0xfffffbe9 x26=0x80009b55
       26735000	      2672	80002d04	00f14603	lbu	x12,15(x2)	  x2:0x8000874e x12=0x0000008e PA:0x8000875d
       26745000	      2673	80002d08	e595fc13	andi	x24,x11,-423	 x11:0x00000000 x24=0x00000000
       26755000	      2674	80002d0c	7ab1ab13	slti	x22,x3,1963	  x3:0xffff9422 x22=0x00000001
       26765000	      2675	80002d10	00910003	lb	x0,9(x2)	  x2:0x8000874e PA:0x80008757
       26775000	      2676	80002d14	00012523	sw	x0,10(x2)	  x2:0x8000874e  x0:0x00000000 PA:0x80008758
       26785000	      2677	80002d18	01b68db3	add	x27,x13,x27	 x13:0x00005a7d x27:0xfffee620 x27=0xffff409d
       26795000	      2678	80002d1c	00766733	or	x14,x12,x7	 x12:0x0000008e  x7:0x00000000 x14=0x0000008e
       26805000	      2679	80002d20	001106a3	sb	x1,13(x2)	  x2:0x8000874e  x1:0x00005b7f PA:0x8000875b
       26815000	      2680	80002d24	401a8a33	sub	x20,x21,x1	 x21:0x8c4a1000  x1:0x00005b7f x20=0x8c49b481
       26825000	      2681	80002d28	41a3d5b3	sra	x11,x7,x26	  x7:0x00000000 x26:0x80009b55 x11=0x00000000
       26835000	      2682	80002d2c	419d5693	srai	x13,x26,0x19	 x26:0x80009b55 x13=0xffffffc0
       26845000	      2683	80002d30	00911123	sh	x9,2(x2)	  x2:0x8000874e  x9:0x80009fc4 PA:0x80008750
       26855000	      2684	80002d34	2eef6793	ori	x15,x30,750	 x30:0x81659cd8 x15=0x81659efe
       26865000	      2685	80002d38	efdbe193	ori	x3,x23,-259	 x23:0xffffffe1  x3=0xfffffffd
       26875000	      2686	80002d3c	01284e33	xor	x28,x16,x18	 x16:0xfffee663 x18:0x00000056 x28=0xfffee635
       26885000	      2687	80002d40	fe511c23	sh	x5,-8(x2)	  x2:0x8000874e  x5:0x80009f6c PA:0x80008746
       26895000	      2688	80002d44	00005c17	auipc	x24,0x5	 x24=0x80007d40
       26905000	      2689	80002d48	7b4c0c13	addi	x24,x24,1972	 x24:0x80007d40 x24=0x800084f4
       26915000	      2690	80002d4c	41c2d6b3	sra	x13,x5,x28	  x5:0x80009f6c x28:0xfffee635 x13=0xfffffc00
       26925000	      2691	80002d50	01268833	add	x16,x13,x18	 x13:0xfffffc00 x18:0x00000056 x16=0xfffffc56
       26935000	      2692	80002d54	00ac0b83	lb	x23,10(x24)	 x24:0x800084f4 x23=0xffffffe0 PA:0x800084fe
       26945000	      2693	80002d58	ff2c0b83	lb	x23,-14(x24)	 x24:0x800084f4 x23=0x00000036 PA:0x800084e6
       26955000	      2694	80002d5c	000c2983	lw	x19,0(x24)	 x24:0x800084f4 x19=0x07b28122 PA:0x800084f4
       26965000	      2695	00000000	00000013	addi	x0,x0,0	  x0:0x00000000
       26975000	      2696	80002d60	01799f33	sll	x30,x19,x23	 x19:0x07b28122 x23:0x00000036 x30=0x48800000
       26985000	      2697	80002d64	ff5c4103	lbu	x2,-11(x24)	 x24:0x800084f4  x2=0x00000007 PA:0x800084e9
       26995000	      2698	80002d68	01201113	slli	x2,x0,0x12	  x0:0x00000000  x2=0x00000000
       27005000	      2699	80002d6c	01f4b033	sltu	x0,x9,x31	  x9:0x80009fc4 x31:0x000024ba
       27015000	      2700	80002d70	f5c84f13	xori	x30,x16,-164	 x16:0xfffffc56 x30=0x0000030a
       27025000	      2701	80002d74	01aa5533	srl	x10,x20,x26	 x20:0x8c49b481 x26:0x80009b55 x10=0x00000462
       27035000	      2702	80002d78	14e5bb93	sltiu	x23,x11,334	 x11:0x00000000 x23=0x00000001
       27045000	      2703	80002d7c	41f15db3	sra	x27,x2,x31	  x2:0x00000000 x31:0x000024ba x27=0x00000000
       27055000	      2704	80002d80	f454f513	andi	x10,x9,-187	  x9:0x80009fc4 x10=0x80009f44
       27065000	      2705	80002d84	0139db13	srli	x22,x19,0x13	 x19:0x07b28122 x22=0x000000f6
       27075000	      2706	80002d88	00ac0323	sb	x10,6(x24)	 x24:0x800084f4 x10:0x80009f44 PA:0x800084fa
       27085000	      2707	80002d8c	00125433	srl	x8,x4,x1	  x4:0x00000001  x1:0x00005b7f  x8=0x00000000
       27095000	      2708	80002d90	fe3c0a23	sb	x3,-12(x24)	 x24:0x800084f4  x3:0xfffffffd PA:0x800084e8
       27105000	      2709	80002d94	221e0713	addi	x14,x28,545	 x28:0xfffee635 x14=0xfffee856
       27115000	      2710	80002d98	00cc5683	lhu	x13,12(x24)	 x24:0x800084f4 x13=0x0000445b PA:0x80008500
       27125000	      2711	80002d9c	0123cb33	xor	x22,x7,x18	  x7:0x00000000 x18:0x00000056 x22=0x00000056
       27135000	      2712	80002da0	014f1333	sll	x6,x30,x20	 x30:0x0000030a x20:0x8c49b481  x6=0x00000614
       27145000	      2713	80002da4	19a5e117	auipc	x2,0x19a5e	  x2=0x99a60da0
       27155000	      2714	80002da8	00fa1d13	slli	x26,x20,0xf	 x20:0x8c49b481 x26=0xda408000
       27165000	      2715	80002dac	ff6c1a83	lh	x21,-10(x24)	 x24:0x800084f4 x21=0xffffc391 PA:0x800084ea
       27175000	      2716	80002db0	005fff33	and	x30,x31,x5	 x31:0x000024ba  x5:0x80009f6c x30=0x00000428
       27185000	      2717	80002db4	007f5e13	srli	x28,x30,0x7	 x30:0x00000428 x28=0x00000008
       27195000	      2718	80002db8	018cc533	xor	x10,x25,x24	 x25:0x80000000 x24:0x800084f4 x10=0x000084f4
       27205000	      2719	80002dbc	ff3c0d23	sb	x19,-6(x24)	 x24:0x800084f4 x19:0x07b28122 PA:0x800084ee
       27215000	      2720	80002dc0	418fd793	srai	x15,x31,0x18	 x31:0x000024ba x15=0x00000000
       27225000	      2721	80002dc4	004c07a3	sb	x4,15(x24)	 x24:0x800084f4  x4:0x00000001 PA:0x80008503
       27235000	      2722	80002dc8	00006097	auipc	x1,0x6	  x1=0x80008dc4
       27245000	      2723	80002dcc	e9a08093	addi	x1,x1,-358	  x1:0x80008dc4  x1=0x80008c5e
       27255000	      2724	80002dd0	01e0a183	lw	x3,30(x1)	  x1:0x80008c5e  x3=0x006293ca PA:0x80008c7c
       27265000	      2725	80002dd4	34b21417	auipc	x8,0x34b21	  x8=0xb4b23dd0
       27275000	      2726	80002dd8	01c02233	slt	x4,x0,x28	  x0:0x00000000 x28:0x00000008  x4=0x00000001
       27285000	      2727	80002ddc	01d7d593	srli	x11,x15,0x1d	 x15:0x00000000 x11=0x00000000
       27295000	      2728	80002de0	fd9089a3	sb	x25,-45(x1)	  x1:0x80008c5e x25:0x80000000 PA:0x80008c31
       27305000	      2729	80002de4	0280de03	lhu	x28,40(x1)	  x1:0x80008c5e x28=0x00003583 PA:0x80008c86
       27315000	      2730	80002de8	fd30c803	lbu	x16,-45(x1)	  x1:0x80008c5e x16=0x00000000 PA:0x80008c31
       27325000	      2731	80002dec	1cb34713	xori	x14,x6,459	  x6:0x00000614 x14=0x000007df
       27335000	      2732	80002df0	fdd0c203	lbu	x4,-35(x1)	  x1:0x80008c5e  x4=0x0000003e PA:0x80008c3b
       27345000	      2733	80002df4	00808e23	sb	x8,28(x1)	  x1:0x80008c5e  x8:0xb4b23dd0 PA:0x80008c7a
       27355000	      2734	80002df8	01208f03	lb	x30,18(x1)	  x1:0x80008c5e x30=0xffffff8d PA:0x80008c70
       27365000	      2735	80002dfc	fe708703	lb	x14,-25(x1)	  x1:0x80008c5e x14=0x0000005e PA:0x80008c45
       27375000	      2736	80002e00	fe108b83	lb	x23,-31(x1)	  x1:0x80008c5e x23=0x00000034 PA:0x80008c3f
       27385000	      2737	80002e04	03f0c203	lbu	x4,63(x1)	  x1:0x80008c5e  x4=0x00000022 PA:0x80008c9d
       27395000	      2738	80002e08	020080a3	sb	x0,33(x1)	  x1:0x80008c5e  x0:0x00000000 PA:0x80008c7f
       27405000	      2739	80002e0c	411b5833	sra	x16,x22,x17	 x22:0x00000056 x17:0x00000000 x16=0x00000056
       27415000	      2740	80002e10	00e56bb3	or	x23,x10,x14	 x10:0x000084f4 x14:0x0000005e x23=0x000084fe
       27425000	      2741	80002e14	40255433	sra	x8,x10,x2	 x10:0x000084f4  x2:0x99a60da0  x8=0x000084f4
       27435000	      2742	80002e18	04009023	sh	x0,64(x1)	  x1:0x80008c5e  x0:0x00000000 PA:0x80008c9e
       27445000	      2743	80002e1c	011091b3	sll	x3,x1,x17	  x1:0x80008c5e x17:0x00000000  x3=0x80008c5e
       27455000	      2744	80002e20	40db5713	srai	x14,x22,0xd	 x22:0x00000056 x14=0x00000000
       27465000	      2745	80002e24	fd609123	sh	x22,-62(x1)	  x1:0x80008c5e x22:0x00000056 PA:0x80008c20
       27475000	      2746	80002e28	ffc09703	lh	x14,-4(x1)	  x1:0x80008c5e x14=0xffffe1f1 PA:0x80008c5a
       27485000	      2747	80002e2c	b4be6693	ori	x13,x28,-1205	 x28:0x00003583 x13=0xffffffcb
       27495000	      2748	80002e30	fea0ae03	lw	x28,-22(x1)	  x1:0x80008c5e x28=0xeb86ff98 PA:0x80008c48
       27505000	      2749	80002e34	fd50c683	lbu	x13,-43(x1)	  x1:0x80008c5e x13=0x0000005e PA:0x80008c33
       27515000	      2750	80002e38	03208603	lb	x12,50(x1)	  x1:0x80008c5e x12=0x0000002e PA:0x80008c90
       27525000	      2751	80002e3c	2b31ce13	xori	x28,x3,691	  x3:0x80008c5e x28=0x80008eed
       27535000	      2752	80002e40	0330c383	lbu	x7,51(x1)	  x1:0x80008c5e  x7=0x000000aa PA:0x80008c91
       27545000	      2753	80002e44	fc108aa3	sb	x1,-43(x1)	  x1:0x80008c5e  x1:0x80008c5e PA:0x80008c33
       27555000	      2754	80002e48	00c766b3	or	x13,x14,x12	 x14:0xffffe1f1 x12:0x0000002e x13=0xffffe1ff
       27565000	      2755	80002e4c	00aa0fb3	add	x31,x20,x10	 x20:0x8c49b481 x10:0x000084f4 x31=0x8c4a3975
       27575000	      2756	80002e50	777a2893	slti	x17,x20,1911	 x20:0x8c49b481 x17=0x00000001
       27585000	      2757	80002e54	03a08883	lb	x17,58(x1)	  x1:0x80008c5e x17=0x0000006d PA:0x80008c98
       27595000	      2758	80002e58	02309a23	sh	x3,52(x1)	  x1:0x80008c5e  x3:0x80008c5e PA:0x80008c92
       27605000	      2759	80002e5c	00b08983	lb	x19,11(x1)	  x1:0x80008c5e x19=0xffffffb9 PA:0x80008c69
       27615000	      2760	80002e60	002ce233	or	x4,x25,x2	 x25:0x80000000  x2:0x99a60da0  x4=0x99a60da0
       27625000	      2761	80002e64	40ed8d33	sub	x26,x27,x14	 x27:0x00000000 x14:0xffffe1f1 x26=0x00001e0f
       27635000	      2762	80002e68	fee0d703	lhu	x14,-18(x1)	  x1:0x80008c5e x14=0x000072f9 PA:0x80008c4c
       27645000	      2763	80002e6c	02b98a63	beq	x19,x11,80002ea0	 x19:0xffffffb9 x11:0x00000000
       27655000	      2764	80002e70	016c5813	srli	x16,x24,0x16	 x24:0x800084f4 x16=0x00000200
       27665000	      2765	80002e74	41f2d993	srai	x19,x5,0x1f	  x5:0x80009f6c x19=0xffffffff
       27675000	      2766	80002e78	017a8e63	beq	x21,x23,80002e94	 x21:0xffffc391 x23:0x000084fe
       27685000	      2767	80002e7c	fdf3e413	ori	x8,x7,-33	  x7:0x000000aa  x8=0xffffffff
       27695000	      2768	80002e80	01deb633	sltu	x12,x29,x29	 x29:0xffffffe6 x29:0xffffffe6 x12=0x00000000
       27705000	      2769	80002e84	00fd45b3	xor	x11,x26,x15	 x26:0x00001e0f x15:0x00000000 x11=0x00001e0f
       27715000	      2770	80002e88	04079263	bne	x15,x0,80002ecc	 x15:0x00000000  x0:0x00000000
       27725000	      2771	80002e8c	407c5413	srai	x8,x24,0x7	 x24:0x800084f4  x8=0xff000109
       27735000	      2772	80002e90	03735063	bge	x6,x23,80002eb0	  x6:0x00000614 x23:0x000084fe
       27745000	      2773	80002e94	b5d7c193	xori	x3,x15,-1187	 x15:0x00000000  x3=0xfffffb5d
       27755000	      2774	80002e98	01848833	add	x16,x9,x24	  x9:0x80009fc4 x24:0x800084f4 x16=0x000124b8
       27765000	      2775	80002e9c	f38d2893	slti	x17,x26,-200	 x26:0x00001e0f x17=0x00000000
       27775000	      2776	80002ea0	41bc0233	sub	x4,x24,x27	 x24:0x800084f4 x27:0x00000000  x4=0x800084f4
       27785000	      2777	80002ea4	00d4b9b3	sltu	x19,x9,x13	  x9:0x80009fc4 x13:0xffffe1ff x19=0x00000001
       27795000	      2778	80002ea8	1d148117	auipc	x2,0x1d148	  x2=0x9d14aea4
       27805000	      2779	80002eac	000f7833	and	x16,x30,x0	 x30:0xffffff8d  x0:0x00000000 x16=0x00000000
       27815000	      2780	80002eb0	00aa9713	slli	x14,x21,0xa	 x21:0xffffc391 x14=0xff0e4400
       27825000	      2781	80002eb4	ee968393	addi	x7,x13,-279	 x13:0xffffe1ff  x7=0xffffe0e8
       27835000	      2782	80002eb8	00a77533	and	x10,x14,x10	 x14:0xff0e4400 x10:0x000084f4 x10=0x00000400
       27845000	      2783	80002ebc	d2b6ba37	lui	x20,0xd2b6b	 x20=0xd2b6b000
       27855000	      2784	80002ec0	659a0337	lui	x6,0x659a0	  x6=0x659a0000
       27865000	      2785	80002ec4	02ed5463	bge	x26,x14,80002eec	 x26:0x00001e0f x14:0xff0e4400
       27875000	      2786	00000000	00000013	addi	x0,x0,0	  x0:0x00000000
       27885000	      2787	80002ee8	00000013	addi	x0,x0,0	  x0:0x00000000
       27895000	      2788	80002eec	00856263	bltu	x10,x8,80002ef0	 x10:0x00000400  x8:0xff000109
       27905000	      2789	00000000	00000013	addi	x0,x0,0	  x0:0x00000000
       27915000	      2790	80002eec	00000013	addi	x0,x0,0	  x0:0x00000000
       27925000	      2791	80002ef0	00259863	bne	x11,x2,80002f00	 x11:0x00001e0f  x2:0x9d14aea4
       27935000	      2792	00000000	00000013	addi	x0,x0,0	  x0:0x00000000
       27945000	      2793	80002efc	00000013	addi	x0,x0,0	  x0:0x00000000
       27955000	      2794	80002f00	00377533	and	x10,x14,x3	 x14:0xff0e4400  x3:0xfffffb5d x10=0xff0e4000
       27965000	      2795	80002f04	408a5113	srai	x2,x20,0x8	 x20:0xd2b6b000  x2=0xffd2b6b0
       27975000	      2796	80002f08	01acd933	srl	x18,x25,x26	 x25:0x80000000 x26:0x00001e0f x18=0x00010000
       27985000	      2797	80002f0c	00177263	bgeu	x14,x1,80002f10	 x14:0xff0e4400  x1:0x80008c5e
       27995000	      2798	00000000	00000013	addi	x0,x0,0	  x0:0x00000000
       28005000	      2799	80002f0c	00000013	addi	x0,x0,0	  x0:0x00000000
       28015000	      2800	80002f10	02ed7463	bgeu	x26,x14,80002f38	 x26:0x00001e0f x14:0xff0e4400
       28025000	      2801	80002f14	e5510593	addi	x11,x2,-427	  x2:0xffd2b6b0 x11=0xffd2b505
       28035000	      2802	80002f18	013a0ab3	add	x21,x20,x19	 x20:0xd2b6b000 x19:0x00000001 x21=0xd2b6b001
       28045000	      2803	80002f1c	99cb0e93	addi	x29,x22,-1636	 x22:0x00000056 x29=0xfffff9f2
       28055000	      2804	80002f20	9d0fea13	ori	x20,x31,-1584	 x31:0x8c4a3975 x20=0xfffff9f5
       28065000	      2805	80002f24	0017ff33	and	x30,x15,x1	 x15:0x00000000  x1:0x80008c5e x30=0x00000000
       28075000	      2806	80002f28	03854263	blt	x10,x24,80002f4c	 x10:0xff0e4000 x24:0x800084f4
       28085000	      2807	80002f2c	01ee0333	add	x6,x28,x30	 x28:0x80008eed x30:0x00000000  x6=0x80008eed
       28095000	      2808	80002f30	dccbb8b7	lui	x17,0xdccbb	 x17=0xdccbb000
       28105000	      2809	80002f34	c6652937	lui	x18,0xc6652	 x18=0xc6652000
       28115000	      2810	80002f38	6df27993	andi	x19,x4,1759	  x4:0x800084f4 x19=0x000004d4
       28125000	      2811	80002f3c	007db933	sltu	x18,x27,x7	 x27:0x00000000  x7:0xffffe0e8 x18=0x00000001
       28135000	      2812	80002f40	00bb3933	sltu	x18,x22,x11	 x22:0x00000056 x11:0xffd2b505 x18=0x00000001
       28145000	      2813	80002f44	40495793	srai	x15,x18,0x4	 x18:0x00000001 x15=0x00000000
       28155000	      2814	80002f48	01db9663	bne	x23,x29,80002f54	 x23:0x000084fe x29:0xfffff9f2
       28165000	      2815	00000000	00000013	addi	x0,x0,0	  x0:0x00000000
       28175000	      2816	80002f50	00000013	addi	x0,x0,0	  x0:0x00000000
       28185000	      2817	80002f54	2bdba893	slti	x17,x23,701	 x23:0x000084fe x17=0x00000000
       28195000	      2818	80002f58	007fcdb3	xor	x27,x31,x7	 x31:0x8c4a3975  x7:0xffffe0e8 x27=0x73b5d99d
       28205000	      2819	80002f5c	035c6e63	bltu	x24,x21,80002f98	 x24:0x800084f4 x21:0xd2b6b001
       28215000	      2820	00000000	00000013	addi	x0,x0,0	  x0:0x00000000
       28225000	      2821	80002f94	00000013	addi	x0,x0,0	  x0:0x00000000
       28235000	      2822	80002f98	023ede63	bge	x29,x3,80002fd4	 x29:0xfffff9f2  x3:0xfffffb5d
       28245000	      2823	80002f9c	28ba8213	addi	x4,x21,651	 x21:0xd2b6b001  x4=0xd2b6b28c
       28255000	      2824	80002fa0	00b31313	slli	x6,x6,0xb	  x6:0x80008eed  x6=0x04776800
       28265000	      2825	80002fa4	c6f58613	addi	x12,x11,-913	 x11:0xffd2b505 x12=0xffd2b174
       28275000	      2826	80002fa8	00000013	addi	x0,x0,0	  x0:0x00000000
       28285000	      2827	80002fac	01ee2233	slt	x4,x28,x30	 x28:0x80008eed x30:0x00000000  x4=0x00000001
       28295000	      2828	80002fb0	0062d113	srli	x2,x5,0x6	  x5:0x80009f6c  x2=0x0200027d
       28305000	      2829	80002fb4	01d62033	slt	x0,x12,x29	 x12:0xffd2b174 x29:0xfffff9f2
       28315000	      2830	80002fb8	41c4df93	srai	x31,x9,0x1c	  x9:0x80009fc4 x31=0xfffffff8
       28325000	      2831	80002fbc	01574e33	xor	x28,x14,x21	 x14:0xff0e4400 x21:0xd2b6b001 x28=0x2db8f401
       28335000	      2832	80002fc0	01cb5893	srli	x17,x22,0x1c	 x22:0x00000056 x17=0x00000000
       28345000	      2833	80002fc4	d7200f13	addi	x30,x0,-654	  x0:0x00000000 x30=0xfffffd72
       28355000	      2834	80002fc8	009e4e63	blt	x28,x9,80002fe4	 x28:0x2db8f401  x9:0x80009fc4
       28365000	      2835	80002fcc	00000013	addi	x0,x0,0	  x0:0x00000000
       28375000	      2836	80002fd0	40b48633	sub	x12,x9,x11	  x9:0x80009fc4 x11:0xffd2b505 x12=0x802deabf
       28385000	      2837	80002fd4	ccc5a993	slti	x19,x11,-820	 x11:0xffd2b505 x19=0x00000001
       28395000	      2838	80002fd8	3cfb4513	xori	x10,x22,975	 x22:0x00000056 x10=0x00000399
       28405000	      2839	80002fdc	019f0933	add	x18,x30,x25	 x30:0xfffffd72 x25:0x80000000 x18=0x7ffffd72
       28415000	      2840	80002fe0	00a77c33	and	x24,x14,x10	 x14:0xff0e4400 x10:0x00000399 x24=0x00000000
       28425000	      2841	80002fe4	5e384793	xori	x15,x16,1507	 x16:0x00000000 x15=0x000005e3
       28435000	      2842	80002fe8	4abc6093	ori	x1,x24,1195	 x24:0x00000000  x1=0x000004ab
       28445000	      2843	80002fec	01041bb3	sll	x23,x8,x16	  x8:0xff000109 x16:0x00000000 x23=0xff000109
       28455000	      2844	80002ff0	00f23b33	sltu	x22,x4,x15	  x4:0x00000001 x15:0x000005e3 x22=0x00000001
       28465000	      2845	80002ff4	0412e063	bltu	x5,x1,80003034	  x5:0x80009f6c  x1:0x000004ab
       28475000	      2846	80002ff8	514cf893	andi	x17,x25,1300	 x25:0x80000000 x17=0x00000000
       28485000	      2847	80002ffc	01336263	bltu	x6,x19,80003000	  x6:0x04776800 x19:0x00000001
       28495000	      2848	80003000	01d318b3	sll	x17,x6,x29	  x6:0x04776800 x29:0xfffff9f2 x17=0xa0000000
       28505000	      2849	80003004	00619e63	bne	x3,x6,80003020	  x3:0xfffffb5d  x6:0x04776800
       28515000	      2850	00000000	00000013	addi	x0,x0,0	  x0:0x00000000
       28525000	      2851	8000301c	00000013	addi	x0,x0,0	  x0:0x00000000
       28535000	      2852	80003020	0236f463	bgeu	x13,x3,80003048	 x13:0xffffe1ff  x3:0xfffffb5d
       28545000	      2853	80003024	03744463	blt	x8,x23,8000304c	  x8:0xff000109 x23:0xff000109
       28555000	      2854	80003028	34b3f117	auipc	x2,0x34b3f	  x2=0xb4b42024
       28565000	      2855	8000302c	4013da93	srai	x21,x7,0x1	  x7:0xffffe0e8 x21=0xfffff074
       28575000	      2856	80003030	40a05f13	srai	x30,x0,0xa	  x0:0x00000000 x30=0x00000000
       28585000	      2857	80003034	01871e63	bne	x14,x24,80003050	 x14:0xff0e4400 x24:0x00000000
       28595000	      2858	00000000	00000013	addi	x0,x0,0	  x0:0x00000000
       28605000	      2859	8000304c	00000013	addi	x0,x0,0	  x0:0x00000000
       28615000	      2860	80003050	40135b33	sra	x22,x6,x1	  x6:0x04776800  x1:0x000004ab x22=0x00008eed
       28625000	      2861	80003054	6f1d4fb7	lui	x31,0x6f1d4	 x31=0x6f1d4000
       28635000	      2862	80003058	40b855b3	sra	x11,x16,x11	 x16:0x00000000 x11:0xffd2b505 x11=0x00000000
       28645000	      2863	8000305c	1248e893	ori	x17,x17,292	 x17:0xa0000000 x17=0xa0000124
       28655000	      2864	80003060	04d63637	lui	x12,0x4d63	 x12=0x04d63000
       28665000	      2865	80003064	0137a133	slt	x2,x15,x19	 x15:0x000005e3 x19:0x00000001  x2=0x00000000
       28675000	      2866	80003068	05bdc263	blt	x27,x27,800030ac	 x27:0x73b5d99d x27:0x73b5d99d
       28685000	      2867	8000306c	76618c13	addi	x24,x3,1894	  x3:0xfffffb5d x24=0x000002c3
       28695000	      2868	80003070	41cbd433	sra	x8,x23,x28	 x23:0xff000109 x28:0x2db8f401  x8=0xff800084
       28705000	      2869	80003074	409b0d33	sub	x26,x22,x9	 x22:0x00008eed  x9:0x80009fc4 x26=0x7fffef29
       28715000	      2870	80003078	00e44833	xor	x16,x8,x14	  x8:0xff800084 x14:0xff0e4400 x16=0x008e4484
       28725000	      2871	8000307c	d701fd93	andi	x27,x3,-656	  x3:0xfffffb5d x27=0xfffff950
       28735000	      2872	80003080	0102d313	srli	x6,x5,0x10	  x5:0x80009f6c  x6=0x00008000
       28745000	      2873	80003084	010d5a63	bge	x26,x16,80003098	 x26:0x7fffef29 x16:0x008e4484
       28755000	      2874	00000000	00000013	addi	x0,x0,0	  x0:0x00000000
       28765000	      2875	80003094	00000013	addi	x0,x0,0	  x0:0x00000000
       28775000	      2876	80003098	023c1463	bne	x24,x3,800030c0	 x24:0x000002c3  x3:0xfffffb5d
       28785000	      2877	00000000	00000013	addi	x0,x0,0	  x0:0x00000000
       28795000	      2878	800030bc	00000013	addi	x0,x0,0	  x0:0x00000000
       28805000	      2879	800030c0	04488263	beq	x17,x4,80003104	 x17:0xa0000124  x4:0x00000001
       28815000	      2880	800030c4	4106d393	srai	x7,x13,0x10	 x13:0xffffe1ff  x7=0xffffffff
       28825000	      2881	800030c8	01b47fb3	and	x31,x8,x27	  x8:0xff800084 x27:0xfffff950 x31=0xff800000
       28835000	      2882	800030cc	ffffde97	auipc	x29,0xffffd	 x29=0x800000c8
       28845000	      2883	800030d0	200e8e93	addi	x29,x29,512	 x29:0x800000c8 x29=0x800002c8
       28855000	      2884	800030d4	07236f13	ori	x30,x6,114	  x6:0x00008000 x30=0x00008072
       28865000	      2885	800030d8	9e994097	auipc	x1,0x9e994	  x1=0x1e9970d4
       28875000	      2886	800030dc	01af5a13	srli	x20,x30,0x1a	 x30:0x00008072 x20=0x00000000
       28885000	      2887	800030e0	c178f913	andi	x18,x17,-1001	 x17:0xa0000124 x18=0xa0000004
       28895000	      2888	800030e4	0a9e8e93	addi	x29,x29,169	 x29:0x800002c8 x29=0x80000371
       28905000	      2889	800030e8	41815413	srai	x8,x2,0x18	  x2:0x00000000  x8=0x00000000
       28915000	      2890	800030ec	f58e8367	jalr	x6,x29,-168	 x29:0x80000371  x6=0x800030ec
       28925000	      2891	00000000	00000013	addi	x0,x0,0	  x0:0x00000000
       28935000	      2892	800002c8	00000013	addi	x0,x0,0	  x0:0x00000000
       28945000	      2893	800002cc	41ba5713	srai	x14,x20,0x1b	 x20:0x00000000 x14=0x00000000
       28955000	      2894	800002d0	00d5e5b3	or	x11,x11,x13	 x11:0x00000000 x13:0xffffe1ff x11=0xffffe1ff
       28965000	      2895	800002d4	01bf3033	sltu	x0,x30,x27	 x30:0x00008072 x27:0xfffff950
       28975000	      2896	800002d8	00ea2633	slt	x12,x20,x14	 x20:0x00000000 x14:0x00000000 x12=0x00000000
       28985000	      2897	800002dc	fcc28293	addi	x5,x5,-52	  x5:0x80009f6c  x5=0x80009f38
       28995000	      2898	800002e0	b2d62693	slti	x13,x12,-1235	 x12:0x00000000 x13=0x00000000
       29005000	      2899	800002e4	005960b3	or	x1,x18,x5	 x18:0xa0000004  x5:0x80009f38  x1=0xa0009f3c
       29015000	      2900	800002e8	0190f1b3	and	x3,x1,x25	  x1:0xa0009f3c x25:0x80000000  x3=0x80000000
       29025000	      2901	800002ec	0062a223	sw	x6,4(x5)	  x5:0x80009f38  x6:0x800030ec PA:0x80009f3c
       29035000	      2902	800002f0	414a8bb3	sub	x23,x21,x20	 x21:0xfffff074 x20:0x00000000 x23=0xfffff074
       29045000	      2903	800002f4	00009117	auipc	x2,0x9	  x2=0x800092f0
       29055000	      2904	800002f8	86110113	addi	x2,x2,-1951	  x2:0x800092f0  x2=0x80008b51
       29065000	      2905	800002fc	fde10f83	lb	x31,-34(x2)	  x2:0x80008b51 x31=0xffffffc3 PA:0x80008b2f
       29075000	      2906	80000300	fdc10a03	lb	x20,-36(x2)	  x2:0x80008b51 x20=0x00000079 PA:0x80008b2d
       29085000	      2907	80000304	01cbaab3	slt	x21,x23,x28	 x23:0xfffff074 x28:0x2db8f401 x21=0x00000001
       29095000	      2908	80000308	003c4a33	xor	x20,x24,x3	 x24:0x000002c3  x3:0x80000000 x20=0x800002c3
       29105000	      2909	8000030c	1bb9eab7	lui	x21,0x1bb9e	 x21=0x1bb9e000
       29115000	      2910	80000310	48e87593	andi	x11,x16,1166	 x16:0x008e4484 x11=0x00000484
       29125000	      2911	80000314	02c14803	lbu	x16,44(x2)	  x2:0x80008b51 x16=0x000000bd PA:0x80008b7d
       29135000	      2912	80000318	40b48f33	sub	x30,x9,x11	  x9:0x80009fc4 x11:0x00000484 x30=0x80009b40
       29145000	      2913	8000031c	006ffc33	and	x24,x31,x6	 x31:0xffffffc3  x6:0x800030ec x24=0x800030c0
       29155000	      2914	80000320	37babf93	sltiu	x31,x21,891	 x21:0x1bb9e000 x31=0x00000000
       29165000	      2915	80000324	414d8b33	sub	x22,x27,x20	 x27:0xfffff950 x20:0x800002c3 x22=0x7ffff68d
       29175000	      2916	80000328	51b28d13	addi	x26,x5,1307	  x5:0x80009f38 x26=0x8000a453
       29185000	      2917	8000032c	94dcca13	xori	x20,x25,-1715	 x25:0x80000000 x20=0x7ffff94d
       29195000	      2918	80000330	ff9129a3	sw	x25,-13(x2)	  x2:0x80008b51 x25:0x80000000 PA:0x80008b44
       29205000	      2919	80000334	fce12ba3	sw	x14,-41(x2)	  x2:0x80008b51 x14:0x00000000 PA:0x80008b28
       29215000	      2920	80000338	fdd10ea3	sb	x29,-35(x2)	  x2:0x80008b51 x29:0x80000371 PA:0x80008b2e
       29225000	      2921	8000033c	fc914883	lbu	x17,-55(x2)	  x2:0x80008b51 x17=0x000000fe PA:0x80008b1a
       29235000	      2922	80000340	e5acf013	andi	x0,x25,-422	 x25:0x80000000
       29245000	      2923	80000344	01541713	slli	x14,x8,0x15	  x8:0x00000000 x14=0x00000000
       29255000	      2924	80000348	00d114a3	sh	x13,9(x2)	  x2:0x80008b51 x13:0x00000000 PA:0x80008b5a
       29265000	      2925	8000034c	ffa10da3	sb	x26,-5(x2)	  x2:0x80008b51 x26:0x8000a453 PA:0x80008b4c
       29275000	      2926	80000350	e62c4a93	xori	x21,x24,-414	 x24:0x800030c0 x21=0x7fffcea2
       29285000	      2927	80000354	ffd14503	lbu	x10,-3(x2)	  x2:0x80008b51 x10=0x00000083 PA:0x80008b4e
       29295000	      2928	80000358	416dd3b3	sra	x7,x27,x22	 x27:0xfffff950 x22:0x7ffff68d  x7=0xffffffff
       29305000	      2929	8000035c	01312803	lw	x16,19(x2)	  x2:0x80008b51 x16=0x84db5895 PA:0x80008b64
       29315000	      2930	80000360	e9e48593	addi	x11,x9,-354	  x9:0x80009fc4 x11=0x80009e62
       29325000	      2931	80000364	3f394e13	xori	x28,x18,1011	 x18:0xa0000004 x28=0xa00003f7
       29335000	      2932	80000368	002051b3	srl	x3,x0,x2	  x0:0x00000000  x2:0x80008b51  x3=0x00000000
       29345000	      2933	8000036c	e7247e13	andi	x28,x8,-398	  x8:0x00000000 x28=0x00000000
       29355000	      2934	80000370	007daeb3	slt	x29,x27,x7	 x27:0xfffff950  x7:0xffffffff x29=0x00000001
       29365000	      2935	80000374	fe410983	lb	x19,-28(x2)	  x2:0x80008b51 x19=0xffffffbd PA:0x80008b35
       29375000	      2936	80000378	00d163b3	or	x7,x2,x13	  x2:0x80008b51 x13:0x00000000  x7=0x80008b51
       29385000	      2937	8000037c	ff110303	lb	x6,-15(x2)	  x2:0x80008b51  x6=0xffffff85 PA:0x80008b42
       29395000	      2938	80000380	00f116a3	sh	x15,13(x2)	  x2:0x80008b51 x15:0x000005e3 PA:0x80008b5e
       29405000	      2939	80000384	00009d17	auipc	x26,0x9	 x26=0x80009380
       29415000	      2940	80000388	822d0d13	addi	x26,x26,-2014	 x26:0x80009380 x26=0x80008ba2
       29425000	      2941	8000038c	0120ebb3	or	x23,x1,x18	  x1:0xa0009f3c x18:0xa0000004 x23=0xa0009f3c
       29435000	      2942	80000390	62f2a113	slti	x2,x5,1583	  x5:0x80009f38  x2=0x00000001
       29445000	      2943	80000394	07fbf317	auipc	x6,0x7fbf	  x6=0x87fbf390
       29455000	      2944	80000398	00e33633	sltu	x12,x6,x14	  x6:0x87fbf390 x14:0x00000000 x12=0x00000000
       29465000	      2945	8000039c	7cd78a93	addi	x21,x15,1997	 x15:0x000005e3 x21=0x00000db0
       29475000	      2946	800003a0	4163df33	sra	x30,x7,x22	  x7:0x80008b51 x22:0x7ffff68d x30=0xfffc0004
       29485000	      2947	800003a4	00397233	and	x4,x18,x3	 x18:0xa0000004  x3:0x00000000  x4=0x00000000
       29495000	      2948	800003a8	018d2323	sw	x24,6(x26)	 x26:0x80008ba2 x24:0x800030c0 PA:0x80008ba8
       29505000	      2949	800003ac	fecd1c23	sh	x12,-8(x26)	 x26:0x80008ba2 x12:0x00000000 PA:0x80008b9a
       29515000	      2950	800003b0	ff6d0ca3	sb	x22,-7(x26)	 x26:0x80008ba2 x22:0x7ffff68d PA:0x80008b9b
       29525000	      2951	800003b4	01fe1213	slli	x4,x28,0x1f	 x28:0x00000000  x4=0x00000000
       29535000	      2952	800003b8	017d85b3	add	x11,x27,x23	 x27:0xfffff950 x23:0xa0009f3c x11=0xa000988c
       29545000	      2953	800003bc	00be1233	sll	x4,x28,x11	 x28:0x00000000 x11:0xa000988c  x4=0x00000000
       29555000	      2954	800003c0	ff1d4f83	lbu	x31,-15(x26)	 x26:0x80008ba2 x31=0x000000ac PA:0x80008b93
       29565000	      2955	800003c4	fecd0ba3	sb	x12,-9(x26)	 x26:0x80008ba2 x12:0x00000000 PA:0x80008b99
       29575000	      2956	800003c8	006eb133	sltu	x2,x29,x6	 x29:0x00000001  x6:0x87fbf390  x2=0x00000001
       29585000	      2957	800003cc	ffcd0003	lb	x0,-4(x26)	 x26:0x80008ba2 PA:0x80008b9e
       29595000	      2958	800003d0	002cd213	srli	x4,x25,0x2	 x25:0x80000000  x4=0x20000000
       29605000	      2959	800003d4	40d5d593	srai	x11,x11,0xd	 x11:0xa000988c x11=0xfffd0004
       29615000	      2960	800003d8	fe6d0ea3	sb	x6,-3(x26)	 x26:0x80008ba2  x6:0x87fbf390 PA:0x80008b9f
       29625000	      2961	800003dc	41495f93	srai	x31,x18,0x14	 x18:0xa0000004 x31=0xfffffa00
       29635000	      2962	800003e0	ff0d0503	lb	x10,-16(x26)	 x26:0x80008ba2 x10=0x0000002a PA:0x80008b92
       29645000	      2963	800003e4	ff7d4503	lbu	x10,-9(x26)	 x26:0x80008ba2 x10=0x00000000 PA:0x80008b99
       29655000	      2964	800003e8	ffad0083	lb	x1,-6(x26)	 x26:0x80008ba2  x1=0xffffffbe PA:0x80008b9c
       29665000	      2965	800003ec	ebc5be13	sltiu	x28,x11,-324	 x11:0xfffd0004 x28=0x00000001
       29675000	      2966	800003f0	01925ab3	srl	x21,x4,x25	  x4:0x20000000 x25:0x80000000 x21=0x20000000
       29685000	      2967	800003f4	018d2323	sw	x24,6(x26)	 x26:0x80008ba2 x24:0x800030c0 PA:0x80008ba8
       29695000	      2968	800003f8	003d0503	lb	x10,3(x26)	 x26:0x80008ba2 x10=0xffffffba PA:0x80008ba5
       29705000	      2969	800003fc	002b2833	slt	x16,x22,x2	 x22:0x7ffff68d  x2:0x00000001 x16=0x00000000
       29715000	      2970	80000400	ded2e393	ori	x7,x5,-531	  x5:0x80009f38  x7=0xfffffffd
       29725000	      2971	80000404	010d0e03	lb	x28,16(x26)	 x26:0x80008ba2 x28=0xffffffb0 PA:0x80008bb2
       29735000	      2972	80000408	fefd1e23	sh	x15,-4(x26)	 x26:0x80008ba2 x15:0x000005e3 PA:0x80008b9e
       29745000	      2973	8000040c	00000013	addi	x0,x0,0	  x0:0x00000000
       29755000	      2974	80000410	016d07a3	sb	x22,15(x26)	 x26:0x80008ba2 x22:0x7ffff68d PA:0x80008bb1
       29765000	      2975	80000414	009d00a3	sb	x9,1(x26)	 x26:0x80008ba2  x9:0x80009fc4 PA:0x80008ba3
       29775000	      2976	80000418	00008897	auipc	x17,0x8	 x17=0x80008414
       29785000	      2977	8000041c	e7588893	addi	x17,x17,-395	 x17:0x80008414 x17=0x80008289
       29795000	      2978	80000420	e3e88983	lb	x19,-450(x17)	 x17:0x80008289 x19=0x0000006d PA:0x800080c7
       29805000	      2979	80000424	e8e89fa3	sh	x14,-353(x17)	 x17:0x80008289 x14:0x00000000 PA:0x80008128
       29815000	      2980	80000428	48d89e03	lh	x28,1165(x17)	 x17:0x80008289 x28=0x000040c8 PA:0x80008716
       29825000	      2981	8000042c	d7e2a593	slti	x11,x5,-642	  x5:0x80009f38 x11=0x00000001
       29835000	      2982	80000430	0f988023	sb	x25,224(x17)	 x17:0x80008289 x25:0x80000000 PA:0x80008369
       29845000	      2983	80000434	01afe333	or	x6,x31,x26	 x31:0xfffffa00 x26:0x80008ba2  x6=0xfffffba2
       29855000	      2984	80000438	01650d33	add	x26,x10,x22	 x10:0xffffffba x22:0x7ffff68d x26=0x7ffff647
       29865000	      2985	8000043c	530896a3	sh	x16,1325(x17)	 x17:0x80008289 x16:0x00000000 PA:0x800087b6
       29875000	      2986	80000440	02e88003	lb	x0,46(x17)	 x17:0x80008289 PA:0x800082b7
       29885000	      2987	80000444	54888903	lb	x18,1352(x17)	 x17:0x80008289 x18=0xffffffc7 PA:0x800087d1
       29895000	      2988	80000448	5398db83	lhu	x23,1337(x17)	 x17:0x80008289 x23=0x0000e6da PA:0x800087c2
       29905000	      2989	8000044c	40088e23	sb	x0,1052(x17)	 x17:0x80008289  x0:0x00000000 PA:0x800086a5
       29915000	      2990	80000450	e3888c03	lb	x24,-456(x17)	 x17:0x80008289 x24=0x0000002c PA:0x800080c1
       29925000	      2991	80000454	09a88b03	lb	x22,154(x17)	 x17:0x80008289 x22=0x00000036 PA:0x80008323
       29935000	      2992	80000458	9785e793	ori	x15,x11,-1672	 x11:0x00000001 x15=0xfffff979
       29945000	      2993	8000045c	00831913	slli	x18,x6,0x8	  x6:0xfffffba2 x18=0xfffba200
       29955000	      2994	80000460	ebc8a3a3	sw	x28,-345(x17)	 x17:0x80008289 x28:0x000040c8 PA:0x80008130
       29965000	      2995	80000464	35b8db83	lhu	x23,859(x17)	 x17:0x80008289 x23=0x000002a2 PA:0x800085e4
       29975000	      2996	80000468	fdc88ba3	sb	x28,-41(x17)	 x17:0x80008289 x28:0x000040c8 PA:0x80008260
       29985000	      2997	8000046c	f448afa3	sw	x4,-161(x17)	 x17:0x80008289  x4:0x20000000 PA:0x800081e8
       29995000	      2998	80000470	056894a3	sh	x22,73(x17)	 x17:0x80008289 x22:0x00000036 PA:0x800082d2
       30005000	      2999	80000474	195e6113	ori	x2,x28,405	 x28:0x000040c8  x2=0x000041dd
       30015000	      3000	80000478	4fa88183	lb	x3,1274(x17)	 x17:0x80008289  x3=0x00000001 PA:0x80008783
       30025000	      3001	8000047c	eb688703	lb	x14,-330(x17)	 x17:0x80008289 x14=0x00000017 PA:0x8000813f
       30035000	      3002	80000480	00000013	addi	x0,x0,0	  x0:0x00000000
       30045000	      3003	80000484	00dd5233	srl	x4,x26,x13	 x26:0x7ffff647 x13:0x00000000  x4=0x7ffff647
       30055000	      3004	80000488	20088a83	lb	x21,512(x17)	 x17:0x80008289 x21=0xffffffca PA:0x80008489
       30065000	      3005	8000048c	068883a3	sb	x8,103(x17)	 x17:0x80008289  x8:0x00000000 PA:0x800082f0
       30075000	      3006	80000490	13688403	lb	x8,310(x17)	 x17:0x80008289  x8=0x00000046 PA:0x800083bf
       30085000	      3007	80000494	12d89383	lh	x7,301(x17)	 x17:0x80008289  x7=0x000057e8 PA:0x800083b6
       30095000	      3008	80000498	40ed86b3	sub	x13,x27,x14	 x27:0xfffff950 x14:0x00000017 x13=0xfffff939
       30105000	      3009	8000049c	ec58c383	lbu	x7,-315(x17)	 x17:0x80008289  x7=0x000000ae PA:0x8000814e
       30115000	      3010	800004a0	8557cf93	xori	x31,x15,-1963	 x15:0xfffff979 x31=0x0000012c
       30125000	      3011	800004a4	44d8cb03	lbu	x22,1101(x17)	 x17:0x80008289 x22=0x00000045 PA:0x800086d6
       30135000	      3012	800004a8	01311a13	slli	x20,x2,0x13	  x2:0x000041dd x20=0x0ee80000
       30145000	      3013	800004ac	19a897a3	sh	x26,399(x17)	 x17:0x80008289 x26:0x7ffff647 PA:0x80008418
       30155000	      3014	800004b0	e5b8c903	lbu	x18,-421(x17)	 x17:0x80008289 x18=0x00000015 PA:0x800080e4
       30165000	      3015	800004b4	3fc88223	sb	x28,996(x17)	 x17:0x80008289 x28:0x000040c8 PA:0x8000866d
       30175000	      3016	800004b8	3618de03	lhu	x28,865(x17)	 x17:0x80008289 x28=0x0000b72d PA:0x800085ea
       30185000	      3017	800004bc	00eb1913	slli	x18,x22,0xe	 x22:0x00000045 x18=0x00114000
       30195000	      3018	800004c0	41928533	sub	x10,x5,x25	  x5:0x80009f38 x25:0x80000000 x10=0x00009f38
       30205000	      3019	800004c4	1af8d603	lhu	x12,431(x17)	 x17:0x80008289 x12=0x00009571 PA:0x80008438
       30215000	      3020	800004c8	00dd4433	xor	x8,x26,x13	 x26:0x7ffff647 x13:0xfffff939  x8=0x80000f7e
       30225000	      3021	800004cc	00bcfbb3	and	x23,x25,x11	 x25:0x80000000 x11:0x00000001 x23=0x00000000
       30235000	      3022	800004d0	3af88f03	lb	x30,943(x17)	 x17:0x80008289 x30=0x0000001c PA:0x80008638
       30245000	      3023	800004d4	00008117	auipc	x2,0x8	  x2=0x800084d0
       30255000	      3024	800004d8	cfa10113	addi	x2,x2,-774	  x2:0x800084d0  x2=0x800081ca
       30265000	      3025	800004dc	94ce0193	addi	x3,x28,-1716	 x28:0x0000b72d  x3=0x0000b079
       30275000	      3026	800004e0	40895433	sra	x8,x18,x8	 x18:0x00114000  x8:0x80000f7e  x8=0x00000000
       30285000	      3027	800004e4	00910383	lb	x7,9(x2)	  x2:0x800081ca  x7=0x00000059 PA:0x800081d3
       30295000	      3028	800004e8	4f882f93	slti	x31,x16,1272	 x16:0x00000000 x31=0x00000001
       30305000	      3029	800004ec	a0e10e17	auipc	x28,0xa0e10	 x28=0x20e104e8
       30315000	      3030	800004f0	b67930b7	lui	x1,0xb6793	  x1=0xb6793000
       30325000	      3031	800004f4	00691bb3	sll	x23,x18,x6	 x18:0x00114000  x6:0xfffffba2 x23=0x00450000
       30335000	      3032	800004f8	ffd10083	lb	x1,-3(x2)	  x2:0x800081ca  x1=0xffffffdf PA:0x800081c7
       30345000	      3033	800004fc	ff211703	lh	x14,-14(x2)	  x2:0x800081ca x14=0xffffd677 PA:0x800081bc
       30355000	      3034	80000500	e343ca93	xori	x21,x7,-460	  x7:0x00000059 x21=0xfffffe6d
       30365000	      3035	80000504	002448b3	xor	x17,x8,x2	  x8:0x00000000  x2:0x800081ca x17=0x800081ca
       30375000	      3036	80000508	00615783	lhu	x15,6(x2)	  x2:0x800081ca x15=0x00009c59 PA:0x800081d0
       30385000	      3037	8000050c	ff914f03	lbu	x30,-7(x2)	  x2:0x800081ca x30=0x00000059 PA:0x800081c3
       30395000	      3038	80000510	00231c13	slli	x24,x6,0x2	  x6:0xfffffba2 x24=0xffffee88
       30405000	      3039	80000514	01b20333	add	x6,x4,x27	  x4:0x7ffff647 x27:0xfffff950  x6=0x7fffef97
       30415000	      3040	80000518	ff810703	lb	x14,-8(x2)	  x2:0x800081ca x14=0x0000005e PA:0x800081c2
       30425000	      3041	8000051c	00b14503	lbu	x10,11(x2)	  x2:0x800081ca x10=0x00000035 PA:0x800081d5
       30435000	      3042	80000520	016ed313	srli	x6,x29,0x16	 x29:0x00000001  x6=0x00000000
       30445000	      3043	80000524	01412123	sw	x20,2(x2)	  x2:0x800081ca x20:0x0ee80000 PA:0x800081cc
       30455000	      3044	80000528	386a7b93	andi	x23,x20,902	 x20:0x0ee80000 x23=0x00000000
       30465000	      3045	8000052c	00f14b83	lbu	x23,15(x2)	  x2:0x800081ca x23=0x000000b5 PA:0x800081d9
       30475000	      3046	80000530	00f14203	lbu	x4,15(x2)	  x2:0x800081ca  x4=0x000000b5 PA:0x800081d9
       30485000	      3047	80000534	aa2ce797	auipc	x15,0xaa2ce	 x15=0x2a2ce530
       30495000	      3048	80000538	00000013	addi	x0,x0,0	  x0:0x00000000
       30505000	      3049	8000053c	afd88b37	lui	x22,0xafd88	 x22=0xafd88000
       30515000	      3050	80000540	00000013	addi	x0,x0,0	  x0:0x00000000
       30525000	      3051	80000544	ffa14703	lbu	x14,-6(x2)	  x2:0x800081ca x14=0x00000035 PA:0x800081c4
       30535000	      3052	80000548	ff510503	lb	x10,-11(x2)	  x2:0x800081ca x10=0x0000004d PA:0x800081bf
       30545000	      3053	8000054c	ff714f03	lbu	x30,-9(x2)	  x2:0x800081ca x30=0x000000ac PA:0x800081c1
       30555000	      3054	80000550	00008117	auipc	x2,0x8	  x2=0x8000854c
       30565000	      3055	80000554	21c10113	addi	x2,x2,540	  x2:0x8000854c  x2=0x80008768
       30575000	      3056	80000558	01b40433	add	x8,x8,x27	  x8:0x00000000 x27:0xfffff950  x8=0xfffff950
       30585000	      3057	8000055c	01711823	sh	x23,16(x2)	  x2:0x80008768 x23:0x000000b5 PA:0x80008778
       30595000	      3058	80000560	03310f03	lb	x30,51(x2)	  x2:0x80008768 x30=0xffffff9e PA:0x8000879b
       30605000	      3059	80000564	01f10a83	lb	x21,31(x2)	  x2:0x80008768 x21=0x00000036 PA:0x80008787
       30615000	      3060	80000568	8bb58037	lui	x0,0x8bb58	
       30625000	      3061	8000056c	734cfe93	andi	x29,x25,1844	 x25:0x80000000 x29=0x00000000
       30635000	      3062	80000570	01611083	lh	x1,22(x2)	  x2:0x80008768  x1=0x000074e8 PA:0x8000877e
       30645000	      3063	80000574	e0e9c913	xori	x18,x19,-498	 x19:0x0000006d x18=0xfffffe63
       30655000	      3064	80000578	fff102a3	sb	x31,-27(x2)	  x2:0x80008768 x31:0x00000001 PA:0x8000874d
       30665000	      3065	8000057c	00c98333	add	x6,x19,x12	 x19:0x0000006d x12:0x00009571  x6=0x000095de
       30675000	      3066	80000580	00cfebb3	or	x23,x31,x12	 x31:0x00000001 x12:0x00009571 x23=0x00009571
       30685000	      3067	80000584	018407b3	add	x15,x8,x24	  x8:0xfffff950 x24:0xffffee88 x15=0xffffe7d8
       30695000	      3068	80000588	25608597	auipc	x11,0x25608	 x11=0xa5608584
       30705000	      3069	8000058c	01211f13	slli	x30,x2,0x12	  x2:0x80008768 x30=0x1da00000
       30715000	      3070	80000590	fed10703	lb	x14,-19(x2)	  x2:0x80008768 x14=0xffffffba PA:0x80008755
       30725000	      3071	80000594	fe114903	lbu	x18,-31(x2)	  x2:0x80008768 x18=0x00000068 PA:0x80008749
       30735000	      3072	80000598	f82f0e93	addi	x29,x30,-126	 x30:0x1da00000 x29=0x1d9fff82
       30745000	      3073	8000059c	fd1109a3	sb	x17,-45(x2)	  x2:0x80008768 x17:0x800081ca PA:0x8000873b
       30755000	      3074	800005a0	01445ab3	srl	x21,x8,x20	  x8:0xfffff950 x20:0x0ee80000 x21=0xfffff950
       30765000	      3075	800005a4	0071b7b3	sltu	x15,x3,x7	  x3:0x0000b079  x7:0x00000059 x15=0x00000000
       30775000	      3076	800005a8	fff14d83	lbu	x27,-1(x2)	  x2:0x80008768 x27=0x000000bc PA:0x80008767
       30785000	      3077	800005ac	00c78db3	add	x27,x15,x12	 x15:0x00000000 x12:0x00009571 x27=0x00009571
       30795000	      3078	800005b0	517c7e93	andi	x29,x24,1303	 x24:0xffffee88 x29=0x00000400
       30805000	      3079	800005b4	fe714883	lbu	x17,-25(x2)	  x2:0x80008768 x17=0x00000000 PA:0x8000874f
       30815000	      3080	800005b8	fd210723	sb	x18,-50(x2)	  x2:0x80008768 x18:0x00000068 PA:0x80008736
       30825000	      3081	800005bc	0604a593	slti	x11,x9,96	  x9:0x80009fc4 x11=0x00000001
       30835000	      3082	800005c0	02510603	lb	x12,37(x2)	  x2:0x80008768 x12=0xffffff8d PA:0x8000878d
       30845000	      3083	800005c4	40f10bb3	sub	x23,x2,x15	  x2:0x80008768 x15:0x00000000 x23=0x80008768
       30855000	      3084	800005c8	fca10fa3	sb	x10,-33(x2)	  x2:0x80008768 x10:0x0000004d PA:0x80008747
       30865000	      3085	800005cc	40415693	srai	x13,x2,0x4	  x2:0x80008768 x13=0xf8000876
       30875000	      3086	800005d0	fc314003	lbu	x0,-61(x2)	  x2:0x80008768 PA:0x8000872b
       30885000	      3087	800005d4	01110503	lb	x10,17(x2)	  x2:0x80008768 x10=0x00000000 PA:0x80008779
       30895000	      3088	800005d8	00210923	sb	x2,18(x2)	  x2:0x80008768  x2:0x80008768 PA:0x8000877a
       30905000	      3089	800005dc	ff914383	lbu	x7,-7(x2)	  x2:0x80008768  x7=0x00000075 PA:0x80008761
       30915000	      3090	800005e0	00e10923	sb	x14,18(x2)	  x2:0x80008768 x14:0xffffffba PA:0x8000877a
       30925000	      3091	800005e4	b8d40b13	addi	x22,x8,-1139	  x8:0xfffff950 x22=0xfffff4dd
       30935000	      3092	800005e8	01314f03	lbu	x30,19(x2)	  x2:0x80008768 x30=0x0000002b PA:0x8000877b
       30945000	      3093	800005ec	508aaa13	slti	x20,x21,1288	 x21:0xfffff950 x20=0x00000001
       30955000	      3094	800005f0	fed12423	sw	x13,-24(x2)	  x2:0x80008768 x13:0xf8000876 PA:0x80008750
       30965000	      3095	800005f4	ff9103a3	sb	x25,-25(x2)	  x2:0x80008768 x25:0x80000000 PA:0x8000874f
       30975000	      3096	800005f8	ff314e83	lbu	x29,-13(x2)	  x2:0x80008768 x29=0x0000007f PA:0x8000875b
       30985000	      3097	800005fc	00008117	auipc	x2,0x8	  x2=0x800085f8
       30995000	      3098	80000600	56a10113	addi	x2,x2,1386	  x2:0x800085f8  x2=0x80008b62
       31005000	      3099	80000604	0190deb3	srl	x29,x1,x25	  x1:0x000074e8 x25:0x80000000 x29=0x000074e8
       31015000	      3100	80000608	29e2a893	slti	x17,x5,670	  x5:0x80009f38 x17=0x00000001
       31025000	      3101	8000060c	01011b83	lh	x23,16(x2)	  x2:0x80008b62 x23=0xffffef8f PA:0x80008b72
       31035000	      3102	80000610	01010e23	sb	x16,28(x2)	  x2:0x80008b62 x16:0x00000000 PA:0x80008b7e
       31045000	      3103	80000614	008db733	sltu	x14,x27,x8	 x27:0x00009571  x8:0xfffff950 x14=0x00000001
       31055000	      3104	80000618	41558c33	sub	x24,x11,x21	 x11:0x00000001 x21:0xfffff950 x24=0x000006b1
       31065000	      3105	8000061c	05910f83	lb	x31,89(x2)	  x2:0x80008b62 x31=0x00000006 PA:0x80008bbb
       31075000	      3106	80000620	02a10e23	sb	x10,60(x2)	  x2:0x80008b62 x10:0x00000000 PA:0x80008b9e
       31085000	      3107	80000624	01ccf433	and	x8,x25,x28	 x25:0x80000000 x28:0x20e104e8  x8=0x00000000
       31095000	      3108	80000628	0190beb3	sltu	x29,x1,x25	  x1:0x000074e8 x25:0x80000000 x29=0x00000001
       31105000	      3109	8000062c	e1c42bb7	lui	x23,0xe1c42	 x23=0xe1c42000
       31115000	      3110	80000630	f4514e03	lbu	x28,-187(x2)	  x2:0x80008b62 x28=0x0000003d PA:0x80008aa7
       31125000	      3111	80000634	00d46e33	or	x28,x8,x13	  x8:0x00000000 x13:0xf8000876 x28=0xf8000876
       31135000	      3112	80000638	f7011183	lh	x3,-144(x2)	  x2:0x80008b62  x3=0xfffff20c PA:0x80008ad2
       31145000	      3113	8000063c	00000013	addi	x0,x0,0	  x0:0x00000000
       31155000	      3114	80000640	02510ba3	sb	x5,55(x2)	  x2:0x80008b62  x5:0x80009f38 PA:0x80008b99
       31165000	      3115	80000644	403f8c33	sub	x24,x31,x3	 x31:0x00000006  x3:0xfffff20c x24=0x00000dfa
       31175000	      3116	80000648	e4e37593	andi	x11,x6,-434	  x6:0x000095de x11=0x0000944e
       31185000	      3117	8000064c	01eb81b3	add	x3,x23,x30	 x23:0xe1c42000 x30:0x0000002b  x3=0xe1c4202b
       31195000	      3118	80000650	40555893	srai	x17,x10,0x5	 x10:0x00000000 x17=0x00000000
       31205000	      3119	80000654	f4411783	lh	x15,-188(x2)	  x2:0x80008b62 x15=0x00003d4a PA:0x80008aa6
       31215000	      3120	80000658	20a9a1b7	lui	x3,0x20a9a	  x3=0x20a9a000
       31225000	      3121	8000065c	cc6e7f97	auipc	x31,0xcc6e7	 x31=0x4c6e7658
       31235000	      3122	80000660	40505a13	srai	x20,x0,0x5	  x0:0x00000000 x20=0x00000000
       31245000	      3123	80000664	0d114783	lbu	x15,209(x2)	  x2:0x80008b62 x15=0x0000005e PA:0x80008c33
       31255000	      3124	00000000	00000013	addi	x0,x0,0	  x0:0x00000000
       31265000	      3125	80000668	019796b3	sll	x13,x15,x25	 x15:0x0000005e x25:0x80000000 x13=0x0000005e
       31275000	      3126	8000066c	1606cf93	xori	x31,x13,352	 x13:0x0000005e x31=0x0000013e
       31285000	      3127	80000670	4e5fb393	sltiu	x7,x31,1253	 x31:0x0000013e  x7=0x00000001
       31295000	      3128	80000674	ff010d23	sb	x16,-6(x2)	  x2:0x80008b62 x16:0x00000000 PA:0x80008b5c
       31305000	      3129	80000678	f8c15b03	lhu	x22,-116(x2)	  x2:0x80008b62 x22=0x0000d73f PA:0x80008aee
       31315000	      3130	8000067c	01c29713	slli	x14,x5,0x1c	  x5:0x80009f38 x14=0x80000000
       31325000	      3131	80000680	f9011903	lh	x18,-112(x2)	  x2:0x80008b62 x18=0x00003bf0 PA:0x80008af2
       31335000	      3132	80000684	024103a3	sb	x4,39(x2)	  x2:0x80008b62  x4:0x000000b5 PA:0x80008b89
       31345000	      3133	80000688	0d900193	addi	x3,x0,217	  x0:0x00000000  x3=0x000000d9
       31355000	      3134	8000068c	41a68333	sub	x6,x13,x26	 x13:0x0000005e x26:0x7ffff647  x6=0x80000a17
       31365000	      3135	80000690	0f710803	lb	x16,247(x2)	  x2:0x80008b62 x16=0xffffffb3 PA:0x80008c59
       31375000	      3136	80000694	41c6dd13	srai	x26,x13,0x1c	 x13:0x0000005e x26=0x00000000
       31385000	      3137	80000698	0128fbb3	and	x23,x17,x18	 x17:0x00000000 x18:0x00003bf0 x23=0x00000000
       31395000	      3138	8000069c	f1014683	lbu	x13,-240(x2)	  x2:0x80008b62 x13=0x000000ac PA:0x80008a72
       31405000	      3139	800006a0	00af1513	slli	x10,x30,0xa	 x30:0x0000002b x10=0x0000ac00
       31415000	      3140	800006a4	40f08fb3	sub	x31,x1,x15	  x1:0x000074e8 x15:0x0000005e x31=0x0000748a
       31425000	      3141	800006a8	ef14b993	sltiu	x19,x9,-271	  x9:0x80009fc4 x19=0x00000001
       31435000	      3142	800006ac	01603ab3	sltu	x21,x0,x22	  x0:0x00000000 x22:0x0000d73f x21=0x00000001
       31445000	      3143	800006b0	f4c10fa3	sb	x12,-161(x2)	  x2:0x80008b62 x12:0xffffff8d PA:0x80008ac1
       31455000	      3144	800006b4	f5311b23	sh	x19,-170(x2)	  x2:0x80008b62 x19:0x00000001 PA:0x80008ab8
       31465000	      3145	800006b8	f1c14983	lbu	x19,-228(x2)	  x2:0x80008b62 x19=0x00000026 PA:0x80008a7e
       31475000	      3146	800006bc	f9514503	lbu	x10,-107(x2)	  x2:0x80008b62 x10=0x00000079 PA:0x80008af7
       31485000	      3147	800006c0	f1e14c03	lbu	x24,-226(x2)	  x2:0x80008b62 x24=0x000000d3 PA:0x80008a80
       31495000	      3148	800006c4	00009117	auipc	x2,0x9	  x2=0x800096c0
       31505000	      3149	800006c8	8f310113	addi	x2,x2,-1805	  x2:0x800096c0  x2=0x80008fb3
       31515000	      3150	800006cc	fff111a3	sh	x31,-29(x2)	  x2:0x80008fb3 x31:0x0000748a PA:0x80008f96
       31525000	      3151	800006d0	03310a03	lb	x20,51(x2)	  x2:0x80008fb3 x20=0x00000047 PA:0x80008fe6
       31535000	      3152	800006d4	00b10583	lb	x11,11(x2)	  x2:0x80008fb3 x11=0xffffffb4 PA:0x80008fbe
       31545000	      3153	800006d8	11a3aa17	auipc	x20,0x11a3a	 x20=0x91a3a6d4
       31555000	      3154	800006dc	00de71b3	and	x3,x28,x13	 x28:0xf8000876 x13:0x000000ac  x3=0x00000024
       31565000	      3155	800006e0	fc210423	sb	x2,-56(x2)	  x2:0x80008fb3  x2:0x80008fb3 PA:0x80008f7b
       31575000	      3156	800006e4	fc710aa3	sb	x7,-43(x2)	  x2:0x80008fb3  x7:0x00000001 PA:0x80008f88
       31585000	      3157	800006e8	01d11ca3	sh	x29,25(x2)	  x2:0x80008fb3 x29:0x00000001 PA:0x80008fcc
       31595000	      3158	800006ec	00720db3	add	x27,x4,x7	  x4:0x000000b5  x7:0x00000001 x27=0x000000b6
       31605000	      3159	800006f0	86a8b193	sltiu	x3,x17,-1942	 x17:0x00000000  x3=0x00000001
       31615000	      3160	800006f4	fda10b83	lb	x23,-38(x2)	  x2:0x80008fb3 x23=0xffffffbd PA:0x80008f8d
       31625000	      3161	800006f8	02a14603	lbu	x12,42(x2)	  x2:0x80008fb3 x12=0x0000005b PA:0x80008fdd
       31635000	      3162	800006fc	9643f393	andi	x7,x7,-1692	  x7:0x00000001  x7=0x00000000
       31645000	      3163	80000700	ff614b83	lbu	x23,-10(x2)	  x2:0x80008fb3 x23=0x000000e0 PA:0x80008fa9
       31655000	      3164	80000704	01347433	and	x8,x8,x19	  x8:0x00000000 x19:0x00000026  x8=0x00000000
       31665000	      3165	80000708	11fc0513	addi	x10,x24,287	 x24:0x000000d3 x10=0x000001f2
       31675000	      3166	8000070c	01480733	add	x14,x16,x20	 x16:0xffffffb3 x20:0x91a3a6d4 x14=0x91a3a687
       31685000	      3167	80000710	00410083	lb	x1,4(x2)	  x2:0x80008fb3  x1=0xffffffb3 PA:0x80008fb7
       31695000	      3168	80000714	fe915683	lhu	x13,-23(x2)	  x2:0x80008fb3 x13=0x00000679 PA:0x80008f9c
       31705000	      3169	80000718	c5f12d13	slti	x26,x2,-929	  x2:0x80008fb3 x26=0x00000001
       31715000	      3170	8000071c	92413f97	auipc	x31,0x92413	 x31=0x12413718
       31725000	      3171	80000720	fd710e23	sb	x23,-36(x2)	  x2:0x80008fb3 x23:0x000000e0 PA:0x80008f8f
       31735000	      3172	80000724	4d4ab913	sltiu	x18,x21,1236	 x21:0x00000001 x18=0x00000001
       31745000	      3173	80000728	7ecefe93	andi	x29,x29,2028	 x29:0x00000001 x29=0x00000000
       31755000	      3174	8000072c	40015d93	srai	x27,x2,0x0	  x2:0x80008fb3 x27=0x80008fb3
       31765000	      3175	80000730	41220fb3	sub	x31,x4,x18	  x4:0x000000b5 x18:0x00000001 x31=0x000000b4
       31775000	      3176	80000734	fff14003	lbu	x0,-1(x2)	  x2:0x80008fb3 PA:0x80008fb2
       31785000	      3177	80000738	00bcb033	sltu	x0,x25,x11	 x25:0x80000000 x11:0xffffffb4
       31795000	      3178	8000073c	02715603	lhu	x12,39(x2)	  x2:0x80008fb3 x12=0x00006fdc PA:0x80008fda
       31805000	      3179	80000740	fcf14a03	lbu	x20,-49(x2)	  x2:0x80008fb3 x20=0x000000c0 PA:0x80008f82
       31815000	      3180	80000744	0009df33	srl	x30,x19,x0	 x19:0x00000026  x0:0x00000000 x30=0x00000026
       31825000	      3181	80000748	10908b93	addi	x23,x1,265	  x1:0xffffffb3 x23=0x000000bc
       31835000	      3182	8000074c	019b03b3	add	x7,x22,x25	 x22:0x0000d73f x25:0x80000000  x7=0x8000d73f
       31845000	      3183	80000750	02214503	lbu	x10,34(x2)	  x2:0x80008fb3 x10=0x00000036 PA:0x80008fd5
       31855000	      3184	80000754	01010223	sb	x16,4(x2)	  x2:0x80008fb3 x16:0xffffffb3 PA:0x80008fb7
       31865000	      3185	80000758	02e10683	lb	x13,46(x2)	  x2:0x80008fb3 x13=0xffffffa1 PA:0x80008fe1
       31875000	      3186	8000075c	014549b3	xor	x19,x10,x20	 x10:0x00000036 x20:0x000000c0 x19=0x000000f6
       31885000	      3187	80000760	007d9993	slli	x19,x27,0x7	 x27:0x80008fb3 x19=0x0047d980
       31895000	      3188	80000764	c7d4fb17	auipc	x22,0xc7d4f	 x22=0x47d4f760
       31905000	      3189	80000768	ff010e03	lb	x28,-16(x2)	  x2:0x80008fb3 x28=0x00000019 PA:0x80008fa3
       31915000	      3190	8000076c	00c10183	lb	x3,12(x2)	  x2:0x80008fb3  x3=0xffffffe7 PA:0x80008fbf
       31925000	      3191	80000770	5076a213	slti	x4,x13,1287	 x13:0xffffffa1  x4=0x00000001
       31935000	      3192	80000774	01a55593	srli	x11,x10,0x1a	 x10:0x00000036 x11=0x00000000
       31945000	      3193	80000778	01110723	sb	x17,14(x2)	  x2:0x80008fb3 x17:0x00000000 PA:0x80008fc1
       31955000	      3194	8000077c	b7b996b7	lui	x13,0xb7b99	 x13=0xb7b99000
       31965000	      3195	80000780	40be0633	sub	x12,x28,x11	 x28:0x00000019 x11:0x00000000 x12=0x00000019
       31975000	      3196	80000784	c5946813	ori	x16,x8,-935	  x8:0x00000000 x16=0xfffffc59
       31985000	      3197	80000788	b7db3093	sltiu	x1,x22,-1155	 x22:0x47d4f760  x1=0x00000001
       31995000	      3198	8000078c	fce14903	lbu	x18,-50(x2)	  x2:0x80008fb3 x18=0x00000047 PA:0x80008f81
       32005000	      3199	80000790	02410923	sb	x4,50(x2)	  x2:0x80008fb3  x4:0x00000001 PA:0x80008fe5
       32015000	      3200	80000794	01014a03	lbu	x20,16(x2)	  x2:0x80008fb3 x20=0x0000003b PA:0x80008fc3
       32025000	      3201	80000798	ff010903	lb	x18,-16(x2)	  x2:0x80008fb3 x18=0x00000019 PA:0x80008fa3
       32035000	      3202	8000079c	21af0593	addi	x11,x30,538	 x30:0x00000026 x11=0x00000240
       32045000	      3203	800007a0	ffe10f03	lb	x30,-2(x2)	  x2:0x80008fb3 x30=0xffffff9f PA:0x80008fb1
       32055000	      3204	800007a4	4f748813	addi	x16,x9,1271	  x9:0x80009fc4 x16=0x8000a4bb
       32065000	      3205	800007a8	fec14b03	lbu	x22,-20(x2)	  x2:0x80008fb3 x22=0x000000ef PA:0x80008f9f
       32075000	      3206	800007ac	02314303	lbu	x6,35(x2)	  x2:0x80008fb3  x6=0x0000006b PA:0x80008fd6
       32085000	      3207	800007b0	00824e33	xor	x28,x4,x8	  x4:0x00000001  x8:0x00000000 x28=0x00000001
       32095000	      3208	800007b4	fd410903	lb	x18,-44(x2)	  x2:0x80008fb3 x18=0x00000072 PA:0x80008f87
       32105000	      3209	800007b8	fc214f03	lbu	x30,-62(x2)	  x2:0x80008fb3 x30=0x00000021 PA:0x80008f75
       32115000	      3210	800007bc	00008117	auipc	x2,0x8	  x2=0x800087b8
       32125000	      3211	800007c0	f9210113	addi	x2,x2,-110	  x2:0x800087b8  x2=0x8000874a
       32135000	      3212	800007c4	fcc14f83	lbu	x31,-52(x2)	  x2:0x8000874a x31=0x000000c8 PA:0x80008716
       32145000	      3213	800007c8	fc214d83	lbu	x27,-62(x2)	  x2:0x8000874a x27=0x000000a3 PA:0x8000870c
       32155000	      3214	800007cc	ab99ff37	lui	x30,0xab99f	 x30=0xab99f000
       32165000	      3215	800007d0	00b6c0b3	xor	x1,x13,x11	 x13:0xb7b99000 x11:0x00000240  x1=0xb7b99240
       32175000	      3216	800007d4	02e11b83	lh	x23,46(x2)	  x2:0x8000874a x23=0x000000b5 PA:0x80008778
       32185000	      3217	800007d8	014d5733	srl	x14,x26,x20	 x26:0x00000001 x20:0x0000003b x14=0x00000000
       32195000	      3218	800007dc	fff10823	sb	x31,-16(x2)	  x2:0x8000874a x31:0x000000c8 PA:0x8000873a
       32205000	      3219	800007e0	00000013	addi	x0,x0,0	  x0:0x00000000
       32215000	      3220	800007e4	00000013	addi	x0,x0,0	  x0:0x00000000
       32225000	      3221	800007e8	00000013	addi	x0,x0,0	  x0:0x00000000
       32235000	      3222	800007ec	40485933	sra	x18,x16,x4	 x16:0x8000a4bb  x4:0x00000001 x18=0xc000525d
       32245000	      3223	800007f0	ba6a1717	auipc	x14,0xba6a1	 x14=0x3a6a17ec
       32255000	      3224	800007f4	01e45db3	srl	x27,x8,x30	  x8:0x00000000 x30:0xab99f000 x27=0x00000000
       32265000	      3225	800007f8	fdc11003	lh	x0,-36(x2)	  x2:0x8000874a PA:0x80008726
       32275000	      3226	800007fc	01dfd013	srli	x0,x31,0x1d	 x31:0x000000c8
       32285000	      3227	80000800	02b10e03	lb	x28,43(x2)	  x2:0x8000874a x28=0xfffffffc PA:0x80008775
       32295000	      3228	80000804	01610da3	sb	x22,27(x2)	  x2:0x8000874a x22:0x000000ef PA:0x80008765
       32305000	      3229	80000808	01db9e33	sll	x28,x23,x29	 x23:0x000000b5 x29:0x00000000 x28=0x000000b5
       32315000	      3230	8000080c	a8ecbc13	sltiu	x24,x25,-1394	 x25:0x80000000 x24=0x00000001
       32325000	      3231	80000810	ebac8a97	auipc	x21,0xebac8	 x21=0x6bac880c
       32335000	      3232	80000814	01ca7b33	and	x22,x20,x28	 x20:0x0000003b x28:0x000000b5 x22=0x00000031
       32345000	      3233	80000818	022100a3	sb	x2,33(x2)	  x2:0x8000874a  x2:0x8000874a PA:0x8000876b
       32355000	      3234	8000081c	02212123	sw	x2,34(x2)	  x2:0x8000874a  x2:0x8000874a PA:0x8000876c
       32365000	      3235	80000820	4198da13	srai	x20,x17,0x19	 x17:0x00000000 x20=0x00000000
       32375000	      3236	80000824	fc714403	lbu	x8,-57(x2)	  x2:0x8000874a  x8=0x000000ab PA:0x80008711
       32385000	      3237	80000828	fd510823	sb	x21,-48(x2)	  x2:0x8000874a x21:0x6bac880c PA:0x8000871a
       32395000	      3238	8000082c	41bf5033	sra	x0,x30,x27	 x30:0xab99f000 x27:0x00000000
       32405000	      3239	80000830	00df7eb3	and	x29,x30,x13	 x30:0xab99f000 x13:0xb7b99000 x29=0xa3999000
       32415000	      3240	80000834	fe414f03	lbu	x30,-28(x2)	  x2:0x8000874a x30=0x00000091 PA:0x8000872e
       32425000	      3241	80000838	fc310303	lb	x6,-61(x2)	  x2:0x8000874a  x6=0xffffffda PA:0x8000870d
       32435000	      3242	8000083c	00314803	lbu	x16,3(x2)	  x2:0x8000874a x16=0x00000001 PA:0x8000874d
       32445000	      3243	80000840	01b14783	lbu	x15,27(x2)	  x2:0x8000874a x15=0x000000ef PA:0x80008765
       32455000	      3244	80000844	fcb106a3	sb	x11,-51(x2)	  x2:0x8000874a x11:0x00000240 PA:0x80008717
       32465000	      3245	80000848	fe610ba3	sb	x6,-9(x2)	  x2:0x8000874a  x6:0xffffffda PA:0x80008741
       32475000	      3246	8000084c	002b1f13	slli	x30,x22,0x2	 x22:0x00000031 x30=0x000000c4
       32485000	      3247	80000850	00000013	addi	x0,x0,0	  x0:0x00000000
       32495000	      3248	80000854	3e53a313	slti	x6,x7,997	  x7:0x8000d73f  x6=0x00000001
       32505000	      3249	80000858	012647b3	xor	x15,x12,x18	 x12:0x00000019 x18:0xc000525d x15=0xc0005244
       32515000	      3250	8000085c	fd1102a3	sb	x17,-59(x2)	  x2:0x8000874a x17:0x00000000 PA:0x8000870f
       32525000	      3251	80000860	2cb84c37	lui	x24,0x2cb84	 x24=0x2cb84000
       32535000	      3252	80000864	01b190b3	sll	x1,x3,x27	  x3:0xffffffe7 x27:0x00000000  x1=0xffffffe7
       32545000	      3253	80000868	00e10403	lb	x8,14(x2)	  x2:0x8000874a  x8=0x00000000 PA:0x80008758
       32555000	      3254	8000086c	011103a3	sb	x17,7(x2)	  x2:0x8000874a x17:0x00000000 PA:0x80008751
       32565000	      3255	80000870	2a40fb13	andi	x22,x1,676	  x1:0xffffffe7 x22=0x000002a4
       32575000	      3256	80000874	03d10b03	lb	x22,61(x2)	  x2:0x8000874a x22=0x00000036 PA:0x80008787
       32585000	      3257	80000878	03510e03	lb	x28,53(x2)	  x2:0x8000874a x28=0x00000074 PA:0x8000877f
       32595000	      3258	8000087c	90a64a97	auipc	x21,0x90a64	 x21=0x10a64878
       32605000	      3259	80000880	de0f6213	ori	x4,x30,-544	 x30:0x000000c4  x4=0xfffffde4
       32615000	      3260	80000884	ff415d83	lhu	x27,-12(x2)	  x2:0x8000874a x27=0x00009b41 PA:0x8000873e
       32625000	      3261	80000888	00000013	addi	x0,x0,0	  x0:0x00000000
       32635000	      3262	8000088c	04d10023	sb	x13,64(x2)	  x2:0x8000874a x13:0xb7b99000 PA:0x8000878a
       32645000	      3263	80000890	00df8463	beq	x31,x13,80000898	 x31:0x000000c8 x13:0xb7b99000
       32655000	      3264	80000894	027b5e63	bge	x22,x7,800008d0	 x22:0x00000036  x7:0x8000d73f
       32665000	      3265	00000000	00000013	addi	x0,x0,0	  x0:0x00000000
       32675000	      3266	800008cc	00000013	addi	x0,x0,0	  x0:0x00000000
       32685000	      3267	800008d0	013c4eb3	xor	x29,x24,x19	 x24:0x2cb84000 x19:0x0047d980 x29=0x2cff9980
       32695000	      3268	800008d4	8434b693	sltiu	x13,x9,-1981	  x9:0x80009fc4 x13=0x00000001
       32705000	      3269	800008d8	403687b3	sub	x15,x13,x3	 x13:0x00000001  x3:0xffffffe7 x15=0x0000001a
       32715000	      3270	800008dc	1cb7f993	andi	x19,x15,459	 x15:0x0000001a x19=0x0000000a
       32725000	      3271	800008e0	0156fb33	and	x22,x13,x21	 x13:0x00000001 x21:0x10a64878 x22=0x00000000
       32735000	      3272	800008e4	02066063	bltu	x12,x0,80000904	 x12:0x00000019  x0:0x00000000
       32745000	      3273	800008e8	20c33e93	sltiu	x29,x6,524	  x6:0x00000001 x29=0x00000001
       32755000	      3274	800008ec	01f31213	slli	x4,x6,0x1f	  x6:0x00000001  x4=0x80000000
       32765000	      3275	800008f0	000ed113	srli	x2,x29,0x0	 x29:0x00000001  x2=0x00000001
       32775000	      3276	800008f4	40fd0b33	sub	x22,x26,x15	 x26:0x00000001 x15:0x0000001a x22=0xffffffe7
       32785000	      3277	800008f8	00dacfb3	xor	x31,x21,x13	 x21:0x10a64878 x13:0x00000001 x31=0x10a64879
       32795000	      3278	800008fc	00839733	sll	x14,x7,x8	  x7:0x8000d73f  x8:0x00000000 x14=0x8000d73f
       32805000	      3279	80000900	01f8e463	bltu	x17,x31,80000908	 x17:0x00000000 x31:0x10a64879
       32815000	      3280	00000000	00000013	addi	x0,x0,0	  x0:0x00000000
       32825000	      3281	80000904	00000013	addi	x0,x0,0	  x0:0x00000000
       32835000	      3282	80000908	40bf5713	srai	x14,x30,0xb	 x30:0x000000c4 x14=0x00000000
       32845000	      3283	8000090c	00000013	addi	x0,x0,0	  x0:0x00000000
       32855000	      3284	80000910	41cc81b3	sub	x3,x25,x28	 x25:0x80000000 x28:0x00000074  x3=0x7fffff8c
       32865000	      3285	80000914	00fbf5b3	and	x11,x23,x15	 x23:0x000000b5 x15:0x0000001a x11=0x00000010
       32875000	      3286	80000918	03919063	bne	x3,x25,80000938	  x3:0x7fffff8c x25:0x80000000
       32885000	      3287	00000000	00000013	addi	x0,x0,0	  x0:0x00000000
       32895000	      3288	80000934	00000013	addi	x0,x0,0	  x0:0x00000000
       32905000	      3289	80000938	01d55c13	srli	x24,x10,0x1d	 x10:0x00000036 x24=0x00000000
       32915000	      3290	8000093c	40505133	sra	x2,x0,x5	  x0:0x00000000  x5:0x80009f38  x2=0x00000000
       32925000	      3291	80000940	9cfdc113	xori	x2,x27,-1585	 x27:0x00009b41  x2=0xffff628e
       32935000	      3292	80000944	df49c193	xori	x3,x19,-524	 x19:0x0000000a  x3=0xfffffdfe
       32945000	      3293	80000948	0d475c63	bge	x14,x20,80000a20	 x14:0x00000000 x20:0x00000000
       32955000	      3294	00000000	00000013	addi	x0,x0,0	  x0:0x00000000
       32965000	      3295	80000a1c	00000013	addi	x0,x0,0	  x0:0x00000000
       32975000	      3296	80000a20	70b1bd93	sltiu	x27,x3,1803	  x3:0xfffffdfe x27=0x00000000
       32985000	      3297	80000a24	877dbd13	sltiu	x26,x27,-1929	 x27:0x00000000 x26=0x00000001
       32995000	      3298	80000a28	011dddb3	srl	x27,x27,x17	 x27:0x00000000 x17:0x00000000 x27=0x00000000
       33005000	      3299	80000a2c	01d10d33	add	x26,x2,x29	  x2:0xffff628e x29:0x00000001 x26=0xffff628f
       33015000	      3300	80000a30	003ceab3	or	x21,x25,x3	 x25:0x80000000  x3:0xfffffdfe x21=0xfffffdfe
       33025000	      3301	80000a34	41b28a33	sub	x20,x5,x27	  x5:0x80009f38 x27:0x00000000 x20=0x80009f38
       33035000	      3302	80000a38	f60801b7	lui	x3,0xf6080	  x3=0xf6080000
       33045000	      3303	80000a3c	004b26b3	slt	x13,x22,x4	 x22:0xffffffe7  x4:0x80000000 x13=0x00000000
       33055000	      3304	80000a40	016b7f13	andi	x30,x22,22	 x22:0xffffffe7 x30=0x00000006
       33065000	      3305	80000a44	003808b3	add	x17,x16,x3	 x16:0x00000001  x3:0xf6080000 x17=0xf6080001
       33075000	      3306	80000a48	01d68533	add	x10,x13,x29	 x13:0x00000000 x29:0x00000001 x10=0x00000001
       33085000	      3307	80000a4c	00ed7263	bgeu	x26,x14,80000a50	 x26:0xffff628f x14:0x00000000
       33095000	      3308	00000000	00000013	addi	x0,x0,0	  x0:0x00000000
       33105000	      3309	80000a4c	00000013	addi	x0,x0,0	  x0:0x00000000
       33115000	      3310	80000a50	f7463837	lui	x16,0xf7463	 x16=0xf7463000
       33125000	      3311	80000a54	00000013	addi	x0,x0,0	  x0:0x00000000
       33135000	      3312	80000a58	e6e3ed37	lui	x26,0xe6e3e	 x26=0xe6e3e000
       33145000	      3313	80000a5c	0082bbb3	sltu	x23,x5,x8	  x5:0x80009f38  x8:0x00000000 x23=0x00000000
       33155000	      3314	80000a60	e128ec13	ori	x24,x17,-494	 x17:0xf6080001 x24=0xfffffe13
       33165000	      3315	80000a64	415b85b3	sub	x11,x23,x21	 x23:0x00000000 x21:0xfffffdfe x11=0x00000202
       33175000	      3316	80000a68	e49b8d93	addi	x27,x23,-439	 x23:0x00000000 x27=0xfffffe49
       33185000	      3317	80000a6c	cd30b393	sltiu	x7,x1,-813	  x1:0xffffffe7  x7=0x00000000
       33195000	      3318	80000a70	410ad9b3	sra	x19,x21,x16	 x21:0xfffffdfe x16:0xf7463000 x19=0xfffffdfe
       33205000	      3319	80000a74	01f0d463	bge	x1,x31,80000a7c	  x1:0xffffffe7 x31:0x10a64879
       33215000	      3320	80000a78	6dc455b7	lui	x11,0x6dc45	 x11=0x6dc45000
       33225000	      3321	80000a7c	a0ec9997	auipc	x19,0xa0ec9	 x19=0x20ec9a78
       33235000	      3322	80000a80	00000013	addi	x0,x0,0	  x0:0x00000000
       33245000	      3323	80000a84	05fce463	bltu	x25,x31,80000acc	 x25:0x80000000 x31:0x10a64879
       33255000	      3324	80000a88	00f9bbb3	sltu	x23,x19,x15	 x19:0x20ec9a78 x15:0x0000001a x23=0x00000000
       33265000	      3325	80000a8c	63926f13	ori	x30,x4,1593	  x4:0x80000000 x30=0x80000639
       33275000	      3326	80000a90	b2256d13	ori	x26,x10,-1246	 x10:0x00000001 x26=0xfffffb23
       33285000	      3327	80000a94	000078b3	and	x17,x0,x0	  x0:0x00000000  x0:0x00000000 x17=0x00000000
       33295000	      3328	80000a98	01c75e33	srl	x28,x14,x28	 x14:0x00000000 x28:0x00000074 x28=0x00000000
       33305000	      3329	80000a9c	00000013	addi	x0,x0,0	  x0:0x00000000
       33315000	      3330	80000aa0	41178eb3	sub	x29,x15,x17	 x15:0x0000001a x17:0x00000000 x29=0x0000001a
       33325000	      3331	80000aa4	4066d093	srai	x1,x13,0x6	 x13:0x00000000  x1=0x00000000
       33335000	      3332	80000aa8	058c8263	beq	x25,x24,80000aec	 x25:0x80000000 x24:0xfffffe13
       33345000	      3333	80000aac	0587f063	bgeu	x15,x24,80000aec	 x15:0x0000001a x24:0xfffffe13
       33355000	      3334	80000ab0	03129a63	bne	x5,x17,80000ae4	  x5:0x80009f38 x17:0x00000000
       33365000	      3335	00000000	00000013	addi	x0,x0,0	  x0:0x00000000
       33375000	      3336	80000ae0	00000013	addi	x0,x0,0	  x0:0x00000000
       33385000	      3337	80000ae4	01f04263	blt	x0,x31,80000ae8	  x0:0x00000000 x31:0x10a64879
       33395000	      3338	00000000	00000013	addi	x0,x0,0	  x0:0x00000000
       33405000	      3339	80000ae4	00000013	addi	x0,x0,0	  x0:0x00000000
       33415000	      3340	80000ae8	010b6ab3	or	x21,x22,x16	 x22:0xffffffe7 x16:0xf7463000 x21=0xffffffe7
       33425000	      3341	80000aec	00815ab3	srl	x21,x2,x8	  x2:0xffff628e  x8:0x00000000 x21=0xffff628e
       33435000	      3342	80000af0	40d40b33	sub	x22,x8,x13	  x8:0x00000000 x13:0x00000000 x22=0x00000000
       33445000	      3343	80000af4	0225c113	xori	x2,x11,34	 x11:0x6dc45000  x2=0x6dc45022
       33455000	      3344	80000af8	3c3d3c13	sltiu	x24,x26,963	 x26:0xfffffb23 x24=0x00000000
       33465000	      3345	80000afc	a055ce93	xori	x29,x11,-1531	 x11:0x6dc45000 x29=0x923baa05
       33475000	      3346	80000b00	6a31c313	xori	x6,x3,1699	  x3:0xf6080000  x6=0xf60806a3
       33485000	      3347	80000b04	00000013	addi	x0,x0,0	  x0:0x00000000
       33495000	      3348	80000b08	00f2ddb3	srl	x27,x5,x15	  x5:0x80009f38 x15:0x0000001a x27=0x00000020
       33505000	      3349	80000b0c	006c7f33	and	x30,x24,x6	 x24:0x00000000  x6:0xf60806a3 x30=0x00000000
       33515000	      3350	80000b10	415d5793	srai	x15,x26,0x15	 x26:0xfffffb23 x15=0xffffffff
       33525000	      3351	80000b14	00757f33	and	x30,x10,x7	 x10:0x00000001  x7:0x00000000 x30=0x00000000
       33535000	      3352	80000b18	6f223b13	sltiu	x22,x4,1778	  x4:0x80000000 x22=0x00000000
       33545000	      3353	80000b1c	03530263	beq	x6,x21,80000b40	  x6:0xf60806a3 x21:0xffff628e
       33555000	      3354	80000b20	0183d093	srli	x1,x7,0x18	  x7:0x00000000  x1=0x00000000
       33565000	      3355	80000b24	01f1cd33	xor	x26,x3,x31	  x3:0xf6080000 x31:0x10a64879 x26=0xe6ae4879
       33575000	      3356	80000b28	00000013	addi	x0,x0,0	  x0:0x00000000
       33585000	      3357	80000b2c	b6fed8b7	lui	x17,0xb6fed	 x17=0xb6fed000
       33595000	      3358	80000b30	00e90033	add	x0,x18,x14	 x18:0xc000525d x14:0x00000000
       33605000	      3359	80000b34	03885a63	bge	x16,x24,80000b68	 x16:0xf7463000 x24:0x00000000
       33615000	      3360	80000b38	030cdc63	bge	x25,x16,80000b70	 x25:0x80000000 x16:0xf7463000
       33625000	      3361	80000b3c	7665ec13	ori	x24,x11,1894	 x11:0x6dc45000 x24=0x6dc45766
       33635000	      3362	80000b40	01f6f663	bgeu	x13,x31,80000b4c	 x13:0x00000000 x31:0x10a64879
       33645000	      3363	80000b44	00c31133	sll	x2,x6,x12	  x6:0xf60806a3 x12:0x00000019  x2=0x46000000
       33655000	      3364	80000b48	00ee3433	sltu	x8,x28,x14	 x28:0x00000000 x14:0x00000000  x8=0x00000000
       33665000	      3365	80000b4c	00fdd263	bge	x27,x15,80000b50	 x27:0x00000020 x15:0xffffffff
       33675000	      3366	00000000	00000013	addi	x0,x0,0	  x0:0x00000000
       33685000	      3367	80000b4c	00000013	addi	x0,x0,0	  x0:0x00000000
       33695000	      3368	80000b50	01a79e93	slli	x29,x15,0x1a	 x15:0xffffffff x29=0xfc000000
       33705000	      3369	80000b54	006b2db3	slt	x27,x22,x6	 x22:0x00000000  x6:0xf60806a3 x27=0x00000000
       33715000	      3370	80000b58	0599f463	bgeu	x19,x25,80000ba0	 x19:0x20ec9a78 x25:0x80000000
       33725000	      3371	80000b5c	03e98063	beq	x19,x30,80000b7c	 x19:0x20ec9a78 x30:0x00000000
       33735000	      3372	80000b60	11826b93	ori	x23,x4,280	  x4:0x80000000 x23=0x80000118
       33745000	      3373	80000b64	03186a63	bltu	x16,x17,80000b98	 x16:0xf7463000 x17:0xb6fed000
       33755000	      3374	80000b68	05ba1663	bne	x20,x27,80000bb4	 x20:0x80009f38 x27:0x00000000
       33765000	      3375	00000000	00000013	addi	x0,x0,0	  x0:0x00000000
       33775000	      3376	80000bb0	00000013	addi	x0,x0,0	  x0:0x00000000
       33785000	      3377	80000bb4	00e745b3	xor	x11,x14,x14	 x14:0x00000000 x14:0x00000000 x11=0x00000000
       33795000	      3378	80000bb8	03f28263	beq	x5,x31,80000bdc	  x5:0x80009f38 x31:0x10a64879
       33805000	      3379	80000bbc	01a45793	srli	x15,x8,0x1a	  x8:0x00000000 x15=0x00000000
       33815000	      3380	80000bc0	1534e193	ori	x3,x9,339	  x9:0x80009fc4  x3=0x80009fd7
       33825000	      3381	80000bc4	00000013	addi	x0,x0,0	  x0:0x00000000
       33835000	      3382	80000bc8	01980033	add	x0,x16,x25	 x16:0xf7463000 x25:0x80000000
       33845000	      3383	80000bcc	00945463	bge	x8,x9,80000bd4	  x8:0x00000000  x9:0x80009fc4
       33855000	      3384	00000000	00000013	addi	x0,x0,0	  x0:0x00000000
       33865000	      3385	80000bd0	00000013	addi	x0,x0,0	  x0:0x00000000
       33875000	      3386	80000bd4	873c7693	andi	x13,x24,-1933	 x24:0x6dc45766 x13=0x6dc45062
       33885000	      3387	80000bd8	fe56e013	ori	x0,x13,-27	 x13:0x6dc45062
       33895000	      3388	80000bdc	40040bb3	sub	x23,x8,x0	  x8:0x00000000  x0:0x00000000 x23=0x00000000
       33905000	      3389	80000be0	3ffd3d13	sltiu	x26,x26,1023	 x26:0xe6ae4879 x26=0x00000000
       33915000	      3390	80000be4	00c31b13	slli	x22,x6,0xc	  x6:0xf60806a3 x22=0x806a3000
       33925000	      3391	80000be8	b4e8ec13	ori	x24,x17,-1202	 x17:0xb6fed000 x24=0xfffffb4e
       33935000	      3392	80000bec	7de78917	auipc	x18,0x7de78	 x18=0xfde78be8
       33945000	      3393	80000bf0	009c6263	bltu	x24,x9,80000bf4	 x24:0xfffffb4e  x9:0x80009fc4
       33955000	      3394	80000bf4	01e8f463	bgeu	x17,x30,80000bfc	 x17:0xb6fed000 x30:0x00000000
       33965000	      3395	00000000	00000013	addi	x0,x0,0	  x0:0x00000000
       33975000	      3396	80000bf8	00000013	addi	x0,x0,0	  x0:0x00000000
       33985000	      3397	80000bfc	04fa6263	bltu	x20,x15,80000c40	 x20:0x80009f38 x15:0x00000000
       33995000	      3398	80000c00	01205d93	srli	x27,x0,0x12	  x0:0x00000000 x27=0x00000000
       34005000	      3399	80000c04	03ea7a63	bgeu	x20,x30,80000c38	 x20:0x80009f38 x30:0x00000000
       34015000	      3400	00000000	00000013	addi	x0,x0,0	  x0:0x00000000
       34025000	      3401	80000c34	00000013	addi	x0,x0,0	  x0:0x00000000
       34035000	      3402	80000c38	037f7663	bgeu	x30,x23,80000c64	 x30:0x00000000 x23:0x00000000
       34045000	      3403	00000000	00000013	addi	x0,x0,0	  x0:0x00000000
       34055000	      3404	80000c60	00000013	addi	x0,x0,0	  x0:0x00000000
       34065000	      3405	80000c64	40e785b3	sub	x11,x15,x14	 x15:0x00000000 x14:0x00000000 x11=0x00000000
       34075000	      3406	80000c68	011ec633	xor	x12,x29,x17	 x29:0xfc000000 x17:0xb6fed000 x12=0x4afed000
       34085000	      3407	80000c6c	03ee7a63	bgeu	x28,x30,80000ca0	 x28:0x00000000 x30:0x00000000
       34095000	      3408	00000000	00000013	addi	x0,x0,0	  x0:0x00000000
       34105000	      3409	80000c9c	00000013	addi	x0,x0,0	  x0:0x00000000
       34115000	      3410	80000ca0	413b5693	srai	x13,x22,0x13	 x22:0x806a3000 x13=0xfffff00d
       34125000	      3411	80000ca4	0186c263	blt	x13,x24,80000ca8	 x13:0xfffff00d x24:0xfffffb4e
       34135000	      3412	00000000	00000013	addi	x0,x0,0	  x0:0x00000000
       34145000	      3413	80000ca4	00000013	addi	x0,x0,0	  x0:0x00000000
       34155000	      3414	80000ca8	44e03593	sltiu	x11,x0,1102	  x0:0x00000000 x11=0x00000001
       34165000	      3415	80000cac	41565bb3	sra	x23,x12,x21	 x12:0x4afed000 x21:0xffff628e x23=0x00012bfb
       34175000	      3416	80000cb0	02fa1063	bne	x20,x15,80000cd0	 x20:0x80009f38 x15:0x00000000
       34185000	      3417	00000000	00000013	addi	x0,x0,0	  x0:0x00000000
       34195000	      3418	80000ccc	00000013	addi	x0,x0,0	  x0:0x00000000
       34205000	      3419	80000cd0	01291d93	slli	x27,x18,0x12	 x18:0xfde78be8 x27=0x2fa00000
       34215000	      3420	80000cd4	03fe5263	bge	x28,x31,80000cf8	 x28:0x00000000 x31:0x10a64879
       34225000	      3421	80000cd8	4ddccd37	lui	x26,0x4ddcc	 x26=0x4ddcc000
       34235000	      3422	80000cdc	00a17663	bgeu	x2,x10,80000ce8	  x2:0x46000000 x10:0x00000001
       34245000	      3423	00000000	00000013	addi	x0,x0,0	  x0:0x00000000
       34255000	      3424	80000ce4	00000013	addi	x0,x0,0	  x0:0x00000000
       34265000	      3425	80000ce8	016a9db3	sll	x27,x21,x22	 x21:0xffff628e x22:0x806a3000 x27=0xffff628e
       34275000	      3426	80000cec	407e56b3	sra	x13,x28,x7	 x28:0x00000000  x7:0x00000000 x13=0x00000000
       34285000	      3427	80000cf0	016e9733	sll	x14,x29,x22	 x29:0xfc000000 x22:0x806a3000 x14=0xfc000000
       34295000	      3428	80000cf4	41b9d913	srai	x18,x19,0x1b	 x19:0x20ec9a78 x18=0x00000004
       34305000	      3429	80000cf8	33386e93	ori	x29,x16,819	 x16:0xf7463000 x29=0xf7463333
       34315000	      3430	80000cfc	02704063	blt	x0,x7,80000d1c	  x0:0x00000000  x7:0x00000000
       34325000	      3431	80000d00	0333da63	bge	x7,x19,80000d34	  x7:0x00000000 x19:0x20ec9a78
       34335000	      3432	80000d04	001138b3	sltu	x17,x2,x1	  x2:0x46000000  x1:0x00000000 x17=0x00000000
       34345000	      3433	80000d08	02454e63	blt	x10,x4,80000d44	 x10:0x00000001  x4:0x80000000
       34355000	      3434	80000d0c	95736d93	ori	x27,x6,-1705	  x6:0xf60806a3 x27=0xfffffff7
       34365000	      3435	80000d10	fbac6c13	ori	x24,x24,-70	 x24:0xfffffb4e x24=0xfffffffe
       34375000	      3436	80000d14	412f8533	sub	x10,x31,x18	 x31:0x10a64879 x18:0x00000004 x10=0x10a64875
       34385000	      3437	80000d18	00323ab3	sltu	x21,x4,x3	  x4:0x80000000  x3:0x80009fd7 x21=0x00000001
       34395000	      3438	80000d1c	01211113	slli	x2,x2,0x12	  x2:0x46000000  x2=0x00000000
       34405000	      3439	80000d20	404e51b3	sra	x3,x28,x4	 x28:0x00000000  x4:0x80000000  x3=0x00000000
       34415000	      3440	80000d24	018b5fb3	srl	x31,x22,x24	 x22:0x806a3000 x24:0xfffffffe x31=0x00000002
       34425000	      3441	80000d28	0040fd33	and	x26,x1,x4	  x1:0x00000000  x4:0x80000000 x26=0x00000000
       34435000	      3442	80000d2c	006316b3	sll	x13,x6,x6	  x6:0xf60806a3  x6:0xf60806a3 x13=0xb0403518
       34445000	      3443	80000d30	012d15b3	sll	x11,x26,x18	 x26:0x00000000 x18:0x00000004 x11=0x00000000
       34455000	      3444	80000d34	409f0f33	sub	x30,x30,x9	 x30:0x00000000  x9:0x80009fc4 x30=0x7fff603c
       34465000	      3445	80000d38	ffb44693	xori	x13,x8,-5	  x8:0x00000000 x13=0xfffffffb
       34475000	      3446	80000d3c	ef42a613	slti	x12,x5,-268	  x5:0x80009f38 x12=0x00000001
       34485000	      3447	80000d40	d8bd6513	ori	x10,x26,-629	 x26:0x00000000 x10=0xfffffd8b
       34495000	      3448	80000d44	046af263	bgeu	x21,x6,80000d88	 x21:0x00000001  x6:0xf60806a3
       34505000	      3449	80000d48	c165ef37	lui	x30,0xc165e	 x30=0xc165e000
       34515000	      3450	80000d4c	a15d6b13	ori	x22,x26,-1515	 x26:0x00000000 x22=0xfffffa15
       34525000	      3451	80000d50	02e6fa63	bgeu	x13,x14,80000d84	 x13:0xfffffffb x14:0xfc000000
       34535000	      3452	00000000	00000013	addi	x0,x0,0	  x0:0x00000000
       34545000	      3453	80000d80	00000013	addi	x0,x0,0	  x0:0x00000000
       34555000	      3454	80000d84	0199c6b3	xor	x13,x19,x25	 x19:0x20ec9a78 x25:0x80000000 x13=0xa0ec9a78
       34565000	      3455	80000d88	02a69e63	bne	x13,x10,80000dc4	 x13:0xa0ec9a78 x10:0xfffffd8b
       34575000	      3456	00000000	00000013	addi	x0,x0,0	  x0:0x00000000
       34585000	      3457	80000dc0	00000013	addi	x0,x0,0	  x0:0x00000000
       34595000	      3458	80000dc4	0142a633	slt	x12,x5,x20	  x5:0x80009f38 x20:0x80009f38 x12=0x00000000
       34605000	      3459	80000dc8	d29b6413	ori	x8,x22,-727	 x22:0xfffffa15  x8=0xffffff3d
       34615000	      3460	80000dcc	4011d193	srai	x3,x3,0x1	  x3:0x00000000  x3=0x00000000
       34625000	      3461	80000dd0	01880263	beq	x16,x24,80000dd4	 x16:0xf7463000 x24:0xfffffffe
       34635000	      3462	80000dd4	01fd9d33	sll	x26,x27,x31	 x27:0xfffffff7 x31:0x00000002 x26=0xffffffdc
       34645000	      3463	80000dd8	00008e97	auipc	x29,0x8	 x29=0x80008dd4
       34655000	      3464	80000ddc	f5ae8e93	addi	x29,x29,-166	 x29:0x80008dd4 x29=0x80008d2e
       34665000	      3465	80000de0	033ec403	lbu	x8,51(x29)	 x29:0x80008d2e  x8=0x00000022 PA:0x80008d61
       34675000	      3466	80000de4	00a1d893	srli	x17,x3,0xa	  x3:0x00000000 x17=0x00000000
       34685000	      3467	80000de8	ffbe9f23	sh	x27,-2(x29)	 x29:0x80008d2e x27:0xfffffff7 PA:0x80008d2c
       34695000	      3468	80000dec	016e9583	lh	x11,22(x29)	 x29:0x80008d2e x11=0xffffffd1 PA:0x80008d44
       34705000	      3469	80000df0	b4983913	sltiu	x18,x16,-1207	 x16:0xf7463000 x18=0x00000001
       34715000	      3470	80000df4	011e83a3	sb	x17,7(x29)	 x29:0x80008d2e x17:0x00000000 PA:0x80008d35
       34725000	      3471	80000df8	00dd5533	srl	x10,x26,x13	 x26:0xffffffdc x13:0xa0ec9a78 x10=0x000000ff
       34735000	      3472	80000dfc	011ed113	srli	x2,x29,0x11	 x29:0x80008d2e  x2=0x00004000
       34745000	      3473	80000e00	003e8003	lb	x0,3(x29)	 x29:0x80008d2e PA:0x80008d31
       34755000	      3474	80000e04	00ce83a3	sb	x12,7(x29)	 x29:0x80008d2e x12:0x00000000 PA:0x80008d35
       34765000	      3475	80000e08	017a1613	slli	x12,x20,0x17	 x20:0x80009f38 x12=0x9c000000
       34775000	      3476	80000e0c	01813c33	sltu	x24,x2,x24	  x2:0x00004000 x24:0xfffffffe x24=0x00000001
       34785000	      3477	80000e10	fe7e8383	lb	x7,-25(x29)	 x29:0x80008d2e  x7=0xffffffa5 PA:0x80008d15
       34795000	      3478	80000e14	026ed803	lhu	x16,38(x29)	 x29:0x80008d2e x16=0x0000a4e8 PA:0x80008d54
       34805000	      3479	00000000	00000013	addi	x0,x0,0	  x0:0x00000000
       34815000	      3480	80000e18	01a825b3	slt	x11,x16,x26	 x16:0x0000a4e8 x26:0xffffffdc x11=0x00000000
       34825000	      3481	80000e1c	fffe84a3	sb	x31,-23(x29)	 x29:0x80008d2e x31:0x00000002 PA:0x80008d17
       34835000	      3482	80000e20	018f1333	sll	x6,x30,x24	 x30:0xc165e000 x24:0x00000001  x6=0x82cbc000
       34845000	      3483	80000e24	01be1193	slli	x3,x28,0x1b	 x28:0x00000000  x3=0x00000000
       34855000	      3484	80000e28	01462333	slt	x6,x12,x20	 x12:0x9c000000 x20:0x80009f38  x6=0x00000000
       34865000	      3485	80000e2c	015e8403	lb	x8,21(x29)	 x29:0x80008d2e  x8=0x00000000 PA:0x80008d43
       34875000	      3486	80000e30	00b66bb3	or	x23,x12,x11	 x12:0x9c000000 x11:0x00000000 x23=0x9c000000
       34885000	      3487	80000e34	01924e33	xor	x28,x4,x25	  x4:0x80000000 x25:0x80000000 x28=0x00000000
       34895000	      3488	80000e38	fc2e86a3	sb	x2,-51(x29)	 x29:0x80008d2e  x2:0x00004000 PA:0x80008cfb
       34905000	      3489	80000e3c	00000013	addi	x0,x0,0	  x0:0x00000000
       34915000	      3490	80000e40	0081abb3	slt	x23,x3,x8	  x3:0x00000000  x8:0x00000000 x23=0x00000000
       34925000	      3491	80000e44	038e9883	lh	x17,56(x29)	 x29:0x80008d2e x17=0x00004bb3 PA:0x80008d66
       34935000	      3492	80000e48	034e9e03	lh	x28,52(x29)	 x29:0x80008d2e x28=0x0000224f PA:0x80008d62
       34945000	      3493	80000e4c	fefe8203	lb	x4,-17(x29)	 x29:0x80008d2e  x4=0xffffffaf PA:0x80008d1d
       34955000	      3494	80000e50	edfb4093	xori	x1,x22,-289	 x22:0xfffffa15  x1=0x000004ca
       34965000	      3495	80000e54	005ecd03	lbu	x26,5(x29)	 x29:0x80008d2e x26=0x0000009b PA:0x80008d33
       34975000	      3496	80000e58	00ce9a23	sh	x12,20(x29)	 x29:0x80008d2e x12:0x9c000000 PA:0x80008d42
       34985000	      3497	80000e5c	084b2f93	slti	x31,x22,132	 x22:0xfffffa15 x31=0x00000001
       34995000	      3498	80000e60	710a0313	addi	x6,x20,1808	 x20:0x80009f38  x6=0x8000a648
       35005000	      3499	80000e64	01aedb03	lhu	x22,26(x29)	 x29:0x80008d2e x22=0x00001767 PA:0x80008d48
       35015000	      3500	80000e68	fdbec003	lbu	x0,-37(x29)	 x29:0x80008d2e PA:0x80008d09
       35025000	      3501	80000e6c	fdbe8e03	lb	x28,-37(x29)	 x29:0x80008d2e x28=0x00000035 PA:0x80008d09
       35035000	      3502	80000e70	fd6e80a3	sb	x22,-63(x29)	 x29:0x80008d2e x22:0x00001767 PA:0x80008cef
       35045000	      3503	80000e74	ffee8b83	lb	x23,-2(x29)	 x29:0x80008d2e x23=0xfffffff7 PA:0x80008d2c
       35055000	      3504	80000e78	e198f513	andi	x10,x17,-487	 x17:0x00004bb3 x10=0x00004a11
       35065000	      3505	80000e7c	019ec603	lbu	x12,25(x29)	 x29:0x80008d2e x12=0x000000a2 PA:0x80008d47
       35075000	      3506	80000e80	028e9583	lh	x11,40(x29)	 x29:0x80008d2e x11=0xfffff99d PA:0x80008d56
       35085000	      3507	80000e84	401c8a33	sub	x20,x25,x1	 x25:0x80000000  x1:0x000004ca x20=0x7ffffb36
       35095000	      3508	80000e88	5e2cab13	slti	x22,x25,1506	 x25:0x80000000 x22=0x00000001
       35105000	      3509	80000e8c	004ec303	lbu	x6,4(x29)	 x29:0x80008d2e  x6=0x000000bb PA:0x80008d32
       35115000	      3510	80000e90	40485fb3	sra	x31,x16,x4	 x16:0x0000a4e8  x4:0xffffffaf x31=0x00000001
       35125000	      3511	80000e94	fe13f317	auipc	x6,0xfe13f	  x6=0x7e13fe90
       35135000	      3512	80000e98	03fe8ea3	sb	x31,61(x29)	 x29:0x80008d2e x31:0x00000001 PA:0x80008d6b
       35145000	      3513	80000e9c	030ec603	lbu	x12,48(x29)	 x29:0x80008d2e x12=0x000000ec PA:0x80008d5e
       35155000	      3514	80000ea0	035ea123	sw	x21,34(x29)	 x29:0x80008d2e x21:0x00000001 PA:0x80008d50
       35165000	      3515	80000ea4	031e8803	lb	x16,49(x29)	 x29:0x80008d2e x16=0xffffffe6 PA:0x80008d5f
       35175000	      3516	80000ea8	009033b3	sltu	x7,x0,x9	  x0:0x00000000  x9:0x80009fc4  x7=0x00000001
       35185000	      3517	80000eac	fc4ec183	lbu	x3,-60(x29)	 x29:0x80008d2e  x3=0x000000bc PA:0x80008cf2
       35195000	      3518	80000eb0	00055e13	srli	x28,x10,0x0	 x10:0x00004a11 x28=0x00004a11
       35205000	      3519	80000eb4	956fc917	auipc	x18,0x956fc	 x18=0x156fceb0
       35215000	      3520	80000eb8	02ae9c63	bne	x29,x10,80000ef0	 x29:0x80008d2e x10:0x00004a11
       35225000	      3521	00000000	00000013	addi	x0,x0,0	  x0:0x00000000
       35235000	      3522	80000eec	00000013	addi	x0,x0,0	  x0:0x00000000
       35245000	      3523	80000ef0	29a54e13	xori	x28,x10,666	 x10:0x00004a11 x28=0x0000488b
       35255000	      3524	80000ef4	05385463	bge	x16,x19,80000f3c	 x16:0xffffffe6 x19:0x20ec9a78
       35265000	      3525	80000ef8	0131a433	slt	x8,x3,x19	  x3:0x000000bc x19:0x20ec9a78  x8=0x00000001
       35275000	      3526	80000efc	00000013	addi	x0,x0,0	  x0:0x00000000
       35285000	      3527	80000f00	01cd2d33	slt	x26,x26,x28	 x26:0x0000009b x28:0x0000488b x26=0x00000001
       35295000	      3528	80000f04	4133df13	srai	x30,x7,0x13	  x7:0x00000001 x30=0x00000000
       35305000	      3529	80000f08	00a37633	and	x12,x6,x10	  x6:0x7e13fe90 x10:0x00004a11 x12=0x00004a10
       35315000	      3530	80000f0c	1380ab13	slti	x22,x1,312	  x1:0x000004ca x22=0x00000000
       35325000	      3531	80000f10	74b341b7	lui	x3,0x74b34	  x3=0x74b34000
       35335000	      3532	80000f14	01c7bd33	sltu	x26,x15,x28	 x15:0x00000000 x28:0x0000488b x26=0x00000001
       35345000	      3533	80000f18	4065d833	sra	x16,x11,x6	 x11:0xfffff99d  x6:0x7e13fe90 x16=0xffffffff
       35355000	      3534	80000f1c	411dde93	srai	x29,x27,0x11	 x27:0xfffffff7 x29=0xffffffff
       35365000	      3535	80000f20	00000013	addi	x0,x0,0	  x0:0x00000000
       35375000	      3536	80000f24	013176b3	and	x13,x2,x19	  x2:0x00004000 x19:0x20ec9a78 x13=0x00000000
       35385000	      3537	80000f28	02704263	blt	x0,x7,80000f4c	  x0:0x00000000  x7:0x00000001
       35395000	      3538	00000000	00000013	addi	x0,x0,0	  x0:0x00000000
       35405000	      3539	80000f48	00000013	addi	x0,x0,0	  x0:0x00000000
       35415000	      3540	80000f4c	001fac33	slt	x24,x31,x1	 x31:0x00000001  x1:0x000004ca x24=0x00000001
       35425000	      3541	80000f50	01a25b93	srli	x23,x4,0x1a	  x4:0xffffffaf x23=0x0000003f
       35435000	      3542	80000f54	004c58b3	srl	x17,x24,x4	 x24:0x00000001  x4:0xffffffaf x17=0x00000000
       35445000	      3543	80000f58	0040c133	xor	x2,x1,x4	  x1:0x000004ca  x4:0xffffffaf  x2=0xfffffb65
       35455000	      3544	80000f5c	40250733	sub	x14,x10,x2	 x10:0x00004a11  x2:0xfffffb65 x14=0x00004eac
       35465000	      3545	80000f60	019b0333	add	x6,x22,x25	 x22:0x00000000 x25:0x80000000  x6=0x80000000
       35475000	      3546	80000f64	021fc063	blt	x31,x1,80000f84	 x31:0x00000001  x1:0x000004ca
       35485000	      3547	00000000	00000013	addi	x0,x0,0	  x0:0x00000000
       35495000	      3548	80000f80	00000013	addi	x0,x0,0	  x0:0x00000000
       35505000	      3549	80000f84	31974893	xori	x17,x14,793	 x14:0x00004eac x17=0x00004db5
       35515000	      3550	80000f88	01f8d693	srli	x13,x17,0x1f	 x17:0x00004db5 x13=0x00000000
       35525000	      3551	80000f8c	03ad0063	beq	x26,x26,80000fac	 x26:0x00000001 x26:0x00000001
       35535000	      3552	00000000	00000013	addi	x0,x0,0	  x0:0x00000000
       35545000	      3553	80000fa8	00000013	addi	x0,x0,0	  x0:0x00000000
       35555000	      3554	80000fac	0e255537	lui	x10,0xe255	 x10=0x0e255000
       35565000	      3555	80000fb0	e7b6f813	andi	x16,x13,-389	 x13:0x00000000 x16=0x00000000
       35575000	      3556	80000fb4	39e46613	ori	x12,x8,926	  x8:0x00000001 x12=0x0000039f
       35585000	      3557	80000fb8	01da0463	beq	x20,x29,80000fc0	 x20:0x7ffffb36 x29:0xffffffff
       35595000	      3558	80000fbc	0056f0b3	and	x1,x13,x5	 x13:0x00000000  x5:0x80009f38  x1=0x00000000
       35605000	      3559	80000fc0	0166a9b3	slt	x19,x13,x22	 x13:0x00000000 x22:0x00000000 x19=0x00000000
       35615000	      3560	80000fc4	00f89833	sll	x16,x17,x15	 x17:0x00004db5 x15:0x00000000 x16=0x00004db5
       35625000	      3561	80000fc8	012c3033	sltu	x0,x24,x18	 x24:0x00000001 x18:0x156fceb0
       35635000	      3562	80000fcc	5e2e2313	slti	x6,x28,1506	 x28:0x0000488b  x6=0x00000000
       35645000	      3563	80000fd0	03121a63	bne	x4,x17,80001004	  x4:0xffffffaf x17:0x00004db5
       35655000	      3564	00000000	00000013	addi	x0,x0,0	  x0:0x00000000
       35665000	      3565	80001000	00000013	addi	x0,x0,0	  x0:0x00000000
       35675000	      3566	80001004	01a35e33	srl	x28,x6,x26	  x6:0x00000000 x26:0x00000001 x28=0x00000000
       35685000	      3567	80001008	00000013	addi	x0,x0,0	  x0:0x00000000
       35695000	      3568	8000100c	4129d413	srai	x8,x19,0x12	 x19:0x00000000  x8=0x00000000
       35705000	      3569	80001010	004e8db3	add	x27,x29,x4	 x29:0xffffffff  x4:0xffffffaf x27=0xffffffae
       35715000	      3570	80001014	910a85b7	lui	x11,0x910a8	 x11=0x910a8000
       35725000	      3571	80001018	0421c263	blt	x3,x2,8000105c	  x3:0x74b34000  x2:0xfffffb65
       35735000	      3572	8000101c	015b4263	blt	x22,x21,80001020	 x22:0x00000000 x21:0x00000001
       35745000	      3573	00000000	00000013	addi	x0,x0,0	  x0:0x00000000
       35755000	      3574	8000101c	00000013	addi	x0,x0,0	  x0:0x00000000
       35765000	      3575	80001020	0319ca63	blt	x19,x17,80001054	 x19:0x00000000 x17:0x00004db5
       35775000	      3576	00000000	00000013	addi	x0,x0,0	  x0:0x00000000
       35785000	      3577	80001050	00000013	addi	x0,x0,0	  x0:0x00000000
       35795000	      3578	80001054	b129c737	lui	x14,0xb129c	 x14=0xb129c000
       35805000	      3579	80001058	005a30b3	sltu	x1,x20,x5	 x20:0x7ffffb36  x5:0x80009f38  x1=0x00000001
       35815000	      3580	8000105c	01c4f9b3	and	x19,x9,x28	  x9:0x80009fc4 x28:0x00000000 x19=0x00000000
       35825000	      3581	80001060	dff2d397	auipc	x7,0xdff2d	  x7=0x5ff2e05c
       35835000	      3582	80001064	76b12d13	slti	x26,x2,1899	  x2:0xfffffb65 x26=0x00000001
       35845000	      3583	80001068	02ab8863	beq	x23,x10,80001098	 x23:0x0000003f x10:0x0e255000
       35855000	      3584	8000106c	00076133	or	x2,x14,x0	 x14:0xb129c000  x0:0x00000000  x2=0xb129c000
       35865000	      3585	80001070	02b71063	bne	x14,x11,80001090	 x14:0xb129c000 x11:0x910a8000
       35875000	      3586	00000000	00000013	addi	x0,x0,0	  x0:0x00000000
       35885000	      3587	8000108c	00000013	addi	x0,x0,0	  x0:0x00000000
       35895000	      3588	80001090	00f953b3	srl	x7,x18,x15	 x18:0x156fceb0 x15:0x00000000  x7=0x156fceb0
       35905000	      3589	80001094	ede6b393	sltiu	x7,x13,-290	 x13:0x00000000  x7=0x00000001
       35915000	      3590	80001098	0003d263	bge	x7,x0,8000109c	  x7:0x00000001  x0:0x00000000
       35925000	      3591	00000000	00000013	addi	x0,x0,0	  x0:0x00000000
       35935000	      3592	80001098	00000013	addi	x0,x0,0	  x0:0x00000000
       35945000	      3593	8000109c	0095b433	sltu	x8,x11,x9	 x11:0x910a8000  x9:0x80009fc4  x8=0x00000000
       35955000	      3594	800010a0	01cfa733	slt	x14,x31,x28	 x31:0x00000001 x28:0x00000000 x14=0x00000000
       35965000	      3595	800010a4	719b2c37	lui	x24,0x719b2	 x24=0x719b2000
       35975000	      3596	800010a8	00b6f333	and	x6,x13,x11	 x13:0x00000000 x11:0x910a8000  x6=0x00000000
       35985000	      3597	800010ac	0071b933	sltu	x18,x3,x7	  x3:0x74b34000  x7:0x00000001 x18=0x00000000
       35995000	      3598	800010b0	402f5b33	sra	x22,x30,x2	 x30:0x00000000  x2:0xb129c000 x22=0x00000000
       36005000	      3599	800010b4	aa85a337	lui	x6,0xaa85a	  x6=0xaa85a000
       36015000	      3600	800010b8	df6c3213	sltiu	x4,x24,-522	 x24:0x719b2000  x4=0x00000001
       36025000	      3601	800010bc	00df8263	beq	x31,x13,800010c0	 x31:0x00000001 x13:0x00000000
       36035000	      3602	800010c0	0317c263	blt	x15,x17,800010e4	 x15:0x00000000 x17:0x00004db5
       36045000	      3603	00000000	00000013	addi	x0,x0,0	  x0:0x00000000
       36055000	      3604	800010e0	00000013	addi	x0,x0,0	  x0:0x00000000
       36065000	      3605	800010e4	00000013	addi	x0,x0,0	  x0:0x00000000
       36075000	      3606	800010e8	0109d463	bge	x19,x16,800010f0	 x19:0x00000000 x16:0x00004db5
       36085000	      3607	800010ec	00000013	addi	x0,x0,0	  x0:0x00000000
       36095000	      3608	800010f0	014b2933	slt	x18,x22,x20	 x22:0x00000000 x20:0x7ffffb36 x18=0x00000001
       36105000	      3609	800010f4	01c1a5b3	slt	x11,x3,x28	  x3:0x74b34000 x28:0x00000000 x11=0x00000000
       36115000	      3610	800010f8	00c71433	sll	x8,x14,x12	 x14:0x00000000 x12:0x0000039f  x8=0x00000000
       36125000	      3611	800010fc	00000013	addi	x0,x0,0	  x0:0x00000000
       36135000	      3612	80001100	00404733	xor	x14,x0,x4	  x0:0x00000000  x4:0x00000001 x14=0x00000001
       36145000	      3613	80001104	ab326a93	ori	x21,x4,-1357	  x4:0x00000001 x21=0xfffffab3
       36155000	      3614	80001108	043c8f93	addi	x31,x25,67	 x25:0x80000000 x31=0x80000043
       36165000	      3615	8000110c	4b990e13	addi	x28,x18,1209	 x18:0x00000001 x28=0x000004ba
       36175000	      3616	80001110	02b10863	beq	x2,x11,80001140	  x2:0xb129c000 x11:0x00000000
       36185000	      3617	80001114	3781e117	auipc	x2,0x3781e	  x2=0xb781f110
       36195000	      3618	80001118	010dd463	bge	x27,x16,80001120	 x27:0xffffffae x16:0x00004db5
       36205000	      3619	8000111c	03c5ca63	blt	x11,x28,80001150	 x11:0x00000000 x28:0x000004ba
       36215000	      3620	00000000	00000013	addi	x0,x0,0	  x0:0x00000000
       36225000	      3621	8000114c	00000013	addi	x0,x0,0	  x0:0x00000000
       36235000	      3622	80001150	e2c90a13	addi	x20,x18,-468	 x18:0x00000001 x20=0xfffffe2d
       36245000	      3623	80001154	001ef663	bgeu	x29,x1,80001160	 x29:0xffffffff  x1:0x00000001
       36255000	      3624	00000000	00000013	addi	x0,x0,0	  x0:0x00000000
       36265000	      3625	8000115c	00000013	addi	x0,x0,0	  x0:0x00000000
       36275000	      3626	80001160	00c8bab3	sltu	x21,x17,x12	 x17:0x00004db5 x12:0x0000039f x21=0x00000000
       36285000	      3627	80001164	f567b893	sltiu	x17,x15,-170	 x15:0x00000000 x17=0x00000001
       36295000	      3628	80001168	b6218f13	addi	x30,x3,-1182	  x3:0x74b34000 x30=0x74b33b62
       36305000	      3629	8000116c	405b8ab3	sub	x21,x23,x5	 x23:0x0000003f  x5:0x80009f38 x21=0x7fff6107
       36315000	      3630	80001170	4a075b97	auipc	x23,0x4a075	 x23=0xca07616c
       36325000	      3631	80001174	00e1b8b3	sltu	x17,x3,x14	  x3:0x74b34000 x14:0x00000001 x17=0x00000000
       36335000	      3632	80001178	ee2ee9b7	lui	x19,0xee2ee	 x19=0xee2ee000
       36345000	      3633	8000117c	01e88463	beq	x17,x30,80001184	 x17:0x00000000 x30:0x74b33b62
       36355000	      3634	80001180	48608993	addi	x19,x1,1158	  x1:0x00000001 x19=0x00000487
       36365000	      3635	80001184	01a8c533	xor	x10,x17,x26	 x17:0x00000000 x26:0x00000001 x10=0x00000001
       36375000	      3636	80001188	004f7463	bgeu	x30,x4,80001190	 x30:0x74b33b62  x4:0x00000001
       36385000	      3637	00000000	00000013	addi	x0,x0,0	  x0:0x00000000
       36395000	      3638	8000118c	00000013	addi	x0,x0,0	  x0:0x00000000
       36405000	      3639	80001190	40dad8b3	sra	x17,x21,x13	 x21:0x7fff6107 x13:0x00000000 x17=0x7fff6107
       36415000	      3640	80001194	01bb1f93	slli	x31,x22,0x1b	 x22:0x00000000 x31=0x00000000
       36425000	      3641	80001198	004d23b3	slt	x7,x26,x4	 x26:0x00000001  x4:0x00000001  x7=0x00000000
       36435000	      3642	8000119c	00d1a0b3	slt	x1,x3,x13	  x3:0x74b34000 x13:0x00000000  x1=0x00000000
       36445000	      3643	800011a0	01891613	slli	x12,x18,0x18	 x18:0x00000001 x12=0x01000000
       36455000	      3644	800011a4	0117da13	srli	x20,x15,0x11	 x15:0x00000000 x20=0x00000000
       36465000	      3645	800011a8	049f0263	beq	x30,x9,800011ec	 x30:0x74b33b62  x9:0x80009fc4
       36475000	      3646	800011ac	00d02d33	slt	x26,x0,x13	  x0:0x00000000 x13:0x00000000 x26=0x00000000
       36485000	      3647	800011b0	47672d13	slti	x26,x14,1142	 x14:0x00000001 x26=0x00000001
       36495000	      3648	800011b4	01d9da13	srli	x20,x19,0x1d	 x19:0x00000487 x20=0x00000000
       36505000	      3649	800011b8	03b18c63	beq	x3,x27,800011f0	  x3:0x74b34000 x27:0xffffffae
       36515000	      3650	800011bc	015d5db3	srl	x27,x26,x21	 x26:0x00000001 x21:0x7fff6107 x27=0x00000000
       36525000	      3651	800011c0	408d0eb3	sub	x29,x26,x8	 x26:0x00000001  x8:0x00000000 x29=0x00000001
       36535000	      3652	800011c4	d4167893	andi	x17,x12,-703	 x12:0x01000000 x17=0x01000000
       36545000	      3653	800011c8	49038c13	addi	x24,x7,1168	  x7:0x00000000 x24=0x00000490
       36555000	      3654	800011cc	0199d833	srl	x16,x19,x25	 x19:0x00000487 x25:0x80000000 x16=0x00000487
       36565000	      3655	800011d0	0313ca63	blt	x7,x17,80001204	  x7:0x00000000 x17:0x01000000
       36575000	      3656	00000000	00000013	addi	x0,x0,0	  x0:0x00000000
       36585000	      3657	80001200	00000013	addi	x0,x0,0	  x0:0x00000000
       36595000	      3658	80001204	042a4463	blt	x20,x2,8000124c	 x20:0x00000000  x2:0xb781f110
       36605000	      3659	80001208	0223da63	bge	x7,x2,8000123c	  x7:0x00000000  x2:0xb781f110
       36615000	      3660	00000000	00000013	addi	x0,x0,0	  x0:0x00000000
       36625000	      3661	80001238	00000013	addi	x0,x0,0	  x0:0x00000000
       36635000	      3662	8000123c	4059d593	srai	x11,x19,0x5	 x19:0x00000487 x11=0x00000024
       36645000	      3663	80001240	007e71b3	and	x3,x28,x7	 x28:0x000004ba  x7:0x00000000  x3=0x00000000
       36655000	      3664	80001244	407b06b3	sub	x13,x22,x7	 x22:0x00000000  x7:0x00000000 x13=0x00000000
       36665000	      3665	80001248	9e87f393	andi	x7,x15,-1560	 x15:0x00000000  x7=0x00000000
       36675000	      3666	8000124c	02b40063	beq	x8,x11,8000126c	  x8:0x00000000 x11:0x00000024
       36685000	      3667	80001250	407b5533	sra	x10,x22,x7	 x22:0x00000000  x7:0x00000000 x10=0x00000000
       36695000	      3668	80001254	055a7263	bgeu	x20,x21,80001298	 x20:0x00000000 x21:0x7fff6107
       36705000	      3669	80001258	ce3c0a13	addi	x20,x24,-797	 x24:0x00000490 x20=0x00000173
       36715000	      3670	8000125c	01429d13	slli	x26,x5,0x14	  x5:0x80009f38 x26=0xf3800000
       36725000	      3671	80001260	04afc263	blt	x31,x10,800012a4	 x31:0x00000000 x10:0x00000000
       36735000	      3672	80001264	014d7463	bgeu	x26,x20,8000126c	 x26:0xf3800000 x20:0x00000173
       36745000	      3673	00000000	00000013	addi	x0,x0,0	  x0:0x00000000
       36755000	      3674	80001268	00000013	addi	x0,x0,0	  x0:0x00000000
       36765000	      3675	8000126c	012ad513	srli	x10,x21,0x12	 x21:0x7fff6107 x10=0x00001fff
       36775000	      3676	80001270	bda8a517	auipc	x10,0xbda8a	 x10=0x3da8b26c
       36785000	      3677	80001274	b2f77693	andi	x13,x14,-1233	 x14:0x00000001 x13=0x00000001
       36795000	      3678	80001278	00971393	slli	x7,x14,0x9	 x14:0x00000001  x7=0x00000200
       36805000	      3679	8000127c	22d7bf17	auipc	x30,0x22d7b	 x30=0xa2d7c278
       36815000	      3680	80001280	0114ba33	sltu	x20,x9,x17	  x9:0x80009fc4 x17:0x01000000 x20=0x00000000
       36825000	      3681	80001284	02ee1863	bne	x28,x14,800012b4	 x28:0x000004ba x14:0x00000001
       36835000	      3682	00000000	00000013	addi	x0,x0,0	  x0:0x00000000
       36845000	      3683	800012b0	00000013	addi	x0,x0,0	  x0:0x00000000
       36855000	      3684	800012b4	acd5b993	sltiu	x19,x11,-1331	 x11:0x00000024 x19=0x00000001
       36865000	      3685	800012b8	41595093	srai	x1,x18,0x15	 x18:0x00000001  x1=0x00000000
       36875000	      3686	800012bc	08b67a13	andi	x20,x12,139	 x12:0x01000000 x20=0x00000000
       36885000	      3687	800012c0	01c2f5b3	and	x11,x5,x28	  x5:0x80009f38 x28:0x000004ba x11=0x00000438
       36895000	      3688	800012c4	437f4213	xori	x4,x30,1079	 x30:0xa2d7c278  x4=0xa2d7c64f
       36905000	      3689	800012c8	0042d113	srli	x2,x5,0x4	  x5:0x80009f38  x2=0x080009f3
       36915000	      3690	800012cc	015c8463	beq	x25,x21,800012d4	 x25:0x80000000 x21:0x7fff6107
       36925000	      3691	800012d0	40e45fb3	sra	x31,x8,x14	  x8:0x00000000 x14:0x00000001 x31=0x00000000
       36935000	      3692	800012d4	018efc63	bgeu	x29,x24,800012ec	 x29:0x00000001 x24:0x00000490
       36945000	      3693	800012d8	66eca993	slti	x19,x25,1646	 x25:0x80000000 x19=0x00000001
       36955000	      3694	800012dc	9c447a93	andi	x21,x8,-1596	  x8:0x00000000 x21=0x00000000
       36965000	      3695	800012e0	413f0433	sub	x8,x30,x19	 x30:0xa2d7c278 x19:0x00000001  x8=0xa2d7c277
       36975000	      3696	800012e4	e8aae6b7	lui	x13,0xe8aae	 x13=0xe8aae000
       36985000	      3697	800012e8	01c521b3	slt	x3,x10,x28	 x10:0x3da8b26c x28:0x000004ba  x3=0x00000000
       36995000	      3698	800012ec	00c19663	bne	x3,x12,800012f8	  x3:0x00000000 x12:0x01000000
       37005000	      3699	00000000	00000013	addi	x0,x0,0	  x0:0x00000000
       37015000	      3700	800012f4	00000013	addi	x0,x0,0	  x0:0x00000000
       37025000	      3701	800012f8	00e58313	addi	x6,x11,14	 x11:0x00000438  x6=0x00000446
       37035000	      3702	800012fc	00000013	addi	x0,x0,0	  x0:0x00000000
       37045000	      3703	80001300	40b00fb3	sub	x31,x0,x11	  x0:0x00000000 x11:0x00000438 x31=0xfffffbc8
       37055000	      3704	80001304	87dd7893	andi	x17,x26,-1923	 x26:0xf3800000 x17=0xf3800000
       37065000	      3705	80001308	00000013	addi	x0,x0,0	  x0:0x00000000
       37075000	      3706	8000130c	30868593	addi	x11,x13,776	 x13:0xe8aae000 x11=0xe8aae308
       37085000	      3707	80001310	eeed3437	lui	x8,0xeeed3	  x8=0xeeed3000
       37095000	      3708	80001314	40090533	sub	x10,x18,x0	 x18:0x00000001  x0:0x00000000 x10=0x00000001
       37105000	      3709	80001318	337ef213	andi	x4,x29,823	 x29:0x00000001  x4=0x00000001
       37115000	      3710	8000131c	03bfca63	blt	x31,x27,80001350	 x31:0xfffffbc8 x27:0x00000000
       37125000	      3711	00000000	00000013	addi	x0,x0,0	  x0:0x00000000
       37135000	      3712	8000134c	00000013	addi	x0,x0,0	  x0:0x00000000
       37145000	      3713	80001350	0079f5b3	and	x11,x19,x7	 x19:0x00000001  x7:0x00000200 x11=0x00000000
       37155000	      3714	80001354	03a64c63	blt	x12,x26,8000138c	 x12:0x01000000 x26:0xf3800000
       37165000	      3715	80001358	05d44663	blt	x8,x29,800013a4	  x8:0xeeed3000 x29:0x00000001
       37175000	      3716	00000000	00000013	addi	x0,x0,0	  x0:0x00000000
       37185000	      3717	800013a0	00000013	addi	x0,x0,0	  x0:0x00000000
       37195000	      3718	800013a4	00cbc663	blt	x23,x12,800013b0	 x23:0xca07616c x12:0x01000000
       37205000	      3719	00000000	00000013	addi	x0,x0,0	  x0:0x00000000
       37215000	      3720	800013ac	00000013	addi	x0,x0,0	  x0:0x00000000
       37225000	      3721	800013b0	42f13613	sltiu	x12,x2,1071	  x2:0x080009f3 x12=0x00000000
       37235000	      3722	800013b4	00db00b3	add	x1,x22,x13	 x22:0x00000000 x13:0xe8aae000  x1=0xe8aae000
       37245000	      3723	800013b8	04cd8463	beq	x27,x12,80001400	 x27:0x00000000 x12:0x00000000
       37255000	      3724	00000000	00000013	addi	x0,x0,0	  x0:0x00000000
       37265000	      3725	800013fc	00000013	addi	x0,x0,0	  x0:0x00000000
       37275000	      3726	80001400	c90fa613	slti	x12,x31,-880	 x31:0xfffffbc8 x12=0x00000001
       37285000	      3727	80001404	000c45b3	xor	x11,x24,x0	 x24:0x00000490  x0:0x00000000 x11=0x00000490
       37295000	      3728	80001408	b0da0f13	addi	x30,x20,-1267	 x20:0x00000000 x30=0xfffffb0d
       37305000	      3729	8000140c	00701ab3	sll	x21,x0,x7	  x0:0x00000000  x7:0x00000200 x21=0x00000000
       37315000	      3730	80001410	01e94a33	xor	x20,x18,x30	 x18:0x00000001 x30:0xfffffb0d x20=0xfffffb0c
       37325000	      3731	80001414	1a8e9597	auipc	x11,0x1a8e9	 x11=0x9a8ea410
       37335000	      3732	80001418	01b14bb3	xor	x23,x2,x27	  x2:0x080009f3 x27:0x00000000 x23=0x080009f3
       37345000	      3733	8000141c	02fbf263	bgeu	x23,x15,80001440	 x23:0x080009f3 x15:0x00000000
       37355000	      3734	00000000	00000013	addi	x0,x0,0	  x0:0x00000000
       37365000	      3735	8000143c	00000013	addi	x0,x0,0	  x0:0x00000000
       37375000	      3736	80001440	40f456b3	sra	x13,x8,x15	  x8:0xeeed3000 x15:0x00000000 x13=0xeeed3000
       37385000	      3737	80001444	008c1593	slli	x11,x24,0x8	 x24:0x00000490 x11=0x00049000
       37395000	      3738	80001448	0048e463	bltu	x17,x4,80001450	 x17:0xf3800000  x4:0x00000001
       37405000	      3739	8000144c	4008d333	sra	x6,x17,x0	 x17:0xf3800000  x0:0x00000000  x6=0xf3800000
       37415000	      3740	80001450	0208c063	blt	x17,x0,80001470	 x17:0xf3800000  x0:0x00000000
       37425000	      3741	00000000	00000013	addi	x0,x0,0	  x0:0x00000000
       37435000	      3742	8000146c	00000013	addi	x0,x0,0	  x0:0x00000000
       37445000	      3743	80001470	0052d6b3	srl	x13,x5,x5	  x5:0x80009f38  x5:0x80009f38 x13=0x00000080
       37455000	      3744	80001474	403959b3	sra	x19,x18,x3	 x18:0x00000001  x3:0x00000000 x19=0x00000001
       37465000	      3745	80001478	1a3f4093	xori	x1,x30,419	 x30:0xfffffb0d  x1=0xfffffaae
       37475000	      3746	8000147c	016638b3	sltu	x17,x12,x22	 x12:0x00000001 x22:0x00000000 x17=0x00000000
       37485000	      3747	80001480	08aa0263	beq	x20,x10,80001504	 x20:0xfffffb0c x10:0x00000001
       37495000	      3748	80001484	b94c0f93	addi	x31,x24,-1132	 x24:0x00000490 x31=0x00000024
       37505000	      3749	80001488	01d1a033	slt	x0,x3,x29	  x3:0x00000000 x29:0x00000001
       37515000	      3750	8000148c	06b46663	bltu	x8,x11,800014f8	  x8:0xeeed3000 x11:0x00049000
       37525000	      3751	80001490	8aa70793	addi	x15,x14,-1878	 x14:0x00000001 x15=0xfffff8ab
       37535000	      3752	80001494	033b4e63	blt	x22,x19,800014d0	 x22:0x00000000 x19:0x00000001
       37545000	      3753	00000000	00000013	addi	x0,x0,0	  x0:0x00000000
       37555000	      3754	800014cc	00000013	addi	x0,x0,0	  x0:0x00000000
       37565000	      3755	800014d0	7a2e2f93	slti	x31,x28,1954	 x28:0x000004ba x31=0x00000001
       37575000	      3756	800014d4	01f149b3	xor	x19,x2,x31	  x2:0x080009f3 x31:0x00000001 x19=0x080009f2
       37585000	      3757	800014d8	00e2d093	srli	x1,x5,0xe	  x5:0x80009f38  x1=0x00020002
       37595000	      3758	800014dc	02fcea63	bltu	x25,x15,80001510	 x25:0x80000000 x15:0xfffff8ab
       37605000	      3759	00000000	00000013	addi	x0,x0,0	  x0:0x00000000
       37615000	      3760	8000150c	00000013	addi	x0,x0,0	  x0:0x00000000
       37625000	      3761	80001510	01ea9e33	sll	x28,x21,x30	 x21:0x00000000 x30:0xfffffb0d x28=0x00000000
       37635000	      3762	80001514	74032093	slti	x1,x6,1856	  x6:0xf3800000  x1=0x00000001
       37645000	      3763	80001518	025d8263	beq	x27,x5,8000153c	 x27:0x00000000  x5:0x80009f38
       37655000	      3764	8000151c	8859d697	auipc	x13,0x8859d	 x13=0x0859e518
       37665000	      3765	80001520	01a69833	sll	x16,x13,x26	 x13:0x0859e518 x26:0xf3800000 x16=0x0859e518
       37675000	      3766	80001524	41e7d033	sra	x0,x15,x30	 x15:0xfffff8ab x30:0xfffffb0d
       37685000	      3767	80001528	58107113	andi	x2,x0,1409	  x0:0x00000000  x2=0x00000000
       37695000	      3768	8000152c	0031c3b3	xor	x7,x3,x3	  x3:0x00000000  x3:0x00000000  x7=0x00000000
       37705000	      3769	80001530	03219a63	bne	x3,x18,80001564	  x3:0x00000000 x18:0x00000001
       37715000	      3770	00000000	00000013	addi	x0,x0,0	  x0:0x00000000
       37725000	      3771	80001560	00000013	addi	x0,x0,0	  x0:0x00000000
       37735000	      3772	80001564	00973eb3	sltu	x29,x14,x9	 x14:0x00000001  x9:0x80009fc4 x29=0x00000001
       37745000	      3773	80001568	02e07e63	bgeu	x0,x14,800015a4	  x0:0x00000000 x14:0x00000001
       37755000	      3774	8000156c	00ab56b3	srl	x13,x22,x10	 x22:0x00000000 x10:0x00000001 x13=0x00000000
       37765000	      3775	80001570	7f36ae13	slti	x28,x13,2035	 x13:0x00000000 x28=0x00000001
       37775000	      3776	80001574	409bdc33	sra	x24,x23,x9	 x23:0x080009f3  x9:0x80009fc4 x24=0x0080009f
       37785000	      3777	80001578	41d20433	sub	x8,x4,x29	  x4:0x00000001 x29:0x00000001  x8=0x00000000
       37795000	      3778	8000157c	41418c33	sub	x24,x3,x20	  x3:0x00000000 x20:0xfffffb0c x24=0x000004f4
       37805000	      3779	80001580	410d00b3	sub	x1,x26,x16	 x26:0xf3800000 x16:0x0859e518  x1=0xeb261ae8
       37815000	      3780	80001584	00a55113	srli	x2,x10,0xa	 x10:0x00000001  x2=0x00000000
       37825000	      3781	80001588	0475e463	bltu	x11,x7,800015d0	 x11:0x00049000  x7:0x00000000
       37835000	      3782	8000158c	7abde113	ori	x2,x27,1963	 x27:0x00000000  x2=0x000007ab
       37845000	      3783	80001590	643ab513	sltiu	x10,x21,1603	 x21:0x00000000 x10=0x00000001
       37855000	      3784	80001594	03f0cc63	blt	x1,x31,800015cc	  x1:0xeb261ae8 x31:0x00000001
       37865000	      3785	00000000	00000013	addi	x0,x0,0	  x0:0x00000000
       37875000	      3786	800015c8	00000013	addi	x0,x0,0	  x0:0x00000000
       37885000	      3787	800015cc	00ed68b3	or	x17,x26,x14	 x26:0xf3800000 x14:0x00000001 x17=0xf3800001
       37895000	      3788	800015d0	02d21063	bne	x4,x13,800015f0	  x4:0x00000001 x13:0x00000000
       37905000	      3789	00000000	00000013	addi	x0,x0,0	  x0:0x00000000
       37915000	      3790	800015ec	00000013	addi	x0,x0,0	  x0:0x00000000
       37925000	      3791	800015f0	0173d593	srli	x11,x7,0x17	  x7:0x00000000 x11=0x00000000
       37935000	      3792	800015f4	41ab5033	sra	x0,x22,x26	 x22:0x00000000 x26:0xf3800000
       37945000	      3793	800015f8	00647f33	and	x30,x8,x6	  x8:0x00000000  x6:0xf3800000 x30=0x00000000
       37955000	      3794	800015fc	0433d063	bge	x7,x3,8000163c	  x7:0x00000000  x3:0x00000000
       37965000	      3795	00000000	00000013	addi	x0,x0,0	  x0:0x00000000
       37975000	      3796	80001638	00000013	addi	x0,x0,0	  x0:0x00000000
       37985000	      3797	8000163c	02d64263	blt	x12,x13,80001660	 x12:0x00000001 x13:0x00000000
       37995000	      3798	80001640	61a9aa13	slti	x20,x19,1562	 x19:0x080009f2 x20=0x00000000
       38005000	      3799	80001644	d3643197	auipc	x3,0xd3643	  x3=0x53644640
       38015000	      3800	80001648	403ed9b3	sra	x19,x29,x3	 x29:0x00000001  x3:0x53644640 x19=0x00000001
       38025000	      3801	8000164c	26e58f93	addi	x31,x11,622	 x11:0x00000000 x31=0x0000026e
       38035000	      3802	80001650	b8e06013	ori	x0,x0,-1138	  x0:0x00000000
       38045000	      3803	80001654	00f76463	bltu	x14,x15,8000165c	 x14:0x00000001 x15:0xfffff8ab
       38055000	      3804	00000000	00000013	addi	x0,x0,0	  x0:0x00000000
       38065000	      3805	80001658	00000013	addi	x0,x0,0	  x0:0x00000000
       38075000	      3806	8000165c	00000013	addi	x0,x0,0	  x0:0x00000000
       38085000	      3807	80001660	05631263	bne	x6,x22,800016a4	  x6:0xf3800000 x22:0x00000000
       38095000	      3808	00000000	00000013	addi	x0,x0,0	  x0:0x00000000
       38105000	      3809	800016a0	00000013	addi	x0,x0,0	  x0:0x00000000
       38115000	      3810	800016a4	03944c63	blt	x8,x25,800016dc	  x8:0x00000000 x25:0x80000000
       38125000	      3811	800016a8	00cd9533	sll	x10,x27,x12	 x27:0x00000000 x12:0x00000001 x10=0x00000000
       38135000	      3812	800016ac	41b1d113	srai	x2,x3,0x1b	  x3:0x53644640  x2=0x0000000a
       38145000	      3813	800016b0	9ff70f13	addi	x30,x14,-1537	 x14:0x00000001 x30=0xfffffa00
       38155000	      3814	800016b4	8698af13	slti	x30,x17,-1943	 x17:0xf3800001 x30=0x00000001
       38165000	      3815	800016b8	35376393	ori	x7,x14,851	 x14:0x00000001  x7=0x00000353
       38175000	      3816	800016bc	0168ffb3	and	x31,x17,x22	 x17:0xf3800001 x22:0x00000000 x31=0x00000000
       38185000	      3817	800016c0	8cb7bb13	sltiu	x22,x15,-1845	 x15:0xfffff8ab x22=0x00000001
       38195000	      3818	800016c4	01e12fb3	slt	x31,x2,x30	  x2:0x0000000a x30:0x00000001 x31=0x00000000
       38205000	      3819	800016c8	dcc6fe93	andi	x29,x13,-564	 x13:0x00000000 x29=0x00000000
       38215000	      3820	800016cc	000bfe33	and	x28,x23,x0	 x23:0x080009f3  x0:0x00000000 x28=0x00000000
       38225000	      3821	800016d0	41b28133	sub	x2,x5,x27	  x5:0x80009f38 x27:0x00000000  x2=0x80009f38
       38235000	      3822	800016d4	00408263	beq	x1,x4,800016d8	  x1:0xeb261ae8  x4:0x00000001
       38245000	      3823	800016d8	01fd26b3	slt	x13,x26,x31	 x26:0xf3800000 x31:0x00000000 x13=0x00000001
       38255000	      3824	800016dc	0152d813	srli	x16,x5,0x15	  x5:0x80009f38 x16=0x00000400
       38265000	      3825	800016e0	41dd2597	auipc	x11,0x41dd2	 x11=0xc1dd36dc
       38275000	      3826	800016e4	00e4c263	blt	x9,x14,800016e8	  x9:0x80009fc4 x14:0x00000001
       38285000	      3827	00000000	00000013	addi	x0,x0,0	  x0:0x00000000
       38295000	      3828	800016e4	00000013	addi	x0,x0,0	  x0:0x00000000
       38305000	      3829	800016e8	41c65fb3	sra	x31,x12,x28	 x12:0x00000001 x28:0x00000000 x31=0x00000001
       38315000	      3830	800016ec	00ab55b3	srl	x11,x22,x10	 x22:0x00000001 x10:0x00000000 x11=0x00000001
       38325000	      3831	800016f0	01294463	blt	x18,x18,800016f8	 x18:0x00000001 x18:0x00000001
       38335000	      3832	800016f4	01e4d813	srli	x16,x9,0x1e	  x9:0x80009fc4 x16=0x00000002
       38345000	      3833	800016f8	0234fa63	bgeu	x9,x3,8000172c	  x9:0x80009fc4  x3:0x53644640
       38355000	      3834	00000000	00000013	addi	x0,x0,0	  x0:0x00000000
       38365000	      3835	80001728	00000013	addi	x0,x0,0	  x0:0x00000000
       38375000	      3836	8000172c	03f6f063	bgeu	x13,x31,8000174c	 x13:0x00000001 x31:0x00000001
       38385000	      3837	00000000	00000013	addi	x0,x0,0	  x0:0x00000000
       38395000	      3838	80001748	00000013	addi	x0,x0,0	  x0:0x00000000
       38405000	      3839	8000174c	00323333	sltu	x6,x4,x3	  x4:0x00000001  x3:0x53644640  x6=0x00000001
       38415000	      3840	80001750	00f33433	sltu	x8,x6,x15	  x6:0x00000001 x15:0xfffff8ab  x8=0x00000001
       38425000	      3841	80001754	04c86463	bltu	x16,x12,8000179c	 x16:0x00000002 x12:0x00000001
       38435000	      3842	80001758	02194863	blt	x18,x1,80001788	 x18:0x00000001  x1:0xeb261ae8
       38445000	      3843	8000175c	02900a63	beq	x0,x9,80001790	  x0:0x00000000  x9:0x80009fc4
       38455000	      3844	80001760	017e4e33	xor	x28,x28,x23	 x28:0x00000000 x23:0x080009f3 x28=0x080009f3
       38465000	      3845	80001764	7f3ef013	andi	x0,x29,2035	 x29:0x00000000
       38475000	      3846	80001768	00000013	addi	x0,x0,0	  x0:0x00000000
       38485000	      3847	8000176c	00f79213	slli	x4,x15,0xf	 x15:0xfffff8ab  x4=0xfc558000
       38495000	      3848	80001770	0363e063	bltu	x7,x22,80001790	  x7:0x00000353 x22:0x00000001
       38505000	      3849	80001774	70eff793	andi	x15,x31,1806	 x31:0x00000001 x15=0x00000000
       38515000	      3850	80001778	00000013	addi	x0,x0,0	  x0:0x00000000
       38525000	      3851	8000177c	00000013	addi	x0,x0,0	  x0:0x00000000
       38535000	      3852	80001780	01219433	sll	x8,x3,x18	  x3:0x53644640 x18:0x00000001  x8=0xa6c88c80
       38545000	      3853	80001784	566e4237	lui	x4,0x566e4	  x4=0x566e4000
       38555000	      3854	80001788	02184663	blt	x16,x1,800017b4	 x16:0x00000002  x1:0xeb261ae8
       38565000	      3855	8000178c	6e331697	auipc	x13,0x6e331	 x13=0xee332788
       38575000	      3856	80001790	5ea9b513	sltiu	x10,x19,1514	 x19:0x00000001 x10=0x00000001
       38585000	      3857	80001794	00000013	addi	x0,x0,0	  x0:0x00000000
       38595000	      3858	80001798	41ea88b3	sub	x17,x21,x30	 x21:0x00000000 x30:0x00000001 x17=0xffffffff
       38605000	      3859	8000179c	00830263	beq	x6,x8,800017a0	  x6:0x00000001  x8:0xa6c88c80
       38615000	      3860	800017a0	0567d263	bge	x15,x22,800017e4	 x15:0x00000000 x22:0x00000001
       38625000	      3861	800017a4	01ce0663	beq	x28,x28,800017b0	 x28:0x080009f3 x28:0x080009f3
       38635000	      3862	00000000	00000013	addi	x0,x0,0	  x0:0x00000000
       38645000	      3863	800017ac	00000013	addi	x0,x0,0	  x0:0x00000000
       38655000	      3864	800017b0	020ac263	blt	x21,x0,800017d4	 x21:0x00000000  x0:0x00000000
       38665000	      3865	800017b4	4159de13	srai	x28,x19,0x15	 x19:0x00000001 x28=0x00000000
       38675000	      3866	800017b8	0470d663	bge	x1,x7,80001804	  x1:0xeb261ae8  x7:0x00000353
       38685000	      3867	800017bc	001e9713	slli	x14,x29,0x1	 x29:0x00000000 x14=0x00000000
       38695000	      3868	800017c0	00380933	add	x18,x16,x3	 x16:0x00000002  x3:0x53644640 x18=0x53644642
       38705000	      3869	800017c4	00fa4633	xor	x12,x20,x15	 x20:0x00000000 x15:0x00000000 x12=0x00000000
       38715000	      3870	800017c8	8661ac13	slti	x24,x3,-1946	  x3:0x53644640 x24=0x00000000
       38725000	      3871	800017cc	6fedb917	auipc	x18,0x6fedb	 x18=0xefedc7c8
       38735000	      3872	800017d0	00c75e13	srli	x28,x14,0xc	 x14:0x00000000 x28=0x00000000
       38745000	      3873	800017d4	01cb4e33	xor	x28,x22,x28	 x22:0x00000001 x28:0x00000000 x28=0x00000001
       38755000	      3874	800017d8	503b0117	auipc	x2,0x503b0	  x2=0xd03b17d4
       38765000	      3875	800017dc	015b83b3	add	x7,x23,x21	 x23:0x080009f3 x21:0x00000000  x7=0x080009f3
       38775000	      3876	800017e0	37c17b93	andi	x23,x2,892	  x2:0xd03b17d4 x23=0x00000354
       38785000	      3877	800017e4	0205c063	blt	x11,x0,80001804	 x11:0x00000001  x0:0x00000000
       38795000	      3878	800017e8	40130133	sub	x2,x6,x1	  x6:0x00000001  x1:0xeb261ae8  x2=0x14d9e519
       38805000	      3879	800017ec	00455793	srli	x15,x10,0x4	 x10:0x00000001 x15=0x00000000
       38815000	      3880	800017f0	0187d033	srl	x0,x15,x24	 x15:0x00000000 x24:0x00000000
       38825000	      3881	800017f4	77c0b893	sltiu	x17,x1,1916	  x1:0xeb261ae8 x17=0x00000000
       38835000	      3882	800017f8	01e8b7b3	sltu	x15,x17,x30	 x17:0x00000000 x30:0x00000001 x15=0x00000001
       38845000	      3883	800017fc	01151bb3	sll	x23,x10,x17	 x10:0x00000001 x17:0x00000000 x23=0x00000001
       38855000	      3884	80001800	0046efb3	or	x31,x13,x4	 x13:0xee332788  x4:0x566e4000 x31=0xfe7f6788
       38865000	      3885	80001804	0146b6b3	sltu	x13,x13,x20	 x13:0xee332788 x20:0x00000000 x13=0x00000000
       38875000	      3886	80001808	01698833	add	x16,x19,x22	 x19:0x00000001 x22:0x00000001 x16=0x00000002
       38885000	      3887	8000180c	6b973413	sltiu	x8,x14,1721	 x14:0x00000000  x8=0x00000001
       38895000	      3888	80001810	7eaef193	andi	x3,x29,2026	 x29:0x00000000  x3=0x00000000
       38905000	      3889	80001814	044cc063	blt	x25,x4,80001854	 x25:0x80000000  x4:0x566e4000
       38915000	      3890	00000000	00000013	addi	x0,x0,0	  x0:0x00000000
       38925000	      3891	80001850	00000013	addi	x0,x0,0	  x0:0x00000000
       38935000	      3892	80001854	0099b533	sltu	x10,x19,x9	 x19:0x00000001  x9:0x80009fc4 x10=0x00000001
       38945000	      3893	80001858	00ccac33	slt	x24,x25,x12	 x25:0x80000000 x12:0x00000000 x24=0x00000001
       38955000	      3894	8000185c	00000013	addi	x0,x0,0	  x0:0x00000000
       38965000	      3895	80001860	a6856193	ori	x3,x10,-1432	 x10:0x00000001  x3=0xfffffa69
       38975000	      3896	80001864	00007697	auipc	x13,0x7	 x13=0x80008860
       38985000	      3897	80001868	58a68693	addi	x13,x13,1418	 x13:0x80008860 x13=0x80008dea
       38995000	      3898	8000186c	8e7fe0b7	lui	x1,0x8e7fe	  x1=0x8e7fe000
       39005000	      3899	80001870	01bfb233	sltu	x4,x31,x27	 x31:0xfe7f6788 x27:0x00000000  x4=0x00000000
       39015000	      3900	80001874	01ebbc33	sltu	x24,x23,x30	 x23:0x00000001 x30:0x00000001 x24=0x00000000
       39025000	      3901	80001878	00000013	addi	x0,x0,0	  x0:0x00000000
       39035000	      3902	8000187c	c8e43a93	sltiu	x21,x8,-882	  x8:0x00000001 x21=0x00000001
       39045000	      3903	80001880	ff66a303	lw	x6,-10(x13)	 x13:0x80008dea  x6=0x47dc7e01 PA:0x80008de0
       39055000	      3904	80001884	41c751b3	sra	x3,x14,x28	 x14:0x00000000 x28:0x00000001  x3=0x00000000
       39065000	      3905	80001888	03d6c203	lbu	x4,61(x13)	 x13:0x80008dea  x4=0x000000a2 PA:0x80008e27
       39075000	      3906	8000188c	35258937	lui	x18,0x35258	 x18=0x35258000
       39085000	      3907	80001890	fef68b23	sb	x15,-10(x13)	 x13:0x80008dea x15:0x00000001 PA:0x80008de0
       39095000	      3908	80001894	87dd6397	auipc	x7,0x87dd6	  x7=0x07dd7890
       39105000	      3909	80001898	01190d33	add	x26,x18,x17	 x18:0x35258000 x17:0x00000000 x26=0x35258000
       39115000	      3910	8000189c	ff768303	lb	x6,-9(x13)	 x13:0x80008dea  x6=0x0000007e PA:0x80008de1
       39125000	      3911	800018a0	fc768a23	sb	x7,-44(x13)	 x13:0x80008dea  x7:0x07dd7890 PA:0x80008dbe
       39135000	      3912	800018a4	abb4f413	andi	x8,x9,-1349	  x9:0x80009fc4  x8=0x80009a80
       39145000	      3913	800018a8	411c5a33	sra	x20,x24,x17	 x24:0x00000000 x17:0x00000000 x20=0x00000000
       39155000	      3914	800018ac	fee6a883	lw	x17,-18(x13)	 x13:0x80008dea x17=0x0033949f PA:0x80008dd8
       39165000	      3915	800018b0	fea68b23	sb	x10,-10(x13)	 x13:0x80008dea x10:0x00000001 PA:0x80008de0
       39175000	      3916	800018b4	00211113	slli	x2,x2,0x2	  x2:0x14d9e519  x2=0x53679464
       39185000	      3917	800018b8	00969e33	sll	x28,x13,x9	 x13:0x80008dea  x9:0x80009fc4 x28=0x0008dea0
       39195000	      3918	800018bc	ffa69a03	lh	x20,-6(x13)	 x13:0x80008dea x20=0x00007ce8 PA:0x80008de4
       39205000	      3919	800018c0	fc66c783	lbu	x15,-58(x13)	 x13:0x80008dea x15=0x000000d3 PA:0x80008db0
       39215000	      3920	800018c4	00568c33	add	x24,x13,x5	 x13:0x80008dea  x5:0x80009f38 x24=0x00012d22
       39225000	      3921	800018c8	004687a3	sb	x4,15(x13)	 x13:0x80008dea  x4:0x000000a2 PA:0x80008df9
       39235000	      3922	800018cc	49f92a13	slti	x20,x18,1183	 x18:0x35258000 x20=0x00000000
       39245000	      3923	800018d0	01b5d913	srli	x18,x11,0x1b	 x11:0x00000001 x18=0x00000000
       39255000	      3924	800018d4	41940133	sub	x2,x8,x25	  x8:0x80009a80 x25:0x80000000  x2=0x00009a80
       39265000	      3925	800018d8	00b16f33	or	x30,x2,x11	  x2:0x00009a80 x11:0x00000001 x30=0x00009a81
       39275000	      3926	800018dc	4166d313	srai	x6,x13,0x16	 x13:0x80008dea  x6=0xfffffe00
       39285000	      3927	800018e0	3bb1a917	auipc	x18,0x3bb1a	 x18=0xbbb1b8dc
       39295000	      3928	800018e4	00b68383	lb	x7,11(x13)	 x13:0x80008dea  x7=0xffffffc9 PA:0x80008df5
       39305000	      3929	800018e8	fdd6cf03	lbu	x30,-35(x13)	 x13:0x80008dea x30=0x00000037 PA:0x80008dc7
       39315000	      3930	800018ec	0094adb3	slt	x27,x9,x9	  x9:0x80009fc4  x9:0x80009fc4 x27=0x00000000
       39325000	      3931	800018f0	9e9c0a13	addi	x20,x24,-1559	 x24:0x00012d22 x20=0x0001270b
       39335000	      3932	800018f4	00069c03	lh	x24,0(x13)	 x13:0x80008dea x24=0xffffef54 PA:0x80008dea
       39345000	      3933	800018f8	8f714517	auipc	x10,0x8f714	 x10=0x0f7158f4
       39355000	      3934	800018fc	03a68ba3	sb	x26,55(x13)	 x13:0x80008dea x26:0x35258000 PA:0x80008e21
       39365000	      3935	80001900	014d8233	add	x4,x27,x20	 x27:0x00000000 x20:0x0001270b  x4=0x0001270b
       39375000	      3936	80001904	020dc793	xori	x15,x27,32	 x27:0x00000000 x15=0x00000020
       39385000	      3937	80001908	03468a23	sb	x20,52(x13)	 x13:0x80008dea x20:0x0001270b PA:0x80008e1e
       39395000	      3938	8000190c	fda687a3	sb	x26,-49(x13)	 x13:0x80008dea x26:0x35258000 PA:0x80008db9
       39405000	      3939	80001910	416ed713	srai	x14,x29,0x16	 x29:0x00000000 x14=0x00000000
       39415000	      3940	80001914	ff96c883	lbu	x17,-7(x13)	 x13:0x80008dea x17=0x00000047 PA:0x80008de3
       39425000	      3941	80001918	ffd68d83	lb	x27,-3(x13)	 x13:0x80008dea x27=0x0000006e PA:0x80008de7
       39435000	      3942	8000191c	fd069c23	sh	x16,-40(x13)	 x13:0x80008dea x16:0x00000002 PA:0x80008dc2
       39445000	      3943	80001920	fb507613	andi	x12,x0,-75	  x0:0x00000000 x12=0x00000000
       39455000	      3944	80001924	5fcdc913	xori	x18,x27,1532	 x27:0x0000006e x18=0x00000592
       39465000	      3945	80001928	00415fb3	srl	x31,x2,x4	  x2:0x00009a80  x4:0x0001270b x31=0x00000013
       39475000	      3946	8000192c	a7e7ce93	xori	x29,x15,-1410	 x15:0x00000020 x29=0xfffffa5e
       39485000	      3947	80001930	40c15c33	sra	x24,x2,x12	  x2:0x00009a80 x12:0x00000000 x24=0x00009a80
       39495000	      3948	80001934	01a71013	slli	x0,x14,0x1a	 x14:0x00000000
       39505000	      3949	80001938	40cb5513	srai	x10,x22,0xc	 x22:0x00000001 x10=0x00000000
       39515000	      3950	8000193c	419d5e13	srai	x28,x26,0x19	 x26:0x35258000 x28=0x0000001a
       39525000	      3951	80001940	01f247b3	xor	x15,x4,x31	  x4:0x0001270b x31:0x00000013 x15=0x00012718
       39535000	      3952	80001944	004e5e33	srl	x28,x28,x4	 x28:0x0000001a  x4:0x0001270b x28=0x00000000
       39545000	      3953	80001948	00000013	addi	x0,x0,0	  x0:0x00000000
       39555000	      3954	8000194c	052d4663	blt	x26,x18,80001998	 x26:0x35258000 x18:0x00000592
       39565000	      3955	80001950	05a9c063	blt	x19,x26,80001990	 x19:0x00000001 x26:0x35258000
       39575000	      3956	00000000	00000013	addi	x0,x0,0	  x0:0x00000000
       39585000	      3957	8000198c	00000013	addi	x0,x0,0	  x0:0x00000000
       39595000	      3958	80001990	00177b33	and	x22,x14,x1	 x14:0x00000000  x1:0x8e7fe000 x22=0x00000000
       39605000	      3959	80001994	00aef933	and	x18,x29,x10	 x29:0xfffffa5e x10:0x00000000 x18=0x00000000
       39615000	      3960	80001998	02dc4e63	blt	x24,x13,800019d4	 x24:0x00009a80 x13:0x80008dea
       39625000	      3961	8000199c	012aba33	sltu	x20,x21,x18	 x21:0x00000001 x18:0x00000000 x20=0x00000000
       39635000	      3962	800019a0	451b2993	slti	x19,x22,1105	 x22:0x00000000 x19=0x00000001
       39645000	      3963	800019a4	02c8d863	bge	x17,x12,800019d4	 x17:0x00000047 x12:0x00000000
       39655000	      3964	00000000	00000013	addi	x0,x0,0	  x0:0x00000000
       39665000	      3965	800019d0	00000013	addi	x0,x0,0	  x0:0x00000000
       39675000	      3966	800019d4	00e18db3	add	x27,x3,x14	  x3:0x00000000 x14:0x00000000 x27=0x00000000
       39685000	      3967	800019d8	48c88513	addi	x10,x17,1164	 x17:0x00000047 x10=0x000004d3
       39695000	      3968	800019dc	407fd633	sra	x12,x31,x7	 x31:0x00000013  x7:0xffffffc9 x12=0x00000000
       39705000	      3969	800019e0	05fc9463	bne	x25,x31,80001a28	 x25:0x80000000 x31:0x00000013
       39715000	      3970	00000000	00000013	addi	x0,x0,0	  x0:0x00000000
       39725000	      3971	80001a24	00000013	addi	x0,x0,0	  x0:0x00000000
       39735000	      3972	80001a28	191e7d93	andi	x27,x28,401	 x28:0x00000000 x27=0x00000000
       39745000	      3973	80001a2c	0076fd33	and	x26,x13,x7	 x13:0x80008dea  x7:0xffffffc9 x26=0x80008dc8
       39755000	      3974	80001a30	0113f263	bgeu	x7,x17,80001a34	  x7:0xffffffc9 x17:0x00000047
       39765000	      3975	00000000	00000013	addi	x0,x0,0	  x0:0x00000000
       39775000	      3976	80001a30	00000013	addi	x0,x0,0	  x0:0x00000000
       39785000	      3977	80001a34	00c40263	beq	x8,x12,80001a38	  x8:0x80009a80 x12:0x00000000
       39795000	      3978	80001a38	01c9c463	blt	x19,x28,80001a40	 x19:0x00000001 x28:0x00000000
       39805000	      3979	80001a3c	4bb1fe93	andi	x29,x3,1211	  x3:0x00000000 x29=0x00000000
       39815000	      3980	80001a40	77304c13	xori	x24,x0,1907	  x0:0x00000000 x24=0x00000773
       39825000	      3981	80001a44	000969b3	or	x19,x18,x0	 x18:0x00000000  x0:0x00000000 x19=0x00000000
       39835000	      3982	80001a48	bdedad13	slti	x26,x27,-1058	 x27:0x00000000 x26=0x00000000
       39845000	      3983	80001a4c	02807a63	bgeu	x0,x8,80001a80	  x0:0x00000000  x8:0x80009a80
       39855000	      3984	80001a50	acccb8b7	lui	x17,0xacccb	 x17=0xacccb000
       39865000	      3985	80001a54	01505c63	bge	x0,x21,80001a6c	  x0:0x00000000 x21:0x00000001
       39875000	      3986	80001a58	40bfd413	srai	x8,x31,0xb	 x31:0x00000013  x8=0x00000000
       39885000	      3987	80001a5c	f95e2393	slti	x7,x28,-107	 x28:0x00000000  x7=0x00000000
       39895000	      3988	80001a60	012f5463	bge	x30,x18,80001a68	 x30:0x00000037 x18:0x00000000
       39905000	      3989	00000000	00000013	addi	x0,x0,0	  x0:0x00000000
       39915000	      3990	80001a64	00000013	addi	x0,x0,0	  x0:0x00000000
       39925000	      3991	80001a68	01aadbb3	srl	x23,x21,x26	 x21:0x00000001 x26:0x00000000 x23=0x00000001
       39935000	      3992	80001a6c	00f67663	bgeu	x12,x15,80001a78	 x12:0x00000000 x15:0x00012718
       39945000	      3993	80001a70	01fea0b3	slt	x1,x29,x31	 x29:0x00000000 x31:0x00000013  x1=0x00000001
       39955000	      3994	80001a74	a1527893	andi	x17,x4,-1515	  x4:0x0001270b x17=0x00012201
       39965000	      3995	80001a78	58ed4897	auipc	x17,0x58ed4	 x17=0xd8ed5a74
       39975000	      3996	80001a7c	00c007b3	add	x15,x0,x12	  x0:0x00000000 x12:0x00000000 x15=0x00000000
       39985000	      3997	80001a80	6d69cb93	xori	x23,x19,1750	 x19:0x00000000 x23=0x000006d6
       39995000	      3998	80001a84	04b8c263	blt	x17,x11,80001ac8	 x17:0xd8ed5a74 x11:0x00000001
       40005000	      3999	00000000	00000013	addi	x0,x0,0	  x0:0x00000000
       40015000	      4000	80001ac4	00000013	addi	x0,x0,0	  x0:0x00000000
       40025000	      4001	80001ac8	01bafdb3	and	x27,x21,x27	 x21:0x00000001 x27:0x00000000 x27=0x00000000
       40035000	      4002	80001acc	008c5fb3	srl	x31,x24,x8	 x24:0x00000773  x8:0x00000000 x31=0x00000773
       40045000	      4003	80001ad0	00a96a33	or	x20,x18,x10	 x18:0x00000000 x10:0x000004d3 x20=0x000004d3
       40055000	      4004	80001ad4	442a3397	auipc	x7,0x442a3	  x7=0xc42a4ad0
       40065000	      4005	80001ad8	03df6063	bltu	x30,x29,80001af8	 x30:0x00000037 x29:0x00000000
       40075000	      4006	80001adc	0390da63	bge	x1,x25,80001b10	  x1:0x00000001 x25:0x80000000
       40085000	      4007	00000000	00000013	addi	x0,x0,0	  x0:0x00000000
       40095000	      4008	80001b0c	00000013	addi	x0,x0,0	  x0:0x00000000
       40105000	      4009	80001b10	80136313	ori	x6,x6,-2047	  x6:0xfffffe00  x6=0xfffffe01
       40115000	      4010	80001b14	c8acf213	andi	x4,x25,-886	 x25:0x80000000  x4=0x80000000
       40125000	      4011	80001b18	96596397	auipc	x7,0x96596	  x7=0x16597b14
       40135000	      4012	80001b1c	eecb8613	addi	x12,x23,-276	 x23:0x000006d6 x12=0x000005c2
       40145000	      4013	80001b20	1271bd93	sltiu	x27,x3,295	  x3:0x00000000 x27=0x00000001
       40155000	      4014	80001b24	009f5533	srl	x10,x30,x9	 x30:0x00000037  x9:0x80009fc4 x10=0x00000003
       40165000	      4015	80001b28	035f7063	bgeu	x30,x21,80001b48	 x30:0x00000037 x21:0x00000001
       40175000	      4016	00000000	00000013	addi	x0,x0,0	  x0:0x00000000
       40185000	      4017	80001b44	00000013	addi	x0,x0,0	  x0:0x00000000
       40195000	      4018	80001b48	0004c433	xor	x8,x9,x0	  x9:0x80009fc4  x0:0x00000000  x8=0x80009fc4
       40205000	      4019	80001b4c	7bd74613	xori	x12,x14,1981	 x14:0x00000000 x12=0x000007bd
       40215000	      4020	80001b50	9dbb4c13	xori	x24,x22,-1573	 x22:0x00000000 x24=0xfffff9db
       40225000	      4021	80001b54	4f370613	addi	x12,x14,1267	 x14:0x00000000 x12=0x000004f3
       40235000	      4022	80001b58	01db16b3	sll	x13,x22,x29	 x22:0x00000000 x29:0x00000000 x13=0x00000000
       40245000	      4023	80001b5c	bca08213	addi	x4,x1,-1078	  x1:0x00000001  x4=0xfffffbcb
       40255000	      4024	80001b60	0c01ffb7	lui	x31,0xc01f	 x31=0x0c01f000
       40265000	      4025	80001b64	011e2433	slt	x8,x28,x17	 x28:0x00000000 x17:0xd8ed5a74  x8=0x00000000
       40275000	      4026	80001b68	b23b2a17	auipc	x20,0xb23b2	 x20=0x323b3b64
       40285000	      4027	80001b6c	200afc37	lui	x24,0x200af	 x24=0x200af000
       40295000	      4028	80001b70	0175f263	bgeu	x11,x23,80001b74	 x11:0x00000001 x23:0x000006d6
       40305000	      4029	80001b74	409f5213	srai	x4,x30,0x9	 x30:0x00000037  x4=0x00000000
       40315000	      4030	80001b78	00831313	slli	x6,x6,0x8	  x6:0xfffffe01  x6=0xfffe0100
       40325000	      4031	80001b7c	01b175b3	and	x11,x2,x27	  x2:0x00009a80 x27:0x00000001 x11=0x00000000
       40335000	      4032	80001b80	00000013	addi	x0,x0,0	  x0:0x00000000
       40345000	      4033	80001b84	419dd633	sra	x12,x27,x25	 x27:0x00000001 x25:0x80000000 x12=0x00000001
       40355000	      4034	80001b88	018a4663	blt	x20,x24,80001b94	 x20:0x323b3b64 x24:0x200af000
       40365000	      4035	80001b8c	0060d733	srl	x14,x1,x6	  x1:0x00000001  x6:0xfffe0100 x14=0x00000001
       40375000	      4036	80001b90	01a429b3	slt	x19,x8,x26	  x8:0x00000000 x26:0x00000000 x19=0x00000000
       40385000	      4037	80001b94	40ba5093	srai	x1,x20,0xb	 x20:0x323b3b64  x1=0x00064767
       40395000	      4038	80001b98	02db8863	beq	x23,x13,80001bc8	 x23:0x000006d6 x13:0x00000000
       40405000	      4039	80001b9c	29b7fd13	andi	x26,x15,667	 x15:0x00000000 x26=0x00000000
       40415000	      4040	80001ba0	b8243f93	sltiu	x31,x8,-1150	  x8:0x00000000 x31=0x00000001
       40425000	      4041	80001ba4	022b7a63	bgeu	x22,x2,80001bd8	 x22:0x00000000  x2:0x00009a80
       40435000	      4042	80001ba8	00563c33	sltu	x24,x12,x5	 x12:0x00000001  x5:0x80009f38 x24=0x00000001
       40445000	      4043	80001bac	1bbe3397	auipc	x7,0x1bbe3	  x7=0x9bbe4ba8
       40455000	      4044	80001bb0	0113f263	bgeu	x7,x17,80001bb4	  x7:0x9bbe4ba8 x17:0xd8ed5a74
       40465000	      4045	80001bb4	03914a63	blt	x2,x25,80001be8	  x2:0x00009a80 x25:0x80000000
       40475000	      4046	80001bb8	010b4f33	xor	x30,x22,x16	 x22:0x00000000 x16:0x00000002 x30=0x00000002
       40485000	      4047	80001bbc	0139db13	srli	x22,x19,0x13	 x19:0x00000000 x22=0x00000000
       40495000	      4048	80001bc0	03ee8c63	beq	x29,x30,80001bf8	 x29:0x00000000 x30:0x00000002
       40505000	      4049	80001bc4	3f292f93	slti	x31,x18,1010	 x18:0x00000000 x31=0x00000001
       40515000	      4050	80001bc8	01081663	bne	x16,x16,80001bd4	 x16:0x00000002 x16:0x00000002
       40525000	      4051	80001bcc	019ff733	and	x14,x31,x25	 x31:0x00000001 x25:0x80000000 x14=0x00000000
       40535000	      4052	80001bd0	41275533	sra	x10,x14,x18	 x14:0x00000000 x18:0x00000000 x10=0x00000000
       40545000	      4053	80001bd4	82692b37	lui	x22,0x82692	 x22=0x82692000
       40555000	      4054	80001bd8	01cb65b3	or	x11,x22,x28	 x22:0x82692000 x28:0x00000000 x11=0x82692000
       40565000	      4055	80001bdc	07d8a813	slti	x16,x17,125	 x17:0xd8ed5a74 x16=0x00000001
       40575000	      4056	80001be0	01879f93	slli	x31,x15,0x18	 x15:0x00000000 x31=0x00000000
       40585000	      4057	80001be4	11741d37	lui	x26,0x11741	 x26=0x11741000
       40595000	      4058	80001be8	01738463	beq	x7,x23,80001bf0	  x7:0x9bbe4ba8 x23:0x000006d6
       40605000	      4059	80001bec	0112d463	bge	x5,x17,80001bf4	  x5:0x80009f38 x17:0xd8ed5a74
       40615000	      4060	80001bf0	2cb4ad97	auipc	x27,0x2cb4a	 x27=0xacb4bbec
       40625000	      4061	80001bf4	01281633	sll	x12,x16,x18	 x16:0x00000001 x18:0x00000000 x12=0x00000001
       40635000	      4062	80001bf8	00991c63	bne	x18,x9,80001c10	 x18:0x00000000  x9:0x80009fc4
       40645000	      4063	00000000	00000013	addi	x0,x0,0	  x0:0x00000000
       40655000	      4064	80001c0c	00000013	addi	x0,x0,0	  x0:0x00000000
       40665000	      4065	80001c10	a1d2ae93	slti	x29,x5,-1507	  x5:0x80009f38 x29=0x00000001
       40675000	      4066	80001c14	0185f533	and	x10,x11,x24	 x11:0x82692000 x24:0x00000001 x10=0x00000000
       40685000	      4067	80001c18	46bf2697	auipc	x13,0x46bf2	 x13=0xc6bf3c14
       40695000	      4068	80001c1c	00384c33	xor	x24,x16,x3	 x16:0x00000001  x3:0x00000000 x24=0x00000001
       40705000	      4069	80001c20	00000013	addi	x0,x0,0	  x0:0x00000000
       40715000	      4070	80001c24	408708b3	sub	x17,x14,x8	 x14:0x00000000  x8:0x00000000 x17=0x00000000
       40725000	      4071	80001c28	0202c063	blt	x5,x0,80001c48	  x5:0x80009f38  x0:0x00000000
       40735000	      4072	00000000	00000013	addi	x0,x0,0	  x0:0x00000000
       40745000	      4073	80001c44	00000013	addi	x0,x0,0	  x0:0x00000000
       40755000	      4074	80001c48	79c9fe37	lui	x28,0x79c9f	 x28=0x79c9f000
       40765000	      4075	80001c4c	1cd3bd97	auipc	x27,0x1cd3b	 x27=0x9cd3cc48
       40775000	      4076	80001c50	01f83033	sltu	x0,x16,x31	 x16:0x00000001 x31:0x00000000
       40785000	      4077	80001c54	414fd513	srai	x10,x31,0x14	 x31:0x00000000 x10=0x00000000
       40795000	      4078	80001c58	0234f063	bgeu	x9,x3,80001c78	  x9:0x80009fc4  x3:0x00000000
       40805000	      4079	00000000	00000013	addi	x0,x0,0	  x0:0x00000000
       40815000	      4080	80001c74	00000013	addi	x0,x0,0	  x0:0x00000000
       40825000	      4081	80001c78	00a039b3	sltu	x19,x0,x10	  x0:0x00000000 x10:0x00000000 x19=0x00000000
       40835000	      4082	80001c7c	11560463	beq	x12,x21,80001d84	 x12:0x00000001 x21:0x00000001
       40845000	      4083	00000000	00000013	addi	x0,x0,0	  x0:0x00000000
       40855000	      4084	80001d80	00000013	addi	x0,x0,0	  x0:0x00000000
       40865000	      4085	80001d84	00767133	and	x2,x12,x7	 x12:0x00000001  x7:0x9bbe4ba8  x2=0x00000000
       40875000	      4086	80001d88	40408633	sub	x12,x1,x4	  x1:0x00064767  x4:0x00000000 x12=0x00064767
       40885000	      4087	80001d8c	b543c313	xori	x6,x7,-1196	  x7:0x9bbe4ba8  x6=0x6441b0fc
       40895000	      4088	80001d90	01078663	beq	x15,x16,80001d9c	 x15:0x00000000 x16:0x00000001
       40905000	      4089	80001d94	00000013	addi	x0,x0,0	  x0:0x00000000
       40915000	      4090	80001d98	00e66b33	or	x22,x12,x14	 x12:0x00064767 x14:0x00000000 x22=0x00064767
       40925000	      4091	80001d9c	02ca5663	bge	x20,x12,80001dc8	 x20:0x323b3b64 x12:0x00064767
       40935000	      4092	00000000	00000013	addi	x0,x0,0	  x0:0x00000000
       40945000	      4093	80001dc4	00000013	addi	x0,x0,0	  x0:0x00000000
       40955000	      4094	80001dc8	01005bb3	srl	x23,x0,x16	  x0:0x00000000 x16:0x00000001 x23=0x00000000
       40965000	      4095	80001dcc	03869263	bne	x13,x24,80001df0	 x13:0xc6bf3c14 x24:0x00000001
       40975000	      4096	00000000	00000013	addi	x0,x0,0	  x0:0x00000000
       40985000	      4097	80001dec	00000013	addi	x0,x0,0	  x0:0x00000000
       40995000	      4098	80001df0	991b6b13	ori	x22,x22,-1647	 x22:0x00064767 x22=0xfffffff7
       41005000	      4099	80001df4	40875193	srai	x3,x14,0x8	 x14:0x00000000  x3=0x00000000
       41015000	      4100	80001df8	40720e33	sub	x28,x4,x7	  x4:0x00000000  x7:0x9bbe4ba8 x28=0x6441b458
       41025000	      4101	80001dfc	05b31463	bne	x6,x27,80001e44	  x6:0x6441b0fc x27:0x9cd3cc48
       41035000	      4102	00000000	00000013	addi	x0,x0,0	  x0:0x00000000
       41045000	      4103	80001e40	00000013	addi	x0,x0,0	  x0:0x00000000
       41055000	      4104	80001e44	012fb8b3	sltu	x17,x31,x18	 x31:0x00000000 x18:0x00000000 x17=0x00000000
       41065000	      4105	80001e48	00e2d463	bge	x5,x14,80001e50	  x5:0x80009f38 x14:0x00000000
       41075000	      4106	80001e4c	41cbd693	srai	x13,x23,0x1c	 x23:0x00000000 x13=0x00000000
       41085000	      4107	80001e50	007297b3	sll	x15,x5,x7	  x5:0x80009f38  x7:0x9bbe4ba8 x15=0x009f3800
       41095000	      4108	80001e54	ff642113	slti	x2,x8,-10	  x8:0x00000000  x2=0x00000000
       41105000	      4109	80001e58	5409ef93	ori	x31,x19,1344	 x19:0x00000000 x31=0x00000540
       41115000	      4110	80001e5c	01254c63	blt	x10,x18,80001e74	 x10:0x00000000 x18:0x00000000
       41125000	      4111	80001e60	0054f9b3	and	x19,x9,x5	  x9:0x80009fc4  x5:0x80009f38 x19=0x80009f00
       41135000	      4112	80001e64	00d1d193	srli	x3,x3,0xd	  x3:0x00000000  x3=0x00000000
       41145000	      4113	80001e68	0130a8b3	slt	x17,x1,x19	  x1:0x00064767 x19:0x80009f00 x17=0x00000000
       41155000	      4114	80001e6c	037e1e63	bne	x28,x23,80001ea8	 x28:0x6441b458 x23:0x00000000
       41165000	      4115	00000000	00000013	addi	x0,x0,0	  x0:0x00000000
       41175000	      4116	80001ea4	00000013	addi	x0,x0,0	  x0:0x00000000
       41185000	      4117	80001ea8	00000013	addi	x0,x0,0	  x0:0x00000000
       41195000	      4118	80001eac	037bc263	blt	x23,x23,80001ed0	 x23:0x00000000 x23:0x00000000
       41205000	      4119	80001eb0	00be0233	add	x4,x28,x11	 x28:0x6441b458 x11:0x82692000  x4=0xe6aad458
       41215000	      4120	80001eb4	01ab49b3	xor	x19,x22,x26	 x22:0xfffffff7 x26:0x11741000 x19=0xee8beff7
       41225000	      4121	80001eb8	fd00c913	xori	x18,x1,-48	  x1:0x00064767 x18=0xfff9b8b7
       41235000	      4122	80001ebc	01fae1b3	or	x3,x21,x31	 x21:0x00000001 x31:0x00000540  x3=0x00000541
       41245000	      4123	80001ec0	01f65613	srli	x12,x12,0x1f	 x12:0x00064767 x12=0x00000000
       41255000	      4124	80001ec4	04981263	bne	x16,x9,80001f08	 x16:0x00000001  x9:0x80009fc4
       41265000	      4125	00000000	00000013	addi	x0,x0,0	  x0:0x00000000
       41275000	      4126	80001f04	00000013	addi	x0,x0,0	  x0:0x00000000
       41285000	      4127	80001f08	41208633	sub	x12,x1,x18	  x1:0x00064767 x18:0xfff9b8b7 x12=0x000c8eb0
       41295000	      4128	80001f0c	011161b3	or	x3,x2,x17	  x2:0x00000000 x17:0x00000000  x3=0x00000000
       41305000	      4129	80001f10	00c75013	srli	x0,x14,0xc	 x14:0x00000000
       41315000	      4130	80001f14	41aa09b3	sub	x19,x20,x26	 x20:0x323b3b64 x26:0x11741000 x19=0x20c72b64
       41325000	      4131	80001f18	408c03b3	sub	x7,x24,x8	 x24:0x00000001  x8:0x00000000  x7=0x00000001
       41335000	      4132	80001f1c	e2017013	andi	x0,x2,-480	  x2:0x00000000
       41345000	      4133	80001f20	00faf463	bgeu	x21,x15,80001f28	 x21:0x00000001 x15:0x009f3800
       41355000	      4134	80001f24	01d01993	slli	x19,x0,0x1d	  x0:0x00000000 x19=0x00000000
       41365000	      4135	80001f28	0570c663	blt	x1,x23,80001f74	  x1:0x00064767 x23:0x00000000
       41375000	      4136	80001f2c	7f7df8b7	lui	x17,0x7f7df	 x17=0x7f7df000
       41385000	      4137	80001f30	41a35d13	srai	x26,x6,0x1a	  x6:0x6441b0fc x26=0x00000019
       41395000	      4138	80001f34	e55b4213	xori	x4,x22,-427	 x22:0xfffffff7  x4=0x000001a2
       41405000	      4139	80001f38	b6a70e93	addi	x29,x14,-1174	 x14:0x00000000 x29=0xfffffb6a
       41415000	      4140	80001f3c	017d9893	slli	x17,x27,0x17	 x27:0x9cd3cc48 x17=0x24000000
       41425000	      4141	80001f40	008a1933	sll	x18,x20,x8	 x20:0x323b3b64  x8:0x00000000 x18=0x323b3b64
       41435000	      4142	80001f44	0783bc13	sltiu	x24,x7,120	  x7:0x00000001 x24=0x00000001
       41445000	      4143	80001f48	1b139e37	lui	x28,0x1b139	 x28=0x1b139000
       41455000	      4144	80001f4c	00bdfe33	and	x28,x27,x11	 x27:0x9cd3cc48 x11:0x82692000 x28=0x80410000
       41465000	      4145	80001f50	41645813	srai	x16,x8,0x16	  x8:0x00000000 x16=0x00000000
       41475000	      4146	80001f54	046a8463	beq	x21,x6,80001f9c	 x21:0x00000001  x6:0x6441b0fc
       41485000	      4147	80001f58	039af063	bgeu	x21,x25,80001f78	 x21:0x00000001 x25:0x80000000
       41495000	      4148	80001f5c	0012ad33	slt	x26,x5,x1	  x5:0x80009f38  x1:0x00064767 x26=0x00000001
       41505000	      4149	80001f60	41f20533	sub	x10,x4,x31	  x4:0x000001a2 x31:0x00000540 x10=0xfffffc62
       41515000	      4150	80001f64	00aef663	bgeu	x29,x10,80001f70	 x29:0xfffffb6a x10:0xfffffc62
       41525000	      4151	80001f68	03e5c263	blt	x11,x30,80001f8c	 x11:0x82692000 x30:0x00000002
       41535000	      4152	00000000	00000013	addi	x0,x0,0	  x0:0x00000000
       41545000	      4153	80001f88	00000013	addi	x0,x0,0	  x0:0x00000000
       41555000	      4154	80001f8c	04ce9063	bne	x29,x12,80001fcc	 x29:0xfffffb6a x12:0x000c8eb0
       41565000	      4155	00000000	00000013	addi	x0,x0,0	  x0:0x00000000
       41575000	      4156	80001fc8	00000013	addi	x0,x0,0	  x0:0x00000000
       41585000	      4157	80001fcc	e4c90237	lui	x4,0xe4c90	  x4=0xe4c90000
       41595000	      4158	80001fd0	00000013	addi	x0,x0,0	  x0:0x00000000
       41605000	      4159	80001fd4	014f1133	sll	x2,x30,x20	 x30:0x00000002 x20:0x323b3b64  x2=0x00000020
       41615000	      4160	80001fd8	00d77333	and	x6,x14,x13	 x14:0x00000000 x13:0x00000000  x6=0x00000000
       41625000	      4161	80001fdc	00829a13	slli	x20,x5,0x8	  x5:0x80009f38 x20=0x009f3800
       41635000	      4162	80001fe0	01425413	srli	x8,x4,0x14	  x4:0xe4c90000  x8=0x00000e4c
       41645000	      4163	80001fe4	01717263	bgeu	x2,x23,80001fe8	  x2:0x00000020 x23:0x00000000
       41655000	      4164	00000000	00000013	addi	x0,x0,0	  x0:0x00000000
       41665000	      4165	80001fe4	00000013	addi	x0,x0,0	  x0:0x00000000
       41675000	      4166	80001fe8	599b0793	addi	x15,x22,1433	 x22:0xfffffff7 x15=0x00000590
       41685000	      4167	80001fec	cf6b0813	addi	x16,x22,-778	 x22:0xfffffff7 x16=0xfffffced
       41695000	      4168	80001ff0	01a6c5b3	xor	x11,x13,x26	 x13:0x00000000 x26:0x00000001 x11=0x00000001
       41705000	      4169	80001ff4	00c0f7b3	and	x15,x1,x12	  x1:0x00064767 x12:0x000c8eb0 x15=0x00040620
       41715000	      4170	80001ff8	0a1f2bb7	lui	x23,0xa1f2	 x23=0x0a1f2000
       41725000	      4171	80001ffc	01ef4fb3	xor	x31,x30,x30	 x30:0x00000002 x30:0x00000002 x31=0x00000000
       41735000	      4172	80002000	e2a37797	auipc	x15,0xe2a37	 x15=0x62a38ffc
       41745000	      4173	80002004	01a10b33	add	x22,x2,x26	  x2:0x00000020 x26:0x00000001 x22=0x00000021
       41755000	      4174	80002008	e04ebc13	sltiu	x24,x29,-508	 x29:0xfffffb6a x24=0x00000001
       41765000	      4175	8000200c	00d6f663	bgeu	x13,x13,80002018	 x13:0x00000000 x13:0x00000000
       41775000	      4176	00000000	00000013	addi	x0,x0,0	  x0:0x00000000
       41785000	      4177	80002014	00000013	addi	x0,x0,0	  x0:0x00000000
       41795000	      4178	80002018	ad2ff093	andi	x1,x31,-1326	 x31:0x00000000  x1=0x00000000
       41805000	      4179	8000201c	53bc7413	andi	x8,x24,1339	 x24:0x00000001  x8=0x00000001
       41815000	      4180	80002020	7bbbe613	ori	x12,x23,1979	 x23:0x0a1f2000 x12=0x0a1f27bb
       41825000	      4181	80002024	30d3eb13	ori	x22,x7,781	  x7:0x00000001 x22=0x0000030d
       41835000	      4182	80002028	158ca093	slti	x1,x25,344	 x25:0x80000000  x1=0x00000001
       41845000	      4183	8000202c	001e1893	slli	x17,x28,0x1	 x28:0x80410000 x17=0x00820000
       41855000	      4184	80002030	4ea3ef93	ori	x31,x7,1258	  x7:0x00000001 x31=0x000004eb
       41865000	      4185	80002034	011988b3	add	x17,x19,x17	 x19:0x00000000 x17:0x00820000 x17=0x00820000
       41875000	      4186	80002038	001fa333	slt	x6,x31,x1	 x31:0x000004eb  x1:0x00000001  x6=0x00000000
       41885000	      4187	8000203c	00d5a533	slt	x10,x11,x13	 x11:0x00000001 x13:0x00000000 x10=0x00000000
       41895000	      4188	80002040	0088e8b3	or	x17,x17,x8	 x17:0x00820000  x8:0x00000001 x17=0x00820001
       41905000	      4189	80002044	00980d33	add	x26,x16,x9	 x16:0xfffffced  x9:0x80009fc4 x26=0x80009cb1
       41915000	      4190	80002048	00fdbb33	sltu	x22,x27,x15	 x27:0x9cd3cc48 x15:0x62a38ffc x22=0x00000000
       41925000	      4191	8000204c	01fe7bb3	and	x23,x28,x31	 x28:0x80410000 x31:0x000004eb x23=0x00000000
       41935000	      4192	80002050	01c44933	xor	x18,x8,x28	  x8:0x00000001 x28:0x80410000 x18=0x80410001
       41945000	      4193	80002054	00000013	addi	x0,x0,0	  x0:0x00000000
       41955000	      4194	80002058	c822a313	slti	x6,x5,-894	  x5:0x80009f38  x6=0x00000001
       41965000	      4195	8000205c	40d28433	sub	x8,x5,x13	  x5:0x80009f38 x13:0x00000000  x8=0x80009f38
       41975000	      4196	80002060	924d7913	andi	x18,x26,-1756	 x26:0x80009cb1 x18=0x80009820
       41985000	      4197	80002064	00043d33	sltu	x26,x8,x0	  x8:0x80009f38  x0:0x00000000 x26=0x00000000
       41995000	      4198	80002068	00811263	bne	x2,x8,8000206c	  x2:0x00000020  x8:0x80009f38
       42005000	      4199	00000000	00000013	addi	x0,x0,0	  x0:0x00000000
       42015000	      4200	80002068	00000013	addi	x0,x0,0	  x0:0x00000000
       42025000	      4201	8000206c	41ed8833	sub	x16,x27,x30	 x27:0x9cd3cc48 x30:0x00000002 x16=0x9cd3cc46
       42035000	      4202	80002070	01a459b3	srl	x19,x8,x26	  x8:0x80009f38 x26:0x00000000 x19=0x80009f38
       42045000	      4203	80002074	045a0463	beq	x20,x5,800020bc	 x20:0x009f3800  x5:0x80009f38
       42055000	      4204	80002078	01d11813	slli	x16,x2,0x1d	  x2:0x00000020 x16=0x00000000
       42065000	      4205	8000207c	0140c633	xor	x12,x1,x20	  x1:0x00000001 x20:0x009f3800 x12=0x009f3801
       42075000	      4206	80002080	4fdff613	andi	x12,x31,1277	 x31:0x000004eb x12=0x000004e9
       42085000	      4207	80002084	03574a63	blt	x14,x21,800020b8	 x14:0x00000000 x21:0x00000001
       42095000	      4208	00000000	00000013	addi	x0,x0,0	  x0:0x00000000
       42105000	      4209	800020b4	00000013	addi	x0,x0,0	  x0:0x00000000
       42115000	      4210	800020b8	409d53b3	sra	x7,x26,x9	 x26:0x00000000  x9:0x80009fc4  x7=0x00000000
       42125000	      4211	800020bc	41745913	srai	x18,x8,0x17	  x8:0x80009f38 x18=0xffffff00
       42135000	      4212	800020c0	01ab43b3	xor	x7,x22,x26	 x22:0x00000000 x26:0x00000000  x7=0x00000000
       42145000	      4213	800020c4	00ed1313	slli	x6,x26,0xe	 x26:0x00000000  x6=0x00000000
       42155000	      4214	800020c8	4667ab93	slti	x23,x15,1126	 x15:0x62a38ffc x23=0x00000000
       42165000	      4215	800020cc	00007597	auipc	x11,0x7	 x11=0x800090c8
       42175000	      4216	800020d0	ba958593	addi	x11,x11,-1111	 x11:0x800090c8 x11=0x80008c71
       42185000	      4217	800020d4	00c58523	sb	x12,10(x11)	 x11:0x80008c71 x12:0x000004e9 PA:0x80008c7b
       42195000	      4218	800020d8	ff05c603	lbu	x12,-16(x11)	 x11:0x80008c71 x12=0x00000013 PA:0x80008c61
       42205000	      4219	800020dc	ff258e23	sb	x18,-4(x11)	 x11:0x80008c71 x18:0xffffff00 PA:0x80008c6d
       42215000	      4220	800020e0	00000013	addi	x0,x0,0	  x0:0x00000000
       42225000	      4221	800020e4	00858503	lb	x10,8(x11)	 x11:0x80008c71 x10=0xffffffa1 PA:0x80008c79
       42235000	      4222	800020e8	01f58323	sb	x31,6(x11)	 x11:0x80008c71 x31:0x000004eb PA:0x80008c77
       42245000	      4223	800020ec	25707813	andi	x16,x0,599	  x0:0x00000000 x16=0x00000000
       42255000	      4224	800020f0	4045d333	sra	x6,x11,x4	 x11:0x80008c71  x4:0xe4c90000  x6=0x80008c71
       42265000	      4225	800020f4	ffc58aa3	sb	x28,-11(x11)	 x11:0x80008c71 x28:0x80410000 PA:0x80008c66
       42275000	      4226	800020f8	004fedb3	or	x27,x31,x4	 x31:0x000004eb  x4:0xe4c90000 x27=0xe4c904eb
       42285000	      4227	800020fc	00fa4c33	xor	x24,x20,x15	 x20:0x009f3800 x15:0x62a38ffc x24=0x623cb7fc
       42295000	      4228	80002100	9710cc13	xori	x24,x1,-1679	  x1:0x00000001 x24=0xfffff970
       42305000	      4229	80002104	ff45c503	lbu	x10,-12(x11)	 x11:0x80008c71 x10=0x00000000 PA:0x80008c65
       42315000	      4230	80002108	00000013	addi	x0,x0,0	  x0:0x00000000
       42325000	      4231	8000210c	ff758d83	lb	x27,-9(x11)	 x11:0x80008c71 x27=0xffffffef PA:0x80008c68
       42335000	      4232	80002110	ff759103	lh	x2,-9(x11)	 x11:0x80008c71  x2=0xffffb9ef PA:0x80008c68
       42345000	      4233	80002114	ff658f03	lb	x30,-10(x11)	 x11:0x80008c71 x30=0x00000023 PA:0x80008c67
       42355000	      4234	80002118	002456b3	srl	x13,x8,x2	  x8:0x80009f38  x2:0xffffb9ef x13=0x00010001
       42365000	      4235	8000211c	017581a3	sb	x23,3(x11)	 x11:0x80008c71 x23:0x00000000 PA:0x80008c74
       42375000	      4236	80002120	0082b233	sltu	x4,x5,x8	  x5:0x80009f38  x8:0x80009f38  x4=0x00000000
       42385000	      4237	80002124	209b6037	lui	x0,0x209b6	
       42395000	      4238	80002128	ffd5df83	lhu	x31,-3(x11)	 x11:0x80008c71 x31=0x000042b8 PA:0x80008c6e
       42405000	      4239	8000212c	00058403	lb	x8,0(x11)	 x11:0x80008c71  x8=0xffffffe2 PA:0x80008c71
       42415000	      4240	80002130	ff25c503	lbu	x10,-14(x11)	 x11:0x80008c71 x10=0x00000099 PA:0x80008c63
       42425000	      4241	80002134	ff15d403	lhu	x8,-15(x11)	 x11:0x80008c71  x8=0x00009923 PA:0x80008c62
       42435000	      4242	80002138	fe458a23	sb	x4,-12(x11)	 x11:0x80008c71  x4:0x00000000 PA:0x80008c65
       42445000	      4243	8000213c	417a53b3	sra	x7,x20,x23	 x20:0x009f3800 x23:0x00000000  x7=0x009f3800
       42455000	      4244	80002140	0105c603	lbu	x12,16(x11)	 x11:0x80008c71 x12=0x00000068 PA:0x80008c81
       42465000	      4245	80002144	014a3ab3	sltu	x21,x20,x20	 x20:0x009f3800 x20:0x009f3800 x21=0x00000000
       42475000	      4246	80002148	006543b3	xor	x7,x10,x6	 x10:0x00000099  x6:0x80008c71  x7=0x80008ce8
       42485000	      4247	8000214c	00458223	sb	x4,4(x11)	 x11:0x80008c71  x4:0x00000000 PA:0x80008c75
       42495000	      4248	80002150	008d0633	add	x12,x26,x8	 x26:0x00000000  x8:0x00009923 x12=0x00009923
       42505000	      4249	80002154	ae45e093	ori	x1,x11,-1308	 x11:0x80008c71  x1=0xfffffef5
       42515000	      4250	80002158	ffb5ce03	lbu	x28,-5(x11)	 x11:0x80008c71 x28=0x00000075 PA:0x80008c6c
       42525000	      4251	8000215c	0025c083	lbu	x1,2(x11)	 x11:0x80008c71  x1=0x00000096 PA:0x80008c73
       42535000	      4252	80002160	ffe588a3	sb	x30,-15(x11)	 x11:0x80008c71 x30:0x00000023 PA:0x80008c62
       42545000	      4253	80002164	ff05c683	lbu	x13,-16(x11)	 x11:0x80008c71 x13=0x00000013 PA:0x80008c61
       42555000	      4254	00000000	00000013	addi	x0,x0,0	  x0:0x00000000
       42565000	      4255	80002168	c6db3417	auipc	x8,0xc6db3	  x8=0x46db5164
       42575000	      4256	8000216c	19712393	slti	x7,x2,407	  x2:0xffffb9ef  x7=0x00000001
       42585000	      4257	80002170	ff458a83	lb	x21,-12(x11)	 x11:0x80008c71 x21=0x00000000 PA:0x80008c65
       42595000	      4258	80002174	00000013	addi	x0,x0,0	  x0:0x00000000
       42605000	      4259	80002178	40865a13	srai	x20,x12,0x8	 x12:0x00009923 x20=0x00000099
       42615000	      4260	8000217c	41898633	sub	x12,x19,x24	 x19:0x80009f38 x24:0xfffff970 x12=0x8000a5c8
       42625000	      4261	80002180	00f58323	sb	x15,6(x11)	 x11:0x80008c71 x15:0x62a38ffc PA:0x80008c77
       42635000	      4262	80002184	0095d503	lhu	x10,9(x11)	 x11:0x80008c71 x10=0x0000e9d0 PA:0x80008c7a
       42645000	      4263	80002188	ff358e83	lb	x29,-13(x11)	 x11:0x80008c71 x29=0x0000006d PA:0x80008c64
       42655000	      4264	8000218c	9005fa93	andi	x21,x11,-1792	 x11:0x80008c71 x21=0x80008800
       42665000	      4265	80002190	01e9bdb3	sltu	x27,x19,x30	 x19:0x80009f38 x30:0x00000023 x27=0x00000000
       42675000	      4266	80002194	00c42b33	slt	x22,x8,x12	  x8:0x46db5164 x12:0x8000a5c8 x22=0x00000000
       42685000	      4267	80002198	03aa6063	bltu	x20,x26,800021b8	 x20:0x00000099 x26:0x00000000
       42695000	      4268	8000219c	00c607b3	add	x15,x12,x12	 x12:0x8000a5c8 x12:0x8000a5c8 x15=0x00014b90
       42705000	      4269	800021a0	007e8f33	add	x30,x29,x7	 x29:0x0000006d  x7:0x00000001 x30=0x0000006e
       42715000	      4270	800021a4	007326b3	slt	x13,x6,x7	  x6:0x80008c71  x7:0x00000001 x13=0x00000001
       42725000	      4271	800021a8	03c87e63	bgeu	x16,x28,800021e4	 x16:0x00000000 x28:0x00000075
       42735000	      4272	800021ac	014c5e33	srl	x28,x24,x20	 x24:0xfffff970 x20:0x00000099 x28=0x0000007f
       42745000	      4273	800021b0	96356817	auipc	x16,0x96356	 x16=0x163581ac
       42755000	      4274	800021b4	00a88933	add	x18,x17,x10	 x17:0x00820001 x10:0x0000e9d0 x18=0x0082e9d1
       42765000	      4275	800021b8	40fbd693	srai	x13,x23,0xf	 x23:0x00000000 x13=0x00000000
       42775000	      4276	800021bc	00f51463	bne	x10,x15,800021c4	 x10:0x0000e9d0 x15:0x00014b90
       42785000	      4277	00000000	00000013	addi	x0,x0,0	  x0:0x00000000
       42795000	      4278	800021c0	00000013	addi	x0,x0,0	  x0:0x00000000
       42805000	      4279	800021c4	01454263	blt	x10,x20,800021c8	 x10:0x0000e9d0 x20:0x00000099
       42815000	      4280	800021c8	897f7e13	andi	x28,x30,-1897	 x30:0x0000006e x28=0x00000006
       42825000	      4281	800021cc	1498a593	slti	x11,x17,329	 x17:0x00820001 x11=0x00000000
       42835000	      4282	800021d0	b17e3e93	sltiu	x29,x28,-1257	 x28:0x00000006 x29=0x00000001
       42845000	      4283	800021d4	d837f613	andi	x12,x15,-637	 x15:0x00014b90 x12=0x00014980
       42855000	      4284	800021d8	91e4ff17	auipc	x30,0x91e4f	 x30=0x11e511d4
       42865000	      4285	800021dc	0430d263	bge	x1,x3,80002220	  x1:0x00000096  x3:0x00000000
       42875000	      4286	00000000	00000013	addi	x0,x0,0	  x0:0x00000000
       42885000	      4287	8000221c	00000013	addi	x0,x0,0	  x0:0x00000000
       42895000	      4288	80002220	41725fb3	sra	x31,x4,x23	  x4:0x00000000 x23:0x00000000 x31=0x00000000
       42905000	      4289	80002224	001cd313	srli	x6,x25,0x1	 x25:0x80000000  x6=0x40000000
       42915000	      4290	80002228	0029fd33	and	x26,x19,x2	 x19:0x80009f38  x2:0xffffb9ef x26=0x80009928
       42925000	      4291	8000222c	02bdec63	bltu	x27,x11,80002264	 x27:0x00000000 x11:0x00000000
       42935000	      4292	80002230	01a8e6b3	or	x13,x17,x26	 x17:0x00820001 x26:0x80009928 x13=0x80829929
       42945000	      4293	80002234	404dd333	sra	x6,x27,x4	 x27:0x00000000  x4:0x00000000  x6=0x00000000
       42955000	      4294	80002238	7477e417	auipc	x8,0x7477e	  x8=0xf4780234
       42965000	      4295	8000223c	005c5d33	srl	x26,x24,x5	 x24:0xfffff970  x5:0x80009f38 x26=0x000000ff
       42975000	      4296	80002240	001045b3	xor	x11,x0,x1	  x0:0x00000000  x1:0x00000096 x11=0x00000096
       42985000	      4297	80002244	c362e113	ori	x2,x5,-970	  x5:0x80009f38  x2=0xffffff3e
       42995000	      4298	80002248	b8638593	addi	x11,x7,-1146	  x7:0x00000001 x11=0xfffffb87
       43005000	      4299	8000224c	00405513	srli	x10,x0,0x4	  x0:0x00000000 x10=0x00000000
       43015000	      4300	80002250	400a0633	sub	x12,x20,x0	 x20:0x00000099  x0:0x00000000 x12=0x00000099
       43025000	      4301	80002254	02c4c263	blt	x9,x12,80002278	  x9:0x80009fc4 x12:0x00000099
       43035000	      4302	00000000	00000013	addi	x0,x0,0	  x0:0x00000000
       43045000	      4303	80002274	00000013	addi	x0,x0,0	  x0:0x00000000
       43055000	      4304	80002278	22651a37	lui	x20,0x22651	 x20=0x22651000
       43065000	      4305	8000227c	00851113	slli	x2,x10,0x8	 x10:0x00000000  x2=0x00000000
       43075000	      4306	80002280	0009d213	srli	x4,x19,0x0	 x19:0x80009f38  x4=0x80009f38
       43085000	      4307	80002284	000f1e93	slli	x29,x30,0x0	 x30:0x11e511d4 x29=0x11e511d4
       43095000	      4308	80002288	34438613	addi	x12,x7,836	  x7:0x00000001 x12=0x00000345
       43105000	      4309	8000228c	7d57e5b7	lui	x11,0x7d57e	 x11=0x7d57e000
       43115000	      4310	80002290	00000013	addi	x0,x0,0	  x0:0x00000000
       43125000	      4311	80002294	00cc9d93	slli	x27,x25,0xc	 x25:0x80000000 x27=0x00000000
       43135000	      4312	80002298	01634533	xor	x10,x6,x22	  x6:0x00000000 x22:0x00000000 x10=0x00000000
       43145000	      4313	8000229c	b36fbb37	lui	x22,0xb36fb	 x22=0xb36fb000
       43155000	      4314	800022a0	00407eb3	and	x29,x0,x4	  x0:0x00000000  x4:0x80009f38 x29=0x00000000
       43165000	      4315	800022a4	01e56fb3	or	x31,x10,x30	 x10:0x00000000 x30:0x11e511d4 x31=0x11e511d4
       43175000	      4316	800022a8	85fb8b13	addi	x22,x23,-1953	 x23:0x00000000 x22=0xfffff85f
       43185000	      4317	800022ac	00081263	bne	x16,x0,800022b0	 x16:0x163581ac  x0:0x00000000
       43195000	      4318	00000000	00000013	addi	x0,x0,0	  x0:0x00000000
       43205000	      4319	800022ac	00000013	addi	x0,x0,0	  x0:0x00000000
       43215000	      4320	800022b0	01539263	bne	x7,x21,800022b4	  x7:0x00000001 x21:0x80008800
       43225000	      4321	00000000	00000013	addi	x0,x0,0	  x0:0x00000000
       43235000	      4322	800022b0	00000013	addi	x0,x0,0	  x0:0x00000000
       43245000	      4323	800022b4	00b48233	add	x4,x9,x11	  x9:0x80009fc4 x11:0x7d57e000  x4=0xfd587fc4
       43255000	      4324	800022b8	f4c07193	andi	x3,x0,-180	  x0:0x00000000  x3=0x00000000
       43265000	      4325	800022bc	02e21a63	bne	x4,x14,800022f0	  x4:0xfd587fc4 x14:0x00000000
       43275000	      4326	00000000	00000013	addi	x0,x0,0	  x0:0x00000000
       43285000	      4327	800022ec	00000013	addi	x0,x0,0	  x0:0x00000000
       43295000	      4328	800022f0	0081fdb3	and	x27,x3,x8	  x3:0x00000000  x8:0xf4780234 x27=0x00000000
       43305000	      4329	800022f4	dceb7913	andi	x18,x22,-562	 x22:0xfffff85f x18=0xfffff84e
       43315000	      4330	800022f8	00437fb3	and	x31,x6,x4	  x6:0x00000000  x4:0xfd587fc4 x31=0x00000000
       43325000	      4331	800022fc	019ae133	or	x2,x21,x25	 x21:0x80008800 x25:0x80000000  x2=0x80008800
       43335000	      4332	80002300	01793b33	sltu	x22,x18,x23	 x18:0xfffff84e x23:0x00000000 x22=0x00000000
       43345000	      4333	80002304	05144263	blt	x8,x17,80002348	  x8:0xf4780234 x17:0x00820001
       43355000	      4334	00000000	00000013	addi	x0,x0,0	  x0:0x00000000
       43365000	      4335	80002344	00000013	addi	x0,x0,0	  x0:0x00000000
       43375000	      4336	80002348	008b9a93	slli	x21,x23,0x8	 x23:0x00000000 x21=0x00000000
       43385000	      4337	8000234c	8e258113	addi	x2,x11,-1822	 x11:0x7d57e000  x2=0x7d57d8e2
       43395000	      4338	80002350	01215f33	srl	x30,x2,x18	  x2:0x7d57d8e2 x18:0xfffff84e x30=0x0001f55f
       43405000	      4339	80002354	e0c1c317	auipc	x6,0xe0c1c	  x6=0x60c1e350
       43415000	      4340	80002358	018a9913	slli	x18,x21,0x18	 x21:0x00000000 x18=0x00000000
       43425000	      4341	8000235c	01ca7c33	and	x24,x20,x28	 x20:0x22651000 x28:0x00000006 x24=0x00000000
       43435000	      4342	80002360	01e81ab3	sll	x21,x16,x30	 x16:0x163581ac x30:0x0001f55f x21=0x00000000
       43445000	      4343	80002364	00492db3	slt	x27,x18,x4	 x18:0x00000000  x4:0xfd587fc4 x27=0x00000000
       43455000	      4344	80002368	017f5793	srli	x15,x30,0x17	 x30:0x0001f55f x15=0x00000000
       43465000	      4345	8000236c	00553933	sltu	x18,x10,x5	 x10:0x00000000  x5:0x80009f38 x18=0x00000001
       43475000	      4346	80002370	34433013	sltiu	x0,x6,836	  x6:0x60c1e350
       43485000	      4347	80002374	0093c463	blt	x7,x9,8000237c	  x7:0x00000001  x9:0x80009fc4
       43495000	      4348	80002378	012f8833	add	x16,x31,x18	 x31:0x00000000 x18:0x00000001 x16=0x00000001
       43505000	      4349	8000237c	28acc313	xori	x6,x25,650	 x25:0x80000000  x6=0x8000028a
       43515000	      4350	80002380	fefb8793	addi	x15,x23,-17	 x23:0x00000000 x15=0xffffffef
       43525000	      4351	80002384	00000013	addi	x0,x0,0	  x0:0x00000000
       43535000	      4352	80002388	00c85913	srli	x18,x16,0xc	 x16:0x00000001 x18=0x00000000
       43545000	      4353	8000238c	01f19a33	sll	x20,x3,x31	  x3:0x00000000 x31:0x00000000 x20=0x00000000
       43555000	      4354	80002390	ebda8b13	addi	x22,x21,-323	 x21:0x00000000 x22=0xfffffebd
       43565000	      4355	80002394	a433ea13	ori	x20,x7,-1469	  x7:0x00000001 x20=0xfffffa43
       43575000	      4356	80002398	014e98b3	sll	x17,x29,x20	 x29:0x00000000 x20:0xfffffa43 x17=0x00000000
       43585000	      4357	8000239c	03149063	bne	x9,x17,800023bc	  x9:0x80009fc4 x17:0x00000000
       43595000	      4358	00000000	00000013	addi	x0,x0,0	  x0:0x00000000
       43605000	      4359	800023b8	00000013	addi	x0,x0,0	  x0:0x00000000
       43615000	      4360	800023bc	0051d813	srli	x16,x3,0x5	  x3:0x00000000 x16=0x00000000
       43625000	      4361	800023c0	40495bb3	sra	x23,x18,x4	 x18:0x00000000  x4:0xfd587fc4 x23=0x00000000
       43635000	      4362	800023c4	ab5b0c13	addi	x24,x22,-1355	 x22:0xfffffebd x24=0xfffff972
       43645000	      4363	800023c8	05076063	bltu	x14,x16,80002408	 x14:0x00000000 x16:0x00000000
       43655000	      4364	800023cc	bf152893	slti	x17,x10,-1039	 x10:0x00000000 x17=0x00000000
       43665000	      4365	800023d0	01aa1c33	sll	x24,x20,x26	 x20:0xfffffa43 x26:0x000000ff x24=0x80000000
       43675000	      4366	800023d4	3ca14713	xori	x14,x2,970	  x2:0x7d57d8e2 x14=0x7d57db28
       43685000	      4367	800023d8	00761613	slli	x12,x12,0x7	 x12:0x00000345 x12=0x0001a280
       43695000	      4368	800023dc	5cb17513	andi	x10,x2,1483	  x2:0x7d57d8e2 x10=0x000000c2
       43705000	      4369	800023e0	023a6863	bltu	x20,x3,80002410	 x20:0xfffffa43  x3:0x00000000
       43715000	      4370	800023e4	f509e513	ori	x10,x19,-176	 x19:0x80009f38 x10=0xffffff78
       43725000	      4371	800023e8	24c0bb13	sltiu	x22,x1,588	  x1:0x00000096 x22=0x00000001
       43735000	      4372	800023ec	006fe133	or	x2,x31,x6	 x31:0x00000000  x6:0x8000028a  x2=0x8000028a
       43745000	      4373	800023f0	ac9b5e97	auipc	x29,0xac9b5	 x29=0x2c9b73ec
       43755000	      4374	800023f4	f6ce8313	addi	x6,x29,-148	 x29:0x2c9b73ec  x6=0x2c9b7358
       43765000	      4375	800023f8	04278663	beq	x15,x2,80002444	 x15:0xffffffef  x2:0x8000028a
       43775000	      4376	800023fc	02184663	blt	x16,x1,80002428	 x16:0x00000000  x1:0x00000096
       43785000	      4377	00000000	00000013	addi	x0,x0,0	  x0:0x00000000
       43795000	      4378	80002424	00000013	addi	x0,x0,0	  x0:0x00000000
       43805000	      4379	80002428	00315263	bge	x2,x3,8000242c	  x2:0x8000028a  x3:0x00000000
       43815000	      4380	8000242c	418e0e33	sub	x28,x28,x24	 x28:0x00000006 x24:0x80000000 x28=0x80000006
       43825000	      4381	80002430	00b9e3b3	or	x7,x19,x11	 x19:0x80009f38 x11:0x7d57e000  x7=0xfd57ff38
       43835000	      4382	80002434	d1c7f893	andi	x17,x15,-740	 x15:0xffffffef x17=0xfffffd0c
       43845000	      4383	80002438	01668a33	add	x20,x13,x22	 x13:0x80829929 x22:0x00000001 x20=0x8082992a
       43855000	      4384	8000243c	03994663	blt	x18,x25,80002468	 x18:0x00000000 x25:0x80000000
       43865000	      4385	80002440	014c6e33	or	x28,x24,x20	 x24:0x80000000 x20:0x8082992a x28=0x8082992a
       43875000	      4386	80002444	f52ee913	ori	x18,x29,-174	 x29:0x2c9b73ec x18=0xfffffffe
       43885000	      4387	80002448	00a39133	sll	x2,x7,x10	  x7:0xfd57ff38 x10:0xffffff78  x2=0x38000000
       43895000	      4388	8000244c	033afa63	bgeu	x21,x19,80002480	 x21:0x00000000 x19:0x80009f38
       43905000	      4389	80002450	776d9d37	lui	x26,0x776d9	 x26=0x776d9000
       43915000	      4390	80002454	000a7e33	and	x28,x20,x0	 x20:0x8082992a  x0:0x00000000 x28=0x00000000
       43925000	      4391	80002458	32286c13	ori	x24,x16,802	 x16:0x00000000 x24=0x00000322
       43935000	      4392	8000245c	00a668b3	or	x17,x12,x10	 x12:0x0001a280 x10:0xffffff78 x17=0xfffffff8
       43945000	      4393	80002460	41dadc33	sra	x24,x21,x29	 x21:0x00000000 x29:0x2c9b73ec x24=0x00000000
       43955000	      4394	80002464	01cf0463	beq	x30,x28,8000246c	 x30:0x0001f55f x28:0x00000000
       43965000	      4395	80002468	83feac13	slti	x24,x29,-1985	 x29:0x2c9b73ec x24=0x00000000
       43975000	      4396	8000246c	051e0463	beq	x28,x17,800024b4	 x28:0x00000000 x17:0xfffffff8
       43985000	      4397	80002470	cef86a93	ori	x21,x16,-785	 x16:0x00000000 x21=0xfffffcef
       43995000	      4398	80002474	00000013	addi	x0,x0,0	  x0:0x00000000
       44005000	      4399	80002478	01b41f33	sll	x30,x8,x27	  x8:0xf4780234 x27:0x00000000 x30=0xf4780234
       44015000	      4400	8000247c	03d27e63	bgeu	x4,x29,800024b8	  x4:0xfd587fc4 x29:0x2c9b73ec
       44025000	      4401	00000000	00000013	addi	x0,x0,0	  x0:0x00000000
       44035000	      4402	800024b4	00000013	addi	x0,x0,0	  x0:0x00000000
       44045000	      4403	800024b8	01be5593	srli	x11,x28,0x1b	 x28:0x00000000 x11=0x00000000
       44055000	      4404	800024bc	41c40933	sub	x18,x8,x28	  x8:0xf4780234 x28:0x00000000 x18=0xf4780234
       44065000	      4405	800024c0	053ad063	bge	x21,x19,80002500	 x21:0xfffffcef x19:0x80009f38
       44075000	      4406	00000000	00000013	addi	x0,x0,0	  x0:0x00000000
       44085000	      4407	800024fc	00000013	addi	x0,x0,0	  x0:0x00000000
       44095000	      4408	80002500	00000013	addi	x0,x0,0	  x0:0x00000000
       44105000	      4409	80002504	4118d8b3	sra	x17,x17,x17	 x17:0xfffffff8 x17:0xfffffff8 x17=0xffffffff
       44115000	      4410	80002508	0461cd93	xori	x27,x3,70	  x3:0x00000000 x27=0x00000046
       44125000	      4411	8000250c	6bcda713	slti	x14,x27,1724	 x27:0x00000046 x14=0x00000001
       44135000	      4412	80002510	00691033	sll	x0,x18,x6	 x18:0xf4780234  x6:0x2c9b7358
       44145000	      4413	80002514	0330d063	bge	x1,x19,80002534	  x1:0x00000096 x19:0x80009f38
       44155000	      4414	00000000	00000013	addi	x0,x0,0	  x0:0x00000000
       44165000	      4415	80002530	00000013	addi	x0,x0,0	  x0:0x00000000
       44175000	      4416	80002534	411e57b3	sra	x15,x28,x17	 x28:0x00000000 x17:0xffffffff x15=0x00000000
       44185000	      4417	80002538	006f6233	or	x4,x30,x6	 x30:0xf4780234  x6:0x2c9b7358  x4=0xfcfb737c
       44195000	      4418	8000253c	01976c33	or	x24,x14,x25	 x14:0x00000001 x25:0x80000000 x24=0x80000001
       44205000	      4419	80002540	016f8ab3	add	x21,x31,x22	 x31:0x00000000 x22:0x00000001 x21=0x00000001
       44215000	      4420	80002544	0056b633	sltu	x12,x13,x5	 x13:0x80829929  x5:0x80009f38 x12=0x00000000
       44225000	      4421	80002548	40af5393	srai	x7,x30,0xa	 x30:0xf4780234  x7=0xfffd1e00
       44235000	      4422	8000254c	013e9733	sll	x14,x29,x19	 x29:0x2c9b73ec x19:0x80009f38 x14=0xec000000
       44245000	      4423	80002550	0ac06a63	bltu	x0,x12,80002604	  x0:0x00000000 x12:0x00000000
       44255000	      4424	80002554	0a6b9c63	bne	x23,x6,8000260c	 x23:0x00000000  x6:0x2c9b7358
       44265000	      4425	00000000	00000013	addi	x0,x0,0	  x0:0x00000000
       44275000	      4426	80002608	00000013	addi	x0,x0,0	  x0:0x00000000
       44285000	      4427	8000260c	00000013	addi	x0,x0,0	  x0:0x00000000
       44295000	      4428	80002610	0083e633	or	x12,x7,x8	  x7:0xfffd1e00  x8:0xf4780234 x12=0xfffd1e34
       44305000	      4429	80002614	404b5eb3	sra	x29,x22,x4	 x22:0x00000001  x4:0xfcfb737c x29=0x00000000
       44315000	      4430	80002618	03690a63	beq	x18,x22,8000264c	 x18:0xf4780234 x22:0x00000001
       44325000	      4431	8000261c	c019f813	andi	x16,x19,-1023	 x19:0x80009f38 x16=0x80009c00
       44335000	      4432	80002620	007ef933	and	x18,x29,x7	 x29:0x00000000  x7:0xfffd1e00 x18=0x00000000
       44345000	      4433	80002624	03775a63	bge	x14,x23,80002658	 x14:0xec000000 x23:0x00000000
       44355000	      4434	80002628	40aed013	srai	x0,x29,0xa	 x29:0x00000000
       44365000	      4435	8000262c	01eb9b33	sll	x22,x23,x30	 x23:0x00000000 x30:0xf4780234 x22=0x00000000
       44375000	      4436	80002630	c989c713	xori	x14,x19,-872	 x19:0x80009f38 x14=0x7fff63a0
       44385000	      4437	80002634	00900233	add	x4,x0,x9	  x0:0x00000000  x9:0x80009fc4  x4=0x80009fc4
       44395000	      4438	80002638	01029993	slli	x19,x5,0x10	  x5:0x80009f38 x19=0x9f380000
       44405000	      4439	8000263c	61983a93	sltiu	x21,x16,1561	 x16:0x80009c00 x21=0x00000000
       44415000	      4440	80002640	6dac3093	sltiu	x1,x24,1754	 x24:0x80000001  x1=0x00000000
       44425000	      4441	80002644	0225e063	bltu	x11,x2,80002664	 x11:0x00000000  x2:0x38000000
       44435000	      4442	00000000	00000013	addi	x0,x0,0	  x0:0x00000000
       44445000	      4443	80002660	00000013	addi	x0,x0,0	  x0:0x00000000
       44455000	      4444	80002664	00950633	add	x12,x10,x9	 x10:0xffffff78  x9:0x80009fc4 x12=0x80009f3c
       44465000	      4445	80002668	04766463	bltu	x12,x7,800026b0	 x12:0x80009f3c  x7:0xfffd1e00
       44475000	      4446	00000000	00000013	addi	x0,x0,0	  x0:0x00000000
       44485000	      4447	800026ac	00000013	addi	x0,x0,0	  x0:0x00000000
       44495000	      4448	800026b0	05f98263	beq	x19,x31,800026f4	 x19:0x9f380000 x31:0x00000000
       44505000	      4449	800026b4	013639b3	sltu	x19,x12,x19	 x12:0x80009f3c x19:0x9f380000 x19=0x00000001
       44515000	      4450	800026b8	00a57733	and	x14,x10,x10	 x10:0xffffff78 x10:0xffffff78 x14=0xffffff78
       44525000	      4451	800026bc	edb77f93	andi	x31,x14,-293	 x14:0xffffff78 x31=0xfffffe58
       44535000	      4452	800026c0	69962c13	slti	x24,x12,1689	 x12:0x80009f3c x24=0x00000001
       44545000	      4453	800026c4	00000013	addi	x0,x0,0	  x0:0x00000000
       44555000	      4454	800026c8	00614d33	xor	x26,x2,x6	  x2:0x38000000  x6:0x2c9b7358 x26=0x149b7358
       44565000	      4455	800026cc	ecd56013	ori	x0,x10,-307	 x10:0xffffff78
       44575000	      4456	800026d0	f2f24f93	xori	x31,x4,-209	  x4:0x80009fc4 x31=0x7fff60eb
       44585000	      4457	800026d4	03f05863	bge	x0,x31,80002704	  x0:0x00000000 x31:0x7fff60eb
       44595000	      4458	800026d8	01891f93	slli	x31,x18,0x18	 x18:0x00000000 x31=0x00000000
       44605000	      4459	800026dc	03509a63	bne	x1,x21,80002710	  x1:0x00000000 x21:0x00000000
       44615000	      4460	800026e0	00000013	addi	x0,x0,0	  x0:0x00000000
       44625000	      4461	800026e4	01af0433	add	x8,x30,x26	 x30:0xf4780234 x26:0x149b7358  x8=0x0913758c
       44635000	      4462	800026e8	0094fab3	and	x21,x9,x9	  x9:0x80009fc4  x9:0x80009fc4 x21=0x80009fc4
       44645000	      4463	800026ec	017dda13	srli	x20,x27,0x17	 x27:0x00000046 x20=0x00000000
       44655000	      4464	800026f0	004f5f13	srli	x30,x30,0x4	 x30:0xf4780234 x30=0x0f478023
       44665000	      4465	800026f4	00bbfa33	and	x20,x23,x11	 x23:0x00000000 x11:0x00000000 x20=0x00000000
       44675000	      4466	800026f8	067efd13	andi	x26,x29,103	 x29:0x00000000 x26=0x00000000
       44685000	      4467	800026fc	01f6b433	sltu	x8,x13,x31	 x13:0x80829929 x31:0x00000000  x8=0x00000000
       44695000	      4468	80002700	b0b74b13	xori	x22,x14,-1269	 x14:0xffffff78 x22=0x00000473
       44705000	      4469	80002704	0185f463	bgeu	x11,x24,8000270c	 x11:0x00000000 x24:0x00000001
       44715000	      4470	80002708	41f80733	sub	x14,x16,x31	 x16:0x80009c00 x31:0x00000000 x14=0x80009c00
       44725000	      4471	8000270c	4025d3b3	sra	x7,x11,x2	 x11:0x00000000  x2:0x38000000  x7=0x00000000
       44735000	      4472	80002710	c5ec8913	addi	x18,x25,-930	 x25:0x80000000 x18=0x7ffffc5e
       44745000	      4473	80002714	00b92933	slt	x18,x18,x11	 x18:0x7ffffc5e x11:0x00000000 x18=0x00000000
       44755000	      4474	80002718	03571063	bne	x14,x21,80002738	 x14:0x80009c00 x21:0x80009fc4
       44765000	      4475	00000000	00000013	addi	x0,x0,0	  x0:0x00000000
       44775000	      4476	80002734	00000013	addi	x0,x0,0	  x0:0x00000000
       44785000	      4477	80002738	01bd7e33	and	x28,x26,x27	 x26:0x00000000 x27:0x00000046 x28=0x00000000
       44795000	      4478	8000273c	03b00c63	beq	x0,x27,80002774	  x0:0x00000000 x27:0x00000046
       44805000	      4479	80002740	aae3ee93	ori	x29,x7,-1362	  x7:0x00000000 x29=0xfffffaae
       44815000	      4480	80002744	4452f713	andi	x14,x5,1093	  x5:0x80009f38 x14=0x00000400
       44825000	      4481	80002748	003d6313	ori	x6,x26,3	 x26:0x00000000  x6=0x00000003
       44835000	      4482	8000274c	00519d13	slli	x26,x3,0x5	  x3:0x00000000 x26=0x00000000
       44845000	      4483	80002750	9d5e7093	andi	x1,x28,-1579	 x28:0x00000000  x1=0x00000000
       44855000	      4484	80002754	00631013	slli	x0,x6,0x6	  x6:0x00000003
       44865000	      4485	80002758	0191de13	srli	x28,x3,0x19	  x3:0x00000000 x28=0x00000000
       44875000	      4486	8000275c	00d52733	slt	x14,x10,x13	 x10:0xffffff78 x13:0x80829929 x14=0x00000000
       44885000	      4487	80002760	01edb633	sltu	x12,x27,x30	 x27:0x00000046 x30:0x0f478023 x12=0x00000001
       44895000	      4488	80002764	3c9d3c13	sltiu	x24,x26,969	 x26:0x00000000 x24=0x00000001
       44905000	      4489	80002768	00000013	addi	x0,x0,0	  x0:0x00000000
       44915000	      4490	8000276c	003b5833	srl	x16,x22,x3	 x22:0x00000473  x3:0x00000000 x16=0x00000473
       44925000	      4491	80002770	05305263	bge	x0,x19,800027b4	  x0:0x00000000 x19:0x00000001
       44935000	      4492	80002774	02398263	beq	x19,x3,80002798	 x19:0x00000001  x3:0x00000000
       44945000	      4493	80002778	00000013	addi	x0,x0,0	  x0:0x00000000
       44955000	      4494	8000277c	01fddf13	srli	x30,x27,0x1f	 x27:0x00000046 x30=0x00000000
       44965000	      4495	80002780	21e4f613	andi	x12,x9,542	  x9:0x80009fc4 x12=0x00000204
       44975000	      4496	80002784	f18f6513	ori	x10,x30,-232	 x30:0x00000000 x10=0xffffff18
       44985000	      4497	80002788	0076b6b3	sltu	x13,x13,x7	 x13:0x80829929  x7:0x00000000 x13=0x00000000
       44995000	      4498	8000278c	41e55893	srai	x17,x10,0x1e	 x10:0xffffff18 x17=0xffffffff
       45005000	      4499	80002790	59d9a537	lui	x10,0x59d9a	 x10=0x59d9a000
       45015000	      4500	80002794	009a5133	srl	x2,x20,x9	 x20:0x00000000  x9:0x80009fc4  x2=0x00000000
       45025000	      4501	80002798	98d08e93	addi	x29,x1,-1651	  x1:0x00000000 x29=0xfffff98d
       45035000	      4502	8000279c	05dde463	bltu	x27,x29,800027e4	 x27:0x00000046 x29:0xfffff98d
       45045000	      4503	00000000	00000013	addi	x0,x0,0	  x0:0x00000000
       45055000	      4504	800027e0	00000013	addi	x0,x0,0	  x0:0x00000000
       45065000	      4505	800027e4	01012233	slt	x4,x2,x16	  x2:0x00000000 x16:0x00000473  x4=0x00000001
       45075000	      4506	800027e8	a39da113	slti	x2,x27,-1479	 x27:0x00000046  x2=0x00000000
       45085000	      4507	800027ec	0114dfb3	srl	x31,x9,x17	  x9:0x80009fc4 x17:0xffffffff x31=0x00000001
       45095000	      4508	800027f0	7035b893	sltiu	x17,x11,1795	 x11:0x00000000 x17=0x00000001
       45105000	      4509	800027f4	039e8263	beq	x29,x25,80002818	 x29:0xfffff98d x25:0x80000000
       45115000	      4510	800027f8	403a05b3	sub	x11,x20,x3	 x20:0x00000000  x3:0x00000000 x11=0x00000000
       45125000	      4511	800027fc	01a69733	sll	x14,x13,x26	 x13:0x00000000 x26:0x00000000 x14=0x00000000
       45135000	      4512	80002800	717c3d93	sltiu	x27,x24,1815	 x24:0x00000001 x27=0x00000001
       45145000	      4513	80002804	01550663	beq	x10,x21,80002810	 x10:0x59d9a000 x21:0x80009fc4
       45155000	      4514	80002808	2bd98e13	addi	x28,x19,701	 x19:0x00000001 x28=0x000002be
       45165000	      4515	8000280c	4180de93	srai	x29,x1,0x18	  x1:0x00000000 x29=0x00000000
       45175000	      4516	80002810	04e61063	bne	x12,x14,80002850	 x12:0x00000204 x14:0x00000000
       45185000	      4517	00000000	00000013	addi	x0,x0,0	  x0:0x00000000
       45195000	      4518	8000284c	00000013	addi	x0,x0,0	  x0:0x00000000
       45205000	      4519	80002850	00164633	xor	x12,x12,x1	 x12:0x00000204  x1:0x00000000 x12=0x00000204
       45215000	      4520	80002854	00b7a3b3	slt	x7,x15,x11	 x15:0x00000000 x11:0x00000000  x7=0x00000000
       45225000	      4521	80002858	00221a93	slli	x21,x4,0x2	  x4:0x00000001 x21=0x00000004
       45235000	      4522	8000285c	009b9fb3	sll	x31,x23,x9	 x23:0x00000000  x9:0x80009fc4 x31=0x00000000
       45245000	      4523	80002860	6edffa93	andi	x21,x31,1773	 x31:0x00000000 x21=0x00000000
       45255000	      4524	80002864	01cd7263	bgeu	x26,x28,80002868	 x26:0x00000000 x28:0x000002be
       45265000	      4525	80002868	012eed33	or	x26,x29,x18	 x29:0x00000000 x18:0x00000000 x26=0x00000000
       45275000	      4526	8000286c	00fb5b13	srli	x22,x22,0xf	 x22:0x00000473 x22=0x00000000
       45285000	      4527	80002870	6eff3b93	sltiu	x23,x30,1775	 x30:0x00000000 x23=0x00000001
       45295000	      4528	80002874	00773733	sltu	x14,x14,x7	 x14:0x00000000  x7:0x00000000 x14=0x00000000
       45305000	      4529	80002878	013c91b3	sll	x3,x25,x19	 x25:0x80000000 x19:0x00000001  x3=0x00000000
       45315000	      4530	8000287c	00ccb733	sltu	x14,x25,x12	 x25:0x80000000 x12:0x00000204 x14=0x00000000
       45325000	      4531	80002880	11a48413	addi	x8,x9,282	  x9:0x80009fc4  x8=0x8000a0de
       45335000	      4532	80002884	d1026137	lui	x2,0xd1026	  x2=0xd1026000
       45345000	      4533	80002888	4136dbb3	sra	x23,x13,x19	 x13:0x00000000 x19:0x00000001 x23=0x00000000
       45355000	      4534	8000288c	2c1ca393	slti	x7,x25,705	 x25:0x80000000  x7=0x00000001
       45365000	      4535	80002890	01fad7b3	srl	x15,x21,x31	 x21:0x00000000 x31:0x00000000 x15=0x00000000
       45375000	      4536	80002894	e4e0e6b7	lui	x13,0xe4e0e	 x13=0xe4e0e000
       45385000	      4537	80002898	01b397b3	sll	x15,x7,x27	  x7:0x00000001 x27:0x00000001 x15=0x00000002
       45395000	      4538	8000289c	00e5e263	bltu	x11,x14,800028a0	 x11:0x00000000 x14:0x00000000
       45405000	      4539	800028a0	afab4593	xori	x11,x22,-1286	 x22:0x00000000 x11=0xfffffafa
       45415000	      4540	800028a4	aa063893	sltiu	x17,x12,-1376	 x12:0x00000204 x17=0x00000001
       45425000	      4541	800028a8	018f4b33	xor	x22,x30,x24	 x30:0x00000000 x24:0x00000001 x22=0x00000001
       45435000	      4542	800028ac	20ab6b93	ori	x23,x22,522	 x22:0x00000001 x23=0x0000020b
       45445000	      4543	800028b0	58114e37	lui	x28,0x58114	 x28=0x58114000
       45455000	      4544	800028b4	01744233	xor	x4,x8,x23	  x8:0x8000a0de x23:0x0000020b  x4=0x8000a2d5
       45465000	      4545	800028b8	2d872193	slti	x3,x14,728	 x14:0x00000000  x3=0x00000001
       45475000	      4546	800028bc	ecbd3b97	auipc	x23,0xecbd3	 x23=0x6cbd58b8
       45485000	      4547	800028c0	00000013	addi	x0,x0,0	  x0:0x00000000
       45495000	      4548	800028c4	11514a63	blt	x2,x21,800029d8	  x2:0xd1026000 x21:0x00000000
       45505000	      4549	00000000	00000013	addi	x0,x0,0	  x0:0x00000000
       45515000	      4550	800029d4	00000013	addi	x0,x0,0	  x0:0x00000000
       45525000	      4551	800029d8	61f126b7	lui	x13,0x61f12	 x13=0x61f12000
       45535000	      4552	800029dc	00000013	addi	x0,x0,0	  x0:0x00000000
       45545000	      4553	800029e0	41ea5933	sra	x18,x20,x30	 x20:0x00000000 x30:0x00000000 x18=0x00000000
       45555000	      4554	800029e4	2dfa55b7	lui	x11,0x2dfa5	 x11=0x2dfa5000
       45565000	      4555	800029e8	03436263	bltu	x6,x20,80002a0c	  x6:0x00000003 x20:0x00000000
       45575000	      4556	800029ec	95b6a137	lui	x2,0x95b6a	  x2=0x95b6a000
       45585000	      4557	800029f0	00d30133	add	x2,x6,x13	  x6:0x00000003 x13:0x61f12000  x2=0x61f12003
       45595000	      4558	800029f4	01c35593	srli	x11,x6,0x1c	  x6:0x00000003 x11=0x00000000
       45605000	      4559	800029f8	5451cb97	auipc	x23,0x5451c	 x23=0xd451e9f4
       45615000	      4560	800029fc	22a9e213	ori	x4,x19,554	 x19:0x00000001  x4=0x0000022b
       45625000	      4561	80002a00	0d4e6a93	ori	x21,x28,212	 x28:0x58114000 x21=0x581140d4
       45635000	      4562	80002a04	d2606e93	ori	x29,x0,-730	  x0:0x00000000 x29=0xfffffd26
       45645000	      4563	80002a08	403901b3	sub	x3,x18,x3	 x18:0x00000000  x3:0x00000001  x3=0xffffffff
       45655000	      4564	80002a0c	00b2c733	xor	x14,x5,x11	  x5:0x80009f38 x11:0x00000000 x14=0x80009f38
       45665000	      4565	80002a10	02cb9a63	bne	x23,x12,80002a44	 x23:0xd451e9f4 x12:0x00000204
       45675000	      4566	00000000	00000013	addi	x0,x0,0	  x0:0x00000000
       45685000	      4567	80002a40	00000013	addi	x0,x0,0	  x0:0x00000000
       45695000	      4568	80002a44	2ec16917	auipc	x18,0x2ec16	 x18=0xaec18a40
       45705000	      4569	80002a48	d1aec313	xori	x6,x29,-742	 x29:0xfffffd26  x6=0x0000003c
       45715000	      4570	80002a4c	03308a63	beq	x1,x19,80002a80	  x1:0x00000000 x19:0x00000001
       45725000	      4571	80002a50	786b2613	slti	x12,x22,1926	 x22:0x00000001 x12=0x00000001
       45735000	      4572	80002a54	5fd18997	auipc	x19,0x5fd18	 x19=0xdfd1aa50
       45745000	      4573	80002a58	006173b3	and	x7,x2,x6	  x2:0x61f12003  x6:0x0000003c  x7=0x00000000
       45755000	      4574	80002a5c	881a6813	ori	x16,x20,-1919	 x20:0x00000000 x16=0xfffff881
       45765000	      4575	80002a60	19f09597	auipc	x11,0x19f09	 x11=0x99f0ba5c
       45775000	      4576	80002a64	05374263	blt	x14,x19,80002aa8	 x14:0x80009f38 x19:0xdfd1aa50
       45785000	      4577	00000000	00000013	addi	x0,x0,0	  x0:0x00000000
       45795000	      4578	80002aa4	00000013	addi	x0,x0,0	  x0:0x00000000
       45805000	      4579	80002aa8	1a738d97	auipc	x27,0x1a738	 x27=0x9a73aaa4
       45815000	      4580	80002aac	00000013	addi	x0,x0,0	  x0:0x00000000
       45825000	      4581	80002ab0	01605c33	srl	x24,x0,x22	  x0:0x00000000 x22:0x00000001 x24=0x00000000
       45835000	      4582	80002ab4	01645833	srl	x16,x8,x22	  x8:0x8000a0de x22:0x00000001 x16=0x4000506f
       45845000	      4583	80002ab8	8e24a893	slti	x17,x9,-1822	  x9:0x80009fc4 x17=0x00000001
       45855000	      4584	80002abc	00d19e33	sll	x28,x3,x13	  x3:0xffffffff x13:0x61f12000 x28=0xffffffff
       45865000	      4585	80002ac0	01da48b3	xor	x17,x20,x29	 x20:0x00000000 x29:0xfffffd26 x17=0xfffffd26
       45875000	      4586	80002ac4	05838263	beq	x7,x24,80002b08	  x7:0x00000000 x24:0x00000000
       45885000	      4587	00000000	00000013	addi	x0,x0,0	  x0:0x00000000
       45895000	      4588	80002b04	00000013	addi	x0,x0,0	  x0:0x00000000
       45905000	      4589	80002b08	00000013	addi	x0,x0,0	  x0:0x00000000
       45915000	      4590	80002b0c	e3e42b93	slti	x23,x8,-450	  x8:0x8000a0de x23=0x00000001
       45925000	      4591	80002b10	d149fa13	andi	x20,x19,-748	 x19:0xdfd1aa50 x20=0xdfd1a810
       45935000	      4592	80002b14	01111813	slli	x16,x2,0x11	  x2:0x61f12003 x16=0x40060000
       45945000	      4593	80002b18	f5fe4517	auipc	x10,0xf5fe4	 x10=0x75fe6b14
       45955000	      4594	80002b1c	4195d413	srai	x8,x11,0x19	 x11:0x99f0ba5c  x8=0xffffffcc
       45965000	      4595	80002b20	00000013	addi	x0,x0,0	  x0:0x00000000
       45975000	      4596	80002b24	829c7b13	andi	x22,x24,-2007	 x24:0x00000000 x22=0x00000000
       45985000	      4597	80002b28	025a0663	beq	x20,x5,80002b54	 x20:0xdfd1a810  x5:0x80009f38
       45995000	      4598	80002b2c	02e7e263	bltu	x15,x14,80002b50	 x15:0x00000002 x14:0x80009f38
       46005000	      4599	00000000	00000013	addi	x0,x0,0	  x0:0x00000000
       46015000	      4600	80002b4c	00000013	addi	x0,x0,0	  x0:0x00000000
       46025000	      4601	80002b50	480cee93	ori	x29,x25,1152	 x25:0x80000000 x29=0x80000480
       46035000	      4602	80002b54	89f62f93	slti	x31,x12,-1889	 x12:0x00000001 x31=0x00000000
       46045000	      4603	80002b58	96201c37	lui	x24,0x96201	 x24=0x96201000
       46055000	      4604	80002b5c	00a1d6b3	srl	x13,x3,x10	  x3:0xffffffff x10:0x75fe6b14 x13=0x00000fff
       46065000	      4605	80002b60	72cefd93	andi	x27,x29,1836	 x29:0x80000480 x27=0x00000400
       46075000	      4606	80002b64	e8be4093	xori	x1,x28,-373	 x28:0xffffffff  x1=0x00000174
       46085000	      4607	80002b68	01976ab3	or	x21,x14,x25	 x14:0x80009f38 x25:0x80000000 x21=0x80009f38
       46095000	      4608	80002b6c	01eef463	bgeu	x29,x30,80002b74	 x29:0x80000480 x30:0x00000000
       46105000	      4609	00000000	00000013	addi	x0,x0,0	  x0:0x00000000
       46115000	      4610	80002b70	00000013	addi	x0,x0,0	  x0:0x00000000
       46125000	      4611	80002b74	50cf3013	sltiu	x0,x30,1292	 x30:0x00000000
       46135000	      4612	80002b78	4b15f913	andi	x18,x11,1201	 x11:0x99f0ba5c x18=0x00000010
       46145000	      4613	80002b7c	008b5e63	bge	x22,x8,80002b98	 x22:0x00000000  x8:0xffffffcc
       46155000	      4614	00000000	00000013	addi	x0,x0,0	  x0:0x00000000
       46165000	      4615	80002b94	00000013	addi	x0,x0,0	  x0:0x00000000
       46175000	      4616	80002b98	0166c3b3	xor	x7,x13,x22	 x13:0x00000fff x22:0x00000000  x7=0x00000fff
       46185000	      4617	80002b9c	41618a33	sub	x20,x3,x22	  x3:0xffffffff x22:0x00000000 x20=0xffffffff
       46195000	      4618	80002ba0	01c41d93	slli	x27,x8,0x1c	  x8:0xffffffcc x27=0xc0000000
       46205000	      4619	80002ba4	41a4d3b3	sra	x7,x9,x26	  x9:0x80009fc4 x26:0x00000000  x7=0x80009fc4
       46215000	      4620	80002ba8	69cc3513	sltiu	x10,x24,1692	 x24:0x96201000 x10=0x00000000
       46225000	      4621	80002bac	00ed4f33	xor	x30,x26,x14	 x26:0x00000000 x14:0x80009f38 x30=0x80009f38
       46235000	      4622	80002bb0	419b00b3	sub	x1,x22,x25	 x22:0x00000000 x25:0x80000000  x1=0x80000000
       46245000	      4623	80002bb4	00000013	addi	x0,x0,0	  x0:0x00000000
       46255000	      4624	80002bb8	0042a303	lw	x6,4(x5)	  x5:0x80009f38  x6=0x800030ec PA:0x80009f3c
       46265000	      4625	80002bbc	03428293	addi	x5,x5,52	  x5:0x80009f38  x5=0x80009f6c
       46275000	      4626	80002bc0	00000013	addi	x0,x0,0	  x0:0x00000000
       46285000	      4627	80002bc4	000779b3	and	x19,x14,x0	 x14:0x80009f38  x0:0x00000000 x19=0x00000000
       46295000	      4628	80002bc8	41a2d193	srai	x3,x5,0x1a	  x5:0x80009f6c  x3=0xffffffe0
       46305000	      4629	80002bcc	00030213	addi	x4,x6,0	  x6:0x800030ec  x4=0x800030ec
       46315000	      4630	80002bd0	00020267	jalr	x4,x4,0	  x4:0x800030ec  x4=0x80002bd0
       46325000	      4631	00000000	00000013	addi	x0,x0,0	  x0:0x00000000
       46335000	      4632	800030ec	00000013	addi	x0,x0,0	  x0:0x00000000
       46345000	      4633	800030f0	be32be17	auipc	x28,0xbe32b	 x28=0x3e32e0ec
       46355000	      4634	800030f4	40bb0033	sub	x0,x22,x11	 x22:0x00000000 x11:0x99f0ba5c
       46365000	      4635	800030f8	cdb30a37	lui	x20,0xcdb30	 x20=0xcdb30000
       46375000	      4636	800030fc	02ca4e63	blt	x20,x12,80003138	 x20:0xcdb30000 x12:0x00000001
       46385000	      4637	00000000	00000013	addi	x0,x0,0	  x0:0x00000000
       46395000	      4638	80003134	00000013	addi	x0,x0,0	  x0:0x00000000
       46405000	      4639	80003138	9f46a213	slti	x4,x13,-1548	 x13:0x00000fff  x4=0x00000000
       46415000	      4640	8000313c	fe4c3813	sltiu	x16,x24,-28	 x24:0x96201000 x16=0x00000001
       46425000	      4641	80003140	00e8ac33	slt	x24,x17,x14	 x17:0xfffffd26 x14:0x80009f38 x24=0x00000000
       46435000	      4642	80003144	014461b3	or	x3,x8,x20	  x8:0xffffffcc x20:0xcdb30000  x3=0xffffffcc
       46445000	      4643	80003148	0000bf33	sltu	x30,x1,x0	  x1:0x80000000  x0:0x00000000 x30=0x00000000
       46455000	      4644	8000314c	402ad933	sra	x18,x21,x2	 x21:0x80009f38  x2:0x61f12003 x18=0xf00013e7
       46465000	      4645	80003150	4c528d97	auipc	x27,0x4c528	 x27=0xcc52b14c
       46475000	      4646	80003154	ade84a13	xori	x20,x16,-1314	 x16:0x00000001 x20=0xfffffadf
       46485000	      4647	80003158	40fe5db3	sra	x27,x28,x15	 x28:0x3e32e0ec x15:0x00000002 x27=0x0f8cb83b
       46495000	      4648	8000315c	00000013	addi	x0,x0,0	  x0:0x00000000
       46505000	      4649	80003160	03fe7a63	bgeu	x28,x31,80003194	 x28:0x3e32e0ec x31:0x00000000
       46515000	      4650	00000000	00000013	addi	x0,x0,0	  x0:0x00000000
       46525000	      4651	80003190	00000013	addi	x0,x0,0	  x0:0x00000000
       46535000	      4652	80003194	a93b6ab7	lui	x21,0xa93b6	 x21=0xa93b6000
       46545000	      4653	80003198	005ba933	slt	x18,x23,x5	 x23:0x00000001  x5:0x80009f6c x18=0x00000000
       46555000	      4654	8000319c	01512233	slt	x4,x2,x21	  x2:0x61f12003 x21:0xa93b6000  x4=0x00000000
       46565000	      4655	800031a0	525c0993	addi	x19,x24,1317	 x24:0x00000000 x19=0x00000525
       46575000	      4656	800031a4	aafaaa37	lui	x20,0xaafaa	 x20=0xaafaa000
       46585000	      4657	800031a8	c5f40a93	addi	x21,x8,-929	  x8:0xffffffcc x21=0xfffffc2b
       46595000	      4658	800031ac	3c9c6f93	ori	x31,x24,969	 x24:0x00000000 x31=0x000003c9
       46605000	      4659	800031b0	0162d693	srli	x13,x5,0x16	  x5:0x80009f6c x13=0x00000200
       46615000	      4660	800031b4	40148bb3	sub	x23,x9,x1	  x9:0x80009fc4  x1:0x80000000 x23=0x00009fc4
       46625000	      4661	800031b8	005e4d33	xor	x26,x28,x5	 x28:0x3e32e0ec  x5:0x80009f6c x26=0xbe327f80
       46635000	      4662	800031bc	00ea5533	srl	x10,x20,x14	 x20:0xaafaa000 x14:0x80009f38 x10=0x000000aa
       46645000	      4663	800031c0	00895393	srli	x7,x18,0x8	 x18:0x00000000  x7=0x00000000
       46655000	      4664	800031c4	fc3a8213	addi	x4,x21,-61	 x21:0xfffffc2b  x4=0xfffffbee
       46665000	      4665	800031c8	03f87a63	bgeu	x16,x31,800031fc	 x16:0x00000001 x31:0x000003c9
       46675000	      4666	800031cc	2d731337	lui	x6,0x2d731	  x6=0x2d731000
       46685000	      4667	800031d0	91618f13	addi	x30,x3,-1770	  x3:0xffffffcc x30=0xfffff8e2
       46695000	      4668	800031d4	b309a113	slti	x2,x19,-1232	 x19:0x00000525  x2=0x00000000
       46705000	      4669	800031d8	0448f663	bgeu	x17,x4,80003224	 x17:0xfffffd26  x4:0xfffffbee
       46715000	      4670	00000000	00000013	addi	x0,x0,0	  x0:0x00000000
       46725000	      4671	80003220	00000013	addi	x0,x0,0	  x0:0x00000000
       46735000	      4672	80003224	a0a8e197	auipc	x3,0xa0a8e	  x3=0x20a91220
       46745000	      4673	80003228	004b6b33	or	x22,x22,x4	 x22:0x00000000  x4:0xfffffbee x22=0xfffffbee
       46755000	      4674	8000322c	00a8a033	slt	x0,x17,x10	 x17:0xfffffd26 x10:0x000000aa
       46765000	      4675	80003230	38d0a193	slti	x3,x1,909	  x1:0x80000000  x3=0x00000001
       46775000	      4676	80003234	01cb07b3	add	x15,x22,x28	 x22:0xfffffbee x28:0x3e32e0ec x15=0x3e32dcda
       46785000	      4677	80003238	01d76e63	bltu	x14,x29,80003254	 x14:0x80009f38 x29:0x80000480
       46795000	      4678	8000323c	50e38b93	addi	x23,x7,1294	  x7:0x00000000 x23=0x0000050e
       46805000	      4679	80003240	f8ac0813	addi	x16,x24,-118	 x24:0x00000000 x16=0xffffff8a
       46815000	      4680	80003244	00a11793	slli	x15,x2,0xa	  x2:0x00000000 x15=0x00000000
       46825000	      4681	80003248	e072a193	slti	x3,x5,-505	  x5:0x80009f6c  x3=0x00000001
       46835000	      4682	8000324c	a92eff13	andi	x30,x29,-1390	 x29:0x80000480 x30=0x80000080
       46845000	      4683	80003250	009da233	slt	x4,x27,x9	 x27:0x0f8cb83b  x9:0x80009fc4  x4=0x00000000
       46855000	      4684	80003254	01071633	sll	x12,x14,x16	 x14:0x80009f38 x16:0xffffff8a x12=0x027ce000
       46865000	      4685	80003258	753a3193	sltiu	x3,x20,1875	 x20:0xaafaa000  x3=0x00000000
       46875000	      4686	8000325c	005cea63	bltu	x25,x5,80003270	 x25:0x80000000  x5:0x80009f6c
       46885000	      4687	00000000	00000013	addi	x0,x0,0	  x0:0x00000000
       46895000	      4688	8000326c	00000013	addi	x0,x0,0	  x0:0x00000000
       46905000	      4689	80003270	01963f33	sltu	x30,x12,x25	 x12:0x027ce000 x25:0x80000000 x30=0x00000001
       46915000	      4690	80003274	08610413	addi	x8,x2,134	  x2:0x00000000  x8=0x00000086
       46925000	      4691	80003278	13388a37	lui	x20,0x13388	 x20=0x13388000
       46935000	      4692	8000327c	00000013	addi	x0,x0,0	  x0:0x00000000
       46945000	      4693	80003280	da878393	addi	x7,x15,-600	 x15:0x00000000  x7=0xfffffda8
       46955000	      4694	80003284	cb012b13	slti	x22,x2,-848	  x2:0x00000000 x22=0x00000000
       46965000	      4695	80003288	02a28263	beq	x5,x10,800032ac	  x5:0x80009f6c x10:0x000000aa
       46975000	      4696	8000328c	0d1d7237	lui	x4,0xd1d7	  x4=0x0d1d7000
       46985000	      4697	80003290	0131e863	bltu	x3,x19,800032a0	  x3:0x00000000 x19:0x00000525
       46995000	      4698	00000000	00000013	addi	x0,x0,0	  x0:0x00000000
       47005000	      4699	8000329c	00000013	addi	x0,x0,0	  x0:0x00000000
       47015000	      4700	800032a0	01af5e13	srli	x28,x30,0x1a	 x30:0x00000001 x28=0x00000000
       47025000	      4701	800032a4	bff16a17	auipc	x20,0xbff16	 x20=0x3ff192a0
       47035000	      4702	800032a8	02c11e63	bne	x2,x12,800032e4	  x2:0x00000000 x12:0x027ce000
       47045000	      4703	00000000	00000013	addi	x0,x0,0	  x0:0x00000000
       47055000	      4704	800032e0	00000013	addi	x0,x0,0	  x0:0x00000000
       47065000	      4705	800032e4	ab632417	auipc	x8,0xab632	  x8=0x2b6352e0
       47075000	      4706	800032e8	01ca7663	bgeu	x20,x28,800032f4	 x20:0x3ff192a0 x28:0x00000000
       47085000	      4707	00000000	00000013	addi	x0,x0,0	  x0:0x00000000
       47095000	      4708	800032f0	00000013	addi	x0,x0,0	  x0:0x00000000
       47105000	      4709	800032f4	015030b3	sltu	x1,x0,x21	  x0:0x00000000 x21:0xfffffc2b  x1=0x00000001
       47115000	      4710	800032f8	41c60633	sub	x12,x12,x28	 x12:0x027ce000 x28:0x00000000 x12=0x027ce000
       47125000	      4711	800032fc	0347c463	blt	x15,x20,80003324	 x15:0x00000000 x20:0x3ff192a0
       47135000	      4712	00000000	00000013	addi	x0,x0,0	  x0:0x00000000
       47145000	      4713	80003320	00000013	addi	x0,x0,0	  x0:0x00000000
       47155000	      4714	80003324	d312c113	xori	x2,x5,-719	  x5:0x80009f6c  x2=0x7fff625d
       47165000	      4715	80003328	00000013	addi	x0,x0,0	  x0:0x00000000
       47175000	      4716	8000332c	01d95813	srli	x16,x18,0x1d	 x18:0x00000000 x16=0x00000000
       47185000	      4717	80003330	41090e33	sub	x28,x18,x16	 x18:0x00000000 x16:0x00000000 x28=0x00000000
       47195000	      4718	80003334	03ff9463	bne	x31,x31,8000335c	 x31:0x000003c9 x31:0x000003c9
       47205000	      4719	80003338	414786b3	sub	x13,x15,x20	 x15:0x00000000 x20:0x3ff192a0 x13=0xc00e6d60
       47215000	      4720	8000333c	f3f42413	slti	x8,x8,-193	  x8:0x2b6352e0  x8=0x00000000
       47225000	      4721	80003340	01caf7b3	and	x15,x21,x28	 x21:0xfffffc2b x28:0x00000000 x15=0x00000000
       47235000	      4722	80003344	0177fe63	bgeu	x15,x23,80003360	 x15:0x00000000 x23:0x0000050e
       47245000	      4723	80003348	ff5ab913	sltiu	x18,x21,-11	 x21:0xfffffc2b x18=0x00000001
       47255000	      4724	8000334c	91402413	slti	x8,x0,-1772	  x0:0x00000000  x8=0x00000000
       47265000	      4725	80003350	3a5f3797	auipc	x15,0x3a5f3	 x15=0xba5f634c
       47275000	      4726	80003354	00d2e6b3	or	x13,x5,x13	  x5:0x80009f6c x13:0xc00e6d60 x13=0xc00eff6c
       47285000	      4727	80003358	01951d93	slli	x27,x10,0x19	 x10:0x000000aa x27=0x54000000
       47295000	      4728	8000335c	0068c1b3	xor	x3,x17,x6	 x17:0xfffffd26  x6:0x2d731000  x3=0xd28ced26
       47305000	      4729	80003360	f503be93	sltiu	x29,x7,-176	  x7:0xfffffda8 x29=0x00000001
       47315000	      4730	80003364	01c35013	srli	x0,x6,0x1c	  x6:0x2d731000
       47325000	      4731	80003368	41315b33	sra	x22,x2,x19	  x2:0x7fff625d x19:0x00000525 x22=0x03fffb12
       47335000	      4732	8000336c	011209b3	add	x19,x4,x17	  x4:0x0d1d7000 x17:0xfffffd26 x19=0x0d1d6d26
       47345000	      4733	80003370	00d25d33	srl	x26,x4,x13	  x4:0x0d1d7000 x13:0xc00eff6c x26=0x0000d1d7
       47355000	      4734	80003374	0202ea63	bltu	x5,x0,800033a8	  x5:0x80009f6c  x0:0x00000000
       47365000	      4735	80003378	002b8b33	add	x22,x23,x2	 x23:0x0000050e  x2:0x7fff625d x22=0x7fff676b
       47375000	      4736	8000337c	0002b933	sltu	x18,x5,x0	  x5:0x80009f6c  x0:0x00000000 x18=0x00000000
       47385000	      4737	80003380	4117db93	srai	x23,x15,0x11	 x15:0xba5f634c x23=0xffffdd2f
       47395000	      4738	80003384	01ddc9b3	xor	x19,x27,x29	 x27:0x54000000 x29:0x00000001 x19=0x54000001
       47405000	      4739	80003388	002877b3	and	x15,x16,x2	 x16:0x00000000  x2:0x7fff625d x15=0x00000000
       47415000	      4740	8000338c	00f3da63	bge	x7,x15,800033a0	  x7:0xfffffda8 x15:0x00000000
       47425000	      4741	80003390	00f84d33	xor	x26,x16,x15	 x16:0x00000000 x15:0x00000000 x26=0x00000000
       47435000	      4742	80003394	001d1713	slli	x14,x26,0x1	 x26:0x00000000 x14=0x00000000
       47445000	      4743	80003398	01026a33	or	x20,x4,x16	  x4:0x0d1d7000 x16:0x00000000 x20=0x0d1d7000
       47455000	      4744	8000339c	9d34a013	slti	x0,x9,-1581	  x9:0x80009fc4
       47465000	      4745	800033a0	00000013	addi	x0,x0,0	  x0:0x00000000
       47475000	      4746	800033a4	01f2af33	slt	x30,x5,x31	  x5:0x80009f6c x31:0x000003c9 x30=0x00000001
       47485000	      4747	800033a8	01b69e33	sll	x28,x13,x27	 x13:0xc00eff6c x27:0x54000000 x28=0xc00eff6c
       47495000	      4748	800033ac	00167863	bgeu	x12,x1,800033bc	 x12:0x027ce000  x1:0x00000001
       47505000	      4749	00000000	00000013	addi	x0,x0,0	  x0:0x00000000
       47515000	      4750	800033b8	00000013	addi	x0,x0,0	  x0:0x00000000
       47525000	      4751	800033bc	00501913	slli	x18,x0,0x5	  x0:0x00000000 x18=0x00000000
       47535000	      4752	800033c0	52e17713	andi	x14,x2,1326	  x2:0x7fff625d x14=0x0000000c
       47545000	      4753	800033c4	d031b513	sltiu	x10,x3,-765	  x3:0xd28ced26 x10=0x00000001
       47555000	      4754	800033c8	01e68ab3	add	x21,x13,x30	 x13:0xc00eff6c x30:0x00000001 x21=0xc00eff6d
       47565000	      4755	800033cc	cb280913	addi	x18,x16,-846	 x16:0x00000000 x18=0xfffffcb2
       47575000	      4756	800033d0	04c56263	bltu	x10,x12,80003414	 x10:0x00000001 x12:0x027ce000
       47585000	      4757	00000000	00000013	addi	x0,x0,0	  x0:0x00000000
       47595000	      4758	80003410	00000013	addi	x0,x0,0	  x0:0x00000000
       47605000	      4759	80003414	8c9e0393	addi	x7,x28,-1847	 x28:0xc00eff6c  x7=0xc00ef835
       47615000	      4760	80003418	01da05b3	add	x11,x20,x29	 x20:0x0d1d7000 x29:0x00000001 x11=0x0d1d7001
       47625000	      4761	8000341c	007491b3	sll	x3,x9,x7	  x9:0x80009fc4  x7:0xc00ef835  x3=0xf8800000
       47635000	      4762	80003420	71df6093	ori	x1,x30,1821	 x30:0x00000001  x1=0x0000071d
       47645000	      4763	80003424	4135d033	sra	x0,x11,x19	 x11:0x0d1d7001 x19:0x54000001
       47655000	      4764	80003428	00380133	add	x2,x16,x3	 x16:0x00000000  x3:0xf8800000  x2=0xf8800000
       47665000	      4765	8000342c	00225013	srli	x0,x4,0x2	  x4:0x0d1d7000
       47675000	      4766	80003430	03b4e463	bltu	x9,x27,80003458	  x9:0x80009fc4 x27:0x54000000
       47685000	      4767	80003434	01fb8263	beq	x23,x31,80003438	 x23:0xffffdd2f x31:0x000003c9
       47695000	      4768	80003438	c0d80593	addi	x11,x16,-1011	 x16:0x00000000 x11=0xfffffc0d
       47705000	      4769	8000343c	0482e513	ori	x10,x5,72	  x5:0x80009f6c x10=0x80009f6c
       47715000	      4770	80003440	01206e33	or	x28,x0,x18	  x0:0x00000000 x18:0xfffffcb2 x28=0xfffffcb2
       47725000	      4771	80003444	00731793	slli	x15,x6,0x7	  x6:0x2d731000 x15=0xb9880000
       47735000	      4772	80003448	00a1bab3	sltu	x21,x3,x10	  x3:0xf8800000 x10:0x80009f6c x21=0x00000000
       47745000	      4773	8000344c	dc5e8213	addi	x4,x29,-571	 x29:0x00000001  x4=0xfffffdc6
       47755000	      4774	80003450	013be8b3	or	x17,x23,x19	 x23:0xffffdd2f x19:0x54000001 x17=0xffffdd2f
       47765000	      4775	80003454	00606663	bltu	x0,x6,80003460	  x0:0x00000000  x6:0x2d731000
       47775000	      4776	00000000	00000013	addi	x0,x0,0	  x0:0x00000000
       47785000	      4777	8000345c	00000013	addi	x0,x0,0	  x0:0x00000000
       47795000	      4778	80003460	01cb0263	beq	x22,x28,80003464	 x22:0x7fff676b x28:0xfffffcb2
       47805000	      4779	80003464	00999d13	slli	x26,x19,0x9	 x19:0x54000001 x26=0x00000200
       47815000	      4780	80003468	017831b3	sltu	x3,x16,x23	 x16:0x00000000 x23:0xffffdd2f  x3=0x00000001
       47825000	      4781	8000346c	6dc9a913	slti	x18,x19,1756	 x19:0x54000001 x18=0x00000000
       47835000	      4782	80003470	8e27c693	xori	x13,x15,-1822	 x15:0xb9880000 x13=0x4677f8e2
       47845000	      4783	80003474	020ee463	bltu	x29,x0,8000349c	 x29:0x00000001  x0:0x00000000
       47855000	      4784	80003478	0074ee63	bltu	x9,x7,80003494	  x9:0x80009fc4  x7:0xc00ef835
       47865000	      4785	00000000	00000013	addi	x0,x0,0	  x0:0x00000000
       47875000	      4786	80003490	00000013	addi	x0,x0,0	  x0:0x00000000
       47885000	      4787	80003494	29a9a013	slti	x0,x19,666	 x19:0x54000001
       47895000	      4788	80003498	001d5393	srli	x7,x26,0x1	 x26:0x00000200  x7=0x00000100
       47905000	      4789	8000349c	006c1033	sll	x0,x24,x6	 x24:0x00000000  x6:0x2d731000
       47915000	      4790	800034a0	013058b3	srl	x17,x0,x19	  x0:0x00000000 x19:0x54000001 x17=0x00000000
       47925000	      4791	800034a4	024b4a63	blt	x22,x4,800034d8	 x22:0x7fff676b  x4:0xfffffdc6
       47935000	      4792	800034a8	0082b133	sltu	x2,x5,x8	  x5:0x80009f6c  x8:0x00000000  x2=0x00000000
       47945000	      4793	800034ac	56292d13	slti	x26,x18,1378	 x18:0x00000000 x26=0x00000001
       47955000	      4794	800034b0	416a0533	sub	x10,x20,x22	 x20:0x0d1d7000 x22:0x7fff676b x10=0x8d1e0895
       47965000	      4795	800034b4	00007633	and	x12,x0,x0	  x0:0x00000000  x0:0x00000000 x12=0x00000000
       47975000	      4796	800034b8	12da4e13	xori	x28,x20,301	 x20:0x0d1d7000 x28=0x0d1d712d
       47985000	      4797	800034bc	00f92f33	slt	x30,x18,x15	 x18:0x00000000 x15:0xb9880000 x30=0x00000000
       47995000	      4798	800034c0	51ebb013	sltiu	x0,x23,1310	 x23:0xffffdd2f
       48005000	      4799	800034c4	02c50063	beq	x10,x12,800034e4	 x10:0x8d1e0895 x12:0x00000000
       48015000	      4800	800034c8	423b8e13	addi	x28,x23,1059	 x23:0xffffdd2f x28=0xffffe152
       48025000	      4801	800034cc	00e9e533	or	x10,x19,x14	 x19:0x54000001 x14:0x0000000c x10=0x5400000d
       48035000	      4802	800034d0	8a50f213	andi	x4,x1,-1883	  x1:0x0000071d  x4=0x00000005
       48045000	      4803	800034d4	41a68233	sub	x4,x13,x26	 x13:0x4677f8e2 x26:0x00000001  x4=0x4677f8e1
       48055000	      4804	800034d8	01445a13	srli	x20,x8,0x14	  x8:0x00000000 x20=0x00000000
       48065000	      4805	800034dc	4005db93	srai	x23,x11,0x0	 x11:0xfffffc0d x23=0xfffffc0d
       48075000	      4806	800034e0	0032fa33	and	x20,x5,x3	  x5:0x80009f6c  x3:0x00000001 x20=0x00000000
       48085000	      4807	800034e4	4dd12593	slti	x11,x2,1245	  x2:0x00000000 x11=0x00000001
       48095000	      4808	800034e8	7a42a917	auipc	x18,0x7a42a	 x18=0xfa42d4e4
       48105000	      4809	800034ec	02629a63	bne	x5,x6,80003520	  x5:0x80009f6c  x6:0x2d731000
       48115000	      4810	00000000	00000013	addi	x0,x0,0	  x0:0x00000000
       48125000	      4811	8000351c	00000013	addi	x0,x0,0	  x0:0x00000000
       48135000	      4812	80003520	de89f713	andi	x14,x19,-536	 x19:0x54000001 x14=0x54000000
       48145000	      4813	80003524	00525a13	srli	x20,x4,0x5	  x4:0x4677f8e1 x20=0x0233bfc7
       48155000	      4814	80003528	0df23d13	sltiu	x26,x4,223	  x4:0x4677f8e1 x26=0x00000000
       48165000	      4815	8000352c	01fc9bb3	sll	x23,x25,x31	 x25:0x80000000 x31:0x000003c9 x23=0x00000000
       48175000	      4816	80003530	3cf32693	slti	x13,x6,975	  x6:0x2d731000 x13=0x00000000
       48185000	      4817	80003534	00541633	sll	x12,x8,x5	  x8:0x00000000  x5:0x80009f6c x12=0x00000000
       48195000	      4818	80003538	eada6e93	ori	x29,x20,-339	 x20:0x0233bfc7 x29=0xffffffef
       48205000	      4819	8000353c	367da613	slti	x12,x27,871	 x27:0x54000000 x12=0x00000000
       48215000	      4820	80003540	00a8cfb3	xor	x31,x17,x10	 x17:0x00000000 x10:0x5400000d x31=0x5400000d
       48225000	      4821	80003544	01086333	or	x6,x16,x16	 x16:0x00000000 x16:0x00000000  x6=0x00000000
       48235000	      4822	80003548	00a98e63	beq	x19,x10,80003564	 x19:0x54000001 x10:0x5400000d
       48245000	      4823	8000354c	3cd9fd13	andi	x26,x19,973	 x19:0x54000001 x26=0x00000001
       48255000	      4824	80003550	038cde63	bge	x25,x24,8000358c	 x25:0x80000000 x24:0x00000000
       48265000	      4825	80003554	00000013	addi	x0,x0,0	  x0:0x00000000
       48275000	      4826	80003558	01178233	add	x4,x15,x17	 x15:0xb9880000 x17:0x00000000  x4=0xb9880000
       48285000	      4827	8000355c	9d2f8913	addi	x18,x31,-1582	 x31:0x5400000d x18=0x53fff9df
       48295000	      4828	80003560	006b8db3	add	x27,x23,x6	 x23:0x00000000  x6:0x00000000 x27=0x00000000
       48305000	      4829	80003564	d32da413	slti	x8,x27,-718	 x27:0x00000000  x8=0x00000000
       48315000	      4830	80003568	03e88463	beq	x17,x30,80003590	 x17:0x00000000 x30:0x00000000
       48325000	      4831	00000000	00000013	addi	x0,x0,0	  x0:0x00000000
       48335000	      4832	8000358c	00000013	addi	x0,x0,0	  x0:0x00000000
       48345000	      4833	80003590	01f45bb3	srl	x23,x8,x31	  x8:0x00000000 x31:0x5400000d x23=0x00000000
       48355000	      4834	80003594	91fd6137	lui	x2,0x91fd6	  x2=0x91fd6000
       48365000	      4835	80003598	01034e63	blt	x6,x16,800035b4	  x6:0x00000000 x16:0x00000000
       48375000	      4836	8000359c	0f9f6693	ori	x13,x30,249	 x30:0x00000000 x13=0x000000f9
       48385000	      4837	800035a0	008cd313	srli	x6,x25,0x8	 x25:0x80000000  x6=0x00800000
       48395000	      4838	800035a4	0363c463	blt	x7,x22,800035cc	  x7:0x00000100 x22:0x7fff676b
       48405000	      4839	00000000	00000013	addi	x0,x0,0	  x0:0x00000000
       48415000	      4840	800035c8	00000013	addi	x0,x0,0	  x0:0x00000000
       48425000	      4841	800035cc	40e7d693	srai	x13,x15,0xe	 x15:0xb9880000 x13=0xfffee620
       48435000	      4842	800035d0	00000013	addi	x0,x0,0	  x0:0x00000000
       48445000	      4843	800035d4	03f71063	bne	x14,x31,800035f4	 x14:0x54000000 x31:0x5400000d
       48455000	      4844	00000000	00000013	addi	x0,x0,0	  x0:0x00000000
       48465000	      4845	800035f0	00000013	addi	x0,x0,0	  x0:0x00000000
       48475000	      4846	800035f4	c066ffb7	lui	x31,0xc066f	 x31=0xc066f000
       48485000	      4847	800035f8	2acbc417	auipc	x8,0x2acbc	  x8=0xaacbf5f4
       48495000	      4848	800035fc	002135b3	sltu	x11,x2,x2	  x2:0x91fd6000  x2:0x91fd6000 x11=0x00000000
       48505000	      4849	80003600	0260fa63	bgeu	x1,x6,80003634	  x1:0x0000071d  x6:0x00800000
       48515000	      4850	80003604	00a24633	xor	x12,x4,x10	  x4:0xb9880000 x10:0x5400000d x12=0xed88000d
       48525000	      4851	80003608	400dd193	srai	x3,x27,0x0	 x27:0x00000000  x3=0x00000000
       48535000	      4852	8000360c	01fc8b33	add	x22,x25,x31	 x25:0x80000000 x31:0xc066f000 x22=0x4066f000
       48545000	      4853	80003610	01c0de63	bge	x1,x28,8000362c	  x1:0x0000071d x28:0xffffe152
       48555000	      4854	00000000	00000013	addi	x0,x0,0	  x0:0x00000000
       48565000	      4855	80003628	00000013	addi	x0,x0,0	  x0:0x00000000
       48575000	      4856	8000362c	00599db3	sll	x27,x19,x5	 x19:0x54000001  x5:0x80009f6c x27=0x00001000
       48585000	      4857	80003630	0086f263	bgeu	x13,x8,80003634	 x13:0xfffee620  x8:0xaacbf5f4
       48595000	      4858	00000000	00000013	addi	x0,x0,0	  x0:0x00000000
       48605000	      4859	80003630	00000013	addi	x0,x0,0	  x0:0x00000000
       48615000	      4860	80003634	2c69f793	andi	x15,x19,710	 x19:0x54000001 x15=0x00000000
       48625000	      4861	80003638	048067b7	lui	x15,0x4806	 x15=0x04806000
       48635000	      4862	8000363c	01790b33	add	x22,x18,x23	 x18:0x53fff9df x23:0x00000000 x22=0x53fff9df
       48645000	      4863	80003640	402e5033	sra	x0,x28,x2	 x28:0xffffe152  x2:0x91fd6000
       48655000	      4864	80003644	01462733	slt	x14,x12,x20	 x12:0xed88000d x20:0x0233bfc7 x14=0x00000001
       48665000	      4865	80003648	009bc333	xor	x6,x23,x9	 x23:0x00000000  x9:0x80009fc4  x6=0x80009fc4
       48675000	      4866	8000364c	410b0eb3	sub	x29,x22,x16	 x22:0x53fff9df x16:0x00000000 x29=0x53fff9df
       48685000	      4867	80003650	c482a917	auipc	x18,0xc482a	 x18=0x4482d64c
       48695000	      4868	80003654	cb074993	xori	x19,x14,-848	 x14:0x00000001 x19=0xfffffcb1
       48705000	      4869	80003658	05f28663	beq	x5,x31,800036a4	  x5:0x80009f6c x31:0xc066f000
       48715000	      4870	8000365c	044c5063	bge	x24,x4,8000369c	 x24:0x00000000  x4:0xb9880000
       48725000	      4871	00000000	00000013	addi	x0,x0,0	  x0:0x00000000
       48735000	      4872	80003698	00000013	addi	x0,x0,0	  x0:0x00000000
       48745000	      4873	8000369c	169e57b7	lui	x15,0x169e5	 x15=0x169e5000
       48755000	      4874	800036a0	01008733	add	x14,x1,x16	  x1:0x0000071d x16:0x00000000 x14=0x0000071d
       48765000	      4875	800036a4	dbc07113	andi	x2,x0,-580	  x0:0x00000000  x2=0x00000000
       48775000	      4876	800036a8	41658db3	sub	x27,x11,x22	 x11:0x00000000 x22:0x53fff9df x27=0xac000621
       48785000	      4877	800036ac	41a0da33	sra	x20,x1,x26	  x1:0x0000071d x26:0x00000001 x20=0x0000038e
       48795000	      4878	800036b0	02411e63	bne	x2,x4,800036ec	  x2:0x00000000  x4:0xb9880000
       48805000	      4879	00000000	00000013	addi	x0,x0,0	  x0:0x00000000
       48815000	      4880	800036e8	00000013	addi	x0,x0,0	  x0:0x00000000
       48825000	      4881	800036ec	00d5edb3	or	x27,x11,x13	 x11:0x00000000 x13:0xfffee620 x27=0xfffee620
       48835000	      4882	800036f0	41ff5613	srai	x12,x30,0x1f	 x30:0x00000000 x12=0x00000000
       48845000	      4883	800036f4	40325833	sra	x16,x4,x3	  x4:0xb9880000  x3:0x00000000 x16=0xb9880000
       48855000	      4884	800036f8	2218ae13	slti	x28,x17,545	 x17:0x00000000 x28=0x00000001
       48865000	      4885	800036fc	f2ce4913	xori	x18,x28,-212	 x28:0x00000001 x18=0xffffff2d
       48875000	      4886	80003700	002a5b93	srli	x23,x20,0x2	 x20:0x0000038e x23=0x000000e3
       48885000	      4887	80003704	0067ad33	slt	x26,x15,x6	 x15:0x169e5000  x6:0x80009fc4 x26=0x00000000
       48895000	      4888	80003708	3d2b4e93	xori	x29,x22,978	 x22:0x53fff9df x29=0x53fffa0d
       48905000	      4889	8000370c	006491b3	sll	x3,x9,x6	  x9:0x80009fc4  x6:0x80009fc4  x3=0x0009fc40
       48915000	      4890	80003710	0b9fe513	ori	x10,x31,185	 x31:0xc066f000 x10=0xc066f0b9
       48925000	      4891	80003714	01e51e93	slli	x29,x10,0x1e	 x10:0xc066f0b9 x29=0x40000000
       48935000	      4892	80003718	019ad393	srli	x7,x21,0x19	 x21:0x00000000  x7=0x00000000
       48945000	      4893	8000371c	3a2d6793	ori	x15,x26,930	 x26:0x00000000 x15=0x000003a2
       48955000	      4894	80003720	ec160693	addi	x13,x12,-319	 x12:0x00000000 x13=0xfffffec1
       48965000	      4895	80003724	01605093	srli	x1,x0,0x16	  x0:0x00000000  x1=0x00000000
       48975000	      4896	80003728	00f2a033	slt	x0,x5,x15	  x5:0x80009f6c x15:0x000003a2
       48985000	      4897	8000372c	8c4a1ab7	lui	x21,0x8c4a1	 x21=0x8c4a1000
       48995000	      4898	80003730	400b5713	srai	x14,x22,0x0	 x22:0x53fff9df x14=0x53fff9df
       49005000	      4899	80003734	416adab3	sra	x21,x21,x22	 x21:0x8c4a1000 x22:0x53fff9df x21=0xffffffff
       49015000	      4900	80003738	00174863	blt	x14,x1,80003748	 x14:0x53fff9df  x1:0x00000000
       49025000	      4901	8000373c	01aa0a63	beq	x20,x26,80003750	 x20:0x0000038e x26:0x00000000
       49035000	      4902	80003740	01fa2bb3	slt	x23,x20,x31	 x20:0x0000038e x31:0xc066f000 x23=0x00000000
       49045000	      4903	80003744	02cfd663	bge	x31,x12,80003770	 x31:0xc066f000 x12:0x00000000
       49055000	      4904	80003748	024d4463	blt	x26,x4,80003770	 x26:0x00000000  x4:0xb9880000
       49065000	      4905	8000374c	0e28fb37	lui	x22,0xe28f	 x22=0x0e28f000
       49075000	      4906	80003750	03675063	bge	x14,x22,80003770	 x14:0x53fff9df x22:0x0e28f000
       49085000	      4907	00000000	00000013	addi	x0,x0,0	  x0:0x00000000
       49095000	      4908	8000376c	00000013	addi	x0,x0,0	  x0:0x00000000
       49105000	      4909	80003770	009e48b3	xor	x17,x28,x9	 x28:0x00000001  x9:0x80009fc4 x17=0x80009fc5
       49115000	      4910	80003774	d93d7e13	andi	x28,x26,-621	 x26:0x00000000 x28=0x00000000
       49125000	      4911	80003778	002ea433	slt	x8,x29,x2	 x29:0x40000000  x2:0x00000000  x8=0x00000000
       49135000	      4912	8000377c	01e31d33	sll	x26,x6,x30	  x6:0x80009fc4 x30:0x00000000 x26=0x80009fc4
       49145000	      4913	80003780	4076dfb3	sra	x31,x13,x7	 x13:0xfffffec1  x7:0x00000000 x31=0xfffffec1
       49155000	      4914	80003784	0042a303	lw	x6,4(x5)	  x5:0x80009f6c  x6=0x80000190 PA:0x80009f70
       49165000	      4915	80003788	01828293	addi	x5,x5,24	  x5:0x80009f6c  x5=0x80009f84
       49175000	      4916	8000378c	017c8533	add	x10,x25,x23	 x25:0x80000000 x23:0x00000000 x10=0x80000000
       49185000	      4917	80003790	e028f513	andi	x10,x17,-510	 x17:0x80009fc5 x10=0x80009e00
       49195000	      4918	80003794	0097df33	srl	x30,x15,x9	 x15:0x000003a2  x9:0x80009fc4 x30=0x0000003a
       49205000	      4919	80003798	00fbbc33	sltu	x24,x23,x15	 x23:0x00000000 x15:0x000003a2 x24=0x00000001
       49215000	      4920	8000379c	01c827b3	slt	x15,x16,x28	 x16:0xb9880000 x28:0x00000000 x15=0x00000001
       49225000	      4921	800037a0	ebfe8893	addi	x17,x29,-321	 x29:0x40000000 x17=0x3ffffebf
       49235000	      4922	800037a4	00030913	addi	x18,x6,0	  x6:0x80000190 x18=0x80000190
       49245000	      4923	800037a8	00090967	jalr	x18,x18,0	 x18:0x80000190 x18=0x800037a8
       49255000	      4924	00000000	00000013	addi	x0,x0,0	  x0:0x00000000
       49265000	      4925	80000190	00000013	addi	x0,x0,0	  x0:0x00000000
       49275000	      4926	80000194	00008117	auipc	x2,0x8	  x2=0x80008190
       49285000	      4927	80000198	6d410113	addi	x2,x2,1748	  x2:0x80008190  x2=0x80008864
       49295000	      4928	8000019c	00a11523	sh	x10,10(x2)	  x2:0x80008864 x10:0x80009e00 PA:0x8000886e
       49305000	      4929	800001a0	00e10303	lb	x6,14(x2)	  x2:0x80008864  x6=0xffffffe2 PA:0x80008872
       49315000	      4930	800001a4	410709b3	sub	x19,x14,x16	 x14:0x53fff9df x16:0xb9880000 x19=0x9a77f9df
       49325000	      4931	800001a8	fed10fa3	sb	x13,-1(x2)	  x2:0x80008864 x13:0xfffffec1 PA:0x80008863
       49335000	      4932	800001ac	ffc12e23	sw	x28,-4(x2)	  x2:0x80008864 x28:0x00000000 PA:0x80008860
       49345000	      4933	800001b0	01691d33	sll	x26,x18,x22	 x18:0x800037a8 x22:0x0e28f000 x26=0x800037a8
       49355000	      4934	800001b4	40558f33	sub	x30,x11,x5	 x11:0x00000000  x5:0x80009f84 x30=0x7fff607c
       49365000	      4935	800001b8	ffc12583	lw	x11,-4(x2)	  x2:0x80008864 x11=0x00000000 PA:0x80008860
       49375000	      4936	800001bc	41f983b3	sub	x7,x19,x31	 x19:0x9a77f9df x31:0xfffffec1  x7=0x9a77fb1e
       49385000	      4937	800001c0	00d11023	sh	x13,0(x2)	  x2:0x80008864 x13:0xfffffec1 PA:0x80008864
       49395000	      4938	800001c4	00b08a33	add	x20,x1,x11	  x1:0x00000000 x11:0x00000000 x20=0x00000000
       49405000	      4939	800001c8	dfedbf13	sltiu	x30,x27,-514	 x27:0xfffee620 x30=0x00000001
       49415000	      4940	800001cc	cde3e613	ori	x12,x7,-802	  x7:0x9a77fb1e x12=0xffffffde
       49425000	      4941	800001d0	ff110f03	lb	x30,-15(x2)	  x2:0x80008864 x30=0xffffffcc PA:0x80008855
       49435000	      4942	800001d4	00bad733	srl	x14,x21,x11	 x21:0xffffffff x11:0x00000000 x14=0xffffffff
       49445000	      4943	800001d8	ff414a03	lbu	x20,-12(x2)	  x2:0x80008864 x20=0x000000b2 PA:0x80008858
       49455000	      4944	800001dc	ff910923	sb	x25,-14(x2)	  x2:0x80008864 x25:0x80000000 PA:0x80008856
       49465000	      4945	800001e0	ff012683	lw	x13,-16(x2)	  x2:0x80008864 x13=0x9200ccfa PA:0x80008854
       49475000	      4946	800001e4	00210603	lb	x12,2(x2)	  x2:0x80008864 x12=0x00000040 PA:0x80008866
       49485000	      4947	800001e8	00011e03	lh	x28,0(x2)	  x2:0x80008864 x28=0xfffffec1 PA:0x80008864
       49495000	      4948	800001ec	00611623	sh	x6,12(x2)	  x2:0x80008864  x6:0xffffffe2 PA:0x80008870
       49505000	      4949	800001f0	00814703	lbu	x14,8(x2)	  x2:0x80008864 x14=0x000000d2 PA:0x8000886c
       49515000	      4950	800001f4	01cb50b3	srl	x1,x22,x28	 x22:0x0e28f000 x28:0xfffffec1  x1=0x07147800
       49525000	      4951	800001f8	01adbfb3	sltu	x31,x27,x26	 x27:0xfffee620 x26:0x800037a8 x31=0x00000000
       49535000	      4952	800001fc	00614203	lbu	x4,6(x2)	  x2:0x80008864  x4=0x0000004b PA:0x8000886a
       49545000	      4953	80000200	00d10783	lb	x15,13(x2)	  x2:0x80008864 x15=0xffffffff PA:0x80008871
       49555000	      4954	80000204	01014383	lbu	x7,16(x2)	  x2:0x80008864  x7=0x0000009e PA:0x80008874
       49565000	      4955	80000208	41e7dd93	srai	x27,x15,0x1e	 x15:0xffffffff x27=0xffffffff
       49575000	      4956	8000020c	ffd10003	lb	x0,-3(x2)	  x2:0x80008864 PA:0x80008861
       49585000	      4957	80000210	c5232393	slti	x7,x6,-942	  x6:0xffffffe2  x7=0x00000000
       49595000	      4958	80000214	e8963413	sltiu	x8,x12,-375	 x12:0x00000040  x8=0x00000001
       49605000	      4959	80000218	b27dbb93	sltiu	x23,x27,-1241	 x27:0xffffffff x23=0x00000000
       49615000	      4960	8000021c	ffa11903	lh	x18,-6(x2)	  x2:0x80008864 x18=0xffffafed PA:0x8000885e
       49625000	      4961	80000220	76c0f193	andi	x3,x1,1900	  x1:0x07147800  x3=0x00000000
       49635000	      4962	80000224	00e14a83	lbu	x21,14(x2)	  x2:0x80008864 x21=0x000000e2 PA:0x80008872
       49645000	      4963	80000228	00710203	lb	x4,7(x2)	  x2:0x80008864  x4=0x00000025 PA:0x8000886b
       49655000	      4964	8000022c	00110383	lb	x7,1(x2)	  x2:0x80008864  x7=0xfffffffe PA:0x80008865
       49665000	      4965	80000230	ffd10003	lb	x0,-3(x2)	  x2:0x80008864 PA:0x80008861
       49675000	      4966	80000234	00d10803	lb	x16,13(x2)	  x2:0x80008864 x16=0xffffffff PA:0x80008871
       49685000	      4967	80000238	012104a3	sb	x18,9(x2)	  x2:0x80008864 x18:0xffffafed PA:0x8000886d
       49695000	      4968	8000023c	ff914003	lbu	x0,-7(x2)	  x2:0x80008864 PA:0x8000885d
       49705000	      4969	80000240	41f05713	srai	x14,x0,0x1f	  x0:0x00000000 x14=0x00000000
       49715000	      4970	80000244	00004f17	auipc	x30,0x4	 x30=0x80004240
       49725000	      4971	80000248	1c4f0f13	addi	x30,x30,452	 x30:0x80004240 x30=0x80004404
       49735000	      4972	8000024c	404001b3	sub	x3,x0,x4	  x0:0x00000000  x4:0x00000025  x3=0xffffffdb
       49745000	      4973	80000250	00461c33	sll	x24,x12,x4	 x12:0x00000040  x4:0x00000025 x24=0x00000800
       49755000	      4974	80000254	01873433	sltu	x8,x14,x24	 x14:0x00000000 x24:0x00000800  x8=0x00000001
       49765000	      4975	80000258	010b1833	sll	x16,x22,x16	 x22:0x0e28f000 x16:0xffffffff x16=0x00000000
       49775000	      4976	8000025c	01d6a233	slt	x4,x13,x29	 x13:0x9200ccfa x29:0x40000000  x4=0x00000001
       49785000	      4977	80000260	1ddf0f13	addi	x30,x30,477	 x30:0x80004404 x30=0x800045e1
       49795000	      4978	80000264	00cff8b3	and	x17,x31,x12	 x31:0x00000000 x12:0x00000040 x17=0x00000000
       49805000	      4979	80000268	00a50033	add	x0,x10,x10	 x10:0x80009e00 x10:0x80009e00
       49815000	      4980	8000026c	00d29663	bne	x5,x13,80000278	  x5:0x80009f84 x13:0x9200ccfa
       49825000	      4981	00000000	00000013	addi	x0,x0,0	  x0:0x00000000
       49835000	      4982	80000274	00000013	addi	x0,x0,0	  x0:0x00000000
       49845000	      4983	80000278	e23f0367	jalr	x6,x30,-477	 x30:0x800045e1  x6=0x80000278
       49855000	      4984	00000000	00000013	addi	x0,x0,0	  x0:0x00000000
       49865000	      4985	80004404	00000013	addi	x0,x0,0	  x0:0x00000000
       49875000	      4986	80004408	00325133	srl	x2,x4,x3	  x4:0x00000001  x3:0xffffffdb  x2=0x00000000
       49885000	      4987	8000440c	012f1793	slli	x15,x30,0x12	 x30:0x800045e1 x15=0x17840000
       49895000	      4988	80004410	5d40f797	auipc	x15,0x5d40f	 x15=0xdd41340c
       49905000	      4989	80004414	0e4ee213	ori	x4,x29,228	 x29:0x40000000  x4=0x400000e4
       49915000	      4990	80004418	00000013	addi	x0,x0,0	  x0:0x00000000
       49925000	      4991	8000441c	001cd633	srl	x12,x25,x1	 x25:0x80000000  x1:0x07147800 x12=0x80000000
       49935000	      4992	80004420	01e2d463	bge	x5,x30,80004428	  x5:0x80009f84 x30:0x800045e1
       49945000	      4993	00000000	00000013	addi	x0,x0,0	  x0:0x00000000
       49955000	      4994	80004424	00000013	addi	x0,x0,0	  x0:0x00000000
       49965000	      4995	80004428	ff828293	addi	x5,x5,-8	  x5:0x80009f84  x5=0x80009f7c
       49975000	      4996	8000442c	30194e13	xori	x28,x18,769	 x18:0xffffafed x28=0xffffacec
       49985000	      4997	80004430	0062a223	sw	x6,4(x5)	  x5:0x80009f7c  x6:0x80000278 PA:0x80009f80
       49995000	      4998	80004434	00d31213	slli	x4,x6,0xd	  x6:0x80000278  x4=0x004f0000
       50005000	      4999	80004438	0137aab3	slt	x21,x15,x19	 x15:0xdd41340c x19:0x9a77f9df x21=0x00000000
       50015000	      5000	8000443c	008c9033	sll	x0,x25,x8	 x25:0x80000000  x8:0x00000001
       50025000	      5001	80004440	0145dbb3	srl	x23,x11,x20	 x11:0x00000000 x20:0x000000b2 x23=0x00000000
       50035000	      5002	80004444	00000013	addi	x0,x0,0	  x0:0x00000000
       50045000	      5003	80004448	013f9913	slli	x18,x31,0x13	 x31:0x00000000 x18=0x00000000
       50055000	      5004	8000444c	03c56263	bltu	x10,x28,80004470	 x10:0x80009e00 x28:0xffffacec
       50065000	      5005	00000000	00000013	addi	x0,x0,0	  x0:0x00000000
       50075000	      5006	8000446c	00000013	addi	x0,x0,0	  x0:0x00000000
       50085000	      5007	80004470	00b26233	or	x4,x4,x11	  x4:0x004f0000 x11:0x00000000  x4=0x004f0000
       50095000	      5008	80004474	0ad26463	bltu	x4,x13,8000451c	  x4:0x004f0000 x13:0x9200ccfa
       50105000	      5009	00000000	00000013	addi	x0,x0,0	  x0:0x00000000
       50115000	      5010	80004518	00000013	addi	x0,x0,0	  x0:0x00000000
       50125000	      5011	8000451c	1f197237	lui	x4,0x1f197	  x4=0x1f197000
       50135000	      5012	80004520	41975f93	srai	x31,x14,0x19	 x14:0x00000000 x31=0x00000000
       50145000	      5013	80004524	00acc7b3	xor	x15,x25,x10	 x25:0x80000000 x10:0x80009e00 x15=0x00009e00
       50155000	      5014	80004528	47620a97	auipc	x21,0x47620	 x21=0xc7624524
       50165000	      5015	8000452c	049a5263	bge	x20,x9,80004570	 x20:0x000000b2  x9:0x80009fc4
       50175000	      5016	00000000	00000013	addi	x0,x0,0	  x0:0x00000000
       50185000	      5017	8000456c	00000013	addi	x0,x0,0	  x0:0x00000000
       50195000	      5018	80004570	c121b193	sltiu	x3,x3,-1006	  x3:0xffffffdb  x3=0x00000000
       50205000	      5019	80004574	4f028317	auipc	x6,0x4f028	  x6=0xcf02c570
       50215000	      5020	80004578	7a25b893	sltiu	x17,x11,1954	 x11:0x00000000 x17=0x00000001
       50225000	      5021	8000457c	a43e7b13	andi	x22,x28,-1469	 x28:0xffffacec x22=0xffffa840
       50235000	      5022	80004580	01bf9f33	sll	x30,x31,x27	 x31:0x00000000 x27:0xffffffff x30=0x00000000
       50245000	      5023	80004584	01db7db3	and	x27,x22,x29	 x22:0xffffa840 x29:0x40000000 x27=0x40000000
       50255000	      5024	80004588	40af08b3	sub	x17,x30,x10	 x30:0x00000000 x10:0x80009e00 x17=0x7fff6200
       50265000	      5025	8000458c	413786b3	sub	x13,x15,x19	 x15:0x00009e00 x19:0x9a77f9df x13=0x6588a421
       50275000	      5026	80004590	01c74bb3	xor	x23,x14,x28	 x14:0x00000000 x28:0xffffacec x23=0xffffacec
       50285000	      5027	80004594	01cb9bb3	sll	x23,x23,x28	 x23:0xffffacec x28:0xffffacec x23=0xfacec000
       50295000	      5028	80004598	01d2c233	xor	x4,x5,x29	  x5:0x80009f7c x29:0x40000000  x4=0xc0009f7c
       50305000	      5029	8000459c	000fde93	srli	x29,x31,0x0	 x31:0x00000000 x29=0x00000000
       50315000	      5030	800045a0	5af64013	xori	x0,x12,1455	 x12:0x80000000
       50325000	      5031	800045a4	56817093	andi	x1,x2,1384	  x2:0x00000000  x1=0x00000000
       50335000	      5032	800045a8	53e34d93	xori	x27,x6,1342	  x6:0xcf02c570 x27=0xcf02c04e
       50345000	      5033	800045ac	58106137	lui	x2,0x58106	  x2=0x58106000
       50355000	      5034	800045b0	4babf713	andi	x14,x23,1210	 x23:0xfacec000 x14=0x00000000
       50365000	      5035	800045b4	860c8913	addi	x18,x25,-1952	 x25:0x80000000 x18=0x7ffff860
       50375000	      5036	800045b8	f459a893	slti	x17,x19,-187	 x19:0x9a77f9df x17=0x00000001
       50385000	      5037	800045bc	04bcd463	bge	x25,x11,80004604	 x25:0x80000000 x11:0x00000000
       50395000	      5038	800045c0	01a1b833	sltu	x16,x3,x26	  x3:0x00000000 x26:0x800037a8 x16=0x00000001
       50405000	      5039	800045c4	012356b3	srl	x13,x6,x18	  x6:0xcf02c570 x18:0x7ffff860 x13=0xcf02c570
       50415000	      5040	800045c8	01c751b3	srl	x3,x14,x28	 x14:0x00000000 x28:0xffffacec  x3=0x00000000
       50425000	      5041	800045cc	00ffa6b3	slt	x13,x31,x15	 x31:0x00000000 x15:0x00009e00 x13=0x00000001
       50435000	      5042	800045d0	0079e3b3	or	x7,x19,x7	 x19:0x9a77f9df  x7:0xfffffffe  x7=0xffffffff
       50445000	      5043	800045d4	025e9863	bne	x29,x5,80004604	 x29:0x00000000  x5:0x80009f7c
       50455000	      5044	00000000	00000013	addi	x0,x0,0	  x0:0x00000000
       50465000	      5045	80004600	00000013	addi	x0,x0,0	  x0:0x00000000
       50475000	      5046	80004604	01c00463	beq	x0,x28,8000460c	  x0:0x00000000 x28:0xffffacec
       50485000	      5047	80004608	009d5a33	srl	x20,x26,x9	 x26:0x800037a8  x9:0x80009fc4 x20=0x0800037a
       50495000	      5048	8000460c	416fde93	srai	x29,x31,0x16	 x31:0x00000000 x29=0x00000000
       50505000	      5049	80004610	00465193	srli	x3,x12,0x4	 x12:0x80000000  x3=0x08000000
       50515000	      5050	80004614	0204e463	bltu	x9,x0,8000463c	  x9:0x80009fc4  x0:0x00000000
       50525000	      5051	80004618	02468c63	beq	x13,x4,80004650	 x13:0x00000001  x4:0xc0009f7c
       50535000	      5052	8000461c	04a08663	beq	x1,x10,80004668	  x1:0x00000000 x10:0x80009e00
       50545000	      5053	80004620	0002d133	srl	x2,x5,x0	  x5:0x80009f7c  x0:0x00000000  x2=0x80009f7c
       50555000	      5054	80004624	32250537	lui	x10,0x32250	 x10=0x32250000
       50565000	      5055	80004628	56fff593	andi	x11,x31,1391	 x31:0x00000000 x11=0x00000000
       50575000	      5056	8000462c	a3194e93	xori	x29,x18,-1487	 x18:0x7ffff860 x29=0x80000251
       50585000	      5057	80004630	018b1513	slli	x10,x22,0x18	 x22:0xffffa840 x10=0x40000000
       50595000	      5058	80004634	4439be93	sltiu	x29,x19,1091	 x19:0x9a77f9df x29=0x00000000
       50605000	      5059	80004638	01a18463	beq	x3,x26,80004640	  x3:0x08000000 x26:0x800037a8
       50615000	      5060	8000463c	015a16b3	sll	x13,x20,x21	 x20:0x0800037a x21:0xc7624524 x13=0x800037a0
       50625000	      5061	80004640	011329b3	slt	x19,x6,x17	  x6:0xcf02c570 x17:0x00000001 x19=0x00000001
       50635000	      5062	80004644	036bfc63	bgeu	x23,x22,8000467c	 x23:0xfacec000 x22:0xffffa840
       50645000	      5063	80004648	02715463	bge	x2,x7,80004670	  x2:0x80009f7c  x7:0xffffffff
       50655000	      5064	8000464c	037aea63	bltu	x21,x23,80004680	 x21:0xc7624524 x23:0xfacec000
       50665000	      5065	00000000	00000013	addi	x0,x0,0	  x0:0x00000000
       50675000	      5066	8000467c	00000013	addi	x0,x0,0	  x0:0x00000000
       50685000	      5067	80004680	00aecd33	xor	x26,x29,x10	 x29:0x00000000 x10:0x40000000 x26=0x40000000
       50695000	      5068	80004684	0098c463	blt	x17,x9,8000468c	 x17:0x00000001  x9:0x80009fc4
       50705000	      5069	80004688	01b10d33	add	x26,x2,x27	  x2:0x80009f7c x27:0xcf02c04e x26=0x4f035fca
       50715000	      5070	8000468c	016897b3	sll	x15,x17,x22	 x17:0x00000001 x22:0xffffa840 x15=0x00000001
       50725000	      5071	80004690	419c8db3	sub	x27,x25,x25	 x25:0x80000000 x25:0x80000000 x27=0x00000000
       50735000	      5072	80004694	607bfd13	andi	x26,x23,1543	 x23:0xfacec000 x26=0x00000000
       50745000	      5073	80004698	00000013	addi	x0,x0,0	  x0:0x00000000
       50755000	      5074	8000469c	008f6733	or	x14,x30,x8	 x30:0x00000000  x8:0x00000001 x14=0x00000001
       50765000	      5075	800046a0	1789de97	auipc	x29,0x1789d	 x29=0x978a169c
       50775000	      5076	800046a4	001597b3	sll	x15,x11,x1	 x11:0x00000000  x1:0x00000000 x15=0x00000000
       50785000	      5077	800046a8	07d27f13	andi	x30,x4,125	  x4:0xc0009f7c x30=0x0000007c
       50795000	      5078	800046ac	f2d47113	andi	x2,x8,-211	  x8:0x00000001  x2=0x00000001
       50805000	      5079	800046b0	0169eb33	or	x22,x19,x22	 x19:0x00000001 x22:0xffffa840 x22=0xffffa841
       50815000	      5080	800046b4	00f96e63	bltu	x18,x15,800046d0	 x18:0x7ffff860 x15:0x00000000
       50825000	      5081	800046b8	01569693	slli	x13,x13,0x15	 x13:0x800037a0 x13=0xf4000000
       50835000	      5082	800046bc	40e85f93	srai	x31,x16,0xe	 x16:0x00000001 x31=0x00000000
       50845000	      5083	800046c0	4de6a817	auipc	x16,0x4de6a	 x16=0xcde6e6bc
       50855000	      5084	800046c4	00c20263	beq	x4,x12,800046c8	  x4:0xc0009f7c x12:0x80000000
       50865000	      5085	800046c8	89e0e093	ori	x1,x1,-1890	  x1:0x00000000  x1=0xfffff89e
       50875000	      5086	800046cc	01bff6b3	and	x13,x31,x27	 x31:0x00000000 x27:0x00000000 x13=0x00000000
       50885000	      5087	800046d0	0867a593	slti	x11,x15,134	 x15:0x00000000 x11=0x00000001
       50895000	      5088	800046d4	41f9d133	sra	x2,x19,x31	 x19:0x00000001 x31:0x00000000  x2=0x00000001
       50905000	      5089	800046d8	00bc5e33	srl	x28,x24,x11	 x24:0x00000800 x11:0x00000001 x28=0x00000400
       50915000	      5090	800046dc	291f0937	lui	x18,0x291f0	 x18=0x291f0000
       50925000	      5091	800046e0	011d7e33	and	x28,x26,x17	 x26:0x00000000 x17:0x00000001 x28=0x00000000
       50935000	      5092	800046e4	dce67f13	andi	x30,x12,-562	 x12:0x80000000 x30=0x80000000
       50945000	      5093	800046e8	003c9d13	slli	x26,x25,0x3	 x25:0x80000000 x26=0x00000000
       50955000	      5094	800046ec	0042a303	lw	x6,4(x5)	  x5:0x80009f7c  x6=0x80000278 PA:0x80009f80
       50965000	      5095	800046f0	417c5513	srai	x10,x24,0x17	 x24:0x00000800 x10=0x00000000
       50975000	      5096	800046f4	00828293	addi	x5,x5,8	  x5:0x80009f7c  x5=0x80009f84
       50985000	      5097	800046f8	00000013	addi	x0,x0,0	  x0:0x00000000
       50995000	      5098	800046fc	004a5013	srli	x0,x20,0x4	 x20:0x0800037a
       51005000	      5099	80004700	00130e93	addi	x29,x6,1	  x6:0x80000278 x29=0x80000279
       51015000	      5100	80004704	000e8ee7	jalr	x29,x29,0	 x29:0x80000279 x29=0x80004704
       51025000	      5101	00000000	00000013	addi	x0,x0,0	  x0:0x00000000
       51035000	      5102	80000278	00000013	addi	x0,x0,0	  x0:0x00000000
       51045000	      5103	8000027c	51ebe113	ori	x2,x23,1310	 x23:0xfacec000  x2=0xfacec51e
       51055000	      5104	80000280	40410733	sub	x14,x2,x4	  x2:0xfacec51e  x4:0xc0009f7c x14=0x3ace25a2
       51065000	      5105	80000284	41ee8333	sub	x6,x29,x30	 x29:0x80004704 x30:0x80000000  x6=0x00004704
       51075000	      5106	80000288	11253013	sltiu	x0,x10,274	 x10:0x00000000
       51085000	      5107	8000028c	0024e863	bltu	x9,x2,8000029c	  x9:0x80009fc4  x2:0xfacec51e
       51095000	      5108	00000000	00000013	addi	x0,x0,0	  x0:0x00000000
       51105000	      5109	80000298	00000013	addi	x0,x0,0	  x0:0x00000000
       51115000	      5110	8000029c	73e45c37	lui	x24,0x73e45	 x24=0x73e45000
       51125000	      5111	800002a0	011891b3	sll	x3,x17,x17	 x17:0x00000001 x17:0x00000001  x3=0x00000002
       51135000	      5112	800002a4	0176e263	bltu	x13,x23,800002a8	 x13:0x00000000 x23:0xfacec000
       51145000	      5113	00000000	00000013	addi	x0,x0,0	  x0:0x00000000
       51155000	      5114	800002a4	00000013	addi	x0,x0,0	  x0:0x00000000
       51165000	      5115	800002a8	869bf913	andi	x18,x23,-1943	 x23:0xfacec000 x18=0xfacec000
       51175000	      5116	800002ac	0075f463	bgeu	x11,x7,800002b4	 x11:0x00000001  x7:0xffffffff
       51185000	      5117	800002b0	004bd263	bge	x23,x4,800002b4	 x23:0xfacec000  x4:0xc0009f7c
       51195000	      5118	00000000	00000013	addi	x0,x0,0	  x0:0x00000000
       51205000	      5119	800002b0	00000013	addi	x0,x0,0	  x0:0x00000000
       51215000	      5120	800002b4	40cdd8b3	sra	x17,x27,x12	 x27:0x00000000 x12:0x80000000 x17=0x00000000
       51225000	      5121	800002b8	00000c97	auipc	x25,0x0	 x25=0x800002b4
       51235000	      5122	800002bc	00cc8c93	addi	x25,x25,12	 x25:0x800002b4 x25=0x800002c0
       51245000	      5123	800002c0	000c8067	jalr	x0,x25,0	 x25:0x800002c0
       51255000	      5124	00000000	00000013	addi	x0,x0,0	  x0:0x00000000
       51265000	      5125	800002c0	00000013	addi	x0,x0,0	  x0:0x00000000
       51275000	      5126	800002c4	00100193	addi	x3,x0,1	  x0:0x00000000  x3=0x00000001
       51285000	      5127	800002c8	00000073	ecall	
       51295000	      5128	800002cc	41ba5713	srai	x14,x20,0x1b	 x20:0x0800037a x14=0x00000001
