		Time			Cycle	PC		Insn	Decoded instruction	Register and memory contents
          65000	         5	80000004	00000293	addi	x5,x0,0	  x0:0x00000000  x5=0x00000000
          75000	         6	80000008	00000313	addi	x6,x0,0	  x0:0x00000000  x6=0x00000000
          85000	         7	8000000c	00628263	beq	x5,x6,80000010	  x5:0x00000000  x6:0x00000000
          95000	         8	00000000	00000013	addi	x0,x0,0	  x0:0x00000000
         105000	         9	8000000c	00000013	addi	x0,x0,0	  x0:0x00000000
         115000	        10	80000010	00000a17	auipc	x20,0x0	 x20=0x8000000c
         125000	        11	80000014	00ca0a13	addi	x20,x20,12	 x20:0x8000000c x20=0x80000018
         135000	        12	80000018	000a0067	jalr	x0,x20,0	 x20:0x80000018
         145000	        13	00000000	00000013	addi	x0,x0,0	  x0:0x00000000
         155000	        14	80000018	00000013	addi	x0,x0,0	  x0:0x00000000
         165000	        15	8000001c	40000837	lui	x16,0x40000	 x16=0x40000000
         175000	        16	80000020	10080813	addi	x16,x16,256	 x16:0x40000000 x16=0x40000100
         185000	        17	80000024	00000013	addi	x0,x0,0	  x0:0x00000000
         195000	        18	80000028	0000a717	auipc	x14,0xa	 x14=0x8000a024
         205000	        19	8000002c	fa070713	addi	x14,x14,-96	 x14:0x8000a024 x14=0x80009fc4
         215000	        20	80000030	00007817	auipc	x16,0x7	 x16=0x8000702c
         225000	        21	80000034	54480813	addi	x16,x16,1348	 x16:0x8000702c x16=0x80007570
         235000	        22	80000038	00186813	ori	x16,x16,1	 x16:0x80007570 x16=0x80007571
         245000	        23	8000003c	00000013	addi	x0,x0,0	  x0:0x00000000
         255000	        24	80000040	00000817	auipc	x16,0x0	 x16=0x8000003c
         265000	        25	80000044	02080813	addi	x16,x16,32	 x16:0x8000003c x16=0x8000005c
         275000	        26	80000048	00000013	addi	x0,x0,0	  x0:0x00000000
         285000	        27	8000004c	00000013	addi	x0,x0,0	  x0:0x00000000
         295000	        28	80000050	00002837	lui	x16,0x2	 x16=0x00002000
         305000	        29	80000054	80080813	addi	x16,x16,-2048	 x16:0x00002000 x16=0x00001800
         315000	        30	80000058	00000013	addi	x0,x0,0	  x0:0x00000000
         325000	        31	8000005c	00000013	addi	x0,x0,0	  x0:0x00000000
         335000	        32	80000060	e86eb037	lui	x0,0xe86eb	
         345000	        33	80000064	71e00013	addi	x0,x0,1822	  x0:0x00000000
         355000	        34	80000068	2def00b7	lui	x1,0x2def0	  x1=0x2def0000
         365000	        35	8000006c	9d908093	addi	x1,x1,-1575	  x1:0x2def0000  x1=0x2deef9d9
         375000	        36	80000070	80000137	lui	x2,0x80000	  x2=0x80000000
         385000	        37	80000074	00000193	addi	x3,x0,0	  x0:0x00000000  x3=0x00000000
         395000	        38	80000078	246ed237	lui	x4,0x246ed	  x4=0x246ed000
         405000	        39	8000007c	b0e20213	addi	x4,x4,-1266	  x4:0x246ed000  x4=0x246ecb0e
         415000	        40	80000080	00000293	addi	x5,x0,0	  x0:0x00000000  x5=0x00000000
         425000	        41	80000084	80000337	lui	x6,0x80000	  x6=0x80000000
         435000	        42	80000088	8bd013b7	lui	x7,0x8bd01	  x7=0x8bd01000
         445000	        43	8000008c	0e438393	addi	x7,x7,228	  x7:0x8bd01000  x7=0x8bd010e4
         455000	        44	80000090	f9994437	lui	x8,0xf9994	  x8=0xf9994000
         465000	        45	80000094	09040413	addi	x8,x8,144	  x8:0xf9994000  x8=0xf9994090
         475000	        46	80000098	00000493	addi	x9,x0,0	  x0:0x00000000  x9=0x00000000
         485000	        47	8000009c	a3f69537	lui	x10,0xa3f69	 x10=0xa3f69000
         495000	        48	800000a0	eb950513	addi	x10,x10,-327	 x10:0xa3f69000 x10=0xa3f68eb9
         505000	        49	800000a4	00900593	addi	x11,x0,9	  x0:0x00000000 x11=0x00000009
         515000	        50	800000a8	00000613	addi	x12,x0,0	  x0:0x00000000 x12=0x00000000
         525000	        51	800000ac	381086b7	lui	x13,0x38108	 x13=0x38108000
         535000	        52	800000b0	85968693	addi	x13,x13,-1959	 x13:0x38108000 x13=0x38107859
         545000	        53	800000b4	f8d327b7	lui	x15,0xf8d32	 x15=0xf8d32000
         555000	        54	800000b8	a8a78793	addi	x15,x15,-1398	 x15:0xf8d32000 x15=0xf8d31a8a
         565000	        55	800000bc	4b558837	lui	x16,0x4b558	 x16=0x4b558000
         575000	        56	800000c0	03480813	addi	x16,x16,52	 x16:0x4b558000 x16=0x4b558034
         585000	        57	800000c4	00500893	addi	x17,x0,5	  x0:0x00000000 x17=0x00000005
         595000	        58	800000c8	f2a38937	lui	x18,0xf2a38	 x18=0xf2a38000
         605000	        59	800000cc	be690913	addi	x18,x18,-1050	 x18:0xf2a38000 x18=0xf2a37be6
         615000	        60	800000d0	bb6639b7	lui	x19,0xbb663	 x19=0xbb663000
         625000	        61	800000d4	e6598993	addi	x19,x19,-411	 x19:0xbb663000 x19=0xbb662e65
         635000	        62	800000d8	e4e90a37	lui	x20,0xe4e90	 x20=0xe4e90000
         645000	        63	800000dc	541a0a13	addi	x20,x20,1345	 x20:0xe4e90000 x20=0xe4e90541
         655000	        64	800000e0	00300a93	addi	x21,x0,3	  x0:0x00000000 x21=0x00000003
         665000	        65	800000e4	00800b13	addi	x22,x0,8	  x0:0x00000000 x22=0x00000008
         675000	        66	800000e8	317adbb7	lui	x23,0x317ad	 x23=0x317ad000
         685000	        67	800000ec	d2ab8b93	addi	x23,x23,-726	 x23:0x317ad000 x23=0x317acd2a
         695000	        68	800000f0	00400c13	addi	x24,x0,4	  x0:0x00000000 x24=0x00000004
         705000	        69	800000f4	f2a72cb7	lui	x25,0xf2a72	 x25=0xf2a72000
         715000	        70	800000f8	00fc8c93	addi	x25,x25,15	 x25:0xf2a72000 x25=0xf2a7200f
         725000	        71	800000fc	00000d13	addi	x26,x0,0	  x0:0x00000000 x26=0x00000000
         735000	        72	80000100	80000db7	lui	x27,0x80000	 x27=0x80000000
         745000	        73	80000104	93a34e37	lui	x28,0x93a34	 x28=0x93a34000
         755000	        74	80000108	5a7e0e13	addi	x28,x28,1447	 x28:0x93a34000 x28=0x93a345a7
         765000	        75	8000010c	80000eb7	lui	x29,0x80000	 x29=0x80000000
         775000	        76	80000110	00000f13	addi	x30,x0,0	  x0:0x00000000 x30=0x00000000
         785000	        77	80000114	0000af97	auipc	x31,0xa	 x31=0x8000a110
         795000	        78	80000118	e74f8f93	addi	x31,x31,-396	 x31:0x8000a110 x31=0x80009f84
         805000	        79	8000011c	00008297	auipc	x5,0x8	  x5=0x80008118
         815000	        80	80000120	5a628293	addi	x5,x5,1446	  x5:0x80008118  x5=0x800086be
         825000	        81	80000124	015ea7b3	slt	x15,x29,x21	 x29:0x80000000 x21:0x00000003 x15=0x00000001
         835000	        82	80000128	00413933	sltu	x18,x2,x4	  x2:0x80000000  x4:0x246ecb0e x18=0x00000000
         845000	        83	8000012c	9264c113	xori	x2,x9,-1754	  x9:0x00000000  x2=0xfffff926
         855000	        84	80000130	d5029183	lh	x3,-688(x5)	  x5:0x800086be  x3=0x00007e95 PA:0x8000840e
         865000	        85	80000134	ffb2ce03	lbu	x28,-5(x5)	  x5:0x800086be x28=0x0000006e PA:0x800086b9
         875000	        86	80000138	0261fbb7	lui	x23,0x261f	 x23=0x0261f000
         885000	        87	8000013c	02428483	lb	x9,36(x5)	  x5:0x800086be  x9=0x0000000f PA:0x800086e2
         895000	        88	80000140	83378e93	addi	x29,x15,-1997	 x15:0x00000001 x29=0xfffff834
         905000	        89	80000144	01b98433	add	x8,x19,x27	 x19:0xbb662e65 x27:0x80000000  x8=0x3b662e65
         915000	        90	80000148	bd804413	xori	x8,x0,-1064	  x0:0x00000000  x8=0xfffffbd8
         925000	        91	8000014c	4f6480b7	lui	x1,0x4f648	  x1=0x4f648000
         935000	        92	80000150	00145e13	srli	x28,x8,0x1	  x8:0xfffffbd8 x28=0x7ffffdec
         945000	        93	80000154	537351b7	lui	x3,0x53735	  x3=0x53735000
         955000	        94	80000158	401cd4b3	sra	x9,x25,x1	 x25:0xf2a7200f  x1:0x4f648000  x9=0xf2a7200f
         965000	        95	8000015c	413a5e13	srai	x28,x20,0x13	 x20:0xe4e90541 x28=0xfffffc9d
         975000	        96	80000160	4012d613	srai	x12,x5,0x1	  x5:0x800086be x12=0xc000435f
         985000	        97	80000164	a7329923	sh	x19,-1422(x5)	  x5:0x800086be x19:0xbb662e65 PA:0x80008130
         995000	        98	80000168	001ed013	srli	x0,x29,0x1	 x29:0xfffff834
        1005000	        99	8000016c	00928303	lb	x6,9(x5)	  x5:0x800086be  x6=0x00000063 PA:0x800086c7
        1015000	       100	80000170	e63ef893	andi	x17,x29,-413	 x29:0xfffff834 x17=0xfffff820
        1025000	       101	80000174	01b817b3	sll	x15,x16,x27	 x16:0x4b558034 x27:0x80000000 x15=0x4b558034
        1035000	       102	80000178	0912cf03	lbu	x30,145(x5)	  x5:0x800086be x30=0x00000044 PA:0x8000874f
        1045000	       103	8000017c	cab28983	lb	x19,-853(x5)	  x5:0x800086be x19=0x0000005d PA:0x80008369
        1055000	       104	80000180	28b6a013	slti	x0,x13,651	 x13:0x38107859
        1065000	       105	80000184	0e4eb813	sltiu	x16,x29,228	 x29:0xfffff834 x16=0x00000000
        1075000	       106	80000188	4e250313	addi	x6,x10,1250	 x10:0xa3f68eb9  x6=0xa3f6939b
        1085000	       107	8000018c	ed928183	lb	x3,-295(x5)	  x5:0x800086be  x3=0x0000005d PA:0x80008597
        1095000	       108	80000190	f4b28523	sb	x11,-182(x5)	  x5:0x800086be x11:0x00000009 PA:0x80008608
        1105000	       109	80000194	c922db03	lhu	x22,-878(x5)	  x5:0x800086be x22=0x0000ddf7 PA:0x80008350
        1115000	       110	80000198	00364033	xor	x0,x12,x3	 x12:0xc000435f  x3:0x0000005d
        1125000	       111	8000019c	bf053613	sltiu	x12,x10,-1040	 x10:0xa3f68eb9 x12=0x00000001
        1135000	       112	800001a0	fcb28583	lb	x11,-53(x5)	  x5:0x800086be x11=0x0000006d PA:0x80008689
        1145000	       113	800001a4	00f31663	bne	x6,x15,800001b0	  x6:0xa3f6939b x15:0x4b558034
        1155000	       114	00000000	00000013	addi	x0,x0,0	  x0:0x00000000
        1165000	       115	800001ac	00000013	addi	x0,x0,0	  x0:0x00000000
        1175000	       116	800001b0	005eccb3	xor	x25,x29,x5	 x29:0xfffff834  x5:0x800086be x25=0x7fff7e8a
        1185000	       117	800001b4	bc2286b7	lui	x13,0xbc228	 x13=0xbc228000
        1195000	       118	800001b8	06857a63	bgeu	x10,x8,8000022c	 x10:0xa3f68eb9  x8:0xfffffbd8
        1205000	       119	800001bc	47f63697	auipc	x13,0x47f63	 x13=0xc7f631b8
        1215000	       120	800001c0	417d8f33	sub	x30,x27,x23	 x27:0x80000000 x23:0x0261f000 x30=0x7d9e1000
        1225000	       121	800001c4	b2966c93	ori	x25,x12,-1239	 x12:0x00000001 x25=0xfffffb29
        1235000	       122	800001c8	e35ca493	slti	x9,x25,-459	 x25:0xfffffb29  x9=0x00000001
        1245000	       123	800001cc	01563ab3	sltu	x21,x12,x21	 x12:0x00000001 x21:0x00000003 x21=0x00000001
        1255000	       124	800001d0	00a3bab3	sltu	x21,x7,x10	  x7:0x8bd010e4 x10:0xa3f68eb9 x21=0x00000001
        1265000	       125	800001d4	00000e17	auipc	x28,0x0	 x28=0x800001d0
        1275000	       126	800001d8	3a8e0e13	addi	x28,x28,936	 x28:0x800001d0 x28=0x80000578
        1285000	       127	800001dc	c8fe0e13	addi	x28,x28,-881	 x28:0x80000578 x28=0x80000207
        1295000	       128	800001e0	406b5933	sra	x18,x22,x6	 x22:0x0000ddf7  x6:0xa3f6939b x18=0x00000000
        1305000	       129	800001e4	01cc8663	beq	x25,x28,800001f0	 x25:0xfffffb29 x28:0x80000207
        1315000	       130	800001e8	006c9eb3	sll	x29,x25,x6	 x25:0xfffffb29  x6:0xa3f6939b x29=0x48000000
        1325000	       131	800001ec	00ab77b3	and	x15,x22,x10	 x22:0x0000ddf7 x10:0xa3f68eb9 x15=0x00008cb1
        1335000	       132	800001f0	372e02e7	jalr	x5,x28,882	 x28:0x80000207  x5=0x800001f0
        1345000	       133	00000000	00000013	addi	x0,x0,0	  x0:0x00000000
        1355000	       134	80000578	00000013	addi	x0,x0,0	  x0:0x00000000
        1365000	       135	8000057c	014cfab3	and	x21,x25,x20	 x25:0xfffffb29 x20:0xe4e90541 x21=0xe4e90101
        1375000	       136	80000580	00456263	bltu	x10,x4,80000584	 x10:0xa3f68eb9  x4:0x246ecb0e
        1385000	       137	80000584	fdcf8f93	addi	x31,x31,-36	 x31:0x80009f84 x31=0x80009f60
        1395000	       138	80000588	000294b3	sll	x9,x5,x0	  x5:0x800001f0  x0:0x00000000  x9=0x800001f0
        1405000	       139	8000058c	01264433	xor	x8,x12,x18	 x12:0x00000001 x18:0x00000000  x8=0x00000001
        1415000	       140	80000590	01d7de93	srli	x29,x15,0x1d	 x15:0x00008cb1 x29=0x00000000
        1425000	       141	80000594	005fa223	sw	x5,4(x31)	 x31:0x80009f60  x5:0x800001f0 PA:0x80009f64
        1435000	       142	80000598	1763f013	andi	x0,x7,374	  x7:0x8bd010e4
        1445000	       143	8000059c	00000013	addi	x0,x0,0	  x0:0x00000000
        1455000	       144	800005a0	00038533	add	x10,x7,x0	  x7:0x8bd010e4  x0:0x00000000 x10=0x8bd010e4
        1465000	       145	800005a4	ee2e7097	auipc	x1,0xee2e7	  x1=0x6e2e75a0
        1475000	       146	800005a8	00000a97	auipc	x21,0x0	 x21=0x800005a4
        1485000	       147	800005ac	f00a8a93	addi	x21,x21,-256	 x21:0x800005a4 x21=0x800004a4
        1495000	       148	800005b0	41a1de93	srai	x29,x3,0x1a	  x3:0x0000005d x29=0x00000000
        1505000	       149	800005b4	0086d613	srli	x12,x13,0x8	 x13:0xc7f631b8 x12=0x00c7f631
        1515000	       150	800005b8	e548c193	xori	x3,x17,-428	 x17:0xfffff820  x3=0x00000674
        1525000	       151	800005bc	4ecd8c93	addi	x25,x27,1260	 x27:0x80000000 x25=0x800004ec
        1535000	       152	800005c0	2494a513	slti	x10,x9,585	  x9:0x800001f0 x10=0x00000001
        1545000	       153	800005c4	00da8a93	addi	x21,x21,13	 x21:0x800004a4 x21=0x800004b1
        1555000	       154	800005c8	ee78b413	sltiu	x8,x17,-281	 x17:0xfffff820  x8=0x00000001
        1565000	       155	800005cc	000947b3	xor	x15,x18,x0	 x18:0x00000000  x0:0x00000000 x15=0x00000000
        1575000	       156	800005d0	003d2c33	slt	x24,x26,x3	 x26:0x00000000  x3:0x00000674 x24=0x00000001
        1585000	       157	800005d4	ff4a82e7	jalr	x5,x21,-12	 x21:0x800004b1  x5=0x800005d4
        1595000	       158	00000000	00000013	addi	x0,x0,0	  x0:0x00000000
        1605000	       159	800004a4	00000013	addi	x0,x0,0	  x0:0x00000000
        1615000	       160	800004a8	22afcd17	auipc	x26,0x22afc	 x26=0xa2afc4a4
        1625000	       161	800004ac	01f6d663	bge	x13,x31,800004b8	 x13:0xc7f631b8 x31:0x80009f60
        1635000	       162	00000000	00000013	addi	x0,x0,0	  x0:0x00000000
        1645000	       163	800004b4	00000013	addi	x0,x0,0	  x0:0x00000000
        1655000	       164	800004b8	fc8f8f93	addi	x31,x31,-56	 x31:0x80009f60 x31=0x80009f28
        1665000	       165	800004bc	01981233	sll	x4,x16,x25	 x16:0x00000000 x25:0x800004ec  x4=0x00000000
        1675000	       166	800004c0	56297813	andi	x16,x18,1378	 x18:0x00000000 x16=0x00000000
        1685000	       167	800004c4	4106d6b3	sra	x13,x13,x16	 x13:0xc7f631b8 x16:0x00000000 x13=0xc7f631b8
        1695000	       168	800004c8	005fa223	sw	x5,4(x31)	 x31:0x80009f28  x5:0x800005d4 PA:0x80009f2c
        1705000	       169	800004cc	013b5db3	srl	x27,x22,x19	 x22:0x0000ddf7 x19:0x0000005d x27=0x00000000
        1715000	       170	800004d0	be0f8e93	addi	x29,x31,-1056	 x31:0x80009f28 x29=0x80009b08
        1725000	       171	800004d4	00001997	auipc	x19,0x1	 x19=0x800014d0
        1735000	       172	800004d8	3e898993	addi	x19,x19,1000	 x19:0x800014d0 x19=0x800018b8
        1745000	       173	800004dc	00000013	addi	x0,x0,0	  x0:0x00000000
        1755000	       174	800004e0	0072b6b3	sltu	x13,x5,x7	  x5:0x800005d4  x7:0x8bd010e4 x13=0x00000001
        1765000	       175	800004e4	c6198993	addi	x19,x19,-927	 x19:0x800018b8 x19=0x80001519
        1775000	       176	800004e8	40b35533	sra	x10,x6,x11	  x6:0xa3f6939b x11:0x0000006d x10=0xfffd1fb4
        1785000	       177	800004ec	405b5cb3	sra	x25,x22,x5	 x22:0x0000ddf7  x5:0x800005d4 x25=0x00000000
        1795000	       178	800004f0	013d5033	srl	x0,x26,x19	 x26:0xa2afc4a4 x19:0x80001519
        1805000	       179	800004f4	43f5f2b7	lui	x5,0x43f5f	  x5=0x43f5f000
        1815000	       180	800004f8	00000013	addi	x0,x0,0	  x0:0x00000000
        1825000	       181	800004fc	3a0982e7	jalr	x5,x19,928	 x19:0x80001519  x5=0x800004fc
        1835000	       182	00000000	00000013	addi	x0,x0,0	  x0:0x00000000
        1845000	       183	800018b8	00000013	addi	x0,x0,0	  x0:0x00000000
        1855000	       184	800018bc	40ee5d33	sra	x26,x28,x14	 x28:0x80000207 x14:0x80009fc4 x26=0xf8000020
        1865000	       185	800018c0	008c9463	bne	x25,x8,800018c8	 x25:0x00000000  x8:0x00000001
        1875000	       186	00000000	00000013	addi	x0,x0,0	  x0:0x00000000
        1885000	       187	800018c4	00000013	addi	x0,x0,0	  x0:0x00000000
        1895000	       188	800018c8	fd4f8f93	addi	x31,x31,-44	 x31:0x80009f28 x31=0x80009efc
        1905000	       189	800018cc	28ebcd93	xori	x27,x23,654	 x23:0x0261f000 x27=0x0261f28e
        1915000	       190	800018d0	895ad9b7	lui	x19,0x895ad	 x19=0x895ad000
        1925000	       191	800018d4	00cb7cb3	and	x25,x22,x12	 x22:0x0000ddf7 x12:0x00c7f631 x25=0x0000d431
        1935000	       192	800018d8	005fa223	sw	x5,4(x31)	 x31:0x80009efc  x5:0x800004fc PA:0x80009f00
        1945000	       193	800018dc	01e75693	srli	x13,x14,0x1e	 x14:0x80009fc4 x13=0x00000002
        1955000	       194	800018e0	01eb71b3	and	x3,x22,x30	 x22:0x0000ddf7 x30:0x7d9e1000  x3=0x00001000
        1965000	       195	800018e4	54f0ca93	xori	x21,x1,1359	  x1:0x6e2e75a0 x21=0x6e2e70ef
        1975000	       196	800018e8	00e394b3	sll	x9,x7,x14	  x7:0x8bd010e4 x14:0x80009fc4  x9=0xbd010e40
        1985000	       197	800018ec	41045493	srai	x9,x8,0x10	  x8:0x00000001  x9=0x00000000
        1995000	       198	800018f0	0156dc13	srli	x24,x13,0x15	 x13:0x00000002 x24=0x00000000
        2005000	       199	800018f4	00000013	addi	x0,x0,0	  x0:0x00000000
        2015000	       200	800018f8	00aedb33	srl	x22,x29,x10	 x29:0x80009b08 x10:0xfffd1fb4 x22=0x00000800
        2025000	       201	800018fc	007105b3	add	x11,x2,x7	  x2:0xfffff926  x7:0x8bd010e4 x11=0x8bd00a0a
        2035000	       202	80001900	005a4e33	xor	x28,x20,x5	 x20:0xe4e90541  x5:0x800004fc x28=0x64e901bd
        2045000	       203	80001904	00000013	addi	x0,x0,0	  x0:0x00000000
        2055000	       204	80001908	52564793	xori	x15,x12,1317	 x12:0x00c7f631 x15=0x00c7f314
        2065000	       205	8000190c	2a4002ef	jal	x5,8000190c	  x5=0x8000190c
        2075000	       206	00000000	00000013	addi	x0,x0,0	  x0:0x00000000
        2085000	       207	80001bac	00000013	addi	x0,x0,0	  x0:0x00000000
        2095000	       208	80001bb0	00012133	slt	x2,x2,x0	  x2:0xfffff926  x0:0x00000000  x2=0x00000001
        2105000	       209	80001bb4	00f6d463	bge	x13,x15,80001bbc	 x13:0x00000002 x15:0x00c7f314
        2115000	       210	80001bb8	0182c7b3	xor	x15,x5,x24	  x5:0x8000190c x24:0x00000000 x15=0x8000190c
        2125000	       211	80001bbc	fe4f8f93	addi	x31,x31,-28	 x31:0x80009efc x31=0x80009ee0
        2135000	       212	80001bc0	78c46113	ori	x2,x8,1932	  x8:0x00000001  x2=0x0000078d
        2145000	       213	80001bc4	01a49613	slli	x12,x9,0x1a	  x9:0x00000000 x12=0x00000000
        2155000	       214	80001bc8	00d6dd33	srl	x26,x13,x13	 x13:0x00000002 x13:0x00000002 x26=0x00000000
        2165000	       215	80001bcc	003ebdb3	sltu	x27,x29,x3	 x29:0x80009b08  x3:0x00001000 x27=0x00000000
        2175000	       216	80001bd0	005fa223	sw	x5,4(x31)	 x31:0x80009ee0  x5:0x8000190c PA:0x80009ee4
        2185000	       217	80001bd4	925ace93	xori	x29,x21,-1755	 x21:0x6e2e70ef x29=0x91d189ca
        2195000	       218	80001bd8	7041b813	sltiu	x16,x3,1796	  x3:0x00001000 x16=0x00000000
        2205000	       219	80001bdc	008b44b3	xor	x9,x22,x8	 x22:0x00000800  x8:0x00000001  x9=0x00000801
        2215000	       220	80001be0	00007b97	auipc	x23,0x7	 x23=0x80008bdc
        2225000	       221	80001be4	406b8b93	addi	x23,x23,1030	 x23:0x80008bdc x23=0x80008fe2
        2235000	       222	80001be8	01dfb433	sltu	x8,x31,x29	 x31:0x80009ee0 x29:0x91d189ca  x8=0x00000001
        2245000	       223	80001bec	00a718b3	sll	x17,x14,x10	 x14:0x80009fc4 x10:0xfffd1fb4 x17=0xfc400000
        2255000	       224	80001bf0	fcdb8783	lb	x15,-51(x23)	 x23:0x80008fe2 x15=0x00000062 PA:0x80008faf
        2265000	       225	80001bf4	21f2a893	slti	x17,x5,543	  x5:0x8000190c x17=0x00000001
        2275000	       226	80001bf8	01cf8133	add	x2,x31,x28	 x31:0x80009ee0 x28:0x64e901bd  x2=0xe4e9a09d
        2285000	       227	80001bfc	500ff693	andi	x13,x31,1280	 x31:0x80009ee0 x13=0x00000400
        2295000	       228	80001c00	006a1913	slli	x18,x20,0x6	 x20:0xe4e90541 x18=0x3a415040
        2305000	       229	80001c04	00c7ccb3	xor	x25,x15,x12	 x15:0x00000062 x12:0x00000000 x25=0x00000062
        2315000	       230	80001c08	f3cb8f03	lb	x30,-196(x23)	 x23:0x80008fe2 x30=0x0000002f PA:0x80008f1e
        2325000	       231	80001c0c	f2abad83	lw	x27,-214(x23)	 x23:0x80008fe2 x27=0x18d6f476 PA:0x80008f0c
        2335000	       232	80001c10	fd0ba123	sw	x16,-62(x23)	 x23:0x80008fe2 x16:0x00000000 PA:0x80008fa4
        2345000	       233	80001c14	0164eab3	or	x21,x9,x22	  x9:0x00000801 x22:0x00000800 x21=0x00000801
        2355000	       234	80001c18	40168833	sub	x16,x13,x1	 x13:0x00000400  x1:0x6e2e75a0 x16=0x91d18e60
        2365000	       235	80001c1c	005099b3	sll	x19,x1,x5	  x1:0x6e2e75a0  x5:0x8000190c x19=0xe75a0000
        2375000	       236	80001c20	f91b8a23	sb	x17,-108(x23)	 x23:0x80008fe2 x17:0x00000001 PA:0x80008f76
        2385000	       237	80001c24	402cd033	sra	x0,x25,x2	 x25:0x00000062  x2:0xe4e9a09d
        2395000	       238	80001c28	01f2e633	or	x12,x5,x31	  x5:0x8000190c x31:0x80009ee0 x12=0x80009fec
        2405000	       239	80001c2c	bf7e3913	sltiu	x18,x28,-1033	 x28:0x64e901bd x18=0x00000001
        2415000	       240	80001c30	de03e613	ori	x12,x7,-544	  x7:0x8bd010e4 x12=0xfffffde4
        2425000	       241	80001c34	0006ceb3	xor	x29,x13,x0	 x13:0x00000400  x0:0x00000000 x29=0x00000400
        2435000	       242	80001c38	f4cbc903	lbu	x18,-180(x23)	 x23:0x80008fe2 x18=0x0000009c PA:0x80008f2e
        2445000	       243	80001c3c	40e7d333	sra	x6,x15,x14	 x15:0x00000062 x14:0x80009fc4  x6=0x00000006
        2455000	       244	80001c40	41385eb3	sra	x29,x16,x19	 x16:0x91d18e60 x19:0xe75a0000 x29=0x91d18e60
        2465000	       245	80001c44	f40b9523	sh	x0,-182(x23)	 x23:0x80008fe2  x0:0x00000000 PA:0x80008f2c
        2475000	       246	80001c48	fd9b83a3	sb	x25,-57(x23)	 x23:0x80008fe2 x25:0x00000062 PA:0x80008fa9
        2485000	       247	80001c4c	f80ba323	sw	x0,-122(x23)	 x23:0x80008fe2  x0:0x00000000 PA:0x80008f68
        2495000	       248	80001c50	e098f797	auipc	x15,0xe098f	 x15=0x60990c4c
        2505000	       249	80001c54	f22b8b03	lb	x22,-222(x23)	 x23:0x80008fe2 x22=0xffffffd8 PA:0x80008f04
        2515000	       250	80001c58	f15bc683	lbu	x13,-235(x23)	 x23:0x80008fe2 x13=0x000000de PA:0x80008ef7
        2525000	       251	80001c5c	fdab81a3	sb	x26,-61(x23)	 x23:0x80008fe2 x26:0x00000000 PA:0x80008fa5
        2535000	       252	80001c60	e099bc93	sltiu	x25,x19,-503	 x19:0xe75a0000 x25=0x00000001
        2545000	       253	80001c64	fcdb8c03	lb	x24,-51(x23)	 x23:0x80008fe2 x24=0x00000062 PA:0x80008faf
        2555000	       254	80001c68	03452513	slti	x10,x10,52	 x10:0xfffd1fb4 x10=0x00000001
        2565000	       255	80001c6c	fa1b82a3	sb	x1,-91(x23)	 x23:0x80008fe2  x1:0x6e2e75a0 PA:0x80008f87
        2575000	       256	80001c70	f31b8203	lb	x4,-207(x23)	 x23:0x80008fe2  x4=0x00000031 PA:0x80008f13
        2585000	       257	80001c74	018a96b3	sll	x13,x21,x24	 x21:0x00000801 x24:0x00000062 x13=0x00002004
        2595000	       258	80001c78	f68b8923	sb	x8,-142(x23)	 x23:0x80008fe2  x8:0x00000001 PA:0x80008f54
        2605000	       259	80001c7c	41825f13	srai	x30,x4,0x18	  x4:0x00000031 x30=0x00000000
        2615000	       260	80001c80	000d1f13	slli	x30,x26,0x0	 x26:0x00000000 x30=0x00000000
        2625000	       261	80001c84	40cfc213	xori	x4,x31,1036	 x31:0x80009ee0  x4=0x80009aec
        2635000	       262	80001c88	40065d93	srai	x27,x12,0x0	 x12:0xfffffde4 x27=0xfffffde4
        2645000	       263	80001c8c	41635333	sra	x6,x6,x22	  x6:0x00000006 x22:0xffffffd8  x6=0x00000000
        2655000	       264	80001c90	f84bd803	lhu	x16,-124(x23)	 x23:0x80008fe2 x16=0x00006e24 PA:0x80008f66
        2665000	       265	80001c94	00006117	auipc	x2,0x6	  x2=0x80007c90
        2675000	       266	80001c98	58810113	addi	x2,x2,1416	  x2:0x80007c90  x2=0x80008218
        2685000	       267	80001c9c	fd110aa3	sb	x17,-43(x2)	  x2:0x80008218 x17:0x00000001 PA:0x800081ed
        2695000	       268	80001ca0	037108a3	sb	x23,49(x2)	  x2:0x80008218 x23:0x80008fe2 PA:0x80008249
        2705000	       269	80001ca4	fd310903	lb	x18,-45(x2)	  x2:0x80008218 x18=0x0000003f PA:0x800081eb
        2715000	       270	80001ca8	9b99ac13	slti	x24,x19,-1607	 x19:0xe75a0000 x24=0x00000001
        2725000	       271	80001cac	fd714a83	lbu	x21,-41(x2)	  x2:0x80008218 x21=0x000000f4 PA:0x800081ef
        2735000	       272	80001cb0	03b10523	sb	x27,42(x2)	  x2:0x80008218 x27:0xfffffde4 PA:0x80008242
        2745000	       273	80001cb4	02012483	lw	x9,32(x2)	  x2:0x80008218  x9=0x89d6fe60 PA:0x80008238
        2755000	       274	80001cb8	41e059b3	sra	x19,x0,x30	  x0:0x00000000 x30:0x00000000 x19=0x00000000
        2765000	       275	80001cbc	4062d993	srai	x19,x5,0x6	  x5:0x8000190c x19=0xfe000064
        2775000	       276	80001cc0	fda10723	sb	x26,-50(x2)	  x2:0x80008218 x26:0x00000000 PA:0x800081e6
        2785000	       277	80001cc4	94d62497	auipc	x9,0x94d62	  x9=0x14d63cc0
        2795000	       278	80001cc8	a0298db7	lui	x27,0xa0298	 x27=0xa0298000
        2805000	       279	80001ccc	40060933	sub	x18,x12,x0	 x12:0xfffffde4  x0:0x00000000 x18=0xfffffde4
        2815000	       280	80001cd0	40be50b3	sra	x1,x28,x11	 x28:0x64e901bd x11:0x8bd00a0a  x1=0x00193a40
        2825000	       281	80001cd4	a4027c93	andi	x25,x4,-1472	  x4:0x80009aec x25=0x80009a40
        2835000	       282	80001cd8	03e15e03	lhu	x28,62(x2)	  x2:0x80008218 x28=0x0000258c PA:0x80008256
        2845000	       283	80001cdc	fe0102a3	sb	x0,-27(x2)	  x2:0x80008218  x0:0x00000000 PA:0x800081fd
        2855000	       284	80001ce0	41e45793	srai	x15,x8,0x1e	  x8:0x00000001 x15=0x00000000
        2865000	       285	80001ce4	ff812203	lw	x4,-8(x2)	  x2:0x80008218  x4=0xc2701a21 PA:0x80008210
        2875000	       286	80001ce8	3f5c4813	xori	x16,x24,1013	 x24:0x00000001 x16=0x000003f4
        2885000	       287	80001cec	00000013	addi	x0,x0,0	  x0:0x00000000
        2895000	       288	80001cf0	9223e7b7	lui	x15,0x9223e	 x15=0x9223e000
        2905000	       289	80001cf4	ff2108a3	sb	x18,-15(x2)	  x2:0x80008218 x18:0xfffffde4 PA:0x80008209
        2915000	       290	80001cf8	2b8b5c37	lui	x24,0x2b8b5	 x24=0x2b8b5000
        2925000	       291	80001cfc	957fbe13	sltiu	x28,x31,-1705	 x31:0x80009ee0 x28=0x00000001
        2935000	       292	80001d00	415b56b3	sra	x13,x22,x21	 x22:0xffffffd8 x21:0x000000f4 x13=0xffffffff
        2945000	       293	80001d04	fff10d83	lb	x27,-1(x2)	  x2:0x80008218 x27=0x00000060 PA:0x80008217
        2955000	       294	80001d08	feb106a3	sb	x11,-19(x2)	  x2:0x80008218 x11:0x8bd00a0a PA:0x80008205
        2965000	       295	80001d0c	00000013	addi	x0,x0,0	  x0:0x00000000
        2975000	       296	80001d10	ffc14583	lbu	x11,-4(x2)	  x2:0x80008218 x11=0x000000c6 PA:0x80008214
        2985000	       297	80001d14	fc310183	lb	x3,-61(x2)	  x2:0x80008218  x3=0xffffffa7 PA:0x800081db
        2995000	       298	80001d18	ff214783	lbu	x15,-14(x2)	  x2:0x80008218 x15=0x00000047 PA:0x8000820a
        3005000	       299	80001d1c	00b2edb3	or	x27,x5,x11	  x5:0x8000190c x11:0x000000c6 x27=0x800019ce
        3015000	       300	80001d20	01b10b83	lb	x23,27(x2)	  x2:0x80008218 x23=0xffffff99 PA:0x80008233
        3025000	       301	80001d24	fe415a83	lhu	x21,-28(x2)	  x2:0x80008218 x21=0x000000de PA:0x800081fc
        3035000	       302	80001d28	02910883	lb	x17,41(x2)	  x2:0x80008218 x17=0x00000051 PA:0x80008241
        3045000	       303	80001d2c	0139bd33	sltu	x26,x19,x19	 x19:0xfe000064 x19:0xfe000064 x26=0x00000000
        3055000	       304	80001d30	005971b3	and	x3,x18,x5	 x18:0xfffffde4  x5:0x8000190c  x3=0x80001904
        3065000	       305	80001d34	01814483	lbu	x9,24(x2)	  x2:0x80008218  x9=0x000000d5 PA:0x80008230
        3075000	       306	80001d38	03811183	lh	x3,56(x2)	  x2:0x80008218  x3=0xffffedfb PA:0x80008250
        3085000	       307	80001d3c	fe610e03	lb	x28,-26(x2)	  x2:0x80008218 x28=0x0000002d PA:0x800081fe
        3095000	       308	80001d40	00006197	auipc	x3,0x6	  x3=0x80007d3c
        3105000	       309	80001d44	36618193	addi	x3,x3,870	  x3:0x80007d3c  x3=0x800080a2
        3115000	       310	80001d48	01697933	and	x18,x18,x22	 x18:0xfffffde4 x22:0xffffffd8 x18=0xfffffdc0
        3125000	       311	80001d4c	0ddae093	ori	x1,x21,221	 x21:0x000000de  x1=0x000000df
        3135000	       312	80001d50	21018b23	sb	x16,534(x3)	  x3:0x800080a2 x16:0x000003f4 PA:0x800082b8
        3145000	       313	80001d54	02e44097	auipc	x1,0x2e44	  x1=0x82e45d50
        3155000	       314	80001d58	40770b33	sub	x22,x14,x7	 x14:0x80009fc4  x7:0x8bd010e4 x22=0xf4308ee0
        3165000	       315	80001d5c	00b4e0b3	or	x1,x9,x11	  x9:0x000000d5 x11:0x000000c6  x1=0x000000d7
        3175000	       316	80001d60	0132d313	srli	x6,x5,0x13	  x5:0x8000190c  x6=0x00001000
        3185000	       317	80001d64	00000013	addi	x0,x0,0	  x0:0x00000000
        3195000	       318	80001d68	0114d213	srli	x4,x9,0x11	  x9:0x000000d5  x4=0x00000000
        3205000	       319	80001d6c	9c1cab13	slti	x22,x25,-1599	 x25:0x80009a40 x22=0x00000001
        3215000	       320	80001d70	17b20813	addi	x16,x4,379	  x4:0x00000000 x16=0x0000017b
        3225000	       321	80001d74	12618aa3	sb	x6,309(x3)	  x3:0x800080a2  x6:0x00001000 PA:0x800081d7
        3235000	       322	80001d78	5d019283	lh	x5,1488(x3)	  x3:0x800080a2  x5=0x0000503d PA:0x80008672
        3245000	       323	80001d7c	01ae84b3	add	x9,x29,x26	 x29:0x91d18e60 x26:0x00000000  x9=0x91d18e60
        3255000	       324	80001d80	f8a83413	sltiu	x8,x16,-118	 x16:0x0000017b  x8=0x00000001
        3265000	       325	80001d84	e6d38d93	addi	x27,x7,-403	  x7:0x8bd010e4 x27=0x8bd00f51
        3275000	       326	80001d88	10e1d803	lhu	x16,270(x3)	  x3:0x800080a2 x16=0x00004138 PA:0x800081b0
        3285000	       327	80001d8c	fda182a3	sb	x26,-59(x3)	  x3:0x800080a2 x26:0x00000000 PA:0x80008067
        3295000	       328	80001d90	015d0933	add	x18,x26,x21	 x26:0x00000000 x21:0x000000de x18=0x000000de
        3305000	       329	80001d94	5071c683	lbu	x13,1287(x3)	  x3:0x800080a2 x13=0x000000ff PA:0x800085a9
        3315000	       330	80001d98	0159f233	and	x4,x19,x21	 x19:0xfe000064 x21:0x000000de  x4=0x00000044
        3325000	       331	80001d9c	83a65337	lui	x6,0x83a65	  x6=0x83a65000
        3335000	       332	80001da0	05318783	lb	x15,83(x3)	  x3:0x800080a2 x15=0x0000004f PA:0x800080f5
        3345000	       333	80001da4	9d52f513	andi	x10,x5,-1579	  x5:0x0000503d x10=0x00005015
        3355000	       334	80001da8	4c386493	ori	x9,x16,1219	 x16:0x00004138  x9=0x000045fb
        3365000	       335	80001dac	4bf1cd83	lbu	x27,1215(x3)	  x3:0x800080a2 x27=0x00000052 PA:0x80008561
        3375000	       336	80001db0	40d187a3	sb	x13,1039(x3)	  x3:0x800080a2 x13:0x000000ff PA:0x800084b1
        3385000	       337	80001db4	6760a693	slti	x13,x1,1654	  x1:0x000000d7 x13=0x00000001
        3395000	       338	80001db8	00000013	addi	x0,x0,0	  x0:0x00000000
        3405000	       339	80001dbc	34a18203	lb	x4,842(x3)	  x3:0x800080a2  x4=0x00000022 PA:0x800083ec
        3415000	       340	80001dc0	00706833	or	x16,x0,x7	  x0:0x00000000  x7:0x8bd010e4 x16=0x8bd010e4
        3425000	       341	80001dc4	0026c0b3	xor	x1,x13,x2	 x13:0x00000001  x2:0x80008218  x1=0x80008219
        3435000	       342	80001dc8	01eb1333	sll	x6,x22,x30	 x22:0x00000001 x30:0x00000000  x6=0x00000001
        3445000	       343	80001dcc	46018ba3	sb	x0,1143(x3)	  x3:0x800080a2  x0:0x00000000 PA:0x80008519
        3455000	       344	80001dd0	509d8313	addi	x6,x27,1289	 x27:0x00000052  x6=0x0000055b
        3465000	       345	80001dd4	30a1ac03	lw	x24,778(x3)	  x3:0x800080a2 x24=0x321d4c87 PA:0x800083ac
        3475000	       346	80001dd8	00007117	auipc	x2,0x7	  x2=0x80008dd4
        3485000	       347	80001ddc	d3e10113	addi	x2,x2,-706	  x2:0x80008dd4  x2=0x80008b12
        3495000	       348	80001de0	f5c10823	sb	x28,-176(x2)	  x2:0x80008b12 x28:0x0000002d PA:0x80008a62
        3505000	       349	80001de4	713ce793	ori	x15,x25,1811	 x25:0x80009a40 x15=0x80009f53
        3515000	       350	80001de8	0fe15f03	lhu	x30,254(x2)	  x2:0x80008b12 x30=0x000086c4 PA:0x80008c10
        3525000	       351	80001dec	4124d333	sra	x6,x9,x18	  x9:0x000045fb x18:0x000000de  x6=0x00000000
        3535000	       352	80001df0	0d27e793	ori	x15,x15,210	 x15:0x80009f53 x15=0x80009fd3
        3545000	       353	80001df4	d70d8013	addi	x0,x27,-656	 x27:0x00000052
        3555000	       354	80001df8	fae15e83	lhu	x29,-82(x2)	  x2:0x80008b12 x29=0x0000ab6f PA:0x80008ac0
        3565000	       355	80001dfc	02215083	lhu	x1,34(x2)	  x2:0x80008b12  x1=0x00006ea1 PA:0x80008b34
        3575000	       356	80001e00	f5a11983	lh	x19,-166(x2)	  x2:0x80008b12 x19=0x00003497 PA:0x80008a6c
        3585000	       357	80001e04	73f64e93	xori	x29,x12,1855	 x12:0xfffffde4 x29=0xfffffadb
        3595000	       358	80001e08	01ecd933	srl	x18,x25,x30	 x25:0x80009a40 x30:0x000086c4 x18=0x080009a4
        3605000	       359	80001e0c	010fc333	xor	x6,x31,x16	 x31:0x80009ee0 x16:0x8bd010e4  x6=0x0bd08e04
        3615000	       360	80001e10	0022a633	slt	x12,x5,x2	  x5:0x0000503d  x2:0x80008b12 x12=0x00000000
        3625000	       361	80001e14	f4c10223	sb	x12,-188(x2)	  x2:0x80008b12 x12:0x00000000 PA:0x80008a56
        3635000	       362	80001e18	f1b10403	lb	x8,-229(x2)	  x2:0x80008b12  x8=0x0000001d PA:0x80008a2d
        3645000	       363	80001e1c	01c84833	xor	x16,x16,x28	 x16:0x8bd010e4 x28:0x0000002d x16=0x8bd010c9
        3655000	       364	80001e20	41195ab3	sra	x21,x18,x17	 x18:0x080009a4 x17:0x00000051 x21=0x00000400
        3665000	       365	80001e24	d7688097	auipc	x1,0xd7688	  x1=0x57689e20
        3675000	       366	80001e28	dab72893	slti	x17,x14,-597	 x14:0x80009fc4 x17=0x00000001
        3685000	       367	80001e2c	fec11203	lh	x4,-20(x2)	  x2:0x80008b12  x4=0xffff815e PA:0x80008afe
        3695000	       368	80001e30	00a50333	add	x6,x10,x10	 x10:0x00005015 x10:0x00005015  x6=0x0000a02a
        3705000	       369	80001e34	f1110c83	lb	x25,-239(x2)	  x2:0x80008b12 x25=0xffffff85 PA:0x80008a23
        3715000	       370	80001e38	00c08b33	add	x22,x1,x12	  x1:0x57689e20 x12:0x00000000 x22=0x57689e20
        3725000	       371	80001e3c	00000013	addi	x0,x0,0	  x0:0x00000000
        3735000	       372	80001e40	0b910fa3	sb	x25,191(x2)	  x2:0x80008b12 x25:0xffffff85 PA:0x80008bd1
        3745000	       373	80001e44	f4f10203	lb	x4,-177(x2)	  x2:0x80008b12  x4=0xffffffc3 PA:0x80008a61
        3755000	       374	80001e48	05b14503	lbu	x10,91(x2)	  x2:0x80008b12 x10=0x0000000c PA:0x80008b6d
        3765000	       375	80001e4c	01a73d33	sltu	x26,x14,x26	 x14:0x80009fc4 x26:0x00000000 x26=0x00000000
        3775000	       376	80001e50	fa011e03	lh	x28,-96(x2)	  x2:0x80008b12 x28=0xffff9175 PA:0x80008ab2
        3785000	       377	80001e54	0f7108a3	sb	x23,241(x2)	  x2:0x80008b12 x23:0xffffff99 PA:0x80008c03
        3795000	       378	80001e58	0087c2b3	xor	x5,x15,x8	 x15:0x80009fd3  x8:0x0000001d  x5=0x80009fce
        3805000	       379	80001e5c	0174c3b3	xor	x7,x9,x23	  x9:0x000045fb x23:0xffffff99  x7=0xffffba62
        3815000	       380	80001e60	b2e82413	slti	x8,x16,-1234	 x16:0x8bd010c9  x8=0x00000001
        3825000	       381	80001e64	10510023	sb	x5,256(x2)	  x2:0x80008b12  x5:0x80009fce PA:0x80008c12
        3835000	       382	80001e68	41c38eb3	sub	x29,x7,x28	  x7:0xffffba62 x28:0xffff9175 x29=0x000028ed
        3845000	       383	80001e6c	002bdb93	srli	x23,x23,0x2	 x23:0xffffff99 x23=0x3fffffe6
        3855000	       384	80001e70	01af39b3	sltu	x19,x30,x26	 x30:0x000086c4 x26:0x00000000 x19=0x00000000
        3865000	       385	80001e74	f3c108a3	sb	x28,-207(x2)	  x2:0x80008b12 x28:0xffff9175 PA:0x80008a43
        3875000	       386	80001e78	00007a97	auipc	x21,0x7	 x21=0x80008e74
        3885000	       387	80001e7c	e80a8a93	addi	x21,x21,-384	 x21:0x80008e74 x21=0x80008cf4
        3895000	       388	80001e80	03fac003	lbu	x0,63(x21)	 x21:0x80008cf4 PA:0x80008d33
        3905000	       389	80001e84	22fdb593	sltiu	x11,x27,559	 x27:0x00000052 x11=0x00000001
        3915000	       390	80001e88	fe1a8aa3	sb	x1,-11(x21)	 x21:0x80008cf4  x1:0x57689e20 PA:0x80008ce9
        3925000	       391	80001e8c	409451b3	sra	x3,x8,x9	  x8:0x00000001  x9:0x000045fb  x3=0x00000000
        3935000	       392	80001e90	fc1ace03	lbu	x28,-63(x21)	 x21:0x80008cf4 x28=0x000000a3 PA:0x80008cb5
        3945000	       393	80001e94	00da8883	lb	x17,13(x21)	 x21:0x80008cf4 x17=0xffffff86 PA:0x80008d01
        3955000	       394	80001e98	00bc1593	slli	x11,x24,0xb	 x24:0x321d4c87 x11=0xea643800
        3965000	       395	80001e9c	fcca8103	lb	x2,-52(x21)	 x21:0x80008cf4  x2=0x0000007a PA:0x80008cc0
        3975000	       396	80001ea0	01560933	add	x18,x12,x21	 x12:0x00000000 x21:0x80008cf4 x18=0x80008cf4
        3985000	       397	80001ea4	426d6113	ori	x2,x26,1062	 x26:0x00000000  x2=0x00000426
        3995000	       398	80001ea8	0040b5b3	sltu	x11,x1,x4	  x1:0x57689e20  x4:0xffffffc3 x11=0x00000001
        4005000	       399	80001eac	4187dd33	sra	x26,x15,x24	 x15:0x80009fd3 x24:0x321d4c87 x26=0xff00013f
        4015000	       400	80001eb0	fefacb03	lbu	x22,-17(x21)	 x21:0x80008cf4 x22=0x0000005a PA:0x80008ce3
        4025000	       401	80001eb4	01affc33	and	x24,x31,x26	 x31:0x80009ee0 x26:0xff00013f x24=0x80000020
        4035000	       402	80001eb8	fc6a85a3	sb	x6,-53(x21)	 x21:0x80008cf4  x6:0x0000a02a PA:0x80008cbf
        4045000	       403	80001ebc	fcca8503	lb	x10,-52(x21)	 x21:0x80008cf4 x10=0x0000007a PA:0x80008cc0
        4055000	       404	80001ec0	01dacb83	lbu	x23,29(x21)	 x21:0x80008cf4 x23=0x000000be PA:0x80008d11
        4065000	       405	80001ec4	fd3a88a3	sb	x19,-47(x21)	 x21:0x80008cf4 x19:0x00000000 PA:0x80008cc5
        4075000	       406	80001ec8	026a88a3	sb	x6,49(x21)	 x21:0x80008cf4  x6:0x0000a02a PA:0x80008d25
        4085000	       407	80001ecc	00dacd83	lbu	x27,13(x21)	 x21:0x80008cf4 x27=0x00000086 PA:0x80008d01
        4095000	       408	80001ed0	002801b3	add	x3,x16,x2	 x16:0x8bd010c9  x2:0x00000426  x3=0x8bd014ef
        4105000	       409	80001ed4	01d64f33	xor	x30,x12,x29	 x12:0x00000000 x29:0x000028ed x30=0x000028ed
        4115000	       410	80001ed8	018a86a3	sb	x24,13(x21)	 x21:0x80008cf4 x24:0x80000020 PA:0x80008d01
        4125000	       411	80001edc	000aa083	lw	x1,0(x21)	 x21:0x80008cf4  x1=0x4db73d7a PA:0x80008cf4
        4135000	       412	80001ee0	fc5a8b03	lb	x22,-59(x21)	 x21:0x80008cf4 x22=0xffffffb4 PA:0x80008cb9
        4145000	       413	80001ee4	038a87a3	sb	x24,47(x21)	 x21:0x80008cf4 x24:0x80000020 PA:0x80008d23
        4155000	       414	80001ee8	01eac483	lbu	x9,30(x21)	 x21:0x80008cf4  x9=0x000000d2 PA:0x80008d12
        4165000	       415	80001eec	00007117	auipc	x2,0x7	  x2=0x80008ee8
        4175000	       416	80001ef0	eff10113	addi	x2,x2,-257	  x2:0x80008ee8  x2=0x80008de7
        4185000	       417	80001ef4	41035793	srai	x15,x6,0x10	  x6:0x0000a02a x15=0x00000000
        4195000	       418	80001ef8	15e14383	lbu	x7,350(x2)	  x2:0x80008de7  x7=0x000000cc PA:0x80008f45
        4205000	       419	80001efc	eb010623	sb	x16,-340(x2)	  x2:0x80008de7 x16:0x8bd010c9 PA:0x80008c93
        4215000	       420	80001f00	410e5b13	srai	x22,x28,0x10	 x28:0x000000a3 x22=0x00000000
        4225000	       421	80001f04	ac810f23	sb	x8,-1314(x2)	  x2:0x80008de7  x8:0x00000001 PA:0x800088c5
        4235000	       422	80001f08	005748b3	xor	x17,x14,x5	 x14:0x80009fc4  x5:0x80009fce x17=0x0000000a
        4245000	       423	80001f0c	e5915983	lhu	x19,-423(x2)	  x2:0x80008de7 x19=0x0000c984 PA:0x80008c40
        4255000	       424	80001f10	ddb10883	lb	x17,-549(x2)	  x2:0x80008de7 x17=0x00000031 PA:0x80008bc2
        4265000	       425	80001f14	00d2f333	and	x6,x5,x13	  x5:0x80009fce x13:0x00000001  x6=0x00000000
        4275000	       426	80001f18	78db30b7	lui	x1,0x78db3	  x1=0x78db3000
        4285000	       427	80001f1c	402dd9b3	sra	x19,x27,x2	 x27:0x00000086  x2:0x80008de7 x19=0x00000001
        4295000	       428	80001f20	dea10083	lb	x1,-534(x2)	  x2:0x80008de7  x1=0xffffff85 PA:0x80008bd1
        4305000	       429	80001f24	d5910da3	sb	x25,-677(x2)	  x2:0x80008de7 x25:0xffffff85 PA:0x80008b42
        4315000	       430	80001f28	015e23b3	slt	x7,x28,x21	 x28:0x000000a3 x21:0x80008cf4  x7=0x00000000
        4325000	       431	80001f2c	d8c14503	lbu	x10,-628(x2)	  x2:0x80008de7 x10=0x0000006a PA:0x80008b73
        4335000	       432	80001f30	c7610383	lb	x7,-906(x2)	  x2:0x80008de7  x7=0xffffffcf PA:0x80008a5d
        4345000	       433	80001f34	0182f533	and	x10,x5,x24	  x5:0x80009fce x24:0x80000020 x10=0x80000000
        4355000	       434	80001f38	00cebcb3	sltu	x25,x29,x12	 x29:0x000028ed x12:0x00000000 x25=0x00000000
        4365000	       435	80001f3c	014c14b3	sll	x9,x24,x20	 x24:0x80000020 x20:0xe4e90541  x9=0x00000040
        4375000	       436	80001f40	0079a4b3	slt	x9,x19,x7	 x19:0x00000001  x7:0xffffffcf  x9=0x00000000
        4385000	       437	80001f44	03e100a3	sb	x30,33(x2)	  x2:0x80008de7 x30:0x000028ed PA:0x80008e08
        4395000	       438	80001f48	401c5033	sra	x0,x24,x1	 x24:0x80000020  x1:0xffffff85
        4405000	       439	80001f4c	00df19b3	sll	x19,x30,x13	 x30:0x000028ed x13:0x00000001 x19=0x000051da
        4415000	       440	80001f50	001adb33	srl	x22,x21,x1	 x21:0x80008cf4  x1:0xffffff85 x22=0x04000467
        4425000	       441	80001f54	c8f15903	lhu	x18,-881(x2)	  x2:0x80008de7 x18=0x000018b3 PA:0x80008a76
        4435000	       442	80001f58	0c810383	lb	x7,200(x2)	  x2:0x80008de7  x7=0x00000040 PA:0x80008eaf
        4445000	       443	80001f5c	0f610903	lb	x18,246(x2)	  x2:0x80008de7 x18=0xffffffa7 PA:0x80008edd
        4455000	       444	80001f60	40000d33	sub	x26,x0,x0	  x0:0x00000000  x0:0x00000000 x26=0x00000000
        4465000	       445	80001f64	40415213	srai	x4,x2,0x4	  x2:0x80008de7  x4=0xf80008de
        4475000	       446	80001f68	a8753093	sltiu	x1,x10,-1401	 x10:0x80000000  x1=0x00000001
        4485000	       447	80001f6c	01177b33	and	x22,x14,x17	 x14:0x80009fc4 x17:0x00000031 x22=0x00000000
        4495000	       448	80001f70	01ae4c33	xor	x24,x28,x26	 x28:0x000000a3 x26:0x00000000 x24=0x000000a3
        4505000	       449	80001f74	976a8793	addi	x15,x21,-1674	 x21:0x80008cf4 x15=0x8000866a
        4515000	       450	80001f78	b7410403	lb	x8,-1164(x2)	  x2:0x80008de7  x8=0x00000065 PA:0x8000895b
        4525000	       451	80001f7c	002e20b3	slt	x1,x28,x2	 x28:0x000000a3  x2:0x80008de7  x1=0x00000000
        4535000	       452	80001f80	00491093	slli	x1,x18,0x4	 x18:0xffffffa7  x1=0xfffffa70
        4545000	       453	80001f84	ef7a8d13	addi	x26,x21,-265	 x21:0x80008cf4 x26=0x80008beb
        4555000	       454	80001f88	8487a493	slti	x9,x15,-1976	 x15:0x8000866a  x9=0x00000001
        4565000	       455	80001f8c	b9f11603	lh	x12,-1121(x2)	  x2:0x80008de7 x12=0x00000e92 PA:0x80008986
        4575000	       456	80001f90	00006097	auipc	x1,0x6	  x1=0x80007f8c
        4585000	       457	80001f94	6db08093	addi	x1,x1,1755	  x1:0x80007f8c  x1=0x80008667
        4595000	       458	80001f98	00308623	sb	x3,12(x1)	  x1:0x80008667  x3:0x8bd014ef PA:0x80008673
        4605000	       459	80001f9c	01108423	sb	x17,8(x1)	  x1:0x80008667 x17:0x00000031 PA:0x8000866f
        4615000	       460	80001fa0	7fc8a797	auipc	x15,0x7fc8a	 x15=0xffc8bf9c
        4625000	       461	80001fa4	00000013	addi	x0,x0,0	  x0:0x00000000
        4635000	       462	80001fa8	9fef8913	addi	x18,x31,-1538	 x31:0x80009ee0 x18=0x800098de
        4645000	       463	80001fac	bf864613	xori	x12,x12,-1032	 x12:0x00000e92 x12=0xfffff56a
        4655000	       464	80001fb0	41958133	sub	x2,x11,x25	 x11:0x00000001 x25:0x00000000  x2=0x00000001
        4665000	       465	80001fb4	0212bf37	lui	x30,0x212b	 x30=0x0212b000
        4675000	       466	80001fb8	00242db3	slt	x27,x8,x2	  x8:0x00000065  x2:0x00000001 x27=0x00000000
        4685000	       467	80001fbc	00afe8b3	or	x17,x31,x10	 x31:0x80009ee0 x10:0x80000000 x17=0x80009ee0
        4695000	       468	80001fc0	3fd78217	auipc	x4,0x3fd78	  x4=0xbfd79fbc
        4705000	       469	80001fc4	01015693	srli	x13,x2,0x10	  x2:0x00000001 x13=0x00000000
        4715000	       470	80001fc8	015092a3	sh	x21,5(x1)	  x1:0x80008667 x21:0x80008cf4 PA:0x8000866c
        4725000	       471	80001fcc	005edc93	srli	x25,x29,0x5	 x29:0x000028ed x25=0x00000147
        4735000	       472	80001fd0	49ae9e17	auipc	x28,0x49ae9	 x28=0xc9aeafcc
        4745000	       473	80001fd4	5c8d8293	addi	x5,x27,1480	 x27:0x00000000  x5=0x000005c8
        4755000	       474	80001fd8	409ed893	srai	x17,x29,0x9	 x29:0x000028ed x17=0x00000014
        4765000	       475	80001fdc	4125d813	srai	x16,x11,0x12	 x11:0x00000001 x16=0x00000000
        4775000	       476	80001fe0	f74ba493	slti	x9,x23,-140	 x23:0x000000be  x9=0x00000000
        4785000	       477	80001fe4	ffa0c503	lbu	x10,-6(x1)	  x1:0x80008667 x10=0x0000000c PA:0x80008661
        4795000	       478	80001fe8	0100c683	lbu	x13,16(x1)	  x1:0x80008667 x13=0x000000f1 PA:0x80008677
        4805000	       479	80001fec	00398033	add	x0,x19,x3	 x19:0x000051da  x3:0x8bd014ef
        4815000	       480	80001ff0	ff208483	lb	x9,-14(x1)	  x1:0x80008667  x9=0x00000029 PA:0x80008659
        4825000	       481	80001ff4	01b88833	add	x16,x17,x27	 x17:0x00000014 x27:0x00000000 x16=0x00000014
        4835000	       482	80001ff8	00000013	addi	x0,x0,0	  x0:0x00000000
        4845000	       483	80001ffc	015271b3	and	x3,x4,x21	  x4:0xbfd79fbc x21:0x80008cf4  x3=0x80008cb4
        4855000	       484	80002000	00df5b33	srl	x22,x30,x13	 x30:0x0212b000 x13:0x000000f1 x22=0x00000109
        4865000	       485	80002004	00d0aa83	lw	x21,13(x1)	  x1:0x80008667 x21=0xf1420380 PA:0x80008674
        4875000	       486	80002008	00f0c203	lbu	x4,15(x1)	  x1:0x80008667  x4=0x00000042 PA:0x80008676
        4885000	       487	8000200c	fe208a23	sb	x2,-12(x1)	  x1:0x80008667  x2:0x00000001 PA:0x8000865b
        4895000	       488	80002010	00b9fdb3	and	x27,x19,x11	 x19:0x000051da x11:0x00000001 x27=0x00000000
        4905000	       489	80002014	ff308183	lb	x3,-13(x1)	  x1:0x80008667  x3=0xffffff86 PA:0x8000865a
        4915000	       490	80002018	010e2333	slt	x6,x28,x16	 x28:0xc9aeafcc x16:0x00000014  x6=0x00000001
        4925000	       491	8000201c	018942b3	xor	x5,x18,x24	 x18:0x800098de x24:0x000000a3  x5=0x8000987d
        4935000	       492	80002020	ffe08aa3	sb	x30,-11(x1)	  x1:0x80008667 x30:0x0212b000 PA:0x8000865c
        4945000	       493	80002024	00007117	auipc	x2,0x7	  x2=0x80009020
        4955000	       494	80002028	e2d10113	addi	x2,x2,-467	  x2:0x80009020  x2=0x80008e4d
        4965000	       495	8000202c	01005ab3	srl	x21,x0,x16	  x0:0x00000000 x16:0x00000014 x21=0x00000000
        4975000	       496	80002030	04910623	sb	x9,76(x2)	  x2:0x80008e4d  x9:0x00000029 PA:0x80008e99
        4985000	       497	80002034	0f0105a3	sb	x16,235(x2)	  x2:0x80008e4d x16:0x00000014 PA:0x80008f38
        4995000	       498	80002038	07810183	lb	x3,120(x2)	  x2:0x80008e4d  x3=0xffffffd6 PA:0x80008ec5
        5005000	       499	8000203c	09c114a3	sh	x28,137(x2)	  x2:0x80008e4d x28:0xc9aeafcc PA:0x80008ed6
        5015000	       500	80002040	13503993	sltiu	x19,x0,309	  x0:0x00000000 x19=0x00000001
        5025000	       501	80002044	4148da93	srai	x21,x17,0x14	 x17:0x00000014 x21=0x00000000
        5035000	       502	80002048	00000013	addi	x0,x0,0	  x0:0x00000000
        5045000	       503	8000204c	0fb15783	lhu	x15,251(x2)	  x2:0x80008e4d x15=0x0000ccce PA:0x80008f48
        5055000	       504	80002050	019aa3b3	slt	x7,x21,x25	 x21:0x00000000 x25:0x00000147  x7=0x00000001
        5065000	       505	80002054	f1214683	lbu	x13,-238(x2)	  x2:0x80008e4d x13=0x0000008a PA:0x80008d5f
        5075000	       506	80002058	fc115a83	lhu	x21,-63(x2)	  x2:0x80008e4d x21=0x0000611c PA:0x80008e0e
        5085000	       507	8000205c	0c115203	lhu	x4,193(x2)	  x2:0x80008e4d  x4=0x000018d6 PA:0x80008f0e
        5095000	       508	80002060	726ca913	slti	x18,x25,1830	 x25:0x00000147 x18=0x00000001
        5105000	       509	80002064	fa6116a3	sh	x6,-83(x2)	  x2:0x80008e4d  x6:0x00000001 PA:0x80008dfa
        5115000	       510	80002068	f2515c83	lhu	x25,-219(x2)	  x2:0x80008e4d x25=0x00005ad1 PA:0x80008d72
        5125000	       511	8000206c	f8014283	lbu	x5,-128(x2)	  x2:0x80008e4d  x5=0x0000004f PA:0x80008dcd
        5135000	       512	80002070	0aa10ba3	sb	x10,183(x2)	  x2:0x80008e4d x10:0x0000000c PA:0x80008f04
        5145000	       513	80002074	0ba10783	lb	x15,186(x2)	  x2:0x80008e4d x15=0x0000000e PA:0x80008f07
        5155000	       514	80002078	00000013	addi	x0,x0,0	  x0:0x00000000
        5165000	       515	8000207c	06610e83	lb	x29,102(x2)	  x2:0x80008e4d x29=0x00000057 PA:0x80008eb3
        5175000	       516	80002080	fc582493	slti	x9,x16,-59	 x16:0x00000014  x9=0x00000000
        5185000	       517	80002084	fa910223	sb	x9,-92(x2)	  x2:0x80008e4d  x9:0x00000000 PA:0x80008df1
        5195000	       518	80002088	01c760b3	or	x1,x14,x28	 x14:0x80009fc4 x28:0xc9aeafcc  x1=0xc9aebfcc
        5205000	       519	8000208c	0166d4b3	srl	x9,x13,x22	 x13:0x0000008a x22:0x00000109  x9=0x00000000
        5215000	       520	80002090	05110c03	lb	x24,81(x2)	  x2:0x80008e4d x24=0xffffff98 PA:0x80008e9e
        5225000	       521	80002094	fe110203	lb	x4,-31(x2)	  x2:0x80008e4d  x4=0x00000067 PA:0x80008e2e
        5235000	       522	80002098	d7c599b7	lui	x19,0xd7c59	 x19=0xd7c59000
        5245000	       523	8000209c	f4411fa3	sh	x4,-161(x2)	  x2:0x80008e4d  x4:0x00000067 PA:0x80008dac
        5255000	       524	800020a0	f74103a3	sb	x20,-153(x2)	  x2:0x80008e4d x20:0xe4e90541 PA:0x80008db4
        5265000	       525	800020a4	090106a3	sb	x16,141(x2)	  x2:0x80008e4d x16:0x00000014 PA:0x80008eda
        5275000	       526	800020a8	a9d0ab13	slti	x22,x1,-1379	  x1:0xc9aebfcc x22=0x00000001
        5285000	       527	800020ac	f2b10a83	lb	x21,-213(x2)	  x2:0x80008e4d x21=0xffffffc5 PA:0x80008d78
        5295000	       528	800020b0	fdb14303	lbu	x6,-37(x2)	  x2:0x80008e4d  x6=0x000000b2 PA:0x80008e28
        5305000	       529	800020b4	fa410803	lb	x16,-92(x2)	  x2:0x80008e4d x16=0x00000000 PA:0x80008df1
        5315000	       530	800020b8	7e35aa93	slti	x21,x11,2019	 x11:0x00000001 x21=0x00000001
        5325000	       531	800020bc	0172d413	srli	x8,x5,0x17	  x5:0x0000004f  x8=0x00000000
        5335000	       532	800020c0	0de10a23	sb	x30,212(x2)	  x2:0x80008e4d x30:0x0212b000 PA:0x80008f21
        5345000	       533	800020c4	00884b33	xor	x22,x16,x8	 x16:0x00000000  x8:0x00000000 x22=0x00000000
        5355000	       534	800020c8	084109a3	sb	x4,147(x2)	  x2:0x80008e4d  x4:0x00000067 PA:0x80008ee0
        5365000	       535	800020cc	00006c17	auipc	x24,0x6	 x24=0x800080c8
        5375000	       536	800020d0	190c0c13	addi	x24,x24,400	 x24:0x800080c8 x24=0x80008258
        5385000	       537	800020d4	00dbf833	and	x16,x23,x13	 x23:0x000000be x13:0x0000008a x16=0x0000008a
        5395000	       538	800020d8	00b7b033	sltu	x0,x15,x11	 x15:0x0000000e x11:0x00000001
        5405000	       539	800020dc	d9f2a793	slti	x15,x5,-609	  x5:0x0000004f x15=0x00000000
        5415000	       540	800020e0	00f4e833	or	x16,x9,x15	  x9:0x00000000 x15:0x00000000 x16=0x00000000
        5425000	       541	800020e4	001c06a3	sb	x1,13(x24)	 x24:0x80008258  x1:0xc9aebfcc PA:0x80008265
        5435000	       542	800020e8	c7f27093	andi	x1,x4,-897	  x4:0x00000067  x1=0x00000067
        5445000	       543	800020ec	001dbf33	sltu	x30,x27,x1	 x27:0x00000000  x1:0x00000067 x30=0x00000001
        5455000	       544	800020f0	92182cb7	lui	x25,0x92182	 x25=0x92182000
        5465000	       545	800020f4	00bfc6b3	xor	x13,x31,x11	 x31:0x80009ee0 x11:0x00000001 x13=0x80009ee1
        5475000	       546	800020f8	01b75893	srli	x17,x14,0x1b	 x14:0x80009fc4 x17=0x00000010
        5485000	       547	800020fc	00ec0e83	lb	x29,14(x24)	 x24:0x80008258 x29=0xfffffff9 PA:0x80008266
        5495000	       548	80002100	00a9adb3	slt	x27,x19,x10	 x19:0xd7c59000 x10:0x0000000c x27=0x00000001
        5505000	       549	80002104	0037b433	sltu	x8,x15,x3	 x15:0x00000000  x3:0xffffffd6  x8=0x00000001
        5515000	       550	80002108	4170d233	sra	x4,x1,x23	  x1:0x00000067 x23:0x000000be  x4=0x00000000
        5525000	       551	8000210c	8a2f0293	addi	x5,x30,-1886	 x30:0x00000001  x5=0xfffff8a3
        5535000	       552	80002110	006c5003	lhu	x0,6(x24)	 x24:0x80008258 PA:0x8000825e
        5545000	       553	80002114	006108b3	add	x17,x2,x6	  x2:0x80008e4d  x6:0x000000b2 x17=0x80008eff
        5555000	       554	80002118	000461b3	or	x3,x8,x0	  x8:0x00000001  x0:0x00000000  x3=0x00000001
        5565000	       555	8000211c	404b86b3	sub	x13,x23,x4	 x23:0x000000be  x4:0x00000000 x13=0x000000be
        5575000	       556	80002120	9ec30913	addi	x18,x6,-1556	  x6:0x000000b2 x18=0xfffffa9e
        5585000	       557	80002124	ffdc0b23	sb	x29,-10(x24)	 x24:0x80008258 x29:0xfffffff9 PA:0x8000824e
        5595000	       558	80002128	8cb3c113	xori	x2,x7,-1845	  x7:0x00000001  x2=0xfffff8ca
        5605000	       559	8000212c	2ef1bb97	auipc	x23,0x2ef1b	 x23=0xaef1d128
        5615000	       560	80002130	01cf7233	and	x4,x30,x28	 x30:0x00000001 x28:0xc9aeafcc  x4=0x00000000
        5625000	       561	80002134	4b0de993	ori	x19,x27,1200	 x27:0x00000001 x19=0x000004b1
        5635000	       562	80002138	004c0483	lb	x9,4(x24)	 x24:0x80008258  x9=0xffffff9a PA:0x8000825c
        5645000	       563	8000213c	008c05a3	sb	x8,11(x24)	 x24:0x80008258  x8:0x00000001 PA:0x80008263
        5655000	       564	80002140	ff6c4683	lbu	x13,-10(x24)	 x24:0x80008258 x13=0x000000f9 PA:0x8000824e
        5665000	       565	80002144	000c2283	lw	x5,0(x24)	 x24:0x80008258  x5=0x6e635f94 PA:0x80008258
        5675000	       566	80002148	003e71b3	and	x3,x28,x3	 x28:0xc9aeafcc  x3:0x00000001  x3=0x00000000
        5685000	       567	8000214c	1b2f4313	xori	x6,x30,434	 x30:0x00000001  x6=0x000001b3
        5695000	       568	80002150	feac1f23	sh	x10,-2(x24)	 x24:0x80008258 x10:0x0000000c PA:0x80008256
        5705000	       569	80002154	40a95a93	srai	x21,x18,0xa	 x18:0xfffffa9e x21=0xfffffffe
        5715000	       570	80002158	002c0203	lb	x4,2(x24)	 x24:0x80008258  x4=0x00000063 PA:0x8000825a
        5725000	       571	8000215c	4082db93	srai	x23,x5,0x8	  x5:0x6e635f94 x23=0x006e635f
        5735000	       572	80002160	007c4303	lbu	x6,7(x24)	 x24:0x80008258  x6=0x0000003b PA:0x8000825f
        5745000	       573	80002164	00006117	auipc	x2,0x6	  x2=0x80008160
        5755000	       574	80002168	22010113	addi	x2,x2,544	  x2:0x80008160  x2=0x80008380
        5765000	       575	8000216c	ffe15303	lhu	x6,-2(x2)	  x2:0x80008380  x6=0x00005fc3 PA:0x8000837e
        5775000	       576	80002170	4888bc13	sltiu	x24,x17,1160	 x17:0x80008eff x24=0x00000000
        5785000	       577	80002174	015ba0b3	slt	x1,x23,x21	 x23:0x006e635f x21:0xfffffffe  x1=0x00000000
        5795000	       578	80002178	02610903	lb	x18,38(x2)	  x2:0x80008380 x18=0x00000077 PA:0x800083a6
        5805000	       579	8000217c	02410403	lb	x8,36(x2)	  x2:0x80008380  x8=0x0000005e PA:0x800083a4
        5815000	       580	80002180	c1dec693	xori	x13,x29,-995	 x29:0xfffffff9 x13=0x000003e4
        5825000	       581	80002184	01b14283	lbu	x5,27(x2)	  x2:0x80008380  x5=0x00000021 PA:0x8000839b
        5835000	       582	80002188	b30e8193	addi	x3,x29,-1232	 x29:0xfffffff9  x3=0xfffffb29
        5845000	       583	8000218c	00059193	slli	x3,x11,0x0	 x11:0x00000001  x3=0x00000001
        5855000	       584	80002190	4191d333	sra	x6,x3,x25	  x3:0x00000001 x25:0x92182000  x6=0x00000001
        5865000	       585	80002194	76c07313	andi	x6,x0,1900	  x0:0x00000000  x6=0x00000000
        5875000	       586	80002198	71fa7813	andi	x16,x20,1823	 x20:0xe4e90541 x16=0x00000501
        5885000	       587	8000219c	00000013	addi	x0,x0,0	  x0:0x00000000
        5895000	       588	800021a0	01e5d3b3	srl	x7,x11,x30	 x11:0x00000001 x30:0x00000001  x7=0x00000000
        5905000	       589	800021a4	005cdd33	srl	x26,x25,x5	 x25:0x92182000  x5:0x00000021 x26=0x490c1000
        5915000	       590	800021a8	004fd033	srl	x0,x31,x4	 x31:0x80009ee0  x4:0x00000063
        5925000	       591	800021ac	fe811923	sh	x8,-14(x2)	  x2:0x80008380  x8:0x0000005e PA:0x80008372
        5935000	       592	800021b0	0027dd33	srl	x26,x15,x2	 x15:0x00000000  x2:0x80008380 x26=0x00000000
        5945000	       593	800021b4	ff9107a3	sb	x25,-17(x2)	  x2:0x80008380 x25:0x92182000 PA:0x8000836f
        5955000	       594	800021b8	5e6ffc93	andi	x25,x31,1510	 x31:0x80009ee0 x25=0x000004e0
        5965000	       595	800021bc	0198db93	srli	x23,x17,0x19	 x17:0x80008eff x23=0x00000040
        5975000	       596	800021c0	014102a3	sb	x20,5(x2)	  x2:0x80008380 x20:0xe4e90541 PA:0x80008385
        5985000	       597	800021c4	fe3101a3	sb	x3,-29(x2)	  x2:0x80008380  x3:0x00000001 PA:0x80008363
        5995000	       598	800021c8	fd514e83	lbu	x29,-43(x2)	  x2:0x80008380 x29=0x0000001e PA:0x80008355
        6005000	       599	800021cc	02b10403	lb	x8,43(x2)	  x2:0x80008380  x8=0xffffffe9 PA:0x800083ab
        6015000	       600	800021d0	004136b3	sltu	x13,x2,x4	  x2:0x80008380  x4:0x00000063 x13=0x00000000
        6025000	       601	800021d4	01950f33	add	x30,x10,x25	 x10:0x0000000c x25:0x000004e0 x30=0x000004ec
        6035000	       602	800021d8	405f83b3	sub	x7,x31,x5	 x31:0x80009ee0  x5:0x00000021  x7=0x80009ebf
        6045000	       603	800021dc	fef14c83	lbu	x25,-17(x2)	  x2:0x80008380 x25=0x00000000 PA:0x8000836f
        6055000	       604	800021e0	00007217	auipc	x4,0x7	  x4=0x800091dc
        6065000	       605	800021e4	82420213	addi	x4,x4,-2012	  x4:0x800091dc  x4=0x80008a00
        6075000	       606	800021e8	009f6ab3	or	x21,x30,x9	 x30:0x000004ec  x9:0xffffff9a x21=0xfffffffe
        6085000	       607	800021ec	f3d24b83	lbu	x23,-195(x4)	  x4:0x80008a00 x23=0x0000009c PA:0x8000893d
        6095000	       608	800021f0	f63207a3	sb	x3,-145(x4)	  x4:0x80008a00  x3:0x00000001 PA:0x8000896f
        6105000	       609	800021f4	412c51b3	sra	x3,x24,x18	 x24:0x00000000 x18:0x00000077  x3=0x00000000
        6115000	       610	800021f8	f5422c23	sw	x20,-168(x4)	  x4:0x80008a00 x20:0xe4e90541 PA:0x80008958
        6125000	       611	800021fc	412ed913	srai	x18,x29,0x12	 x29:0x0000001e x18=0x00000000
        6135000	       612	80002200	f8224a83	lbu	x21,-126(x4)	  x4:0x80008a00 x21=0x000000ae PA:0x80008982
        6145000	       613	80002204	fa620883	lb	x17,-90(x4)	  x4:0x80008a00 x17=0x0000007c PA:0x800089a6
        6155000	       614	80002208	0bf20403	lb	x8,191(x4)	  x4:0x80008a00  x8=0x0000000e PA:0x80008abf
        6165000	       615	8000220c	40f55693	srai	x13,x10,0xf	 x10:0x0000000c x13=0x00000000
        6175000	       616	80002210	0053b1b3	sltu	x3,x7,x5	  x7:0x80009ebf  x5:0x00000021  x3=0x00000000
        6185000	       617	80002214	402500b3	sub	x1,x10,x2	 x10:0x0000000c  x2:0x80008380  x1=0x7fff7c8c
        6195000	       618	80002218	f4220e23	sb	x2,-164(x4)	  x4:0x80008a00  x2:0x80008380 PA:0x8000895c
        6205000	       619	8000221c	ff422a23	sw	x20,-12(x4)	  x4:0x80008a00 x20:0xe4e90541 PA:0x800089f4
        6215000	       620	80002220	000128b3	slt	x17,x2,x0	  x2:0x80008380  x0:0x00000000 x17=0x00000001
        6225000	       621	80002224	04020083	lb	x1,64(x4)	  x4:0x80008a00  x1=0xffffff92 PA:0x80008a40
        6235000	       622	80002228	f8720a83	lb	x21,-121(x4)	  x4:0x80008a00 x21=0x0000000e PA:0x80008987
        6245000	       623	8000222c	98f64ab7	lui	x21,0x98f64	 x21=0x98f64000
        6255000	       624	80002230	fb924383	lbu	x7,-71(x4)	  x4:0x80008a00  x7=0x000000b5 PA:0x800089b9
        6265000	       625	80002234	004a0633	add	x12,x20,x4	 x20:0xe4e90541  x4:0x80008a00 x12=0x64e98f41
        6275000	       626	80002238	0cf21623	sh	x15,204(x4)	  x4:0x80008a00 x15:0x00000000 PA:0x80008acc
        6285000	       627	8000223c	f3220183	lb	x3,-206(x4)	  x4:0x80008a00  x3=0xffffffc8 PA:0x80008932
        6295000	       628	80002240	04124f03	lbu	x30,65(x4)	  x4:0x80008a00 x30=0x00000086 PA:0x80008a41
        6305000	       629	80002244	00000013	addi	x0,x0,0	  x0:0x00000000
        6315000	       630	80002248	09620483	lb	x9,150(x4)	  x4:0x80008a00  x9=0x00000025 PA:0x80008a96
        6325000	       631	8000224c	0e7207a3	sb	x7,239(x4)	  x4:0x80008a00  x7:0x000000b5 PA:0x80008aef
        6335000	       632	80002250	f0920103	lb	x2,-247(x4)	  x4:0x80008a00  x2=0x00000034 PA:0x80008909
        6345000	       633	80002254	d5bd6893	ori	x17,x26,-677	 x26:0x00000000 x17=0xfffffd5b
        6355000	       634	80002258	01b5e233	or	x4,x11,x27	 x11:0x00000001 x27:0x00000001  x4=0x00000001
        6365000	       635	8000225c	01e995b3	sll	x11,x19,x30	 x19:0x000004b1 x30:0x00000086 x11=0x00012c40
        6375000	       636	80002260	005480b3	add	x1,x9,x5	  x9:0x00000025  x5:0x00000021  x1=0x00000046
        6385000	       637	80002264	41ffd093	srai	x1,x31,0x1f	 x31:0x80009ee0  x1=0xffffffff
        6395000	       638	80002268	4cdc8213	addi	x4,x25,1229	 x25:0x00000000  x4=0x000004cd
        6405000	       639	8000226c	00000013	addi	x0,x0,0	  x0:0x00000000
        6415000	       640	80002270	44b63413	sltiu	x8,x12,1099	 x12:0x64e98f41  x8=0x00000000
        6425000	       641	80002274	01055b33	srl	x22,x10,x16	 x10:0x0000000c x16:0x00000501 x22=0x00000006
        6435000	       642	80002278	01d037b3	sltu	x15,x0,x29	  x0:0x00000000 x29:0x0000001e x15=0x00000001
        6445000	       643	8000227c	025b0063	beq	x22,x5,8000229c	 x22:0x00000006  x5:0x00000021
        6455000	       644	80002280	033d1463	bne	x26,x19,800022a8	 x26:0x00000000 x19:0x000004b1
        6465000	       645	00000000	00000013	addi	x0,x0,0	  x0:0x00000000
        6475000	       646	800022a4	00000013	addi	x0,x0,0	  x0:0x00000000
        6485000	       647	800022a8	05a81863	bne	x16,x26,800022f8	 x16:0x00000501 x26:0x00000000
        6495000	       648	00000000	00000013	addi	x0,x0,0	  x0:0x00000000
        6505000	       649	800022f4	00000013	addi	x0,x0,0	  x0:0x00000000
        6515000	       650	800022f8	011f0e63	beq	x30,x17,80002314	 x30:0x00000086 x17:0xfffffd5b
        6525000	       651	800022fc	00a17f33	and	x30,x2,x10	  x2:0x00000034 x10:0x0000000c x30=0x00000004
        6535000	       652	80002300	005a7333	and	x6,x20,x5	 x20:0xe4e90541  x5:0x00000021  x6=0x00000001
        6545000	       653	80002304	01657a63	bgeu	x10,x22,80002318	 x10:0x0000000c x22:0x00000006
        6555000	       654	00000000	00000013	addi	x0,x0,0	  x0:0x00000000
        6565000	       655	80002314	00000013	addi	x0,x0,0	  x0:0x00000000
        6575000	       656	80002318	006a8e63	beq	x21,x6,80002334	 x21:0x98f64000  x6:0x00000001
        6585000	       657	8000231c	8699e213	ori	x4,x19,-1943	 x19:0x000004b1  x4=0xfffffcf9
        6595000	       658	80002320	20f98293	addi	x5,x19,527	 x19:0x000004b1  x5=0x000006c0
        6605000	       659	80002324	02520a63	beq	x4,x5,80002358	  x4:0xfffffcf9  x5:0x000006c0
        6615000	       660	80002328	0232e663	bltu	x5,x3,80002354	  x5:0x000006c0  x3:0xffffffc8
        6625000	       661	00000000	00000013	addi	x0,x0,0	  x0:0x00000000
        6635000	       662	80002350	00000013	addi	x0,x0,0	  x0:0x00000000
        6645000	       663	80002354	ad4ffe93	andi	x29,x31,-1324	 x31:0x80009ee0 x29=0x80009ac0
        6655000	       664	80002358	00c53c33	sltu	x24,x10,x12	 x10:0x0000000c x12:0x64e98f41 x24=0x00000001
        6665000	       665	8000235c	02611263	bne	x2,x6,80002380	  x2:0x00000034  x6:0x00000001
        6675000	       666	00000000	00000013	addi	x0,x0,0	  x0:0x00000000
        6685000	       667	8000237c	00000013	addi	x0,x0,0	  x0:0x00000000
        6695000	       668	80002380	00f2edb3	or	x27,x5,x15	  x5:0x000006c0 x15:0x00000001 x27=0x000006c1
        6705000	       669	80002384	00969593	slli	x11,x13,0x9	 x13:0x00000000 x11=0x00000000
        6715000	       670	80002388	414d8833	sub	x16,x27,x20	 x27:0x000006c1 x20:0xe4e90541 x16=0x1b170180
        6725000	       671	8000238c	015fb0b3	sltu	x1,x31,x21	 x31:0x80009ee0 x21:0x98f64000  x1=0x00000001
        6735000	       672	80002390	0027d663	bge	x15,x2,8000239c	 x15:0x00000001  x2:0x00000034
        6745000	       673	80002394	01f9be33	sltu	x28,x19,x31	 x19:0x000004b1 x31:0x80009ee0 x28=0x00000001
        6755000	       674	80002398	c488e413	ori	x8,x17,-952	 x17:0xfffffd5b  x8=0xfffffd5b
        6765000	       675	8000239c	77deeb93	ori	x23,x29,1917	 x29:0x80009ac0 x23=0x80009ffd
        6775000	       676	800023a0	0526e463	bltu	x13,x18,800023e8	 x13:0x00000000 x18:0x00000000
        6785000	       677	800023a4	005c9d93	slli	x27,x25,0x5	 x25:0x00000000 x27=0x00000000
        6795000	       678	800023a8	dfcb2f13	slti	x30,x22,-516	 x22:0x00000006 x30=0x00000000
        6805000	       679	800023ac	81757cb7	lui	x25,0x81757	 x25=0x81757000
        6815000	       680	800023b0	4004d9b3	sra	x19,x9,x0	  x9:0x00000025  x0:0x00000000 x19=0x00000025
        6825000	       681	800023b4	01549793	slli	x15,x9,0x15	  x9:0x00000025 x15=0x04a00000
        6835000	       682	800023b8	40dc8e33	sub	x28,x25,x13	 x25:0x81757000 x13:0x00000000 x28=0x81757000
        6845000	       683	800023bc	043a7263	bgeu	x20,x3,80002400	 x20:0xe4e90541  x3:0xffffffc8
        6855000	       684	800023c0	04411263	bne	x2,x4,80002404	  x2:0x00000034  x4:0xfffffcf9
        6865000	       685	00000000	00000013	addi	x0,x0,0	  x0:0x00000000
        6875000	       686	80002400	00000013	addi	x0,x0,0	  x0:0x00000000
        6885000	       687	80002404	096e3417	auipc	x8,0x96e3	  x8=0x896e5400
        6895000	       688	80002408	00dcfcb3	and	x25,x25,x13	 x25:0x81757000 x13:0x00000000 x25=0x00000000
        6905000	       689	8000240c	01875393	srli	x7,x14,0x18	 x14:0x80009fc4  x7=0x00000080
        6915000	       690	80002410	c171a113	slti	x2,x3,-1001	  x3:0xffffffc8  x2=0x00000000
        6925000	       691	80002414	41745513	srai	x10,x8,0x17	  x8:0x896e5400 x10=0xffffff12
        6935000	       692	80002418	64939217	auipc	x4,0x64939	  x4=0xe493b414
        6945000	       693	8000241c	019f5e63	bge	x30,x25,80002438	 x30:0x00000000 x25:0x00000000
        6955000	       694	00000000	00000013	addi	x0,x0,0	  x0:0x00000000
        6965000	       695	80002434	00000013	addi	x0,x0,0	  x0:0x00000000
        6975000	       696	80002438	01a4f0b3	and	x1,x9,x26	  x9:0x00000025 x26:0x00000000  x1=0x00000000
        6985000	       697	8000243c	ce69a493	slti	x9,x19,-794	 x19:0x00000025  x9=0x00000000
        6995000	       698	80002440	40445293	srai	x5,x8,0x4	  x8:0x896e5400  x5=0xf896e540
        7005000	       699	80002444	e8135ab7	lui	x21,0xe8135	 x21=0xe8135000
        7015000	       700	80002448	f7fcc913	xori	x18,x25,-129	 x25:0x00000000 x18=0xffffff7f
        7025000	       701	8000244c	9711eb93	ori	x23,x3,-1679	  x3:0xffffffc8 x23=0xfffffff9
        7035000	       702	80002450	41d985b3	sub	x11,x19,x29	 x19:0x00000025 x29:0x80009ac0 x11=0x7fff6565
        7045000	       703	80002454	04add863	bge	x27,x10,800024a4	 x27:0x00000000 x10:0xffffff12
        7055000	       704	00000000	00000013	addi	x0,x0,0	  x0:0x00000000
        7065000	       705	800024a0	00000013	addi	x0,x0,0	  x0:0x00000000
        7075000	       706	800024a4	05058863	beq	x11,x16,800024f4	 x11:0x7fff6565 x16:0x1b170180
        7085000	       707	800024a8	401b5893	srai	x17,x22,0x1	 x22:0x00000006 x17=0x00000003
        7095000	       708	800024ac	05060063	beq	x12,x16,800024ec	 x12:0x64e98f41 x16:0x1b170180
        7105000	       709	800024b0	9d4c0293	addi	x5,x24,-1580	 x24:0x00000001  x5=0xfffff9d5
        7115000	       710	800024b4	016f4c63	blt	x30,x22,800024cc	 x30:0x00000000 x22:0x00000006
        7125000	       711	00000000	00000013	addi	x0,x0,0	  x0:0x00000000
        7135000	       712	800024c8	00000013	addi	x0,x0,0	  x0:0x00000000
        7145000	       713	800024cc	24dece93	xori	x29,x29,589	 x29:0x80009ac0 x29=0x8000988d
        7155000	       714	800024d0	01536033	or	x0,x6,x21	  x6:0x00000001 x21:0xe8135000
        7165000	       715	800024d4	00331663	bne	x6,x3,800024e0	  x6:0x00000001  x3:0xffffffc8
        7175000	       716	00000000	00000013	addi	x0,x0,0	  x0:0x00000000
        7185000	       717	800024dc	00000013	addi	x0,x0,0	  x0:0x00000000
        7195000	       718	800024e0	019015b3	sll	x11,x0,x25	  x0:0x00000000 x25:0x00000000 x11=0x00000000
        7205000	       719	800024e4	00000013	addi	x0,x0,0	  x0:0x00000000
        7215000	       720	800024e8	00d65813	srli	x16,x12,0xd	 x12:0x64e98f41 x16=0x0003274c
        7225000	       721	800024ec	0aa16a63	bltu	x2,x10,800025a0	  x2:0x00000000 x10:0xffffff12
        7235000	       722	00000000	00000013	addi	x0,x0,0	  x0:0x00000000
        7245000	       723	8000259c	00000013	addi	x0,x0,0	  x0:0x00000000
        7255000	       724	800025a0	0528f263	bgeu	x17,x18,800025e4	 x17:0x00000003 x18:0xffffff7f
        7265000	       725	800025a4	00384533	xor	x10,x16,x3	 x16:0x0003274c  x3:0xffffffc8 x10=0xfffcd884
        7275000	       726	800025a8	00e7d433	srl	x8,x15,x14	 x15:0x04a00000 x14:0x80009fc4  x8=0x004a0000
        7285000	       727	800025ac	016b2ab3	slt	x21,x22,x22	 x22:0x00000006 x22:0x00000006 x21=0x00000000
        7295000	       728	800025b0	a6f6a5b7	lui	x11,0xa6f6a	 x11=0xa6f6a000
        7305000	       729	800025b4	014808b3	add	x17,x16,x20	 x16:0x0003274c x20:0xe4e90541 x17=0xe4ec2c8d
        7315000	       730	800025b8	8df71e97	auipc	x29,0x8df71	 x29=0x0df735b4
        7325000	       731	800025bc	01c52233	slt	x4,x10,x28	 x10:0xfffcd884 x28:0x81757000  x4=0x00000000
        7335000	       732	800025c0	b6a52c13	slti	x24,x10,-1174	 x10:0xfffcd884 x24=0x00000001
        7345000	       733	800025c4	03697c63	bgeu	x18,x22,800025fc	 x18:0xffffff7f x22:0x00000006
        7355000	       734	00000000	00000013	addi	x0,x0,0	  x0:0x00000000
        7365000	       735	800025f8	00000013	addi	x0,x0,0	  x0:0x00000000
        7375000	       736	800025fc	010f93b3	sll	x7,x31,x16	 x31:0x80009ee0 x16:0x0003274c  x7=0x09ee0000
        7385000	       737	80002600	dcfa7c13	andi	x24,x20,-561	 x20:0xe4e90541 x24=0xe4e90541
        7395000	       738	80002604	f71ee213	ori	x4,x29,-143	 x29:0x0df735b4  x4=0xfffffff5
        7405000	       739	80002608	662317b7	lui	x15,0x66231	 x15=0x66231000
        7415000	       740	8000260c	02139463	bne	x7,x1,80002634	  x7:0x09ee0000  x1:0x00000000
        7425000	       741	00000000	00000013	addi	x0,x0,0	  x0:0x00000000
        7435000	       742	80002630	00000013	addi	x0,x0,0	  x0:0x00000000
        7445000	       743	80002634	00c7e9b3	or	x19,x15,x12	 x15:0x66231000 x12:0x64e98f41 x19=0x66eb9f41
        7455000	       744	80002638	8d8f3293	sltiu	x5,x30,-1832	 x30:0x00000000  x5=0x00000001
        7465000	       745	8000263c	01c40a63	beq	x8,x28,80002650	  x8:0x004a0000 x28:0x81757000
        7475000	       746	80002640	00279833	sll	x16,x15,x2	 x15:0x66231000  x2:0x00000000 x16=0x66231000
        7485000	       747	80002644	0054db33	srl	x22,x9,x5	  x9:0x00000000  x5:0x00000001 x22=0x00000000
        7495000	       748	80002648	012ea3b3	slt	x7,x29,x18	 x29:0x0df735b4 x18:0xffffff7f  x7=0x00000000
        7505000	       749	8000264c	01873533	sltu	x10,x14,x24	 x14:0x80009fc4 x24:0xe4e90541 x10=0x00000001
        7515000	       750	80002650	00effc63	bgeu	x31,x14,80002668	 x31:0x80009ee0 x14:0x80009fc4
        7525000	       751	80002654	41af88b3	sub	x17,x31,x26	 x31:0x80009ee0 x26:0x00000000 x17=0x80009ee0
        7535000	       752	80002658	008d1133	sll	x2,x26,x8	 x26:0x00000000  x8:0x004a0000  x2=0x00000000
        7545000	       753	8000265c	01eb0e63	beq	x22,x30,80002678	 x22:0x00000000 x30:0x00000000
        7555000	       754	00000000	00000013	addi	x0,x0,0	  x0:0x00000000
        7565000	       755	80002674	00000013	addi	x0,x0,0	  x0:0x00000000
        7575000	       756	80002678	005dccb3	xor	x25,x27,x5	 x27:0x00000000  x5:0x00000001 x25=0x00000001
        7585000	       757	8000267c	73ddf493	andi	x9,x27,1853	 x27:0x00000000  x9=0x00000000
        7595000	       758	80002680	409358b3	sra	x17,x6,x9	  x6:0x00000001  x9:0x00000000 x17=0x00000001
        7605000	       759	80002684	40d10b33	sub	x22,x2,x13	  x2:0x00000000 x13:0x00000000 x22=0x00000000
        7615000	       760	80002688	40a58b33	sub	x22,x11,x10	 x11:0xa6f6a000 x10:0x00000001 x22=0xa6f69fff
        7625000	       761	8000268c	01a91e63	bne	x18,x26,800026a8	 x18:0xffffff7f x26:0x00000000
        7635000	       762	00000000	00000013	addi	x0,x0,0	  x0:0x00000000
        7645000	       763	800026a4	00000013	addi	x0,x0,0	  x0:0x00000000
        7655000	       764	800026a8	41800bb3	sub	x23,x0,x24	  x0:0x00000000 x24:0xe4e90541 x23=0x1b16fabf
        7665000	       765	800026ac	01b81c33	sll	x24,x16,x27	 x16:0x66231000 x27:0x00000000 x24=0x66231000
        7675000	       766	800026b0	41e05e33	sra	x28,x0,x30	  x0:0x00000000 x30:0x00000000 x28=0x00000000
        7685000	       767	800026b4	41cc50b3	sra	x1,x24,x28	 x24:0x66231000 x28:0x00000000  x1=0x66231000
        7695000	       768	800026b8	003dd433	srl	x8,x27,x3	 x27:0x00000000  x3:0xffffffc8  x8=0x00000000
        7705000	       769	800026bc	019bcb33	xor	x22,x23,x25	 x23:0x1b16fabf x25:0x00000001 x22=0x1b16fabe
        7715000	       770	800026c0	ef52ea97	auipc	x21,0xef52e	 x21=0x6f5306bc
        7725000	       771	800026c4	00cb47b3	xor	x15,x22,x12	 x22:0x1b16fabe x12:0x64e98f41 x15=0x7fff75ff
        7735000	       772	800026c8	e76c4e13	xori	x28,x24,-394	 x24:0x66231000 x28=0x99dcee76
        7745000	       773	800026cc	0050a133	slt	x2,x1,x5	  x1:0x66231000  x5:0x00000001  x2=0x00000000
        7755000	       774	800026d0	00115833	srl	x16,x2,x1	  x2:0x00000000  x1:0x66231000 x16=0x00000000
        7765000	       775	800026d4	01f083b3	add	x7,x1,x31	  x1:0x66231000 x31:0x80009ee0  x7=0xe623aee0
        7775000	       776	800026d8	0092beb3	sltu	x29,x5,x9	  x5:0x00000001  x9:0x00000000 x29=0x00000000
        7785000	       777	800026dc	00f1ce63	blt	x3,x15,800026f8	  x3:0xffffffc8 x15:0x7fff75ff
        7795000	       778	00000000	00000013	addi	x0,x0,0	  x0:0x00000000
        7805000	       779	800026f4	00000013	addi	x0,x0,0	  x0:0x00000000
        7815000	       780	800026f8	6c2d0e93	addi	x29,x26,1730	 x26:0x00000000 x29=0x000006c2
        7825000	       781	800026fc	030afc63	bgeu	x21,x16,80002734	 x21:0x6f5306bc x16:0x00000000
        7835000	       782	00000000	00000013	addi	x0,x0,0	  x0:0x00000000
        7845000	       783	80002730	00000013	addi	x0,x0,0	  x0:0x00000000
        7855000	       784	80002734	013ea433	slt	x8,x29,x19	 x29:0x000006c2 x19:0x66eb9f41  x8=0x00000001
        7865000	       785	80002738	00ccdcb3	srl	x25,x25,x12	 x25:0x00000001 x12:0x64e98f41 x25=0x00000000
        7875000	       786	8000273c	05e54063	blt	x10,x30,8000277c	 x10:0x00000001 x30:0x00000000
        7885000	       787	80002740	41ba0133	sub	x2,x20,x27	 x20:0xe4e90541 x27:0x00000000  x2=0xe4e90541
        7895000	       788	80002744	05cf6463	bltu	x30,x28,8000278c	 x30:0x00000000 x28:0x99dcee76
        7905000	       789	00000000	00000013	addi	x0,x0,0	  x0:0x00000000
        7915000	       790	80002788	00000013	addi	x0,x0,0	  x0:0x00000000
        7925000	       791	8000278c	008340b3	xor	x1,x6,x8	  x6:0x00000001  x8:0x00000001  x1=0x00000000
        7935000	       792	80002790	0129d7b3	srl	x15,x19,x18	 x19:0x66eb9f41 x18:0xffffff7f x15=0x00000000
        7945000	       793	80002794	68685f17	auipc	x30,0x68685	 x30=0xe8687790
        7955000	       794	80002798	ebf1b613	sltiu	x12,x3,-321	  x3:0xffffffc8 x12=0x00000000
        7965000	       795	8000279c	002ea833	slt	x16,x29,x2	 x29:0x000006c2  x2:0xe4e90541 x16=0x00000000
        7975000	       796	800027a0	02815463	bge	x2,x8,800027c8	  x2:0xe4e90541  x8:0x00000001
        7985000	       797	800027a4	41955e33	sra	x28,x10,x25	 x10:0x00000001 x25:0x00000000 x28=0x00000001
        7995000	       798	800027a8	01a87bb3	and	x23,x16,x26	 x16:0x00000000 x26:0x00000000 x23=0x00000000
        8005000	       799	800027ac	016cee63	bltu	x25,x22,800027c8	 x25:0x00000000 x22:0x1b16fabe
        8015000	       800	00000000	00000013	addi	x0,x0,0	  x0:0x00000000
        8025000	       801	800027c4	00000013	addi	x0,x0,0	  x0:0x00000000
        8035000	       802	800027c8	00146c63	bltu	x8,x1,800027e0	  x8:0x00000001  x1:0x00000000
        8045000	       803	800027cc	01a9f533	and	x10,x19,x26	 x19:0x66eb9f41 x26:0x00000000 x10=0x00000000
        8055000	       804	800027d0	00000013	addi	x0,x0,0	  x0:0x00000000
        8065000	       805	800027d4	c485b993	sltiu	x19,x11,-952	 x11:0xa6f6a000 x19=0x00000001
        8075000	       806	800027d8	404905b3	sub	x11,x18,x4	 x18:0xffffff7f  x4:0xfffffff5 x11=0xffffff8a
        8085000	       807	800027dc	032e6c63	bltu	x28,x18,80002814	 x28:0x00000001 x18:0xffffff7f
        8095000	       808	00000000	00000013	addi	x0,x0,0	  x0:0x00000000
        8105000	       809	80002810	00000013	addi	x0,x0,0	  x0:0x00000000
        8115000	       810	80002814	01e8e1b3	or	x3,x17,x30	 x17:0x00000001 x30:0xe8687790  x3=0xe8687791
        8125000	       811	80002818	d9f6a593	slti	x11,x13,-609	 x13:0x00000000 x11=0x00000000
        8135000	       812	8000281c	04a58263	beq	x11,x10,80002860	 x11:0x00000000 x10:0x00000000
        8145000	       813	00000000	00000013	addi	x0,x0,0	  x0:0x00000000
        8155000	       814	8000285c	00000013	addi	x0,x0,0	  x0:0x00000000
        8165000	       815	80002860	18a9ca93	xori	x21,x19,394	 x19:0x00000001 x21=0x0000018b
        8175000	       816	80002864	029d7663	bgeu	x26,x9,80002890	 x26:0x00000000  x9:0x00000000
        8185000	       817	00000000	00000013	addi	x0,x0,0	  x0:0x00000000
        8195000	       818	8000288c	00000013	addi	x0,x0,0	  x0:0x00000000
        8205000	       819	80002890	003449b3	xor	x19,x8,x3	  x8:0x00000001  x3:0xe8687791 x19=0xe8687790
        8215000	       820	80002894	a7432c93	slti	x25,x6,-1420	  x6:0x00000001 x25=0x00000000
        8225000	       821	80002898	f895ff37	lui	x30,0xf895f	 x30=0xf895f000
        8235000	       822	8000289c	007734b3	sltu	x9,x14,x7	 x14:0x80009fc4  x7:0xe623aee0  x9=0x00000001
        8245000	       823	800028a0	05a50463	beq	x10,x26,800028e8	 x10:0x00000000 x26:0x00000000
        8255000	       824	00000000	00000013	addi	x0,x0,0	  x0:0x00000000
        8265000	       825	800028e4	00000013	addi	x0,x0,0	  x0:0x00000000
        8275000	       826	800028e8	404b5933	sra	x18,x22,x4	 x22:0x1b16fabe  x4:0xfffffff5 x18=0x000000d8
        8285000	       827	800028ec	006d79b3	and	x19,x26,x6	 x26:0x00000000  x6:0x00000001 x19=0x00000000
        8295000	       828	800028f0	41b20633	sub	x12,x4,x27	  x4:0xfffffff5 x27:0x00000000 x12=0xfffffff5
        8305000	       829	800028f4	ef7db897	auipc	x17,0xef7db	 x17=0x6f7dd8f0
        8315000	       830	800028f8	8ebcb613	sltiu	x12,x25,-1813	 x25:0x00000000 x12=0x00000001
        8325000	       831	800028fc	01844a63	blt	x8,x24,80002910	  x8:0x00000001 x24:0x66231000
        8335000	       832	00000000	00000013	addi	x0,x0,0	  x0:0x00000000
        8345000	       833	8000290c	00000013	addi	x0,x0,0	  x0:0x00000000
        8355000	       834	80002910	01774eb3	xor	x29,x14,x23	 x14:0x80009fc4 x23:0x00000000 x29=0x80009fc4
        8365000	       835	80002914	007a95b3	sll	x11,x21,x7	 x21:0x0000018b  x7:0xe623aee0 x11=0x0000018b
        8375000	       836	80002918	6c392413	slti	x8,x18,1731	 x18:0x000000d8  x8=0x00000001
        8385000	       837	8000291c	001e8c33	add	x24,x29,x1	 x29:0x80009fc4  x1:0x00000000 x24=0x80009fc4
        8395000	       838	80002920	2f804017	auipc	x0,0x2f804	
        8405000	       839	80002924	2f0e7c93	andi	x25,x28,752	 x28:0x00000001 x25=0x00000000
        8415000	       840	80002928	d9b7fc13	andi	x24,x15,-613	 x15:0x00000000 x24=0x00000000
        8425000	       841	8000292c	014927b3	slt	x15,x18,x20	 x18:0x000000d8 x20:0xe4e90541 x15=0x00000000
        8435000	       842	80002930	05087063	bgeu	x16,x16,80002970	 x16:0x00000000 x16:0x00000000
        8445000	       843	00000000	00000013	addi	x0,x0,0	  x0:0x00000000
        8455000	       844	8000296c	00000013	addi	x0,x0,0	  x0:0x00000000
        8465000	       845	80002970	02256a63	bltu	x10,x2,800029a4	 x10:0x00000000  x2:0xe4e90541
        8475000	       846	00000000	00000013	addi	x0,x0,0	  x0:0x00000000
        8485000	       847	800029a0	00000013	addi	x0,x0,0	  x0:0x00000000
        8495000	       848	800029a4	f01f6313	ori	x6,x30,-255	 x30:0xf895f000  x6=0xffffff01
        8505000	       849	800029a8	ae757c93	andi	x25,x10,-1305	 x10:0x00000000 x25=0x00000000
        8515000	       850	800029ac	6645bb13	sltiu	x22,x11,1636	 x11:0x0000018b x22=0x00000001
        8525000	       851	800029b0	4029d8b3	sra	x17,x19,x2	 x19:0x00000000  x2:0xe4e90541 x17=0x00000000
        8535000	       852	800029b4	014f7e63	bgeu	x30,x20,800029d0	 x30:0xf895f000 x20:0xe4e90541
        8545000	       853	00000000	00000013	addi	x0,x0,0	  x0:0x00000000
        8555000	       854	800029cc	00000013	addi	x0,x0,0	  x0:0x00000000
        8565000	       855	800029d0	0188b033	sltu	x0,x17,x24	 x17:0x00000000 x24:0x00000000
        8575000	       856	800029d4	40e2deb3	sra	x29,x5,x14	  x5:0x00000001 x14:0x80009fc4 x29=0x00000000
        8585000	       857	800029d8	03519c63	bne	x3,x21,80002a10	  x3:0xe8687791 x21:0x0000018b
        8595000	       858	00000000	00000013	addi	x0,x0,0	  x0:0x00000000
        8605000	       859	80002a0c	00000013	addi	x0,x0,0	  x0:0x00000000
        8615000	       860	80002a10	00bcfb33	and	x22,x25,x11	 x25:0x00000000 x11:0x0000018b x22=0x00000000
        8625000	       861	80002a14	01fedd93	srli	x27,x29,0x1f	 x29:0x00000000 x27=0x00000000
        8635000	       862	80002a18	00b93933	sltu	x18,x18,x11	 x18:0x000000d8 x11:0x0000018b x18=0x00000001
        8645000	       863	80002a1c	90f6ee13	ori	x28,x13,-1777	 x13:0x00000000 x28=0xfffff90f
        8655000	       864	80002a20	0199af33	slt	x30,x19,x25	 x19:0x00000000 x25:0x00000000 x30=0x00000000
        8665000	       865	80002a24	6d9cdf37	lui	x30,0x6d9cd	 x30=0x6d9cd000
        8675000	       866	80002a28	03a27463	bgeu	x4,x26,80002a50	  x4:0xfffffff5 x26:0x00000000
        8685000	       867	00000000	00000013	addi	x0,x0,0	  x0:0x00000000
        8695000	       868	80002a4c	00000013	addi	x0,x0,0	  x0:0x00000000
        8705000	       869	80002a50	015d09b3	add	x19,x26,x21	 x26:0x00000000 x21:0x0000018b x19=0x0000018b
        8715000	       870	80002a54	0332fd13	andi	x26,x5,51	  x5:0x00000001 x26=0x00000001
        8725000	       871	80002a58	0b627293	andi	x5,x4,182	  x4:0xfffffff5  x5=0x000000b4
        8735000	       872	80002a5c	578f3493	sltiu	x9,x30,1400	 x30:0x6d9cd000  x9=0x00000000
        8745000	       873	80002a60	01ab8263	beq	x23,x26,80002a64	 x23:0x00000000 x26:0x00000001
        8755000	       874	80002a64	01397db3	and	x27,x18,x19	 x18:0x00000001 x19:0x0000018b x27=0x00000001
        8765000	       875	80002a68	01831d93	slli	x27,x6,0x18	  x6:0xffffff01 x27=0x01000000
        8775000	       876	80002a6c	00000013	addi	x0,x0,0	  x0:0x00000000
        8785000	       877	80002a70	00c21993	slli	x19,x4,0xc	  x4:0xfffffff5 x19=0xffff5000
        8795000	       878	80002a74	41d1d793	srai	x15,x3,0x1d	  x3:0xe8687791 x15=0xffffffff
        8805000	       879	80002a78	001c9333	sll	x6,x25,x1	 x25:0x00000000  x1:0x00000000  x6=0x00000000
        8815000	       880	80002a7c	df3ea317	auipc	x6,0xdf3ea	  x6=0x5f3eca78
        8825000	       881	80002a80	02cf1063	bne	x30,x12,80002aa0	 x30:0x6d9cd000 x12:0x00000001
        8835000	       882	00000000	00000013	addi	x0,x0,0	  x0:0x00000000
        8845000	       883	80002a9c	00000013	addi	x0,x0,0	  x0:0x00000000
        8855000	       884	80002aa0	002d1cb3	sll	x25,x26,x2	 x26:0x00000001  x2:0xe4e90541 x25=0x00000002
        8865000	       885	80002aa4	00006697	auipc	x13,0x6	 x13=0x80008aa0
        8875000	       886	80002aa8	bfa68693	addi	x13,x13,-1030	 x13:0x80008aa0 x13=0x8000869a
        8885000	       887	80002aac	0a968303	lb	x6,169(x13)	 x13:0x8000869a  x6=0xffffffaa PA:0x80008743
        8895000	       888	80002ab0	f0e08993	addi	x19,x1,-242	  x1:0x00000000 x19=0xffffff0e
        8905000	       889	80002ab4	414b0eb3	sub	x29,x22,x20	 x22:0x00000000 x20:0xe4e90541 x29=0x1b16fabf
        8915000	       890	80002ab8	f576c903	lbu	x18,-169(x13)	 x13:0x8000869a x18=0x00000087 PA:0x800085f1
        8925000	       891	80002abc	f4269623	sh	x2,-180(x13)	 x13:0x8000869a  x2:0xe4e90541 PA:0x800085e6
        8935000	       892	80002ac0	f9a69b23	sh	x26,-106(x13)	 x13:0x8000869a x26:0x00000001 PA:0x80008630
        8945000	       893	80002ac4	0ce6a283	lw	x5,206(x13)	 x13:0x8000869a  x5=0xf81de261 PA:0x80008768
        8955000	       894	80002ac8	09669d03	lh	x26,150(x13)	 x13:0x8000869a x26=0xffffd200 PA:0x80008730
        8965000	       895	80002acc	01c35893	srli	x17,x6,0x1c	  x6:0xffffffaa x17=0x0000000f
        8975000	       896	80002ad0	00177333	and	x6,x14,x1	 x14:0x80009fc4  x1:0x00000000  x6=0x00000000
        8985000	       897	80002ad4	f37685a3	sb	x23,-213(x13)	 x13:0x8000869a x23:0x00000000 PA:0x800085c5
        8995000	       898	80002ad8	01d7d933	srl	x18,x15,x29	 x15:0xffffffff x29:0x1b16fabf x18=0x00000001
        9005000	       899	80002adc	2651b893	sltiu	x17,x3,613	  x3:0xe8687791 x17=0x00000000
        9015000	       900	80002ae0	001f5113	srli	x2,x30,0x1	 x30:0x6d9cd000  x2=0x36ce6800
        9025000	       901	80002ae4	f5368ba3	sb	x19,-169(x13)	 x13:0x8000869a x19:0xffffff0e PA:0x800085f1
        9035000	       902	80002ae8	01d29c33	sll	x24,x5,x29	  x5:0xf81de261 x29:0x1b16fabf x24=0x80000000
        9045000	       903	80002aec	36baa617	auipc	x12,0x36baa	 x12=0xb6bacae8
        9055000	       904	80002af0	95a7c413	xori	x8,x15,-1702	 x15:0xffffffff  x8=0x000006a5
        9065000	       905	80002af4	fd76c403	lbu	x8,-41(x13)	 x13:0x8000869a  x8=0x000000dd PA:0x80008671
        9075000	       906	80002af8	00481893	slli	x17,x16,0x4	 x16:0x00000000 x17=0x00000000
        9085000	       907	80002afc	3b4ef113	andi	x2,x29,948	 x29:0x1b16fabf  x2=0x000002b4
        9095000	       908	80002b00	0178bb33	sltu	x22,x17,x23	 x17:0x00000000 x23:0x00000000 x22=0x00000000
        9105000	       909	80002b04	0846cb03	lbu	x22,132(x13)	 x13:0x8000869a x22=0x0000009d PA:0x8000871e
        9115000	       910	80002b08	00879433	sll	x8,x15,x8	 x15:0xffffffff  x8:0x000000dd  x8=0xe0000000
        9125000	       911	80002b0c	00e68fa3	sb	x14,31(x13)	 x13:0x8000869a x14:0x80009fc4 PA:0x800086b9
        9135000	       912	80002b10	58fee493	ori	x9,x29,1423	 x29:0x1b16fabf  x9=0x1b16ffbf
        9145000	       913	80002b14	f7e68983	lb	x19,-130(x13)	 x13:0x8000869a x19=0xffffffd8 PA:0x80008618
        9155000	       914	80002b18	d1f47793	andi	x15,x8,-737	  x8:0xe0000000 x15=0xe0000000
        9165000	       915	80002b1c	0099b433	sltu	x8,x19,x9	 x19:0xffffffd8  x9:0x1b16ffbf  x8=0x00000000
        9175000	       916	80002b20	7e6bbb93	sltiu	x23,x23,2022	 x23:0x00000000 x23=0x00000001
        9185000	       917	80002b24	0126c583	lbu	x11,18(x13)	 x13:0x8000869a x11=0x00000010 PA:0x800086ac
        9195000	       918	80002b28	f3b68003	lb	x0,-197(x13)	 x13:0x8000869a PA:0x800085d5
        9205000	       919	80002b2c	00715993	srli	x19,x2,0x7	  x2:0x000002b4 x19=0x00000005
        9215000	       920	80002b30	0286dc83	lhu	x25,40(x13)	 x13:0x8000869a x25=0x00002fcd PA:0x800086c2
        9225000	       921	80002b34	43ce0593	addi	x11,x28,1084	 x28:0xfffff90f x11=0xfffffd4b
        9235000	       922	80002b38	06a68903	lb	x18,106(x13)	 x13:0x8000869a x18=0x00000047 PA:0x80008704
        9245000	       923	80002b3c	04a68b83	lb	x23,74(x13)	 x13:0x8000869a x23=0xffffffae PA:0x800086e4
        9255000	       924	80002b40	fa268623	sb	x2,-84(x13)	 x13:0x8000869a  x2:0x000002b4 PA:0x80008646
        9265000	       925	80002b44	01b560b3	or	x1,x10,x27	 x10:0x00000000 x27:0x01000000  x1=0x01000000
        9275000	       926	80002b48	f526ab83	lw	x23,-174(x13)	 x13:0x8000869a x23=0x799f0051 PA:0x800085ec
        9285000	       927	80002b4c	f2b6c183	lbu	x3,-213(x13)	 x13:0x8000869a  x3=0x00000000 PA:0x800085c5
        9295000	       928	80002b50	40aadf33	sra	x30,x21,x10	 x21:0x0000018b x10:0x00000000 x30=0x0000018b
        9305000	       929	80002b54	0b168603	lb	x12,177(x13)	 x13:0x8000869a x12=0x00000035 PA:0x8000874b
        9315000	       930	80002b58	985c7993	andi	x19,x24,-1659	 x24:0x80000000 x19=0x80000000
        9325000	       931	80002b5c	000837b3	sltu	x15,x16,x0	 x16:0x00000000  x0:0x00000000 x15=0x00000000
        9335000	       932	80002b60	00c18533	add	x10,x3,x12	  x3:0x00000000 x12:0x00000035 x10=0x00000035
        9345000	       933	80002b64	01ddaeb3	slt	x29,x27,x29	 x27:0x01000000 x29:0x1b16fabf x29=0x00000001
        9355000	       934	80002b68	5f246593	ori	x11,x8,1522	  x8:0x00000000 x11=0x000005f2
        9365000	       935	80002b6c	018c9313	slli	x6,x25,0x18	 x25:0x00002fcd  x6=0xcd000000
        9375000	       936	80002b70	402b5593	srai	x11,x22,0x2	 x22:0x0000009d x11=0x00000027
        9385000	       937	80002b74	00d533b3	sltu	x7,x10,x13	 x10:0x00000035 x13:0x8000869a  x7=0x00000001
        9395000	       938	80002b78	004b9693	slli	x13,x23,0x4	 x23:0x799f0051 x13=0x99f00510
        9405000	       939	80002b7c	ebe47393	andi	x7,x8,-322	  x8:0x00000000  x7=0x00000000
        9415000	       940	80002b80	004bb933	sltu	x18,x23,x4	 x23:0x799f0051  x4:0xfffffff5 x18=0x00000001
        9425000	       941	80002b84	c2a94a93	xori	x21,x18,-982	 x18:0x00000001 x21=0xfffffc2b
        9435000	       942	80002b88	0c35b513	sltiu	x10,x11,195	 x11:0x00000027 x10=0x00000001
        9445000	       943	80002b8c	d502ad93	slti	x27,x5,-688	  x5:0xf81de261 x27=0x00000001
        9455000	       944	80002b90	00db9613	slli	x12,x23,0xd	 x23:0x799f0051 x12=0xe00a2000
        9465000	       945	80002b94	007a5e33	srl	x28,x20,x7	 x20:0xe4e90541  x7:0x00000000 x28=0xe4e90541
        9475000	       946	80002b98	00b59c63	bne	x11,x11,80002bb0	 x11:0x00000027 x11:0x00000027
        9485000	       947	80002b9c	04e21063	bne	x4,x14,80002bdc	  x4:0xfffffff5 x14:0x80009fc4
        9495000	       948	00000000	00000013	addi	x0,x0,0	  x0:0x00000000
        9505000	       949	80002bd8	00000013	addi	x0,x0,0	  x0:0x00000000
        9515000	       950	80002bdc	47917113	andi	x2,x2,1145	  x2:0x000002b4  x2=0x00000030
        9525000	       951	80002be0	01f56e63	bltu	x10,x31,80002bfc	 x10:0x00000001 x31:0x80009ee0
        9535000	       952	00000000	00000013	addi	x0,x0,0	  x0:0x00000000
        9545000	       953	80002bf8	00000013	addi	x0,x0,0	  x0:0x00000000
        9555000	       954	80002bfc	003c3133	sltu	x2,x24,x3	 x24:0x80000000  x3:0x00000000  x2=0x00000000
        9565000	       955	80002c00	05bcd063	bge	x25,x27,80002c40	 x25:0x00002fcd x27:0x00000001
        9575000	       956	00000000	00000013	addi	x0,x0,0	  x0:0x00000000
        9585000	       957	80002c3c	00000013	addi	x0,x0,0	  x0:0x00000000
        9595000	       958	80002c40	a3ea8413	addi	x8,x21,-1474	 x21:0xfffffc2b  x8=0xfffff669
        9605000	       959	80002c44	02f81663	bne	x16,x15,80002c70	 x16:0x00000000 x15:0x00000000
        9615000	       960	80002c48	7dda7b37	lui	x22,0x7dda7	 x22=0x7dda7000
        9625000	       961	80002c4c	00001b13	slli	x22,x0,0x0	  x0:0x00000000 x22=0x00000000
        9635000	       962	80002c50	01aa83b3	add	x7,x21,x26	 x21:0xfffffc2b x26:0xffffd200  x7=0xffffce2b
        9645000	       963	80002c54	00a13cb3	sltu	x25,x2,x10	  x2:0x00000000 x10:0x00000001 x25=0x00000001
        9655000	       964	80002c58	f2bed4b7	lui	x9,0xf2bed	  x9=0xf2bed000
        9665000	       965	80002c5c	00fc61b3	or	x3,x24,x15	 x24:0x80000000 x15:0x00000000  x3=0x80000000
        9675000	       966	80002c60	00d5f2b3	and	x5,x11,x13	 x11:0x00000027 x13:0x99f00510  x5=0x00000000
        9685000	       967	80002c64	002b3333	sltu	x6,x22,x2	 x22:0x00000000  x2:0x00000000  x6=0x00000000
        9695000	       968	80002c68	00145293	srli	x5,x8,0x1	  x8:0xfffff669  x5=0x7ffffb34
        9705000	       969	80002c6c	01f1cd33	xor	x26,x3,x31	  x3:0x80000000 x31:0x80009ee0 x26=0x00009ee0
        9715000	       970	80002c70	a64fe913	ori	x18,x31,-1436	 x31:0x80009ee0 x18=0xfffffee4
        9725000	       971	80002c74	0470d263	bge	x1,x7,80002cb8	  x1:0x01000000  x7:0xffffce2b
        9735000	       972	00000000	00000013	addi	x0,x0,0	  x0:0x00000000
        9745000	       973	80002cb4	00000013	addi	x0,x0,0	  x0:0x00000000
        9755000	       974	80002cb8	40990533	sub	x10,x18,x9	 x18:0xfffffee4  x9:0xf2bed000 x10=0x0d412ee4
        9765000	       975	80002cbc	03aa8493	addi	x9,x21,58	 x21:0xfffffc2b  x9=0xfffffc65
        9775000	       976	80002cc0	f7931117	auipc	x2,0xf7931	  x2=0x77933cbc
        9785000	       977	80002cc4	0044c663	blt	x9,x4,80002cd0	  x9:0xfffffc65  x4:0xfffffff5
        9795000	       978	00000000	00000013	addi	x0,x0,0	  x0:0x00000000
        9805000	       979	80002ccc	00000013	addi	x0,x0,0	  x0:0x00000000
        9815000	       980	80002cd0	01344d33	xor	x26,x8,x19	  x8:0xfffff669 x19:0x80000000 x26=0x7ffff669
        9825000	       981	80002cd4	0f751a63	bne	x10,x23,80002dc8	 x10:0x0d412ee4 x23:0x799f0051
        9835000	       982	00000000	00000013	addi	x0,x0,0	  x0:0x00000000
        9845000	       983	80002dc4	00000013	addi	x0,x0,0	  x0:0x00000000
        9855000	       984	80002dc8	00a5ce63	blt	x11,x10,80002de4	 x11:0x00000027 x10:0x0d412ee4
        9865000	       985	00000000	00000013	addi	x0,x0,0	  x0:0x00000000
        9875000	       986	80002de0	00000013	addi	x0,x0,0	  x0:0x00000000
        9885000	       987	80002de4	00687833	and	x16,x16,x6	 x16:0x00000000  x6:0x00000000 x16=0x00000000
        9895000	       988	80002de8	1a6cfe13	andi	x28,x25,422	 x25:0x00000001 x28=0x00000000
        9905000	       989	80002dec	00000013	addi	x0,x0,0	  x0:0x00000000
        9915000	       990	80002df0	40b98933	sub	x18,x19,x11	 x19:0x80000000 x11:0x00000027 x18=0x7fffffd9
        9925000	       991	80002df4	41448333	sub	x6,x9,x20	  x9:0xfffffc65 x20:0xe4e90541  x6=0x1b16f724
        9935000	       992	80002df8	0145b6b3	sltu	x13,x11,x20	 x11:0x00000027 x20:0xe4e90541 x13=0x00000001
        9945000	       993	80002dfc	0013ccb3	xor	x25,x7,x1	  x7:0xffffce2b  x1:0x01000000 x25=0xfeffce2b
        9955000	       994	80002e00	403b59b3	sra	x19,x22,x3	 x22:0x00000000  x3:0x80000000 x19=0x00000000
        9965000	       995	80002e04	e6b18c13	addi	x24,x3,-405	  x3:0x80000000 x24=0x7ffffe6b
        9975000	       996	80002e08	00510e63	beq	x2,x5,80002e24	  x2:0x77933cbc  x5:0x7ffffb34
        9985000	       997	80002e0c	00000013	addi	x0,x0,0	  x0:0x00000000
        9995000	       998	80002e10	40c35c13	srai	x24,x6,0xc	  x6:0x1b16f724 x24=0x0001b16f
       10005000	       999	80002e14	d35da013	slti	x0,x27,-715	 x27:0x00000001
       10015000	      1000	80002e18	3ef36097	auipc	x1,0x3ef36	  x1=0xbef38e14
       10025000	      1001	80002e1c	aae8b337	lui	x6,0xaae8b	  x6=0xaae8b000
       10035000	      1002	80002e20	01cb1633	sll	x12,x22,x28	 x22:0x00000000 x28:0x00000000 x12=0x00000000
       10045000	      1003	80002e24	040b7863	bgeu	x22,x0,80002e74	 x22:0x00000000  x0:0x00000000
       10055000	      1004	00000000	00000013	addi	x0,x0,0	  x0:0x00000000
       10065000	      1005	80002e70	00000013	addi	x0,x0,0	  x0:0x00000000
       10075000	      1006	80002e74	03e1ea63	bltu	x3,x30,80002ea8	  x3:0x80000000 x30:0x0000018b
       10085000	      1007	80002e78	00c67233	and	x4,x12,x12	 x12:0x00000000 x12:0x00000000  x4=0x00000000
       10095000	      1008	80002e7c	01b948b3	xor	x17,x18,x27	 x18:0x7fffffd9 x27:0x00000001 x17=0x7fffffd8
       10105000	      1009	80002e80	0152e833	or	x16,x5,x21	  x5:0x7ffffb34 x21:0xfffffc2b x16=0xffffff3f
       10115000	      1010	80002e84	4f520693	addi	x13,x4,1269	  x4:0x00000000 x13=0x000004f5
       10125000	      1011	80002e88	2730bab7	lui	x21,0x2730b	 x21=0x2730b000
       10135000	      1012	80002e8c	416f0eb3	sub	x29,x30,x22	 x30:0x0000018b x22:0x00000000 x29=0x0000018b
       10145000	      1013	80002e90	001b7833	and	x16,x22,x1	 x22:0x00000000  x1:0xbef38e14 x16=0x00000000
       10155000	      1014	80002e94	004cdab3	srl	x21,x25,x4	 x25:0xfeffce2b  x4:0x00000000 x21=0xfeffce2b
       10165000	      1015	80002e98	04eef463	bgeu	x29,x14,80002ee0	 x29:0x0000018b x14:0x80009fc4
       10175000	      1016	80002e9c	01fc9313	slli	x6,x25,0x1f	 x25:0xfeffce2b  x6=0x80000000
       10185000	      1017	80002ea0	041d0063	beq	x26,x1,80002ee0	 x26:0x7ffff669  x1:0xbef38e14
       10195000	      1018	80002ea4	a901b493	sltiu	x9,x3,-1392	  x3:0x80000000  x9=0x00000001
       10205000	      1019	80002ea8	013898b3	sll	x17,x17,x19	 x17:0x7fffffd8 x19:0x00000000 x17=0x7fffffd8
       10215000	      1020	80002eac	00aa5f13	srli	x30,x20,0xa	 x20:0xe4e90541 x30=0x00393a41
       10225000	      1021	80002eb0	0342ec63	bltu	x5,x20,80002ee8	  x5:0x7ffffb34 x20:0xe4e90541
       10235000	      1022	00000000	00000013	addi	x0,x0,0	  x0:0x00000000
       10245000	      1023	80002ee4	00000013	addi	x0,x0,0	  x0:0x00000000
       10255000	      1024	80002ee8	008c9263	bne	x25,x8,80002eec	 x25:0xfeffce2b  x8:0xfffff669
       10265000	      1025	00000000	00000013	addi	x0,x0,0	  x0:0x00000000
       10275000	      1026	80002ee8	00000013	addi	x0,x0,0	  x0:0x00000000
       10285000	      1027	80002eec	75f97413	andi	x8,x18,1887	 x18:0x7fffffd9  x8=0x00000759
       10295000	      1028	80002ef0	bc34fe13	andi	x28,x9,-1085	  x9:0x00000001 x28=0x00000001
       10305000	      1029	80002ef4	00827633	and	x12,x4,x8	  x4:0x00000000  x8:0x00000759 x12=0x00000000
       10315000	      1030	80002ef8	01105d33	srl	x26,x0,x17	  x0:0x00000000 x17:0x7fffffd8 x26=0x00000000
       10325000	      1031	80002efc	01f7b033	sltu	x0,x15,x31	 x15:0x00000000 x31:0x80009ee0
       10335000	      1032	80002f00	01c1f333	and	x6,x3,x28	  x3:0x80000000 x28:0x00000001  x6=0x00000000
       10345000	      1033	80002f04	40a4d093	srai	x1,x9,0xa	  x9:0x00000001  x1=0x00000000
       10355000	      1034	80002f08	05eb7863	bgeu	x22,x30,80002f58	 x22:0x00000000 x30:0x00393a41
       10365000	      1035	80002f0c	41180933	sub	x18,x16,x17	 x16:0x00000000 x17:0x7fffffd8 x18=0x80000028
       10375000	      1036	80002f10	00b8edb3	or	x27,x17,x11	 x17:0x7fffffd8 x11:0x00000027 x27=0x7fffffff
       10385000	      1037	80002f14	325bc413	xori	x8,x23,805	 x23:0x799f0051  x8=0x799f0374
       10395000	      1038	80002f18	73547513	andi	x10,x8,1845	  x8:0x799f0374 x10=0x00000334
       10405000	      1039	80002f1c	002e8633	add	x12,x29,x2	 x29:0x0000018b  x2:0x77933cbc x12=0x77933e47
       10415000	      1040	80002f20	00000013	addi	x0,x0,0	  x0:0x00000000
       10425000	      1041	80002f24	03f3ca63	blt	x7,x31,80002f58	  x7:0xffffce2b x31:0x80009ee0
       10435000	      1042	80002f28	acbe4793	xori	x15,x28,-1333	 x28:0x00000001 x15=0xfffffaca
       10445000	      1043	80002f2c	41188433	sub	x8,x17,x17	 x17:0x7fffffd8 x17:0x7fffffd8  x8=0x00000000
       10455000	      1044	80002f30	00b934b3	sltu	x9,x18,x11	 x18:0x80000028 x11:0x00000027  x9=0x00000000
       10465000	      1045	80002f34	01875c33	srl	x24,x14,x24	 x14:0x80009fc4 x24:0x0001b16f x24=0x00010001
       10475000	      1046	80002f38	609ffd93	andi	x27,x31,1545	 x31:0x80009ee0 x27=0x00000600
       10485000	      1047	80002f3c	406585b3	sub	x11,x11,x6	 x11:0x00000027  x6:0x00000000 x11=0x00000027
       10495000	      1048	80002f40	01a05463	bge	x0,x26,80002f48	  x0:0x00000000 x26:0x00000000
       10505000	      1049	00000000	00000013	addi	x0,x0,0	  x0:0x00000000
       10515000	      1050	80002f44	00000013	addi	x0,x0,0	  x0:0x00000000
       10525000	      1051	80002f48	05410863	beq	x2,x20,80002f98	  x2:0x77933cbc x20:0xe4e90541
       10535000	      1052	80002f4c	008bfe63	bgeu	x23,x8,80002f68	 x23:0x799f0051  x8:0x00000000
       10545000	      1053	00000000	00000013	addi	x0,x0,0	  x0:0x00000000
       10555000	      1054	80002f64	00000013	addi	x0,x0,0	  x0:0x00000000
       10565000	      1055	80002f68	05a4d463	bge	x9,x26,80002fb0	  x9:0x00000000 x26:0x00000000
       10575000	      1056	00000000	00000013	addi	x0,x0,0	  x0:0x00000000
       10585000	      1057	80002fac	00000013	addi	x0,x0,0	  x0:0x00000000
       10595000	      1058	80002fb0	00f3be33	sltu	x28,x7,x15	  x7:0xffffce2b x15:0xfffffaca x28=0x00000001
       10605000	      1059	80002fb4	a7bcb617	auipc	x12,0xa7bcb	 x12=0x27bcdfb0
       10615000	      1060	80002fb8	00771663	bne	x14,x7,80002fc4	 x14:0x80009fc4  x7:0xffffce2b
       10625000	      1061	00000000	00000013	addi	x0,x0,0	  x0:0x00000000
       10635000	      1062	80002fc0	00000013	addi	x0,x0,0	  x0:0x00000000
       10645000	      1063	80002fc4	006f4f33	xor	x30,x30,x6	 x30:0x00393a41  x6:0x00000000 x30=0x00393a41
       10655000	      1064	80002fc8	00998c33	add	x24,x19,x9	 x19:0x00000000  x9:0x00000000 x24=0x00000000
       10665000	      1065	80002fcc	00000013	addi	x0,x0,0	  x0:0x00000000
       10675000	      1066	80002fd0	cf3201b7	lui	x3,0xcf320	  x3=0xcf320000
       10685000	      1067	80002fd4	00cd2633	slt	x12,x26,x12	 x26:0x00000000 x12:0x27bcdfb0 x12=0x00000001
       10695000	      1068	80002fd8	013dd393	srli	x7,x27,0x13	 x27:0x00000600  x7=0x00000000
       10705000	      1069	80002fdc	0092eb33	or	x22,x5,x9	  x5:0x7ffffb34  x9:0x00000000 x22=0x7ffffb34
       10715000	      1070	80002fe0	014f7db3	and	x27,x30,x20	 x30:0x00393a41 x20:0xe4e90541 x27=0x00290041
       10725000	      1071	80002fe4	00e405b3	add	x11,x8,x14	  x8:0x00000000 x14:0x80009fc4 x11=0x80009fc4
       10735000	      1072	80002fe8	00eace63	blt	x21,x14,80003004	 x21:0xfeffce2b x14:0x80009fc4
       10745000	      1073	80002fec	0433d063	bge	x7,x3,8000302c	  x7:0x00000000  x3:0xcf320000
       10755000	      1074	00000000	00000013	addi	x0,x0,0	  x0:0x00000000
       10765000	      1075	80003028	00000013	addi	x0,x0,0	  x0:0x00000000
       10775000	      1076	8000302c	27d08113	addi	x2,x1,637	  x1:0x00000000  x2=0x0000027d
       10785000	      1077	80003030	0204e263	bltu	x9,x0,80003054	  x9:0x00000000  x0:0x00000000
       10795000	      1078	80003034	db2ec413	xori	x8,x29,-590	 x29:0x0000018b  x8=0xfffffc39
       10805000	      1079	80003038	40c15033	sra	x0,x2,x12	  x2:0x0000027d x12:0x00000001
       10815000	      1080	8000303c	4183d9b3	sra	x19,x7,x24	  x7:0x00000000 x24:0x00000000 x19=0x00000000
       10825000	      1081	80003040	01d3fab3	and	x21,x7,x29	  x7:0x00000000 x29:0x0000018b x21=0x00000000
       10835000	      1082	80003044	8fa04193	xori	x3,x0,-1798	  x0:0x00000000  x3=0xfffff8fa
       10845000	      1083	80003048	00000013	addi	x0,x0,0	  x0:0x00000000
       10855000	      1084	8000304c	0087bc33	sltu	x24,x15,x8	 x15:0xfffffaca  x8:0xfffffc39 x24=0x00000001
       10865000	      1085	80003050	eabd3c13	sltiu	x24,x26,-341	 x26:0x00000000 x24=0x00000001
       10875000	      1086	80003054	01e37d33	and	x26,x6,x30	  x6:0x00000000 x30:0x00393a41 x26=0x00000000
       10885000	      1087	80003058	41755893	srai	x17,x10,0x17	 x10:0x00000334 x17=0x00000000
       10895000	      1088	8000305c	00d4cc63	blt	x9,x13,80003074	  x9:0x00000000 x13:0x000004f5
       10905000	      1089	00000000	00000013	addi	x0,x0,0	  x0:0x00000000
       10915000	      1090	80003070	00000013	addi	x0,x0,0	  x0:0x00000000
       10925000	      1091	80003074	01f0b4b3	sltu	x9,x1,x31	  x1:0x00000000 x31:0x80009ee0  x9=0x00000001
       10935000	      1092	80003078	0095a233	slt	x4,x11,x9	 x11:0x80009fc4  x9:0x00000001  x4=0x00000001
       10945000	      1093	8000307c	0066ca63	blt	x13,x6,80003090	 x13:0x000004f5  x6:0x00000000
       10955000	      1094	80003080	017a8433	add	x8,x21,x23	 x21:0x00000000 x23:0x799f0051  x8=0x799f0051
       10965000	      1095	80003084	01b8c4b3	xor	x9,x17,x27	 x17:0x00000000 x27:0x00290041  x9=0x00290041
       10975000	      1096	80003088	007614b3	sll	x9,x12,x7	 x12:0x00000001  x7:0x00000000  x9=0x00000001
       10985000	      1097	8000308c	01b525b3	slt	x11,x10,x27	 x10:0x00000334 x27:0x00290041 x11=0x00000001
       10995000	      1098	80003090	00ab4f33	xor	x30,x22,x10	 x22:0x7ffffb34 x10:0x00000334 x30=0x7ffff800
       11005000	      1099	80003094	02b0e663	bltu	x1,x11,800030c0	  x1:0x00000000 x11:0x00000001
       11015000	      1100	00000000	00000013	addi	x0,x0,0	  x0:0x00000000
       11025000	      1101	800030bc	00000013	addi	x0,x0,0	  x0:0x00000000
       11035000	      1102	800030c0	01d89263	bne	x17,x29,800030c4	 x17:0x00000000 x29:0x0000018b
       11045000	      1103	00000000	00000013	addi	x0,x0,0	  x0:0x00000000
       11055000	      1104	800030c0	00000013	addi	x0,x0,0	  x0:0x00000000
       11065000	      1105	800030c4	4160df13	srai	x30,x1,0x16	  x1:0x00000000 x30=0x00000000
       11075000	      1106	800030c8	01218e63	beq	x3,x18,800030e4	  x3:0xfffff8fa x18:0x80000028
       11085000	      1107	800030cc	00000013	addi	x0,x0,0	  x0:0x00000000
       11095000	      1108	800030d0	e1ffb513	sltiu	x10,x31,-481	 x31:0x80009ee0 x10=0x00000001
       11105000	      1109	800030d4	6b27fb97	auipc	x23,0x6b27f	 x23=0xeb2820d0
       11115000	      1110	800030d8	014cee63	bltu	x25,x20,800030f4	 x25:0xfeffce2b x20:0xe4e90541
       11125000	      1111	800030dc	23772813	slti	x16,x14,567	 x14:0x80009fc4 x16=0x00000001
       11135000	      1112	800030e0	6adc8613	addi	x12,x25,1709	 x25:0xfeffce2b x12=0xfeffd4d8
       11145000	      1113	800030e4	00b246b3	xor	x13,x4,x11	  x4:0x00000001 x11:0x00000001 x13=0x00000000
       11155000	      1114	800030e8	00e8adb3	slt	x27,x17,x14	 x17:0x00000000 x14:0x80009fc4 x27=0x00000000
       11165000	      1115	800030ec	01bcd193	srli	x3,x25,0x1b	 x25:0xfeffce2b  x3=0x0000001f
       11175000	      1116	800030f0	0053d933	srl	x18,x7,x5	  x7:0x00000000  x5:0x7ffffb34 x18=0x00000000
       11185000	      1117	800030f4	01261e33	sll	x28,x12,x18	 x12:0xfeffd4d8 x18:0x00000000 x28=0xfeffd4d8
       11195000	      1118	800030f8	7cf82493	slti	x9,x16,1999	 x16:0x00000001  x9=0x00000001
       11205000	      1119	800030fc	79cc8b93	addi	x23,x25,1948	 x25:0xfeffce2b x23=0xfeffd5c7
       11215000	      1120	80003100	04e80463	beq	x16,x14,80003148	 x16:0x00000001 x14:0x80009fc4
       11225000	      1121	80003104	00433c33	sltu	x24,x6,x4	  x6:0x00000000  x4:0x00000001 x24=0x00000001
       11235000	      1122	80003108	00a9d993	srli	x19,x19,0xa	 x19:0x00000000 x19=0x00000000
       11245000	      1123	8000310c	00000013	addi	x0,x0,0	  x0:0x00000000
       11255000	      1124	80003110	00b24263	blt	x4,x11,80003114	  x4:0x00000001 x11:0x00000001
       11265000	      1125	80003114	00a2b033	sltu	x0,x5,x10	  x5:0x7ffffb34 x10:0x00000001
       11275000	      1126	80003118	01ef5a63	bge	x30,x30,8000312c	 x30:0x00000000 x30:0x00000000
       11285000	      1127	00000000	00000013	addi	x0,x0,0	  x0:0x00000000
       11295000	      1128	80003128	00000013	addi	x0,x0,0	  x0:0x00000000
       11305000	      1129	8000312c	01d987b3	add	x15,x19,x29	 x19:0x00000000 x29:0x0000018b x15=0x0000018b
       11315000	      1130	80003130	db77c017	auipc	x0,0xdb77c	
       11325000	      1131	80003134	397b4917	auipc	x18,0x397b4	 x18=0xb97b7130
       11335000	      1132	80003138	012e9e63	bne	x29,x18,80003154	 x29:0x0000018b x18:0xb97b7130
       11345000	      1133	00000000	00000013	addi	x0,x0,0	  x0:0x00000000
       11355000	      1134	80003150	00000013	addi	x0,x0,0	  x0:0x00000000
       11365000	      1135	80003154	519a0813	addi	x16,x20,1305	 x20:0xe4e90541 x16=0xe4e90a5a
       11375000	      1136	80003158	32c08993	addi	x19,x1,812	  x1:0x00000000 x19=0x0000032c
       11385000	      1137	8000315c	05e8e063	bltu	x17,x30,8000319c	 x17:0x00000000 x30:0x00000000
       11395000	      1138	80003160	310fb293	sltiu	x5,x31,784	 x31:0x80009ee0  x5=0x00000000
       11405000	      1139	80003164	0007de93	srli	x29,x15,0x0	 x15:0x0000018b x29=0x0000018b
       11415000	      1140	80003168	84620c17	auipc	x24,0x84620	 x24=0x04623164
       11425000	      1141	8000316c	016be033	or	x0,x23,x22	 x23:0xfeffd5c7 x22:0x7ffffb34
       11435000	      1142	80003170	00329b93	slli	x23,x5,0x3	  x5:0x00000000 x23=0x00000000
       11445000	      1143	80003174	04cbc063	blt	x23,x12,800031b4	 x23:0x00000000 x12:0xfeffd4d8
       11455000	      1144	80003178	99ee4a93	xori	x21,x28,-1634	 x28:0xfeffd4d8 x21=0x01002d46
       11465000	      1145	8000317c	0169d233	srl	x4,x19,x22	 x19:0x0000032c x22:0x7ffffb34  x4=0x00000000
       11475000	      1146	80003180	0172d2b3	srl	x5,x5,x23	  x5:0x00000000 x23:0x00000000  x5=0x00000000
       11485000	      1147	80003184	41c7dab3	sra	x21,x15,x28	 x15:0x0000018b x28:0xfeffd4d8 x21=0x00000000
       11495000	      1148	80003188	005dd4b3	srl	x9,x27,x5	 x27:0x00000000  x5:0x00000000  x9=0x00000000
       11505000	      1149	8000318c	5b34a613	slti	x12,x9,1459	  x9:0x00000000 x12=0x00000001
       11515000	      1150	80003190	01eb4bb3	xor	x23,x22,x30	 x22:0x7ffffb34 x30:0x00000000 x23=0x7ffffb34
       11525000	      1151	80003194	4106de33	sra	x28,x13,x16	 x13:0x00000000 x16:0xe4e90a5a x28=0x00000000
       11535000	      1152	80003198	0011f5b3	and	x11,x3,x1	  x3:0x0000001f  x1:0x00000000 x11=0x00000000
       11545000	      1153	8000319c	003c97b3	sll	x15,x25,x3	 x25:0xfeffce2b  x3:0x0000001f x15=0x80000000
       11555000	      1154	800031a0	4211f493	andi	x9,x3,1057	  x3:0x0000001f  x9=0x00000001
       11565000	      1155	800031a4	05671063	bne	x14,x22,800031e4	 x14:0x80009fc4 x22:0x7ffffb34
       11575000	      1156	00000000	00000013	addi	x0,x0,0	  x0:0x00000000
       11585000	      1157	800031e0	00000013	addi	x0,x0,0	  x0:0x00000000
       11595000	      1158	800031e4	406ed3b3	sra	x7,x29,x6	 x29:0x0000018b  x6:0x00000000  x7=0x0000018b
       11605000	      1159	800031e8	197ac197	auipc	x3,0x197ac	  x3=0x997af1e4
       11615000	      1160	800031ec	015c9b13	slli	x22,x25,0x15	 x25:0xfeffce2b x22=0xc5600000
       11625000	      1161	800031f0	00000013	addi	x0,x0,0	  x0:0x00000000
       11635000	      1162	800031f4	00133933	sltu	x18,x6,x1	  x6:0x00000000  x1:0x00000000 x18=0x00000000
       11645000	      1163	800031f8	040f0263	beq	x30,x0,8000323c	 x30:0x00000000  x0:0x00000000
       11655000	      1164	00000000	00000013	addi	x0,x0,0	  x0:0x00000000
       11665000	      1165	80003238	00000013	addi	x0,x0,0	  x0:0x00000000
       11675000	      1166	8000323c	00000013	addi	x0,x0,0	  x0:0x00000000
       11685000	      1167	80003240	0151cc63	blt	x3,x21,80003258	  x3:0x997af1e4 x21:0x00000000
       11695000	      1168	00000000	00000013	addi	x0,x0,0	  x0:0x00000000
       11705000	      1169	80003254	00000013	addi	x0,x0,0	  x0:0x00000000
       11715000	      1170	80003258	04575263	bge	x14,x5,8000329c	 x14:0x80009fc4  x5:0x00000000
       11725000	      1171	8000325c	01e9f633	and	x12,x19,x30	 x19:0x0000032c x30:0x00000000 x12=0x00000000
       11735000	      1172	80003260	01d25463	bge	x4,x29,80003268	  x4:0x00000000 x29:0x0000018b
       11745000	      1173	80003264	0167d663	bge	x15,x22,80003270	 x15:0x80000000 x22:0xc5600000
       11755000	      1174	80003268	04f6f863	bgeu	x13,x15,800032b8	 x13:0x00000000 x15:0x80000000
       11765000	      1175	8000326c	013602b3	add	x5,x12,x19	 x12:0x00000000 x19:0x0000032c  x5=0x0000032c
       11775000	      1176	80003270	01018c33	add	x24,x3,x16	  x3:0x997af1e4 x16:0xe4e90a5a x24=0x7e63fc3e
       11785000	      1177	80003274	41565533	sra	x10,x12,x21	 x12:0x00000000 x21:0x00000000 x10=0x00000000
       11795000	      1178	80003278	0199c9b3	xor	x19,x19,x25	 x19:0x0000032c x25:0xfeffce2b x19=0xfeffcd07
       11805000	      1179	8000327c	00fae633	or	x12,x21,x15	 x21:0x00000000 x15:0x80000000 x12=0x80000000
       11815000	      1180	80003280	11870293	addi	x5,x14,280	 x14:0x80009fc4  x5=0x8000a0dc
       11825000	      1181	80003284	00000013	addi	x0,x0,0	  x0:0x00000000
       11835000	      1182	80003288	8448c293	xori	x5,x17,-1980	 x17:0x00000000  x5=0xfffff844
       11845000	      1183	8000328c	016aa233	slt	x4,x21,x22	 x21:0x00000000 x22:0xc5600000  x4=0x00000000
       11855000	      1184	80003290	00a557b3	srl	x15,x10,x10	 x10:0x00000000 x10:0x00000000 x15=0x00000000
       11865000	      1185	80003294	00d84663	blt	x16,x13,800032a0	 x16:0xe4e90a5a x13:0x00000000
       11875000	      1186	00000000	00000013	addi	x0,x0,0	  x0:0x00000000
       11885000	      1187	8000329c	00000013	addi	x0,x0,0	  x0:0x00000000
       11895000	      1188	800032a0	01462433	slt	x8,x12,x20	 x12:0x80000000 x20:0xe4e90541  x8=0x00000001
       11905000	      1189	800032a4	415e5633	sra	x12,x28,x21	 x28:0x00000000 x21:0x00000000 x12=0x00000000
       11915000	      1190	800032a8	4ddae217	auipc	x4,0x4ddae	  x4=0xcddb12a4
       11925000	      1191	800032ac	4180d3b3	sra	x7,x1,x24	  x1:0x00000000 x24:0x7e63fc3e  x7=0x00000000
       11935000	      1192	800032b0	01e8de63	bge	x17,x30,800032cc	 x17:0x00000000 x30:0x00000000
       11945000	      1193	00000000	00000013	addi	x0,x0,0	  x0:0x00000000
       11955000	      1194	800032c8	00000013	addi	x0,x0,0	  x0:0x00000000
       11965000	      1195	800032cc	cd26cb93	xori	x23,x13,-814	 x13:0x00000000 x23=0xfffffcd2
       11975000	      1196	800032d0	05b81063	bne	x16,x27,80003310	 x16:0xe4e90a5a x27:0x00000000
       11985000	      1197	00000000	00000013	addi	x0,x0,0	  x0:0x00000000
       11995000	      1198	8000330c	00000013	addi	x0,x0,0	  x0:0x00000000
       12005000	      1199	80003310	01acce63	blt	x25,x26,8000332c	 x25:0xfeffce2b x26:0x00000000
       12015000	      1200	00000000	00000013	addi	x0,x0,0	  x0:0x00000000
       12025000	      1201	80003328	00000013	addi	x0,x0,0	  x0:0x00000000
       12035000	      1202	8000332c	ac774e13	xori	x28,x14,-1337	 x14:0x80009fc4 x28=0x7fff6503
       12045000	      1203	80003330	01703833	sltu	x16,x0,x23	  x0:0x00000000 x23:0xfffffcd2 x16=0x00000001
       12055000	      1204	80003334	efaf4613	xori	x12,x30,-262	 x30:0x00000000 x12=0xfffffefa
       12065000	      1205	80003338	01d6cf33	xor	x30,x13,x29	 x13:0x00000000 x29:0x0000018b x30=0x0000018b
       12075000	      1206	8000333c	01923eb3	sltu	x29,x4,x25	  x4:0xcddb12a4 x25:0xfeffce2b x29=0x00000001
       12085000	      1207	80003340	eb58c193	xori	x3,x17,-331	 x17:0x00000000  x3=0xfffffeb5
       12095000	      1208	80003344	00405b33	srl	x22,x0,x4	  x0:0x00000000  x4:0xcddb12a4 x22=0x00000000
       12105000	      1209	80003348	01910c33	add	x24,x2,x25	  x2:0x0000027d x25:0xfeffce2b x24=0xfeffd0a8
       12115000	      1210	8000334c	05aa8863	beq	x21,x26,8000339c	 x21:0x00000000 x26:0x00000000
       12125000	      1211	00000000	00000013	addi	x0,x0,0	  x0:0x00000000
       12135000	      1212	80003398	00000013	addi	x0,x0,0	  x0:0x00000000
       12145000	      1213	8000339c	016ae1b3	or	x3,x21,x22	 x21:0x00000000 x22:0x00000000  x3=0x00000000
       12155000	      1214	800033a0	b9ca2893	slti	x17,x20,-1124	 x20:0xe4e90541 x17=0x00000001
       12165000	      1215	800033a4	57ed4393	xori	x7,x26,1406	 x26:0x00000000  x7=0x0000057e
       12175000	      1216	800033a8	013ed333	srl	x6,x29,x19	 x29:0x00000001 x19:0xfeffcd07  x6=0x00000000
       12185000	      1217	800033ac	04756863	bltu	x10,x7,800033fc	 x10:0x00000000  x7:0x0000057e
       12195000	      1218	00000000	00000013	addi	x0,x0,0	  x0:0x00000000
       12205000	      1219	800033f8	00000013	addi	x0,x0,0	  x0:0x00000000
       12215000	      1220	800033fc	7d0b8493	addi	x9,x23,2000	 x23:0xfffffcd2  x9=0x000004a2
       12225000	      1221	80003400	01676c63	bltu	x14,x22,80003418	 x14:0x80009fc4 x22:0x00000000
       12235000	      1222	80003404	000ddb13	srli	x22,x27,0x0	 x27:0x00000000 x22=0x00000000
       12245000	      1223	80003408	01185113	srli	x2,x16,0x11	 x16:0x00000001  x2=0x00000000
       12255000	      1224	8000340c	c216d917	auipc	x18,0xc216d	 x18=0x42170408
       12265000	      1225	80003410	00035193	srli	x3,x6,0x0	  x6:0x00000000  x3=0x00000000
       12275000	      1226	80003414	00645d13	srli	x26,x8,0x6	  x8:0x00000001 x26=0x00000000
       12285000	      1227	80003418	09832837	lui	x16,0x9832	 x16=0x09832000
       12295000	      1228	8000341c	013880b3	add	x1,x17,x19	 x17:0x00000001 x19:0xfeffcd07  x1=0xfeffcd08
       12305000	      1229	80003420	3ca5c913	xori	x18,x11,970	 x11:0x00000000 x18=0x000003ca
       12315000	      1230	80003424	0060ec33	or	x24,x1,x6	  x1:0xfeffcd08  x6:0x00000000 x24=0xfeffcd08
       12325000	      1231	80003428	01b44bb3	xor	x23,x8,x27	  x8:0x00000001 x27:0x00000000 x23=0x00000001
       12335000	      1232	8000342c	4146dc33	sra	x24,x13,x20	 x13:0x00000000 x20:0xe4e90541 x24=0x00000000
       12345000	      1233	80003430	88cd0813	addi	x16,x26,-1908	 x26:0x00000000 x16=0xfffff88c
       12355000	      1234	80003434	01aff9b3	and	x19,x31,x26	 x31:0x80009ee0 x26:0x00000000 x19=0x00000000
       12365000	      1235	80003438	02c2ec63	bltu	x5,x12,80003470	  x5:0xfffff844 x12:0xfffffefa
       12375000	      1236	00000000	00000013	addi	x0,x0,0	  x0:0x00000000
       12385000	      1237	8000346c	00000013	addi	x0,x0,0	  x0:0x00000000
       12395000	      1238	80003470	00006663	bltu	x0,x0,8000347c	  x0:0x00000000  x0:0x00000000
       12405000	      1239	80003474	0328ec63	bltu	x17,x18,800034ac	 x17:0x00000001 x18:0x000003ca
       12415000	      1240	00000000	00000013	addi	x0,x0,0	  x0:0x00000000
       12425000	      1241	800034a8	00000013	addi	x0,x0,0	  x0:0x00000000
       12435000	      1242	800034ac	400a8b33	sub	x22,x21,x0	 x21:0x00000000  x0:0x00000000 x22=0x00000000
       12445000	      1243	800034b0	290a8f13	addi	x30,x21,656	 x21:0x00000000 x30=0x00000290
       12455000	      1244	800034b4	369b4893	xori	x17,x22,873	 x22:0x00000000 x17=0x00000369
       12465000	      1245	800034b8	0147fe63	bgeu	x15,x20,800034d4	 x15:0x00000000 x20:0xe4e90541
       12475000	      1246	800034bc	042b6263	bltu	x22,x2,80003500	 x22:0x00000000  x2:0x00000000
       12485000	      1247	800034c0	41da0133	sub	x2,x20,x29	 x20:0xe4e90541 x29:0x00000001  x2=0xe4e90540
       12495000	      1248	800034c4	41905233	sra	x4,x0,x25	  x0:0x00000000 x25:0xfeffce2b  x4=0x00000000
       12505000	      1249	800034c8	41d08233	sub	x4,x1,x29	  x1:0xfeffcd08 x29:0x00000001  x4=0xfeffcd07
       12515000	      1250	800034cc	01f21813	slli	x16,x4,0x1f	  x4:0xfeffcd07 x16=0x80000000
       12525000	      1251	800034d0	03ad5c63	bge	x26,x26,80003508	 x26:0x00000000 x26:0x00000000
       12535000	      1252	00000000	00000013	addi	x0,x0,0	  x0:0x00000000
       12545000	      1253	80003504	00000013	addi	x0,x0,0	  x0:0x00000000
       12555000	      1254	80003508	40c65493	srai	x9,x12,0xc	 x12:0xfffffefa  x9=0xffffffff
       12565000	      1255	8000350c	b2388193	addi	x3,x17,-1245	 x17:0x00000369  x3=0xfffffe8c
       12575000	      1256	80003510	89b98893	addi	x17,x19,-1893	 x19:0x00000000 x17=0xfffff89b
       12585000	      1257	80003514	00000013	addi	x0,x0,0	  x0:0x00000000
       12595000	      1258	80003518	772e6493	ori	x9,x28,1906	 x28:0x7fff6503  x9=0x7fff6773
       12605000	      1259	8000351c	695e0513	addi	x10,x28,1685	 x28:0x7fff6503 x10=0x7fff6b98
       12615000	      1260	80003520	0044b4b3	sltu	x9,x9,x4	  x9:0x7fff6773  x4:0xfeffcd07  x9=0x00000001
       12625000	      1261	80003524	83a96e13	ori	x28,x18,-1990	 x18:0x000003ca x28=0xfffffbfa
       12635000	      1262	80003528	01772cb3	slt	x25,x14,x23	 x14:0x80009fc4 x23:0x00000001 x25=0x00000001
       12645000	      1263	8000352c	47e04913	xori	x18,x0,1150	  x0:0x00000000 x18=0x0000047e
       12655000	      1264	80003530	5a9df993	andi	x19,x27,1449	 x27:0x00000000 x19=0x00000000
       12665000	      1265	80003534	01d8e1b3	or	x3,x17,x29	 x17:0xfffff89b x29:0x00000001  x3=0xfffff89b
       12675000	      1266	80003538	000d6333	or	x6,x26,x0	 x26:0x00000000  x0:0x00000000  x6=0x00000000
       12685000	      1267	8000353c	0364ca63	blt	x9,x22,80003570	  x9:0x00000001 x22:0x00000000
       12695000	      1268	80003540	00857c63	bgeu	x10,x8,80003558	 x10:0x7fff6b98  x8:0x00000001
       12705000	      1269	00000000	00000013	addi	x0,x0,0	  x0:0x00000000
       12715000	      1270	80003554	00000013	addi	x0,x0,0	  x0:0x00000000
       12725000	      1271	80003558	8b2e0193	addi	x3,x28,-1870	 x28:0xfffffbfa  x3=0xfffff4ac
       12735000	      1272	8000355c	0aa3a693	slti	x13,x7,170	  x7:0x0000057e x13=0x00000000
       12745000	      1273	80003560	02d7e463	bltu	x15,x13,80003588	 x15:0x00000000 x13:0x00000000
       12755000	      1274	80003564	5ab53293	sltiu	x5,x10,1451	 x10:0x7fff6b98  x5=0x00000000
       12765000	      1275	80003568	0ca90293	addi	x5,x18,202	 x18:0x0000047e  x5=0x00000548
       12775000	      1276	8000356c	4001d693	srai	x13,x3,0x0	  x3:0xfffff4ac x13=0xfffff4ac
       12785000	      1277	80003570	fce83e13	sltiu	x28,x16,-50	 x16:0x80000000 x28=0x00000001
       12795000	      1278	80003574	01bad593	srli	x11,x21,0x1b	 x21:0x00000000 x11=0x00000000
       12805000	      1279	80003578	404250b3	sra	x1,x4,x4	  x4:0xfeffcd07  x4:0xfeffcd07  x1=0xfffdff9a
       12815000	      1280	8000357c	8a33e393	ori	x7,x7,-1885	  x7:0x0000057e  x7=0xfffffdff
       12825000	      1281	80003580	04074463	blt	x14,x0,800035c8	 x14:0x80009fc4  x0:0x00000000
       12835000	      1282	00000000	00000013	addi	x0,x0,0	  x0:0x00000000
       12845000	      1283	800035c4	00000013	addi	x0,x0,0	  x0:0x00000000
       12855000	      1284	800035c8	0577c863	blt	x15,x23,80003618	 x15:0x00000000 x23:0x00000001
       12865000	      1285	00000000	00000013	addi	x0,x0,0	  x0:0x00000000
       12875000	      1286	80003614	00000013	addi	x0,x0,0	  x0:0x00000000
       12885000	      1287	80003618	05e79863	bne	x15,x30,80003668	 x15:0x00000000 x30:0x00000290
       12895000	      1288	00000000	00000013	addi	x0,x0,0	  x0:0x00000000
       12905000	      1289	80003664	00000013	addi	x0,x0,0	  x0:0x00000000
       12915000	      1290	80003668	ef910c93	addi	x25,x2,-263	  x2:0xe4e90540 x25=0xe4e90439
       12925000	      1291	8000366c	401ad8b3	sra	x17,x21,x1	 x21:0x00000000  x1:0xfffdff9a x17=0x00000000
       12935000	      1292	80003670	01df70b3	and	x1,x30,x29	 x30:0x00000290 x29:0x00000001  x1=0x00000000
       12945000	      1293	80003674	01156033	or	x0,x10,x17	 x10:0x7fff6b98 x17:0x00000000
       12955000	      1294	80003678	01a99413	slli	x8,x19,0x1a	 x19:0x00000000  x8=0x00000000
       12965000	      1295	8000367c	40788db3	sub	x27,x17,x7	 x17:0x00000000  x7:0xfffffdff x27=0x00000201
       12975000	      1296	80003680	00da1263	bne	x20,x13,80003684	 x20:0xe4e90541 x13:0xfffff4ac
       12985000	      1297	00000000	00000013	addi	x0,x0,0	  x0:0x00000000
       12995000	      1298	80003680	00000013	addi	x0,x0,0	  x0:0x00000000
       13005000	      1299	80003684	01c82b33	slt	x22,x16,x28	 x16:0x80000000 x28:0x00000001 x22=0x00000001
       13015000	      1300	80003688	a53e4993	xori	x19,x28,-1453	 x28:0x00000001 x19=0xfffffa52
       13025000	      1301	8000368c	0fa37497	auipc	x9,0xfa37	  x9=0x8fa3a688
       13035000	      1302	80003690	01519663	bne	x3,x21,8000369c	  x3:0xfffff4ac x21:0x00000000
       13045000	      1303	00000000	00000013	addi	x0,x0,0	  x0:0x00000000
       13055000	      1304	80003698	00000013	addi	x0,x0,0	  x0:0x00000000
       13065000	      1305	8000369c	d88d2913	slti	x18,x26,-632	 x26:0x00000000 x18=0x00000000
       13075000	      1306	800036a0	015073b3	and	x7,x0,x21	  x0:0x00000000 x21:0x00000000  x7=0x00000000
       13085000	      1307	800036a4	03494663	blt	x18,x20,800036d0	 x18:0x00000000 x20:0xe4e90541
       13095000	      1308	800036a8	00000013	addi	x0,x0,0	  x0:0x00000000
       13105000	      1309	800036ac	00000013	addi	x0,x0,0	  x0:0x00000000
       13115000	      1310	800036b0	00eb5a63	bge	x22,x14,800036c4	 x22:0x00000001 x14:0x80009fc4
       13125000	      1311	00000000	00000013	addi	x0,x0,0	  x0:0x00000000
       13135000	      1312	800036c0	00000013	addi	x0,x0,0	  x0:0x00000000
       13145000	      1313	800036c4	02448263	beq	x9,x4,800036e8	  x9:0x8fa3a688  x4:0xfeffcd07
       13155000	      1314	800036c8	00375333	srl	x6,x14,x3	 x14:0x80009fc4  x3:0xfffff4ac  x6=0x00080009
       13165000	      1315	800036cc	016b6663	bltu	x22,x22,800036d8	 x22:0x00000001 x22:0x00000001
       13175000	      1316	800036d0	e3e9f793	andi	x15,x19,-450	 x19:0xfffffa52 x15=0xfffffa12
       13185000	      1317	800036d4	402ed393	srai	x7,x29,0x2	 x29:0x00000001  x7=0x00000000
       13195000	      1318	800036d8	04f79463	bne	x15,x15,80003720	 x15:0xfffffa12 x15:0xfffffa12
       13205000	      1319	800036dc	c8106d13	ori	x26,x0,-895	  x0:0x00000000 x26=0xfffffc81
       13215000	      1320	800036e0	1d2c7037	lui	x0,0x1d2c7	
       13225000	      1321	800036e4	52fe20b7	lui	x1,0x52fe2	  x1=0x52fe2000
       13235000	      1322	800036e8	01287e63	bgeu	x16,x18,80003704	 x16:0x80000000 x18:0x00000000
       13245000	      1323	00000000	00000013	addi	x0,x0,0	  x0:0x00000000
       13255000	      1324	80003700	00000013	addi	x0,x0,0	  x0:0x00000000
       13265000	      1325	80003704	199ab493	sltiu	x9,x21,409	 x21:0x00000000  x9=0x00000001
       13275000	      1326	80003708	e5702d37	lui	x26,0xe5702	 x26=0xe5702000
       13285000	      1327	8000370c	5d022893	slti	x17,x4,1488	  x4:0xfeffcd07 x17=0x00000001
       13295000	      1328	80003710	41c85313	srai	x6,x16,0x1c	 x16:0x80000000  x6=0xfffffff8
       13305000	      1329	80003714	13592ab7	lui	x21,0x13592	 x21=0x13592000
       13315000	      1330	80003718	00dbe833	or	x16,x23,x13	 x23:0x00000001 x13:0xfffff4ac x16=0xfffff4ad
       13325000	      1331	8000371c	40468833	sub	x16,x13,x4	 x13:0xfffff4ac  x4:0xfeffcd07 x16=0x010027a5
       13335000	      1332	80003720	0b7cb613	sltiu	x12,x25,183	 x25:0xe4e90439 x12=0x00000000
       13345000	      1333	80003724	0050d233	srl	x4,x1,x5	  x1:0x52fe2000  x5:0x00000548  x4=0x0052fe20
       13355000	      1334	80003728	0024d033	srl	x0,x9,x2	  x9:0x00000001  x2:0xe4e90540
       13365000	      1335	8000372c	014f5e63	bge	x30,x20,80003748	 x30:0x00000290 x20:0xe4e90541
       13375000	      1336	00000000	00000013	addi	x0,x0,0	  x0:0x00000000
       13385000	      1337	80003744	00000013	addi	x0,x0,0	  x0:0x00000000
       13395000	      1338	80003748	002c1663	bne	x24,x2,80003754	 x24:0x00000000  x2:0xe4e90540
       13405000	      1339	00000000	00000013	addi	x0,x0,0	  x0:0x00000000
       13415000	      1340	80003750	00000013	addi	x0,x0,0	  x0:0x00000000
       13425000	      1341	80003754	01bec8b3	xor	x17,x29,x27	 x29:0x00000001 x27:0x00000201 x17=0x00000200
       13435000	      1342	80003758	00cfc2b3	xor	x5,x31,x12	 x31:0x80009ee0 x12:0x00000000  x5=0x80009ee0
       13445000	      1343	8000375c	570aa617	auipc	x12,0x570aa	 x12=0xd70ad758
       13455000	      1344	80003760	58667813	andi	x16,x12,1414	 x12:0xd70ad758 x16=0x00000500
       13465000	      1345	80003764	005f7333	and	x6,x30,x5	 x30:0x00000290  x5:0x80009ee0  x6=0x00000280
       13475000	      1346	80003768	40b55113	srai	x2,x10,0xb	 x10:0x7fff6b98  x2=0x000fffed
       13485000	      1347	8000376c	052bc863	blt	x23,x18,800037bc	 x23:0x00000001 x18:0x00000000
       13495000	      1348	80003770	00000013	addi	x0,x0,0	  x0:0x00000000
       13505000	      1349	80003774	410c5993	srai	x19,x24,0x10	 x24:0x00000000 x19=0x00000000
       13515000	      1350	80003778	55ea0993	addi	x19,x20,1374	 x20:0xe4e90541 x19=0xe4e90a9f
       13525000	      1351	8000377c	e7c5c537	lui	x10,0xe7c5c	 x10=0xe7c5c000
       13535000	      1352	80003780	01f20333	add	x6,x4,x31	  x4:0x0052fe20 x31:0x80009ee0  x6=0x80539d00
       13545000	      1353	80003784	00000013	addi	x0,x0,0	  x0:0x00000000
       13555000	      1354	80003788	53477f17	auipc	x30,0x53477	 x30=0xd347a784
       13565000	      1355	8000378c	00830463	beq	x6,x8,80003794	  x6:0x80539d00  x8:0x00000000
       13575000	      1356	80003790	00d08d33	add	x26,x1,x13	  x1:0x52fe2000 x13:0xfffff4ac x26=0x52fe14ac
       13585000	      1357	80003794	0156e4b3	or	x9,x13,x21	 x13:0xfffff4ac x21:0x13592000  x9=0xfffff4ac
       13595000	      1358	80003798	ea093217	auipc	x4,0xea093	  x4=0x6a096794
       13605000	      1359	8000379c	01261ab3	sll	x21,x12,x18	 x12:0xd70ad758 x18:0x00000000 x21=0xd70ad758
       13615000	      1360	800037a0	00328433	add	x8,x5,x3	  x5:0x80009ee0  x3:0xfffff4ac  x8=0x8000938c
       13625000	      1361	800037a4	41aa8233	sub	x4,x21,x26	 x21:0xd70ad758 x26:0x52fe14ac  x4=0x840cc2ac
       13635000	      1362	800037a8	60156837	lui	x16,0x60156	 x16=0x60156000
       13645000	      1363	800037ac	019725b3	slt	x11,x14,x25	 x14:0x80009fc4 x25:0xe4e90439 x11=0x00000001
       13655000	      1364	800037b0	55f73093	sltiu	x1,x14,1375	 x14:0x80009fc4  x1=0x00000000
       13665000	      1365	800037b4	013235b3	sltu	x11,x4,x19	  x4:0x840cc2ac x19:0xe4e90a9f x11=0x00000001
       13675000	      1366	800037b8	0075d263	bge	x11,x7,800037bc	 x11:0x00000001  x7:0x00000000
       13685000	      1367	00000000	00000013	addi	x0,x0,0	  x0:0x00000000
       13695000	      1368	800037b8	00000013	addi	x0,x0,0	  x0:0x00000000
       13705000	      1369	800037bc	011ad9b3	srl	x19,x21,x17	 x21:0xd70ad758 x17:0x00000200 x19=0xd70ad758
       13715000	      1370	800037c0	011bc1b3	xor	x3,x23,x17	 x23:0x00000001 x17:0x00000200  x3=0x00000201
       13725000	      1371	800037c4	01a2d013	srli	x0,x5,0x1a	  x5:0x80009ee0
       13735000	      1372	800037c8	00c066b3	or	x13,x0,x12	  x0:0x00000000 x12:0xd70ad758 x13=0xd70ad758
       13745000	      1373	800037cc	010e9993	slli	x19,x29,0x10	 x29:0x00000001 x19=0x00010000
       13755000	      1374	800037d0	40c88d33	sub	x26,x17,x12	 x17:0x00000200 x12:0xd70ad758 x26=0x28f52aa8
       13765000	      1375	800037d4	043cd063	bge	x25,x3,80003814	 x25:0xe4e90439  x3:0x00000201
       13775000	      1376	800037d8	404f0433	sub	x8,x30,x4	 x30:0xd347a784  x4:0x840cc2ac  x8=0x4f3ae4d8
       13785000	      1377	800037dc	0139d593	srli	x11,x19,0x13	 x19:0x00010000 x11=0x00000000
       13795000	      1378	800037e0	00be6033	or	x0,x28,x11	 x28:0x00000001 x11:0x00000000
       13805000	      1379	800037e4	02b76063	bltu	x14,x11,80003804	 x14:0x80009fc4 x11:0x00000000
       13815000	      1380	800037e8	012729b3	slt	x19,x14,x18	 x14:0x80009fc4 x18:0x00000000 x19=0x00000001
       13825000	      1381	800037ec	1f322537	lui	x10,0x1f322	 x10=0x1f322000
       13835000	      1382	800037f0	40355f33	sra	x30,x10,x3	 x10:0x1f322000  x3:0x00000201 x30=0x0f991000
       13845000	      1383	800037f4	01c1ce63	blt	x3,x28,80003810	  x3:0x00000201 x28:0x00000001
       13855000	      1384	800037f8	00939213	slli	x4,x7,0x9	  x7:0x00000000  x4=0x00000000
       13865000	      1385	800037fc	dd766597	auipc	x11,0xdd766	 x11=0x5d7697f8
       13875000	      1386	80003800	00c51a63	bne	x10,x12,80003814	 x10:0x1f322000 x12:0xd70ad758
       13885000	      1387	00000000	00000013	addi	x0,x0,0	  x0:0x00000000
       13895000	      1388	80003810	00000013	addi	x0,x0,0	  x0:0x00000000
       13905000	      1389	80003814	00000013	addi	x0,x0,0	  x0:0x00000000
       13915000	      1390	80003818	01b7ce63	blt	x15,x27,80003834	 x15:0xfffffa12 x27:0x00000201
       13925000	      1391	00000000	00000013	addi	x0,x0,0	  x0:0x00000000
       13935000	      1392	80003830	00000013	addi	x0,x0,0	  x0:0x00000000
       13945000	      1393	80003834	41538933	sub	x18,x7,x21	  x7:0x00000000 x21:0xd70ad758 x18=0x28f528a8
       13955000	      1394	80003838	05148063	beq	x9,x17,80003878	  x9:0xfffff4ac x17:0x00000200
       13965000	      1395	8000383c	3ae8b313	sltiu	x6,x17,942	 x17:0x00000200  x6=0x00000001
       13975000	      1396	80003840	c6fb3c93	sltiu	x25,x22,-913	 x22:0x00000001 x25=0x00000001
       13985000	      1397	80003844	41135093	srai	x1,x6,0x11	  x6:0x00000001  x1=0x00000000
       13995000	      1398	80003848	2c462213	slti	x4,x12,708	 x12:0xd70ad758  x4=0x00000001
       14005000	      1399	8000384c	057d6863	bltu	x26,x23,8000389c	 x26:0x28f52aa8 x23:0x00000001
       14015000	      1400	80003850	0551d263	bge	x3,x21,80003894	  x3:0x00000201 x21:0xd70ad758
       14025000	      1401	00000000	00000013	addi	x0,x0,0	  x0:0x00000000
       14035000	      1402	80003890	00000013	addi	x0,x0,0	  x0:0x00000000
       14045000	      1403	80003894	b7577b97	auipc	x23,0xb7577	 x23=0x3757a890
       14055000	      1404	80003898	00340933	add	x18,x8,x3	  x8:0x4f3ae4d8  x3:0x00000201 x18=0x4f3ae6d9
       14065000	      1405	8000389c	b69e6c13	ori	x24,x28,-1175	 x28:0x00000001 x24=0xfffffb69
       14075000	      1406	800038a0	41e08b33	sub	x22,x1,x30	  x1:0x00000000 x30:0x0f991000 x22=0xf066f000
       14085000	      1407	800038a4	1a66e993	ori	x19,x13,422	 x13:0xd70ad758 x19=0xd70ad7fe
       14095000	      1408	800038a8	00765c63	bge	x12,x7,800038c0	 x12:0xd70ad758  x7:0x00000000
       14105000	      1409	800038ac	01c6a4b3	slt	x9,x13,x28	 x13:0xd70ad758 x28:0x00000001  x9=0x00000001
       14115000	      1410	800038b0	01417333	and	x6,x2,x20	  x2:0x000fffed x20:0xe4e90541  x6=0x00090541
       14125000	      1411	800038b4	003c5193	srli	x3,x24,0x3	 x24:0xfffffb69  x3=0x1fffff6d
       14135000	      1412	800038b8	5c6d7c13	andi	x24,x26,1478	 x26:0x28f52aa8 x24=0x00000080
       14145000	      1413	800038bc	005d8db3	add	x27,x27,x5	 x27:0x00000201  x5:0x80009ee0 x27=0x8000a0e1
       14155000	      1414	800038c0	01e1b933	sltu	x18,x3,x30	  x3:0x1fffff6d x30:0x0f991000 x18=0x00000000
       14165000	      1415	800038c4	01af1833	sll	x16,x30,x26	 x30:0x0f991000 x26:0x28f52aa8 x16=0x99100000
       14175000	      1416	800038c8	40165533	sra	x10,x12,x1	 x12:0xd70ad758  x1:0x00000000 x10=0xd70ad758
       14185000	      1417	800038cc	01e5b533	sltu	x10,x11,x30	 x11:0x5d7697f8 x30:0x0f991000 x10=0x00000000
       14195000	      1418	800038d0	82de8793	addi	x15,x29,-2003	 x29:0x00000001 x15=0xfffff82e
       14205000	      1419	800038d4	05027463	bgeu	x4,x16,8000391c	  x4:0x00000001 x16:0x99100000
       14215000	      1420	800038d8	c94f8c13	addi	x24,x31,-876	 x31:0x80009ee0 x24=0x80009b74
       14225000	      1421	800038dc	415c06b3	sub	x13,x24,x21	 x24:0x80009b74 x21:0xd70ad758 x13=0xa8f5c41c
       14235000	      1422	800038e0	01661db3	sll	x27,x12,x22	 x12:0xd70ad758 x22:0xf066f000 x27=0xd70ad758
       14245000	      1423	800038e4	00000013	addi	x0,x0,0	  x0:0x00000000
       14255000	      1424	800038e8	01ce4e33	xor	x28,x28,x28	 x28:0x00000001 x28:0x00000001 x28=0x00000000
       14265000	      1425	800038ec	02ae9263	bne	x29,x10,80003910	 x29:0x00000001 x10:0x00000000
       14275000	      1426	00000000	00000013	addi	x0,x0,0	  x0:0x00000000
       14285000	      1427	8000390c	00000013	addi	x0,x0,0	  x0:0x00000000
       14295000	      1428	80003910	04118863	beq	x3,x1,80003960	  x3:0x1fffff6d  x1:0x00000000
       14305000	      1429	80003914	287ab893	sltiu	x17,x21,647	 x21:0xd70ad758 x17=0x00000000
       14315000	      1430	80003918	4112d393	srai	x7,x5,0x11	  x5:0x80009ee0  x7=0xffffc000
       14325000	      1431	8000391c	01658db3	add	x27,x11,x22	 x11:0x5d7697f8 x22:0xf066f000 x27=0x4ddd87f8
       14335000	      1432	80003920	c13c95b7	lui	x11,0xc13c9	 x11=0xc13c9000
       14345000	      1433	80003924	0ee6ae13	slti	x28,x13,238	 x13:0xa8f5c41c x28=0x00000001
       14355000	      1434	80003928	a73e8813	addi	x16,x29,-1421	 x29:0x00000001 x16=0xfffffa74
       14365000	      1435	8000392c	7acf6d13	ori	x26,x30,1964	 x30:0x0f991000 x26=0x0f9917ac
       14375000	      1436	80003930	cf375597	auipc	x11,0xcf375	 x11=0x4f37892c
       14385000	      1437	80003934	00468bb3	add	x23,x13,x4	 x13:0xa8f5c41c  x4:0x00000001 x23=0xa8f5c41d
       14395000	      1438	80003938	02680463	beq	x16,x6,80003960	 x16:0xfffffa74  x6:0x00090541
       14405000	      1439	8000393c	0105fd33	and	x26,x11,x16	 x11:0x4f37892c x16:0xfffffa74 x26=0x4f378824
       14415000	      1440	80003940	416dd293	srai	x5,x27,0x16	 x27:0x4ddd87f8  x5=0x00000137
       14425000	      1441	80003944	00e9dc63	bge	x19,x14,8000395c	 x19:0xd70ad7fe x14:0x80009fc4
       14435000	      1442	00000000	00000013	addi	x0,x0,0	  x0:0x00000000
       14445000	      1443	80003958	00000013	addi	x0,x0,0	  x0:0x00000000
       14455000	      1444	8000395c	01bf2bb3	slt	x23,x30,x27	 x30:0x0f991000 x27:0x4ddd87f8 x23=0x00000001
       14465000	      1445	80003960	003a8663	beq	x21,x3,8000396c	 x21:0xd70ad758  x3:0x1fffff6d
       14475000	      1446	80003964	01598db3	add	x27,x19,x21	 x19:0xd70ad7fe x21:0xd70ad758 x27=0xae15af56
       14485000	      1447	80003968	00000013	addi	x0,x0,0	  x0:0x00000000
       14495000	      1448	8000396c	6b1d3b37	lui	x22,0x6b1d3	 x22=0x6b1d3000
       14505000	      1449	80003970	1e58e393	ori	x7,x17,485	 x17:0x00000000  x7=0x000001e5
       14515000	      1450	80003974	dd644793	xori	x15,x8,-554	  x8:0x4f3ae4d8 x15=0xb0c5190e
       14525000	      1451	80003978	00d6d293	srli	x5,x13,0xd	 x13:0xa8f5c41c  x5=0x000547ae
       14535000	      1452	8000397c	03d44063	blt	x8,x29,8000399c	  x8:0x4f3ae4d8 x29:0x00000001
       14545000	      1453	80003980	009336b3	sltu	x13,x6,x9	  x6:0x00090541  x9:0x00000001 x13=0x00000000
       14555000	      1454	80003984	04704063	blt	x0,x7,800039c4	  x0:0x00000000  x7:0x000001e5
       14565000	      1455	00000000	00000013	addi	x0,x0,0	  x0:0x00000000
       14575000	      1456	800039c0	00000013	addi	x0,x0,0	  x0:0x00000000
       14585000	      1457	800039c4	40888b33	sub	x22,x17,x8	 x17:0x00000000  x8:0x4f3ae4d8 x22=0xb0c51b28
       14595000	      1458	800039c8	04084263	blt	x16,x0,80003a0c	 x16:0xfffffa74  x0:0x00000000
       14605000	      1459	00000000	00000013	addi	x0,x0,0	  x0:0x00000000
       14615000	      1460	80003a08	00000013	addi	x0,x0,0	  x0:0x00000000
       14625000	      1461	80003a0c	00cca0b3	slt	x1,x25,x12	 x25:0x00000001 x12:0xd70ad758  x1=0x00000000
       14635000	      1462	80003a10	01b9ce63	blt	x19,x27,80003a2c	 x19:0xd70ad7fe x27:0xae15af56
       14645000	      1463	80003a14	00dd1933	sll	x18,x26,x13	 x26:0x4f378824 x13:0x00000000 x18=0x4f378824
       14655000	      1464	80003a18	f65e7637	lui	x12,0xf65e7	 x12=0xf65e7000
       14665000	      1465	80003a1c	00620663	beq	x4,x6,80003a28	  x4:0x00000001  x6:0x00090541
       14675000	      1466	80003a20	591afa93	andi	x21,x21,1425	 x21:0xd70ad758 x21=0x00000510
       14685000	      1467	80003a24	15fbcb13	xori	x22,x23,351	 x23:0x00000001 x22=0x0000015e
       14695000	      1468	80003a28	01a7de63	bge	x15,x26,80003a44	 x15:0xb0c5190e x26:0x4f378824
       14705000	      1469	80003a2c	f1b5c197	auipc	x3,0xf1b5c	  x3=0x71b5fa28
       14715000	      1470	80003a30	dfa6f813	andi	x16,x13,-518	 x13:0x00000000 x16=0x00000000
       14725000	      1471	80003a34	40285193	srai	x3,x16,0x2	 x16:0x00000000  x3=0x00000000
       14735000	      1472	80003a38	4182dc13	srai	x24,x5,0x18	  x5:0x000547ae x24=0x00000000
       14745000	      1473	80003a3c	41d78d33	sub	x26,x15,x29	 x15:0xb0c5190e x29:0x00000001 x26=0xb0c5190d
       14755000	      1474	80003a40	9fa1a113	slti	x2,x3,-1542	  x3:0x00000000  x2=0x00000000
       14765000	      1475	80003a44	00f8ec63	bltu	x17,x15,80003a5c	 x17:0x00000000 x15:0xb0c5190e
       14775000	      1476	00000000	00000013	addi	x0,x0,0	  x0:0x00000000
       14785000	      1477	80003a58	00000013	addi	x0,x0,0	  x0:0x00000000
       14795000	      1478	80003a5c	90c7a393	slti	x7,x15,-1780	 x15:0xb0c5190e  x7=0x00000001
       14805000	      1479	80003a60	e06f7c13	andi	x24,x30,-506	 x30:0x0f991000 x24=0x0f991000
       14815000	      1480	80003a64	00000013	addi	x0,x0,0	  x0:0x00000000
       14825000	      1481	80003a68	01055e63	bge	x10,x16,80003a84	 x10:0x00000000 x16:0x00000000
       14835000	      1482	00000000	00000013	addi	x0,x0,0	  x0:0x00000000
       14845000	      1483	80003a80	00000013	addi	x0,x0,0	  x0:0x00000000
       14855000	      1484	80003a84	00a8a133	slt	x2,x17,x10	 x17:0x00000000 x10:0x00000000  x2=0x00000000
       14865000	      1485	80003a88	00e931b3	sltu	x3,x18,x14	 x18:0x4f378824 x14:0x80009fc4  x3=0x00000001
       14875000	      1486	80003a8c	018a3b33	sltu	x22,x20,x24	 x20:0xe4e90541 x24:0x0f991000 x22=0x00000000
       14885000	      1487	80003a90	00b45cb3	srl	x25,x8,x11	  x8:0x4f3ae4d8 x11:0x4f37892c x25=0x0004f3ae
       14895000	      1488	80003a94	05b29463	bne	x5,x27,80003adc	  x5:0x000547ae x27:0xae15af56
       14905000	      1489	00000000	00000013	addi	x0,x0,0	  x0:0x00000000
       14915000	      1490	80003ad8	00000013	addi	x0,x0,0	  x0:0x00000000
       14925000	      1491	80003adc	014ddcb3	srl	x25,x27,x20	 x27:0xae15af56 x20:0xe4e90541 x25=0x570ad7ab
       14935000	      1492	80003ae0	005135b3	sltu	x11,x2,x5	  x2:0x00000000  x5:0x000547ae x11=0x00000001
       14945000	      1493	80003ae4	53707393	andi	x7,x0,1335	  x0:0x00000000  x7=0x00000000
       14955000	      1494	80003ae8	01796e63	bltu	x18,x23,80003b04	 x18:0x4f378824 x23:0x00000001
       14965000	      1495	80003aec	f3472a93	slti	x21,x14,-204	 x14:0x80009fc4 x21=0x00000001
       14975000	      1496	80003af0	00ac8cb3	add	x25,x25,x10	 x25:0x570ad7ab x10:0x00000000 x25=0x570ad7ab
       14985000	      1497	80003af4	00378f33	add	x30,x15,x3	 x15:0xb0c5190e  x3:0x00000001 x30=0xb0c5190f
       14995000	      1498	80003af8	bc370d13	addi	x26,x14,-1085	 x14:0x80009fc4 x26=0x80009b87
       15005000	      1499	80003afc	e446fd13	andi	x26,x13,-444	 x13:0x00000000 x26=0x00000000
       15015000	      1500	80003b00	e29d2e13	slti	x28,x26,-471	 x26:0x00000000 x28=0x00000000
       15025000	      1501	80003b04	006a1e13	slli	x28,x20,0x6	 x20:0xe4e90541 x28=0x3a415040
       15035000	      1502	80003b08	013a1633	sll	x12,x20,x19	 x20:0xe4e90541 x19:0xd70ad7fe x12=0x40000000
       15045000	      1503	80003b0c	408dac13	slti	x24,x27,1032	 x27:0xae15af56 x24=0x00000001
       15055000	      1504	80003b10	01d64a63	blt	x12,x29,80003b24	 x12:0x40000000 x29:0x00000001
       15065000	      1505	80003b14	40b2db13	srai	x22,x5,0xb	  x5:0x000547ae x22=0x000000a8
       15075000	      1506	80003b18	01e4a7b3	slt	x15,x9,x30	  x9:0x00000001 x30:0xb0c5190f x15=0x00000000
       15085000	      1507	80003b1c	0142ce63	blt	x5,x20,80003b38	  x5:0x000547ae x20:0xe4e90541
       15095000	      1508	80003b20	f5e56d93	ori	x27,x10,-162	 x10:0x00000000 x27=0xffffff5e
       15105000	      1509	80003b24	44760e17	auipc	x28,0x44760	 x28=0xc4763b20
       15115000	      1510	80003b28	01d1ae33	slt	x28,x3,x29	  x3:0x00000001 x29:0x00000001 x28=0x00000000
       15125000	      1511	80003b2c	00f64e33	xor	x28,x12,x15	 x12:0x40000000 x15:0x00000000 x28=0x40000000
       15135000	      1512	80003b30	01cd6463	bltu	x26,x28,80003b38	 x26:0x00000000 x28:0x40000000
       15145000	      1513	00000000	00000013	addi	x0,x0,0	  x0:0x00000000
       15155000	      1514	80003b34	00000013	addi	x0,x0,0	  x0:0x00000000
       15165000	      1515	80003b38	00eb0a63	beq	x22,x14,80003b4c	 x22:0x000000a8 x14:0x80009fc4
       15175000	      1516	80003b3c	0135d2b3	srl	x5,x11,x19	 x11:0x00000001 x19:0xd70ad7fe  x5=0x00000000
       15185000	      1517	80003b40	0126ca63	blt	x13,x18,80003b54	 x13:0x00000000 x18:0x4f378824
       15195000	      1518	00000000	00000013	addi	x0,x0,0	  x0:0x00000000
       15205000	      1519	80003b50	00000013	addi	x0,x0,0	  x0:0x00000000
       15215000	      1520	80003b54	949a8013	addi	x0,x21,-1719	 x21:0x00000001
       15225000	      1521	80003b58	0191d993	srli	x19,x3,0x19	  x3:0x00000001 x19=0x00000000
       15235000	      1522	80003b5c	042a8063	beq	x21,x2,80003b9c	 x21:0x00000001  x2:0x00000000
       15245000	      1523	80003b60	acfb6093	ori	x1,x22,-1329	 x22:0x000000a8  x1=0xfffffaef
       15255000	      1524	80003b64	00000013	addi	x0,x0,0	  x0:0x00000000
       15265000	      1525	80003b68	1e0f0593	addi	x11,x30,480	 x30:0xb0c5190f x11=0xb0c51aef
       15275000	      1526	80003b6c	40115ab3	sra	x21,x2,x1	  x2:0x00000000  x1:0xfffffaef x21=0x00000000
       15285000	      1527	80003b70	044e1863	bne	x28,x4,80003bc0	 x28:0x40000000  x4:0x00000001
       15295000	      1528	00000000	00000013	addi	x0,x0,0	  x0:0x00000000
       15305000	      1529	80003bbc	00000013	addi	x0,x0,0	  x0:0x00000000
       15315000	      1530	80003bc0	00000013	addi	x0,x0,0	  x0:0x00000000
       15325000	      1531	80003bc4	01c73b33	sltu	x22,x14,x28	 x14:0x80009fc4 x28:0x40000000 x22=0x00000000
       15335000	      1532	80003bc8	00545113	srli	x2,x8,0x5	  x8:0x4f3ae4d8  x2=0x0279d726
       15345000	      1533	80003bcc	003c28b3	slt	x17,x24,x3	 x24:0x00000001  x3:0x00000001 x17=0x00000000
       15355000	      1534	80003bd0	00686663	bltu	x16,x6,80003bdc	 x16:0x00000000  x6:0x00090541
       15365000	      1535	00000000	00000013	addi	x0,x0,0	  x0:0x00000000
       15375000	      1536	80003bd8	00000013	addi	x0,x0,0	  x0:0x00000000
       15385000	      1537	80003bdc	6c59c593	xori	x11,x19,1733	 x19:0x00000000 x11=0x000006c5
       15395000	      1538	80003be0	00aa98b3	sll	x17,x21,x10	 x21:0x00000000 x10:0x00000000 x17=0x00000000
       15405000	      1539	80003be4	faa73637	lui	x12,0xfaa73	 x12=0xfaa73000
       15415000	      1540	80003be8	a374eeb7	lui	x29,0xa374e	 x29=0xa374e000
       15425000	      1541	80003bec	00637bb3	and	x23,x6,x6	  x6:0x00090541  x6:0x00090541 x23=0x00090541
       15435000	      1542	80003bf0	bc31bf37	lui	x30,0xbc31b	 x30=0xbc31b000
       15445000	      1543	80003bf4	01324c63	blt	x4,x19,80003c0c	  x4:0x00000001 x19:0x00000000
       15455000	      1544	80003bf8	010a23b3	slt	x7,x20,x16	 x20:0xe4e90541 x16:0x00000000  x7=0x00000001
       15465000	      1545	80003bfc	01b5feb3	and	x29,x11,x27	 x11:0x000006c5 x27:0xffffff5e x29=0x00000644
       15475000	      1546	80003c00	40c65893	srai	x17,x12,0xc	 x12:0xfaa73000 x17=0xffffaa73
       15485000	      1547	80003c04	372b3e17	auipc	x28,0x372b3	 x28=0xb72b6c00
       15495000	      1548	80003c08	61403c93	sltiu	x25,x0,1556	  x0:0x00000000 x25=0x00000001
       15505000	      1549	80003c0c	4044d093	srai	x1,x9,0x4	  x9:0x00000001  x1=0x00000000
       15515000	      1550	80003c10	02c0e663	bltu	x1,x12,80003c3c	  x1:0x00000000 x12:0xfaa73000
       15525000	      1551	00000000	00000013	addi	x0,x0,0	  x0:0x00000000
       15535000	      1552	80003c38	00000013	addi	x0,x0,0	  x0:0x00000000
       15545000	      1553	80003c3c	00801693	slli	x13,x0,0x8	  x0:0x00000000 x13=0x00000000
       15555000	      1554	80003c40	3ca5fd93	andi	x27,x11,970	 x11:0x000006c5 x27=0x000002c0
       15565000	      1555	80003c44	012713b3	sll	x7,x14,x18	 x14:0x80009fc4 x18:0x4f378824  x7=0x0009fc40
       15575000	      1556	80003c48	01cd5bb3	srl	x23,x26,x28	 x26:0x00000000 x28:0xb72b6c00 x23=0x00000000
       15585000	      1557	80003c4c	fb2a86b7	lui	x13,0xfb2a8	 x13=0xfb2a8000
       15595000	      1558	80003c50	015d7f33	and	x30,x26,x21	 x26:0x00000000 x21:0x00000000 x30=0x00000000
       15605000	      1559	80003c54	01ff86b3	add	x13,x31,x31	 x31:0x80009ee0 x31:0x80009ee0 x13=0x00013dc0
       15615000	      1560	80003c58	b7b1e293	ori	x5,x3,-1157	  x3:0x00000001  x5=0xfffffb7b
       15625000	      1561	80003c5c	005c03b3	add	x7,x24,x5	 x24:0x00000001  x5:0xfffffb7b  x7=0xfffffb7c
       15635000	      1562	80003c60	014994b3	sll	x9,x19,x20	 x19:0x00000000 x20:0xe4e90541  x9=0x00000000
       15645000	      1563	80003c64	433668b7	lui	x17,0x43366	 x17=0x43366000
       15655000	      1564	80003c68	41d68333	sub	x6,x13,x29	 x13:0x00013dc0 x29:0x00000644  x6=0x0001377c
       15665000	      1565	80003c6c	663bac17	auipc	x24,0x663ba	 x24=0xe63bdc68
       15675000	      1566	80003c70	0157acb3	slt	x25,x15,x21	 x15:0x00000000 x21:0x00000000 x25=0x00000000
       15685000	      1567	80003c74	01301bb3	sll	x23,x0,x19	  x0:0x00000000 x19:0x00000000 x23=0x00000000
       15695000	      1568	80003c78	41db8bb3	sub	x23,x23,x29	 x23:0x00000000 x29:0x00000644 x23=0xfffff9bc
       15705000	      1569	80003c7c	01c09a93	slli	x21,x1,0x1c	  x1:0x00000000 x21=0x00000000
       15715000	      1570	80003c80	00c9aab3	slt	x21,x19,x12	 x19:0x00000000 x12:0xfaa73000 x21=0x00000000
       15725000	      1571	80003c84	000aee63	bltu	x21,x0,80003ca0	 x21:0x00000000  x0:0x00000000
       15735000	      1572	80003c88	00a14bb3	xor	x23,x2,x10	  x2:0x0279d726 x10:0x00000000 x23=0x0279d726
       15745000	      1573	80003c8c	01a587b3	add	x15,x11,x26	 x11:0x000006c5 x26:0x00000000 x15=0x000006c5
       15755000	      1574	80003c90	01a2d313	srli	x6,x5,0x1a	  x5:0xfffffb7b  x6=0x0000003f
       15765000	      1575	80003c94	00000013	addi	x0,x0,0	  x0:0x00000000
       15775000	      1576	80003c98	0167c663	blt	x15,x22,80003ca4	 x15:0x000006c5 x22:0x00000000
       15785000	      1577	80003c9c	01aaf3b3	and	x7,x21,x26	 x21:0x00000000 x26:0x00000000  x7=0x00000000
       15795000	      1578	80003ca0	00b0a7b3	slt	x15,x1,x11	  x1:0x00000000 x11:0x000006c5 x15=0x00000001
       15805000	      1579	80003ca4	01a32b33	slt	x22,x6,x26	  x6:0x0000003f x26:0x00000000 x22=0x00000000
       15815000	      1580	80003ca8	017bd4b3	srl	x9,x23,x23	 x23:0x0279d726 x23:0x0279d726  x9=0x0009e75c
       15825000	      1581	80003cac	057df463	bgeu	x27,x23,80003cf4	 x27:0x000002c0 x23:0x0279d726
       15835000	      1582	80003cb0	b5143c13	sltiu	x24,x8,-1199	  x8:0x4f3ae4d8 x24=0x00000001
       15845000	      1583	80003cb4	017a5093	srli	x1,x20,0x17	 x20:0xe4e90541  x1=0x000001c9
       15855000	      1584	80003cb8	2d4fc3b7	lui	x7,0x2d4fc	  x7=0x2d4fc000
       15865000	      1585	80003cbc	01014e63	blt	x2,x16,80003cd8	  x2:0x0279d726 x16:0x00000000
       15875000	      1586	80003cc0	01ccfab3	and	x21,x25,x28	 x25:0x00000000 x28:0xb72b6c00 x21=0x00000000
       15885000	      1587	80003cc4	015dde93	srli	x29,x27,0x15	 x27:0x000002c0 x29=0x00000000
       15895000	      1588	80003cc8	00d635b3	sltu	x11,x12,x13	 x12:0xfaa73000 x13:0x00013dc0 x11=0x00000000
       15905000	      1589	80003ccc	02ca9c63	bne	x21,x12,80003d04	 x21:0x00000000 x12:0xfaa73000
       15915000	      1590	00000000	00000013	addi	x0,x0,0	  x0:0x00000000
       15925000	      1591	80003d00	00000013	addi	x0,x0,0	  x0:0x00000000
       15935000	      1592	80003d04	045a8263	beq	x21,x5,80003d48	 x21:0x00000000  x5:0xfffffb7b
       15945000	      1593	80003d08	4008d113	srai	x2,x17,0x0	 x17:0x43366000  x2=0x43366000
       15955000	      1594	80003d0c	40d00c33	sub	x24,x0,x13	  x0:0x00000000 x13:0x00013dc0 x24=0xfffec240
       15965000	      1595	80003d10	007f5113	srli	x2,x30,0x7	 x30:0x00000000  x2=0x00000000
       15975000	      1596	80003d14	03a61263	bne	x12,x26,80003d38	 x12:0xfaa73000 x26:0x00000000
       15985000	      1597	00000000	00000013	addi	x0,x0,0	  x0:0x00000000
       15995000	      1598	80003d34	00000013	addi	x0,x0,0	  x0:0x00000000
       16005000	      1599	80003d38	00001a93	slli	x21,x0,0x0	  x0:0x00000000 x21=0x00000000
       16015000	      1600	80003d3c	0160b0b3	sltu	x1,x1,x22	  x1:0x000001c9 x22:0x00000000  x1=0x00000000
       16025000	      1601	80003d40	e44a3993	sltiu	x19,x20,-444	 x20:0xe4e90541 x19=0x00000001
       16035000	      1602	80003d44	056c4063	blt	x24,x22,80003d84	 x24:0xfffec240 x22:0x00000000
       16045000	      1603	00000000	00000013	addi	x0,x0,0	  x0:0x00000000
       16055000	      1604	80003d80	00000013	addi	x0,x0,0	  x0:0x00000000
       16065000	      1605	80003d84	8c0e9d97	auipc	x27,0x8c0e9	 x27=0x0c0ecd80
       16075000	      1606	80003d88	017b99b3	sll	x19,x23,x23	 x23:0x0279d726 x23:0x0279d726 x19=0x9e75c980
       16085000	      1607	80003d8c	00245193	srli	x3,x8,0x2	  x8:0x4f3ae4d8  x3=0x13ceb936
       16095000	      1608	80003d90	60377c13	andi	x24,x14,1539	 x14:0x80009fc4 x24=0x00000600
       16105000	      1609	80003d94	01670263	beq	x14,x22,80003d98	 x14:0x80009fc4 x22:0x00000000
       16115000	      1610	80003d98	0136a1b3	slt	x3,x13,x19	 x13:0x00013dc0 x19:0x9e75c980  x3=0x00000000
       16125000	      1611	80003d9c	419fddb3	sra	x27,x31,x25	 x31:0x80009ee0 x25:0x00000000 x27=0x80009ee0
       16135000	      1612	80003da0	013ac533	xor	x10,x21,x19	 x21:0x00000000 x19:0x9e75c980 x10=0x9e75c980
       16145000	      1613	80003da4	5dfc3b93	sltiu	x23,x24,1503	 x24:0x00000600 x23=0x00000000
       16155000	      1614	80003da8	0498d463	bge	x17,x9,80003df0	 x17:0x43366000  x9:0x0009e75c
       16165000	      1615	00000000	00000013	addi	x0,x0,0	  x0:0x00000000
       16175000	      1616	80003dec	00000013	addi	x0,x0,0	  x0:0x00000000
       16185000	      1617	80003df0	a6b53493	sltiu	x9,x10,-1429	 x10:0x9e75c980  x9=0x00000001
       16195000	      1618	80003df4	01f87e63	bgeu	x16,x31,80003e10	 x16:0x00000000 x31:0x80009ee0
       16205000	      1619	80003df8	7b9fe913	ori	x18,x31,1977	 x31:0x80009ee0 x18=0x80009ff9
       16215000	      1620	80003dfc	008b1e63	bne	x22,x8,80003e18	 x22:0x00000000  x8:0x4f3ae4d8
       16225000	      1621	00000000	00000013	addi	x0,x0,0	  x0:0x00000000
       16235000	      1622	80003e14	00000013	addi	x0,x0,0	  x0:0x00000000
       16245000	      1623	80003e18	05daf863	bgeu	x21,x29,80003e68	 x21:0x00000000 x29:0x00000000
       16255000	      1624	00000000	00000013	addi	x0,x0,0	  x0:0x00000000
       16265000	      1625	80003e64	00000013	addi	x0,x0,0	  x0:0x00000000
       16275000	      1626	80003e68	00641bb3	sll	x23,x8,x6	  x8:0x4f3ae4d8  x6:0x0000003f x23=0x00000000
       16285000	      1627	80003e6c	0dc57e63	bgeu	x10,x28,80003f48	 x10:0x9e75c980 x28:0xb72b6c00
       16295000	      1628	80003e70	afa3f517	auipc	x10,0xafa3f	 x10=0x2fa42e6c
       16305000	      1629	80003e74	00005117	auipc	x2,0x5	  x2=0x80008e70
       16315000	      1630	80003e78	da710113	addi	x2,x2,-601	  x2:0x80008e70  x2=0x80008c17
       16325000	      1631	80003e7c	32311083	lh	x1,803(x2)	  x2:0x80008c17  x1=0x000015bb PA:0x80008f3a
       16335000	      1632	80003e80	0192ebb3	or	x23,x5,x25	  x5:0xfffffb7b x25:0x00000000 x23=0xfffffb7b
       16345000	      1633	80003e84	f04db917	auipc	x18,0xf04db	 x18=0x704dee80
       16355000	      1634	80003e88	2e411ba3	sh	x4,759(x2)	  x2:0x80008c17  x4:0x00000001 PA:0x80008f0e
       16365000	      1635	80003e8c	00ff5d93	srli	x27,x30,0xf	 x30:0x00000000 x27=0x00000000
       16375000	      1636	80003e90	2f3120a3	sw	x19,737(x2)	  x2:0x80008c17 x19:0x9e75c980 PA:0x80008ef8
       16385000	      1637	80003e94	01c44533	xor	x10,x8,x28	  x8:0x4f3ae4d8 x28:0xb72b6c00 x10=0xf81188d8
       16395000	      1638	80003e98	ca311783	lh	x15,-861(x2)	  x2:0x80008c17 x15=0x0000649c PA:0x800088ba
       16405000	      1639	80003e9c	004d8cb3	add	x25,x27,x4	 x27:0x00000000  x4:0x00000001 x25=0x00000001
       16415000	      1640	80003ea0	f1a10083	lb	x1,-230(x2)	  x2:0x80008c17  x1=0x00000024 PA:0x80008b31
       16425000	      1641	80003ea4	fb414483	lbu	x9,-76(x2)	  x2:0x80008c17  x9=0x000000bd PA:0x80008bcb
       16435000	      1642	80003ea8	01d716b3	sll	x13,x14,x29	 x14:0x80009fc4 x29:0x00000000 x13=0x80009fc4
       16445000	      1643	80003eac	40a95e13	srai	x28,x18,0xa	 x18:0x704dee80 x28=0x001c137b
       16455000	      1644	80003eb0	01da6033	or	x0,x20,x29	 x20:0xe4e90541 x29:0x00000000
       16465000	      1645	80003eb4	010f6d33	or	x26,x30,x16	 x30:0x00000000 x16:0x00000000 x26=0x00000000
       16475000	      1646	80003eb8	20fd4613	xori	x12,x26,527	 x26:0x00000000 x12=0x0000020f
       16485000	      1647	80003ebc	49e56293	ori	x5,x10,1182	 x10:0xf81188d8  x5=0xf8118cde
       16495000	      1648	80003ec0	0110e833	or	x16,x1,x17	  x1:0x00000024 x17:0x43366000 x16=0x43366024
       16505000	      1649	80003ec4	d8f11c83	lh	x25,-625(x2)	  x2:0x80008c17 x25=0xffffb97c PA:0x800089a6
       16515000	      1650	00000000	00000013	addi	x0,x0,0	  x0:0x00000000
       16525000	      1651	80003ec8	2b911283	lh	x5,697(x2)	  x2:0x80008c17  x5=0x00004625 PA:0x80008ed0
       16535000	      1652	80003ecc	fb910083	lb	x1,-71(x2)	  x2:0x80008c17  x1=0xffffff83 PA:0x80008bd0
       16545000	      1653	80003ed0	00716233	or	x4,x2,x7	  x2:0x80008c17  x7:0x2d4fc000  x4=0xad4fcc17
       16555000	      1654	80003ed4	41680eb3	sub	x29,x16,x22	 x16:0x43366024 x22:0x00000000 x29=0x43366024
       16565000	      1655	80003ed8	ce3112a3	sh	x3,-795(x2)	  x2:0x80008c17  x3:0x00000000 PA:0x800088fc
       16575000	      1656	80003edc	0fe14283	lbu	x5,254(x2)	  x2:0x80008c17  x5=0x000000f0 PA:0x80008d15
       16585000	      1657	00000000	00000013	addi	x0,x0,0	  x0:0x00000000
       16595000	      1658	80003ee0	fe510003	lb	x0,-27(x2)	  x2:0x80008c17 PA:0x80008bfc
       16605000	      1659	80003ee4	f3a14683	lbu	x13,-198(x2)	  x2:0x80008c17 x13=0x000000f1 PA:0x80008b51
       16615000	      1660	80003ee8	816cbd13	sltiu	x26,x25,-2026	 x25:0xffffb97c x26=0x00000001
       16625000	      1661	80003eec	0ee107a3	sb	x14,239(x2)	  x2:0x80008c17 x14:0x80009fc4 PA:0x80008d06
       16635000	      1662	80003ef0	008f3bb3	sltu	x23,x30,x8	 x30:0x00000000  x8:0x4f3ae4d8 x23=0x00000001
       16645000	      1663	80003ef4	38912083	lw	x1,905(x2)	  x2:0x80008c17  x1=0xdbeca59e PA:0x80008fa0
       16655000	      1664	80003ef8	13512d03	lw	x26,309(x2)	  x2:0x80008c17 x26=0xbe6e2ebe PA:0x80008d4c
       16665000	      1665	80003efc	0170c2b3	xor	x5,x1,x23	  x1:0xdbeca59e x23:0x00000001  x5=0xdbeca59f
       16675000	      1666	80003f00	f7d14883	lbu	x17,-131(x2)	  x2:0x80008c17 x17=0x00000080 PA:0x80008b94
       16685000	      1667	80003f04	3c07c397	auipc	x7,0x3c07c	  x7=0xbc07ff00
       16695000	      1668	80003f08	16c10983	lb	x19,364(x2)	  x2:0x80008c17 x19=0x00000009 PA:0x80008d83
       16705000	      1669	80003f0c	f9410b03	lb	x22,-108(x2)	  x2:0x80008c17 x22=0xffffffbc PA:0x80008bab
       16715000	      1670	80003f10	edd10503	lb	x10,-291(x2)	  x2:0x80008c17 x10=0x00000070 PA:0x80008af4
       16725000	      1671	80003f14	e97a3d97	auipc	x27,0xe97a3	 x27=0x697a6f10
       16735000	      1672	80003f18	00d62e33	slt	x28,x12,x13	 x12:0x0000020f x13:0x000000f1 x28=0x00000000
       16745000	      1673	80003f1c	5f650b13	addi	x22,x10,1526	 x10:0x00000070 x22=0x00000666
       16755000	      1674	80003f20	25b10b23	sb	x27,598(x2)	  x2:0x80008c17 x27:0x697a6f10 PA:0x80008e6d
       16765000	      1675	80003f24	db112383	lw	x7,-591(x2)	  x2:0x80008c17  x7=0xa37cb6a2 PA:0x800089c8
       16775000	      1676	80003f28	11614b83	lbu	x23,278(x2)	  x2:0x80008c17 x23=0x00000060 PA:0x80008d2d
       16785000	      1677	80003f2c	00000013	addi	x0,x0,0	  x0:0x00000000
       16795000	      1678	80003f30	01d12903	lw	x18,29(x2)	  x2:0x80008c17 x18=0xed639161 PA:0x80008c34
       16805000	      1679	80003f34	eb311903	lh	x18,-333(x2)	  x2:0x80008c17 x18=0xffffd86f PA:0x80008aca
       16815000	      1680	80003f38	40fb8e33	sub	x28,x23,x15	 x23:0x00000060 x15:0x0000649c x28=0xffff9bc4
       16825000	      1681	80003f3c	00576933	or	x18,x14,x5	 x14:0x80009fc4  x5:0xdbeca59f x18=0xdbecbfdf
       16835000	      1682	80003f40	4142da93	srai	x21,x5,0x14	  x5:0xdbeca59f x21=0xfffffdbe
       16845000	      1683	80003f44	01556263	bltu	x10,x21,80003f48	 x10:0x00000070 x21:0xfffffdbe
       16855000	      1684	00000000	00000013	addi	x0,x0,0	  x0:0x00000000
       16865000	      1685	80003f44	00000013	addi	x0,x0,0	  x0:0x00000000
       16875000	      1686	80003f48	009de033	or	x0,x27,x9	 x27:0x697a6f10  x9:0x000000bd
       16885000	      1687	80003f4c	00d41e33	sll	x28,x8,x13	  x8:0x4f3ae4d8 x13:0x000000f1 x28=0xc9b00000
       16895000	      1688	80003f50	00b3b633	sltu	x12,x7,x11	  x7:0xa37cb6a2 x11:0x00000000 x12=0x00000000
       16905000	      1689	80003f54	03a60c63	beq	x12,x26,80003f8c	 x12:0x00000000 x26:0xbe6e2ebe
       16915000	      1690	80003f58	014411b3	sll	x3,x8,x20	  x8:0x4f3ae4d8 x20:0xe4e90541  x3=0x9e75c9b0
       16925000	      1691	80003f5c	00ac6f33	or	x30,x24,x10	 x24:0x00000600 x10:0x00000070 x30=0x00000670
       16935000	      1692	80003f60	00b40933	add	x18,x8,x11	  x8:0x4f3ae4d8 x11:0x00000000 x18=0x4f3ae4d8
       16945000	      1693	80003f64	00016c63	bltu	x2,x0,80003f7c	  x2:0x80008c17  x0:0x00000000
       16955000	      1694	80003f68	01c7c0b3	xor	x1,x15,x28	 x15:0x0000649c x28:0xc9b00000  x1=0xc9b0649c
       16965000	      1695	80003f6c	016d4633	xor	x12,x26,x22	 x26:0xbe6e2ebe x22:0x00000666 x12=0xbe6e28d8
       16975000	      1696	80003f70	01cc9093	slli	x1,x25,0x1c	 x25:0xffffb97c  x1=0xc0000000
       16985000	      1697	80003f74	00000013	addi	x0,x0,0	  x0:0x00000000
       16995000	      1698	80003f78	01e1e9b3	or	x19,x3,x30	  x3:0x9e75c9b0 x30:0x00000670 x19=0x9e75cff0
       17005000	      1699	80003f7c	02a69663	bne	x13,x10,80003fa8	 x13:0x000000f1 x10:0x00000070
       17015000	      1700	00000000	00000013	addi	x0,x0,0	  x0:0x00000000
       17025000	      1701	80003fa4	00000013	addi	x0,x0,0	  x0:0x00000000
       17035000	      1702	80003fa8	2676e013	ori	x0,x13,615	 x13:0x000000f1
       17045000	      1703	80003fac	04d6c863	blt	x13,x13,80003ffc	 x13:0x000000f1 x13:0x000000f1
       17055000	      1704	80003fb0	05984063	blt	x16,x25,80003ff0	 x16:0x43366024 x25:0xffffb97c
       17065000	      1705	80003fb4	00b38233	add	x4,x7,x11	  x7:0xa37cb6a2 x11:0x00000000  x4=0xa37cb6a2
       17075000	      1706	80003fb8	016ca5b3	slt	x11,x25,x22	 x25:0xffffb97c x22:0x00000666 x11=0x00000001
       17085000	      1707	80003fbc	00000013	addi	x0,x0,0	  x0:0x00000000
       17095000	      1708	80003fc0	400d83b3	sub	x7,x27,x0	 x27:0x697a6f10  x0:0x00000000  x7=0x697a6f10
       17105000	      1709	80003fc4	410b5e13	srai	x28,x22,0x10	 x22:0x00000666 x28=0x00000000
       17115000	      1710	80003fc8	04821063	bne	x4,x8,80004008	  x4:0xa37cb6a2  x8:0x4f3ae4d8
       17125000	      1711	00000000	00000013	addi	x0,x0,0	  x0:0x00000000
       17135000	      1712	80004004	00000013	addi	x0,x0,0	  x0:0x00000000
       17145000	      1713	80004008	000c8333	add	x6,x25,x0	 x25:0xffffb97c  x0:0x00000000  x6=0xffffb97c
       17155000	      1714	8000400c	0580d263	bge	x1,x24,80004050	  x1:0xc0000000 x24:0x00000600
       17165000	      1715	80004010	00000013	addi	x0,x0,0	  x0:0x00000000
       17175000	      1716	80004014	f16cb213	sltiu	x4,x25,-234	 x25:0xffffb97c  x4=0x00000001
       17185000	      1717	80004018	041c5263	bge	x24,x1,8000405c	 x24:0x00000600  x1:0xc0000000
       17195000	      1718	00000000	00000013	addi	x0,x0,0	  x0:0x00000000
       17205000	      1719	80004058	00000013	addi	x0,x0,0	  x0:0x00000000
       17215000	      1720	8000405c	40cb5593	srai	x11,x22,0xc	 x22:0x00000666 x11=0x00000000
       17225000	      1721	80004060	00878a63	beq	x15,x8,80004074	 x15:0x0000649c  x8:0x4f3ae4d8
       17235000	      1722	80004064	4a4ca193	slti	x3,x25,1188	 x25:0xffffb97c  x3=0x00000001
       17245000	      1723	80004068	02cf2593	slti	x11,x30,44	 x30:0x00000670 x11=0x00000000
       17255000	      1724	8000406c	836b8d13	addi	x26,x23,-1994	 x23:0x00000060 x26=0xfffff896
       17265000	      1725	80004070	00865213	srli	x4,x12,0x8	 x12:0xbe6e28d8  x4=0x00be6e28
       17275000	      1726	80004074	00811133	sll	x2,x2,x8	  x2:0x80008c17  x8:0x4f3ae4d8  x2=0x17000000
       17285000	      1727	80004078	01371913	slli	x18,x14,0x13	 x14:0x80009fc4 x18=0xfe200000
       17295000	      1728	8000407c	7d81fc93	andi	x25,x3,2008	  x3:0x00000001 x25=0x00000000
       17305000	      1729	80004080	006a1e33	sll	x28,x20,x6	 x20:0xe4e90541  x6:0xffffb97c x28=0x10000000
       17315000	      1730	80004084	00b19793	slli	x15,x3,0xb	  x3:0x00000001 x15=0x00000800
       17325000	      1731	80004088	99410c93	addi	x25,x2,-1644	  x2:0x17000000 x25=0x16fff994
       17335000	      1732	8000408c	00000013	addi	x0,x0,0	  x0:0x00000000
       17345000	      1733	80004090	419fddb3	sra	x27,x31,x25	 x31:0x80009ee0 x25:0x16fff994 x27=0xfffff800
       17355000	      1734	80004094	00e68333	add	x6,x13,x14	 x13:0x000000f1 x14:0x80009fc4  x6=0x8000a0b5
       17365000	      1735	80004098	00b39693	slli	x13,x7,0xb	  x7:0x697a6f10 x13=0xd3788000
       17375000	      1736	8000409c	41e0dd33	sra	x26,x1,x30	  x1:0xc0000000 x30:0x00000670 x26=0xffffc000
       17385000	      1737	800040a0	00be59b3	srl	x19,x28,x11	 x28:0x10000000 x11:0x00000000 x19=0x10000000
       17395000	      1738	800040a4	048dd463	bge	x27,x8,800040ec	 x27:0xfffff800  x8:0x4f3ae4d8
       17405000	      1739	800040a8	9b1f7e13	andi	x28,x30,-1615	 x30:0x00000670 x28=0x00000030
       17415000	      1740	800040ac	00cf5b93	srli	x23,x30,0xc	 x30:0x00000670 x23=0x00000000
       17425000	      1741	800040b0	01ef0cb3	add	x25,x30,x30	 x30:0x00000670 x30:0x00000670 x25=0x00000ce0
       17435000	      1742	800040b4	01410e63	beq	x2,x20,800040d0	  x2:0x17000000 x20:0xe4e90541
       17445000	      1743	800040b8	00ee1233	sll	x4,x28,x14	 x28:0x00000030 x14:0x80009fc4  x4=0x00000300
       17455000	      1744	800040bc	019c1a93	slli	x21,x24,0x19	 x24:0x00000600 x21=0x00000000
       17465000	      1745	800040c0	40488e33	sub	x28,x17,x4	 x17:0x00000080  x4:0x00000300 x28=0xfffffd80
       17475000	      1746	800040c4	015d11b3	sll	x3,x26,x21	 x26:0xffffc000 x21:0x00000000  x3=0xffffc000
       17485000	      1747	800040c8	04464063	blt	x12,x4,80004108	 x12:0xbe6e28d8  x4:0x00000300
       17495000	      1748	00000000	00000013	addi	x0,x0,0	  x0:0x00000000
       17505000	      1749	80004104	00000013	addi	x0,x0,0	  x0:0x00000000
       17515000	      1750	80004108	032f9263	bne	x31,x18,8000412c	 x31:0x80009ee0 x18:0xfe200000
       17525000	      1751	00000000	00000013	addi	x0,x0,0	  x0:0x00000000
       17535000	      1752	80004128	00000013	addi	x0,x0,0	  x0:0x00000000
       17545000	      1753	8000412c	0126a533	slt	x10,x13,x18	 x13:0xd3788000 x18:0xfe200000 x10=0x00000001
       17555000	      1754	80004130	0051f033	and	x0,x3,x5	  x3:0xffffc000  x5:0xdbeca59f
       17565000	      1755	80004134	007eedb3	or	x27,x29,x7	 x29:0x43366024  x7:0x697a6f10 x27=0x6b7e6f34
       17575000	      1756	80004138	049a1063	bne	x20,x9,80004178	 x20:0xe4e90541  x9:0x000000bd
       17585000	      1757	00000000	00000013	addi	x0,x0,0	  x0:0x00000000
       17595000	      1758	80004174	00000013	addi	x0,x0,0	  x0:0x00000000
       17605000	      1759	80004178	18622e93	slti	x29,x4,390	  x4:0x00000300 x29=0x00000000
       17615000	      1760	8000417c	df59f293	andi	x5,x19,-523	 x19:0x10000000  x5=0x10000000
       17625000	      1761	80004180	002f6e63	bltu	x30,x2,8000419c	 x30:0x00000670  x2:0x17000000
       17635000	      1762	00000000	00000013	addi	x0,x0,0	  x0:0x00000000
       17645000	      1763	80004198	00000013	addi	x0,x0,0	  x0:0x00000000
       17655000	      1764	8000419c	00651c13	slli	x24,x10,0x6	 x10:0x00000001 x24=0x00000040
       17665000	      1765	800041a0	402204b3	sub	x9,x4,x2	  x4:0x00000300  x2:0x17000000  x9=0xe9000300
       17675000	      1766	800041a4	01e93cb3	sltu	x25,x18,x30	 x18:0xfe200000 x30:0x00000670 x25=0x00000000
       17685000	      1767	800041a8	00519263	bne	x3,x5,800041ac	  x3:0xffffc000  x5:0x10000000
       17695000	      1768	00000000	00000013	addi	x0,x0,0	  x0:0x00000000
       17705000	      1769	800041a8	00000013	addi	x0,x0,0	  x0:0x00000000
       17715000	      1770	800041ac	00a95663	bge	x18,x10,800041b8	 x18:0xfe200000 x10:0x00000001
       17725000	      1771	800041b0	d7866d93	ori	x27,x12,-648	 x12:0xbe6e28d8 x27=0xfffffdf8
       17735000	      1772	800041b4	00d01633	sll	x12,x0,x13	  x0:0x00000000 x13:0xd3788000 x12=0x00000000
       17745000	      1773	800041b8	60d32c93	slti	x25,x6,1549	  x6:0x8000a0b5 x25=0x00000001
       17755000	      1774	800041bc	00164e63	blt	x12,x1,800041d8	 x12:0x00000000  x1:0xc0000000
       17765000	      1775	800041c0	9ce50093	addi	x1,x10,-1586	 x10:0x00000001  x1=0xfffff9cf
       17775000	      1776	800041c4	017fe133	or	x2,x31,x23	 x31:0x80009ee0 x23:0x00000000  x2=0x80009ee0
       17785000	      1777	800041c8	00dc3b33	sltu	x22,x24,x13	 x24:0x00000040 x13:0xd3788000 x22=0x00000001
       17795000	      1778	800041cc	003bf0b3	and	x1,x23,x3	 x23:0x00000000  x3:0xffffc000  x1=0x00000000
       17805000	      1779	800041d0	00e5d413	srli	x8,x11,0xe	 x11:0x00000000  x8=0x00000000
       17815000	      1780	800041d4	00905d93	srli	x27,x0,0x9	  x0:0x00000000 x27=0x00000000
       17825000	      1781	800041d8	016a9b93	slli	x23,x21,0x16	 x21:0x00000000 x23=0x00000000
       17835000	      1782	800041dc	00cf8cb3	add	x25,x31,x12	 x31:0x80009ee0 x12:0x00000000 x25=0x80009ee0
       17845000	      1783	800041e0	013b6533	or	x10,x22,x19	 x22:0x00000001 x19:0x10000000 x10=0x10000001
       17855000	      1784	800041e4	414d5c13	srai	x24,x26,0x14	 x26:0xffffc000 x24=0xffffffff
       17865000	      1785	800041e8	01d005b3	add	x11,x0,x29	  x0:0x00000000 x29:0x00000000 x11=0x00000000
       17875000	      1786	800041ec	00b27e33	and	x28,x4,x11	  x4:0x00000300 x11:0x00000000 x28=0x00000000
       17885000	      1787	800041f0	00af39b3	sltu	x19,x30,x10	 x30:0x00000670 x10:0x10000001 x19=0x00000001
       17895000	      1788	800041f4	01c6ea63	bltu	x13,x28,80004208	 x13:0xd3788000 x28:0x00000000
       17905000	      1789	800041f8	00354cb3	xor	x25,x10,x3	 x10:0x10000001  x3:0xffffc000 x25=0xefffc001
       17915000	      1790	800041fc	019d1f13	slli	x30,x26,0x19	 x26:0xffffc000 x30=0x00000000
       17925000	      1791	80004200	017f8db3	add	x27,x31,x23	 x31:0x80009ee0 x23:0x00000000 x27=0x80009ee0
       17935000	      1792	80004204	01da79b3	and	x19,x20,x29	 x20:0xe4e90541 x29:0x00000000 x19=0x00000000
       17945000	      1793	80004208	64e63d93	sltiu	x27,x12,1614	 x12:0x00000000 x27=0x00000001
       17955000	      1794	8000420c	01f5c5b3	xor	x11,x11,x31	 x11:0x00000000 x31:0x80009ee0 x11=0x80009ee0
       17965000	      1795	80004210	01f200b3	add	x1,x4,x31	  x4:0x00000300 x31:0x80009ee0  x1=0x8000a1e0
       17975000	      1796	80004214	7fc2f493	andi	x9,x5,2044	  x5:0x10000000  x9=0x00000000
       17985000	      1797	80004218	003f3db3	sltu	x27,x30,x3	 x30:0x00000000  x3:0xffffc000 x27=0x00000001
       17995000	      1798	8000421c	01954e63	blt	x10,x25,80004238	 x10:0x10000001 x25:0xefffc001
       18005000	      1799	80004220	017de463	bltu	x27,x23,80004228	 x27:0x00000001 x23:0x00000000
       18015000	      1800	80004224	02a35c63	bge	x6,x10,8000425c	  x6:0x8000a0b5 x10:0x10000001
       18025000	      1801	80004228	5308b093	sltiu	x1,x17,1328	 x17:0x00000080  x1=0x00000001
       18035000	      1802	8000422c	401d04b3	sub	x9,x26,x1	 x26:0xffffc000  x1:0x00000001  x9=0xffffbfff
       18045000	      1803	80004230	00a49663	bne	x9,x10,8000423c	  x9:0xffffbfff x10:0x10000001
       18055000	      1804	00000000	00000013	addi	x0,x0,0	  x0:0x00000000
       18065000	      1805	80004238	00000013	addi	x0,x0,0	  x0:0x00000000
       18075000	      1806	8000423c	01ffd093	srli	x1,x31,0x1f	 x31:0x80009ee0  x1=0x00000001
       18085000	      1807	80004240	00fb4b33	xor	x22,x22,x15	 x22:0x00000001 x15:0x00000800 x22=0x00000801
       18095000	      1808	80004244	00000013	addi	x0,x0,0	  x0:0x00000000
       18105000	      1809	80004248	4a877593	andi	x11,x14,1192	 x14:0x80009fc4 x11=0x00000480
       18115000	      1810	8000424c	ceb10913	addi	x18,x2,-789	  x2:0x80009ee0 x18=0x80009bcb
       18125000	      1811	80004250	00d23c33	sltu	x24,x4,x13	  x4:0x00000300 x13:0xd3788000 x24=0x00000001
       18135000	      1812	80004254	00886263	bltu	x16,x8,80004258	 x16:0x43366024  x8:0x00000000
       18145000	      1813	80004258	94576c13	ori	x24,x14,-1723	 x14:0x80009fc4 x24=0xffffffc5
       18155000	      1814	8000425c	009fd0b3	srl	x1,x31,x9	 x31:0x80009ee0  x9:0xffffbfff  x1=0x00000001
       18165000	      1815	80004260	01c33db3	sltu	x27,x6,x28	  x6:0x8000a0b5 x28:0x00000000 x27=0x00000000
       18175000	      1816	80004264	00000013	addi	x0,x0,0	  x0:0x00000000
       18185000	      1817	80004268	01ee5513	srli	x10,x28,0x1e	 x28:0x00000000 x10=0x00000000
       18195000	      1818	8000426c	01b8a6b3	slt	x13,x17,x27	 x17:0x00000080 x27:0x00000000 x13=0x00000000
       18205000	      1819	80004270	00000013	addi	x0,x0,0	  x0:0x00000000
       18215000	      1820	80004274	45272113	slti	x2,x14,1106	 x14:0x80009fc4  x2=0x00000001
       18225000	      1821	80004278	416f5a93	srai	x21,x30,0x16	 x30:0x00000000 x21=0x00000000
       18235000	      1822	8000427c	5d914813	xori	x16,x2,1497	  x2:0x00000001 x16=0x000005d8
       18245000	      1823	80004280	31178617	auipc	x12,0x31178	 x12=0xb117c27c
       18255000	      1824	80004284	7823f293	andi	x5,x7,1922	  x7:0x697a6f10  x5=0x00000700
       18265000	      1825	80004288	034f9c63	bne	x31,x20,800042c0	 x31:0x80009ee0 x20:0xe4e90541
       18275000	      1826	00000000	00000013	addi	x0,x0,0	  x0:0x00000000
       18285000	      1827	800042bc	00000013	addi	x0,x0,0	  x0:0x00000000
       18295000	      1828	800042c0	01324e63	blt	x4,x19,800042dc	  x4:0x00000300 x19:0x00000000
       18305000	      1829	800042c4	052e7863	bgeu	x28,x18,80004314	 x28:0x00000000 x18:0x80009bcb
       18315000	      1830	800042c8	00294433	xor	x8,x18,x2	 x18:0x80009bcb  x2:0x00000001  x8=0x80009bca
       18325000	      1831	800042cc	419a87b3	sub	x15,x21,x25	 x21:0x00000000 x25:0xefffc001 x15=0x10003fff
       18335000	      1832	800042d0	01747cb3	and	x25,x8,x23	  x8:0x80009bca x23:0x00000000 x25=0x00000000
       18345000	      1833	800042d4	00eb5413	srli	x8,x22,0xe	 x22:0x00000801  x8=0x00000000
       18355000	      1834	800042d8	000a9bb3	sll	x23,x21,x0	 x21:0x00000000  x0:0x00000000 x23=0x00000000
       18365000	      1835	800042dc	e6ea8e93	addi	x29,x21,-402	 x21:0x00000000 x29=0xfffffe6e
       18375000	      1836	800042e0	41948eb3	sub	x29,x9,x25	  x9:0xffffbfff x25:0x00000000 x29=0xffffbfff
       18385000	      1837	800042e4	03c30263	beq	x6,x28,80004308	  x6:0x8000a0b5 x28:0x00000000
       18395000	      1838	800042e8	00b7b033	sltu	x0,x15,x11	 x15:0x10003fff x11:0x00000480
       18405000	      1839	800042ec	005d9463	bne	x27,x5,800042f4	 x27:0x00000000  x5:0x00000700
       18415000	      1840	00000000	00000013	addi	x0,x0,0	  x0:0x00000000
       18425000	      1841	800042f0	00000013	addi	x0,x0,0	  x0:0x00000000
       18435000	      1842	800042f4	00edbdb3	sltu	x27,x27,x14	 x27:0x00000000 x14:0x80009fc4 x27=0x00000001
       18445000	      1843	800042f8	00b61e93	slli	x29,x12,0xb	 x12:0xb117c27c x29=0xbe13e000
       18455000	      1844	800042fc	00000013	addi	x0,x0,0	  x0:0x00000000
       18465000	      1845	80004300	00c10c63	beq	x2,x12,80004318	  x2:0x00000001 x12:0xb117c27c
       18475000	      1846	80004304	67827917	auipc	x18,0x67827	 x18=0xe782b300
       18485000	      1847	80004308	93c42137	lui	x2,0x93c42	  x2=0x93c42000
       18495000	      1848	8000430c	0118d3b3	srl	x7,x17,x17	 x17:0x00000080 x17:0x00000080  x7=0x00000080
       18505000	      1849	80004310	95eaab93	slti	x23,x21,-1698	 x21:0x00000000 x23=0x00000000
       18515000	      1850	80004314	01b91213	slli	x4,x18,0x1b	 x18:0xe782b300  x4=0x00000000
       18525000	      1851	80004318	05a41197	auipc	x3,0x5a41	  x3=0x85a45314
       18535000	      1852	8000431c	014311b3	sll	x3,x6,x20	  x6:0x8000a0b5 x20:0xe4e90541  x3=0x0001416a
       18545000	      1853	80004320	0040f833	and	x16,x1,x4	  x1:0x00000001  x4:0x00000000 x16=0x00000000
       18555000	      1854	80004324	01cb7663	bgeu	x22,x28,80004330	 x22:0x00000801 x28:0x00000000
       18565000	      1855	00000000	00000013	addi	x0,x0,0	  x0:0x00000000
       18575000	      1856	8000432c	00000013	addi	x0,x0,0	  x0:0x00000000
       18585000	      1857	80004330	00a1d6b3	srl	x13,x3,x10	  x3:0x0001416a x10:0x00000000 x13=0x0001416a
       18595000	      1858	80004334	00e08633	add	x12,x1,x14	  x1:0x00000001 x14:0x80009fc4 x12=0x80009fc5
       18605000	      1859	80004338	016b7f33	and	x30,x22,x22	 x22:0x00000801 x22:0x00000801 x30=0x00000801
       18615000	      1860	8000433c	00595c93	srli	x25,x18,0x5	 x18:0xe782b300 x25=0x073c1598
       18625000	      1861	80004340	05d7c663	blt	x15,x29,8000438c	 x15:0x10003fff x29:0xbe13e000
       18635000	      1862	80004344	0053d933	srl	x18,x7,x5	  x7:0x00000080  x5:0x00000700 x18=0x00000080
       18645000	      1863	80004348	6fea7b13	andi	x22,x20,1790	 x20:0xe4e90541 x22=0x00000440
       18655000	      1864	8000434c	01806033	or	x0,x0,x24	  x0:0x00000000 x24:0xffffffc5
       18665000	      1865	80004350	01d7eab3	or	x21,x15,x29	 x15:0x10003fff x29:0xbe13e000 x21=0xbe13ffff
       18675000	      1866	80004354	01825833	srl	x16,x4,x24	  x4:0x00000000 x24:0xffffffc5 x16=0x00000000
       18685000	      1867	80004358	01509b13	slli	x22,x1,0x15	  x1:0x00000001 x22=0x00200000
       18695000	      1868	8000435c	0156abb3	slt	x23,x13,x21	 x13:0x0001416a x21:0xbe13ffff x23=0x00000000
       18705000	      1869	80004360	00d67b33	and	x22,x12,x13	 x12:0x80009fc5 x13:0x0001416a x22=0x00000140
       18715000	      1870	80004364	011ad813	srli	x16,x21,0x11	 x21:0xbe13ffff x16=0x00005f09
       18725000	      1871	80004368	01644e63	blt	x8,x22,80004384	  x8:0x00000000 x22:0x00000140
       18735000	      1872	00000000	00000013	addi	x0,x0,0	  x0:0x00000000
       18745000	      1873	80004380	00000013	addi	x0,x0,0	  x0:0x00000000
       18755000	      1874	80004384	01f28333	add	x6,x5,x31	  x5:0x00000700 x31:0x80009ee0  x6=0x8000a5e0
       18765000	      1875	80004388	00000013	addi	x0,x0,0	  x0:0x00000000
       18775000	      1876	8000438c	e1376537	lui	x10,0xe1376	 x10=0xe1376000
       18785000	      1877	80004390	4fa72b13	slti	x22,x14,1274	 x14:0x80009fc4 x22=0x00000001
       18795000	      1878	80004394	00131693	slli	x13,x6,0x1	  x6:0x8000a5e0 x13=0x00014bc0
       18805000	      1879	80004398	00a2fd33	and	x26,x5,x10	  x5:0x00000700 x10:0xe1376000 x26=0x00000000
       18815000	      1880	8000439c	01d496b3	sll	x13,x9,x29	  x9:0xffffbfff x29:0xbe13e000 x13=0xffffbfff
       18825000	      1881	800043a0	b2e7a4b7	lui	x9,0xb2e7a	  x9=0xb2e7a000
       18835000	      1882	800043a4	004fa283	lw	x5,4(x31)	 x31:0x80009ee0  x5=0x8000190c PA:0x80009ee4
       18845000	      1883	800043a8	017e37b3	sltu	x15,x28,x23	 x28:0x00000000 x23:0x00000000 x15=0x00000000
       18855000	      1884	800043ac	01be9933	sll	x18,x29,x27	 x29:0xbe13e000 x27:0x00000001 x18=0x7c27c000
       18865000	      1885	800043b0	0064d333	srl	x6,x9,x6	  x9:0xb2e7a000  x6:0x8000a5e0  x6=0xb2e7a000
       18875000	      1886	800043b4	0058e833	or	x16,x17,x5	 x17:0x00000080  x5:0x8000190c x16=0x8000198c
       18885000	      1887	800043b8	01cf8f93	addi	x31,x31,28	 x31:0x80009ee0 x31=0x80009efc
       18895000	      1888	800043bc	41d6d613	srai	x12,x13,0x1d	 x13:0xffffbfff x12=0xffffffff
       18905000	      1889	800043c0	00128893	addi	x17,x5,1	  x5:0x8000190c x17=0x8000190d
       18915000	      1890	800043c4	000888e7	jalr	x17,x17,0	 x17:0x8000190d x17=0x800043c4
       18925000	      1891	00000000	00000013	addi	x0,x0,0	  x0:0x00000000
       18935000	      1892	8000190c	00000013	addi	x0,x0,0	  x0:0x00000000
       18945000	      1893	80001910	41e98633	sub	x12,x19,x30	 x19:0x00000000 x30:0x00000801 x12=0xfffff7ff
       18955000	      1894	80001914	018465b3	or	x11,x8,x24	  x8:0x00000000 x24:0xffffffc5 x11=0xffffffc5
       18965000	      1895	80001918	03b3c463	blt	x7,x27,80001940	  x7:0x00000080 x27:0x00000001
       18975000	      1896	8000191c	016d9293	slli	x5,x27,0x16	 x27:0x00000001  x5=0x00400000
       18985000	      1897	80001920	02b09063	bne	x1,x11,80001940	  x1:0x00000001 x11:0xffffffc5
       18995000	      1898	00000000	00000013	addi	x0,x0,0	  x0:0x00000000
       19005000	      1899	8000193c	00000013	addi	x0,x0,0	  x0:0x00000000
       19015000	      1900	80001940	00ff67b3	or	x15,x30,x15	 x30:0x00000801 x15:0x00000000 x15=0x00000801
       19025000	      1901	80001944	00425cb3	srl	x25,x4,x4	  x4:0x00000000  x4:0x00000000 x25=0x00000000
       19035000	      1902	80001948	4140d5b3	sra	x11,x1,x20	  x1:0x00000001 x20:0xe4e90541 x11=0x00000000
       19045000	      1903	8000194c	004fa283	lw	x5,4(x31)	 x31:0x80009efc  x5=0x800004fc PA:0x80009f00
       19055000	      1904	80001950	02cf8f93	addi	x31,x31,44	 x31:0x80009efc x31=0x80009f28
       19065000	      1905	80001954	4e8ffb13	andi	x22,x31,1256	 x31:0x80009f28 x22=0x00000428
       19075000	      1906	80001958	01111db3	sll	x27,x2,x17	  x2:0x93c42000 x17:0x800043c4 x27=0x3c420000
       19085000	      1907	8000195c	00028b13	addi	x22,x5,0	  x5:0x800004fc x22=0x800004fc
       19095000	      1908	80001960	000b0b67	jalr	x22,x22,0	 x22:0x800004fc x22=0x80001960
       19105000	      1909	00000000	00000013	addi	x0,x0,0	  x0:0x00000000
       19115000	      1910	800004fc	00000013	addi	x0,x0,0	  x0:0x00000000
       19125000	      1911	80000500	008448b3	xor	x17,x8,x8	  x8:0x00000000  x8:0x00000000 x17=0x00000000
       19135000	      1912	80000504	00004b97	auipc	x23,0x4	 x23=0x80004500
       19145000	      1913	80000508	09cb8b93	addi	x23,x23,156	 x23:0x80004500 x23=0x8000459c
       19155000	      1914	8000050c	4d520613	addi	x12,x4,1237	  x4:0x00000000 x12=0x000004d5
       19165000	      1915	80000510	cf8b8b93	addi	x23,x23,-776	 x23:0x8000459c x23=0x80004294
       19175000	      1916	80000514	729a7593	andi	x11,x20,1833	 x20:0xe4e90541 x11=0x00000501
       19185000	      1917	80000518	001e43b3	xor	x7,x28,x1	 x28:0x00000000  x1:0x00000001  x7=0x00000001
       19195000	      1918	8000051c	007c42b3	xor	x5,x24,x7	 x24:0xffffffc5  x7:0x00000001  x5=0xffffffc4
       19205000	      1919	80000520	309b82e7	jalr	x5,x23,777	 x23:0x80004294  x5=0x80000520
       19215000	      1920	00000000	00000013	addi	x0,x0,0	  x0:0x00000000
       19225000	      1921	8000459c	00000013	addi	x0,x0,0	  x0:0x00000000
       19235000	      1922	800045a0	41c28f33	sub	x30,x5,x28	  x5:0x80000520 x28:0x00000000 x30=0x80000520
       19245000	      1923	800045a4	fe4f8f93	addi	x31,x31,-28	 x31:0x80009f28 x31=0x80009f0c
       19255000	      1924	800045a8	017c8d33	add	x26,x25,x23	 x25:0x00000000 x23:0x80004294 x26=0x80004294
       19265000	      1925	800045ac	80ba7e93	andi	x29,x20,-2037	 x20:0xe4e90541 x29=0xe4e90001
       19275000	      1926	800045b0	005fa223	sw	x5,4(x31)	 x31:0x80009f0c  x5:0x80000520 PA:0x80009f10
       19285000	      1927	800045b4	015adb33	srl	x22,x21,x21	 x21:0xbe13ffff x21:0xbe13ffff x22=0x00000001
       19295000	      1928	800045b8	01ef50b3	srl	x1,x30,x30	 x30:0x80000520 x30:0x80000520  x1=0x80000520
       19305000	      1929	800045bc	401488b3	sub	x17,x9,x1	  x9:0xb2e7a000  x1:0x80000520 x17=0x32e79ae0
       19315000	      1930	800045c0	641e0593	addi	x11,x28,1601	 x28:0x00000000 x11=0x00000641
       19325000	      1931	800045c4	010f9c33	sll	x24,x31,x16	 x31:0x80009f0c x16:0x8000198c x24=0x09f0c000
       19335000	      1932	800045c8	01861993	slli	x19,x12,0x18	 x12:0x000004d5 x19=0xd5000000
       19345000	      1933	800045cc	40845093	srai	x1,x8,0x8	  x8:0x00000000  x1=0x00000000
       19355000	      1934	800045d0	00000013	addi	x0,x0,0	  x0:0x00000000
       19365000	      1935	800045d4	b90fd2ef	jal	x5,800045d4	  x5=0x800045d4
       19375000	      1936	00000000	00000013	addi	x0,x0,0	  x0:0x00000000
       19385000	      1937	80001960	00000013	addi	x0,x0,0	  x0:0x00000000
       19395000	      1938	80001964	0104f463	bgeu	x9,x16,8000196c	  x9:0xb2e7a000 x16:0x8000198c
       19405000	      1939	00000000	00000013	addi	x0,x0,0	  x0:0x00000000
       19415000	      1940	80001968	00000013	addi	x0,x0,0	  x0:0x00000000
       19425000	      1941	8000196c	fdcf8f93	addi	x31,x31,-36	 x31:0x80009f0c x31=0x80009ee8
       19435000	      1942	80001970	6a92c913	xori	x18,x5,1705	  x5:0x800045d4 x18=0x8000437d
       19445000	      1943	80001974	9c654e93	xori	x29,x10,-1594	 x10:0xe1376000 x29=0x1ec899c6
       19455000	      1944	80001978	005fa223	sw	x5,4(x31)	 x31:0x80009ee8  x5:0x800045d4 PA:0x80009eec
       19465000	      1945	8000197c	e6728113	addi	x2,x5,-409	  x5:0x800045d4  x2=0x8000443b
       19475000	      1946	80001980	00005697	auipc	x13,0x5	 x13=0x8000697c
       19485000	      1947	80001984	1ec68693	addi	x13,x13,492	 x13:0x8000697c x13=0x80006b68
       19495000	      1948	80001988	005e2e33	slt	x28,x28,x5	 x28:0x00000000  x5:0x800045d4 x28=0x00000000
       19505000	      1949	8000198c	19468693	addi	x13,x13,404	 x13:0x80006b68 x13=0x80006cfc
       19515000	      1950	80001990	65aeac97	auipc	x25,0x65aea	 x25=0xe5aeb98c
       19525000	      1951	80001994	0121da63	bge	x3,x18,800019a8	  x3:0x0001416a x18:0x8000437d
       19535000	      1952	00000000	00000013	addi	x0,x0,0	  x0:0x00000000
       19545000	      1953	800019a4	00000013	addi	x0,x0,0	  x0:0x00000000
       19555000	      1954	800019a8	e6c682e7	jalr	x5,x13,-404	 x13:0x80006cfc  x5=0x800019a8
       19565000	      1955	00000000	00000013	addi	x0,x0,0	  x0:0x00000000
       19575000	      1956	80006b68	00000013	addi	x0,x0,0	  x0:0x00000000
       19585000	      1957	80006b6c	cc06a813	slti	x16,x13,-832	 x13:0x80006cfc x16=0x00000001
       19595000	      1958	80006b70	0acb6e13	ori	x28,x22,172	 x22:0x00000001 x28=0x000000ad
       19605000	      1959	80006b74	90017b13	andi	x22,x2,-1792	  x2:0x8000443b x22=0x80004000
       19615000	      1960	80006b78	30f49317	auipc	x6,0x30f49	  x6=0xb0f4fb74
       19625000	      1961	80006b7c	00f76463	bltu	x14,x15,80006b84	 x14:0x80009fc4 x15:0x00000801
       19635000	      1962	80006b80	000ac933	xor	x18,x21,x0	 x21:0xbe13ffff  x0:0x00000000 x18=0xbe13ffff
       19645000	      1963	80006b84	fd8f8f93	addi	x31,x31,-40	 x31:0x80009ee8 x31=0x80009ec0
       19655000	      1964	80006b88	005fa223	sw	x5,4(x31)	 x31:0x80009ec0  x5:0x800019a8 PA:0x80009ec4
       19665000	      1965	80006b8c	b61be913	ori	x18,x23,-1183	 x23:0x80004294 x18=0xfffffbf5
       19675000	      1966	80006b90	e6600c13	addi	x24,x0,-410	  x0:0x00000000 x24=0xfffffe66
       19685000	      1967	80006b94	000f1d33	sll	x26,x30,x0	 x30:0x80000520  x0:0x00000000 x26=0x80000520
       19695000	      1968	80006b98	01b23233	sltu	x4,x4,x27	  x4:0x00000000 x27:0x3c420000  x4=0x00000001
       19705000	      1969	80006b9c	d8229b97	auipc	x23,0xd8229	 x23=0x5822fb98
       19715000	      1970	80006ba0	01558863	beq	x11,x21,80006bb0	 x11:0x00000641 x21:0xbe13ffff
       19725000	      1971	80006ba4	00daaab3	slt	x21,x21,x13	 x21:0xbe13ffff x13:0x80006cfc x21=0x00000000
       19735000	      1972	80006ba8	ce589cb7	lui	x25,0xce589	 x25=0xce589000
       19745000	      1973	80006bac	0f1f3d97	auipc	x27,0xf1f3	 x27=0x8f1f9ba8
       19755000	      1974	80006bb0	002fd2b3	srl	x5,x31,x2	 x31:0x80009ec0  x2:0x8000443b  x5=0x00000010
       19765000	      1975	80006bb4	01edab33	slt	x22,x27,x30	 x27:0x8f1f9ba8 x30:0x80000520 x22=0x00000000
       19775000	      1976	80006bb8	0148e863	bltu	x17,x20,80006bc8	 x17:0x32e79ae0 x20:0xe4e90541
       19785000	      1977	00000000	00000013	addi	x0,x0,0	  x0:0x00000000
       19795000	      1978	80006bc4	00000013	addi	x0,x0,0	  x0:0x00000000
       19805000	      1979	80006bc8	0100ceb3	xor	x29,x1,x16	  x1:0x00000000 x16:0x00000001 x29=0x00000001
       19815000	      1980	80006bcc	01bc5263	bge	x24,x27,80006bd0	 x24:0xfffffe66 x27:0x8f1f9ba8
       19825000	      1981	00000000	00000013	addi	x0,x0,0	  x0:0x00000000
       19835000	      1982	80006bcc	00000013	addi	x0,x0,0	  x0:0x00000000
       19845000	      1983	80006bd0	00354c33	xor	x24,x10,x3	 x10:0xe1376000  x3:0x0001416a x24=0xe136216a
       19855000	      1984	80006bd4	419f5eb3	sra	x29,x30,x25	 x30:0x80000520 x25:0xce589000 x29=0x80000520
       19865000	      1985	80006bd8	004fa283	lw	x5,4(x31)	 x31:0x80009ec0  x5=0x800019a8 PA:0x80009ec4
       19875000	      1986	80006bdc	42c82e13	slti	x28,x16,1068	 x16:0x00000001 x28=0x00000001
       19885000	      1987	80006be0	028f8f93	addi	x31,x31,40	 x31:0x80009ec0 x31=0x80009ee8
       19895000	      1988	80006be4	00a40333	add	x6,x8,x10	  x8:0x00000000 x10:0xe1376000  x6=0xe1376000
       19905000	      1989	80006be8	006c56b3	srl	x13,x24,x6	 x24:0xe136216a  x6:0xe1376000 x13=0xe136216a
       19915000	      1990	80006bec	40c10d33	sub	x26,x2,x12	  x2:0x8000443b x12:0x000004d5 x26=0x80003f66
       19925000	      1991	80006bf0	00441433	sll	x8,x8,x4	  x8:0x00000000  x4:0x00000001  x8=0x00000000
       19935000	      1992	80006bf4	00128413	addi	x8,x5,1	  x5:0x800019a8  x8=0x800019a9
       19945000	      1993	80006bf8	00040467	jalr	x8,x8,0	  x8:0x800019a9  x8=0x80006bf8
       19955000	      1994	00000000	00000013	addi	x0,x0,0	  x0:0x00000000
       19965000	      1995	800019a8	00000013	addi	x0,x0,0	  x0:0x00000000
       19975000	      1996	800019ac	020dfc63	bgeu	x27,x0,800019e4	 x27:0x8f1f9ba8  x0:0x00000000
       19985000	      1997	00000000	00000013	addi	x0,x0,0	  x0:0x00000000
       19995000	      1998	800019e0	00000013	addi	x0,x0,0	  x0:0x00000000
       20005000	      1999	800019e4	cc6fed13	ori	x26,x31,-826	 x31:0x80009ee8 x26=0xfffffeee
       20015000	      2000	800019e8	01981933	sll	x18,x16,x25	 x16:0x00000001 x25:0xce589000 x18=0x00000001
       20025000	      2001	800019ec	5e853493	sltiu	x9,x10,1512	 x10:0xe1376000  x9=0x00000000
       20035000	      2002	800019f0	03ff8863	beq	x31,x31,80001a20	 x31:0x80009ee8 x31:0x80009ee8
       20045000	      2003	00000000	00000013	addi	x0,x0,0	  x0:0x00000000
       20055000	      2004	80001a1c	00000013	addi	x0,x0,0	  x0:0x00000000
       20065000	      2005	80001a20	01fc1113	slli	x2,x24,0x1f	 x24:0xe136216a  x2=0x00000000
       20075000	      2006	80001a24	9fd62793	slti	x15,x12,-1539	 x12:0x000004d5 x15=0x00000000
       20085000	      2007	80001a28	00000013	addi	x0,x0,0	  x0:0x00000000
       20095000	      2008	80001a2c	0380c463	blt	x1,x24,80001a54	  x1:0x00000000 x24:0xe136216a
       20105000	      2009	80001a30	7de80613	addi	x12,x16,2014	 x16:0x00000001 x12=0x000007df
       20115000	      2010	80001a34	984418b7	lui	x17,0x98441	 x17=0x98441000
       20125000	      2011	80001a38	016e00b3	add	x1,x28,x22	 x28:0x00000001 x22:0x00000000  x1=0x00000001
       20135000	      2012	80001a3c	40c80c33	sub	x24,x16,x12	 x16:0x00000001 x12:0x000007df x24=0xfffff822
       20145000	      2013	80001a40	015c75b3	and	x11,x24,x21	 x24:0xfffff822 x21:0x00000000 x11=0x00000000
       20155000	      2014	80001a44	01aff5b3	and	x11,x31,x26	 x31:0x80009ee8 x26:0xfffffeee x11=0x80009ee8
       20165000	      2015	80001a48	406e54b3	sra	x9,x28,x6	 x28:0x00000001  x6:0xe1376000  x9=0x00000001
       20175000	      2016	80001a4c	8e297797	auipc	x15,0x8e297	 x15=0x0e298a48
       20185000	      2017	80001a50	02424a63	blt	x4,x4,80001a84	  x4:0x00000001  x4:0x00000001
       20195000	      2018	80001a54	0062b933	sltu	x18,x5,x6	  x5:0x800019a8  x6:0xe1376000 x18=0x00000001
       20205000	      2019	80001a58	80006d97	auipc	x27,0x80006	 x27=0x00007a54
       20215000	      2020	80001a5c	00e5b333	sltu	x6,x11,x14	 x11:0x80009ee8 x14:0x80009fc4  x6=0x00000001
       20225000	      2021	80001a60	00411033	sll	x0,x2,x4	  x2:0x00000000  x4:0x00000001
       20235000	      2022	80001a64	41095113	srai	x2,x18,0x10	 x18:0x00000001  x2=0x00000000
       20245000	      2023	80001a68	f959c913	xori	x18,x19,-107	 x19:0xd5000000 x18=0x2affff95
       20255000	      2024	80001a6c	00bd9333	sll	x6,x27,x11	 x27:0x00007a54 x11:0x80009ee8  x6=0x007a5400
       20265000	      2025	80001a70	00177033	and	x0,x14,x1	 x14:0x80009fc4  x1:0x00000001
       20275000	      2026	80001a74	0328fa63	bgeu	x17,x18,80001aa8	 x17:0x98441000 x18:0x2affff95
       20285000	      2027	00000000	00000013	addi	x0,x0,0	  x0:0x00000000
       20295000	      2028	80001aa4	00000013	addi	x0,x0,0	  x0:0x00000000
       20305000	      2029	80001aa8	043be863	bltu	x23,x3,80001af8	 x23:0x5822fb98  x3:0x0001416a
       20315000	      2030	80001aac	05897463	bgeu	x18,x24,80001af4	 x18:0x2affff95 x24:0xfffff822
       20325000	      2031	80001ab0	2df68f13	addi	x30,x13,735	 x13:0xe136216a x30=0xe1362449
       20335000	      2032	80001ab4	00f75e63	bge	x14,x15,80001ad0	 x14:0x80009fc4 x15:0x0e298a48
       20345000	      2033	80001ab8	02114c63	blt	x2,x1,80001af0	  x2:0x00000000  x1:0x00000001
       20355000	      2034	00000000	00000013	addi	x0,x0,0	  x0:0x00000000
       20365000	      2035	80001aec	00000013	addi	x0,x0,0	  x0:0x00000000
       20375000	      2036	80001af0	01044833	xor	x16,x8,x16	  x8:0x80006bf8 x16:0x00000001 x16=0x80006bf9
       20385000	      2037	80001af4	00309893	slli	x17,x1,0x3	  x1:0x00000001 x17=0x00000008
       20395000	      2038	80001af8	8e233e93	sltiu	x29,x6,-1822	  x6:0x007a5400 x29=0x00000001
       20405000	      2039	80001afc	89f8f113	andi	x2,x17,-1889	 x17:0x00000008  x2=0x00000008
       20415000	      2040	80001b00	01e0eeb3	or	x29,x1,x30	  x1:0x00000001 x30:0xe1362449 x29=0xe1362449
       20425000	      2041	80001b04	d47a3d13	sltiu	x26,x20,-697	 x20:0xe4e90541 x26=0x00000001
       20435000	      2042	80001b08	00c29a63	bne	x5,x12,80001b1c	  x5:0x800019a8 x12:0x000007df
       20445000	      2043	00000000	00000013	addi	x0,x0,0	  x0:0x00000000
       20455000	      2044	80001b18	00000013	addi	x0,x0,0	  x0:0x00000000
       20465000	      2045	80001b1c	ccc60113	addi	x2,x12,-820	 x12:0x000007df  x2=0x000004ab
       20475000	      2046	80001b20	00edec63	bltu	x27,x14,80001b38	 x27:0x00007a54 x14:0x80009fc4
       20485000	      2047	00000000	00000013	addi	x0,x0,0	  x0:0x00000000
       20495000	      2048	80001b34	00000013	addi	x0,x0,0	  x0:0x00000000
       20505000	      2049	80001b38	00334db3	xor	x27,x6,x3	  x6:0x007a5400  x3:0x0001416a x27=0x007b156a
       20515000	      2050	80001b3c	0826ec93	ori	x25,x13,130	 x13:0xe136216a x25=0xe13621ea
       20525000	      2051	80001b40	33c93413	sltiu	x8,x18,828	 x18:0x2affff95  x8=0x00000000
       20535000	      2052	80001b44	009a5d33	srl	x26,x20,x9	 x20:0xe4e90541  x9:0x00000001 x26=0x727482a0
       20545000	      2053	80001b48	d5122113	slti	x2,x4,-687	  x4:0x00000001  x2=0x00000000
       20555000	      2054	80001b4c	5add2c17	auipc	x24,0x5add2	 x24=0xdadd3b48
       20565000	      2055	80001b50	004ad1b3	srl	x3,x21,x4	 x21:0x00000000  x4:0x00000001  x3=0x00000000
       20575000	      2056	80001b54	2b750493	addi	x9,x10,695	 x10:0xe1376000  x9=0xe13762b7
       20585000	      2057	80001b58	00f831b3	sltu	x3,x16,x15	 x16:0x80006bf9 x15:0x0e298a48  x3=0x00000000
       20595000	      2058	80001b5c	40090633	sub	x12,x18,x0	 x18:0x2affff95  x0:0x00000000 x12=0x2affff95
       20605000	      2059	80001b60	40c55893	srai	x17,x10,0xc	 x10:0xe1376000 x17=0xfffe1376
       20615000	      2060	80001b64	3f8a8113	addi	x2,x21,1016	 x21:0x00000000  x2=0x000003f8
       20625000	      2061	80001b68	00b7a0b3	slt	x1,x15,x11	 x15:0x0e298a48 x11:0x80009ee8  x1=0x00000000
       20635000	      2062	80001b6c	0186de63	bge	x13,x24,80001b88	 x13:0xe136216a x24:0xdadd3b48
       20645000	      2063	00000000	00000013	addi	x0,x0,0	  x0:0x00000000
       20655000	      2064	80001b84	00000013	addi	x0,x0,0	  x0:0x00000000
       20665000	      2065	80001b88	005169b3	or	x19,x2,x5	  x2:0x000003f8  x5:0x800019a8 x19=0x80001bf8
       20675000	      2066	80001b8c	968a2837	lui	x16,0x968a2	 x16=0x968a2000
       20685000	      2067	80001b90	d62b6397	auipc	x7,0xd62b6	  x7=0x562b7b8c
       20695000	      2068	80001b94	d2034b97	auipc	x23,0xd2034	 x23=0x52035b90
       20705000	      2069	80001b98	004fa283	lw	x5,4(x31)	 x31:0x80009ee8  x5=0x800045d4 PA:0x80009eec
       20715000	      2070	80001b9c	024f8f93	addi	x31,x31,36	 x31:0x80009ee8 x31=0x80009f0c
       20725000	      2071	80001ba0	01d59833	sll	x16,x11,x29	 x11:0x80009ee8 x29:0xe1362449 x16=0x013dd000
       20735000	      2072	80001ba4	001da493	slti	x9,x27,1	 x27:0x007b156a  x9=0x00000000
       20745000	      2073	80001ba8	00128793	addi	x15,x5,1	  x5:0x800045d4 x15=0x800045d5
       20755000	      2074	80001bac	000787e7	jalr	x15,x15,0	 x15:0x800045d5 x15=0x80001bac
       20765000	      2075	00000000	00000013	addi	x0,x0,0	  x0:0x00000000
       20775000	      2076	800045d4	00000013	addi	x0,x0,0	  x0:0x00000000
       20785000	      2077	800045d8	0005ed33	or	x26,x11,x0	 x11:0x80009ee8  x0:0x00000000 x26=0x80009ee8
       20795000	      2078	800045dc	40e4da93	srai	x21,x9,0xe	  x9:0x00000000 x21=0x00000000
       20805000	      2079	800045e0	1242f493	andi	x9,x5,292	  x5:0x800045d4  x9=0x00000104
       20815000	      2080	800045e4	01f634b3	sltu	x9,x12,x31	 x12:0x2affff95 x31:0x80009f0c  x9=0x00000001
       20825000	      2081	800045e8	01272e33	slt	x28,x14,x18	 x14:0x80009fc4 x18:0x2affff95 x28=0x00000001
       20835000	      2082	800045ec	013cde33	srl	x28,x25,x19	 x25:0xe13621ea x19:0x80001bf8 x28=0x000000e1
       20845000	      2083	800045f0	00da9db3	sll	x27,x21,x13	 x21:0x00000000 x13:0xe136216a x27=0x00000000
       20855000	      2084	800045f4	5a403937	lui	x18,0x5a403	 x18=0x5a403000
       20865000	      2085	800045f8	b6cfd2ef	jal	x5,800045f8	  x5=0x800045f8
       20875000	      2086	00000000	00000013	addi	x0,x0,0	  x0:0x00000000
       20885000	      2087	80001960	00000013	addi	x0,x0,0	  x0:0x00000000
       20895000	      2088	80001964	0104f463	bgeu	x9,x16,8000196c	  x9:0x00000001 x16:0x013dd000
       20905000	      2089	80001968	01b7ec33	or	x24,x15,x27	 x15:0x80001bac x27:0x00000000 x24=0x80001bac
       20915000	      2090	8000196c	fdcf8f93	addi	x31,x31,-36	 x31:0x80009f0c x31=0x80009ee8
       20925000	      2091	80001970	6a92c913	xori	x18,x5,1705	  x5:0x800045f8 x18=0x80004351
       20935000	      2092	80001974	9c654e93	xori	x29,x10,-1594	 x10:0xe1376000 x29=0x1ec899c6
       20945000	      2093	80001978	005fa223	sw	x5,4(x31)	 x31:0x80009ee8  x5:0x800045f8 PA:0x80009eec
       20955000	      2094	8000197c	e6728113	addi	x2,x5,-409	  x5:0x800045f8  x2=0x8000445f
       20965000	      2095	80001980	00005697	auipc	x13,0x5	 x13=0x8000697c
       20975000	      2096	80001984	1ec68693	addi	x13,x13,492	 x13:0x8000697c x13=0x80006b68
       20985000	      2097	80001988	005e2e33	slt	x28,x28,x5	 x28:0x000000e1  x5:0x800045f8 x28=0x00000000
       20995000	      2098	8000198c	19468693	addi	x13,x13,404	 x13:0x80006b68 x13=0x80006cfc
       21005000	      2099	80001990	65aeac97	auipc	x25,0x65aea	 x25=0xe5aeb98c
       21015000	      2100	80001994	0121da63	bge	x3,x18,800019a8	  x3:0x00000000 x18:0x80004351
       21025000	      2101	00000000	00000013	addi	x0,x0,0	  x0:0x00000000
       21035000	      2102	800019a4	00000013	addi	x0,x0,0	  x0:0x00000000
       21045000	      2103	800019a8	e6c682e7	jalr	x5,x13,-404	 x13:0x80006cfc  x5=0x800019a8
       21055000	      2104	00000000	00000013	addi	x0,x0,0	  x0:0x00000000
       21065000	      2105	80006b68	00000013	addi	x0,x0,0	  x0:0x00000000
       21075000	      2106	80006b6c	cc06a813	slti	x16,x13,-832	 x13:0x80006cfc x16=0x00000001
       21085000	      2107	80006b70	0acb6e13	ori	x28,x22,172	 x22:0x00000000 x28=0x000000ac
       21095000	      2108	80006b74	90017b13	andi	x22,x2,-1792	  x2:0x8000445f x22=0x80004000
       21105000	      2109	80006b78	30f49317	auipc	x6,0x30f49	  x6=0xb0f4fb74
       21115000	      2110	80006b7c	00f76463	bltu	x14,x15,80006b84	 x14:0x80009fc4 x15:0x80001bac
       21125000	      2111	80006b80	000ac933	xor	x18,x21,x0	 x21:0x00000000  x0:0x00000000 x18=0x00000000
       21135000	      2112	80006b84	fd8f8f93	addi	x31,x31,-40	 x31:0x80009ee8 x31=0x80009ec0
       21145000	      2113	80006b88	005fa223	sw	x5,4(x31)	 x31:0x80009ec0  x5:0x800019a8 PA:0x80009ec4
       21155000	      2114	80006b8c	b61be913	ori	x18,x23,-1183	 x23:0x52035b90 x18=0xfffffbf1
       21165000	      2115	80006b90	e6600c13	addi	x24,x0,-410	  x0:0x00000000 x24=0xfffffe66
       21175000	      2116	80006b94	000f1d33	sll	x26,x30,x0	 x30:0xe1362449  x0:0x00000000 x26=0xe1362449
       21185000	      2117	80006b98	01b23233	sltu	x4,x4,x27	  x4:0x00000001 x27:0x00000000  x4=0x00000000
       21195000	      2118	80006b9c	d8229b97	auipc	x23,0xd8229	 x23=0x5822fb98
       21205000	      2119	80006ba0	01558863	beq	x11,x21,80006bb0	 x11:0x80009ee8 x21:0x00000000
       21215000	      2120	80006ba4	00daaab3	slt	x21,x21,x13	 x21:0x00000000 x13:0x80006cfc x21=0x00000000
       21225000	      2121	80006ba8	ce589cb7	lui	x25,0xce589	 x25=0xce589000
       21235000	      2122	80006bac	0f1f3d97	auipc	x27,0xf1f3	 x27=0x8f1f9ba8
       21245000	      2123	80006bb0	002fd2b3	srl	x5,x31,x2	 x31:0x80009ec0  x2:0x8000445f  x5=0x00000001
       21255000	      2124	80006bb4	01edab33	slt	x22,x27,x30	 x27:0x8f1f9ba8 x30:0xe1362449 x22=0x00000001
       21265000	      2125	80006bb8	0148e863	bltu	x17,x20,80006bc8	 x17:0xfffe1376 x20:0xe4e90541
       21275000	      2126	80006bbc	0085d233	srl	x4,x11,x8	 x11:0x80009ee8  x8:0x00000000  x4=0x80009ee8
       21285000	      2127	80006bc0	35858393	addi	x7,x11,856	 x11:0x80009ee8  x7=0x8000a240
       21295000	      2128	80006bc4	9a814b93	xori	x23,x2,-1624	  x2:0x8000445f x23=0x7fffbdf7
       21305000	      2129	80006bc8	0100ceb3	xor	x29,x1,x16	  x1:0x00000000 x16:0x00000001 x29=0x00000001
       21315000	      2130	80006bcc	01bc5263	bge	x24,x27,80006bd0	 x24:0xfffffe66 x27:0x8f1f9ba8
       21325000	      2131	00000000	00000013	addi	x0,x0,0	  x0:0x00000000
       21335000	      2132	80006bcc	00000013	addi	x0,x0,0	  x0:0x00000000
       21345000	      2133	80006bd0	00354c33	xor	x24,x10,x3	 x10:0xe1376000  x3:0x00000000 x24=0xe1376000
       21355000	      2134	80006bd4	419f5eb3	sra	x29,x30,x25	 x30:0xe1362449 x25:0xce589000 x29=0xe1362449
       21365000	      2135	80006bd8	004fa283	lw	x5,4(x31)	 x31:0x80009ec0  x5=0x800019a8 PA:0x80009ec4
       21375000	      2136	80006bdc	42c82e13	slti	x28,x16,1068	 x16:0x00000001 x28=0x00000001
       21385000	      2137	80006be0	028f8f93	addi	x31,x31,40	 x31:0x80009ec0 x31=0x80009ee8
       21395000	      2138	80006be4	00a40333	add	x6,x8,x10	  x8:0x00000000 x10:0xe1376000  x6=0xe1376000
       21405000	      2139	80006be8	006c56b3	srl	x13,x24,x6	 x24:0xe1376000  x6:0xe1376000 x13=0xe1376000
       21415000	      2140	80006bec	40c10d33	sub	x26,x2,x12	  x2:0x8000445f x12:0x2affff95 x26=0x550044ca
       21425000	      2141	80006bf0	00441433	sll	x8,x8,x4	  x8:0x00000000  x4:0x80009ee8  x8=0x00000000
       21435000	      2142	80006bf4	00128413	addi	x8,x5,1	  x5:0x800019a8  x8=0x800019a9
       21445000	      2143	80006bf8	00040467	jalr	x8,x8,0	  x8:0x800019a9  x8=0x80006bf8
       21455000	      2144	00000000	00000013	addi	x0,x0,0	  x0:0x00000000
       21465000	      2145	800019a8	00000013	addi	x0,x0,0	  x0:0x00000000
       21475000	      2146	800019ac	020dfc63	bgeu	x27,x0,800019e4	 x27:0x8f1f9ba8  x0:0x00000000
       21485000	      2147	00000000	00000013	addi	x0,x0,0	  x0:0x00000000
       21495000	      2148	800019e0	00000013	addi	x0,x0,0	  x0:0x00000000
       21505000	      2149	800019e4	cc6fed13	ori	x26,x31,-826	 x31:0x80009ee8 x26=0xfffffeee
       21515000	      2150	800019e8	01981933	sll	x18,x16,x25	 x16:0x00000001 x25:0xce589000 x18=0x00000001
       21525000	      2151	800019ec	5e853493	sltiu	x9,x10,1512	 x10:0xe1376000  x9=0x00000000
       21535000	      2152	800019f0	03ff8863	beq	x31,x31,80001a20	 x31:0x80009ee8 x31:0x80009ee8
       21545000	      2153	00000000	00000013	addi	x0,x0,0	  x0:0x00000000
       21555000	      2154	80001a1c	00000013	addi	x0,x0,0	  x0:0x00000000
       21565000	      2155	80001a20	01fc1113	slli	x2,x24,0x1f	 x24:0xe1376000  x2=0x00000000
       21575000	      2156	80001a24	9fd62793	slti	x15,x12,-1539	 x12:0x2affff95 x15=0x00000000
       21585000	      2157	80001a28	00000013	addi	x0,x0,0	  x0:0x00000000
       21595000	      2158	80001a2c	0380c463	blt	x1,x24,80001a54	  x1:0x00000000 x24:0xe1376000
       21605000	      2159	80001a30	7de80613	addi	x12,x16,2014	 x16:0x00000001 x12=0x000007df
       21615000	      2160	80001a34	984418b7	lui	x17,0x98441	 x17=0x98441000
       21625000	      2161	80001a38	016e00b3	add	x1,x28,x22	 x28:0x00000001 x22:0x00000001  x1=0x00000002
       21635000	      2162	80001a3c	40c80c33	sub	x24,x16,x12	 x16:0x00000001 x12:0x000007df x24=0xfffff822
       21645000	      2163	80001a40	015c75b3	and	x11,x24,x21	 x24:0xfffff822 x21:0x00000000 x11=0x00000000
       21655000	      2164	80001a44	01aff5b3	and	x11,x31,x26	 x31:0x80009ee8 x26:0xfffffeee x11=0x80009ee8
       21665000	      2165	80001a48	406e54b3	sra	x9,x28,x6	 x28:0x00000001  x6:0xe1376000  x9=0x00000001
       21675000	      2166	80001a4c	8e297797	auipc	x15,0x8e297	 x15=0x0e298a48
       21685000	      2167	80001a50	02424a63	blt	x4,x4,80001a84	  x4:0x80009ee8  x4:0x80009ee8
       21695000	      2168	80001a54	0062b933	sltu	x18,x5,x6	  x5:0x800019a8  x6:0xe1376000 x18=0x00000001
       21705000	      2169	80001a58	80006d97	auipc	x27,0x80006	 x27=0x00007a54
       21715000	      2170	80001a5c	00e5b333	sltu	x6,x11,x14	 x11:0x80009ee8 x14:0x80009fc4  x6=0x00000001
       21725000	      2171	80001a60	00411033	sll	x0,x2,x4	  x2:0x00000000  x4:0x80009ee8
       21735000	      2172	80001a64	41095113	srai	x2,x18,0x10	 x18:0x00000001  x2=0x00000000
       21745000	      2173	80001a68	f959c913	xori	x18,x19,-107	 x19:0x80001bf8 x18=0x7fffe46d
       21755000	      2174	80001a6c	00bd9333	sll	x6,x27,x11	 x27:0x00007a54 x11:0x80009ee8  x6=0x007a5400
       21765000	      2175	80001a70	00177033	and	x0,x14,x1	 x14:0x80009fc4  x1:0x00000002
       21775000	      2176	80001a74	0328fa63	bgeu	x17,x18,80001aa8	 x17:0x98441000 x18:0x7fffe46d
       21785000	      2177	00000000	00000013	addi	x0,x0,0	  x0:0x00000000
       21795000	      2178	80001aa4	00000013	addi	x0,x0,0	  x0:0x00000000
       21805000	      2179	80001aa8	043be863	bltu	x23,x3,80001af8	 x23:0x7fffbdf7  x3:0x00000000
       21815000	      2180	80001aac	05897463	bgeu	x18,x24,80001af4	 x18:0x7fffe46d x24:0xfffff822
       21825000	      2181	80001ab0	2df68f13	addi	x30,x13,735	 x13:0xe1376000 x30=0xe13762df
       21835000	      2182	80001ab4	00f75e63	bge	x14,x15,80001ad0	 x14:0x80009fc4 x15:0x0e298a48
       21845000	      2183	80001ab8	02114c63	blt	x2,x1,80001af0	  x2:0x00000000  x1:0x00000002
       21855000	      2184	00000000	00000013	addi	x0,x0,0	  x0:0x00000000
       21865000	      2185	80001aec	00000013	addi	x0,x0,0	  x0:0x00000000
       21875000	      2186	80001af0	01044833	xor	x16,x8,x16	  x8:0x80006bf8 x16:0x00000001 x16=0x80006bf9
       21885000	      2187	80001af4	00309893	slli	x17,x1,0x3	  x1:0x00000002 x17=0x00000010
       21895000	      2188	80001af8	8e233e93	sltiu	x29,x6,-1822	  x6:0x007a5400 x29=0x00000001
       21905000	      2189	80001afc	89f8f113	andi	x2,x17,-1889	 x17:0x00000010  x2=0x00000010
       21915000	      2190	80001b00	01e0eeb3	or	x29,x1,x30	  x1:0x00000002 x30:0xe13762df x29=0xe13762df
       21925000	      2191	80001b04	d47a3d13	sltiu	x26,x20,-697	 x20:0xe4e90541 x26=0x00000001
       21935000	      2192	80001b08	00c29a63	bne	x5,x12,80001b1c	  x5:0x800019a8 x12:0x000007df
       21945000	      2193	00000000	00000013	addi	x0,x0,0	  x0:0x00000000
       21955000	      2194	80001b18	00000013	addi	x0,x0,0	  x0:0x00000000
       21965000	      2195	80001b1c	ccc60113	addi	x2,x12,-820	 x12:0x000007df  x2=0x000004ab
       21975000	      2196	80001b20	00edec63	bltu	x27,x14,80001b38	 x27:0x00007a54 x14:0x80009fc4
       21985000	      2197	00000000	00000013	addi	x0,x0,0	  x0:0x00000000
       21995000	      2198	80001b34	00000013	addi	x0,x0,0	  x0:0x00000000
       22005000	      2199	80001b38	00334db3	xor	x27,x6,x3	  x6:0x007a5400  x3:0x00000000 x27=0x007a5400
       22015000	      2200	80001b3c	0826ec93	ori	x25,x13,130	 x13:0xe1376000 x25=0xe1376082
       22025000	      2201	80001b40	33c93413	sltiu	x8,x18,828	 x18:0x7fffe46d  x8=0x00000000
       22035000	      2202	80001b44	009a5d33	srl	x26,x20,x9	 x20:0xe4e90541  x9:0x00000001 x26=0x727482a0
       22045000	      2203	80001b48	d5122113	slti	x2,x4,-687	  x4:0x80009ee8  x2=0x00000001
       22055000	      2204	80001b4c	5add2c17	auipc	x24,0x5add2	 x24=0xdadd3b48
       22065000	      2205	80001b50	004ad1b3	srl	x3,x21,x4	 x21:0x00000000  x4:0x80009ee8  x3=0x00000000
       22075000	      2206	80001b54	2b750493	addi	x9,x10,695	 x10:0xe1376000  x9=0xe13762b7
       22085000	      2207	80001b58	00f831b3	sltu	x3,x16,x15	 x16:0x80006bf9 x15:0x0e298a48  x3=0x00000000
       22095000	      2208	80001b5c	40090633	sub	x12,x18,x0	 x18:0x7fffe46d  x0:0x00000000 x12=0x7fffe46d
       22105000	      2209	80001b60	40c55893	srai	x17,x10,0xc	 x10:0xe1376000 x17=0xfffe1376
       22115000	      2210	80001b64	3f8a8113	addi	x2,x21,1016	 x21:0x00000000  x2=0x000003f8
       22125000	      2211	80001b68	00b7a0b3	slt	x1,x15,x11	 x15:0x0e298a48 x11:0x80009ee8  x1=0x00000000
       22135000	      2212	80001b6c	0186de63	bge	x13,x24,80001b88	 x13:0xe1376000 x24:0xdadd3b48
       22145000	      2213	00000000	00000013	addi	x0,x0,0	  x0:0x00000000
       22155000	      2214	80001b84	00000013	addi	x0,x0,0	  x0:0x00000000
       22165000	      2215	80001b88	005169b3	or	x19,x2,x5	  x2:0x000003f8  x5:0x800019a8 x19=0x80001bf8
       22175000	      2216	80001b8c	968a2837	lui	x16,0x968a2	 x16=0x968a2000
       22185000	      2217	80001b90	d62b6397	auipc	x7,0xd62b6	  x7=0x562b7b8c
       22195000	      2218	80001b94	d2034b97	auipc	x23,0xd2034	 x23=0x52035b90
       22205000	      2219	80001b98	004fa283	lw	x5,4(x31)	 x31:0x80009ee8  x5=0x800045f8 PA:0x80009eec
       22215000	      2220	80001b9c	024f8f93	addi	x31,x31,36	 x31:0x80009ee8 x31=0x80009f0c
       22225000	      2221	80001ba0	01d59833	sll	x16,x11,x29	 x11:0x80009ee8 x29:0xe13762df x16=0x00000000
       22235000	      2222	80001ba4	001da493	slti	x9,x27,1	 x27:0x007a5400  x9=0x00000000
       22245000	      2223	80001ba8	00128793	addi	x15,x5,1	  x5:0x800045f8 x15=0x800045f9
       22255000	      2224	80001bac	000787e7	jalr	x15,x15,0	 x15:0x800045f9 x15=0x80001bac
       22265000	      2225	00000000	00000013	addi	x0,x0,0	  x0:0x00000000
       22275000	      2226	800045f8	00000013	addi	x0,x0,0	  x0:0x00000000
       22285000	      2227	800045fc	00447133	and	x2,x8,x4	  x8:0x00000000  x4:0x80009ee8  x2=0x00000000
       22295000	      2228	80004600	770aa7b7	lui	x15,0x770aa	 x15=0x770aa000
       22305000	      2229	80004604	00000c97	auipc	x25,0x0	 x25=0x80004600
       22315000	      2230	80004608	dc4c8c93	addi	x25,x25,-572	 x25:0x80004600 x25=0x800043c4
       22325000	      2231	8000460c	29276e13	ori	x28,x14,658	 x14:0x80009fc4 x28=0x80009fd6
       22335000	      2232	80004610	10452b37	lui	x22,0x10452	 x22=0x10452000
       22345000	      2233	80004614	01bf1e93	slli	x29,x30,0x1b	 x30:0xe13762df x29=0xf8000000
       22355000	      2234	80004618	705f7393	andi	x7,x30,1797	 x30:0xe13762df  x7=0x00000205
       22365000	      2235	8000461c	408add93	srai	x27,x21,0x8	 x21:0x00000000 x27=0x00000000
       22375000	      2236	80004620	0fcc8c93	addi	x25,x25,252	 x25:0x800043c4 x25=0x800044c0
       22385000	      2237	80004624	41be5913	srai	x18,x28,0x1b	 x28:0x80009fd6 x18=0xfffffff0
       22395000	      2238	80004628	f6cd73b7	lui	x7,0xf6cd7	  x7=0xf6cd7000
       22405000	      2239	8000462c	f04c82e7	jalr	x5,x25,-252	 x25:0x800044c0  x5=0x8000462c
       22415000	      2240	00000000	00000013	addi	x0,x0,0	  x0:0x00000000
       22425000	      2241	800043c4	00000013	addi	x0,x0,0	  x0:0x00000000
       22435000	      2242	800043c8	00b676b3	and	x13,x12,x11	 x12:0x7fffe46d x11:0x80009ee8 x13=0x00008468
       22445000	      2243	800043cc	0110d833	srl	x16,x1,x17	  x1:0x00000000 x17:0xfffe1376 x16=0x00000000
       22455000	      2244	800043d0	00e88463	beq	x17,x14,800043d8	 x17:0xfffe1376 x14:0x80009fc4
       22465000	      2245	800043d4	85f9b613	sltiu	x12,x19,-1953	 x19:0x80001bf8 x12=0x00000001
       22475000	      2246	800043d8	ff0f8f93	addi	x31,x31,-16	 x31:0x80009f0c x31=0x80009efc
       22485000	      2247	800043dc	005fa223	sw	x5,4(x31)	 x31:0x80009efc  x5:0x8000462c PA:0x80009f00
       22495000	      2248	800043e0	9c1b4393	xori	x7,x22,-1599	 x22:0x10452000  x7=0xefbad9c1
       22505000	      2249	800043e4	2041fc13	andi	x24,x3,516	  x3:0x00000000 x24=0x00000000
       22515000	      2250	800043e8	01856933	or	x18,x10,x24	 x10:0xe1376000 x24:0x00000000 x18=0xe1376000
       22525000	      2251	800043ec	001a9f33	sll	x30,x21,x1	 x21:0x00000000  x1:0x00000000 x30=0x00000000
       22535000	      2252	800043f0	03d27a63	bgeu	x4,x29,80004424	  x4:0x80009ee8 x29:0xf8000000
       22545000	      2253	800043f4	0199f7b3	and	x15,x19,x25	 x19:0x80001bf8 x25:0x800044c0 x15=0x800000c0
       22555000	      2254	800043f8	02c88e63	beq	x17,x12,80004434	 x17:0xfffe1376 x12:0x00000001
       22565000	      2255	800043fc	d90be793	ori	x15,x23,-624	 x23:0x52035b90 x15=0xffffff90
       22575000	      2256	80004400	9ee1b213	sltiu	x4,x3,-1554	  x3:0x00000000  x4=0x00000001
       22585000	      2257	80004404	00317433	and	x8,x2,x3	  x2:0x00000000  x3:0x00000000  x8=0x00000000
       22595000	      2258	80004408	0049fc33	and	x24,x19,x4	 x19:0x80001bf8  x4:0x00000001 x24=0x00000000
       22605000	      2259	8000440c	01e45b93	srli	x23,x8,0x1e	  x8:0x00000000 x23=0x00000000
       22615000	      2260	80004410	03a21663	bne	x4,x26,8000443c	  x4:0x00000001 x26:0x727482a0
       22625000	      2261	00000000	00000013	addi	x0,x0,0	  x0:0x00000000
       22635000	      2262	80004438	00000013	addi	x0,x0,0	  x0:0x00000000
       22645000	      2263	8000443c	00026db3	or	x27,x4,x0	  x4:0x00000001  x0:0x00000000 x27=0x00000001
       22655000	      2264	80004440	019b02b3	add	x5,x22,x25	 x22:0x10452000 x25:0x800044c0  x5=0x904564c0
       22665000	      2265	80004444	03c4ec63	bltu	x9,x28,8000447c	  x9:0x00000000 x28:0x80009fd6
       22675000	      2266	00000000	00000013	addi	x0,x0,0	  x0:0x00000000
       22685000	      2267	80004478	00000013	addi	x0,x0,0	  x0:0x00000000
       22695000	      2268	8000447c	00000013	addi	x0,x0,0	  x0:0x00000000
       22705000	      2269	80004480	03bb8863	beq	x23,x27,800044b0	 x23:0x00000000 x27:0x00000001
       22715000	      2270	80004484	b4413613	sltiu	x12,x2,-1212	  x2:0x00000000 x12=0x00000001
       22725000	      2271	80004488	415354b3	sra	x9,x6,x21	  x6:0x007a5400 x21:0x00000000  x9=0x007a5400
       22735000	      2272	8000448c	00000013	addi	x0,x0,0	  x0:0x00000000
       22745000	      2273	80004490	00d16863	bltu	x2,x13,800044a0	  x2:0x00000000 x13:0x00008468
       22755000	      2274	00000000	00000013	addi	x0,x0,0	  x0:0x00000000
       22765000	      2275	8000449c	00000013	addi	x0,x0,0	  x0:0x00000000
       22775000	      2276	800044a0	0085c233	xor	x4,x11,x8	 x11:0x80009ee8  x8:0x00000000  x4=0x80009ee8
       22785000	      2277	800044a4	02ba1463	bne	x20,x11,800044cc	 x20:0xe4e90541 x11:0x80009ee8
       22795000	      2278	00000000	00000013	addi	x0,x0,0	  x0:0x00000000
       22805000	      2279	800044c8	00000013	addi	x0,x0,0	  x0:0x00000000
       22815000	      2280	800044cc	6189b393	sltiu	x7,x19,1560	 x19:0x80001bf8  x7=0x00000000
       22825000	      2281	800044d0	0004a2b3	slt	x5,x9,x0	  x9:0x007a5400  x0:0x00000000  x5=0x00000000
       22835000	      2282	800044d4	bad13293	sltiu	x5,x2,-1107	  x2:0x00000000  x5=0x00000001
       22845000	      2283	800044d8	00394c63	blt	x18,x3,800044f0	 x18:0xe1376000  x3:0x00000000
       22855000	      2284	00000000	00000013	addi	x0,x0,0	  x0:0x00000000
       22865000	      2285	800044ec	00000013	addi	x0,x0,0	  x0:0x00000000
       22875000	      2286	800044f0	fc2ef193	andi	x3,x29,-62	 x29:0xf8000000  x3=0xf8000000
       22885000	      2287	800044f4	03e24063	blt	x4,x30,80004514	  x4:0x80009ee8 x30:0x00000000
       22895000	      2288	00000000	00000013	addi	x0,x0,0	  x0:0x00000000
       22905000	      2289	80004510	00000013	addi	x0,x0,0	  x0:0x00000000
       22915000	      2290	80004514	9769eb37	lui	x22,0x9769e	 x22=0x9769e000
       22925000	      2291	80004518	00ee95b3	sll	x11,x29,x14	 x29:0xf8000000 x14:0x80009fc4 x11=0x80000000
       22935000	      2292	8000451c	00e73633	sltu	x12,x14,x14	 x14:0x80009fc4 x14:0x80009fc4 x12=0x00000000
       22945000	      2293	80004520	00000013	addi	x0,x0,0	  x0:0x00000000
       22955000	      2294	80004524	01f57433	and	x8,x10,x31	 x10:0xe1376000 x31:0x80009efc  x8=0x80000000
       22965000	      2295	80004528	63c7f0b7	lui	x1,0x63c7f	  x1=0x63c7f000
       22975000	      2296	8000452c	00a09b33	sll	x22,x1,x10	  x1:0x63c7f000 x10:0xe1376000 x22=0x63c7f000
       22985000	      2297	80004530	00260bb3	add	x23,x12,x2	 x12:0x00000000  x2:0x00000000 x23=0x00000000
       22995000	      2298	80004534	01420a63	beq	x4,x20,80004548	  x4:0x80009ee8 x20:0xe4e90541
       23005000	      2299	80004538	009a1193	slli	x3,x20,0x9	 x20:0xe4e90541  x3=0xd20a8200
       23015000	      2300	8000453c	01758eb3	add	x29,x11,x23	 x11:0x80000000 x23:0x00000000 x29=0x80000000
       23025000	      2301	80004540	02a67463	bgeu	x12,x10,80004568	 x12:0x00000000 x10:0xe1376000
       23035000	      2302	80004544	02244a63	blt	x8,x2,80004578	  x8:0x80000000  x2:0x00000000
       23045000	      2303	00000000	00000013	addi	x0,x0,0	  x0:0x00000000
       23055000	      2304	80004574	00000013	addi	x0,x0,0	  x0:0x00000000
       23065000	      2305	80004578	00239133	sll	x2,x7,x2	  x7:0x00000000  x2:0x00000000  x2=0x00000000
       23075000	      2306	8000457c	31293d13	sltiu	x26,x18,786	 x18:0xe1376000 x26=0x00000000
       23085000	      2307	80004580	0180a0b3	slt	x1,x1,x24	  x1:0x63c7f000 x24:0x00000000  x1=0x00000000
       23095000	      2308	80004584	004fa283	lw	x5,4(x31)	 x31:0x80009efc  x5=0x8000462c PA:0x80009f00
       23105000	      2309	80004588	cf45ab17	auipc	x22,0xcf45a	 x22=0x4f45e584
       23115000	      2310	8000458c	01873cb3	sltu	x25,x14,x24	 x14:0x80009fc4 x24:0x00000000 x25=0x00000000
       23125000	      2311	80004590	010f8f93	addi	x31,x31,16	 x31:0x80009efc x31=0x80009f0c
       23135000	      2312	80004594	00d1e833	or	x16,x3,x13	  x3:0xd20a8200 x13:0x00008468 x16=0xd20a8668
       23145000	      2313	80004598	00028b93	addi	x23,x5,0	  x5:0x8000462c x23=0x8000462c
       23155000	      2314	8000459c	000b8be7	jalr	x23,x23,0	 x23:0x8000462c x23=0x8000459c
       23165000	      2315	00000000	00000013	addi	x0,x0,0	  x0:0x00000000
       23175000	      2316	8000462c	00000013	addi	x0,x0,0	  x0:0x00000000
       23185000	      2317	80004630	00004117	auipc	x2,0x4	  x2=0x8000862c
       23195000	      2318	80004634	ead10113	addi	x2,x2,-339	  x2:0x8000862c  x2=0x800084d9
       23205000	      2319	80004638	01f10a23	sb	x31,20(x2)	  x2:0x800084d9 x31:0x80009f0c PA:0x800084ed
       23215000	      2320	8000463c	fb510d83	lb	x27,-75(x2)	  x2:0x800084d9 x27=0xfffffff0 PA:0x8000848e
       23225000	      2321	80004640	0b114f03	lbu	x30,177(x2)	  x2:0x800084d9 x30=0x00000001 PA:0x8000858a
       23235000	      2322	80004644	05da8c13	addi	x24,x21,93	 x21:0x00000000 x24=0x0000005d
       23245000	      2323	80004648	016ad5b3	srl	x11,x21,x22	 x21:0x00000000 x22:0x4f45e584 x11=0x00000000
       23255000	      2324	8000464c	f2310623	sb	x3,-212(x2)	  x2:0x800084d9  x3:0xd20a8200 PA:0x80008405
       23265000	      2325	80004650	0cb10ea3	sb	x11,221(x2)	  x2:0x800084d9 x11:0x00000000 PA:0x800085b6
       23275000	      2326	80004654	fb715e83	lhu	x29,-73(x2)	  x2:0x800084d9 x29=0x00002ba2 PA:0x80008490
       23285000	      2327	00000000	00000013	addi	x0,x0,0	  x0:0x00000000
       23295000	      2328	80004658	01dd05b3	add	x11,x26,x29	 x26:0x00000000 x29:0x00002ba2 x11=0x00002ba2
       23305000	      2329	8000465c	00865bb3	srl	x23,x12,x8	 x12:0x00000000  x8:0x80000000 x23=0x00000000
       23315000	      2330	80004660	423b2697	auipc	x13,0x423b2	 x13=0xc23b665c
       23325000	      2331	80004664	0c810383	lb	x7,200(x2)	  x2:0x800084d9  x7=0xffffffc6 PA:0x800085a1
       23335000	      2332	80004668	0c310523	sb	x3,202(x2)	  x2:0x800084d9  x3:0xd20a8200 PA:0x800085a3
       23345000	      2333	8000466c	012c06b3	add	x13,x24,x18	 x24:0x0000005d x18:0xe1376000 x13=0xe137605d
       23355000	      2334	80004670	ea21c3b7	lui	x7,0xea21c	  x7=0xea21c000
       23365000	      2335	80004674	0f010d83	lb	x27,240(x2)	  x2:0x800084d9 x27=0xffffffb8 PA:0x800085c9
       23375000	      2336	00000000	00000013	addi	x0,x0,0	  x0:0x00000000
       23385000	      2337	80004678	0bb11ba3	sh	x27,183(x2)	  x2:0x800084d9 x27:0xffffffb8 PA:0x80008590
       23395000	      2338	8000467c	f6110223	sb	x1,-156(x2)	  x2:0x800084d9  x1:0x00000000 PA:0x8000843d
       23405000	      2339	80004680	01a57833	and	x16,x10,x26	 x10:0xe1376000 x26:0x00000000 x16=0x00000000
       23415000	      2340	80004684	0ca10503	lb	x10,202(x2)	  x2:0x800084d9 x10=0x00000000 PA:0x800085a3
       23425000	      2341	80004688	09210923	sb	x18,146(x2)	  x2:0x800084d9 x18:0xe1376000 PA:0x8000856b
       23435000	      2342	8000468c	ffa10883	lb	x17,-6(x2)	  x2:0x800084d9 x17=0x00000071 PA:0x800084d3
       23445000	      2343	80004690	fc414003	lbu	x0,-60(x2)	  x2:0x800084d9 PA:0x8000849d
       23455000	      2344	80004694	01c14483	lbu	x9,28(x2)	  x2:0x800084d9  x9=0x00000043 PA:0x800084f5
       23465000	      2345	80004698	5251e6b7	lui	x13,0x5251e	 x13=0x5251e000
       23475000	      2346	8000469c	00000013	addi	x0,x0,0	  x0:0x00000000
       23485000	      2347	800046a0	fca119a3	sh	x10,-45(x2)	  x2:0x800084d9 x10:0x00000000 PA:0x800084ac
       23495000	      2348	800046a4	f8511d83	lh	x27,-123(x2)	  x2:0x800084d9 x27=0xffffc89e PA:0x8000845e
       23505000	      2349	800046a8	10010b03	lb	x22,256(x2)	  x2:0x800084d9 x22=0x00000054 PA:0x800085d9
       23515000	      2350	800046ac	a022ea93	ori	x21,x5,-1534	  x5:0x8000462c x21=0xfffffe2e
       23525000	      2351	800046b0	705b7c93	andi	x25,x22,1797	 x22:0x00000054 x25=0x00000004
       23535000	      2352	800046b4	8f4bcc13	xori	x24,x23,-1804	 x23:0x00000000 x24=0xfffff8f4
       23545000	      2353	800046b8	00f8d393	srli	x7,x17,0xf	 x17:0x00000071  x7=0x00000000
       23555000	      2354	800046bc	35ed3313	sltiu	x6,x26,862	 x26:0x00000000  x6=0x00000001
       23565000	      2355	800046c0	012be9b3	or	x19,x23,x18	 x23:0x00000000 x18:0xe1376000 x19=0xe1376000
       23575000	      2356	800046c4	004f0933	add	x18,x30,x4	 x30:0x00000001  x4:0x80009ee8 x18=0x80009ee9
       23585000	      2357	800046c8	01c55913	srli	x18,x10,0x1c	 x10:0x00000000 x18=0x00000000
       23595000	      2358	800046cc	00261e63	bne	x12,x2,800046e8	 x12:0x00000000  x2:0x800084d9
       23605000	      2359	00000000	00000013	addi	x0,x0,0	  x0:0x00000000
       23615000	      2360	800046e4	00000013	addi	x0,x0,0	  x0:0x00000000
       23625000	      2361	800046e8	01ec58b3	srl	x17,x24,x30	 x24:0xfffff8f4 x30:0x00000001 x17=0x7ffffc7a
       23635000	      2362	800046ec	01537f33	and	x30,x6,x21	  x6:0x00000001 x21:0xfffffe2e x30=0x00000000
       23645000	      2363	800046f0	857a5c37	lui	x24,0x857a5	 x24=0x857a5000
       23655000	      2364	800046f4	41f389b3	sub	x19,x7,x31	  x7:0x00000000 x31:0x80009f0c x19=0x7fff60f4
       23665000	      2365	800046f8	b9ac8293	addi	x5,x25,-1126	 x25:0x00000004  x5=0xfffffb9e
       23675000	      2366	800046fc	00000013	addi	x0,x0,0	  x0:0x00000000
       23685000	      2367	80004700	03290063	beq	x18,x18,80004720	 x18:0x00000000 x18:0x00000000
       23695000	      2368	00000000	00000013	addi	x0,x0,0	  x0:0x00000000
       23705000	      2369	8000471c	00000013	addi	x0,x0,0	  x0:0x00000000
       23715000	      2370	80004720	2fd95917	auipc	x18,0x2fd95	 x18=0xafd9971c
       23725000	      2371	80004724	40638433	sub	x8,x7,x6	  x7:0x00000000  x6:0x00000001  x8=0xffffffff
       23735000	      2372	80004728	02848063	beq	x9,x8,80004748	  x9:0x00000043  x8:0xffffffff
       23745000	      2373	8000472c	f3073313	sltiu	x6,x14,-208	 x14:0x80009fc4  x6=0x00000001
       23755000	      2374	80004730	40c85593	srai	x11,x16,0xc	 x16:0x00000000 x11=0x00000000
       23765000	      2375	80004734	033ce463	bltu	x25,x19,8000475c	 x25:0x00000004 x19:0x7fff60f4
       23775000	      2376	00000000	00000013	addi	x0,x0,0	  x0:0x00000000
       23785000	      2377	80004758	00000013	addi	x0,x0,0	  x0:0x00000000
       23795000	      2378	8000475c	014e5863	bge	x28,x20,8000476c	 x28:0x80009fd6 x20:0xe4e90541
       23805000	      2379	80004760	47d1ab93	slti	x23,x3,1149	  x3:0xd20a8200 x23=0x00000001
       23815000	      2380	80004764	0595e263	bltu	x11,x25,800047a8	 x11:0x00000000 x25:0x00000004
       23825000	      2381	00000000	00000013	addi	x0,x0,0	  x0:0x00000000
       23835000	      2382	800047a4	00000013	addi	x0,x0,0	  x0:0x00000000
       23845000	      2383	800047a8	00000013	addi	x0,x0,0	  x0:0x00000000
       23855000	      2384	800047ac	faa56c13	ori	x24,x10,-86	 x10:0x00000000 x24=0xffffffaa
       23865000	      2385	800047b0	01189263	bne	x17,x17,800047b4	 x17:0x7ffffc7a x17:0x7ffffc7a
       23875000	      2386	800047b4	035ee863	bltu	x29,x21,800047e4	 x29:0x00002ba2 x21:0xfffffe2e
       23885000	      2387	00000000	00000013	addi	x0,x0,0	  x0:0x00000000
       23895000	      2388	800047e0	00000013	addi	x0,x0,0	  x0:0x00000000
       23905000	      2389	800047e4	01cd5bb3	srl	x23,x26,x28	 x26:0x00000000 x28:0x80009fd6 x23=0x00000000
       23915000	      2390	800047e8	b5a5f993	andi	x19,x11,-1190	 x11:0x00000000 x19=0x00000000
       23925000	      2391	800047ec	07f80663	beq	x16,x31,80004858	 x16:0x00000000 x31:0x80009f0c
       23935000	      2392	800047f0	01cb85b3	add	x11,x23,x28	 x23:0x00000000 x28:0x80009fd6 x11=0x80009fd6
       23945000	      2393	800047f4	00be9913	slli	x18,x29,0xb	 x29:0x00002ba2 x18=0x015d1000
       23955000	      2394	800047f8	04924e63	blt	x4,x9,80004854	  x4:0x80009ee8  x9:0x00000043
       23965000	      2395	00000000	00000013	addi	x0,x0,0	  x0:0x00000000
       23975000	      2396	80004850	00000013	addi	x0,x0,0	  x0:0x00000000
       23985000	      2397	80004854	e1098913	addi	x18,x19,-496	 x19:0x00000000 x18=0xfffffe10
       23995000	      2398	80004858	4158d5b3	sra	x11,x17,x21	 x17:0x7ffffc7a x21:0xfffffe2e x11=0x0001ffff
       24005000	      2399	8000485c	404f85b3	sub	x11,x31,x4	 x31:0x80009f0c  x4:0x80009ee8 x11=0x00000024
       24015000	      2400	80004860	408d50b3	sra	x1,x26,x8	 x26:0x00000000  x8:0xffffffff  x1=0x00000000
       24025000	      2401	80004864	010f08b3	add	x17,x30,x16	 x30:0x00000000 x16:0x00000000 x17=0x00000000
       24035000	      2402	80004868	013466b3	or	x13,x8,x19	  x8:0xffffffff x19:0x00000000 x13=0xffffffff
       24045000	      2403	8000486c	69a9ee93	ori	x29,x19,1690	 x19:0x00000000 x29=0x0000069a
       24055000	      2404	80004870	006cc533	xor	x10,x25,x6	 x25:0x00000004  x6:0x00000001 x10=0x00000005
       24065000	      2405	80004874	012ff7b3	and	x15,x31,x18	 x31:0x80009f0c x18:0xfffffe10 x15=0x80009e00
       24075000	      2406	80004878	03880063	beq	x16,x24,80004898	 x16:0x00000000 x24:0xffffffaa
       24085000	      2407	8000487c	026fd063	bge	x31,x6,8000489c	 x31:0x80009f0c  x6:0x00000001
       24095000	      2408	80004880	0100e9b3	or	x19,x1,x16	  x1:0x00000000 x16:0x00000000 x19=0x00000000
       24105000	      2409	80004884	03da1263	bne	x20,x29,800048a8	 x20:0xe4e90541 x29:0x0000069a
       24115000	      2410	00000000	00000013	addi	x0,x0,0	  x0:0x00000000
       24125000	      2411	800048a4	00000013	addi	x0,x0,0	  x0:0x00000000
       24135000	      2412	800048a8	009e1013	slli	x0,x28,0x9	 x28:0x80009fd6
       24145000	      2413	800048ac	f1f04917	auipc	x18,0xf1f04	 x18=0x71f088a8
       24155000	      2414	800048b0	aa67f893	andi	x17,x15,-1370	 x15:0x80009e00 x17=0x80009a00
       24165000	      2415	800048b4	01891e93	slli	x29,x18,0x18	 x18:0x71f088a8 x29=0xa8000000
       24175000	      2416	800048b8	01c5f633	and	x12,x11,x28	 x11:0x00000024 x28:0x80009fd6 x12=0x00000004
       24185000	      2417	800048bc	9f6d4613	xori	x12,x26,-1546	 x26:0x00000000 x12=0xfffff9f6
       24195000	      2418	800048c0	009f1e93	slli	x29,x30,0x9	 x30:0x00000000 x29=0x00000000
       24205000	      2419	800048c4	058ff863	bgeu	x31,x24,80004914	 x31:0x80009f0c x24:0xffffffaa
       24215000	      2420	800048c8	01b89b13	slli	x22,x17,0x1b	 x17:0x80009a00 x22=0x00000000
       24225000	      2421	800048cc	03f3d463	bge	x7,x31,800048f4	  x7:0x00000000 x31:0x80009f0c
       24235000	      2422	00000000	00000013	addi	x0,x0,0	  x0:0x00000000
       24245000	      2423	800048f0	00000013	addi	x0,x0,0	  x0:0x00000000
       24255000	      2424	800048f4	011d2433	slt	x8,x26,x17	 x26:0x00000000 x17:0x80009a00  x8=0x00000000
       24265000	      2425	800048f8	01ce5863	bge	x28,x28,80004908	 x28:0x80009fd6 x28:0x80009fd6
       24275000	      2426	00000000	00000013	addi	x0,x0,0	  x0:0x00000000
       24285000	      2427	80004904	00000013	addi	x0,x0,0	  x0:0x00000000
       24295000	      2428	80004908	00000013	addi	x0,x0,0	  x0:0x00000000
       24305000	      2429	8000490c	b51c6913	ori	x18,x24,-1199	 x24:0xffffffaa x18=0xfffffffb
       24315000	      2430	80004910	00000013	addi	x0,x0,0	  x0:0x00000000
       24325000	      2431	80004914	056c1863	bne	x24,x22,80004964	 x24:0xffffffaa x22:0x00000000
       24335000	      2432	00000000	00000013	addi	x0,x0,0	  x0:0x00000000
       24345000	      2433	80004960	00000013	addi	x0,x0,0	  x0:0x00000000
       24355000	      2434	80004964	6a3c8113	addi	x2,x25,1699	 x25:0x00000004  x2=0x000006a7
       24365000	      2435	80004968	00ed7d33	and	x26,x26,x14	 x26:0x00000000 x14:0x80009fc4 x26=0x00000000
       24375000	      2436	8000496c	01169d13	slli	x26,x13,0x11	 x13:0xffffffff x26=0xfffe0000
       24385000	      2437	80004970	40a20033	sub	x0,x4,x10	  x4:0x80009ee8 x10:0x00000005
       24395000	      2438	80004974	004fa283	lw	x5,4(x31)	 x31:0x80009f0c  x5=0x80000520 PA:0x80009f10
       24405000	      2439	80004978	016077b3	and	x15,x0,x22	  x0:0x00000000 x22:0x00000000 x15=0x00000000
       24415000	      2440	8000497c	01b55b13	srli	x22,x10,0x1b	 x10:0x00000005 x22=0x00000000
       24425000	      2441	80004980	45f370b7	lui	x1,0x45f37	  x1=0x45f37000
       24435000	      2442	80004984	007b17b3	sll	x15,x22,x7	 x22:0x00000000  x7:0x00000000 x15=0x00000000
       24445000	      2443	80004988	0144a1b3	slt	x3,x9,x20	  x9:0x00000043 x20:0xe4e90541  x3=0x00000000
       24455000	      2444	8000498c	01cf8f93	addi	x31,x31,28	 x31:0x80009f0c x31=0x80009f28
       24465000	      2445	80004990	008bfbb3	and	x23,x23,x8	 x23:0x00000000  x8:0x00000000 x23=0x00000000
       24475000	      2446	80004994	41a88633	sub	x12,x17,x26	 x17:0x80009a00 x26:0xfffe0000 x12=0x80029a00
       24485000	      2447	80004998	0080bb33	sltu	x22,x1,x8	  x1:0x45f37000  x8:0x00000000 x22=0x00000000
       24495000	      2448	8000499c	366dd037	lui	x0,0x366dd	
       24505000	      2449	800049a0	00028813	addi	x16,x5,0	  x5:0x80000520 x16=0x80000520
       24515000	      2450	800049a4	00080867	jalr	x16,x16,0	 x16:0x80000520 x16=0x800049a4
       24525000	      2451	00000000	00000013	addi	x0,x0,0	  x0:0x00000000
       24535000	      2452	80000520	00000013	addi	x0,x0,0	  x0:0x00000000
       24545000	      2453	80000524	000c9033	sll	x0,x25,x0	 x25:0x00000004  x0:0x00000000
       24555000	      2454	80000528	01d69463	bne	x13,x29,80000530	 x13:0xffffffff x29:0x00000000
       24565000	      2455	00000000	00000013	addi	x0,x0,0	  x0:0x00000000
       24575000	      2456	8000052c	00000013	addi	x0,x0,0	  x0:0x00000000
       24585000	      2457	80000530	013bcdb3	xor	x27,x23,x19	 x23:0x00000000 x19:0x00000000 x27=0x00000000
       24595000	      2458	80000534	01310a63	beq	x2,x19,80000548	  x2:0x000006a7 x19:0x00000000
       24605000	      2459	80000538	408b5eb3	sra	x29,x22,x8	 x22:0x00000000  x8:0x00000000 x29=0x00000000
       24615000	      2460	8000053c	01b30cb3	add	x25,x6,x27	  x6:0x00000001 x27:0x00000000 x25=0x00000001
       24625000	      2461	80000540	41d80c33	sub	x24,x16,x29	 x16:0x800049a4 x29:0x00000000 x24=0x800049a4
       24635000	      2462	80000544	4375c637	lui	x12,0x4375c	 x12=0x4375c000
       24645000	      2463	80000548	0199c7b3	xor	x15,x19,x25	 x19:0x00000000 x25:0x00000001 x15=0x00000001
       24655000	      2464	8000054c	0031db93	srli	x23,x3,0x3	  x3:0x00000000 x23=0x00000000
       24665000	      2465	80000550	3c20ef13	ori	x30,x1,962	  x1:0x45f37000 x30=0x45f373c2
       24675000	      2466	80000554	40ae0533	sub	x10,x28,x10	 x28:0x80009fd6 x10:0x00000005 x10=0x80009fd1
       24685000	      2467	80000558	004fa283	lw	x5,4(x31)	 x31:0x80009f28  x5=0x800005d4 PA:0x80009f2c
       24695000	      2468	8000055c	40ca5ab3	sra	x21,x20,x12	 x20:0xe4e90541 x12:0x4375c000 x21=0xe4e90541
       24705000	      2469	80000560	0091b033	sltu	x0,x3,x9	  x3:0x00000000  x9:0x00000043
       24715000	      2470	80000564	038f8f93	addi	x31,x31,56	 x31:0x80009f28 x31=0x80009f60
       24725000	      2471	80000568	01091633	sll	x12,x18,x16	 x18:0xfffffffb x16:0x800049a4 x12=0xffffffb0
       24735000	      2472	8000056c	019a98b3	sll	x17,x21,x25	 x21:0xe4e90541 x25:0x00000001 x17=0xc9d20a82
       24745000	      2473	80000570	019f7033	and	x0,x30,x25	 x30:0x45f373c2 x25:0x00000001
       24755000	      2474	80000574	00128a93	addi	x21,x5,1	  x5:0x800005d4 x21=0x800005d5
       24765000	      2475	80000578	000a8ae7	jalr	x21,x21,0	 x21:0x800005d5 x21=0x80000578
       24775000	      2476	00000000	00000013	addi	x0,x0,0	  x0:0x00000000
       24785000	      2477	800005d4	00000013	addi	x0,x0,0	  x0:0x00000000
       24795000	      2478	800005d8	00000817	auipc	x16,0x0	 x16=0x800005d4
       24805000	      2479	800005dc	14880813	addi	x16,x16,328	 x16:0x800005d4 x16=0x8000071c
       24815000	      2480	800005e0	3bad0b13	addi	x22,x26,954	 x26:0xfffe0000 x22=0xfffe03ba
       24825000	      2481	800005e4	017bcc33	xor	x24,x23,x23	 x23:0x00000000 x23:0x00000000 x24=0x00000000
       24835000	      2482	800005e8	1c3c2093	slti	x1,x24,451	 x24:0x00000000  x1=0x00000001
       24845000	      2483	800005ec	fe480813	addi	x16,x16,-28	 x16:0x8000071c x16=0x80000700
       24855000	      2484	800005f0	01fd0663	beq	x26,x31,800005fc	 x26:0xfffe0000 x31:0x80009f60
       24865000	      2485	800005f4	00d577b3	and	x15,x10,x13	 x10:0x80009fd1 x13:0xffffffff x15=0x80009fd1
       24875000	      2486	800005f8	44f4af13	slti	x30,x9,1103	  x9:0x00000043 x30=0x00000001
       24885000	      2487	800005fc	01d802e7	jalr	x5,x16,29	 x16:0x80000700  x5=0x800005fc
       24895000	      2488	00000000	00000013	addi	x0,x0,0	  x0:0x00000000
       24905000	      2489	8000071c	00000013	addi	x0,x0,0	  x0:0x00000000
       24915000	      2490	80000720	bf702f13	slti	x30,x0,-1033	  x0:0x00000000 x30=0x00000000
       24925000	      2491	80000724	c196b497	auipc	x9,0xc196b	  x9=0x4196b720
       24935000	      2492	80000728	0084e233	or	x4,x9,x8	  x9:0x4196b720  x8:0x00000000  x4=0x4196b720
       24945000	      2493	8000072c	00fa8633	add	x12,x21,x15	 x21:0x80000578 x15:0x80009fd1 x12=0x0000a549
       24955000	      2494	80000730	0057d4b3	srl	x9,x15,x5	 x15:0x80009fd1  x5:0x800005fc  x9=0x00000008
       24965000	      2495	80000734	0064c863	blt	x9,x6,80000744	  x9:0x00000008  x6:0x00000001
       24975000	      2496	80000738	013d28b3	slt	x17,x26,x19	 x26:0xfffe0000 x19:0x00000000 x17=0x00000001
       24985000	      2497	8000073c	00bddd13	srli	x26,x27,0xb	 x27:0x00000000 x26=0x00000000
       24995000	      2498	80000740	00000013	addi	x0,x0,0	  x0:0x00000000
       25005000	      2499	80000744	fe0f8f93	addi	x31,x31,-32	 x31:0x80009f60 x31=0x80009f40
       25015000	      2500	80000748	005fa223	sw	x5,4(x31)	 x31:0x80009f40  x5:0x800005fc PA:0x80009f44
       25025000	      2501	8000074c	01443133	sltu	x2,x8,x20	  x8:0x00000000 x20:0xe4e90541  x2=0x00000001
       25035000	      2502	80000750	01aba133	slt	x2,x23,x26	 x23:0x00000000 x26:0x00000000  x2=0x00000000
       25045000	      2503	80000754	00008117	auipc	x2,0x8	  x2=0x80008750
       25055000	      2504	80000758	98810113	addi	x2,x2,-1656	  x2:0x80008750  x2=0x800080d8
       25065000	      2505	8000075c	3c211223	sh	x2,964(x2)	  x2:0x800080d8  x2:0x800080d8 PA:0x8000849c
       25075000	      2506	80000760	19110b03	lb	x22,401(x2)	  x2:0x800080d8 x22=0xffffff8e PA:0x80008269
       25085000	      2507	80000764	19510aa3	sb	x21,405(x2)	  x2:0x800080d8 x21:0x80000578 PA:0x8000826d
       25095000	      2508	80000768	13310d83	lb	x27,307(x2)	  x2:0x800080d8 x27=0xffffffa7 PA:0x8000820b
       25105000	      2509	8000076c	fbd96c97	auipc	x25,0xfbd96	 x25=0x7bd96768
       25115000	      2510	80000770	b3bd4493	xori	x9,x26,-1221	 x26:0x00000000  x9=0xfffffb3b
       25125000	      2511	80000774	88087213	andi	x4,x16,-1920	 x16:0x80000700  x4=0x80000000
       25135000	      2512	80000778	6d910503	lb	x10,1753(x2)	  x2:0x800080d8 x10=0x0000000e PA:0x800087b1
       25145000	      2513	8000077c	0379f3b7	lui	x7,0x379f	  x7=0x0379f000
       25155000	      2514	80000780	00000013	addi	x0,x0,0	  x0:0x00000000
       25165000	      2515	80000784	24c15303	lhu	x6,588(x2)	  x2:0x800080d8  x6=0x0000c169 PA:0x80008324
       25175000	      2516	80000788	00943533	sltu	x10,x8,x9	  x8:0x00000000  x9:0xfffffb3b x10=0x00000001
       25185000	      2517	8000078c	6ab10023	sb	x11,1696(x2)	  x2:0x800080d8 x11:0x00000024 PA:0x80008778
       25195000	      2518	80000790	3a412783	lw	x15,932(x2)	  x2:0x800080d8 x15=0xa2018e2d PA:0x8000847c
       25205000	      2519	80000794	017ac233	xor	x4,x21,x23	 x21:0x80000578 x23:0x00000000  x4=0x80000578
       25215000	      2520	80000798	41b14883	lbu	x17,1051(x2)	  x2:0x800080d8 x17=0x00000013 PA:0x800084f3
       25225000	      2521	8000079c	4c412503	lw	x10,1220(x2)	  x2:0x800080d8 x10=0xcf2948c5 PA:0x8000859c
       25235000	      2522	800007a0	41180b33	sub	x22,x16,x17	 x16:0x80000700 x17:0x00000013 x22=0x800006ed
       25245000	      2523	800007a4	17611923	sh	x22,370(x2)	  x2:0x800080d8 x22:0x800006ed PA:0x8000824a
       25255000	      2524	800007a8	18c9ce13	xori	x28,x19,396	 x19:0x00000000 x28=0x0000018c
       25265000	      2525	800007ac	17b105a3	sb	x27,363(x2)	  x2:0x800080d8 x27:0xffffffa7 PA:0x80008243
       25275000	      2526	800007b0	412308b3	sub	x17,x6,x18	  x6:0x0000c169 x18:0xfffffffb x17=0x0000c16e
       25285000	      2527	800007b4	0e78b213	sltiu	x4,x17,231	 x17:0x0000c16e  x4=0x00000000
       25295000	      2528	800007b8	40415693	srai	x13,x2,0x4	  x2:0x800080d8 x13=0xf800080d
       25305000	      2529	800007bc	400185b3	sub	x11,x3,x0	  x3:0x00000000  x0:0x00000000 x11=0x00000000
       25315000	      2530	800007c0	01d9d833	srl	x16,x19,x29	 x19:0x00000000 x29:0x00000000 x16=0x00000000
       25325000	      2531	800007c4	15610e03	lb	x28,342(x2)	  x2:0x800080d8 x28=0xffffffe3 PA:0x8000822e
       25335000	      2532	800007c8	0e626b13	ori	x22,x4,230	  x4:0x00000000 x22=0x000000e6
       25345000	      2533	800007cc	35410aa3	sb	x20,853(x2)	  x2:0x800080d8 x20:0xe4e90541 PA:0x8000842d
       25355000	      2534	800007d0	00f35493	srli	x9,x6,0xf	  x6:0x0000c169  x9=0x00000001
       25365000	      2535	800007d4	345105a3	sb	x5,843(x2)	  x2:0x800080d8  x5:0x800005fc PA:0x80008423
       25375000	      2536	800007d8	0d394d93	xori	x27,x18,211	 x18:0xfffffffb x27=0xffffff28
       25385000	      2537	800007dc	8d0f3093	sltiu	x1,x30,-1840	 x30:0x00000000  x1=0x00000001
       25395000	      2538	800007e0	56311723	sh	x3,1390(x2)	  x2:0x800080d8  x3:0x00000000 PA:0x80008646
       25405000	      2539	800007e4	4c8dc913	xori	x18,x27,1224	 x27:0xffffff28 x18=0xfffffbe0
       25415000	      2540	800007e8	41cc00b3	sub	x1,x24,x28	 x24:0x00000000 x28:0xffffffe3  x1=0x0000001d
       25425000	      2541	800007ec	58714b03	lbu	x22,1415(x2)	  x2:0x800080d8 x22=0x00000077 PA:0x8000865f
       25435000	      2542	800007f0	c7f3a497	auipc	x9,0xc7f3a	  x9=0x47f3a7ec
       25445000	      2543	800007f4	0d510da3	sb	x21,219(x2)	  x2:0x800080d8 x21:0x80000578 PA:0x800081b3
       25455000	      2544	800007f8	2cf14183	lbu	x3,719(x2)	  x2:0x800080d8  x3=0x00000018 PA:0x800083a7
       25465000	      2545	800007fc	418a5c93	srai	x25,x20,0x18	 x20:0xe4e90541 x25=0xffffffe4
       25475000	      2546	80000800	cd1c6c13	ori	x24,x24,-815	 x24:0x00000000 x24=0xfffffcd1
       25485000	      2547	80000804	564106a3	sb	x4,1389(x2)	  x2:0x800080d8  x4:0x00000000 PA:0x80008645
       25495000	      2548	80000808	fe70ec17	auipc	x24,0xfe70e	 x24=0x7e70e804
       25505000	      2549	8000080c	3c911a23	sh	x9,980(x2)	  x2:0x800080d8  x9:0x47f3a7ec PA:0x800084ac
       25515000	      2550	80000810	71b76513	ori	x10,x14,1819	 x14:0x80009fc4 x10=0x80009fdf
       25525000	      2551	80000814	00ed1913	slli	x18,x26,0xe	 x26:0x00000000 x18=0x00000000
       25535000	      2552	80000818	19b10303	lb	x6,411(x2)	  x2:0x800080d8  x6=0x0000001d PA:0x80008273
       25545000	      2553	8000081c	36214e83	lbu	x29,866(x2)	  x2:0x800080d8 x29=0x000000b7 PA:0x8000843a
       25555000	      2554	80000820	011cdc93	srli	x25,x25,0x11	 x25:0xffffffe4 x25=0x00007fff
       25565000	      2555	80000824	1d410c83	lb	x25,468(x2)	  x2:0x800080d8 x25=0xffffffbc PA:0x800082ac
       25575000	      2556	80000828	00681f33	sll	x30,x16,x6	 x16:0x00000000  x6:0x0000001d x30=0x00000000
       25585000	      2557	8000082c	0112ccb3	xor	x25,x5,x17	  x5:0x800005fc x17:0x0000c16e x25=0x8000c492
       25595000	      2558	80000830	fce11d23	sh	x14,-38(x2)	  x2:0x800080d8 x14:0x80009fc4 PA:0x800080b2
       25605000	      2559	80000834	0098b7b3	sltu	x15,x17,x9	 x17:0x0000c16e  x9:0x47f3a7ec x15=0x00000001
       25615000	      2560	80000838	11c12023	sw	x28,256(x2)	  x2:0x800080d8 x28:0xffffffe3 PA:0x800081d8
       25625000	      2561	8000083c	4c310b03	lb	x22,1219(x2)	  x2:0x800080d8 x22=0x0000004a PA:0x8000859b
       25635000	      2562	80000840	fac10ba3	sb	x12,-73(x2)	  x2:0x800080d8 x12:0x0000a549 PA:0x8000808f
       25645000	      2563	80000844	00008117	auipc	x2,0x8	  x2=0x80008840
       25655000	      2564	80000848	b9710113	addi	x2,x2,-1129	  x2:0x80008840  x2=0x800083d7
       25665000	      2565	8000084c	ff4101a3	sb	x20,-29(x2)	  x2:0x800083d7 x20:0xe4e90541 PA:0x800083ba
       25675000	      2566	80000850	02b122a3	sw	x11,37(x2)	  x2:0x800083d7 x11:0x00000000 PA:0x800083fc
       25685000	      2567	80000854	01115c83	lhu	x25,17(x2)	  x2:0x800083d7 x25=0x0000eb1a PA:0x800083e8
       25695000	      2568	80000858	01ffcf33	xor	x30,x31,x31	 x31:0x80009f40 x31:0x80009f40 x30=0x00000000
       25705000	      2569	8000085c	ffe105a3	sb	x30,-21(x2)	  x2:0x800083d7 x30:0x00000000 PA:0x800083c2
       25715000	      2570	80000860	008c1a93	slli	x21,x24,0x8	 x24:0x7e70e804 x21=0x70e80400
       25725000	      2571	80000864	fd210323	sb	x18,-58(x2)	  x2:0x800083d7 x18:0x00000000 PA:0x8000839d
       25735000	      2572	80000868	7618c813	xori	x16,x17,1889	 x17:0x0000c16e x16=0x0000c60f
       25745000	      2573	8000086c	41e68db3	sub	x27,x13,x30	 x13:0xf800080d x30:0x00000000 x27=0xf800080d
       25755000	      2574	80000870	fdf11303	lh	x6,-33(x2)	  x2:0x800083d7  x6=0xffffb76f PA:0x800083b6
       25765000	      2575	80000874	00214903	lbu	x18,2(x2)	  x2:0x800083d7 x18=0x000000ea PA:0x800083d9
       25775000	      2576	80000878	fd512383	lw	x7,-43(x2)	  x2:0x800083d7  x7=0x321d4c87 PA:0x800083ac
       25785000	      2577	8000087c	004c0e33	add	x28,x24,x4	 x24:0x7e70e804  x4:0x00000000 x28=0x7e70e804
       25795000	      2578	80000880	04010d83	lb	x27,64(x2)	  x2:0x800083d7 x27=0xffffff81 PA:0x80008417
       25805000	      2579	80000884	01a14383	lbu	x7,26(x2)	  x2:0x800083d7  x7=0x00000031 PA:0x800083f1
       25815000	      2580	80000888	37810513	addi	x10,x2,888	  x2:0x800083d7 x10=0x8000874f
       25825000	      2581	8000088c	8e232797	auipc	x15,0x8e232	 x15=0x0e232888
       25835000	      2582	80000890	2c8ecf37	lui	x30,0x2c8ec	 x30=0x2c8ec000
       25845000	      2583	80000894	03614583	lbu	x11,54(x2)	  x2:0x800083d7 x11=0x00000084 PA:0x8000840d
       25855000	      2584	80000898	01293233	sltu	x4,x18,x18	 x18:0x000000ea x18:0x000000ea  x4=0x00000000
       25865000	      2585	8000089c	03a10283	lb	x5,58(x2)	  x2:0x800083d7  x5=0xfffffffc PA:0x80008411
       25875000	      2586	800008a0	02715403	lhu	x8,39(x2)	  x2:0x800083d7  x8=0x00000000 PA:0x800083fe
       25885000	      2587	800008a4	fe910da3	sb	x9,-5(x2)	  x2:0x800083d7  x9:0x47f3a7ec PA:0x800083d2
       25895000	      2588	800008a8	017bb5b3	sltu	x11,x23,x23	 x23:0x00000000 x23:0x00000000 x11=0x00000000
       25905000	      2589	800008ac	01071813	slli	x16,x14,0x10	 x14:0x80009fc4 x16=0x9fc40000
       25915000	      2590	800008b0	fcb11a83	lh	x21,-53(x2)	  x2:0x800083d7 x21=0x00000cf5 PA:0x800083a2
       25925000	      2591	800008b4	003244b3	xor	x9,x4,x3	  x4:0x00000000  x3:0x00000018  x9=0x00000018
       25935000	      2592	800008b8	00e10383	lb	x7,14(x2)	  x2:0x800083d7  x7=0x0000003a PA:0x800083e5
       25945000	      2593	800008bc	41d50cb3	sub	x25,x10,x29	 x10:0x8000874f x29:0x000000b7 x25=0x80008698
       25955000	      2594	800008c0	759f2b13	slti	x22,x30,1881	 x30:0x2c8ec000 x22=0x00000000
       25965000	      2595	800008c4	00d51a93	slli	x21,x10,0xd	 x10:0x8000874f x21=0x10e9e000
       25975000	      2596	800008c8	fc911983	lh	x19,-55(x2)	  x2:0x800083d7 x19=0x00006808 PA:0x800083a0
       25985000	      2597	800008cc	00eeecb3	or	x25,x29,x14	 x29:0x000000b7 x14:0x80009fc4 x25=0x80009ff7
       25995000	      2598	800008d0	00694f33	xor	x30,x18,x6	 x18:0x000000ea  x6:0xffffb76f x30=0xffffb785
       26005000	      2599	800008d4	02214483	lbu	x9,34(x2)	  x2:0x800083d7  x9=0x00000068 PA:0x800083f9
       26015000	      2600	800008d8	03214303	lbu	x6,50(x2)	  x2:0x800083d7  x6=0x000000a6 PA:0x80008409
       26025000	      2601	800008dc	01f64833	xor	x16,x12,x31	 x12:0x0000a549 x31:0x80009f40 x16=0x80003a09
       26035000	      2602	800008e0	004f5c93	srli	x25,x30,0x4	 x30:0xffffb785 x25=0x0ffffb78
       26045000	      2603	800008e4	83562313	slti	x6,x12,-1995	 x12:0x0000a549  x6=0x00000000
       26055000	      2604	800008e8	fe610b03	lb	x22,-26(x2)	  x2:0x800083d7 x22=0x00000050 PA:0x800083bd
       26065000	      2605	800008ec	00c65eb3	srl	x29,x12,x12	 x12:0x0000a549 x12:0x0000a549 x29=0x00000052
       26075000	      2606	800008f0	00b036b3	sltu	x13,x0,x11	  x0:0x00000000 x11:0x00000000 x13=0x00000000
       26085000	      2607	800008f4	fcf11383	lh	x7,-49(x2)	  x2:0x800083d7  x7=0x00001877 PA:0x800083a6
       26095000	      2608	800008f8	fe610883	lb	x17,-26(x2)	  x2:0x800083d7 x17=0x00000050 PA:0x800083bd
       26105000	      2609	800008fc	01410d83	lb	x27,20(x2)	  x2:0x800083d7 x27=0x00000067 PA:0x800083eb
       26115000	      2610	80000900	ff014903	lbu	x18,-16(x2)	  x2:0x800083d7 x18=0x0000002b PA:0x800083c7
       26125000	      2611	80000904	fcc14b83	lbu	x23,-52(x2)	  x2:0x800083d7 x23=0x0000000c PA:0x800083a3
       26135000	      2612	80000908	01629c33	sll	x24,x5,x22	  x5:0xfffffffc x22:0x00000050 x24=0xfffc0000
       26145000	      2613	8000090c	13f70817	auipc	x16,0x13f70	 x16=0x93f70908
       26155000	      2614	80000910	ffb10783	lb	x15,-5(x2)	  x2:0x800083d7 x15=0xffffffec PA:0x800083d2
       26165000	      2615	80000914	01f15f03	lhu	x30,31(x2)	  x2:0x800083d7 x30=0x0000c2e0 PA:0x800083f6
       26175000	      2616	80000918	00561933	sll	x18,x12,x5	 x12:0x0000a549  x5:0xfffffffc x18=0x90000000
       26185000	      2617	8000091c	02f11ba3	sh	x15,55(x2)	  x2:0x800083d7 x15:0xffffffec PA:0x8000840e
       26195000	      2618	80000920	fe810203	lb	x4,-24(x2)	  x2:0x800083d7  x4=0xffffffc8 PA:0x800083bf
       26205000	      2619	80000924	01311da3	sh	x19,27(x2)	  x2:0x800083d7 x19:0x00006808 PA:0x800083f2
       26215000	      2620	80000928	00008117	auipc	x2,0x8	  x2=0x80008924
       26225000	      2621	8000092c	be510113	addi	x2,x2,-1051	  x2:0x80008924  x2=0x80008509
       26235000	      2622	80000930	00110823	sb	x1,16(x2)	  x2:0x80008509  x1:0x0000001d PA:0x80008519
       26245000	      2623	80000934	ff614483	lbu	x9,-10(x2)	  x2:0x80008509  x9=0x000000a4 PA:0x800084ff
       26255000	      2624	80000938	d52ba593	slti	x11,x23,-686	 x23:0x0000000c x11=0x00000000
       26265000	      2625	8000093c	00514d03	lbu	x26,5(x2)	  x2:0x80008509 x26=0x00000063 PA:0x8000850e
       26275000	      2626	80000940	a7b06e93	ori	x29,x0,-1413	  x0:0x00000000 x29=0xfffffa7b
       26285000	      2627	80000944	ffa14d83	lbu	x27,-6(x2)	  x2:0x80008509 x27=0x0000005b PA:0x80008503
       26295000	      2628	80000948	ffc14a83	lbu	x21,-4(x2)	  x2:0x80008509 x21=0x00000059 PA:0x80008505
       26305000	      2629	8000094c	00c14783	lbu	x15,12(x2)	  x2:0x80008509 x15=0x000000bc PA:0x80008515
       26315000	      2630	80000950	01b105a3	sb	x27,11(x2)	  x2:0x80008509 x27:0x0000005b PA:0x80008514
       26325000	      2631	80000954	00e01a93	slli	x21,x0,0xe	  x0:0x00000000 x21=0x00000000
       26335000	      2632	80000958	ffe109a3	sb	x30,-13(x2)	  x2:0x80008509 x30:0x0000c2e0 PA:0x800084fc
       26345000	      2633	8000095c	012229b3	slt	x19,x4,x18	  x4:0xffffffc8 x18:0x90000000 x19=0x00000000
       26355000	      2634	80000960	ffe10003	lb	x0,-2(x2)	  x2:0x80008509 PA:0x80008507
       26365000	      2635	80000964	ffe14f03	lbu	x30,-2(x2)	  x2:0x80008509 x30=0x0000009e PA:0x80008507
       26375000	      2636	80000968	ff814c83	lbu	x25,-8(x2)	  x2:0x80008509 x25=0x00000044 PA:0x80008501
       26385000	      2637	8000096c	ffd10e23	sb	x29,-4(x2)	  x2:0x80008509 x29:0xfffffa7b PA:0x80008505
       26395000	      2638	80000970	01b5ddb3	srl	x27,x11,x27	 x11:0x00000000 x27:0x0000005b x27=0x00000000
       26405000	      2639	80000974	ff410083	lb	x1,-12(x2)	  x2:0x80008509  x1=0x0000002a PA:0x800084fd
       26415000	      2640	80000978	ff210903	lb	x18,-14(x2)	  x2:0x80008509 x18=0x00000030 PA:0x800084fb
       26425000	      2641	8000097c	fe610b23	sb	x6,-10(x2)	  x2:0x80008509  x6:0x00000000 PA:0x800084ff
       26435000	      2642	80000980	c5414d13	xori	x26,x2,-940	  x2:0x80008509 x26=0x7fff795d
       26445000	      2643	80000984	000283b3	add	x7,x5,x0	  x5:0xfffffffc  x0:0x00000000  x7=0xfffffffc
       26455000	      2644	80000988	00511303	lh	x6,5(x2)	  x2:0x80008509  x6=0xffff9563 PA:0x8000850e
       26465000	      2645	00000000	00000013	addi	x0,x0,0	  x0:0x00000000
       26475000	      2646	8000098c	47732517	auipc	x10,0x47732	 x10=0xc7732988
       26485000	      2647	80000990	ff711903	lh	x18,-9(x2)	  x2:0x80008509 x18=0x0000442c PA:0x80008500
       26495000	      2648	80000994	fe410923	sb	x4,-14(x2)	  x2:0x80008509  x4:0xffffffc8 PA:0x800084fb
       26505000	      2649	80000998	ff515503	lhu	x10,-11(x2)	  x2:0x80008509 x10=0x000000e0 PA:0x800084fe
       26515000	      2650	8000099c	00000013	addi	x0,x0,0	  x0:0x00000000
       26525000	      2651	800009a0	01710423	sb	x23,8(x2)	  x2:0x80008509 x23:0x0000000c PA:0x80008511
       26535000	      2652	800009a4	00e03b33	sltu	x22,x0,x14	  x0:0x00000000 x14:0x80009fc4 x22=0x00000001
       26545000	      2653	800009a8	a056a813	slti	x16,x13,-1531	 x13:0x00000000 x16=0x00000000
       26555000	      2654	800009ac	ffc14883	lbu	x17,-4(x2)	  x2:0x80008509 x17=0x0000007b PA:0x80008505
       26565000	      2655	800009b0	00f11b83	lh	x23,15(x2)	  x2:0x80008509 x23=0x00001db0 PA:0x80008518
       26575000	      2656	800009b4	fe611aa3	sh	x6,-11(x2)	  x2:0x80008509  x6:0xffff9563 PA:0x800084fe
       26585000	      2657	800009b8	00008117	auipc	x2,0x8	  x2=0x800089b4
       26595000	      2658	800009bc	20c10113	addi	x2,x2,524	  x2:0x800089b4  x2=0x80008bc0
       26605000	      2659	800009c0	ffb10923	sb	x27,-14(x2)	  x2:0x80008bc0 x27:0x00000000 PA:0x80008bb2
       26615000	      2660	800009c4	02f14303	lbu	x6,47(x2)	  x2:0x80008bc0  x6=0x000000df PA:0x80008bef
       26625000	      2661	800009c8	04010c83	lb	x25,64(x2)	  x2:0x80008bc0 x25=0xffffffe0 PA:0x80008c00
       26635000	      2662	800009cc	fd215d03	lhu	x26,-46(x2)	  x2:0x80008bc0 x26=0x0000ad1e PA:0x80008b92
       26645000	      2663	800009d0	011105a3	sb	x17,11(x2)	  x2:0x80008bc0 x17:0x0000007b PA:0x80008bcb
       26655000	      2664	800009d4	ff215683	lhu	x13,-14(x2)	  x2:0x80008bc0 x13=0x0000e700 PA:0x80008bb2
       26665000	      2665	800009d8	02410823	sb	x4,48(x2)	  x2:0x80008bc0  x4:0xffffffc8 PA:0x80008bf0
       26675000	      2666	800009dc	015a9013	slli	x0,x21,0x15	 x21:0x00000000
       26685000	      2667	800009e0	02b104a3	sb	x11,41(x2)	  x2:0x80008bc0 x11:0x00000000 PA:0x80008be9
       26695000	      2668	800009e4	014dbb33	sltu	x22,x27,x20	 x27:0x00000000 x20:0xe4e90541 x22=0x00000001
       26705000	      2669	800009e8	00e1fcb3	and	x25,x3,x14	  x3:0x00000018 x14:0x80009fc4 x25=0x00000000
       26715000	      2670	800009ec	01b91b13	slli	x22,x18,0x1b	 x18:0x0000442c x22=0x60000000
       26725000	      2671	800009f0	03510883	lb	x17,53(x2)	  x2:0x80008bc0 x17=0x0000001d PA:0x80008bf5
       26735000	      2672	800009f4	fe110383	lb	x7,-31(x2)	  x2:0x80008bc0  x7=0xffffff96 PA:0x80008ba1
       26745000	      2673	800009f8	93c2ca97	auipc	x21,0x93c2c	 x21=0x13c2c9f4
       26755000	      2674	800009fc	00000013	addi	x0,x0,0	  x0:0x00000000
       26765000	      2675	80000a00	4189d233	sra	x4,x19,x24	 x19:0x00000000 x24:0xfffc0000  x4=0x00000000
       26775000	      2676	80000a04	00f14403	lbu	x8,15(x2)	  x2:0x80008bc0  x8=0x00000092 PA:0x80008bcf
       26785000	      2677	80000a08	011d9893	slli	x17,x27,0x11	 x27:0x00000000 x17=0x00000000
       26795000	      2678	80000a0c	415bd333	sra	x6,x23,x21	 x23:0x00001db0 x21:0x13c2c9f4  x6=0x00000000
       26805000	      2679	80000a10	00e11923	sh	x14,18(x2)	  x2:0x80008bc0 x14:0x80009fc4 PA:0x80008bd2
       26815000	      2680	80000a14	40874293	xori	x5,x14,1032	 x14:0x80009fc4  x5=0x80009bcc
       26825000	      2681	80000a18	85342393	slti	x7,x8,-1965	  x8:0x00000092  x7=0x00000000
       26835000	      2682	80000a1c	7b07bdb7	lui	x27,0x7b07b	 x27=0x7b07b000
       26845000	      2683	80000a20	01f85e33	srl	x28,x16,x31	 x16:0x00000000 x31:0x80009f40 x28=0x00000000
       26855000	      2684	80000a24	0076d7b3	srl	x15,x13,x7	 x13:0x0000e700  x7:0x00000000 x15=0x0000e700
       26865000	      2685	80000a28	00d10c83	lb	x25,13(x2)	  x2:0x80008bc0 x25=0xffffff95 PA:0x80008bcd
       26875000	      2686	80000a2c	01010523	sb	x16,10(x2)	  x2:0x80008bc0 x16:0x00000000 PA:0x80008bca
       26885000	      2687	80000a30	65baac93	slti	x25,x21,1627	 x21:0x13c2c9f4 x25=0x00000000
       26895000	      2688	80000a34	02e12023	sw	x14,32(x2)	  x2:0x80008bc0 x14:0x80009fc4 PA:0x80008be0
       26905000	      2689	80000a38	fe510c83	lb	x25,-27(x2)	  x2:0x80008bc0 x25=0xffffffbf PA:0x80008ba5
       26915000	      2690	80000a3c	00411b23	sh	x4,22(x2)	  x2:0x80008bc0  x4:0x00000000 PA:0x80008bd6
       26925000	      2691	80000a40	fdc12303	lw	x6,-36(x2)	  x2:0x80008bc0  x6=0x2e97d103 PA:0x80008b9c
       26935000	      2692	80000a44	fcc10b03	lb	x22,-52(x2)	  x2:0x80008bc0 x22=0xffffffcc PA:0x80008b8c
       26945000	      2693	80000a48	01910003	lb	x0,25(x2)	  x2:0x80008bc0 PA:0x80008bd9
       26955000	      2694	80000a4c	01711f23	sh	x23,30(x2)	  x2:0x80008bc0 x23:0x00001db0 PA:0x80008bde
       26965000	      2695	80000a50	01e10403	lb	x8,30(x2)	  x2:0x80008bc0  x8=0xffffffb0 PA:0x80008bde
       26975000	      2696	80000a54	014646b3	xor	x13,x12,x20	 x12:0x0000a549 x20:0xe4e90541 x13=0xe4e9a008
       26985000	      2697	80000a58	fff10da3	sb	x31,-5(x2)	  x2:0x80008bc0 x31:0x80009f40 PA:0x80008bbb
       26995000	      2698	80000a5c	01110d03	lb	x26,17(x2)	  x2:0x80008bc0 x26=0xffffff85 PA:0x80008bd1
       27005000	      2699	80000a60	00a13e33	sltu	x28,x2,x10	  x2:0x80008bc0 x10:0x000000e0 x28=0x00000000
       27015000	      2700	80000a64	00000013	addi	x0,x0,0	  x0:0x00000000
       27025000	      2701	80000a68	41e45113	srai	x2,x8,0x1e	  x8:0xffffffb0  x2=0xffffffff
       27035000	      2702	80000a6c	0f340063	beq	x8,x19,80000b4c	  x8:0xffffffb0 x19:0x00000000
       27045000	      2703	80000a70	0f77c463	blt	x15,x23,80000b58	 x15:0x0000e700 x23:0x00001db0
       27055000	      2704	80000a74	00008917	auipc	x18,0x8	 x18=0x80008a70
       27065000	      2705	80000a78	d4790913	addi	x18,x18,-697	 x18:0x80008a70 x18=0x800087b7
       27075000	      2706	80000a7c	43902993	slti	x19,x0,1081	  x0:0x00000000 x19=0x00000001
       27085000	      2707	80000a80	00abe833	or	x16,x23,x10	 x23:0x00001db0 x10:0x000000e0 x16=0x00001df0
       27095000	      2708	80000a84	c90b3e13	sltiu	x28,x22,-880	 x22:0xffffffcc x28=0x00000000
       27105000	      2709	80000a88	017431b3	sltu	x3,x8,x23	  x8:0xffffffb0 x23:0x00001db0  x3=0x00000000
       27115000	      2710	80000a8c	90ac3113	sltiu	x2,x24,-1782	 x24:0xfffc0000  x2=0x00000001
       27125000	      2711	80000a90	4066dc93	srai	x25,x13,0x6	 x13:0xe4e9a008 x25=0xff93a680
       27135000	      2712	80000a94	02f95c03	lhu	x24,47(x18)	 x18:0x800087b7 x24=0x0000df29 PA:0x800087e6
       27145000	      2713	80000a98	fc795403	lhu	x8,-57(x18)	 x18:0x800087b7  x8=0x0000c6b0 PA:0x8000877e
       27155000	      2714	80000a9c	00b9f6b3	and	x13,x19,x11	 x19:0x00000001 x11:0x00000000 x13=0x00000000
       27165000	      2715	80000aa0	f7995683	lhu	x13,-135(x18)	 x18:0x800087b7 x13=0x0000d200 PA:0x80008730
       27175000	      2716	80000aa4	01d09293	slli	x5,x1,0x1d	  x1:0x0000002a  x5=0x40000000
       27185000	      2717	80000aa8	04390083	lb	x1,67(x18)	 x18:0x800087b7  x1=0xfffffffb PA:0x800087fa
       27195000	      2718	00000000	00000013	addi	x0,x0,0	  x0:0x00000000
       27205000	      2719	80000aac	d340b337	lui	x6,0xd340b	  x6=0xd340b000
       27215000	      2720	80000ab0	3b0885b7	lui	x11,0x3b088	 x11=0x3b088000
       27225000	      2721	80000ab4	fa1906a3	sb	x1,-83(x18)	 x18:0x800087b7  x1:0xfffffffb PA:0x80008764
       27235000	      2722	80000ab8	4b31c893	xori	x17,x3,1203	  x3:0x00000000 x17=0x000004b3
       27245000	      2723	80000abc	f9191e03	lh	x28,-111(x18)	 x18:0x800087b7 x28=0x000019b1 PA:0x80008748
       27255000	      2724	80000ac0	2f472217	auipc	x4,0x2f472	  x4=0xaf472abc
       27265000	      2725	80000ac4	fa795603	lhu	x12,-89(x18)	 x18:0x800087b7 x12=0x00003566 PA:0x8000875e
       27275000	      2726	80000ac8	02f95783	lhu	x15,47(x18)	 x18:0x800087b7 x15=0x0000df29 PA:0x800087e6
       27285000	      2727	80000acc	f1090b03	lb	x22,-240(x18)	 x18:0x800087b7 x22=0x00000063 PA:0x800086c7
       27295000	      2728	80000ad0	02b95203	lhu	x4,43(x18)	 x18:0x800087b7  x4=0x0000b935 PA:0x800087e2
       27305000	      2729	80000ad4	f4794503	lbu	x10,-185(x18)	 x18:0x800087b7 x10=0x000000a2 PA:0x800086fe
       27315000	      2730	80000ad8	02290823	sb	x2,48(x18)	 x18:0x800087b7  x2:0x00000001 PA:0x800087e7
       27325000	      2731	80000adc	fa694e83	lbu	x29,-90(x18)	 x18:0x800087b7 x29=0x000000d4 PA:0x8000875d
       27335000	      2732	80000ae0	0166c833	xor	x16,x13,x22	 x13:0x0000d200 x22:0x00000063 x16=0x0000d263
       27345000	      2733	80000ae4	fd791583	lh	x11,-41(x18)	 x18:0x800087b7 x11=0xffffb2c9 PA:0x8000878e
       27355000	      2734	80000ae8	fb995b83	lhu	x23,-71(x18)	 x18:0x800087b7 x23=0x0000a86b PA:0x80008770
       27365000	      2735	80000aec	ee244e93	xori	x29,x8,-286	  x8:0x0000c6b0 x29=0xffff3852
       27375000	      2736	80000af0	902a6813	ori	x16,x20,-1790	 x20:0xe4e90541 x16=0xfffffd43
       27385000	      2737	80000af4	f5390403	lb	x8,-173(x18)	 x18:0x800087b7  x8=0x00000062 PA:0x8000870a
       27395000	      2738	80000af8	fd294203	lbu	x4,-46(x18)	 x18:0x800087b7  x4=0x0000004f PA:0x80008789
       27405000	      2739	80000afc	bc94af13	slti	x30,x9,-1079	  x9:0x000000a4 x30=0x00000000
       27415000	      2740	80000b00	00094383	lbu	x7,0(x18)	 x18:0x800087b7  x7=0x0000005c PA:0x800087b7
       27425000	      2741	80000b04	01ec5513	srli	x10,x24,0x1e	 x24:0x0000df29 x10=0x00000000
       27435000	      2742	80000b08	4089dab3	sra	x21,x19,x8	 x19:0x00000001  x8:0x00000062 x21=0x00000000
       27445000	      2743	80000b0c	40588833	sub	x16,x17,x5	 x17:0x000004b3  x5:0x40000000 x16=0xc00004b3
       27455000	      2744	80000b10	fc890823	sb	x8,-48(x18)	 x18:0x800087b7  x8:0x00000062 PA:0x80008787
       27465000	      2745	80000b14	00890323	sb	x8,6(x18)	 x18:0x800087b7  x8:0x00000062 PA:0x800087bd
       27475000	      2746	80000b18	013b4eb3	xor	x29,x22,x19	 x22:0x00000063 x19:0x00000001 x29=0x00000062
       27485000	      2747	80000b1c	8186bb13	sltiu	x22,x13,-2024	 x13:0x0000d200 x22=0x00000001
       27495000	      2748	80000b20	f1e90383	lb	x7,-226(x18)	 x18:0x800087b7  x7=0xffffff92 PA:0x800086d5
       27505000	      2749	80000b24	f2694f03	lbu	x30,-218(x18)	 x18:0x800087b7 x30=0x00000066 PA:0x800086dd
       27515000	      2750	80000b28	4142d013	srai	x0,x5,0x14	  x5:0x40000000
       27525000	      2751	80000b2c	f2e90203	lb	x4,-210(x18)	 x18:0x800087b7  x4=0xffffffe5 PA:0x800086e5
       27535000	      2752	80000b30	e1c94613	xori	x12,x18,-484	 x18:0x800087b7 x12=0x7fff79ab
       27545000	      2753	80000b34	01f91483	lh	x9,31(x18)	 x18:0x800087b7  x9=0xffffee35 PA:0x800087d6
       27555000	      2754	80000b38	000f08b3	add	x17,x30,x0	 x30:0x00000066  x0:0x00000000 x17=0x00000066
       27565000	      2755	80000b3c	411e8db3	sub	x27,x29,x17	 x29:0x00000062 x17:0x00000066 x27=0xfffffffc
       27575000	      2756	80000b40	01fa7d33	and	x26,x20,x31	 x20:0xe4e90541 x31:0x80009f40 x26=0x80000540
       27585000	      2757	80000b44	e8e24113	xori	x2,x4,-370	  x4:0xffffffe5  x2=0x0000016b
       27595000	      2758	80000b48	0216ce63	blt	x13,x1,80000b84	 x13:0x0000d200  x1:0xfffffffb
       27605000	      2759	80000b4c	be54fe13	andi	x28,x9,-1051	  x9:0xffffee35 x28=0xffffea25
       27615000	      2760	80000b50	01da0433	add	x8,x20,x29	 x20:0xe4e90541 x29:0x00000062  x8=0xe4e905a3
       27625000	      2761	80000b54	00f19d93	slli	x27,x3,0xf	  x3:0x00000000 x27=0x00000000
       27635000	      2762	80000b58	0183eb33	or	x22,x7,x24	  x7:0xffffff92 x24:0x0000df29 x22=0xffffffbb
       27645000	      2763	80000b5c	00018c33	add	x24,x3,x0	  x3:0x00000000  x0:0x00000000 x24=0x00000000
       27655000	      2764	80000b60	01285c13	srli	x24,x16,0x12	 x16:0xc00004b3 x24=0x00003000
       27665000	      2765	80000b64	019887b3	add	x15,x17,x25	 x17:0x00000066 x25:0xff93a680 x15=0xff93a6e6
       27675000	      2766	80000b68	001e3c33	sltu	x24,x28,x1	 x28:0xffffea25  x1:0xfffffffb x24=0x00000001
       27685000	      2767	80000b6c	00a4e263	bltu	x9,x10,80000b70	  x9:0xffffee35 x10:0x00000000
       27695000	      2768	80000b70	013f67b3	or	x15,x30,x19	 x30:0x00000066 x19:0x00000001 x15=0x00000067
       27705000	      2769	80000b74	018dd613	srli	x12,x27,0x18	 x27:0x00000000 x12=0x00000000
       27715000	      2770	80000b78	4f7d3e93	sltiu	x29,x26,1271	 x26:0x80000540 x29=0x00000000
       27725000	      2771	80000b7c	e03e3e13	sltiu	x28,x28,-509	 x28:0xffffea25 x28=0x00000001
       27735000	      2772	80000b80	6829f617	auipc	x12,0x6829f	 x12=0xe829fb7c
       27745000	      2773	80000b84	0a844e13	xori	x28,x8,168	  x8:0xe4e905a3 x28=0xe4e9050b
       27755000	      2774	80000b88	03e2cc63	blt	x5,x30,80000bc0	  x5:0x40000000 x30:0x00000066
       27765000	      2775	80000b8c	5eb5a313	slti	x6,x11,1515	 x11:0xffffb2c9  x6=0x00000001
       27775000	      2776	80000b90	01b05493	srli	x9,x0,0x1b	  x0:0x00000000  x9=0x00000000
       27785000	      2777	80000b94	014bc8b3	xor	x17,x23,x20	 x23:0x0000a86b x20:0xe4e90541 x17=0xe4e9ad2a
       27795000	      2778	80000b98	0402a493	slti	x9,x5,64	  x5:0x40000000  x9=0x00000000
       27805000	      2779	80000b9c	004ad213	srli	x4,x21,0x4	 x21:0x00000000  x4=0x00000000
       27815000	      2780	80000ba0	e83b8b13	addi	x22,x23,-381	 x23:0x0000a86b x22=0x0000a6ee
       27825000	      2781	80000ba4	04789863	bne	x17,x7,80000bf4	 x17:0xe4e9ad2a  x7:0xffffff92
       27835000	      2782	00000000	00000013	addi	x0,x0,0	  x0:0x00000000
       27845000	      2783	80000bf0	00000013	addi	x0,x0,0	  x0:0x00000000
       27855000	      2784	80000bf4	0058c133	xor	x2,x17,x5	 x17:0xe4e9ad2a  x5:0x40000000  x2=0xa4e9ad2a
       27865000	      2785	80000bf8	7c65f213	andi	x4,x11,1990	 x11:0xffffb2c9  x4=0x000002c0
       27875000	      2786	80000bfc	021f0e63	beq	x30,x1,80000c38	 x30:0x00000066  x1:0xfffffffb
       27885000	      2787	80000c00	0156c263	blt	x13,x21,80000c04	 x13:0x0000d200 x21:0x00000000
       27895000	      2788	80000c04	415283b3	sub	x7,x5,x21	  x5:0x40000000 x21:0x00000000  x7=0x40000000
       27905000	      2789	80000c08	043e7663	bgeu	x28,x3,80000c54	 x28:0xe4e9050b  x3:0x00000000
       27915000	      2790	00000000	00000013	addi	x0,x0,0	  x0:0x00000000
       27925000	      2791	80000c50	00000013	addi	x0,x0,0	  x0:0x00000000
       27935000	      2792	80000c54	01114f33	xor	x30,x2,x17	  x2:0xa4e9ad2a x17:0xe4e9ad2a x30=0x40000000
       27945000	      2793	80000c58	002fec63	bltu	x31,x2,80000c70	 x31:0x80009f40  x2:0xa4e9ad2a
       27955000	      2794	00000000	00000013	addi	x0,x0,0	  x0:0x00000000
       27965000	      2795	80000c6c	00000013	addi	x0,x0,0	  x0:0x00000000
       27975000	      2796	80000c70	00000013	addi	x0,x0,0	  x0:0x00000000
       27985000	      2797	80000c74	02239a63	bne	x7,x2,80000ca8	  x7:0x40000000  x2:0xa4e9ad2a
       27995000	      2798	00000000	00000013	addi	x0,x0,0	  x0:0x00000000
       28005000	      2799	80000ca4	00000013	addi	x0,x0,0	  x0:0x00000000
       28015000	      2800	80000ca8	4120d913	srai	x18,x1,0x12	  x1:0xfffffffb x18=0xffffffff
       28025000	      2801	80000cac	2a67f413	andi	x8,x15,678	 x15:0x00000067  x8=0x00000026
       28035000	      2802	80000cb0	9cfce793	ori	x15,x25,-1585	 x25:0xff93a680 x15=0xffffffcf
       28045000	      2803	80000cb4	015ad5b3	srl	x11,x21,x21	 x21:0x00000000 x21:0x00000000 x11=0x00000000
       28055000	      2804	80000cb8	5278a513	slti	x10,x17,1319	 x17:0xe4e9ad2a x10=0x00000001
       28065000	      2805	80000cbc	8c634b97	auipc	x23,0x8c634	 x23=0x0c634cb8
       28075000	      2806	80000cc0	00000013	addi	x0,x0,0	  x0:0x00000000
       28085000	      2807	80000cc4	01a332b3	sltu	x5,x6,x26	  x6:0x00000001 x26:0x80000540  x5=0x00000001
       28095000	      2808	80000cc8	00499a63	bne	x19,x4,80000cdc	 x19:0x00000001  x4:0x000002c0
       28105000	      2809	00000000	00000013	addi	x0,x0,0	  x0:0x00000000
       28115000	      2810	80000cd8	00000013	addi	x0,x0,0	  x0:0x00000000
       28125000	      2811	80000cdc	8a66bd93	sltiu	x27,x13,-1882	 x13:0x0000d200 x27=0x00000001
       28135000	      2812	80000ce0	04944663	blt	x8,x9,80000d2c	  x8:0x00000026  x9:0x00000000
       28145000	      2813	80000ce4	04fa8463	beq	x21,x15,80000d2c	 x21:0x00000000 x15:0xffffffcf
       28155000	      2814	80000ce8	40960433	sub	x8,x12,x9	 x12:0xe829fb7c  x9:0x00000000  x8=0xe829fb7c
       28165000	      2815	80000cec	00423633	sltu	x12,x4,x4	  x4:0x000002c0  x4:0x000002c0 x12=0x00000000
       28175000	      2816	80000cf0	02b38863	beq	x7,x11,80000d20	  x7:0x40000000 x11:0x00000000
       28185000	      2817	80000cf4	01301933	sll	x18,x0,x19	  x0:0x00000000 x19:0x00000001 x18=0x00000000
       28195000	      2818	80000cf8	01e74c63	blt	x14,x30,80000d10	 x14:0x80009fc4 x30:0x40000000
       28205000	      2819	00000000	00000013	addi	x0,x0,0	  x0:0x00000000
       28215000	      2820	80000d0c	00000013	addi	x0,x0,0	  x0:0x00000000
       28225000	      2821	80000d10	00fc38b3	sltu	x17,x24,x15	 x24:0x00000001 x15:0xffffffcf x17=0x00000001
       28235000	      2822	80000d14	a0623313	sltiu	x6,x4,-1530	  x4:0x000002c0  x6=0x00000001
       28245000	      2823	80000d18	00e8be33	sltu	x28,x17,x14	 x17:0x00000001 x14:0x80009fc4 x28=0x00000001
       28255000	      2824	80000d1c	0134bdb3	sltu	x27,x9,x19	  x9:0x00000000 x19:0x00000001 x27=0x00000001
       28265000	      2825	80000d20	01d24333	xor	x6,x4,x29	  x4:0x000002c0 x29:0x00000000  x6=0x000002c0
       28275000	      2826	80000d24	4130dd13	srai	x26,x1,0x13	  x1:0xfffffffb x26=0xffffffff
       28285000	      2827	80000d28	303b8217	auipc	x4,0x303b8	  x4=0xb03b8d24
       28295000	      2828	80000d2c	3bd24893	xori	x17,x4,957	  x4:0xb03b8d24 x17=0xb03b8e99
       28305000	      2829	80000d30	01a35a93	srli	x21,x6,0x1a	  x6:0x000002c0 x21=0x00000000
       28315000	      2830	80000d34	ba110d13	addi	x26,x2,-1119	  x2:0xa4e9ad2a x26=0xa4e9a8cb
       28325000	      2831	80000d38	f6dcc213	xori	x4,x25,-147	 x25:0xff93a680  x4=0x006c59ed
       28335000	      2832	80000d3c	01e2dab3	srl	x21,x5,x30	  x5:0x00000001 x30:0x40000000 x21=0x00000001
       28345000	      2833	80000d40	85ad2f37	lui	x30,0x85ad2	 x30=0x85ad2000
       28355000	      2834	80000d44	05671263	bne	x14,x22,80000d88	 x14:0x80009fc4 x22:0x0000a6ee
       28365000	      2835	00000000	00000013	addi	x0,x0,0	  x0:0x00000000
       28375000	      2836	80000d84	00000013	addi	x0,x0,0	  x0:0x00000000
       28385000	      2837	80000d88	01001033	sll	x0,x0,x16	  x0:0x00000000 x16:0xc00004b3
       28395000	      2838	80000d8c	20403693	sltiu	x13,x0,516	  x0:0x00000000 x13=0x00000001
       28405000	      2839	80000d90	59058a93	addi	x21,x11,1424	 x11:0x00000000 x21=0x00000590
       28415000	      2840	80000d94	01f462b3	or	x5,x8,x31	  x8:0xe829fb7c x31:0x80009f40  x5=0xe829ff7c
       28425000	      2841	80000d98	018d8463	beq	x27,x24,80000da0	 x27:0x00000001 x24:0x00000001
       28435000	      2842	00000000	00000013	addi	x0,x0,0	  x0:0x00000000
       28445000	      2843	80000d9c	00000013	addi	x0,x0,0	  x0:0x00000000
       28455000	      2844	80000da0	062c7863	bgeu	x24,x2,80000e10	 x24:0x00000001  x2:0xa4e9ad2a
       28465000	      2845	80000da4	01acc4b3	xor	x9,x25,x26	 x25:0xff93a680 x26:0xa4e9a8cb  x9=0x5b7a0e4b
       28475000	      2846	80000da8	01485e63	bge	x16,x20,80000dc4	 x16:0xc00004b3 x20:0xe4e90541
       28485000	      2847	80000dac	31608d13	addi	x26,x1,790	  x1:0xfffffffb x26=0x00000311
       28495000	      2848	80000db0	40675c97	auipc	x25,0x40675	 x25=0xc0675dac
       28505000	      2849	80000db4	0012e263	bltu	x5,x1,80000db8	  x5:0xe829ff7c  x1:0xfffffffb
       28515000	      2850	00000000	00000013	addi	x0,x0,0	  x0:0x00000000
       28525000	      2851	80000db4	00000013	addi	x0,x0,0	  x0:0x00000000
       28535000	      2852	80000db8	00af6db3	or	x27,x30,x10	 x30:0x85ad2000 x10:0x00000001 x27=0x85ad2001
       28545000	      2853	80000dbc	41388833	sub	x16,x17,x19	 x17:0xb03b8e99 x19:0x00000001 x16=0xb03b8e98
       28555000	      2854	80000dc0	0065d413	srli	x8,x11,0x6	 x11:0x00000000  x8=0x00000000
       28565000	      2855	80000dc4	00709093	slli	x1,x1,0x7	  x1:0xfffffffb  x1=0xfffffd80
       28575000	      2856	80000dc8	01f6e0b3	or	x1,x13,x31	 x13:0x00000001 x31:0x80009f40  x1=0x80009f41
       28585000	      2857	80000dcc	007dde93	srli	x29,x27,0x7	 x27:0x85ad2001 x29=0x010b5a40
       28595000	      2858	80000dd0	00f046b3	xor	x13,x0,x15	  x0:0x00000000 x15:0xffffffcf x13=0xffffffcf
       28605000	      2859	80000dd4	013f13b3	sll	x7,x30,x19	 x30:0x85ad2000 x19:0x00000001  x7=0x0b5a4000
       28615000	      2860	80000dd8	7f73e897	auipc	x17,0x7f73e	 x17=0xff73edd4
       28625000	      2861	80000ddc	015d0333	add	x6,x26,x21	 x26:0x00000311 x21:0x00000590  x6=0x000008a1
       28635000	      2862	80000de0	00000013	addi	x0,x0,0	  x0:0x00000000
       28645000	      2863	80000de4	019189b3	add	x19,x3,x25	  x3:0x00000000 x25:0xc0675dac x19=0xc0675dac
       28655000	      2864	80000de8	eb62a393	slti	x7,x5,-330	  x5:0xe829ff7c  x7=0x00000001
       28665000	      2865	80000dec	00001197	auipc	x3,0x1	  x3=0x80001de8
       28675000	      2866	80000df0	ad018193	addi	x3,x3,-1328	  x3:0x80001de8  x3=0x800018b8
       28685000	      2867	80000df4	e79d4993	xori	x19,x26,-391	 x26:0x00000311 x19=0xfffffd68
       28695000	      2868	80000df8	3f718193	addi	x3,x3,1015	  x3:0x800018b8  x3=0x80001caf
       28705000	      2869	80000dfc	01a7d5b3	srl	x11,x15,x26	 x15:0xffffffcf x26:0x00000311 x11=0x00007fff
       28715000	      2870	80000e00	282ef613	andi	x12,x29,642	 x29:0x010b5a40 x12=0x00000200
       28725000	      2871	80000e04	c09182e7	jalr	x5,x3,-1015	  x3:0x80001caf  x5=0x80000e04
       28735000	      2872	00000000	00000013	addi	x0,x0,0	  x0:0x00000000
       28745000	      2873	800018b8	00000013	addi	x0,x0,0	  x0:0x00000000
       28755000	      2874	800018bc	40ee5d33	sra	x26,x28,x14	 x28:0x00000001 x14:0x80009fc4 x26=0x00000000
       28765000	      2875	800018c0	008c9463	bne	x25,x8,800018c8	 x25:0xc0675dac  x8:0x00000000
       28775000	      2876	00000000	00000013	addi	x0,x0,0	  x0:0x00000000
       28785000	      2877	800018c4	00000013	addi	x0,x0,0	  x0:0x00000000
       28795000	      2878	800018c8	fd4f8f93	addi	x31,x31,-44	 x31:0x80009f40 x31=0x80009f14
       28805000	      2879	800018cc	28ebcd93	xori	x27,x23,654	 x23:0x0c634cb8 x27=0x0c634e36
       28815000	      2880	800018d0	895ad9b7	lui	x19,0x895ad	 x19=0x895ad000
       28825000	      2881	800018d4	00cb7cb3	and	x25,x22,x12	 x22:0x0000a6ee x12:0x00000200 x25=0x00000200
       28835000	      2882	800018d8	005fa223	sw	x5,4(x31)	 x31:0x80009f14  x5:0x80000e04 PA:0x80009f18
       28845000	      2883	800018dc	01e75693	srli	x13,x14,0x1e	 x14:0x80009fc4 x13=0x00000002
       28855000	      2884	800018e0	01eb71b3	and	x3,x22,x30	 x22:0x0000a6ee x30:0x85ad2000  x3=0x00002000
       28865000	      2885	800018e4	54f0ca93	xori	x21,x1,1359	  x1:0x80009f41 x21=0x80009a0e
       28875000	      2886	800018e8	00e394b3	sll	x9,x7,x14	  x7:0x00000001 x14:0x80009fc4  x9=0x00000010
       28885000	      2887	800018ec	41045493	srai	x9,x8,0x10	  x8:0x00000000  x9=0x00000000
       28895000	      2888	800018f0	0156dc13	srli	x24,x13,0x15	 x13:0x00000002 x24=0x00000000
       28905000	      2889	800018f4	00000013	addi	x0,x0,0	  x0:0x00000000
       28915000	      2890	800018f8	00aedb33	srl	x22,x29,x10	 x29:0x010b5a40 x10:0x00000001 x22=0x0085ad20
       28925000	      2891	800018fc	007105b3	add	x11,x2,x7	  x2:0xa4e9ad2a  x7:0x00000001 x11=0xa4e9ad2b
       28935000	      2892	80001900	005a4e33	xor	x28,x20,x5	 x20:0xe4e90541  x5:0x80000e04 x28=0x64e90b45
       28945000	      2893	80001904	00000013	addi	x0,x0,0	  x0:0x00000000
       28955000	      2894	80001908	52564793	xori	x15,x12,1317	 x12:0x00000200 x15=0x00000725
       28965000	      2895	8000190c	2a4002ef	jal	x5,8000190c	  x5=0x8000190c
       28975000	      2896	00000000	00000013	addi	x0,x0,0	  x0:0x00000000
       28985000	      2897	80001bac	00000013	addi	x0,x0,0	  x0:0x00000000
       28995000	      2898	80001bb0	00012133	slt	x2,x2,x0	  x2:0xa4e9ad2a  x0:0x00000000  x2=0x00000001
       29005000	      2899	80001bb4	00f6d463	bge	x13,x15,80001bbc	 x13:0x00000002 x15:0x00000725
       29015000	      2900	80001bb8	0182c7b3	xor	x15,x5,x24	  x5:0x8000190c x24:0x00000000 x15=0x8000190c
       29025000	      2901	80001bbc	fe4f8f93	addi	x31,x31,-28	 x31:0x80009f14 x31=0x80009ef8
       29035000	      2902	80001bc0	78c46113	ori	x2,x8,1932	  x8:0x00000000  x2=0x0000078c
       29045000	      2903	80001bc4	01a49613	slli	x12,x9,0x1a	  x9:0x00000000 x12=0x00000000
       29055000	      2904	80001bc8	00d6dd33	srl	x26,x13,x13	 x13:0x00000002 x13:0x00000002 x26=0x00000000
       29065000	      2905	80001bcc	003ebdb3	sltu	x27,x29,x3	 x29:0x010b5a40  x3:0x00002000 x27=0x00000000
       29075000	      2906	80001bd0	005fa223	sw	x5,4(x31)	 x31:0x80009ef8  x5:0x8000190c PA:0x80009efc
       29085000	      2907	80001bd4	925ace93	xori	x29,x21,-1755	 x21:0x80009a0e x29=0x7fff632b
       29095000	      2908	80001bd8	7041b813	sltiu	x16,x3,1796	  x3:0x00002000 x16=0x00000000
       29105000	      2909	80001bdc	008b44b3	xor	x9,x22,x8	 x22:0x0085ad20  x8:0x00000000  x9=0x0085ad20
       29115000	      2910	80001be0	00007b97	auipc	x23,0x7	 x23=0x80008bdc
       29125000	      2911	80001be4	406b8b93	addi	x23,x23,1030	 x23:0x80008bdc x23=0x80008fe2
       29135000	      2912	80001be8	01dfb433	sltu	x8,x31,x29	 x31:0x80009ef8 x29:0x7fff632b  x8=0x00000000
       29145000	      2913	80001bec	00a718b3	sll	x17,x14,x10	 x14:0x80009fc4 x10:0x00000001 x17=0x00013f88
       29155000	      2914	80001bf0	fcdb8783	lb	x15,-51(x23)	 x23:0x80008fe2 x15=0x00000062 PA:0x80008faf
       29165000	      2915	80001bf4	21f2a893	slti	x17,x5,543	  x5:0x8000190c x17=0x00000001
       29175000	      2916	80001bf8	01cf8133	add	x2,x31,x28	 x31:0x80009ef8 x28:0x64e90b45  x2=0xe4e9aa3d
       29185000	      2917	80001bfc	500ff693	andi	x13,x31,1280	 x31:0x80009ef8 x13=0x00000400
       29195000	      2918	80001c00	006a1913	slli	x18,x20,0x6	 x20:0xe4e90541 x18=0x3a415040
       29205000	      2919	80001c04	00c7ccb3	xor	x25,x15,x12	 x15:0x00000062 x12:0x00000000 x25=0x00000062
       29215000	      2920	80001c08	f3cb8f03	lb	x30,-196(x23)	 x23:0x80008fe2 x30=0x0000002f PA:0x80008f1e
       29225000	      2921	80001c0c	f2abad83	lw	x27,-214(x23)	 x23:0x80008fe2 x27=0x0001f476 PA:0x80008f0c
       29235000	      2922	80001c10	fd0ba123	sw	x16,-62(x23)	 x23:0x80008fe2 x16:0x00000000 PA:0x80008fa4
       29245000	      2923	80001c14	0164eab3	or	x21,x9,x22	  x9:0x0085ad20 x22:0x0085ad20 x21=0x0085ad20
       29255000	      2924	80001c18	40168833	sub	x16,x13,x1	 x13:0x00000400  x1:0x80009f41 x16=0x7fff64bf
       29265000	      2925	80001c1c	005099b3	sll	x19,x1,x5	  x1:0x80009f41  x5:0x8000190c x19=0x09f41000
       29275000	      2926	80001c20	f91b8a23	sb	x17,-108(x23)	 x23:0x80008fe2 x17:0x00000001 PA:0x80008f76
       29285000	      2927	80001c24	402cd033	sra	x0,x25,x2	 x25:0x00000062  x2:0xe4e9aa3d
       29295000	      2928	80001c28	01f2e633	or	x12,x5,x31	  x5:0x8000190c x31:0x80009ef8 x12=0x80009ffc
       29305000	      2929	80001c2c	bf7e3913	sltiu	x18,x28,-1033	 x28:0x64e90b45 x18=0x00000001
       29315000	      2930	80001c30	de03e613	ori	x12,x7,-544	  x7:0x00000001 x12=0xfffffde1
       29325000	      2931	80001c34	0006ceb3	xor	x29,x13,x0	 x13:0x00000400  x0:0x00000000 x29=0x00000400
       29335000	      2932	80001c38	f4cbc903	lbu	x18,-180(x23)	 x23:0x80008fe2 x18=0x0000009c PA:0x80008f2e
       29345000	      2933	80001c3c	40e7d333	sra	x6,x15,x14	 x15:0x00000062 x14:0x80009fc4  x6=0x00000006
       29355000	      2934	80001c40	41385eb3	sra	x29,x16,x19	 x16:0x7fff64bf x19:0x09f41000 x29=0x7fff64bf
       29365000	      2935	80001c44	f40b9523	sh	x0,-182(x23)	 x23:0x80008fe2  x0:0x00000000 PA:0x80008f2c
       29375000	      2936	80001c48	fd9b83a3	sb	x25,-57(x23)	 x23:0x80008fe2 x25:0x00000062 PA:0x80008fa9
       29385000	      2937	80001c4c	f80ba323	sw	x0,-122(x23)	 x23:0x80008fe2  x0:0x00000000 PA:0x80008f68
       29395000	      2938	80001c50	e098f797	auipc	x15,0xe098f	 x15=0x60990c4c
       29405000	      2939	80001c54	f22b8b03	lb	x22,-222(x23)	 x23:0x80008fe2 x22=0x0000000c PA:0x80008f04
       29415000	      2940	80001c58	f15bc683	lbu	x13,-235(x23)	 x23:0x80008fe2 x13=0x000000de PA:0x80008ef7
       29425000	      2941	80001c5c	fdab81a3	sb	x26,-61(x23)	 x23:0x80008fe2 x26:0x00000000 PA:0x80008fa5
       29435000	      2942	80001c60	e099bc93	sltiu	x25,x19,-503	 x19:0x09f41000 x25=0x00000001
       29445000	      2943	80001c64	fcdb8c03	lb	x24,-51(x23)	 x23:0x80008fe2 x24=0x00000062 PA:0x80008faf
       29455000	      2944	80001c68	03452513	slti	x10,x10,52	 x10:0x00000001 x10=0x00000001
       29465000	      2945	80001c6c	fa1b82a3	sb	x1,-91(x23)	 x23:0x80008fe2  x1:0x80009f41 PA:0x80008f87
       29475000	      2946	80001c70	f31b8203	lb	x4,-207(x23)	 x23:0x80008fe2  x4=0x00000031 PA:0x80008f13
       29485000	      2947	80001c74	018a96b3	sll	x13,x21,x24	 x21:0x0085ad20 x24:0x00000062 x13=0x0216b480
       29495000	      2948	80001c78	f68b8923	sb	x8,-142(x23)	 x23:0x80008fe2  x8:0x00000000 PA:0x80008f54
       29505000	      2949	80001c7c	41825f13	srai	x30,x4,0x18	  x4:0x00000031 x30=0x00000000
       29515000	      2950	80001c80	000d1f13	slli	x30,x26,0x0	 x26:0x00000000 x30=0x00000000
       29525000	      2951	80001c84	40cfc213	xori	x4,x31,1036	 x31:0x80009ef8  x4=0x80009af4
       29535000	      2952	80001c88	40065d93	srai	x27,x12,0x0	 x12:0xfffffde1 x27=0xfffffde1
       29545000	      2953	80001c8c	41635333	sra	x6,x6,x22	  x6:0x00000006 x22:0x0000000c  x6=0x00000000
       29555000	      2954	80001c90	f84bd803	lhu	x16,-124(x23)	 x23:0x80008fe2 x16=0x00006e24 PA:0x80008f66
       29565000	      2955	80001c94	00006117	auipc	x2,0x6	  x2=0x80007c90
       29575000	      2956	80001c98	58810113	addi	x2,x2,1416	  x2:0x80007c90  x2=0x80008218
       29585000	      2957	80001c9c	fd110aa3	sb	x17,-43(x2)	  x2:0x80008218 x17:0x00000001 PA:0x800081ed
       29595000	      2958	80001ca0	037108a3	sb	x23,49(x2)	  x2:0x80008218 x23:0x80008fe2 PA:0x80008249
       29605000	      2959	80001ca4	fd310903	lb	x18,-45(x2)	  x2:0x80008218 x18=0x0000003f PA:0x800081eb
       29615000	      2960	80001ca8	9b99ac13	slti	x24,x19,-1607	 x19:0x09f41000 x24=0x00000000
       29625000	      2961	80001cac	fd714a83	lbu	x21,-41(x2)	  x2:0x80008218 x21=0x000000f4 PA:0x800081ef
       29635000	      2962	80001cb0	03b10523	sb	x27,42(x2)	  x2:0x80008218 x27:0xfffffde1 PA:0x80008242
       29645000	      2963	80001cb4	02012483	lw	x9,32(x2)	  x2:0x80008218  x9=0x89d6fe60 PA:0x80008238
       29655000	      2964	80001cb8	41e059b3	sra	x19,x0,x30	  x0:0x00000000 x30:0x00000000 x19=0x00000000
       29665000	      2965	80001cbc	4062d993	srai	x19,x5,0x6	  x5:0x8000190c x19=0xfe000064
       29675000	      2966	80001cc0	fda10723	sb	x26,-50(x2)	  x2:0x80008218 x26:0x00000000 PA:0x800081e6
       29685000	      2967	80001cc4	94d62497	auipc	x9,0x94d62	  x9=0x14d63cc0
       29695000	      2968	80001cc8	a0298db7	lui	x27,0xa0298	 x27=0xa0298000
       29705000	      2969	80001ccc	40060933	sub	x18,x12,x0	 x12:0xfffffde1  x0:0x00000000 x18=0xfffffde1
       29715000	      2970	80001cd0	40be50b3	sra	x1,x28,x11	 x28:0x64e90b45 x11:0xa4e9ad2b  x1=0x000c9d21
       29725000	      2971	80001cd4	a4027c93	andi	x25,x4,-1472	  x4:0x80009af4 x25=0x80009a40
       29735000	      2972	80001cd8	03e15e03	lhu	x28,62(x2)	  x2:0x80008218 x28=0x0000000c PA:0x80008256
       29745000	      2973	80001cdc	fe0102a3	sb	x0,-27(x2)	  x2:0x80008218  x0:0x00000000 PA:0x800081fd
       29755000	      2974	80001ce0	41e45793	srai	x15,x8,0x1e	  x8:0x00000000 x15=0x00000000
       29765000	      2975	80001ce4	ff812203	lw	x4,-8(x2)	  x2:0x80008218  x4=0xc2701a21 PA:0x80008210
       29775000	      2976	80001ce8	3f5c4813	xori	x16,x24,1013	 x24:0x00000000 x16=0x000003f5
       29785000	      2977	80001cec	00000013	addi	x0,x0,0	  x0:0x00000000
       29795000	      2978	80001cf0	9223e7b7	lui	x15,0x9223e	 x15=0x9223e000
       29805000	      2979	80001cf4	ff2108a3	sb	x18,-15(x2)	  x2:0x80008218 x18:0xfffffde1 PA:0x80008209
       29815000	      2980	80001cf8	2b8b5c37	lui	x24,0x2b8b5	 x24=0x2b8b5000
       29825000	      2981	80001cfc	957fbe13	sltiu	x28,x31,-1705	 x31:0x80009ef8 x28=0x00000001
       29835000	      2982	80001d00	415b56b3	sra	x13,x22,x21	 x22:0x0000000c x21:0x000000f4 x13=0x00000000
       29845000	      2983	80001d04	fff10d83	lb	x27,-1(x2)	  x2:0x80008218 x27=0x00000060 PA:0x80008217
       29855000	      2984	80001d08	feb106a3	sb	x11,-19(x2)	  x2:0x80008218 x11:0xa4e9ad2b PA:0x80008205
       29865000	      2985	80001d0c	00000013	addi	x0,x0,0	  x0:0x00000000
       29875000	      2986	80001d10	ffc14583	lbu	x11,-4(x2)	  x2:0x80008218 x11=0x000000c6 PA:0x80008214
       29885000	      2987	80001d14	fc310183	lb	x3,-61(x2)	  x2:0x80008218  x3=0xffffffff PA:0x800081db
       29895000	      2988	80001d18	ff214783	lbu	x15,-14(x2)	  x2:0x80008218 x15=0x00000047 PA:0x8000820a
       29905000	      2989	80001d1c	00b2edb3	or	x27,x5,x11	  x5:0x8000190c x11:0x000000c6 x27=0x800019ce
       29915000	      2990	80001d20	01b10b83	lb	x23,27(x2)	  x2:0x80008218 x23=0xffffff99 PA:0x80008233
       29925000	      2991	80001d24	fe415a83	lhu	x21,-28(x2)	  x2:0x80008218 x21=0x000000de PA:0x800081fc
       29935000	      2992	80001d28	02910883	lb	x17,41(x2)	  x2:0x80008218 x17=0x00000051 PA:0x80008241
       29945000	      2993	80001d2c	0139bd33	sltu	x26,x19,x19	 x19:0xfe000064 x19:0xfe000064 x26=0x00000000
       29955000	      2994	80001d30	005971b3	and	x3,x18,x5	 x18:0xfffffde1  x5:0x8000190c  x3=0x80001900
       29965000	      2995	80001d34	01814483	lbu	x9,24(x2)	  x2:0x80008218  x9=0x000000d5 PA:0x80008230
       29975000	      2996	80001d38	03811183	lh	x3,56(x2)	  x2:0x80008218  x3=0xffffedfb PA:0x80008250
       29985000	      2997	80001d3c	fe610e03	lb	x28,-26(x2)	  x2:0x80008218 x28=0x0000002d PA:0x800081fe
       29995000	      2998	80001d40	00006197	auipc	x3,0x6	  x3=0x80007d3c
       30005000	      2999	80001d44	36618193	addi	x3,x3,870	  x3:0x80007d3c  x3=0x800080a2
       30015000	      3000	80001d48	01697933	and	x18,x18,x22	 x18:0xfffffde1 x22:0x0000000c x18=0x00000000
       30025000	      3001	80001d4c	0ddae093	ori	x1,x21,221	 x21:0x000000de  x1=0x000000df
       30035000	      3002	80001d50	21018b23	sb	x16,534(x3)	  x3:0x800080a2 x16:0x000003f5 PA:0x800082b8
       30045000	      3003	80001d54	02e44097	auipc	x1,0x2e44	  x1=0x82e45d50
       30055000	      3004	80001d58	40770b33	sub	x22,x14,x7	 x14:0x80009fc4  x7:0x00000001 x22=0x80009fc3
       30065000	      3005	80001d5c	00b4e0b3	or	x1,x9,x11	  x9:0x000000d5 x11:0x000000c6  x1=0x000000d7
       30075000	      3006	80001d60	0132d313	srli	x6,x5,0x13	  x5:0x8000190c  x6=0x00001000
       30085000	      3007	80001d64	00000013	addi	x0,x0,0	  x0:0x00000000
       30095000	      3008	80001d68	0114d213	srli	x4,x9,0x11	  x9:0x000000d5  x4=0x00000000
       30105000	      3009	80001d6c	9c1cab13	slti	x22,x25,-1599	 x25:0x80009a40 x22=0x00000001
       30115000	      3010	80001d70	17b20813	addi	x16,x4,379	  x4:0x00000000 x16=0x0000017b
       30125000	      3011	80001d74	12618aa3	sb	x6,309(x3)	  x3:0x800080a2  x6:0x00001000 PA:0x800081d7
       30135000	      3012	80001d78	5d019283	lh	x5,1488(x3)	  x3:0x800080a2  x5=0xffffef3d PA:0x80008672
       30145000	      3013	80001d7c	01ae84b3	add	x9,x29,x26	 x29:0x7fff64bf x26:0x00000000  x9=0x7fff64bf
       30155000	      3014	80001d80	f8a83413	sltiu	x8,x16,-118	 x16:0x0000017b  x8=0x00000001
       30165000	      3015	80001d84	e6d38d93	addi	x27,x7,-403	  x7:0x00000001 x27=0xfffffe6e
       30175000	      3016	80001d88	10e1d803	lhu	x16,270(x3)	  x3:0x800080a2 x16=0x00004138 PA:0x800081b0
       30185000	      3017	80001d8c	fda182a3	sb	x26,-59(x3)	  x3:0x800080a2 x26:0x00000000 PA:0x80008067
       30195000	      3018	80001d90	015d0933	add	x18,x26,x21	 x26:0x00000000 x21:0x000000de x18=0x000000de
       30205000	      3019	80001d94	5071c683	lbu	x13,1287(x3)	  x3:0x800080a2 x13=0x000000ff PA:0x800085a9
       30215000	      3020	80001d98	0159f233	and	x4,x19,x21	 x19:0xfe000064 x21:0x000000de  x4=0x00000044
       30225000	      3021	80001d9c	83a65337	lui	x6,0x83a65	  x6=0x83a65000
       30235000	      3022	80001da0	05318783	lb	x15,83(x3)	  x3:0x800080a2 x15=0x0000004f PA:0x800080f5
       30245000	      3023	80001da4	9d52f513	andi	x10,x5,-1579	  x5:0xffffef3d x10=0xffffe915
       30255000	      3024	80001da8	4c386493	ori	x9,x16,1219	 x16:0x00004138  x9=0x000045fb
       30265000	      3025	80001dac	4bf1cd83	lbu	x27,1215(x3)	  x3:0x800080a2 x27=0x00000052 PA:0x80008561
       30275000	      3026	80001db0	40d187a3	sb	x13,1039(x3)	  x3:0x800080a2 x13:0x000000ff PA:0x800084b1
       30285000	      3027	80001db4	6760a693	slti	x13,x1,1654	  x1:0x000000d7 x13=0x00000001
       30295000	      3028	80001db8	00000013	addi	x0,x0,0	  x0:0x00000000
       30305000	      3029	80001dbc	34a18203	lb	x4,842(x3)	  x3:0x800080a2  x4=0x00000022 PA:0x800083ec
       30315000	      3030	80001dc0	00706833	or	x16,x0,x7	  x0:0x00000000  x7:0x00000001 x16=0x00000001
       30325000	      3031	80001dc4	0026c0b3	xor	x1,x13,x2	 x13:0x00000001  x2:0x80008218  x1=0x80008219
       30335000	      3032	80001dc8	01eb1333	sll	x6,x22,x30	 x22:0x00000001 x30:0x00000000  x6=0x00000001
       30345000	      3033	80001dcc	46018ba3	sb	x0,1143(x3)	  x3:0x800080a2  x0:0x00000000 PA:0x80008519
       30355000	      3034	80001dd0	509d8313	addi	x6,x27,1289	 x27:0x00000052  x6=0x0000055b
       30365000	      3035	80001dd4	30a1ac03	lw	x24,778(x3)	  x3:0x800080a2 x24=0x321d4c87 PA:0x800083ac
       30375000	      3036	80001dd8	00007117	auipc	x2,0x7	  x2=0x80008dd4
       30385000	      3037	80001ddc	d3e10113	addi	x2,x2,-706	  x2:0x80008dd4  x2=0x80008b12
       30395000	      3038	80001de0	f5c10823	sb	x28,-176(x2)	  x2:0x80008b12 x28:0x0000002d PA:0x80008a62
       30405000	      3039	80001de4	713ce793	ori	x15,x25,1811	 x25:0x80009a40 x15=0x80009f53
       30415000	      3040	80001de8	0fe15f03	lhu	x30,254(x2)	  x2:0x80008b12 x30=0x000086c4 PA:0x80008c10
       30425000	      3041	80001dec	4124d333	sra	x6,x9,x18	  x9:0x000045fb x18:0x000000de  x6=0x00000000
       30435000	      3042	80001df0	0d27e793	ori	x15,x15,210	 x15:0x80009f53 x15=0x80009fd3
       30445000	      3043	80001df4	d70d8013	addi	x0,x27,-656	 x27:0x00000052
       30455000	      3044	80001df8	fae15e83	lhu	x29,-82(x2)	  x2:0x80008b12 x29=0x0000ab6f PA:0x80008ac0
       30465000	      3045	80001dfc	02215083	lhu	x1,34(x2)	  x2:0x80008b12  x1=0x00006ea1 PA:0x80008b34
       30475000	      3046	80001e00	f5a11983	lh	x19,-166(x2)	  x2:0x80008b12 x19=0x00003497 PA:0x80008a6c
       30485000	      3047	80001e04	73f64e93	xori	x29,x12,1855	 x12:0xfffffde1 x29=0xfffffade
       30495000	      3048	80001e08	01ecd933	srl	x18,x25,x30	 x25:0x80009a40 x30:0x000086c4 x18=0x080009a4
       30505000	      3049	80001e0c	010fc333	xor	x6,x31,x16	 x31:0x80009ef8 x16:0x00000001  x6=0x80009ef9
       30515000	      3050	80001e10	0022a633	slt	x12,x5,x2	  x5:0xffffef3d  x2:0x80008b12 x12=0x00000000
       30525000	      3051	80001e14	f4c10223	sb	x12,-188(x2)	  x2:0x80008b12 x12:0x00000000 PA:0x80008a56
       30535000	      3052	80001e18	f1b10403	lb	x8,-229(x2)	  x2:0x80008b12  x8=0x0000001d PA:0x80008a2d
       30545000	      3053	80001e1c	01c84833	xor	x16,x16,x28	 x16:0x00000001 x28:0x0000002d x16=0x0000002c
       30555000	      3054	80001e20	41195ab3	sra	x21,x18,x17	 x18:0x080009a4 x17:0x00000051 x21=0x00000400
       30565000	      3055	80001e24	d7688097	auipc	x1,0xd7688	  x1=0x57689e20
       30575000	      3056	80001e28	dab72893	slti	x17,x14,-597	 x14:0x80009fc4 x17=0x00000001
       30585000	      3057	80001e2c	fec11203	lh	x4,-20(x2)	  x2:0x80008b12  x4=0xffff815e PA:0x80008afe
       30595000	      3058	80001e30	00a50333	add	x6,x10,x10	 x10:0xffffe915 x10:0xffffe915  x6=0xffffd22a
       30605000	      3059	80001e34	f1110c83	lb	x25,-239(x2)	  x2:0x80008b12 x25=0xffffff85 PA:0x80008a23
       30615000	      3060	80001e38	00c08b33	add	x22,x1,x12	  x1:0x57689e20 x12:0x00000000 x22=0x57689e20
       30625000	      3061	80001e3c	00000013	addi	x0,x0,0	  x0:0x00000000
       30635000	      3062	80001e40	0b910fa3	sb	x25,191(x2)	  x2:0x80008b12 x25:0xffffff85 PA:0x80008bd1
       30645000	      3063	80001e44	f4f10203	lb	x4,-177(x2)	  x2:0x80008b12  x4=0xffffffc3 PA:0x80008a61
       30655000	      3064	80001e48	05b14503	lbu	x10,91(x2)	  x2:0x80008b12 x10=0x0000000c PA:0x80008b6d
       30665000	      3065	80001e4c	01a73d33	sltu	x26,x14,x26	 x14:0x80009fc4 x26:0x00000000 x26=0x00000000
       30675000	      3066	80001e50	fa011e03	lh	x28,-96(x2)	  x2:0x80008b12 x28=0xffff9175 PA:0x80008ab2
       30685000	      3067	80001e54	0f7108a3	sb	x23,241(x2)	  x2:0x80008b12 x23:0xffffff99 PA:0x80008c03
       30695000	      3068	80001e58	0087c2b3	xor	x5,x15,x8	 x15:0x80009fd3  x8:0x0000001d  x5=0x80009fce
       30705000	      3069	80001e5c	0174c3b3	xor	x7,x9,x23	  x9:0x000045fb x23:0xffffff99  x7=0xffffba62
       30715000	      3070	80001e60	b2e82413	slti	x8,x16,-1234	 x16:0x0000002c  x8=0x00000000
       30725000	      3071	80001e64	10510023	sb	x5,256(x2)	  x2:0x80008b12  x5:0x80009fce PA:0x80008c12
       30735000	      3072	80001e68	41c38eb3	sub	x29,x7,x28	  x7:0xffffba62 x28:0xffff9175 x29=0x000028ed
       30745000	      3073	80001e6c	002bdb93	srli	x23,x23,0x2	 x23:0xffffff99 x23=0x3fffffe6
       30755000	      3074	80001e70	01af39b3	sltu	x19,x30,x26	 x30:0x000086c4 x26:0x00000000 x19=0x00000000
       30765000	      3075	80001e74	f3c108a3	sb	x28,-207(x2)	  x2:0x80008b12 x28:0xffff9175 PA:0x80008a43
       30775000	      3076	80001e78	00007a97	auipc	x21,0x7	 x21=0x80008e74
       30785000	      3077	80001e7c	e80a8a93	addi	x21,x21,-384	 x21:0x80008e74 x21=0x80008cf4
       30795000	      3078	80001e80	03fac003	lbu	x0,63(x21)	 x21:0x80008cf4 PA:0x80008d33
       30805000	      3079	80001e84	22fdb593	sltiu	x11,x27,559	 x27:0x00000052 x11=0x00000001
       30815000	      3080	80001e88	fe1a8aa3	sb	x1,-11(x21)	 x21:0x80008cf4  x1:0x57689e20 PA:0x80008ce9
       30825000	      3081	80001e8c	409451b3	sra	x3,x8,x9	  x8:0x00000000  x9:0x000045fb  x3=0x00000000
       30835000	      3082	80001e90	fc1ace03	lbu	x28,-63(x21)	 x21:0x80008cf4 x28=0x000000a3 PA:0x80008cb5
       30845000	      3083	80001e94	00da8883	lb	x17,13(x21)	 x21:0x80008cf4 x17=0x00000020 PA:0x80008d01
       30855000	      3084	80001e98	00bc1593	slli	x11,x24,0xb	 x24:0x321d4c87 x11=0xea643800
       30865000	      3085	80001e9c	fcca8103	lb	x2,-52(x21)	 x21:0x80008cf4  x2=0x0000007a PA:0x80008cc0
       30875000	      3086	80001ea0	01560933	add	x18,x12,x21	 x12:0x00000000 x21:0x80008cf4 x18=0x80008cf4
       30885000	      3087	80001ea4	426d6113	ori	x2,x26,1062	 x26:0x00000000  x2=0x00000426
       30895000	      3088	80001ea8	0040b5b3	sltu	x11,x1,x4	  x1:0x57689e20  x4:0xffffffc3 x11=0x00000001
       30905000	      3089	80001eac	4187dd33	sra	x26,x15,x24	 x15:0x80009fd3 x24:0x321d4c87 x26=0xff00013f
       30915000	      3090	80001eb0	fefacb03	lbu	x22,-17(x21)	 x21:0x80008cf4 x22=0x0000005a PA:0x80008ce3
       30925000	      3091	80001eb4	01affc33	and	x24,x31,x26	 x31:0x80009ef8 x26:0xff00013f x24=0x80000038
       30935000	      3092	80001eb8	fc6a85a3	sb	x6,-53(x21)	 x21:0x80008cf4  x6:0xffffd22a PA:0x80008cbf
       30945000	      3093	80001ebc	fcca8503	lb	x10,-52(x21)	 x21:0x80008cf4 x10=0x0000007a PA:0x80008cc0
       30955000	      3094	80001ec0	01dacb83	lbu	x23,29(x21)	 x21:0x80008cf4 x23=0x000000be PA:0x80008d11
       30965000	      3095	80001ec4	fd3a88a3	sb	x19,-47(x21)	 x21:0x80008cf4 x19:0x00000000 PA:0x80008cc5
       30975000	      3096	80001ec8	026a88a3	sb	x6,49(x21)	 x21:0x80008cf4  x6:0xffffd22a PA:0x80008d25
       30985000	      3097	80001ecc	00dacd83	lbu	x27,13(x21)	 x21:0x80008cf4 x27=0x00000020 PA:0x80008d01
       30995000	      3098	80001ed0	002801b3	add	x3,x16,x2	 x16:0x0000002c  x2:0x00000426  x3=0x00000452
       31005000	      3099	80001ed4	01d64f33	xor	x30,x12,x29	 x12:0x00000000 x29:0x000028ed x30=0x000028ed
       31015000	      3100	80001ed8	018a86a3	sb	x24,13(x21)	 x21:0x80008cf4 x24:0x80000038 PA:0x80008d01
       31025000	      3101	80001edc	000aa083	lw	x1,0(x21)	 x21:0x80008cf4  x1=0x4db73d7a PA:0x80008cf4
       31035000	      3102	80001ee0	fc5a8b03	lb	x22,-59(x21)	 x21:0x80008cf4 x22=0xffffffb4 PA:0x80008cb9
       31045000	      3103	80001ee4	038a87a3	sb	x24,47(x21)	 x21:0x80008cf4 x24:0x80000038 PA:0x80008d23
       31055000	      3104	80001ee8	01eac483	lbu	x9,30(x21)	 x21:0x80008cf4  x9=0x000000d2 PA:0x80008d12
       31065000	      3105	80001eec	00007117	auipc	x2,0x7	  x2=0x80008ee8
       31075000	      3106	80001ef0	eff10113	addi	x2,x2,-257	  x2:0x80008ee8  x2=0x80008de7
       31085000	      3107	80001ef4	41035793	srai	x15,x6,0x10	  x6:0xffffd22a x15=0xffffffff
       31095000	      3108	80001ef8	15e14383	lbu	x7,350(x2)	  x2:0x80008de7  x7=0x000000cc PA:0x80008f45
       31105000	      3109	80001efc	eb010623	sb	x16,-340(x2)	  x2:0x80008de7 x16:0x0000002c PA:0x80008c93
       31115000	      3110	80001f00	410e5b13	srai	x22,x28,0x10	 x28:0x000000a3 x22=0x00000000
       31125000	      3111	80001f04	ac810f23	sb	x8,-1314(x2)	  x2:0x80008de7  x8:0x00000000 PA:0x800088c5
       31135000	      3112	80001f08	005748b3	xor	x17,x14,x5	 x14:0x80009fc4  x5:0x80009fce x17=0x0000000a
       31145000	      3113	80001f0c	e5915983	lhu	x19,-423(x2)	  x2:0x80008de7 x19=0x0000c984 PA:0x80008c40
       31155000	      3114	80001f10	ddb10883	lb	x17,-549(x2)	  x2:0x80008de7 x17=0x00000031 PA:0x80008bc2
       31165000	      3115	80001f14	00d2f333	and	x6,x5,x13	  x5:0x80009fce x13:0x00000001  x6=0x00000000
       31175000	      3116	80001f18	78db30b7	lui	x1,0x78db3	  x1=0x78db3000
       31185000	      3117	80001f1c	402dd9b3	sra	x19,x27,x2	 x27:0x00000020  x2:0x80008de7 x19=0x00000000
       31195000	      3118	80001f20	dea10083	lb	x1,-534(x2)	  x2:0x80008de7  x1=0xffffff85 PA:0x80008bd1
       31205000	      3119	80001f24	d5910da3	sb	x25,-677(x2)	  x2:0x80008de7 x25:0xffffff85 PA:0x80008b42
       31215000	      3120	80001f28	015e23b3	slt	x7,x28,x21	 x28:0x000000a3 x21:0x80008cf4  x7=0x00000000
       31225000	      3121	80001f2c	d8c14503	lbu	x10,-628(x2)	  x2:0x80008de7 x10=0x0000006a PA:0x80008b73
       31235000	      3122	80001f30	c7610383	lb	x7,-906(x2)	  x2:0x80008de7  x7=0xffffffcf PA:0x80008a5d
       31245000	      3123	80001f34	0182f533	and	x10,x5,x24	  x5:0x80009fce x24:0x80000038 x10=0x80000008
       31255000	      3124	80001f38	00cebcb3	sltu	x25,x29,x12	 x29:0x000028ed x12:0x00000000 x25=0x00000000
       31265000	      3125	80001f3c	014c14b3	sll	x9,x24,x20	 x24:0x80000038 x20:0xe4e90541  x9=0x00000070
       31275000	      3126	80001f40	0079a4b3	slt	x9,x19,x7	 x19:0x00000000  x7:0xffffffcf  x9=0x00000000
       31285000	      3127	80001f44	03e100a3	sb	x30,33(x2)	  x2:0x80008de7 x30:0x000028ed PA:0x80008e08
       31295000	      3128	80001f48	401c5033	sra	x0,x24,x1	 x24:0x80000038  x1:0xffffff85
       31305000	      3129	80001f4c	00df19b3	sll	x19,x30,x13	 x30:0x000028ed x13:0x00000001 x19=0x000051da
       31315000	      3130	80001f50	001adb33	srl	x22,x21,x1	 x21:0x80008cf4  x1:0xffffff85 x22=0x04000467
       31325000	      3131	80001f54	c8f15903	lhu	x18,-881(x2)	  x2:0x80008de7 x18=0x000018b3 PA:0x80008a76
       31335000	      3132	80001f58	0c810383	lb	x7,200(x2)	  x2:0x80008de7  x7=0x00000040 PA:0x80008eaf
       31345000	      3133	80001f5c	0f610903	lb	x18,246(x2)	  x2:0x80008de7 x18=0xffffffa7 PA:0x80008edd
       31355000	      3134	80001f60	40000d33	sub	x26,x0,x0	  x0:0x00000000  x0:0x00000000 x26=0x00000000
       31365000	      3135	80001f64	40415213	srai	x4,x2,0x4	  x2:0x80008de7  x4=0xf80008de
       31375000	      3136	80001f68	a8753093	sltiu	x1,x10,-1401	 x10:0x80000008  x1=0x00000001
       31385000	      3137	80001f6c	01177b33	and	x22,x14,x17	 x14:0x80009fc4 x17:0x00000031 x22=0x00000000
       31395000	      3138	80001f70	01ae4c33	xor	x24,x28,x26	 x28:0x000000a3 x26:0x00000000 x24=0x000000a3
       31405000	      3139	80001f74	976a8793	addi	x15,x21,-1674	 x21:0x80008cf4 x15=0x8000866a
       31415000	      3140	80001f78	b7410403	lb	x8,-1164(x2)	  x2:0x80008de7  x8=0xffffffe4 PA:0x8000895b
       31425000	      3141	80001f7c	002e20b3	slt	x1,x28,x2	 x28:0x000000a3  x2:0x80008de7  x1=0x00000000
       31435000	      3142	80001f80	00491093	slli	x1,x18,0x4	 x18:0xffffffa7  x1=0xfffffa70
       31445000	      3143	80001f84	ef7a8d13	addi	x26,x21,-265	 x21:0x80008cf4 x26=0x80008beb
       31455000	      3144	80001f88	8487a493	slti	x9,x15,-1976	 x15:0x8000866a  x9=0x00000001
       31465000	      3145	80001f8c	b9f11603	lh	x12,-1121(x2)	  x2:0x80008de7 x12=0x00000e92 PA:0x80008986
       31475000	      3146	80001f90	00006097	auipc	x1,0x6	  x1=0x80007f8c
       31485000	      3147	80001f94	6db08093	addi	x1,x1,1755	  x1:0x80007f8c  x1=0x80008667
       31495000	      3148	80001f98	00308623	sb	x3,12(x1)	  x1:0x80008667  x3:0x00000452 PA:0x80008673
       31505000	      3149	80001f9c	01108423	sb	x17,8(x1)	  x1:0x80008667 x17:0x00000031 PA:0x8000866f
       31515000	      3150	80001fa0	7fc8a797	auipc	x15,0x7fc8a	 x15=0xffc8bf9c
       31525000	      3151	80001fa4	00000013	addi	x0,x0,0	  x0:0x00000000
       31535000	      3152	80001fa8	9fef8913	addi	x18,x31,-1538	 x31:0x80009ef8 x18=0x800098f6
       31545000	      3153	80001fac	bf864613	xori	x12,x12,-1032	 x12:0x00000e92 x12=0xfffff56a
       31555000	      3154	80001fb0	41958133	sub	x2,x11,x25	 x11:0x00000001 x25:0x00000000  x2=0x00000001
       31565000	      3155	80001fb4	0212bf37	lui	x30,0x212b	 x30=0x0212b000
       31575000	      3156	80001fb8	00242db3	slt	x27,x8,x2	  x8:0xffffffe4  x2:0x00000001 x27=0x00000001
       31585000	      3157	80001fbc	00afe8b3	or	x17,x31,x10	 x31:0x80009ef8 x10:0x80000008 x17=0x80009ef8
       31595000	      3158	80001fc0	3fd78217	auipc	x4,0x3fd78	  x4=0xbfd79fbc
       31605000	      3159	80001fc4	01015693	srli	x13,x2,0x10	  x2:0x00000001 x13=0x00000000
       31615000	      3160	80001fc8	015092a3	sh	x21,5(x1)	  x1:0x80008667 x21:0x80008cf4 PA:0x8000866c
       31625000	      3161	80001fcc	005edc93	srli	x25,x29,0x5	 x29:0x000028ed x25=0x00000147
       31635000	      3162	80001fd0	49ae9e17	auipc	x28,0x49ae9	 x28=0xc9aeafcc
       31645000	      3163	80001fd4	5c8d8293	addi	x5,x27,1480	 x27:0x00000001  x5=0x000005c9
       31655000	      3164	80001fd8	409ed893	srai	x17,x29,0x9	 x29:0x000028ed x17=0x00000014
       31665000	      3165	80001fdc	4125d813	srai	x16,x11,0x12	 x11:0x00000001 x16=0x00000000
       31675000	      3166	80001fe0	f74ba493	slti	x9,x23,-140	 x23:0x000000be  x9=0x00000000
       31685000	      3167	80001fe4	ffa0c503	lbu	x10,-6(x1)	  x1:0x80008667 x10=0x0000000c PA:0x80008661
       31695000	      3168	80001fe8	0100c683	lbu	x13,16(x1)	  x1:0x80008667 x13=0x000000f1 PA:0x80008677
       31705000	      3169	80001fec	00398033	add	x0,x19,x3	 x19:0x000051da  x3:0x00000452
       31715000	      3170	80001ff0	ff208483	lb	x9,-14(x1)	  x1:0x80008667  x9=0x00000029 PA:0x80008659
       31725000	      3171	80001ff4	01b88833	add	x16,x17,x27	 x17:0x00000014 x27:0x00000001 x16=0x00000015
       31735000	      3172	80001ff8	00000013	addi	x0,x0,0	  x0:0x00000000
       31745000	      3173	80001ffc	015271b3	and	x3,x4,x21	  x4:0xbfd79fbc x21:0x80008cf4  x3=0x80008cb4
       31755000	      3174	80002000	00df5b33	srl	x22,x30,x13	 x30:0x0212b000 x13:0x000000f1 x22=0x00000109
       31765000	      3175	80002004	00d0aa83	lw	x21,13(x1)	  x1:0x80008667 x21=0xf1420380 PA:0x80008674
       31775000	      3176	80002008	00f0c203	lbu	x4,15(x1)	  x1:0x80008667  x4=0x00000042 PA:0x80008676
       31785000	      3177	8000200c	fe208a23	sb	x2,-12(x1)	  x1:0x80008667  x2:0x00000001 PA:0x8000865b
       31795000	      3178	80002010	00b9fdb3	and	x27,x19,x11	 x19:0x000051da x11:0x00000001 x27=0x00000000
       31805000	      3179	80002014	ff308183	lb	x3,-13(x1)	  x1:0x80008667  x3=0xffffff86 PA:0x8000865a
       31815000	      3180	80002018	010e2333	slt	x6,x28,x16	 x28:0xc9aeafcc x16:0x00000015  x6=0x00000001
       31825000	      3181	8000201c	018942b3	xor	x5,x18,x24	 x18:0x800098f6 x24:0x000000a3  x5=0x80009855
       31835000	      3182	80002020	ffe08aa3	sb	x30,-11(x1)	  x1:0x80008667 x30:0x0212b000 PA:0x8000865c
       31845000	      3183	80002024	00007117	auipc	x2,0x7	  x2=0x80009020
       31855000	      3184	80002028	e2d10113	addi	x2,x2,-467	  x2:0x80009020  x2=0x80008e4d
       31865000	      3185	8000202c	01005ab3	srl	x21,x0,x16	  x0:0x00000000 x16:0x00000015 x21=0x00000000
       31875000	      3186	80002030	04910623	sb	x9,76(x2)	  x2:0x80008e4d  x9:0x00000029 PA:0x80008e99
       31885000	      3187	80002034	0f0105a3	sb	x16,235(x2)	  x2:0x80008e4d x16:0x00000015 PA:0x80008f38
       31895000	      3188	80002038	07810183	lb	x3,120(x2)	  x2:0x80008e4d  x3=0xffffffd6 PA:0x80008ec5
       31905000	      3189	8000203c	09c114a3	sh	x28,137(x2)	  x2:0x80008e4d x28:0xc9aeafcc PA:0x80008ed6
       31915000	      3190	80002040	13503993	sltiu	x19,x0,309	  x0:0x00000000 x19=0x00000001
       31925000	      3191	80002044	4148da93	srai	x21,x17,0x14	 x17:0x00000014 x21=0x00000000
       31935000	      3192	80002048	00000013	addi	x0,x0,0	  x0:0x00000000
       31945000	      3193	8000204c	0fb15783	lhu	x15,251(x2)	  x2:0x80008e4d x15=0x0000ccce PA:0x80008f48
       31955000	      3194	80002050	019aa3b3	slt	x7,x21,x25	 x21:0x00000000 x25:0x00000147  x7=0x00000001
       31965000	      3195	80002054	f1214683	lbu	x13,-238(x2)	  x2:0x80008e4d x13=0x0000008a PA:0x80008d5f
       31975000	      3196	80002058	fc115a83	lhu	x21,-63(x2)	  x2:0x80008e4d x21=0x0000611c PA:0x80008e0e
       31985000	      3197	8000205c	0c115203	lhu	x4,193(x2)	  x2:0x80008e4d  x4=0x00000001 PA:0x80008f0e
       31995000	      3198	80002060	726ca913	slti	x18,x25,1830	 x25:0x00000147 x18=0x00000001
       32005000	      3199	80002064	fa6116a3	sh	x6,-83(x2)	  x2:0x80008e4d  x6:0x00000001 PA:0x80008dfa
       32015000	      3200	80002068	f2515c83	lhu	x25,-219(x2)	  x2:0x80008e4d x25=0x00005ad1 PA:0x80008d72
       32025000	      3201	8000206c	f8014283	lbu	x5,-128(x2)	  x2:0x80008e4d  x5=0x0000004f PA:0x80008dcd
       32035000	      3202	80002070	0aa10ba3	sb	x10,183(x2)	  x2:0x80008e4d x10:0x0000000c PA:0x80008f04
       32045000	      3203	80002074	0ba10783	lb	x15,186(x2)	  x2:0x80008e4d x15=0x0000000e PA:0x80008f07
       32055000	      3204	80002078	00000013	addi	x0,x0,0	  x0:0x00000000
       32065000	      3205	8000207c	06610e83	lb	x29,102(x2)	  x2:0x80008e4d x29=0x00000057 PA:0x80008eb3
       32075000	      3206	80002080	fc582493	slti	x9,x16,-59	 x16:0x00000015  x9=0x00000000
       32085000	      3207	80002084	fa910223	sb	x9,-92(x2)	  x2:0x80008e4d  x9:0x00000000 PA:0x80008df1
       32095000	      3208	80002088	01c760b3	or	x1,x14,x28	 x14:0x80009fc4 x28:0xc9aeafcc  x1=0xc9aebfcc
       32105000	      3209	8000208c	0166d4b3	srl	x9,x13,x22	 x13:0x0000008a x22:0x00000109  x9=0x00000000
       32115000	      3210	80002090	05110c03	lb	x24,81(x2)	  x2:0x80008e4d x24=0xffffff98 PA:0x80008e9e
       32125000	      3211	80002094	fe110203	lb	x4,-31(x2)	  x2:0x80008e4d  x4=0x00000067 PA:0x80008e2e
       32135000	      3212	80002098	d7c599b7	lui	x19,0xd7c59	 x19=0xd7c59000
       32145000	      3213	8000209c	f4411fa3	sh	x4,-161(x2)	  x2:0x80008e4d  x4:0x00000067 PA:0x80008dac
       32155000	      3214	800020a0	f74103a3	sb	x20,-153(x2)	  x2:0x80008e4d x20:0xe4e90541 PA:0x80008db4
       32165000	      3215	800020a4	090106a3	sb	x16,141(x2)	  x2:0x80008e4d x16:0x00000015 PA:0x80008eda
       32175000	      3216	800020a8	a9d0ab13	slti	x22,x1,-1379	  x1:0xc9aebfcc x22=0x00000001
       32185000	      3217	800020ac	f2b10a83	lb	x21,-213(x2)	  x2:0x80008e4d x21=0xffffffc5 PA:0x80008d78
       32195000	      3218	800020b0	fdb14303	lbu	x6,-37(x2)	  x2:0x80008e4d  x6=0x000000b2 PA:0x80008e28
       32205000	      3219	800020b4	fa410803	lb	x16,-92(x2)	  x2:0x80008e4d x16=0x00000000 PA:0x80008df1
       32215000	      3220	800020b8	7e35aa93	slti	x21,x11,2019	 x11:0x00000001 x21=0x00000001
       32225000	      3221	800020bc	0172d413	srli	x8,x5,0x17	  x5:0x0000004f  x8=0x00000000
       32235000	      3222	800020c0	0de10a23	sb	x30,212(x2)	  x2:0x80008e4d x30:0x0212b000 PA:0x80008f21
       32245000	      3223	800020c4	00884b33	xor	x22,x16,x8	 x16:0x00000000  x8:0x00000000 x22=0x00000000
       32255000	      3224	800020c8	084109a3	sb	x4,147(x2)	  x2:0x80008e4d  x4:0x00000067 PA:0x80008ee0
       32265000	      3225	800020cc	00006c17	auipc	x24,0x6	 x24=0x800080c8
       32275000	      3226	800020d0	190c0c13	addi	x24,x24,400	 x24:0x800080c8 x24=0x80008258
       32285000	      3227	800020d4	00dbf833	and	x16,x23,x13	 x23:0x000000be x13:0x0000008a x16=0x0000008a
       32295000	      3228	800020d8	00b7b033	sltu	x0,x15,x11	 x15:0x0000000e x11:0x00000001
       32305000	      3229	800020dc	d9f2a793	slti	x15,x5,-609	  x5:0x0000004f x15=0x00000000
       32315000	      3230	800020e0	00f4e833	or	x16,x9,x15	  x9:0x00000000 x15:0x00000000 x16=0x00000000
       32325000	      3231	800020e4	001c06a3	sb	x1,13(x24)	 x24:0x80008258  x1:0xc9aebfcc PA:0x80008265
       32335000	      3232	800020e8	c7f27093	andi	x1,x4,-897	  x4:0x00000067  x1=0x00000067
       32345000	      3233	800020ec	001dbf33	sltu	x30,x27,x1	 x27:0x00000000  x1:0x00000067 x30=0x00000001
       32355000	      3234	800020f0	92182cb7	lui	x25,0x92182	 x25=0x92182000
       32365000	      3235	800020f4	00bfc6b3	xor	x13,x31,x11	 x31:0x80009ef8 x11:0x00000001 x13=0x80009ef9
       32375000	      3236	800020f8	01b75893	srli	x17,x14,0x1b	 x14:0x80009fc4 x17=0x00000010
       32385000	      3237	800020fc	00ec0e83	lb	x29,14(x24)	 x24:0x80008258 x29=0xfffffff9 PA:0x80008266
       32395000	      3238	80002100	00a9adb3	slt	x27,x19,x10	 x19:0xd7c59000 x10:0x0000000c x27=0x00000001
       32405000	      3239	80002104	0037b433	sltu	x8,x15,x3	 x15:0x00000000  x3:0xffffffd6  x8=0x00000001
       32415000	      3240	80002108	4170d233	sra	x4,x1,x23	  x1:0x00000067 x23:0x000000be  x4=0x00000000
       32425000	      3241	8000210c	8a2f0293	addi	x5,x30,-1886	 x30:0x00000001  x5=0xfffff8a3
       32435000	      3242	80002110	006c5003	lhu	x0,6(x24)	 x24:0x80008258 PA:0x8000825e
       32445000	      3243	80002114	006108b3	add	x17,x2,x6	  x2:0x80008e4d  x6:0x000000b2 x17=0x80008eff
       32455000	      3244	80002118	000461b3	or	x3,x8,x0	  x8:0x00000001  x0:0x00000000  x3=0x00000001
       32465000	      3245	8000211c	404b86b3	sub	x13,x23,x4	 x23:0x000000be  x4:0x00000000 x13=0x000000be
       32475000	      3246	80002120	9ec30913	addi	x18,x6,-1556	  x6:0x000000b2 x18=0xfffffa9e
       32485000	      3247	80002124	ffdc0b23	sb	x29,-10(x24)	 x24:0x80008258 x29:0xfffffff9 PA:0x8000824e
       32495000	      3248	80002128	8cb3c113	xori	x2,x7,-1845	  x7:0x00000001  x2=0xfffff8ca
       32505000	      3249	8000212c	2ef1bb97	auipc	x23,0x2ef1b	 x23=0xaef1d128
       32515000	      3250	80002130	01cf7233	and	x4,x30,x28	 x30:0x00000001 x28:0xc9aeafcc  x4=0x00000000
       32525000	      3251	80002134	4b0de993	ori	x19,x27,1200	 x27:0x00000001 x19=0x000004b1
       32535000	      3252	80002138	004c0483	lb	x9,4(x24)	 x24:0x80008258  x9=0xffffff9a PA:0x8000825c
       32545000	      3253	8000213c	008c05a3	sb	x8,11(x24)	 x24:0x80008258  x8:0x00000001 PA:0x80008263
       32555000	      3254	80002140	ff6c4683	lbu	x13,-10(x24)	 x24:0x80008258 x13=0x000000f9 PA:0x8000824e
       32565000	      3255	80002144	000c2283	lw	x5,0(x24)	 x24:0x80008258  x5=0x6e635f94 PA:0x80008258
       32575000	      3256	80002148	003e71b3	and	x3,x28,x3	 x28:0xc9aeafcc  x3:0x00000001  x3=0x00000000
       32585000	      3257	8000214c	1b2f4313	xori	x6,x30,434	 x30:0x00000001  x6=0x000001b3
       32595000	      3258	80002150	feac1f23	sh	x10,-2(x24)	 x24:0x80008258 x10:0x0000000c PA:0x80008256
       32605000	      3259	80002154	40a95a93	srai	x21,x18,0xa	 x18:0xfffffa9e x21=0xfffffffe
       32615000	      3260	80002158	002c0203	lb	x4,2(x24)	 x24:0x80008258  x4=0x00000063 PA:0x8000825a
       32625000	      3261	8000215c	4082db93	srai	x23,x5,0x8	  x5:0x6e635f94 x23=0x006e635f
       32635000	      3262	80002160	007c4303	lbu	x6,7(x24)	 x24:0x80008258  x6=0x0000003b PA:0x8000825f
       32645000	      3263	80002164	00006117	auipc	x2,0x6	  x2=0x80008160
       32655000	      3264	80002168	22010113	addi	x2,x2,544	  x2:0x80008160  x2=0x80008380
       32665000	      3265	8000216c	ffe15303	lhu	x6,-2(x2)	  x2:0x80008380  x6=0x00005fc3 PA:0x8000837e
       32675000	      3266	80002170	4888bc13	sltiu	x24,x17,1160	 x17:0x80008eff x24=0x00000000
       32685000	      3267	80002174	015ba0b3	slt	x1,x23,x21	 x23:0x006e635f x21:0xfffffffe  x1=0x00000000
       32695000	      3268	80002178	02610903	lb	x18,38(x2)	  x2:0x80008380 x18=0x00000077 PA:0x800083a6
       32705000	      3269	8000217c	02410403	lb	x8,36(x2)	  x2:0x80008380  x8=0x0000005e PA:0x800083a4
       32715000	      3270	80002180	c1dec693	xori	x13,x29,-995	 x29:0xfffffff9 x13=0x000003e4
       32725000	      3271	80002184	01b14283	lbu	x5,27(x2)	  x2:0x80008380  x5=0x00000021 PA:0x8000839b
       32735000	      3272	80002188	b30e8193	addi	x3,x29,-1232	 x29:0xfffffff9  x3=0xfffffb29
       32745000	      3273	8000218c	00059193	slli	x3,x11,0x0	 x11:0x00000001  x3=0x00000001
       32755000	      3274	80002190	4191d333	sra	x6,x3,x25	  x3:0x00000001 x25:0x92182000  x6=0x00000001
       32765000	      3275	80002194	76c07313	andi	x6,x0,1900	  x0:0x00000000  x6=0x00000000
       32775000	      3276	80002198	71fa7813	andi	x16,x20,1823	 x20:0xe4e90541 x16=0x00000501
       32785000	      3277	8000219c	00000013	addi	x0,x0,0	  x0:0x00000000
       32795000	      3278	800021a0	01e5d3b3	srl	x7,x11,x30	 x11:0x00000001 x30:0x00000001  x7=0x00000000
       32805000	      3279	800021a4	005cdd33	srl	x26,x25,x5	 x25:0x92182000  x5:0x00000021 x26=0x490c1000
       32815000	      3280	800021a8	004fd033	srl	x0,x31,x4	 x31:0x80009ef8  x4:0x00000063
       32825000	      3281	800021ac	fe811923	sh	x8,-14(x2)	  x2:0x80008380  x8:0x0000005e PA:0x80008372
       32835000	      3282	800021b0	0027dd33	srl	x26,x15,x2	 x15:0x00000000  x2:0x80008380 x26=0x00000000
       32845000	      3283	800021b4	ff9107a3	sb	x25,-17(x2)	  x2:0x80008380 x25:0x92182000 PA:0x8000836f
       32855000	      3284	800021b8	5e6ffc93	andi	x25,x31,1510	 x31:0x80009ef8 x25=0x000004e0
       32865000	      3285	800021bc	0198db93	srli	x23,x17,0x19	 x17:0x80008eff x23=0x00000040
       32875000	      3286	800021c0	014102a3	sb	x20,5(x2)	  x2:0x80008380 x20:0xe4e90541 PA:0x80008385
       32885000	      3287	800021c4	fe3101a3	sb	x3,-29(x2)	  x2:0x80008380  x3:0x00000001 PA:0x80008363
       32895000	      3288	800021c8	fd514e83	lbu	x29,-43(x2)	  x2:0x80008380 x29=0x0000001e PA:0x80008355
       32905000	      3289	800021cc	02b10403	lb	x8,43(x2)	  x2:0x80008380  x8=0xffffffe9 PA:0x800083ab
       32915000	      3290	800021d0	004136b3	sltu	x13,x2,x4	  x2:0x80008380  x4:0x00000063 x13=0x00000000
       32925000	      3291	800021d4	01950f33	add	x30,x10,x25	 x10:0x0000000c x25:0x000004e0 x30=0x000004ec
       32935000	      3292	800021d8	405f83b3	sub	x7,x31,x5	 x31:0x80009ef8  x5:0x00000021  x7=0x80009ed7
       32945000	      3293	800021dc	fef14c83	lbu	x25,-17(x2)	  x2:0x80008380 x25=0x00000000 PA:0x8000836f
       32955000	      3294	800021e0	00007217	auipc	x4,0x7	  x4=0x800091dc
       32965000	      3295	800021e4	82420213	addi	x4,x4,-2012	  x4:0x800091dc  x4=0x80008a00
       32975000	      3296	800021e8	009f6ab3	or	x21,x30,x9	 x30:0x000004ec  x9:0xffffff9a x21=0xfffffffe
       32985000	      3297	800021ec	f3d24b83	lbu	x23,-195(x4)	  x4:0x80008a00 x23=0x0000009c PA:0x8000893d
       32995000	      3298	800021f0	f63207a3	sb	x3,-145(x4)	  x4:0x80008a00  x3:0x00000001 PA:0x8000896f
       33005000	      3299	800021f4	412c51b3	sra	x3,x24,x18	 x24:0x00000000 x18:0x00000077  x3=0x00000000
       33015000	      3300	800021f8	f5422c23	sw	x20,-168(x4)	  x4:0x80008a00 x20:0xe4e90541 PA:0x80008958
       33025000	      3301	800021fc	412ed913	srai	x18,x29,0x12	 x29:0x0000001e x18=0x00000000
       33035000	      3302	80002200	f8224a83	lbu	x21,-126(x4)	  x4:0x80008a00 x21=0x000000ae PA:0x80008982
       33045000	      3303	80002204	fa620883	lb	x17,-90(x4)	  x4:0x80008a00 x17=0x0000007c PA:0x800089a6
       33055000	      3304	80002208	0bf20403	lb	x8,191(x4)	  x4:0x80008a00  x8=0x0000000e PA:0x80008abf
       33065000	      3305	8000220c	40f55693	srai	x13,x10,0xf	 x10:0x0000000c x13=0x00000000
       33075000	      3306	80002210	0053b1b3	sltu	x3,x7,x5	  x7:0x80009ed7  x5:0x00000021  x3=0x00000000
       33085000	      3307	80002214	402500b3	sub	x1,x10,x2	 x10:0x0000000c  x2:0x80008380  x1=0x7fff7c8c
       33095000	      3308	80002218	f4220e23	sb	x2,-164(x4)	  x4:0x80008a00  x2:0x80008380 PA:0x8000895c
       33105000	      3309	8000221c	ff422a23	sw	x20,-12(x4)	  x4:0x80008a00 x20:0xe4e90541 PA:0x800089f4
       33115000	      3310	80002220	000128b3	slt	x17,x2,x0	  x2:0x80008380  x0:0x00000000 x17=0x00000001
       33125000	      3311	80002224	04020083	lb	x1,64(x4)	  x4:0x80008a00  x1=0xffffff92 PA:0x80008a40
       33135000	      3312	80002228	f8720a83	lb	x21,-121(x4)	  x4:0x80008a00 x21=0x0000000e PA:0x80008987
       33145000	      3313	8000222c	98f64ab7	lui	x21,0x98f64	 x21=0x98f64000
       33155000	      3314	80002230	fb924383	lbu	x7,-71(x4)	  x4:0x80008a00  x7=0x000000b5 PA:0x800089b9
       33165000	      3315	80002234	004a0633	add	x12,x20,x4	 x20:0xe4e90541  x4:0x80008a00 x12=0x64e98f41
       33175000	      3316	80002238	0cf21623	sh	x15,204(x4)	  x4:0x80008a00 x15:0x00000000 PA:0x80008acc
       33185000	      3317	8000223c	f3220183	lb	x3,-206(x4)	  x4:0x80008a00  x3=0xffffffc8 PA:0x80008932
       33195000	      3318	80002240	04124f03	lbu	x30,65(x4)	  x4:0x80008a00 x30=0x00000086 PA:0x80008a41
       33205000	      3319	80002244	00000013	addi	x0,x0,0	  x0:0x00000000
       33215000	      3320	80002248	09620483	lb	x9,150(x4)	  x4:0x80008a00  x9=0x00000025 PA:0x80008a96
       33225000	      3321	8000224c	0e7207a3	sb	x7,239(x4)	  x4:0x80008a00  x7:0x000000b5 PA:0x80008aef
       33235000	      3322	80002250	f0920103	lb	x2,-247(x4)	  x4:0x80008a00  x2=0x00000034 PA:0x80008909
       33245000	      3323	80002254	d5bd6893	ori	x17,x26,-677	 x26:0x00000000 x17=0xfffffd5b
       33255000	      3324	80002258	01b5e233	or	x4,x11,x27	 x11:0x00000001 x27:0x00000001  x4=0x00000001
       33265000	      3325	8000225c	01e995b3	sll	x11,x19,x30	 x19:0x000004b1 x30:0x00000086 x11=0x00012c40
       33275000	      3326	80002260	005480b3	add	x1,x9,x5	  x9:0x00000025  x5:0x00000021  x1=0x00000046
       33285000	      3327	80002264	41ffd093	srai	x1,x31,0x1f	 x31:0x80009ef8  x1=0xffffffff
       33295000	      3328	80002268	4cdc8213	addi	x4,x25,1229	 x25:0x00000000  x4=0x000004cd
       33305000	      3329	8000226c	00000013	addi	x0,x0,0	  x0:0x00000000
       33315000	      3330	80002270	44b63413	sltiu	x8,x12,1099	 x12:0x64e98f41  x8=0x00000000
       33325000	      3331	80002274	01055b33	srl	x22,x10,x16	 x10:0x0000000c x16:0x00000501 x22=0x00000006
       33335000	      3332	80002278	01d037b3	sltu	x15,x0,x29	  x0:0x00000000 x29:0x0000001e x15=0x00000001
       33345000	      3333	8000227c	025b0063	beq	x22,x5,8000229c	 x22:0x00000006  x5:0x00000021
       33355000	      3334	80002280	033d1463	bne	x26,x19,800022a8	 x26:0x00000000 x19:0x000004b1
       33365000	      3335	00000000	00000013	addi	x0,x0,0	  x0:0x00000000
       33375000	      3336	800022a4	00000013	addi	x0,x0,0	  x0:0x00000000
       33385000	      3337	800022a8	05a81863	bne	x16,x26,800022f8	 x16:0x00000501 x26:0x00000000
       33395000	      3338	00000000	00000013	addi	x0,x0,0	  x0:0x00000000
       33405000	      3339	800022f4	00000013	addi	x0,x0,0	  x0:0x00000000
       33415000	      3340	800022f8	011f0e63	beq	x30,x17,80002314	 x30:0x00000086 x17:0xfffffd5b
       33425000	      3341	800022fc	00a17f33	and	x30,x2,x10	  x2:0x00000034 x10:0x0000000c x30=0x00000004
       33435000	      3342	80002300	005a7333	and	x6,x20,x5	 x20:0xe4e90541  x5:0x00000021  x6=0x00000001
       33445000	      3343	80002304	01657a63	bgeu	x10,x22,80002318	 x10:0x0000000c x22:0x00000006
       33455000	      3344	00000000	00000013	addi	x0,x0,0	  x0:0x00000000
       33465000	      3345	80002314	00000013	addi	x0,x0,0	  x0:0x00000000
       33475000	      3346	80002318	006a8e63	beq	x21,x6,80002334	 x21:0x98f64000  x6:0x00000001
       33485000	      3347	8000231c	8699e213	ori	x4,x19,-1943	 x19:0x000004b1  x4=0xfffffcf9
       33495000	      3348	80002320	20f98293	addi	x5,x19,527	 x19:0x000004b1  x5=0x000006c0
       33505000	      3349	80002324	02520a63	beq	x4,x5,80002358	  x4:0xfffffcf9  x5:0x000006c0
       33515000	      3350	80002328	0232e663	bltu	x5,x3,80002354	  x5:0x000006c0  x3:0xffffffc8
       33525000	      3351	00000000	00000013	addi	x0,x0,0	  x0:0x00000000
       33535000	      3352	80002350	00000013	addi	x0,x0,0	  x0:0x00000000
       33545000	      3353	80002354	ad4ffe93	andi	x29,x31,-1324	 x31:0x80009ef8 x29=0x80009ad0
       33555000	      3354	80002358	00c53c33	sltu	x24,x10,x12	 x10:0x0000000c x12:0x64e98f41 x24=0x00000001
       33565000	      3355	8000235c	02611263	bne	x2,x6,80002380	  x2:0x00000034  x6:0x00000001
       33575000	      3356	00000000	00000013	addi	x0,x0,0	  x0:0x00000000
       33585000	      3357	8000237c	00000013	addi	x0,x0,0	  x0:0x00000000
       33595000	      3358	80002380	00f2edb3	or	x27,x5,x15	  x5:0x000006c0 x15:0x00000001 x27=0x000006c1
       33605000	      3359	80002384	00969593	slli	x11,x13,0x9	 x13:0x00000000 x11=0x00000000
       33615000	      3360	80002388	414d8833	sub	x16,x27,x20	 x27:0x000006c1 x20:0xe4e90541 x16=0x1b170180
       33625000	      3361	8000238c	015fb0b3	sltu	x1,x31,x21	 x31:0x80009ef8 x21:0x98f64000  x1=0x00000001
       33635000	      3362	80002390	0027d663	bge	x15,x2,8000239c	 x15:0x00000001  x2:0x00000034
       33645000	      3363	80002394	01f9be33	sltu	x28,x19,x31	 x19:0x000004b1 x31:0x80009ef8 x28=0x00000001
       33655000	      3364	80002398	c488e413	ori	x8,x17,-952	 x17:0xfffffd5b  x8=0xfffffd5b
       33665000	      3365	8000239c	77deeb93	ori	x23,x29,1917	 x29:0x80009ad0 x23=0x80009ffd
       33675000	      3366	800023a0	0526e463	bltu	x13,x18,800023e8	 x13:0x00000000 x18:0x00000000
       33685000	      3367	800023a4	005c9d93	slli	x27,x25,0x5	 x25:0x00000000 x27=0x00000000
       33695000	      3368	800023a8	dfcb2f13	slti	x30,x22,-516	 x22:0x00000006 x30=0x00000000
       33705000	      3369	800023ac	81757cb7	lui	x25,0x81757	 x25=0x81757000
       33715000	      3370	800023b0	4004d9b3	sra	x19,x9,x0	  x9:0x00000025  x0:0x00000000 x19=0x00000025
       33725000	      3371	800023b4	01549793	slli	x15,x9,0x15	  x9:0x00000025 x15=0x04a00000
       33735000	      3372	800023b8	40dc8e33	sub	x28,x25,x13	 x25:0x81757000 x13:0x00000000 x28=0x81757000
       33745000	      3373	800023bc	043a7263	bgeu	x20,x3,80002400	 x20:0xe4e90541  x3:0xffffffc8
       33755000	      3374	800023c0	04411263	bne	x2,x4,80002404	  x2:0x00000034  x4:0xfffffcf9
       33765000	      3375	00000000	00000013	addi	x0,x0,0	  x0:0x00000000
       33775000	      3376	80002400	00000013	addi	x0,x0,0	  x0:0x00000000
       33785000	      3377	80002404	096e3417	auipc	x8,0x96e3	  x8=0x896e5400
       33795000	      3378	80002408	00dcfcb3	and	x25,x25,x13	 x25:0x81757000 x13:0x00000000 x25=0x00000000
       33805000	      3379	8000240c	01875393	srli	x7,x14,0x18	 x14:0x80009fc4  x7=0x00000080
       33815000	      3380	80002410	c171a113	slti	x2,x3,-1001	  x3:0xffffffc8  x2=0x00000000
       33825000	      3381	80002414	41745513	srai	x10,x8,0x17	  x8:0x896e5400 x10=0xffffff12
       33835000	      3382	80002418	64939217	auipc	x4,0x64939	  x4=0xe493b414
       33845000	      3383	8000241c	019f5e63	bge	x30,x25,80002438	 x30:0x00000000 x25:0x00000000
       33855000	      3384	00000000	00000013	addi	x0,x0,0	  x0:0x00000000
       33865000	      3385	80002434	00000013	addi	x0,x0,0	  x0:0x00000000
       33875000	      3386	80002438	01a4f0b3	and	x1,x9,x26	  x9:0x00000025 x26:0x00000000  x1=0x00000000
       33885000	      3387	8000243c	ce69a493	slti	x9,x19,-794	 x19:0x00000025  x9=0x00000000
       33895000	      3388	80002440	40445293	srai	x5,x8,0x4	  x8:0x896e5400  x5=0xf896e540
       33905000	      3389	80002444	e8135ab7	lui	x21,0xe8135	 x21=0xe8135000
       33915000	      3390	80002448	f7fcc913	xori	x18,x25,-129	 x25:0x00000000 x18=0xffffff7f
       33925000	      3391	8000244c	9711eb93	ori	x23,x3,-1679	  x3:0xffffffc8 x23=0xfffffff9
       33935000	      3392	80002450	41d985b3	sub	x11,x19,x29	 x19:0x00000025 x29:0x80009ad0 x11=0x7fff6555
       33945000	      3393	80002454	04add863	bge	x27,x10,800024a4	 x27:0x00000000 x10:0xffffff12
       33955000	      3394	00000000	00000013	addi	x0,x0,0	  x0:0x00000000
       33965000	      3395	800024a0	00000013	addi	x0,x0,0	  x0:0x00000000
       33975000	      3396	800024a4	05058863	beq	x11,x16,800024f4	 x11:0x7fff6555 x16:0x1b170180
       33985000	      3397	800024a8	401b5893	srai	x17,x22,0x1	 x22:0x00000006 x17=0x00000003
       33995000	      3398	800024ac	05060063	beq	x12,x16,800024ec	 x12:0x64e98f41 x16:0x1b170180
       34005000	      3399	800024b0	9d4c0293	addi	x5,x24,-1580	 x24:0x00000001  x5=0xfffff9d5
       34015000	      3400	800024b4	016f4c63	blt	x30,x22,800024cc	 x30:0x00000000 x22:0x00000006
       34025000	      3401	00000000	00000013	addi	x0,x0,0	  x0:0x00000000
       34035000	      3402	800024c8	00000013	addi	x0,x0,0	  x0:0x00000000
       34045000	      3403	800024cc	24dece93	xori	x29,x29,589	 x29:0x80009ad0 x29=0x8000989d
       34055000	      3404	800024d0	01536033	or	x0,x6,x21	  x6:0x00000001 x21:0xe8135000
       34065000	      3405	800024d4	00331663	bne	x6,x3,800024e0	  x6:0x00000001  x3:0xffffffc8
       34075000	      3406	00000000	00000013	addi	x0,x0,0	  x0:0x00000000
       34085000	      3407	800024dc	00000013	addi	x0,x0,0	  x0:0x00000000
       34095000	      3408	800024e0	019015b3	sll	x11,x0,x25	  x0:0x00000000 x25:0x00000000 x11=0x00000000
       34105000	      3409	800024e4	00000013	addi	x0,x0,0	  x0:0x00000000
       34115000	      3410	800024e8	00d65813	srli	x16,x12,0xd	 x12:0x64e98f41 x16=0x0003274c
       34125000	      3411	800024ec	0aa16a63	bltu	x2,x10,800025a0	  x2:0x00000000 x10:0xffffff12
       34135000	      3412	00000000	00000013	addi	x0,x0,0	  x0:0x00000000
       34145000	      3413	8000259c	00000013	addi	x0,x0,0	  x0:0x00000000
       34155000	      3414	800025a0	0528f263	bgeu	x17,x18,800025e4	 x17:0x00000003 x18:0xffffff7f
       34165000	      3415	800025a4	00384533	xor	x10,x16,x3	 x16:0x0003274c  x3:0xffffffc8 x10=0xfffcd884
       34175000	      3416	800025a8	00e7d433	srl	x8,x15,x14	 x15:0x04a00000 x14:0x80009fc4  x8=0x004a0000
       34185000	      3417	800025ac	016b2ab3	slt	x21,x22,x22	 x22:0x00000006 x22:0x00000006 x21=0x00000000
       34195000	      3418	800025b0	a6f6a5b7	lui	x11,0xa6f6a	 x11=0xa6f6a000
       34205000	      3419	800025b4	014808b3	add	x17,x16,x20	 x16:0x0003274c x20:0xe4e90541 x17=0xe4ec2c8d
       34215000	      3420	800025b8	8df71e97	auipc	x29,0x8df71	 x29=0x0df735b4
       34225000	      3421	800025bc	01c52233	slt	x4,x10,x28	 x10:0xfffcd884 x28:0x81757000  x4=0x00000000
       34235000	      3422	800025c0	b6a52c13	slti	x24,x10,-1174	 x10:0xfffcd884 x24=0x00000001
       34245000	      3423	800025c4	03697c63	bgeu	x18,x22,800025fc	 x18:0xffffff7f x22:0x00000006
       34255000	      3424	00000000	00000013	addi	x0,x0,0	  x0:0x00000000
       34265000	      3425	800025f8	00000013	addi	x0,x0,0	  x0:0x00000000
       34275000	      3426	800025fc	010f93b3	sll	x7,x31,x16	 x31:0x80009ef8 x16:0x0003274c  x7=0x09ef8000
       34285000	      3427	80002600	dcfa7c13	andi	x24,x20,-561	 x20:0xe4e90541 x24=0xe4e90541
       34295000	      3428	80002604	f71ee213	ori	x4,x29,-143	 x29:0x0df735b4  x4=0xfffffff5
       34305000	      3429	80002608	662317b7	lui	x15,0x66231	 x15=0x66231000
       34315000	      3430	8000260c	02139463	bne	x7,x1,80002634	  x7:0x09ef8000  x1:0x00000000
       34325000	      3431	00000000	00000013	addi	x0,x0,0	  x0:0x00000000
       34335000	      3432	80002630	00000013	addi	x0,x0,0	  x0:0x00000000
       34345000	      3433	80002634	00c7e9b3	or	x19,x15,x12	 x15:0x66231000 x12:0x64e98f41 x19=0x66eb9f41
       34355000	      3434	80002638	8d8f3293	sltiu	x5,x30,-1832	 x30:0x00000000  x5=0x00000001
       34365000	      3435	8000263c	01c40a63	beq	x8,x28,80002650	  x8:0x004a0000 x28:0x81757000
       34375000	      3436	80002640	00279833	sll	x16,x15,x2	 x15:0x66231000  x2:0x00000000 x16=0x66231000
       34385000	      3437	80002644	0054db33	srl	x22,x9,x5	  x9:0x00000000  x5:0x00000001 x22=0x00000000
       34395000	      3438	80002648	012ea3b3	slt	x7,x29,x18	 x29:0x0df735b4 x18:0xffffff7f  x7=0x00000000
       34405000	      3439	8000264c	01873533	sltu	x10,x14,x24	 x14:0x80009fc4 x24:0xe4e90541 x10=0x00000001
       34415000	      3440	80002650	00effc63	bgeu	x31,x14,80002668	 x31:0x80009ef8 x14:0x80009fc4
       34425000	      3441	80002654	41af88b3	sub	x17,x31,x26	 x31:0x80009ef8 x26:0x00000000 x17=0x80009ef8
       34435000	      3442	80002658	008d1133	sll	x2,x26,x8	 x26:0x00000000  x8:0x004a0000  x2=0x00000000
       34445000	      3443	8000265c	01eb0e63	beq	x22,x30,80002678	 x22:0x00000000 x30:0x00000000
       34455000	      3444	00000000	00000013	addi	x0,x0,0	  x0:0x00000000
       34465000	      3445	80002674	00000013	addi	x0,x0,0	  x0:0x00000000
       34475000	      3446	80002678	005dccb3	xor	x25,x27,x5	 x27:0x00000000  x5:0x00000001 x25=0x00000001
       34485000	      3447	8000267c	73ddf493	andi	x9,x27,1853	 x27:0x00000000  x9=0x00000000
       34495000	      3448	80002680	409358b3	sra	x17,x6,x9	  x6:0x00000001  x9:0x00000000 x17=0x00000001
       34505000	      3449	80002684	40d10b33	sub	x22,x2,x13	  x2:0x00000000 x13:0x00000000 x22=0x00000000
       34515000	      3450	80002688	40a58b33	sub	x22,x11,x10	 x11:0xa6f6a000 x10:0x00000001 x22=0xa6f69fff
       34525000	      3451	8000268c	01a91e63	bne	x18,x26,800026a8	 x18:0xffffff7f x26:0x00000000
       34535000	      3452	00000000	00000013	addi	x0,x0,0	  x0:0x00000000
       34545000	      3453	800026a4	00000013	addi	x0,x0,0	  x0:0x00000000
       34555000	      3454	800026a8	41800bb3	sub	x23,x0,x24	  x0:0x00000000 x24:0xe4e90541 x23=0x1b16fabf
       34565000	      3455	800026ac	01b81c33	sll	x24,x16,x27	 x16:0x66231000 x27:0x00000000 x24=0x66231000
       34575000	      3456	800026b0	41e05e33	sra	x28,x0,x30	  x0:0x00000000 x30:0x00000000 x28=0x00000000
       34585000	      3457	800026b4	41cc50b3	sra	x1,x24,x28	 x24:0x66231000 x28:0x00000000  x1=0x66231000
       34595000	      3458	800026b8	003dd433	srl	x8,x27,x3	 x27:0x00000000  x3:0xffffffc8  x8=0x00000000
       34605000	      3459	800026bc	019bcb33	xor	x22,x23,x25	 x23:0x1b16fabf x25:0x00000001 x22=0x1b16fabe
       34615000	      3460	800026c0	ef52ea97	auipc	x21,0xef52e	 x21=0x6f5306bc
       34625000	      3461	800026c4	00cb47b3	xor	x15,x22,x12	 x22:0x1b16fabe x12:0x64e98f41 x15=0x7fff75ff
       34635000	      3462	800026c8	e76c4e13	xori	x28,x24,-394	 x24:0x66231000 x28=0x99dcee76
       34645000	      3463	800026cc	0050a133	slt	x2,x1,x5	  x1:0x66231000  x5:0x00000001  x2=0x00000000
       34655000	      3464	800026d0	00115833	srl	x16,x2,x1	  x2:0x00000000  x1:0x66231000 x16=0x00000000
       34665000	      3465	800026d4	01f083b3	add	x7,x1,x31	  x1:0x66231000 x31:0x80009ef8  x7=0xe623aef8
       34675000	      3466	800026d8	0092beb3	sltu	x29,x5,x9	  x5:0x00000001  x9:0x00000000 x29=0x00000000
       34685000	      3467	800026dc	00f1ce63	blt	x3,x15,800026f8	  x3:0xffffffc8 x15:0x7fff75ff
       34695000	      3468	00000000	00000013	addi	x0,x0,0	  x0:0x00000000
       34705000	      3469	800026f4	00000013	addi	x0,x0,0	  x0:0x00000000
       34715000	      3470	800026f8	6c2d0e93	addi	x29,x26,1730	 x26:0x00000000 x29=0x000006c2
       34725000	      3471	800026fc	030afc63	bgeu	x21,x16,80002734	 x21:0x6f5306bc x16:0x00000000
       34735000	      3472	00000000	00000013	addi	x0,x0,0	  x0:0x00000000
       34745000	      3473	80002730	00000013	addi	x0,x0,0	  x0:0x00000000
       34755000	      3474	80002734	013ea433	slt	x8,x29,x19	 x29:0x000006c2 x19:0x66eb9f41  x8=0x00000001
       34765000	      3475	80002738	00ccdcb3	srl	x25,x25,x12	 x25:0x00000001 x12:0x64e98f41 x25=0x00000000
       34775000	      3476	8000273c	05e54063	blt	x10,x30,8000277c	 x10:0x00000001 x30:0x00000000
       34785000	      3477	80002740	41ba0133	sub	x2,x20,x27	 x20:0xe4e90541 x27:0x00000000  x2=0xe4e90541
       34795000	      3478	80002744	05cf6463	bltu	x30,x28,8000278c	 x30:0x00000000 x28:0x99dcee76
       34805000	      3479	00000000	00000013	addi	x0,x0,0	  x0:0x00000000
       34815000	      3480	80002788	00000013	addi	x0,x0,0	  x0:0x00000000
       34825000	      3481	8000278c	008340b3	xor	x1,x6,x8	  x6:0x00000001  x8:0x00000001  x1=0x00000000
       34835000	      3482	80002790	0129d7b3	srl	x15,x19,x18	 x19:0x66eb9f41 x18:0xffffff7f x15=0x00000000
       34845000	      3483	80002794	68685f17	auipc	x30,0x68685	 x30=0xe8687790
       34855000	      3484	80002798	ebf1b613	sltiu	x12,x3,-321	  x3:0xffffffc8 x12=0x00000000
       34865000	      3485	8000279c	002ea833	slt	x16,x29,x2	 x29:0x000006c2  x2:0xe4e90541 x16=0x00000000
       34875000	      3486	800027a0	02815463	bge	x2,x8,800027c8	  x2:0xe4e90541  x8:0x00000001
       34885000	      3487	800027a4	41955e33	sra	x28,x10,x25	 x10:0x00000001 x25:0x00000000 x28=0x00000001
       34895000	      3488	800027a8	01a87bb3	and	x23,x16,x26	 x16:0x00000000 x26:0x00000000 x23=0x00000000
       34905000	      3489	800027ac	016cee63	bltu	x25,x22,800027c8	 x25:0x00000000 x22:0x1b16fabe
       34915000	      3490	00000000	00000013	addi	x0,x0,0	  x0:0x00000000
       34925000	      3491	800027c4	00000013	addi	x0,x0,0	  x0:0x00000000
       34935000	      3492	800027c8	00146c63	bltu	x8,x1,800027e0	  x8:0x00000001  x1:0x00000000
       34945000	      3493	800027cc	01a9f533	and	x10,x19,x26	 x19:0x66eb9f41 x26:0x00000000 x10=0x00000000
       34955000	      3494	800027d0	00000013	addi	x0,x0,0	  x0:0x00000000
       34965000	      3495	800027d4	c485b993	sltiu	x19,x11,-952	 x11:0xa6f6a000 x19=0x00000001
       34975000	      3496	800027d8	404905b3	sub	x11,x18,x4	 x18:0xffffff7f  x4:0xfffffff5 x11=0xffffff8a
       34985000	      3497	800027dc	032e6c63	bltu	x28,x18,80002814	 x28:0x00000001 x18:0xffffff7f
       34995000	      3498	00000000	00000013	addi	x0,x0,0	  x0:0x00000000
       35005000	      3499	80002810	00000013	addi	x0,x0,0	  x0:0x00000000
       35015000	      3500	80002814	01e8e1b3	or	x3,x17,x30	 x17:0x00000001 x30:0xe8687790  x3=0xe8687791
       35025000	      3501	80002818	d9f6a593	slti	x11,x13,-609	 x13:0x00000000 x11=0x00000000
       35035000	      3502	8000281c	04a58263	beq	x11,x10,80002860	 x11:0x00000000 x10:0x00000000
       35045000	      3503	00000000	00000013	addi	x0,x0,0	  x0:0x00000000
       35055000	      3504	8000285c	00000013	addi	x0,x0,0	  x0:0x00000000
       35065000	      3505	80002860	18a9ca93	xori	x21,x19,394	 x19:0x00000001 x21=0x0000018b
       35075000	      3506	80002864	029d7663	bgeu	x26,x9,80002890	 x26:0x00000000  x9:0x00000000
       35085000	      3507	00000000	00000013	addi	x0,x0,0	  x0:0x00000000
       35095000	      3508	8000288c	00000013	addi	x0,x0,0	  x0:0x00000000
       35105000	      3509	80002890	003449b3	xor	x19,x8,x3	  x8:0x00000001  x3:0xe8687791 x19=0xe8687790
       35115000	      3510	80002894	a7432c93	slti	x25,x6,-1420	  x6:0x00000001 x25=0x00000000
       35125000	      3511	80002898	f895ff37	lui	x30,0xf895f	 x30=0xf895f000
       35135000	      3512	8000289c	007734b3	sltu	x9,x14,x7	 x14:0x80009fc4  x7:0xe623aef8  x9=0x00000001
       35145000	      3513	800028a0	05a50463	beq	x10,x26,800028e8	 x10:0x00000000 x26:0x00000000
       35155000	      3514	00000000	00000013	addi	x0,x0,0	  x0:0x00000000
       35165000	      3515	800028e4	00000013	addi	x0,x0,0	  x0:0x00000000
       35175000	      3516	800028e8	404b5933	sra	x18,x22,x4	 x22:0x1b16fabe  x4:0xfffffff5 x18=0x000000d8
       35185000	      3517	800028ec	006d79b3	and	x19,x26,x6	 x26:0x00000000  x6:0x00000001 x19=0x00000000
       35195000	      3518	800028f0	41b20633	sub	x12,x4,x27	  x4:0xfffffff5 x27:0x00000000 x12=0xfffffff5
       35205000	      3519	800028f4	ef7db897	auipc	x17,0xef7db	 x17=0x6f7dd8f0
       35215000	      3520	800028f8	8ebcb613	sltiu	x12,x25,-1813	 x25:0x00000000 x12=0x00000001
       35225000	      3521	800028fc	01844a63	blt	x8,x24,80002910	  x8:0x00000001 x24:0x66231000
       35235000	      3522	00000000	00000013	addi	x0,x0,0	  x0:0x00000000
       35245000	      3523	8000290c	00000013	addi	x0,x0,0	  x0:0x00000000
       35255000	      3524	80002910	01774eb3	xor	x29,x14,x23	 x14:0x80009fc4 x23:0x00000000 x29=0x80009fc4
       35265000	      3525	80002914	007a95b3	sll	x11,x21,x7	 x21:0x0000018b  x7:0xe623aef8 x11=0x8b000000
       35275000	      3526	80002918	6c392413	slti	x8,x18,1731	 x18:0x000000d8  x8=0x00000001
       35285000	      3527	8000291c	001e8c33	add	x24,x29,x1	 x29:0x80009fc4  x1:0x00000000 x24=0x80009fc4
       35295000	      3528	80002920	2f804017	auipc	x0,0x2f804	
       35305000	      3529	80002924	2f0e7c93	andi	x25,x28,752	 x28:0x00000001 x25=0x00000000
       35315000	      3530	80002928	d9b7fc13	andi	x24,x15,-613	 x15:0x00000000 x24=0x00000000
       35325000	      3531	8000292c	014927b3	slt	x15,x18,x20	 x18:0x000000d8 x20:0xe4e90541 x15=0x00000000
       35335000	      3532	80002930	05087063	bgeu	x16,x16,80002970	 x16:0x00000000 x16:0x00000000
       35345000	      3533	00000000	00000013	addi	x0,x0,0	  x0:0x00000000
       35355000	      3534	8000296c	00000013	addi	x0,x0,0	  x0:0x00000000
       35365000	      3535	80002970	02256a63	bltu	x10,x2,800029a4	 x10:0x00000000  x2:0xe4e90541
       35375000	      3536	00000000	00000013	addi	x0,x0,0	  x0:0x00000000
       35385000	      3537	800029a0	00000013	addi	x0,x0,0	  x0:0x00000000
       35395000	      3538	800029a4	f01f6313	ori	x6,x30,-255	 x30:0xf895f000  x6=0xffffff01
       35405000	      3539	800029a8	ae757c93	andi	x25,x10,-1305	 x10:0x00000000 x25=0x00000000
       35415000	      3540	800029ac	6645bb13	sltiu	x22,x11,1636	 x11:0x8b000000 x22=0x00000000
       35425000	      3541	800029b0	4029d8b3	sra	x17,x19,x2	 x19:0x00000000  x2:0xe4e90541 x17=0x00000000
       35435000	      3542	800029b4	014f7e63	bgeu	x30,x20,800029d0	 x30:0xf895f000 x20:0xe4e90541
       35445000	      3543	00000000	00000013	addi	x0,x0,0	  x0:0x00000000
       35455000	      3544	800029cc	00000013	addi	x0,x0,0	  x0:0x00000000
       35465000	      3545	800029d0	0188b033	sltu	x0,x17,x24	 x17:0x00000000 x24:0x00000000
       35475000	      3546	800029d4	40e2deb3	sra	x29,x5,x14	  x5:0x00000001 x14:0x80009fc4 x29=0x00000000
       35485000	      3547	800029d8	03519c63	bne	x3,x21,80002a10	  x3:0xe8687791 x21:0x0000018b
       35495000	      3548	00000000	00000013	addi	x0,x0,0	  x0:0x00000000
       35505000	      3549	80002a0c	00000013	addi	x0,x0,0	  x0:0x00000000
       35515000	      3550	80002a10	00bcfb33	and	x22,x25,x11	 x25:0x00000000 x11:0x8b000000 x22=0x00000000
       35525000	      3551	80002a14	01fedd93	srli	x27,x29,0x1f	 x29:0x00000000 x27=0x00000000
       35535000	      3552	80002a18	00b93933	sltu	x18,x18,x11	 x18:0x000000d8 x11:0x8b000000 x18=0x00000001
       35545000	      3553	80002a1c	90f6ee13	ori	x28,x13,-1777	 x13:0x00000000 x28=0xfffff90f
       35555000	      3554	80002a20	0199af33	slt	x30,x19,x25	 x19:0x00000000 x25:0x00000000 x30=0x00000000
       35565000	      3555	80002a24	6d9cdf37	lui	x30,0x6d9cd	 x30=0x6d9cd000
       35575000	      3556	80002a28	03a27463	bgeu	x4,x26,80002a50	  x4:0xfffffff5 x26:0x00000000
       35585000	      3557	00000000	00000013	addi	x0,x0,0	  x0:0x00000000
       35595000	      3558	80002a4c	00000013	addi	x0,x0,0	  x0:0x00000000
       35605000	      3559	80002a50	015d09b3	add	x19,x26,x21	 x26:0x00000000 x21:0x0000018b x19=0x0000018b
       35615000	      3560	80002a54	0332fd13	andi	x26,x5,51	  x5:0x00000001 x26=0x00000001
       35625000	      3561	80002a58	0b627293	andi	x5,x4,182	  x4:0xfffffff5  x5=0x000000b4
       35635000	      3562	80002a5c	578f3493	sltiu	x9,x30,1400	 x30:0x6d9cd000  x9=0x00000000
       35645000	      3563	80002a60	01ab8263	beq	x23,x26,80002a64	 x23:0x00000000 x26:0x00000001
       35655000	      3564	80002a64	01397db3	and	x27,x18,x19	 x18:0x00000001 x19:0x0000018b x27=0x00000001
       35665000	      3565	80002a68	01831d93	slli	x27,x6,0x18	  x6:0xffffff01 x27=0x01000000
       35675000	      3566	80002a6c	00000013	addi	x0,x0,0	  x0:0x00000000
       35685000	      3567	80002a70	00c21993	slli	x19,x4,0xc	  x4:0xfffffff5 x19=0xffff5000
       35695000	      3568	80002a74	41d1d793	srai	x15,x3,0x1d	  x3:0xe8687791 x15=0xffffffff
       35705000	      3569	80002a78	001c9333	sll	x6,x25,x1	 x25:0x00000000  x1:0x00000000  x6=0x00000000
       35715000	      3570	80002a7c	df3ea317	auipc	x6,0xdf3ea	  x6=0x5f3eca78
       35725000	      3571	80002a80	02cf1063	bne	x30,x12,80002aa0	 x30:0x6d9cd000 x12:0x00000001
       35735000	      3572	00000000	00000013	addi	x0,x0,0	  x0:0x00000000
       35745000	      3573	80002a9c	00000013	addi	x0,x0,0	  x0:0x00000000
       35755000	      3574	80002aa0	002d1cb3	sll	x25,x26,x2	 x26:0x00000001  x2:0xe4e90541 x25=0x00000002
       35765000	      3575	80002aa4	00006697	auipc	x13,0x6	 x13=0x80008aa0
       35775000	      3576	80002aa8	bfa68693	addi	x13,x13,-1030	 x13:0x80008aa0 x13=0x8000869a
       35785000	      3577	80002aac	0a968303	lb	x6,169(x13)	 x13:0x8000869a  x6=0xffffffaa PA:0x80008743
       35795000	      3578	80002ab0	f0e08993	addi	x19,x1,-242	  x1:0x00000000 x19=0xffffff0e
       35805000	      3579	80002ab4	414b0eb3	sub	x29,x22,x20	 x22:0x00000000 x20:0xe4e90541 x29=0x1b16fabf
       35815000	      3580	80002ab8	f576c903	lbu	x18,-169(x13)	 x13:0x8000869a x18=0x0000000e PA:0x800085f1
       35825000	      3581	80002abc	f4269623	sh	x2,-180(x13)	 x13:0x8000869a  x2:0xe4e90541 PA:0x800085e6
       35835000	      3582	80002ac0	f9a69b23	sh	x26,-106(x13)	 x13:0x8000869a x26:0x00000001 PA:0x80008630
       35845000	      3583	80002ac4	0ce6a283	lw	x5,206(x13)	 x13:0x8000869a  x5=0xf81de261 PA:0x80008768
       35855000	      3584	80002ac8	09669d03	lh	x26,150(x13)	 x13:0x8000869a x26=0xffffd200 PA:0x80008730
       35865000	      3585	80002acc	01c35893	srli	x17,x6,0x1c	  x6:0xffffffaa x17=0x0000000f
       35875000	      3586	80002ad0	00177333	and	x6,x14,x1	 x14:0x80009fc4  x1:0x00000000  x6=0x00000000
       35885000	      3587	80002ad4	f37685a3	sb	x23,-213(x13)	 x13:0x8000869a x23:0x00000000 PA:0x800085c5
       35895000	      3588	80002ad8	01d7d933	srl	x18,x15,x29	 x15:0xffffffff x29:0x1b16fabf x18=0x00000001
       35905000	      3589	80002adc	2651b893	sltiu	x17,x3,613	  x3:0xe8687791 x17=0x00000000
       35915000	      3590	80002ae0	001f5113	srli	x2,x30,0x1	 x30:0x6d9cd000  x2=0x36ce6800
       35925000	      3591	80002ae4	f5368ba3	sb	x19,-169(x13)	 x13:0x8000869a x19:0xffffff0e PA:0x800085f1
       35935000	      3592	80002ae8	01d29c33	sll	x24,x5,x29	  x5:0xf81de261 x29:0x1b16fabf x24=0x80000000
       35945000	      3593	80002aec	36baa617	auipc	x12,0x36baa	 x12=0xb6bacae8
       35955000	      3594	80002af0	95a7c413	xori	x8,x15,-1702	 x15:0xffffffff  x8=0x000006a5
       35965000	      3595	80002af4	fd76c403	lbu	x8,-41(x13)	 x13:0x8000869a  x8=0x000000dd PA:0x80008671
       35975000	      3596	80002af8	00481893	slli	x17,x16,0x4	 x16:0x00000000 x17=0x00000000
       35985000	      3597	80002afc	3b4ef113	andi	x2,x29,948	 x29:0x1b16fabf  x2=0x000002b4
       35995000	      3598	80002b00	0178bb33	sltu	x22,x17,x23	 x17:0x00000000 x23:0x00000000 x22=0x00000000
       36005000	      3599	80002b04	0846cb03	lbu	x22,132(x13)	 x13:0x8000869a x22=0x0000009d PA:0x8000871e
       36015000	      3600	80002b08	00879433	sll	x8,x15,x8	 x15:0xffffffff  x8:0x000000dd  x8=0xe0000000
       36025000	      3601	80002b0c	00e68fa3	sb	x14,31(x13)	 x13:0x8000869a x14:0x80009fc4 PA:0x800086b9
       36035000	      3602	80002b10	58fee493	ori	x9,x29,1423	 x29:0x1b16fabf  x9=0x1b16ffbf
       36045000	      3603	80002b14	f7e68983	lb	x19,-130(x13)	 x13:0x8000869a x19=0xffffffd8 PA:0x80008618
       36055000	      3604	80002b18	d1f47793	andi	x15,x8,-737	  x8:0xe0000000 x15=0xe0000000
       36065000	      3605	80002b1c	0099b433	sltu	x8,x19,x9	 x19:0xffffffd8  x9:0x1b16ffbf  x8=0x00000000
       36075000	      3606	80002b20	7e6bbb93	sltiu	x23,x23,2022	 x23:0x00000000 x23=0x00000001
       36085000	      3607	80002b24	0126c583	lbu	x11,18(x13)	 x13:0x8000869a x11=0x00000010 PA:0x800086ac
       36095000	      3608	80002b28	f3b68003	lb	x0,-197(x13)	 x13:0x8000869a PA:0x800085d5
       36105000	      3609	80002b2c	00715993	srli	x19,x2,0x7	  x2:0x000002b4 x19=0x00000005
       36115000	      3610	80002b30	0286dc83	lhu	x25,40(x13)	 x13:0x8000869a x25=0x00002fcd PA:0x800086c2
       36125000	      3611	80002b34	43ce0593	addi	x11,x28,1084	 x28:0xfffff90f x11=0xfffffd4b
       36135000	      3612	80002b38	06a68903	lb	x18,106(x13)	 x13:0x8000869a x18=0x00000047 PA:0x80008704
       36145000	      3613	80002b3c	04a68b83	lb	x23,74(x13)	 x13:0x8000869a x23=0xffffffae PA:0x800086e4
       36155000	      3614	80002b40	fa268623	sb	x2,-84(x13)	 x13:0x8000869a  x2:0x000002b4 PA:0x80008646
       36165000	      3615	80002b44	01b560b3	or	x1,x10,x27	 x10:0x00000000 x27:0x01000000  x1=0x01000000
       36175000	      3616	80002b48	f526ab83	lw	x23,-174(x13)	 x13:0x8000869a x23=0x799f0051 PA:0x800085ec
       36185000	      3617	80002b4c	f2b6c183	lbu	x3,-213(x13)	 x13:0x8000869a  x3=0x00000000 PA:0x800085c5
       36195000	      3618	80002b50	40aadf33	sra	x30,x21,x10	 x21:0x0000018b x10:0x00000000 x30=0x0000018b
       36205000	      3619	80002b54	0b168603	lb	x12,177(x13)	 x13:0x8000869a x12=0x00000035 PA:0x8000874b
       36215000	      3620	80002b58	985c7993	andi	x19,x24,-1659	 x24:0x80000000 x19=0x80000000
       36225000	      3621	80002b5c	000837b3	sltu	x15,x16,x0	 x16:0x00000000  x0:0x00000000 x15=0x00000000
       36235000	      3622	80002b60	00c18533	add	x10,x3,x12	  x3:0x00000000 x12:0x00000035 x10=0x00000035
       36245000	      3623	80002b64	01ddaeb3	slt	x29,x27,x29	 x27:0x01000000 x29:0x1b16fabf x29=0x00000001
       36255000	      3624	80002b68	5f246593	ori	x11,x8,1522	  x8:0x00000000 x11=0x000005f2
       36265000	      3625	80002b6c	018c9313	slli	x6,x25,0x18	 x25:0x00002fcd  x6=0xcd000000
       36275000	      3626	80002b70	402b5593	srai	x11,x22,0x2	 x22:0x0000009d x11=0x00000027
       36285000	      3627	80002b74	00d533b3	sltu	x7,x10,x13	 x10:0x00000035 x13:0x8000869a  x7=0x00000001
       36295000	      3628	80002b78	004b9693	slli	x13,x23,0x4	 x23:0x799f0051 x13=0x99f00510
       36305000	      3629	80002b7c	ebe47393	andi	x7,x8,-322	  x8:0x00000000  x7=0x00000000
       36315000	      3630	80002b80	004bb933	sltu	x18,x23,x4	 x23:0x799f0051  x4:0xfffffff5 x18=0x00000001
       36325000	      3631	80002b84	c2a94a93	xori	x21,x18,-982	 x18:0x00000001 x21=0xfffffc2b
       36335000	      3632	80002b88	0c35b513	sltiu	x10,x11,195	 x11:0x00000027 x10=0x00000001
       36345000	      3633	80002b8c	d502ad93	slti	x27,x5,-688	  x5:0xf81de261 x27=0x00000001
       36355000	      3634	80002b90	00db9613	slli	x12,x23,0xd	 x23:0x799f0051 x12=0xe00a2000
       36365000	      3635	80002b94	007a5e33	srl	x28,x20,x7	 x20:0xe4e90541  x7:0x00000000 x28=0xe4e90541
       36375000	      3636	80002b98	00b59c63	bne	x11,x11,80002bb0	 x11:0x00000027 x11:0x00000027
       36385000	      3637	80002b9c	04e21063	bne	x4,x14,80002bdc	  x4:0xfffffff5 x14:0x80009fc4
       36395000	      3638	00000000	00000013	addi	x0,x0,0	  x0:0x00000000
       36405000	      3639	80002bd8	00000013	addi	x0,x0,0	  x0:0x00000000
       36415000	      3640	80002bdc	47917113	andi	x2,x2,1145	  x2:0x000002b4  x2=0x00000030
       36425000	      3641	80002be0	01f56e63	bltu	x10,x31,80002bfc	 x10:0x00000001 x31:0x80009ef8
       36435000	      3642	00000000	00000013	addi	x0,x0,0	  x0:0x00000000
       36445000	      3643	80002bf8	00000013	addi	x0,x0,0	  x0:0x00000000
       36455000	      3644	80002bfc	003c3133	sltu	x2,x24,x3	 x24:0x80000000  x3:0x00000000  x2=0x00000000
       36465000	      3645	80002c00	05bcd063	bge	x25,x27,80002c40	 x25:0x00002fcd x27:0x00000001
       36475000	      3646	00000000	00000013	addi	x0,x0,0	  x0:0x00000000
       36485000	      3647	80002c3c	00000013	addi	x0,x0,0	  x0:0x00000000
       36495000	      3648	80002c40	a3ea8413	addi	x8,x21,-1474	 x21:0xfffffc2b  x8=0xfffff669
       36505000	      3649	80002c44	02f81663	bne	x16,x15,80002c70	 x16:0x00000000 x15:0x00000000
       36515000	      3650	80002c48	7dda7b37	lui	x22,0x7dda7	 x22=0x7dda7000
       36525000	      3651	80002c4c	00001b13	slli	x22,x0,0x0	  x0:0x00000000 x22=0x00000000
       36535000	      3652	80002c50	01aa83b3	add	x7,x21,x26	 x21:0xfffffc2b x26:0xffffd200  x7=0xffffce2b
       36545000	      3653	80002c54	00a13cb3	sltu	x25,x2,x10	  x2:0x00000000 x10:0x00000001 x25=0x00000001
       36555000	      3654	80002c58	f2bed4b7	lui	x9,0xf2bed	  x9=0xf2bed000
       36565000	      3655	80002c5c	00fc61b3	or	x3,x24,x15	 x24:0x80000000 x15:0x00000000  x3=0x80000000
       36575000	      3656	80002c60	00d5f2b3	and	x5,x11,x13	 x11:0x00000027 x13:0x99f00510  x5=0x00000000
       36585000	      3657	80002c64	002b3333	sltu	x6,x22,x2	 x22:0x00000000  x2:0x00000000  x6=0x00000000
       36595000	      3658	80002c68	00145293	srli	x5,x8,0x1	  x8:0xfffff669  x5=0x7ffffb34
       36605000	      3659	80002c6c	01f1cd33	xor	x26,x3,x31	  x3:0x80000000 x31:0x80009ef8 x26=0x00009ef8
       36615000	      3660	80002c70	a64fe913	ori	x18,x31,-1436	 x31:0x80009ef8 x18=0xfffffefc
       36625000	      3661	80002c74	0470d263	bge	x1,x7,80002cb8	  x1:0x01000000  x7:0xffffce2b
       36635000	      3662	00000000	00000013	addi	x0,x0,0	  x0:0x00000000
       36645000	      3663	80002cb4	00000013	addi	x0,x0,0	  x0:0x00000000
       36655000	      3664	80002cb8	40990533	sub	x10,x18,x9	 x18:0xfffffefc  x9:0xf2bed000 x10=0x0d412efc
       36665000	      3665	80002cbc	03aa8493	addi	x9,x21,58	 x21:0xfffffc2b  x9=0xfffffc65
       36675000	      3666	80002cc0	f7931117	auipc	x2,0xf7931	  x2=0x77933cbc
       36685000	      3667	80002cc4	0044c663	blt	x9,x4,80002cd0	  x9:0xfffffc65  x4:0xfffffff5
       36695000	      3668	00000000	00000013	addi	x0,x0,0	  x0:0x00000000
       36705000	      3669	80002ccc	00000013	addi	x0,x0,0	  x0:0x00000000
       36715000	      3670	80002cd0	01344d33	xor	x26,x8,x19	  x8:0xfffff669 x19:0x80000000 x26=0x7ffff669
       36725000	      3671	80002cd4	0f751a63	bne	x10,x23,80002dc8	 x10:0x0d412efc x23:0x799f0051
       36735000	      3672	00000000	00000013	addi	x0,x0,0	  x0:0x00000000
       36745000	      3673	80002dc4	00000013	addi	x0,x0,0	  x0:0x00000000
       36755000	      3674	80002dc8	00a5ce63	blt	x11,x10,80002de4	 x11:0x00000027 x10:0x0d412efc
       36765000	      3675	00000000	00000013	addi	x0,x0,0	  x0:0x00000000
       36775000	      3676	80002de0	00000013	addi	x0,x0,0	  x0:0x00000000
       36785000	      3677	80002de4	00687833	and	x16,x16,x6	 x16:0x00000000  x6:0x00000000 x16=0x00000000
       36795000	      3678	80002de8	1a6cfe13	andi	x28,x25,422	 x25:0x00000001 x28=0x00000000
       36805000	      3679	80002dec	00000013	addi	x0,x0,0	  x0:0x00000000
       36815000	      3680	80002df0	40b98933	sub	x18,x19,x11	 x19:0x80000000 x11:0x00000027 x18=0x7fffffd9
       36825000	      3681	80002df4	41448333	sub	x6,x9,x20	  x9:0xfffffc65 x20:0xe4e90541  x6=0x1b16f724
       36835000	      3682	80002df8	0145b6b3	sltu	x13,x11,x20	 x11:0x00000027 x20:0xe4e90541 x13=0x00000001
       36845000	      3683	80002dfc	0013ccb3	xor	x25,x7,x1	  x7:0xffffce2b  x1:0x01000000 x25=0xfeffce2b
       36855000	      3684	80002e00	403b59b3	sra	x19,x22,x3	 x22:0x00000000  x3:0x80000000 x19=0x00000000
       36865000	      3685	80002e04	e6b18c13	addi	x24,x3,-405	  x3:0x80000000 x24=0x7ffffe6b
       36875000	      3686	80002e08	00510e63	beq	x2,x5,80002e24	  x2:0x77933cbc  x5:0x7ffffb34
       36885000	      3687	80002e0c	00000013	addi	x0,x0,0	  x0:0x00000000
       36895000	      3688	80002e10	40c35c13	srai	x24,x6,0xc	  x6:0x1b16f724 x24=0x0001b16f
       36905000	      3689	80002e14	d35da013	slti	x0,x27,-715	 x27:0x00000001
       36915000	      3690	80002e18	3ef36097	auipc	x1,0x3ef36	  x1=0xbef38e14
       36925000	      3691	80002e1c	aae8b337	lui	x6,0xaae8b	  x6=0xaae8b000
       36935000	      3692	80002e20	01cb1633	sll	x12,x22,x28	 x22:0x00000000 x28:0x00000000 x12=0x00000000
       36945000	      3693	80002e24	040b7863	bgeu	x22,x0,80002e74	 x22:0x00000000  x0:0x00000000
       36955000	      3694	00000000	00000013	addi	x0,x0,0	  x0:0x00000000
       36965000	      3695	80002e70	00000013	addi	x0,x0,0	  x0:0x00000000
       36975000	      3696	80002e74	03e1ea63	bltu	x3,x30,80002ea8	  x3:0x80000000 x30:0x0000018b
       36985000	      3697	80002e78	00c67233	and	x4,x12,x12	 x12:0x00000000 x12:0x00000000  x4=0x00000000
       36995000	      3698	80002e7c	01b948b3	xor	x17,x18,x27	 x18:0x7fffffd9 x27:0x00000001 x17=0x7fffffd8
       37005000	      3699	80002e80	0152e833	or	x16,x5,x21	  x5:0x7ffffb34 x21:0xfffffc2b x16=0xffffff3f
       37015000	      3700	80002e84	4f520693	addi	x13,x4,1269	  x4:0x00000000 x13=0x000004f5
       37025000	      3701	80002e88	2730bab7	lui	x21,0x2730b	 x21=0x2730b000
       37035000	      3702	80002e8c	416f0eb3	sub	x29,x30,x22	 x30:0x0000018b x22:0x00000000 x29=0x0000018b
       37045000	      3703	80002e90	001b7833	and	x16,x22,x1	 x22:0x00000000  x1:0xbef38e14 x16=0x00000000
       37055000	      3704	80002e94	004cdab3	srl	x21,x25,x4	 x25:0xfeffce2b  x4:0x00000000 x21=0xfeffce2b
       37065000	      3705	80002e98	04eef463	bgeu	x29,x14,80002ee0	 x29:0x0000018b x14:0x80009fc4
       37075000	      3706	80002e9c	01fc9313	slli	x6,x25,0x1f	 x25:0xfeffce2b  x6=0x80000000
       37085000	      3707	80002ea0	041d0063	beq	x26,x1,80002ee0	 x26:0x7ffff669  x1:0xbef38e14
       37095000	      3708	80002ea4	a901b493	sltiu	x9,x3,-1392	  x3:0x80000000  x9=0x00000001
       37105000	      3709	80002ea8	013898b3	sll	x17,x17,x19	 x17:0x7fffffd8 x19:0x00000000 x17=0x7fffffd8
       37115000	      3710	80002eac	00aa5f13	srli	x30,x20,0xa	 x20:0xe4e90541 x30=0x00393a41
       37125000	      3711	80002eb0	0342ec63	bltu	x5,x20,80002ee8	  x5:0x7ffffb34 x20:0xe4e90541
       37135000	      3712	00000000	00000013	addi	x0,x0,0	  x0:0x00000000
       37145000	      3713	80002ee4	00000013	addi	x0,x0,0	  x0:0x00000000
       37155000	      3714	80002ee8	008c9263	bne	x25,x8,80002eec	 x25:0xfeffce2b  x8:0xfffff669
       37165000	      3715	00000000	00000013	addi	x0,x0,0	  x0:0x00000000
       37175000	      3716	80002ee8	00000013	addi	x0,x0,0	  x0:0x00000000
       37185000	      3717	80002eec	75f97413	andi	x8,x18,1887	 x18:0x7fffffd9  x8=0x00000759
       37195000	      3718	80002ef0	bc34fe13	andi	x28,x9,-1085	  x9:0x00000001 x28=0x00000001
       37205000	      3719	80002ef4	00827633	and	x12,x4,x8	  x4:0x00000000  x8:0x00000759 x12=0x00000000
       37215000	      3720	80002ef8	01105d33	srl	x26,x0,x17	  x0:0x00000000 x17:0x7fffffd8 x26=0x00000000
       37225000	      3721	80002efc	01f7b033	sltu	x0,x15,x31	 x15:0x00000000 x31:0x80009ef8
       37235000	      3722	80002f00	01c1f333	and	x6,x3,x28	  x3:0x80000000 x28:0x00000001  x6=0x00000000
       37245000	      3723	80002f04	40a4d093	srai	x1,x9,0xa	  x9:0x00000001  x1=0x00000000
       37255000	      3724	80002f08	05eb7863	bgeu	x22,x30,80002f58	 x22:0x00000000 x30:0x00393a41
       37265000	      3725	80002f0c	41180933	sub	x18,x16,x17	 x16:0x00000000 x17:0x7fffffd8 x18=0x80000028
       37275000	      3726	80002f10	00b8edb3	or	x27,x17,x11	 x17:0x7fffffd8 x11:0x00000027 x27=0x7fffffff
       37285000	      3727	80002f14	325bc413	xori	x8,x23,805	 x23:0x799f0051  x8=0x799f0374
       37295000	      3728	80002f18	73547513	andi	x10,x8,1845	  x8:0x799f0374 x10=0x00000334
       37305000	      3729	80002f1c	002e8633	add	x12,x29,x2	 x29:0x0000018b  x2:0x77933cbc x12=0x77933e47
       37315000	      3730	80002f20	00000013	addi	x0,x0,0	  x0:0x00000000
       37325000	      3731	80002f24	03f3ca63	blt	x7,x31,80002f58	  x7:0xffffce2b x31:0x80009ef8
       37335000	      3732	80002f28	acbe4793	xori	x15,x28,-1333	 x28:0x00000001 x15=0xfffffaca
       37345000	      3733	80002f2c	41188433	sub	x8,x17,x17	 x17:0x7fffffd8 x17:0x7fffffd8  x8=0x00000000
       37355000	      3734	80002f30	00b934b3	sltu	x9,x18,x11	 x18:0x80000028 x11:0x00000027  x9=0x00000000
       37365000	      3735	80002f34	01875c33	srl	x24,x14,x24	 x14:0x80009fc4 x24:0x0001b16f x24=0x00010001
       37375000	      3736	80002f38	609ffd93	andi	x27,x31,1545	 x31:0x80009ef8 x27=0x00000608
       37385000	      3737	80002f3c	406585b3	sub	x11,x11,x6	 x11:0x00000027  x6:0x00000000 x11=0x00000027
       37395000	      3738	80002f40	01a05463	bge	x0,x26,80002f48	  x0:0x00000000 x26:0x00000000
       37405000	      3739	00000000	00000013	addi	x0,x0,0	  x0:0x00000000
       37415000	      3740	80002f44	00000013	addi	x0,x0,0	  x0:0x00000000
       37425000	      3741	80002f48	05410863	beq	x2,x20,80002f98	  x2:0x77933cbc x20:0xe4e90541
       37435000	      3742	80002f4c	008bfe63	bgeu	x23,x8,80002f68	 x23:0x799f0051  x8:0x00000000
       37445000	      3743	00000000	00000013	addi	x0,x0,0	  x0:0x00000000
       37455000	      3744	80002f64	00000013	addi	x0,x0,0	  x0:0x00000000
       37465000	      3745	80002f68	05a4d463	bge	x9,x26,80002fb0	  x9:0x00000000 x26:0x00000000
       37475000	      3746	00000000	00000013	addi	x0,x0,0	  x0:0x00000000
       37485000	      3747	80002fac	00000013	addi	x0,x0,0	  x0:0x00000000
       37495000	      3748	80002fb0	00f3be33	sltu	x28,x7,x15	  x7:0xffffce2b x15:0xfffffaca x28=0x00000001
       37505000	      3749	80002fb4	a7bcb617	auipc	x12,0xa7bcb	 x12=0x27bcdfb0
       37515000	      3750	80002fb8	00771663	bne	x14,x7,80002fc4	 x14:0x80009fc4  x7:0xffffce2b
       37525000	      3751	00000000	00000013	addi	x0,x0,0	  x0:0x00000000
       37535000	      3752	80002fc0	00000013	addi	x0,x0,0	  x0:0x00000000
       37545000	      3753	80002fc4	006f4f33	xor	x30,x30,x6	 x30:0x00393a41  x6:0x00000000 x30=0x00393a41
       37555000	      3754	80002fc8	00998c33	add	x24,x19,x9	 x19:0x00000000  x9:0x00000000 x24=0x00000000
       37565000	      3755	80002fcc	00000013	addi	x0,x0,0	  x0:0x00000000
       37575000	      3756	80002fd0	cf3201b7	lui	x3,0xcf320	  x3=0xcf320000
       37585000	      3757	80002fd4	00cd2633	slt	x12,x26,x12	 x26:0x00000000 x12:0x27bcdfb0 x12=0x00000001
       37595000	      3758	80002fd8	013dd393	srli	x7,x27,0x13	 x27:0x00000608  x7=0x00000000
       37605000	      3759	80002fdc	0092eb33	or	x22,x5,x9	  x5:0x7ffffb34  x9:0x00000000 x22=0x7ffffb34
       37615000	      3760	80002fe0	014f7db3	and	x27,x30,x20	 x30:0x00393a41 x20:0xe4e90541 x27=0x00290041
       37625000	      3761	80002fe4	00e405b3	add	x11,x8,x14	  x8:0x00000000 x14:0x80009fc4 x11=0x80009fc4
       37635000	      3762	80002fe8	00eace63	blt	x21,x14,80003004	 x21:0xfeffce2b x14:0x80009fc4
       37645000	      3763	80002fec	0433d063	bge	x7,x3,8000302c	  x7:0x00000000  x3:0xcf320000
       37655000	      3764	00000000	00000013	addi	x0,x0,0	  x0:0x00000000
       37665000	      3765	80003028	00000013	addi	x0,x0,0	  x0:0x00000000
       37675000	      3766	8000302c	27d08113	addi	x2,x1,637	  x1:0x00000000  x2=0x0000027d
       37685000	      3767	80003030	0204e263	bltu	x9,x0,80003054	  x9:0x00000000  x0:0x00000000
       37695000	      3768	80003034	db2ec413	xori	x8,x29,-590	 x29:0x0000018b  x8=0xfffffc39
       37705000	      3769	80003038	40c15033	sra	x0,x2,x12	  x2:0x0000027d x12:0x00000001
       37715000	      3770	8000303c	4183d9b3	sra	x19,x7,x24	  x7:0x00000000 x24:0x00000000 x19=0x00000000
       37725000	      3771	80003040	01d3fab3	and	x21,x7,x29	  x7:0x00000000 x29:0x0000018b x21=0x00000000
       37735000	      3772	80003044	8fa04193	xori	x3,x0,-1798	  x0:0x00000000  x3=0xfffff8fa
       37745000	      3773	80003048	00000013	addi	x0,x0,0	  x0:0x00000000
       37755000	      3774	8000304c	0087bc33	sltu	x24,x15,x8	 x15:0xfffffaca  x8:0xfffffc39 x24=0x00000001
       37765000	      3775	80003050	eabd3c13	sltiu	x24,x26,-341	 x26:0x00000000 x24=0x00000001
       37775000	      3776	80003054	01e37d33	and	x26,x6,x30	  x6:0x00000000 x30:0x00393a41 x26=0x00000000
       37785000	      3777	80003058	41755893	srai	x17,x10,0x17	 x10:0x00000334 x17=0x00000000
       37795000	      3778	8000305c	00d4cc63	blt	x9,x13,80003074	  x9:0x00000000 x13:0x000004f5
       37805000	      3779	00000000	00000013	addi	x0,x0,0	  x0:0x00000000
       37815000	      3780	80003070	00000013	addi	x0,x0,0	  x0:0x00000000
       37825000	      3781	80003074	01f0b4b3	sltu	x9,x1,x31	  x1:0x00000000 x31:0x80009ef8  x9=0x00000001
       37835000	      3782	80003078	0095a233	slt	x4,x11,x9	 x11:0x80009fc4  x9:0x00000001  x4=0x00000001
       37845000	      3783	8000307c	0066ca63	blt	x13,x6,80003090	 x13:0x000004f5  x6:0x00000000
       37855000	      3784	80003080	017a8433	add	x8,x21,x23	 x21:0x00000000 x23:0x799f0051  x8=0x799f0051
       37865000	      3785	80003084	01b8c4b3	xor	x9,x17,x27	 x17:0x00000000 x27:0x00290041  x9=0x00290041
       37875000	      3786	80003088	007614b3	sll	x9,x12,x7	 x12:0x00000001  x7:0x00000000  x9=0x00000001
       37885000	      3787	8000308c	01b525b3	slt	x11,x10,x27	 x10:0x00000334 x27:0x00290041 x11=0x00000001
       37895000	      3788	80003090	00ab4f33	xor	x30,x22,x10	 x22:0x7ffffb34 x10:0x00000334 x30=0x7ffff800
       37905000	      3789	80003094	02b0e663	bltu	x1,x11,800030c0	  x1:0x00000000 x11:0x00000001
       37915000	      3790	00000000	00000013	addi	x0,x0,0	  x0:0x00000000
       37925000	      3791	800030bc	00000013	addi	x0,x0,0	  x0:0x00000000
       37935000	      3792	800030c0	01d89263	bne	x17,x29,800030c4	 x17:0x00000000 x29:0x0000018b
       37945000	      3793	00000000	00000013	addi	x0,x0,0	  x0:0x00000000
       37955000	      3794	800030c0	00000013	addi	x0,x0,0	  x0:0x00000000
       37965000	      3795	800030c4	4160df13	srai	x30,x1,0x16	  x1:0x00000000 x30=0x00000000
       37975000	      3796	800030c8	01218e63	beq	x3,x18,800030e4	  x3:0xfffff8fa x18:0x80000028
       37985000	      3797	800030cc	00000013	addi	x0,x0,0	  x0:0x00000000
       37995000	      3798	800030d0	e1ffb513	sltiu	x10,x31,-481	 x31:0x80009ef8 x10=0x00000001
       38005000	      3799	800030d4	6b27fb97	auipc	x23,0x6b27f	 x23=0xeb2820d0
       38015000	      3800	800030d8	014cee63	bltu	x25,x20,800030f4	 x25:0xfeffce2b x20:0xe4e90541
       38025000	      3801	800030dc	23772813	slti	x16,x14,567	 x14:0x80009fc4 x16=0x00000001
       38035000	      3802	800030e0	6adc8613	addi	x12,x25,1709	 x25:0xfeffce2b x12=0xfeffd4d8
       38045000	      3803	800030e4	00b246b3	xor	x13,x4,x11	  x4:0x00000001 x11:0x00000001 x13=0x00000000
       38055000	      3804	800030e8	00e8adb3	slt	x27,x17,x14	 x17:0x00000000 x14:0x80009fc4 x27=0x00000000
       38065000	      3805	800030ec	01bcd193	srli	x3,x25,0x1b	 x25:0xfeffce2b  x3=0x0000001f
       38075000	      3806	800030f0	0053d933	srl	x18,x7,x5	  x7:0x00000000  x5:0x7ffffb34 x18=0x00000000
       38085000	      3807	800030f4	01261e33	sll	x28,x12,x18	 x12:0xfeffd4d8 x18:0x00000000 x28=0xfeffd4d8
       38095000	      3808	800030f8	7cf82493	slti	x9,x16,1999	 x16:0x00000001  x9=0x00000001
       38105000	      3809	800030fc	79cc8b93	addi	x23,x25,1948	 x25:0xfeffce2b x23=0xfeffd5c7
       38115000	      3810	80003100	04e80463	beq	x16,x14,80003148	 x16:0x00000001 x14:0x80009fc4
       38125000	      3811	80003104	00433c33	sltu	x24,x6,x4	  x6:0x00000000  x4:0x00000001 x24=0x00000001
       38135000	      3812	80003108	00a9d993	srli	x19,x19,0xa	 x19:0x00000000 x19=0x00000000
       38145000	      3813	8000310c	00000013	addi	x0,x0,0	  x0:0x00000000
       38155000	      3814	80003110	00b24263	blt	x4,x11,80003114	  x4:0x00000001 x11:0x00000001
       38165000	      3815	80003114	00a2b033	sltu	x0,x5,x10	  x5:0x7ffffb34 x10:0x00000001
       38175000	      3816	80003118	01ef5a63	bge	x30,x30,8000312c	 x30:0x00000000 x30:0x00000000
       38185000	      3817	00000000	00000013	addi	x0,x0,0	  x0:0x00000000
       38195000	      3818	80003128	00000013	addi	x0,x0,0	  x0:0x00000000
       38205000	      3819	8000312c	01d987b3	add	x15,x19,x29	 x19:0x00000000 x29:0x0000018b x15=0x0000018b
       38215000	      3820	80003130	db77c017	auipc	x0,0xdb77c	
       38225000	      3821	80003134	397b4917	auipc	x18,0x397b4	 x18=0xb97b7130
       38235000	      3822	80003138	012e9e63	bne	x29,x18,80003154	 x29:0x0000018b x18:0xb97b7130
       38245000	      3823	00000000	00000013	addi	x0,x0,0	  x0:0x00000000
       38255000	      3824	80003150	00000013	addi	x0,x0,0	  x0:0x00000000
       38265000	      3825	80003154	519a0813	addi	x16,x20,1305	 x20:0xe4e90541 x16=0xe4e90a5a
       38275000	      3826	80003158	32c08993	addi	x19,x1,812	  x1:0x00000000 x19=0x0000032c
       38285000	      3827	8000315c	05e8e063	bltu	x17,x30,8000319c	 x17:0x00000000 x30:0x00000000
       38295000	      3828	80003160	310fb293	sltiu	x5,x31,784	 x31:0x80009ef8  x5=0x00000000
       38305000	      3829	80003164	0007de93	srli	x29,x15,0x0	 x15:0x0000018b x29=0x0000018b
       38315000	      3830	80003168	84620c17	auipc	x24,0x84620	 x24=0x04623164
       38325000	      3831	8000316c	016be033	or	x0,x23,x22	 x23:0xfeffd5c7 x22:0x7ffffb34
       38335000	      3832	80003170	00329b93	slli	x23,x5,0x3	  x5:0x00000000 x23=0x00000000
       38345000	      3833	80003174	04cbc063	blt	x23,x12,800031b4	 x23:0x00000000 x12:0xfeffd4d8
       38355000	      3834	80003178	99ee4a93	xori	x21,x28,-1634	 x28:0xfeffd4d8 x21=0x01002d46
       38365000	      3835	8000317c	0169d233	srl	x4,x19,x22	 x19:0x0000032c x22:0x7ffffb34  x4=0x00000000
       38375000	      3836	80003180	0172d2b3	srl	x5,x5,x23	  x5:0x00000000 x23:0x00000000  x5=0x00000000
       38385000	      3837	80003184	41c7dab3	sra	x21,x15,x28	 x15:0x0000018b x28:0xfeffd4d8 x21=0x00000000
       38395000	      3838	80003188	005dd4b3	srl	x9,x27,x5	 x27:0x00000000  x5:0x00000000  x9=0x00000000
       38405000	      3839	8000318c	5b34a613	slti	x12,x9,1459	  x9:0x00000000 x12=0x00000001
       38415000	      3840	80003190	01eb4bb3	xor	x23,x22,x30	 x22:0x7ffffb34 x30:0x00000000 x23=0x7ffffb34
       38425000	      3841	80003194	4106de33	sra	x28,x13,x16	 x13:0x00000000 x16:0xe4e90a5a x28=0x00000000
       38435000	      3842	80003198	0011f5b3	and	x11,x3,x1	  x3:0x0000001f  x1:0x00000000 x11=0x00000000
       38445000	      3843	8000319c	003c97b3	sll	x15,x25,x3	 x25:0xfeffce2b  x3:0x0000001f x15=0x80000000
       38455000	      3844	800031a0	4211f493	andi	x9,x3,1057	  x3:0x0000001f  x9=0x00000001
       38465000	      3845	800031a4	05671063	bne	x14,x22,800031e4	 x14:0x80009fc4 x22:0x7ffffb34
       38475000	      3846	00000000	00000013	addi	x0,x0,0	  x0:0x00000000
       38485000	      3847	800031e0	00000013	addi	x0,x0,0	  x0:0x00000000
       38495000	      3848	800031e4	406ed3b3	sra	x7,x29,x6	 x29:0x0000018b  x6:0x00000000  x7=0x0000018b
       38505000	      3849	800031e8	197ac197	auipc	x3,0x197ac	  x3=0x997af1e4
       38515000	      3850	800031ec	015c9b13	slli	x22,x25,0x15	 x25:0xfeffce2b x22=0xc5600000
       38525000	      3851	800031f0	00000013	addi	x0,x0,0	  x0:0x00000000
       38535000	      3852	800031f4	00133933	sltu	x18,x6,x1	  x6:0x00000000  x1:0x00000000 x18=0x00000000
       38545000	      3853	800031f8	040f0263	beq	x30,x0,8000323c	 x30:0x00000000  x0:0x00000000
       38555000	      3854	00000000	00000013	addi	x0,x0,0	  x0:0x00000000
       38565000	      3855	80003238	00000013	addi	x0,x0,0	  x0:0x00000000
       38575000	      3856	8000323c	00000013	addi	x0,x0,0	  x0:0x00000000
       38585000	      3857	80003240	0151cc63	blt	x3,x21,80003258	  x3:0x997af1e4 x21:0x00000000
       38595000	      3858	00000000	00000013	addi	x0,x0,0	  x0:0x00000000
       38605000	      3859	80003254	00000013	addi	x0,x0,0	  x0:0x00000000
       38615000	      3860	80003258	04575263	bge	x14,x5,8000329c	 x14:0x80009fc4  x5:0x00000000
       38625000	      3861	8000325c	01e9f633	and	x12,x19,x30	 x19:0x0000032c x30:0x00000000 x12=0x00000000
       38635000	      3862	80003260	01d25463	bge	x4,x29,80003268	  x4:0x00000000 x29:0x0000018b
       38645000	      3863	80003264	0167d663	bge	x15,x22,80003270	 x15:0x80000000 x22:0xc5600000
       38655000	      3864	80003268	04f6f863	bgeu	x13,x15,800032b8	 x13:0x00000000 x15:0x80000000
       38665000	      3865	8000326c	013602b3	add	x5,x12,x19	 x12:0x00000000 x19:0x0000032c  x5=0x0000032c
       38675000	      3866	80003270	01018c33	add	x24,x3,x16	  x3:0x997af1e4 x16:0xe4e90a5a x24=0x7e63fc3e
       38685000	      3867	80003274	41565533	sra	x10,x12,x21	 x12:0x00000000 x21:0x00000000 x10=0x00000000
       38695000	      3868	80003278	0199c9b3	xor	x19,x19,x25	 x19:0x0000032c x25:0xfeffce2b x19=0xfeffcd07
       38705000	      3869	8000327c	00fae633	or	x12,x21,x15	 x21:0x00000000 x15:0x80000000 x12=0x80000000
       38715000	      3870	80003280	11870293	addi	x5,x14,280	 x14:0x80009fc4  x5=0x8000a0dc
       38725000	      3871	80003284	00000013	addi	x0,x0,0	  x0:0x00000000
       38735000	      3872	80003288	8448c293	xori	x5,x17,-1980	 x17:0x00000000  x5=0xfffff844
       38745000	      3873	8000328c	016aa233	slt	x4,x21,x22	 x21:0x00000000 x22:0xc5600000  x4=0x00000000
       38755000	      3874	80003290	00a557b3	srl	x15,x10,x10	 x10:0x00000000 x10:0x00000000 x15=0x00000000
       38765000	      3875	80003294	00d84663	blt	x16,x13,800032a0	 x16:0xe4e90a5a x13:0x00000000
       38775000	      3876	00000000	00000013	addi	x0,x0,0	  x0:0x00000000
       38785000	      3877	8000329c	00000013	addi	x0,x0,0	  x0:0x00000000
       38795000	      3878	800032a0	01462433	slt	x8,x12,x20	 x12:0x80000000 x20:0xe4e90541  x8=0x00000001
       38805000	      3879	800032a4	415e5633	sra	x12,x28,x21	 x28:0x00000000 x21:0x00000000 x12=0x00000000
       38815000	      3880	800032a8	4ddae217	auipc	x4,0x4ddae	  x4=0xcddb12a4
       38825000	      3881	800032ac	4180d3b3	sra	x7,x1,x24	  x1:0x00000000 x24:0x7e63fc3e  x7=0x00000000
       38835000	      3882	800032b0	01e8de63	bge	x17,x30,800032cc	 x17:0x00000000 x30:0x00000000
       38845000	      3883	00000000	00000013	addi	x0,x0,0	  x0:0x00000000
       38855000	      3884	800032c8	00000013	addi	x0,x0,0	  x0:0x00000000
       38865000	      3885	800032cc	cd26cb93	xori	x23,x13,-814	 x13:0x00000000 x23=0xfffffcd2
       38875000	      3886	800032d0	05b81063	bne	x16,x27,80003310	 x16:0xe4e90a5a x27:0x00000000
       38885000	      3887	00000000	00000013	addi	x0,x0,0	  x0:0x00000000
       38895000	      3888	8000330c	00000013	addi	x0,x0,0	  x0:0x00000000
       38905000	      3889	80003310	01acce63	blt	x25,x26,8000332c	 x25:0xfeffce2b x26:0x00000000
       38915000	      3890	00000000	00000013	addi	x0,x0,0	  x0:0x00000000
       38925000	      3891	80003328	00000013	addi	x0,x0,0	  x0:0x00000000
       38935000	      3892	8000332c	ac774e13	xori	x28,x14,-1337	 x14:0x80009fc4 x28=0x7fff6503
       38945000	      3893	80003330	01703833	sltu	x16,x0,x23	  x0:0x00000000 x23:0xfffffcd2 x16=0x00000001
       38955000	      3894	80003334	efaf4613	xori	x12,x30,-262	 x30:0x00000000 x12=0xfffffefa
       38965000	      3895	80003338	01d6cf33	xor	x30,x13,x29	 x13:0x00000000 x29:0x0000018b x30=0x0000018b
       38975000	      3896	8000333c	01923eb3	sltu	x29,x4,x25	  x4:0xcddb12a4 x25:0xfeffce2b x29=0x00000001
       38985000	      3897	80003340	eb58c193	xori	x3,x17,-331	 x17:0x00000000  x3=0xfffffeb5
       38995000	      3898	80003344	00405b33	srl	x22,x0,x4	  x0:0x00000000  x4:0xcddb12a4 x22=0x00000000
       39005000	      3899	80003348	01910c33	add	x24,x2,x25	  x2:0x0000027d x25:0xfeffce2b x24=0xfeffd0a8
       39015000	      3900	8000334c	05aa8863	beq	x21,x26,8000339c	 x21:0x00000000 x26:0x00000000
       39025000	      3901	00000000	00000013	addi	x0,x0,0	  x0:0x00000000
       39035000	      3902	80003398	00000013	addi	x0,x0,0	  x0:0x00000000
       39045000	      3903	8000339c	016ae1b3	or	x3,x21,x22	 x21:0x00000000 x22:0x00000000  x3=0x00000000
       39055000	      3904	800033a0	b9ca2893	slti	x17,x20,-1124	 x20:0xe4e90541 x17=0x00000001
       39065000	      3905	800033a4	57ed4393	xori	x7,x26,1406	 x26:0x00000000  x7=0x0000057e
       39075000	      3906	800033a8	013ed333	srl	x6,x29,x19	 x29:0x00000001 x19:0xfeffcd07  x6=0x00000000
       39085000	      3907	800033ac	04756863	bltu	x10,x7,800033fc	 x10:0x00000000  x7:0x0000057e
       39095000	      3908	00000000	00000013	addi	x0,x0,0	  x0:0x00000000
       39105000	      3909	800033f8	00000013	addi	x0,x0,0	  x0:0x00000000
       39115000	      3910	800033fc	7d0b8493	addi	x9,x23,2000	 x23:0xfffffcd2  x9=0x000004a2
       39125000	      3911	80003400	01676c63	bltu	x14,x22,80003418	 x14:0x80009fc4 x22:0x00000000
       39135000	      3912	80003404	000ddb13	srli	x22,x27,0x0	 x27:0x00000000 x22=0x00000000
       39145000	      3913	80003408	01185113	srli	x2,x16,0x11	 x16:0x00000001  x2=0x00000000
       39155000	      3914	8000340c	c216d917	auipc	x18,0xc216d	 x18=0x42170408
       39165000	      3915	80003410	00035193	srli	x3,x6,0x0	  x6:0x00000000  x3=0x00000000
       39175000	      3916	80003414	00645d13	srli	x26,x8,0x6	  x8:0x00000001 x26=0x00000000
       39185000	      3917	80003418	09832837	lui	x16,0x9832	 x16=0x09832000
       39195000	      3918	8000341c	013880b3	add	x1,x17,x19	 x17:0x00000001 x19:0xfeffcd07  x1=0xfeffcd08
       39205000	      3919	80003420	3ca5c913	xori	x18,x11,970	 x11:0x00000000 x18=0x000003ca
       39215000	      3920	80003424	0060ec33	or	x24,x1,x6	  x1:0xfeffcd08  x6:0x00000000 x24=0xfeffcd08
       39225000	      3921	80003428	01b44bb3	xor	x23,x8,x27	  x8:0x00000001 x27:0x00000000 x23=0x00000001
       39235000	      3922	8000342c	4146dc33	sra	x24,x13,x20	 x13:0x00000000 x20:0xe4e90541 x24=0x00000000
       39245000	      3923	80003430	88cd0813	addi	x16,x26,-1908	 x26:0x00000000 x16=0xfffff88c
       39255000	      3924	80003434	01aff9b3	and	x19,x31,x26	 x31:0x80009ef8 x26:0x00000000 x19=0x00000000
       39265000	      3925	80003438	02c2ec63	bltu	x5,x12,80003470	  x5:0xfffff844 x12:0xfffffefa
       39275000	      3926	00000000	00000013	addi	x0,x0,0	  x0:0x00000000
       39285000	      3927	8000346c	00000013	addi	x0,x0,0	  x0:0x00000000
       39295000	      3928	80003470	00006663	bltu	x0,x0,8000347c	  x0:0x00000000  x0:0x00000000
       39305000	      3929	80003474	0328ec63	bltu	x17,x18,800034ac	 x17:0x00000001 x18:0x000003ca
       39315000	      3930	00000000	00000013	addi	x0,x0,0	  x0:0x00000000
       39325000	      3931	800034a8	00000013	addi	x0,x0,0	  x0:0x00000000
       39335000	      3932	800034ac	400a8b33	sub	x22,x21,x0	 x21:0x00000000  x0:0x00000000 x22=0x00000000
       39345000	      3933	800034b0	290a8f13	addi	x30,x21,656	 x21:0x00000000 x30=0x00000290
       39355000	      3934	800034b4	369b4893	xori	x17,x22,873	 x22:0x00000000 x17=0x00000369
       39365000	      3935	800034b8	0147fe63	bgeu	x15,x20,800034d4	 x15:0x00000000 x20:0xe4e90541
       39375000	      3936	800034bc	042b6263	bltu	x22,x2,80003500	 x22:0x00000000  x2:0x00000000
       39385000	      3937	800034c0	41da0133	sub	x2,x20,x29	 x20:0xe4e90541 x29:0x00000001  x2=0xe4e90540
       39395000	      3938	800034c4	41905233	sra	x4,x0,x25	  x0:0x00000000 x25:0xfeffce2b  x4=0x00000000
       39405000	      3939	800034c8	41d08233	sub	x4,x1,x29	  x1:0xfeffcd08 x29:0x00000001  x4=0xfeffcd07
       39415000	      3940	800034cc	01f21813	slli	x16,x4,0x1f	  x4:0xfeffcd07 x16=0x80000000
       39425000	      3941	800034d0	03ad5c63	bge	x26,x26,80003508	 x26:0x00000000 x26:0x00000000
       39435000	      3942	00000000	00000013	addi	x0,x0,0	  x0:0x00000000
       39445000	      3943	80003504	00000013	addi	x0,x0,0	  x0:0x00000000
       39455000	      3944	80003508	40c65493	srai	x9,x12,0xc	 x12:0xfffffefa  x9=0xffffffff
       39465000	      3945	8000350c	b2388193	addi	x3,x17,-1245	 x17:0x00000369  x3=0xfffffe8c
       39475000	      3946	80003510	89b98893	addi	x17,x19,-1893	 x19:0x00000000 x17=0xfffff89b
       39485000	      3947	80003514	00000013	addi	x0,x0,0	  x0:0x00000000
       39495000	      3948	80003518	772e6493	ori	x9,x28,1906	 x28:0x7fff6503  x9=0x7fff6773
       39505000	      3949	8000351c	695e0513	addi	x10,x28,1685	 x28:0x7fff6503 x10=0x7fff6b98
       39515000	      3950	80003520	0044b4b3	sltu	x9,x9,x4	  x9:0x7fff6773  x4:0xfeffcd07  x9=0x00000001
       39525000	      3951	80003524	83a96e13	ori	x28,x18,-1990	 x18:0x000003ca x28=0xfffffbfa
       39535000	      3952	80003528	01772cb3	slt	x25,x14,x23	 x14:0x80009fc4 x23:0x00000001 x25=0x00000001
       39545000	      3953	8000352c	47e04913	xori	x18,x0,1150	  x0:0x00000000 x18=0x0000047e
       39555000	      3954	80003530	5a9df993	andi	x19,x27,1449	 x27:0x00000000 x19=0x00000000
       39565000	      3955	80003534	01d8e1b3	or	x3,x17,x29	 x17:0xfffff89b x29:0x00000001  x3=0xfffff89b
       39575000	      3956	80003538	000d6333	or	x6,x26,x0	 x26:0x00000000  x0:0x00000000  x6=0x00000000
       39585000	      3957	8000353c	0364ca63	blt	x9,x22,80003570	  x9:0x00000001 x22:0x00000000
       39595000	      3958	80003540	00857c63	bgeu	x10,x8,80003558	 x10:0x7fff6b98  x8:0x00000001
       39605000	      3959	00000000	00000013	addi	x0,x0,0	  x0:0x00000000
       39615000	      3960	80003554	00000013	addi	x0,x0,0	  x0:0x00000000
       39625000	      3961	80003558	8b2e0193	addi	x3,x28,-1870	 x28:0xfffffbfa  x3=0xfffff4ac
       39635000	      3962	8000355c	0aa3a693	slti	x13,x7,170	  x7:0x0000057e x13=0x00000000
       39645000	      3963	80003560	02d7e463	bltu	x15,x13,80003588	 x15:0x00000000 x13:0x00000000
       39655000	      3964	80003564	5ab53293	sltiu	x5,x10,1451	 x10:0x7fff6b98  x5=0x00000000
       39665000	      3965	80003568	0ca90293	addi	x5,x18,202	 x18:0x0000047e  x5=0x00000548
       39675000	      3966	8000356c	4001d693	srai	x13,x3,0x0	  x3:0xfffff4ac x13=0xfffff4ac
       39685000	      3967	80003570	fce83e13	sltiu	x28,x16,-50	 x16:0x80000000 x28=0x00000001
       39695000	      3968	80003574	01bad593	srli	x11,x21,0x1b	 x21:0x00000000 x11=0x00000000
       39705000	      3969	80003578	404250b3	sra	x1,x4,x4	  x4:0xfeffcd07  x4:0xfeffcd07  x1=0xfffdff9a
       39715000	      3970	8000357c	8a33e393	ori	x7,x7,-1885	  x7:0x0000057e  x7=0xfffffdff
       39725000	      3971	80003580	04074463	blt	x14,x0,800035c8	 x14:0x80009fc4  x0:0x00000000
       39735000	      3972	00000000	00000013	addi	x0,x0,0	  x0:0x00000000
       39745000	      3973	800035c4	00000013	addi	x0,x0,0	  x0:0x00000000
       39755000	      3974	800035c8	0577c863	blt	x15,x23,80003618	 x15:0x00000000 x23:0x00000001
       39765000	      3975	00000000	00000013	addi	x0,x0,0	  x0:0x00000000
       39775000	      3976	80003614	00000013	addi	x0,x0,0	  x0:0x00000000
       39785000	      3977	80003618	05e79863	bne	x15,x30,80003668	 x15:0x00000000 x30:0x00000290
       39795000	      3978	00000000	00000013	addi	x0,x0,0	  x0:0x00000000
       39805000	      3979	80003664	00000013	addi	x0,x0,0	  x0:0x00000000
       39815000	      3980	80003668	ef910c93	addi	x25,x2,-263	  x2:0xe4e90540 x25=0xe4e90439
       39825000	      3981	8000366c	401ad8b3	sra	x17,x21,x1	 x21:0x00000000  x1:0xfffdff9a x17=0x00000000
       39835000	      3982	80003670	01df70b3	and	x1,x30,x29	 x30:0x00000290 x29:0x00000001  x1=0x00000000
       39845000	      3983	80003674	01156033	or	x0,x10,x17	 x10:0x7fff6b98 x17:0x00000000
       39855000	      3984	80003678	01a99413	slli	x8,x19,0x1a	 x19:0x00000000  x8=0x00000000
       39865000	      3985	8000367c	40788db3	sub	x27,x17,x7	 x17:0x00000000  x7:0xfffffdff x27=0x00000201
       39875000	      3986	80003680	00da1263	bne	x20,x13,80003684	 x20:0xe4e90541 x13:0xfffff4ac
       39885000	      3987	00000000	00000013	addi	x0,x0,0	  x0:0x00000000
       39895000	      3988	80003680	00000013	addi	x0,x0,0	  x0:0x00000000
       39905000	      3989	80003684	01c82b33	slt	x22,x16,x28	 x16:0x80000000 x28:0x00000001 x22=0x00000001
       39915000	      3990	80003688	a53e4993	xori	x19,x28,-1453	 x28:0x00000001 x19=0xfffffa52
       39925000	      3991	8000368c	0fa37497	auipc	x9,0xfa37	  x9=0x8fa3a688
       39935000	      3992	80003690	01519663	bne	x3,x21,8000369c	  x3:0xfffff4ac x21:0x00000000
       39945000	      3993	00000000	00000013	addi	x0,x0,0	  x0:0x00000000
       39955000	      3994	80003698	00000013	addi	x0,x0,0	  x0:0x00000000
       39965000	      3995	8000369c	d88d2913	slti	x18,x26,-632	 x26:0x00000000 x18=0x00000000
       39975000	      3996	800036a0	015073b3	and	x7,x0,x21	  x0:0x00000000 x21:0x00000000  x7=0x00000000
       39985000	      3997	800036a4	03494663	blt	x18,x20,800036d0	 x18:0x00000000 x20:0xe4e90541
       39995000	      3998	800036a8	00000013	addi	x0,x0,0	  x0:0x00000000
       40005000	      3999	800036ac	00000013	addi	x0,x0,0	  x0:0x00000000
       40015000	      4000	800036b0	00eb5a63	bge	x22,x14,800036c4	 x22:0x00000001 x14:0x80009fc4
       40025000	      4001	00000000	00000013	addi	x0,x0,0	  x0:0x00000000
       40035000	      4002	800036c0	00000013	addi	x0,x0,0	  x0:0x00000000
       40045000	      4003	800036c4	02448263	beq	x9,x4,800036e8	  x9:0x8fa3a688  x4:0xfeffcd07
       40055000	      4004	800036c8	00375333	srl	x6,x14,x3	 x14:0x80009fc4  x3:0xfffff4ac  x6=0x00080009
       40065000	      4005	800036cc	016b6663	bltu	x22,x22,800036d8	 x22:0x00000001 x22:0x00000001
       40075000	      4006	800036d0	e3e9f793	andi	x15,x19,-450	 x19:0xfffffa52 x15=0xfffffa12
       40085000	      4007	800036d4	402ed393	srai	x7,x29,0x2	 x29:0x00000001  x7=0x00000000
       40095000	      4008	800036d8	04f79463	bne	x15,x15,80003720	 x15:0xfffffa12 x15:0xfffffa12
       40105000	      4009	800036dc	c8106d13	ori	x26,x0,-895	  x0:0x00000000 x26=0xfffffc81
       40115000	      4010	800036e0	1d2c7037	lui	x0,0x1d2c7	
       40125000	      4011	800036e4	52fe20b7	lui	x1,0x52fe2	  x1=0x52fe2000
       40135000	      4012	800036e8	01287e63	bgeu	x16,x18,80003704	 x16:0x80000000 x18:0x00000000
       40145000	      4013	00000000	00000013	addi	x0,x0,0	  x0:0x00000000
       40155000	      4014	80003700	00000013	addi	x0,x0,0	  x0:0x00000000
       40165000	      4015	80003704	199ab493	sltiu	x9,x21,409	 x21:0x00000000  x9=0x00000001
       40175000	      4016	80003708	e5702d37	lui	x26,0xe5702	 x26=0xe5702000
       40185000	      4017	8000370c	5d022893	slti	x17,x4,1488	  x4:0xfeffcd07 x17=0x00000001
       40195000	      4018	80003710	41c85313	srai	x6,x16,0x1c	 x16:0x80000000  x6=0xfffffff8
       40205000	      4019	80003714	13592ab7	lui	x21,0x13592	 x21=0x13592000
       40215000	      4020	80003718	00dbe833	or	x16,x23,x13	 x23:0x00000001 x13:0xfffff4ac x16=0xfffff4ad
       40225000	      4021	8000371c	40468833	sub	x16,x13,x4	 x13:0xfffff4ac  x4:0xfeffcd07 x16=0x010027a5
       40235000	      4022	80003720	0b7cb613	sltiu	x12,x25,183	 x25:0xe4e90439 x12=0x00000000
       40245000	      4023	80003724	0050d233	srl	x4,x1,x5	  x1:0x52fe2000  x5:0x00000548  x4=0x0052fe20
       40255000	      4024	80003728	0024d033	srl	x0,x9,x2	  x9:0x00000001  x2:0xe4e90540
       40265000	      4025	8000372c	014f5e63	bge	x30,x20,80003748	 x30:0x00000290 x20:0xe4e90541
       40275000	      4026	00000000	00000013	addi	x0,x0,0	  x0:0x00000000
       40285000	      4027	80003744	00000013	addi	x0,x0,0	  x0:0x00000000
       40295000	      4028	80003748	002c1663	bne	x24,x2,80003754	 x24:0x00000000  x2:0xe4e90540
       40305000	      4029	00000000	00000013	addi	x0,x0,0	  x0:0x00000000
       40315000	      4030	80003750	00000013	addi	x0,x0,0	  x0:0x00000000
       40325000	      4031	80003754	01bec8b3	xor	x17,x29,x27	 x29:0x00000001 x27:0x00000201 x17=0x00000200
       40335000	      4032	80003758	00cfc2b3	xor	x5,x31,x12	 x31:0x80009ef8 x12:0x00000000  x5=0x80009ef8
       40345000	      4033	8000375c	570aa617	auipc	x12,0x570aa	 x12=0xd70ad758
       40355000	      4034	80003760	58667813	andi	x16,x12,1414	 x12:0xd70ad758 x16=0x00000500
       40365000	      4035	80003764	005f7333	and	x6,x30,x5	 x30:0x00000290  x5:0x80009ef8  x6=0x00000290
       40375000	      4036	80003768	40b55113	srai	x2,x10,0xb	 x10:0x7fff6b98  x2=0x000fffed
       40385000	      4037	8000376c	052bc863	blt	x23,x18,800037bc	 x23:0x00000001 x18:0x00000000
       40395000	      4038	80003770	00000013	addi	x0,x0,0	  x0:0x00000000
       40405000	      4039	80003774	410c5993	srai	x19,x24,0x10	 x24:0x00000000 x19=0x00000000
       40415000	      4040	80003778	55ea0993	addi	x19,x20,1374	 x20:0xe4e90541 x19=0xe4e90a9f
       40425000	      4041	8000377c	e7c5c537	lui	x10,0xe7c5c	 x10=0xe7c5c000
       40435000	      4042	80003780	01f20333	add	x6,x4,x31	  x4:0x0052fe20 x31:0x80009ef8  x6=0x80539d18
       40445000	      4043	80003784	00000013	addi	x0,x0,0	  x0:0x00000000
       40455000	      4044	80003788	53477f17	auipc	x30,0x53477	 x30=0xd347a784
       40465000	      4045	8000378c	00830463	beq	x6,x8,80003794	  x6:0x80539d18  x8:0x00000000
       40475000	      4046	80003790	00d08d33	add	x26,x1,x13	  x1:0x52fe2000 x13:0xfffff4ac x26=0x52fe14ac
       40485000	      4047	80003794	0156e4b3	or	x9,x13,x21	 x13:0xfffff4ac x21:0x13592000  x9=0xfffff4ac
       40495000	      4048	80003798	ea093217	auipc	x4,0xea093	  x4=0x6a096794
       40505000	      4049	8000379c	01261ab3	sll	x21,x12,x18	 x12:0xd70ad758 x18:0x00000000 x21=0xd70ad758
       40515000	      4050	800037a0	00328433	add	x8,x5,x3	  x5:0x80009ef8  x3:0xfffff4ac  x8=0x800093a4
       40525000	      4051	800037a4	41aa8233	sub	x4,x21,x26	 x21:0xd70ad758 x26:0x52fe14ac  x4=0x840cc2ac
       40535000	      4052	800037a8	60156837	lui	x16,0x60156	 x16=0x60156000
       40545000	      4053	800037ac	019725b3	slt	x11,x14,x25	 x14:0x80009fc4 x25:0xe4e90439 x11=0x00000001
       40555000	      4054	800037b0	55f73093	sltiu	x1,x14,1375	 x14:0x80009fc4  x1=0x00000000
       40565000	      4055	800037b4	013235b3	sltu	x11,x4,x19	  x4:0x840cc2ac x19:0xe4e90a9f x11=0x00000001
       40575000	      4056	800037b8	0075d263	bge	x11,x7,800037bc	 x11:0x00000001  x7:0x00000000
       40585000	      4057	00000000	00000013	addi	x0,x0,0	  x0:0x00000000
       40595000	      4058	800037b8	00000013	addi	x0,x0,0	  x0:0x00000000
       40605000	      4059	800037bc	011ad9b3	srl	x19,x21,x17	 x21:0xd70ad758 x17:0x00000200 x19=0xd70ad758
       40615000	      4060	800037c0	011bc1b3	xor	x3,x23,x17	 x23:0x00000001 x17:0x00000200  x3=0x00000201
       40625000	      4061	800037c4	01a2d013	srli	x0,x5,0x1a	  x5:0x80009ef8
       40635000	      4062	800037c8	00c066b3	or	x13,x0,x12	  x0:0x00000000 x12:0xd70ad758 x13=0xd70ad758
       40645000	      4063	800037cc	010e9993	slli	x19,x29,0x10	 x29:0x00000001 x19=0x00010000
       40655000	      4064	800037d0	40c88d33	sub	x26,x17,x12	 x17:0x00000200 x12:0xd70ad758 x26=0x28f52aa8
       40665000	      4065	800037d4	043cd063	bge	x25,x3,80003814	 x25:0xe4e90439  x3:0x00000201
       40675000	      4066	800037d8	404f0433	sub	x8,x30,x4	 x30:0xd347a784  x4:0x840cc2ac  x8=0x4f3ae4d8
       40685000	      4067	800037dc	0139d593	srli	x11,x19,0x13	 x19:0x00010000 x11=0x00000000
       40695000	      4068	800037e0	00be6033	or	x0,x28,x11	 x28:0x00000001 x11:0x00000000
       40705000	      4069	800037e4	02b76063	bltu	x14,x11,80003804	 x14:0x80009fc4 x11:0x00000000
       40715000	      4070	800037e8	012729b3	slt	x19,x14,x18	 x14:0x80009fc4 x18:0x00000000 x19=0x00000001
       40725000	      4071	800037ec	1f322537	lui	x10,0x1f322	 x10=0x1f322000
       40735000	      4072	800037f0	40355f33	sra	x30,x10,x3	 x10:0x1f322000  x3:0x00000201 x30=0x0f991000
       40745000	      4073	800037f4	01c1ce63	blt	x3,x28,80003810	  x3:0x00000201 x28:0x00000001
       40755000	      4074	800037f8	00939213	slli	x4,x7,0x9	  x7:0x00000000  x4=0x00000000
       40765000	      4075	800037fc	dd766597	auipc	x11,0xdd766	 x11=0x5d7697f8
       40775000	      4076	80003800	00c51a63	bne	x10,x12,80003814	 x10:0x1f322000 x12:0xd70ad758
       40785000	      4077	00000000	00000013	addi	x0,x0,0	  x0:0x00000000
       40795000	      4078	80003810	00000013	addi	x0,x0,0	  x0:0x00000000
       40805000	      4079	80003814	00000013	addi	x0,x0,0	  x0:0x00000000
       40815000	      4080	80003818	01b7ce63	blt	x15,x27,80003834	 x15:0xfffffa12 x27:0x00000201
       40825000	      4081	00000000	00000013	addi	x0,x0,0	  x0:0x00000000
       40835000	      4082	80003830	00000013	addi	x0,x0,0	  x0:0x00000000
       40845000	      4083	80003834	41538933	sub	x18,x7,x21	  x7:0x00000000 x21:0xd70ad758 x18=0x28f528a8
       40855000	      4084	80003838	05148063	beq	x9,x17,80003878	  x9:0xfffff4ac x17:0x00000200
       40865000	      4085	8000383c	3ae8b313	sltiu	x6,x17,942	 x17:0x00000200  x6=0x00000001
       40875000	      4086	80003840	c6fb3c93	sltiu	x25,x22,-913	 x22:0x00000001 x25=0x00000001
       40885000	      4087	80003844	41135093	srai	x1,x6,0x11	  x6:0x00000001  x1=0x00000000
       40895000	      4088	80003848	2c462213	slti	x4,x12,708	 x12:0xd70ad758  x4=0x00000001
       40905000	      4089	8000384c	057d6863	bltu	x26,x23,8000389c	 x26:0x28f52aa8 x23:0x00000001
       40915000	      4090	80003850	0551d263	bge	x3,x21,80003894	  x3:0x00000201 x21:0xd70ad758
       40925000	      4091	00000000	00000013	addi	x0,x0,0	  x0:0x00000000
       40935000	      4092	80003890	00000013	addi	x0,x0,0	  x0:0x00000000
       40945000	      4093	80003894	b7577b97	auipc	x23,0xb7577	 x23=0x3757a890
       40955000	      4094	80003898	00340933	add	x18,x8,x3	  x8:0x4f3ae4d8  x3:0x00000201 x18=0x4f3ae6d9
       40965000	      4095	8000389c	b69e6c13	ori	x24,x28,-1175	 x28:0x00000001 x24=0xfffffb69
       40975000	      4096	800038a0	41e08b33	sub	x22,x1,x30	  x1:0x00000000 x30:0x0f991000 x22=0xf066f000
       40985000	      4097	800038a4	1a66e993	ori	x19,x13,422	 x13:0xd70ad758 x19=0xd70ad7fe
       40995000	      4098	800038a8	00765c63	bge	x12,x7,800038c0	 x12:0xd70ad758  x7:0x00000000
       41005000	      4099	800038ac	01c6a4b3	slt	x9,x13,x28	 x13:0xd70ad758 x28:0x00000001  x9=0x00000001
       41015000	      4100	800038b0	01417333	and	x6,x2,x20	  x2:0x000fffed x20:0xe4e90541  x6=0x00090541
       41025000	      4101	800038b4	003c5193	srli	x3,x24,0x3	 x24:0xfffffb69  x3=0x1fffff6d
       41035000	      4102	800038b8	5c6d7c13	andi	x24,x26,1478	 x26:0x28f52aa8 x24=0x00000080
       41045000	      4103	800038bc	005d8db3	add	x27,x27,x5	 x27:0x00000201  x5:0x80009ef8 x27=0x8000a0f9
       41055000	      4104	800038c0	01e1b933	sltu	x18,x3,x30	  x3:0x1fffff6d x30:0x0f991000 x18=0x00000000
       41065000	      4105	800038c4	01af1833	sll	x16,x30,x26	 x30:0x0f991000 x26:0x28f52aa8 x16=0x99100000
       41075000	      4106	800038c8	40165533	sra	x10,x12,x1	 x12:0xd70ad758  x1:0x00000000 x10=0xd70ad758
       41085000	      4107	800038cc	01e5b533	sltu	x10,x11,x30	 x11:0x5d7697f8 x30:0x0f991000 x10=0x00000000
       41095000	      4108	800038d0	82de8793	addi	x15,x29,-2003	 x29:0x00000001 x15=0xfffff82e
       41105000	      4109	800038d4	05027463	bgeu	x4,x16,8000391c	  x4:0x00000001 x16:0x99100000
       41115000	      4110	800038d8	c94f8c13	addi	x24,x31,-876	 x31:0x80009ef8 x24=0x80009b8c
       41125000	      4111	800038dc	415c06b3	sub	x13,x24,x21	 x24:0x80009b8c x21:0xd70ad758 x13=0xa8f5c434
       41135000	      4112	800038e0	01661db3	sll	x27,x12,x22	 x12:0xd70ad758 x22:0xf066f000 x27=0xd70ad758
       41145000	      4113	800038e4	00000013	addi	x0,x0,0	  x0:0x00000000
       41155000	      4114	800038e8	01ce4e33	xor	x28,x28,x28	 x28:0x00000001 x28:0x00000001 x28=0x00000000
       41165000	      4115	800038ec	02ae9263	bne	x29,x10,80003910	 x29:0x00000001 x10:0x00000000
       41175000	      4116	00000000	00000013	addi	x0,x0,0	  x0:0x00000000
       41185000	      4117	8000390c	00000013	addi	x0,x0,0	  x0:0x00000000
       41195000	      4118	80003910	04118863	beq	x3,x1,80003960	  x3:0x1fffff6d  x1:0x00000000
       41205000	      4119	80003914	287ab893	sltiu	x17,x21,647	 x21:0xd70ad758 x17=0x00000000
       41215000	      4120	80003918	4112d393	srai	x7,x5,0x11	  x5:0x80009ef8  x7=0xffffc000
       41225000	      4121	8000391c	01658db3	add	x27,x11,x22	 x11:0x5d7697f8 x22:0xf066f000 x27=0x4ddd87f8
       41235000	      4122	80003920	c13c95b7	lui	x11,0xc13c9	 x11=0xc13c9000
       41245000	      4123	80003924	0ee6ae13	slti	x28,x13,238	 x13:0xa8f5c434 x28=0x00000001
       41255000	      4124	80003928	a73e8813	addi	x16,x29,-1421	 x29:0x00000001 x16=0xfffffa74
       41265000	      4125	8000392c	7acf6d13	ori	x26,x30,1964	 x30:0x0f991000 x26=0x0f9917ac
       41275000	      4126	80003930	cf375597	auipc	x11,0xcf375	 x11=0x4f37892c
       41285000	      4127	80003934	00468bb3	add	x23,x13,x4	 x13:0xa8f5c434  x4:0x00000001 x23=0xa8f5c435
       41295000	      4128	80003938	02680463	beq	x16,x6,80003960	 x16:0xfffffa74  x6:0x00090541
       41305000	      4129	8000393c	0105fd33	and	x26,x11,x16	 x11:0x4f37892c x16:0xfffffa74 x26=0x4f378824
       41315000	      4130	80003940	416dd293	srai	x5,x27,0x16	 x27:0x4ddd87f8  x5=0x00000137
       41325000	      4131	80003944	00e9dc63	bge	x19,x14,8000395c	 x19:0xd70ad7fe x14:0x80009fc4
       41335000	      4132	00000000	00000013	addi	x0,x0,0	  x0:0x00000000
       41345000	      4133	80003958	00000013	addi	x0,x0,0	  x0:0x00000000
       41355000	      4134	8000395c	01bf2bb3	slt	x23,x30,x27	 x30:0x0f991000 x27:0x4ddd87f8 x23=0x00000001
       41365000	      4135	80003960	003a8663	beq	x21,x3,8000396c	 x21:0xd70ad758  x3:0x1fffff6d
       41375000	      4136	80003964	01598db3	add	x27,x19,x21	 x19:0xd70ad7fe x21:0xd70ad758 x27=0xae15af56
       41385000	      4137	80003968	00000013	addi	x0,x0,0	  x0:0x00000000
       41395000	      4138	8000396c	6b1d3b37	lui	x22,0x6b1d3	 x22=0x6b1d3000
       41405000	      4139	80003970	1e58e393	ori	x7,x17,485	 x17:0x00000000  x7=0x000001e5
       41415000	      4140	80003974	dd644793	xori	x15,x8,-554	  x8:0x4f3ae4d8 x15=0xb0c5190e
       41425000	      4141	80003978	00d6d293	srli	x5,x13,0xd	 x13:0xa8f5c434  x5=0x000547ae
       41435000	      4142	8000397c	03d44063	blt	x8,x29,8000399c	  x8:0x4f3ae4d8 x29:0x00000001
       41445000	      4143	80003980	009336b3	sltu	x13,x6,x9	  x6:0x00090541  x9:0x00000001 x13=0x00000000
       41455000	      4144	80003984	04704063	blt	x0,x7,800039c4	  x0:0x00000000  x7:0x000001e5
       41465000	      4145	00000000	00000013	addi	x0,x0,0	  x0:0x00000000
       41475000	      4146	800039c0	00000013	addi	x0,x0,0	  x0:0x00000000
       41485000	      4147	800039c4	40888b33	sub	x22,x17,x8	 x17:0x00000000  x8:0x4f3ae4d8 x22=0xb0c51b28
       41495000	      4148	800039c8	04084263	blt	x16,x0,80003a0c	 x16:0xfffffa74  x0:0x00000000
       41505000	      4149	00000000	00000013	addi	x0,x0,0	  x0:0x00000000
       41515000	      4150	80003a08	00000013	addi	x0,x0,0	  x0:0x00000000
       41525000	      4151	80003a0c	00cca0b3	slt	x1,x25,x12	 x25:0x00000001 x12:0xd70ad758  x1=0x00000000
       41535000	      4152	80003a10	01b9ce63	blt	x19,x27,80003a2c	 x19:0xd70ad7fe x27:0xae15af56
       41545000	      4153	80003a14	00dd1933	sll	x18,x26,x13	 x26:0x4f378824 x13:0x00000000 x18=0x4f378824
       41555000	      4154	80003a18	f65e7637	lui	x12,0xf65e7	 x12=0xf65e7000
       41565000	      4155	80003a1c	00620663	beq	x4,x6,80003a28	  x4:0x00000001  x6:0x00090541
       41575000	      4156	80003a20	591afa93	andi	x21,x21,1425	 x21:0xd70ad758 x21=0x00000510
       41585000	      4157	80003a24	15fbcb13	xori	x22,x23,351	 x23:0x00000001 x22=0x0000015e
       41595000	      4158	80003a28	01a7de63	bge	x15,x26,80003a44	 x15:0xb0c5190e x26:0x4f378824
       41605000	      4159	80003a2c	f1b5c197	auipc	x3,0xf1b5c	  x3=0x71b5fa28
       41615000	      4160	80003a30	dfa6f813	andi	x16,x13,-518	 x13:0x00000000 x16=0x00000000
       41625000	      4161	80003a34	40285193	srai	x3,x16,0x2	 x16:0x00000000  x3=0x00000000
       41635000	      4162	80003a38	4182dc13	srai	x24,x5,0x18	  x5:0x000547ae x24=0x00000000
       41645000	      4163	80003a3c	41d78d33	sub	x26,x15,x29	 x15:0xb0c5190e x29:0x00000001 x26=0xb0c5190d
       41655000	      4164	80003a40	9fa1a113	slti	x2,x3,-1542	  x3:0x00000000  x2=0x00000000
       41665000	      4165	80003a44	00f8ec63	bltu	x17,x15,80003a5c	 x17:0x00000000 x15:0xb0c5190e
       41675000	      4166	00000000	00000013	addi	x0,x0,0	  x0:0x00000000
       41685000	      4167	80003a58	00000013	addi	x0,x0,0	  x0:0x00000000
       41695000	      4168	80003a5c	90c7a393	slti	x7,x15,-1780	 x15:0xb0c5190e  x7=0x00000001
       41705000	      4169	80003a60	e06f7c13	andi	x24,x30,-506	 x30:0x0f991000 x24=0x0f991000
       41715000	      4170	80003a64	00000013	addi	x0,x0,0	  x0:0x00000000
       41725000	      4171	80003a68	01055e63	bge	x10,x16,80003a84	 x10:0x00000000 x16:0x00000000
       41735000	      4172	00000000	00000013	addi	x0,x0,0	  x0:0x00000000
       41745000	      4173	80003a80	00000013	addi	x0,x0,0	  x0:0x00000000
       41755000	      4174	80003a84	00a8a133	slt	x2,x17,x10	 x17:0x00000000 x10:0x00000000  x2=0x00000000
       41765000	      4175	80003a88	00e931b3	sltu	x3,x18,x14	 x18:0x4f378824 x14:0x80009fc4  x3=0x00000001
       41775000	      4176	80003a8c	018a3b33	sltu	x22,x20,x24	 x20:0xe4e90541 x24:0x0f991000 x22=0x00000000
       41785000	      4177	80003a90	00b45cb3	srl	x25,x8,x11	  x8:0x4f3ae4d8 x11:0x4f37892c x25=0x0004f3ae
       41795000	      4178	80003a94	05b29463	bne	x5,x27,80003adc	  x5:0x000547ae x27:0xae15af56
       41805000	      4179	00000000	00000013	addi	x0,x0,0	  x0:0x00000000
       41815000	      4180	80003ad8	00000013	addi	x0,x0,0	  x0:0x00000000
       41825000	      4181	80003adc	014ddcb3	srl	x25,x27,x20	 x27:0xae15af56 x20:0xe4e90541 x25=0x570ad7ab
       41835000	      4182	80003ae0	005135b3	sltu	x11,x2,x5	  x2:0x00000000  x5:0x000547ae x11=0x00000001
       41845000	      4183	80003ae4	53707393	andi	x7,x0,1335	  x0:0x00000000  x7=0x00000000
       41855000	      4184	80003ae8	01796e63	bltu	x18,x23,80003b04	 x18:0x4f378824 x23:0x00000001
       41865000	      4185	80003aec	f3472a93	slti	x21,x14,-204	 x14:0x80009fc4 x21=0x00000001
       41875000	      4186	80003af0	00ac8cb3	add	x25,x25,x10	 x25:0x570ad7ab x10:0x00000000 x25=0x570ad7ab
       41885000	      4187	80003af4	00378f33	add	x30,x15,x3	 x15:0xb0c5190e  x3:0x00000001 x30=0xb0c5190f
       41895000	      4188	80003af8	bc370d13	addi	x26,x14,-1085	 x14:0x80009fc4 x26=0x80009b87
       41905000	      4189	80003afc	e446fd13	andi	x26,x13,-444	 x13:0x00000000 x26=0x00000000
       41915000	      4190	80003b00	e29d2e13	slti	x28,x26,-471	 x26:0x00000000 x28=0x00000000
       41925000	      4191	80003b04	006a1e13	slli	x28,x20,0x6	 x20:0xe4e90541 x28=0x3a415040
       41935000	      4192	80003b08	013a1633	sll	x12,x20,x19	 x20:0xe4e90541 x19:0xd70ad7fe x12=0x40000000
       41945000	      4193	80003b0c	408dac13	slti	x24,x27,1032	 x27:0xae15af56 x24=0x00000001
       41955000	      4194	80003b10	01d64a63	blt	x12,x29,80003b24	 x12:0x40000000 x29:0x00000001
       41965000	      4195	80003b14	40b2db13	srai	x22,x5,0xb	  x5:0x000547ae x22=0x000000a8
       41975000	      4196	80003b18	01e4a7b3	slt	x15,x9,x30	  x9:0x00000001 x30:0xb0c5190f x15=0x00000000
       41985000	      4197	80003b1c	0142ce63	blt	x5,x20,80003b38	  x5:0x000547ae x20:0xe4e90541
       41995000	      4198	80003b20	f5e56d93	ori	x27,x10,-162	 x10:0x00000000 x27=0xffffff5e
       42005000	      4199	80003b24	44760e17	auipc	x28,0x44760	 x28=0xc4763b20
       42015000	      4200	80003b28	01d1ae33	slt	x28,x3,x29	  x3:0x00000001 x29:0x00000001 x28=0x00000000
       42025000	      4201	80003b2c	00f64e33	xor	x28,x12,x15	 x12:0x40000000 x15:0x00000000 x28=0x40000000
       42035000	      4202	80003b30	01cd6463	bltu	x26,x28,80003b38	 x26:0x00000000 x28:0x40000000
       42045000	      4203	00000000	00000013	addi	x0,x0,0	  x0:0x00000000
       42055000	      4204	80003b34	00000013	addi	x0,x0,0	  x0:0x00000000
       42065000	      4205	80003b38	00eb0a63	beq	x22,x14,80003b4c	 x22:0x000000a8 x14:0x80009fc4
       42075000	      4206	80003b3c	0135d2b3	srl	x5,x11,x19	 x11:0x00000001 x19:0xd70ad7fe  x5=0x00000000
       42085000	      4207	80003b40	0126ca63	blt	x13,x18,80003b54	 x13:0x00000000 x18:0x4f378824
       42095000	      4208	00000000	00000013	addi	x0,x0,0	  x0:0x00000000
       42105000	      4209	80003b50	00000013	addi	x0,x0,0	  x0:0x00000000
       42115000	      4210	80003b54	949a8013	addi	x0,x21,-1719	 x21:0x00000001
       42125000	      4211	80003b58	0191d993	srli	x19,x3,0x19	  x3:0x00000001 x19=0x00000000
       42135000	      4212	80003b5c	042a8063	beq	x21,x2,80003b9c	 x21:0x00000001  x2:0x00000000
       42145000	      4213	80003b60	acfb6093	ori	x1,x22,-1329	 x22:0x000000a8  x1=0xfffffaef
       42155000	      4214	80003b64	00000013	addi	x0,x0,0	  x0:0x00000000
       42165000	      4215	80003b68	1e0f0593	addi	x11,x30,480	 x30:0xb0c5190f x11=0xb0c51aef
       42175000	      4216	80003b6c	40115ab3	sra	x21,x2,x1	  x2:0x00000000  x1:0xfffffaef x21=0x00000000
       42185000	      4217	80003b70	044e1863	bne	x28,x4,80003bc0	 x28:0x40000000  x4:0x00000001
       42195000	      4218	00000000	00000013	addi	x0,x0,0	  x0:0x00000000
       42205000	      4219	80003bbc	00000013	addi	x0,x0,0	  x0:0x00000000
       42215000	      4220	80003bc0	00000013	addi	x0,x0,0	  x0:0x00000000
       42225000	      4221	80003bc4	01c73b33	sltu	x22,x14,x28	 x14:0x80009fc4 x28:0x40000000 x22=0x00000000
       42235000	      4222	80003bc8	00545113	srli	x2,x8,0x5	  x8:0x4f3ae4d8  x2=0x0279d726
       42245000	      4223	80003bcc	003c28b3	slt	x17,x24,x3	 x24:0x00000001  x3:0x00000001 x17=0x00000000
       42255000	      4224	80003bd0	00686663	bltu	x16,x6,80003bdc	 x16:0x00000000  x6:0x00090541
       42265000	      4225	00000000	00000013	addi	x0,x0,0	  x0:0x00000000
       42275000	      4226	80003bd8	00000013	addi	x0,x0,0	  x0:0x00000000
       42285000	      4227	80003bdc	6c59c593	xori	x11,x19,1733	 x19:0x00000000 x11=0x000006c5
       42295000	      4228	80003be0	00aa98b3	sll	x17,x21,x10	 x21:0x00000000 x10:0x00000000 x17=0x00000000
       42305000	      4229	80003be4	faa73637	lui	x12,0xfaa73	 x12=0xfaa73000
       42315000	      4230	80003be8	a374eeb7	lui	x29,0xa374e	 x29=0xa374e000
       42325000	      4231	80003bec	00637bb3	and	x23,x6,x6	  x6:0x00090541  x6:0x00090541 x23=0x00090541
       42335000	      4232	80003bf0	bc31bf37	lui	x30,0xbc31b	 x30=0xbc31b000
       42345000	      4233	80003bf4	01324c63	blt	x4,x19,80003c0c	  x4:0x00000001 x19:0x00000000
       42355000	      4234	80003bf8	010a23b3	slt	x7,x20,x16	 x20:0xe4e90541 x16:0x00000000  x7=0x00000001
       42365000	      4235	80003bfc	01b5feb3	and	x29,x11,x27	 x11:0x000006c5 x27:0xffffff5e x29=0x00000644
       42375000	      4236	80003c00	40c65893	srai	x17,x12,0xc	 x12:0xfaa73000 x17=0xffffaa73
       42385000	      4237	80003c04	372b3e17	auipc	x28,0x372b3	 x28=0xb72b6c00
       42395000	      4238	80003c08	61403c93	sltiu	x25,x0,1556	  x0:0x00000000 x25=0x00000001
       42405000	      4239	80003c0c	4044d093	srai	x1,x9,0x4	  x9:0x00000001  x1=0x00000000
       42415000	      4240	80003c10	02c0e663	bltu	x1,x12,80003c3c	  x1:0x00000000 x12:0xfaa73000
       42425000	      4241	00000000	00000013	addi	x0,x0,0	  x0:0x00000000
       42435000	      4242	80003c38	00000013	addi	x0,x0,0	  x0:0x00000000
       42445000	      4243	80003c3c	00801693	slli	x13,x0,0x8	  x0:0x00000000 x13=0x00000000
       42455000	      4244	80003c40	3ca5fd93	andi	x27,x11,970	 x11:0x000006c5 x27=0x000002c0
       42465000	      4245	80003c44	012713b3	sll	x7,x14,x18	 x14:0x80009fc4 x18:0x4f378824  x7=0x0009fc40
       42475000	      4246	80003c48	01cd5bb3	srl	x23,x26,x28	 x26:0x00000000 x28:0xb72b6c00 x23=0x00000000
       42485000	      4247	80003c4c	fb2a86b7	lui	x13,0xfb2a8	 x13=0xfb2a8000
       42495000	      4248	80003c50	015d7f33	and	x30,x26,x21	 x26:0x00000000 x21:0x00000000 x30=0x00000000
       42505000	      4249	80003c54	01ff86b3	add	x13,x31,x31	 x31:0x80009ef8 x31:0x80009ef8 x13=0x00013df0
       42515000	      4250	80003c58	b7b1e293	ori	x5,x3,-1157	  x3:0x00000001  x5=0xfffffb7b
       42525000	      4251	80003c5c	005c03b3	add	x7,x24,x5	 x24:0x00000001  x5:0xfffffb7b  x7=0xfffffb7c
       42535000	      4252	80003c60	014994b3	sll	x9,x19,x20	 x19:0x00000000 x20:0xe4e90541  x9=0x00000000
       42545000	      4253	80003c64	433668b7	lui	x17,0x43366	 x17=0x43366000
       42555000	      4254	80003c68	41d68333	sub	x6,x13,x29	 x13:0x00013df0 x29:0x00000644  x6=0x000137ac
       42565000	      4255	80003c6c	663bac17	auipc	x24,0x663ba	 x24=0xe63bdc68
       42575000	      4256	80003c70	0157acb3	slt	x25,x15,x21	 x15:0x00000000 x21:0x00000000 x25=0x00000000
       42585000	      4257	80003c74	01301bb3	sll	x23,x0,x19	  x0:0x00000000 x19:0x00000000 x23=0x00000000
       42595000	      4258	80003c78	41db8bb3	sub	x23,x23,x29	 x23:0x00000000 x29:0x00000644 x23=0xfffff9bc
       42605000	      4259	80003c7c	01c09a93	slli	x21,x1,0x1c	  x1:0x00000000 x21=0x00000000
       42615000	      4260	80003c80	00c9aab3	slt	x21,x19,x12	 x19:0x00000000 x12:0xfaa73000 x21=0x00000000
       42625000	      4261	80003c84	000aee63	bltu	x21,x0,80003ca0	 x21:0x00000000  x0:0x00000000
       42635000	      4262	80003c88	00a14bb3	xor	x23,x2,x10	  x2:0x0279d726 x10:0x00000000 x23=0x0279d726
       42645000	      4263	80003c8c	01a587b3	add	x15,x11,x26	 x11:0x000006c5 x26:0x00000000 x15=0x000006c5
       42655000	      4264	80003c90	01a2d313	srli	x6,x5,0x1a	  x5:0xfffffb7b  x6=0x0000003f
       42665000	      4265	80003c94	00000013	addi	x0,x0,0	  x0:0x00000000
       42675000	      4266	80003c98	0167c663	blt	x15,x22,80003ca4	 x15:0x000006c5 x22:0x00000000
       42685000	      4267	80003c9c	01aaf3b3	and	x7,x21,x26	 x21:0x00000000 x26:0x00000000  x7=0x00000000
       42695000	      4268	80003ca0	00b0a7b3	slt	x15,x1,x11	  x1:0x00000000 x11:0x000006c5 x15=0x00000001
       42705000	      4269	80003ca4	01a32b33	slt	x22,x6,x26	  x6:0x0000003f x26:0x00000000 x22=0x00000000
       42715000	      4270	80003ca8	017bd4b3	srl	x9,x23,x23	 x23:0x0279d726 x23:0x0279d726  x9=0x0009e75c
       42725000	      4271	80003cac	057df463	bgeu	x27,x23,80003cf4	 x27:0x000002c0 x23:0x0279d726
       42735000	      4272	80003cb0	b5143c13	sltiu	x24,x8,-1199	  x8:0x4f3ae4d8 x24=0x00000001
       42745000	      4273	80003cb4	017a5093	srli	x1,x20,0x17	 x20:0xe4e90541  x1=0x000001c9
       42755000	      4274	80003cb8	2d4fc3b7	lui	x7,0x2d4fc	  x7=0x2d4fc000
       42765000	      4275	80003cbc	01014e63	blt	x2,x16,80003cd8	  x2:0x0279d726 x16:0x00000000
       42775000	      4276	80003cc0	01ccfab3	and	x21,x25,x28	 x25:0x00000000 x28:0xb72b6c00 x21=0x00000000
       42785000	      4277	80003cc4	015dde93	srli	x29,x27,0x15	 x27:0x000002c0 x29=0x00000000
       42795000	      4278	80003cc8	00d635b3	sltu	x11,x12,x13	 x12:0xfaa73000 x13:0x00013df0 x11=0x00000000
       42805000	      4279	80003ccc	02ca9c63	bne	x21,x12,80003d04	 x21:0x00000000 x12:0xfaa73000
       42815000	      4280	00000000	00000013	addi	x0,x0,0	  x0:0x00000000
       42825000	      4281	80003d00	00000013	addi	x0,x0,0	  x0:0x00000000
       42835000	      4282	80003d04	045a8263	beq	x21,x5,80003d48	 x21:0x00000000  x5:0xfffffb7b
       42845000	      4283	80003d08	4008d113	srai	x2,x17,0x0	 x17:0x43366000  x2=0x43366000
       42855000	      4284	80003d0c	40d00c33	sub	x24,x0,x13	  x0:0x00000000 x13:0x00013df0 x24=0xfffec210
       42865000	      4285	80003d10	007f5113	srli	x2,x30,0x7	 x30:0x00000000  x2=0x00000000
       42875000	      4286	80003d14	03a61263	bne	x12,x26,80003d38	 x12:0xfaa73000 x26:0x00000000
       42885000	      4287	00000000	00000013	addi	x0,x0,0	  x0:0x00000000
       42895000	      4288	80003d34	00000013	addi	x0,x0,0	  x0:0x00000000
       42905000	      4289	80003d38	00001a93	slli	x21,x0,0x0	  x0:0x00000000 x21=0x00000000
       42915000	      4290	80003d3c	0160b0b3	sltu	x1,x1,x22	  x1:0x000001c9 x22:0x00000000  x1=0x00000000
       42925000	      4291	80003d40	e44a3993	sltiu	x19,x20,-444	 x20:0xe4e90541 x19=0x00000001
       42935000	      4292	80003d44	056c4063	blt	x24,x22,80003d84	 x24:0xfffec210 x22:0x00000000
       42945000	      4293	00000000	00000013	addi	x0,x0,0	  x0:0x00000000
       42955000	      4294	80003d80	00000013	addi	x0,x0,0	  x0:0x00000000
       42965000	      4295	80003d84	8c0e9d97	auipc	x27,0x8c0e9	 x27=0x0c0ecd80
       42975000	      4296	80003d88	017b99b3	sll	x19,x23,x23	 x23:0x0279d726 x23:0x0279d726 x19=0x9e75c980
       42985000	      4297	80003d8c	00245193	srli	x3,x8,0x2	  x8:0x4f3ae4d8  x3=0x13ceb936
       42995000	      4298	80003d90	60377c13	andi	x24,x14,1539	 x14:0x80009fc4 x24=0x00000600
       43005000	      4299	80003d94	01670263	beq	x14,x22,80003d98	 x14:0x80009fc4 x22:0x00000000
       43015000	      4300	80003d98	0136a1b3	slt	x3,x13,x19	 x13:0x00013df0 x19:0x9e75c980  x3=0x00000000
       43025000	      4301	80003d9c	419fddb3	sra	x27,x31,x25	 x31:0x80009ef8 x25:0x00000000 x27=0x80009ef8
       43035000	      4302	80003da0	013ac533	xor	x10,x21,x19	 x21:0x00000000 x19:0x9e75c980 x10=0x9e75c980
       43045000	      4303	80003da4	5dfc3b93	sltiu	x23,x24,1503	 x24:0x00000600 x23=0x00000000
       43055000	      4304	80003da8	0498d463	bge	x17,x9,80003df0	 x17:0x43366000  x9:0x0009e75c
       43065000	      4305	00000000	00000013	addi	x0,x0,0	  x0:0x00000000
       43075000	      4306	80003dec	00000013	addi	x0,x0,0	  x0:0x00000000
       43085000	      4307	80003df0	a6b53493	sltiu	x9,x10,-1429	 x10:0x9e75c980  x9=0x00000001
       43095000	      4308	80003df4	01f87e63	bgeu	x16,x31,80003e10	 x16:0x00000000 x31:0x80009ef8
       43105000	      4309	80003df8	7b9fe913	ori	x18,x31,1977	 x31:0x80009ef8 x18=0x80009ff9
       43115000	      4310	80003dfc	008b1e63	bne	x22,x8,80003e18	 x22:0x00000000  x8:0x4f3ae4d8
       43125000	      4311	00000000	00000013	addi	x0,x0,0	  x0:0x00000000
       43135000	      4312	80003e14	00000013	addi	x0,x0,0	  x0:0x00000000
       43145000	      4313	80003e18	05daf863	bgeu	x21,x29,80003e68	 x21:0x00000000 x29:0x00000000
       43155000	      4314	00000000	00000013	addi	x0,x0,0	  x0:0x00000000
       43165000	      4315	80003e64	00000013	addi	x0,x0,0	  x0:0x00000000
       43175000	      4316	80003e68	00641bb3	sll	x23,x8,x6	  x8:0x4f3ae4d8  x6:0x0000003f x23=0x00000000
       43185000	      4317	80003e6c	0dc57e63	bgeu	x10,x28,80003f48	 x10:0x9e75c980 x28:0xb72b6c00
       43195000	      4318	80003e70	afa3f517	auipc	x10,0xafa3f	 x10=0x2fa42e6c
       43205000	      4319	80003e74	00005117	auipc	x2,0x5	  x2=0x80008e70
       43215000	      4320	80003e78	da710113	addi	x2,x2,-601	  x2:0x80008e70  x2=0x80008c17
       43225000	      4321	80003e7c	32311083	lh	x1,803(x2)	  x2:0x80008c17  x1=0x000015bb PA:0x80008f3a
       43235000	      4322	80003e80	0192ebb3	or	x23,x5,x25	  x5:0xfffffb7b x25:0x00000000 x23=0xfffffb7b
       43245000	      4323	80003e84	f04db917	auipc	x18,0xf04db	 x18=0x704dee80
       43255000	      4324	80003e88	2e411ba3	sh	x4,759(x2)	  x2:0x80008c17  x4:0x00000001 PA:0x80008f0e
       43265000	      4325	80003e8c	00ff5d93	srli	x27,x30,0xf	 x30:0x00000000 x27=0x00000000
       43275000	      4326	80003e90	2f3120a3	sw	x19,737(x2)	  x2:0x80008c17 x19:0x9e75c980 PA:0x80008ef8
       43285000	      4327	80003e94	01c44533	xor	x10,x8,x28	  x8:0x4f3ae4d8 x28:0xb72b6c00 x10=0xf81188d8
       43295000	      4328	80003e98	ca311783	lh	x15,-861(x2)	  x2:0x80008c17 x15=0x0000649c PA:0x800088ba
       43305000	      4329	80003e9c	004d8cb3	add	x25,x27,x4	 x27:0x00000000  x4:0x00000001 x25=0x00000001
       43315000	      4330	80003ea0	f1a10083	lb	x1,-230(x2)	  x2:0x80008c17  x1=0x00000024 PA:0x80008b31
       43325000	      4331	80003ea4	fb414483	lbu	x9,-76(x2)	  x2:0x80008c17  x9=0x0000007b PA:0x80008bcb
       43335000	      4332	80003ea8	01d716b3	sll	x13,x14,x29	 x14:0x80009fc4 x29:0x00000000 x13=0x80009fc4
       43345000	      4333	80003eac	40a95e13	srai	x28,x18,0xa	 x18:0x704dee80 x28=0x001c137b
       43355000	      4334	80003eb0	01da6033	or	x0,x20,x29	 x20:0xe4e90541 x29:0x00000000
       43365000	      4335	80003eb4	010f6d33	or	x26,x30,x16	 x30:0x00000000 x16:0x00000000 x26=0x00000000
       43375000	      4336	80003eb8	20fd4613	xori	x12,x26,527	 x26:0x00000000 x12=0x0000020f
       43385000	      4337	80003ebc	49e56293	ori	x5,x10,1182	 x10:0xf81188d8  x5=0xf8118cde
       43395000	      4338	80003ec0	0110e833	or	x16,x1,x17	  x1:0x00000024 x17:0x43366000 x16=0x43366024
       43405000	      4339	80003ec4	d8f11c83	lh	x25,-625(x2)	  x2:0x80008c17 x25=0xffffb97c PA:0x800089a6
       43415000	      4340	00000000	00000013	addi	x0,x0,0	  x0:0x00000000
       43425000	      4341	80003ec8	2b911283	lh	x5,697(x2)	  x2:0x80008c17  x5=0x00004625 PA:0x80008ed0
       43435000	      4342	80003ecc	fb910083	lb	x1,-71(x2)	  x2:0x80008c17  x1=0xffffff83 PA:0x80008bd0
       43445000	      4343	80003ed0	00716233	or	x4,x2,x7	  x2:0x80008c17  x7:0x2d4fc000  x4=0xad4fcc17
       43455000	      4344	80003ed4	41680eb3	sub	x29,x16,x22	 x16:0x43366024 x22:0x00000000 x29=0x43366024
       43465000	      4345	80003ed8	ce3112a3	sh	x3,-795(x2)	  x2:0x80008c17  x3:0x00000000 PA:0x800088fc
       43475000	      4346	80003edc	0fe14283	lbu	x5,254(x2)	  x2:0x80008c17  x5=0x000000f0 PA:0x80008d15
       43485000	      4347	00000000	00000013	addi	x0,x0,0	  x0:0x00000000
       43495000	      4348	80003ee0	fe510003	lb	x0,-27(x2)	  x2:0x80008c17 PA:0x80008bfc
       43505000	      4349	80003ee4	f3a14683	lbu	x13,-198(x2)	  x2:0x80008c17 x13=0x000000f1 PA:0x80008b51
       43515000	      4350	80003ee8	816cbd13	sltiu	x26,x25,-2026	 x25:0xffffb97c x26=0x00000001
       43525000	      4351	80003eec	0ee107a3	sb	x14,239(x2)	  x2:0x80008c17 x14:0x80009fc4 PA:0x80008d06
       43535000	      4352	80003ef0	008f3bb3	sltu	x23,x30,x8	 x30:0x00000000  x8:0x4f3ae4d8 x23=0x00000001
       43545000	      4353	80003ef4	38912083	lw	x1,905(x2)	  x2:0x80008c17  x1=0xdbeca59e PA:0x80008fa0
       43555000	      4354	80003ef8	13512d03	lw	x26,309(x2)	  x2:0x80008c17 x26=0xbe6e2ebe PA:0x80008d4c
       43565000	      4355	80003efc	0170c2b3	xor	x5,x1,x23	  x1:0xdbeca59e x23:0x00000001  x5=0xdbeca59f
       43575000	      4356	80003f00	f7d14883	lbu	x17,-131(x2)	  x2:0x80008c17 x17=0x00000080 PA:0x80008b94
       43585000	      4357	80003f04	3c07c397	auipc	x7,0x3c07c	  x7=0xbc07ff00
       43595000	      4358	80003f08	16c10983	lb	x19,364(x2)	  x2:0x80008c17 x19=0x00000009 PA:0x80008d83
       43605000	      4359	80003f0c	f9410b03	lb	x22,-108(x2)	  x2:0x80008c17 x22=0xffffffbc PA:0x80008bab
       43615000	      4360	80003f10	edd10503	lb	x10,-291(x2)	  x2:0x80008c17 x10=0x00000070 PA:0x80008af4
       43625000	      4361	80003f14	e97a3d97	auipc	x27,0xe97a3	 x27=0x697a6f10
       43635000	      4362	80003f18	00d62e33	slt	x28,x12,x13	 x12:0x0000020f x13:0x000000f1 x28=0x00000000
       43645000	      4363	80003f1c	5f650b13	addi	x22,x10,1526	 x10:0x00000070 x22=0x00000666
       43655000	      4364	80003f20	25b10b23	sb	x27,598(x2)	  x2:0x80008c17 x27:0x697a6f10 PA:0x80008e6d
       43665000	      4365	80003f24	db112383	lw	x7,-591(x2)	  x2:0x80008c17  x7=0xa37cb6a2 PA:0x800089c8
       43675000	      4366	80003f28	11614b83	lbu	x23,278(x2)	  x2:0x80008c17 x23=0x00000060 PA:0x80008d2d
       43685000	      4367	80003f2c	00000013	addi	x0,x0,0	  x0:0x00000000
       43695000	      4368	80003f30	01d12903	lw	x18,29(x2)	  x2:0x80008c17 x18=0xed639161 PA:0x80008c34
       43705000	      4369	80003f34	eb311903	lh	x18,-333(x2)	  x2:0x80008c17 x18=0xffffd86f PA:0x80008aca
       43715000	      4370	80003f38	40fb8e33	sub	x28,x23,x15	 x23:0x00000060 x15:0x0000649c x28=0xffff9bc4
       43725000	      4371	80003f3c	00576933	or	x18,x14,x5	 x14:0x80009fc4  x5:0xdbeca59f x18=0xdbecbfdf
       43735000	      4372	80003f40	4142da93	srai	x21,x5,0x14	  x5:0xdbeca59f x21=0xfffffdbe
       43745000	      4373	80003f44	01556263	bltu	x10,x21,80003f48	 x10:0x00000070 x21:0xfffffdbe
       43755000	      4374	00000000	00000013	addi	x0,x0,0	  x0:0x00000000
       43765000	      4375	80003f44	00000013	addi	x0,x0,0	  x0:0x00000000
       43775000	      4376	80003f48	009de033	or	x0,x27,x9	 x27:0x697a6f10  x9:0x0000007b
       43785000	      4377	80003f4c	00d41e33	sll	x28,x8,x13	  x8:0x4f3ae4d8 x13:0x000000f1 x28=0xc9b00000
       43795000	      4378	80003f50	00b3b633	sltu	x12,x7,x11	  x7:0xa37cb6a2 x11:0x00000000 x12=0x00000000
       43805000	      4379	80003f54	03a60c63	beq	x12,x26,80003f8c	 x12:0x00000000 x26:0xbe6e2ebe
       43815000	      4380	80003f58	014411b3	sll	x3,x8,x20	  x8:0x4f3ae4d8 x20:0xe4e90541  x3=0x9e75c9b0
       43825000	      4381	80003f5c	00ac6f33	or	x30,x24,x10	 x24:0x00000600 x10:0x00000070 x30=0x00000670
       43835000	      4382	80003f60	00b40933	add	x18,x8,x11	  x8:0x4f3ae4d8 x11:0x00000000 x18=0x4f3ae4d8
       43845000	      4383	80003f64	00016c63	bltu	x2,x0,80003f7c	  x2:0x80008c17  x0:0x00000000
       43855000	      4384	80003f68	01c7c0b3	xor	x1,x15,x28	 x15:0x0000649c x28:0xc9b00000  x1=0xc9b0649c
       43865000	      4385	80003f6c	016d4633	xor	x12,x26,x22	 x26:0xbe6e2ebe x22:0x00000666 x12=0xbe6e28d8
       43875000	      4386	80003f70	01cc9093	slli	x1,x25,0x1c	 x25:0xffffb97c  x1=0xc0000000
       43885000	      4387	80003f74	00000013	addi	x0,x0,0	  x0:0x00000000
       43895000	      4388	80003f78	01e1e9b3	or	x19,x3,x30	  x3:0x9e75c9b0 x30:0x00000670 x19=0x9e75cff0
       43905000	      4389	80003f7c	02a69663	bne	x13,x10,80003fa8	 x13:0x000000f1 x10:0x00000070
       43915000	      4390	00000000	00000013	addi	x0,x0,0	  x0:0x00000000
       43925000	      4391	80003fa4	00000013	addi	x0,x0,0	  x0:0x00000000
       43935000	      4392	80003fa8	2676e013	ori	x0,x13,615	 x13:0x000000f1
       43945000	      4393	80003fac	04d6c863	blt	x13,x13,80003ffc	 x13:0x000000f1 x13:0x000000f1
       43955000	      4394	80003fb0	05984063	blt	x16,x25,80003ff0	 x16:0x43366024 x25:0xffffb97c
       43965000	      4395	80003fb4	00b38233	add	x4,x7,x11	  x7:0xa37cb6a2 x11:0x00000000  x4=0xa37cb6a2
       43975000	      4396	80003fb8	016ca5b3	slt	x11,x25,x22	 x25:0xffffb97c x22:0x00000666 x11=0x00000001
       43985000	      4397	80003fbc	00000013	addi	x0,x0,0	  x0:0x00000000
       43995000	      4398	80003fc0	400d83b3	sub	x7,x27,x0	 x27:0x697a6f10  x0:0x00000000  x7=0x697a6f10
       44005000	      4399	80003fc4	410b5e13	srai	x28,x22,0x10	 x22:0x00000666 x28=0x00000000
       44015000	      4400	80003fc8	04821063	bne	x4,x8,80004008	  x4:0xa37cb6a2  x8:0x4f3ae4d8
       44025000	      4401	00000000	00000013	addi	x0,x0,0	  x0:0x00000000
       44035000	      4402	80004004	00000013	addi	x0,x0,0	  x0:0x00000000
       44045000	      4403	80004008	000c8333	add	x6,x25,x0	 x25:0xffffb97c  x0:0x00000000  x6=0xffffb97c
       44055000	      4404	8000400c	0580d263	bge	x1,x24,80004050	  x1:0xc0000000 x24:0x00000600
       44065000	      4405	80004010	00000013	addi	x0,x0,0	  x0:0x00000000
       44075000	      4406	80004014	f16cb213	sltiu	x4,x25,-234	 x25:0xffffb97c  x4=0x00000001
       44085000	      4407	80004018	041c5263	bge	x24,x1,8000405c	 x24:0x00000600  x1:0xc0000000
       44095000	      4408	00000000	00000013	addi	x0,x0,0	  x0:0x00000000
       44105000	      4409	80004058	00000013	addi	x0,x0,0	  x0:0x00000000
       44115000	      4410	8000405c	40cb5593	srai	x11,x22,0xc	 x22:0x00000666 x11=0x00000000
       44125000	      4411	80004060	00878a63	beq	x15,x8,80004074	 x15:0x0000649c  x8:0x4f3ae4d8
       44135000	      4412	80004064	4a4ca193	slti	x3,x25,1188	 x25:0xffffb97c  x3=0x00000001
       44145000	      4413	80004068	02cf2593	slti	x11,x30,44	 x30:0x00000670 x11=0x00000000
       44155000	      4414	8000406c	836b8d13	addi	x26,x23,-1994	 x23:0x00000060 x26=0xfffff896
       44165000	      4415	80004070	00865213	srli	x4,x12,0x8	 x12:0xbe6e28d8  x4=0x00be6e28
       44175000	      4416	80004074	00811133	sll	x2,x2,x8	  x2:0x80008c17  x8:0x4f3ae4d8  x2=0x17000000
       44185000	      4417	80004078	01371913	slli	x18,x14,0x13	 x14:0x80009fc4 x18=0xfe200000
       44195000	      4418	8000407c	7d81fc93	andi	x25,x3,2008	  x3:0x00000001 x25=0x00000000
       44205000	      4419	80004080	006a1e33	sll	x28,x20,x6	 x20:0xe4e90541  x6:0xffffb97c x28=0x10000000
       44215000	      4420	80004084	00b19793	slli	x15,x3,0xb	  x3:0x00000001 x15=0x00000800
       44225000	      4421	80004088	99410c93	addi	x25,x2,-1644	  x2:0x17000000 x25=0x16fff994
       44235000	      4422	8000408c	00000013	addi	x0,x0,0	  x0:0x00000000
       44245000	      4423	80004090	419fddb3	sra	x27,x31,x25	 x31:0x80009ef8 x25:0x16fff994 x27=0xfffff800
       44255000	      4424	80004094	00e68333	add	x6,x13,x14	 x13:0x000000f1 x14:0x80009fc4  x6=0x8000a0b5
       44265000	      4425	80004098	00b39693	slli	x13,x7,0xb	  x7:0x697a6f10 x13=0xd3788000
       44275000	      4426	8000409c	41e0dd33	sra	x26,x1,x30	  x1:0xc0000000 x30:0x00000670 x26=0xffffc000
       44285000	      4427	800040a0	00be59b3	srl	x19,x28,x11	 x28:0x10000000 x11:0x00000000 x19=0x10000000
       44295000	      4428	800040a4	048dd463	bge	x27,x8,800040ec	 x27:0xfffff800  x8:0x4f3ae4d8
       44305000	      4429	800040a8	9b1f7e13	andi	x28,x30,-1615	 x30:0x00000670 x28=0x00000030
       44315000	      4430	800040ac	00cf5b93	srli	x23,x30,0xc	 x30:0x00000670 x23=0x00000000
       44325000	      4431	800040b0	01ef0cb3	add	x25,x30,x30	 x30:0x00000670 x30:0x00000670 x25=0x00000ce0
       44335000	      4432	800040b4	01410e63	beq	x2,x20,800040d0	  x2:0x17000000 x20:0xe4e90541
       44345000	      4433	800040b8	00ee1233	sll	x4,x28,x14	 x28:0x00000030 x14:0x80009fc4  x4=0x00000300
       44355000	      4434	800040bc	019c1a93	slli	x21,x24,0x19	 x24:0x00000600 x21=0x00000000
       44365000	      4435	800040c0	40488e33	sub	x28,x17,x4	 x17:0x00000080  x4:0x00000300 x28=0xfffffd80
       44375000	      4436	800040c4	015d11b3	sll	x3,x26,x21	 x26:0xffffc000 x21:0x00000000  x3=0xffffc000
       44385000	      4437	800040c8	04464063	blt	x12,x4,80004108	 x12:0xbe6e28d8  x4:0x00000300
       44395000	      4438	00000000	00000013	addi	x0,x0,0	  x0:0x00000000
       44405000	      4439	80004104	00000013	addi	x0,x0,0	  x0:0x00000000
       44415000	      4440	80004108	032f9263	bne	x31,x18,8000412c	 x31:0x80009ef8 x18:0xfe200000
       44425000	      4441	00000000	00000013	addi	x0,x0,0	  x0:0x00000000
       44435000	      4442	80004128	00000013	addi	x0,x0,0	  x0:0x00000000
       44445000	      4443	8000412c	0126a533	slt	x10,x13,x18	 x13:0xd3788000 x18:0xfe200000 x10=0x00000001
       44455000	      4444	80004130	0051f033	and	x0,x3,x5	  x3:0xffffc000  x5:0xdbeca59f
       44465000	      4445	80004134	007eedb3	or	x27,x29,x7	 x29:0x43366024  x7:0x697a6f10 x27=0x6b7e6f34
       44475000	      4446	80004138	049a1063	bne	x20,x9,80004178	 x20:0xe4e90541  x9:0x0000007b
       44485000	      4447	00000000	00000013	addi	x0,x0,0	  x0:0x00000000
       44495000	      4448	80004174	00000013	addi	x0,x0,0	  x0:0x00000000
       44505000	      4449	80004178	18622e93	slti	x29,x4,390	  x4:0x00000300 x29=0x00000000
       44515000	      4450	8000417c	df59f293	andi	x5,x19,-523	 x19:0x10000000  x5=0x10000000
       44525000	      4451	80004180	002f6e63	bltu	x30,x2,8000419c	 x30:0x00000670  x2:0x17000000
       44535000	      4452	00000000	00000013	addi	x0,x0,0	  x0:0x00000000
       44545000	      4453	80004198	00000013	addi	x0,x0,0	  x0:0x00000000
       44555000	      4454	8000419c	00651c13	slli	x24,x10,0x6	 x10:0x00000001 x24=0x00000040
       44565000	      4455	800041a0	402204b3	sub	x9,x4,x2	  x4:0x00000300  x2:0x17000000  x9=0xe9000300
       44575000	      4456	800041a4	01e93cb3	sltu	x25,x18,x30	 x18:0xfe200000 x30:0x00000670 x25=0x00000000
       44585000	      4457	800041a8	00519263	bne	x3,x5,800041ac	  x3:0xffffc000  x5:0x10000000
       44595000	      4458	00000000	00000013	addi	x0,x0,0	  x0:0x00000000
       44605000	      4459	800041a8	00000013	addi	x0,x0,0	  x0:0x00000000
       44615000	      4460	800041ac	00a95663	bge	x18,x10,800041b8	 x18:0xfe200000 x10:0x00000001
       44625000	      4461	800041b0	d7866d93	ori	x27,x12,-648	 x12:0xbe6e28d8 x27=0xfffffdf8
       44635000	      4462	800041b4	00d01633	sll	x12,x0,x13	  x0:0x00000000 x13:0xd3788000 x12=0x00000000
       44645000	      4463	800041b8	60d32c93	slti	x25,x6,1549	  x6:0x8000a0b5 x25=0x00000001
       44655000	      4464	800041bc	00164e63	blt	x12,x1,800041d8	 x12:0x00000000  x1:0xc0000000
       44665000	      4465	800041c0	9ce50093	addi	x1,x10,-1586	 x10:0x00000001  x1=0xfffff9cf
       44675000	      4466	800041c4	017fe133	or	x2,x31,x23	 x31:0x80009ef8 x23:0x00000000  x2=0x80009ef8
       44685000	      4467	800041c8	00dc3b33	sltu	x22,x24,x13	 x24:0x00000040 x13:0xd3788000 x22=0x00000001
       44695000	      4468	800041cc	003bf0b3	and	x1,x23,x3	 x23:0x00000000  x3:0xffffc000  x1=0x00000000
       44705000	      4469	800041d0	00e5d413	srli	x8,x11,0xe	 x11:0x00000000  x8=0x00000000
       44715000	      4470	800041d4	00905d93	srli	x27,x0,0x9	  x0:0x00000000 x27=0x00000000
       44725000	      4471	800041d8	016a9b93	slli	x23,x21,0x16	 x21:0x00000000 x23=0x00000000
       44735000	      4472	800041dc	00cf8cb3	add	x25,x31,x12	 x31:0x80009ef8 x12:0x00000000 x25=0x80009ef8
       44745000	      4473	800041e0	013b6533	or	x10,x22,x19	 x22:0x00000001 x19:0x10000000 x10=0x10000001
       44755000	      4474	800041e4	414d5c13	srai	x24,x26,0x14	 x26:0xffffc000 x24=0xffffffff
       44765000	      4475	800041e8	01d005b3	add	x11,x0,x29	  x0:0x00000000 x29:0x00000000 x11=0x00000000
       44775000	      4476	800041ec	00b27e33	and	x28,x4,x11	  x4:0x00000300 x11:0x00000000 x28=0x00000000
       44785000	      4477	800041f0	00af39b3	sltu	x19,x30,x10	 x30:0x00000670 x10:0x10000001 x19=0x00000001
       44795000	      4478	800041f4	01c6ea63	bltu	x13,x28,80004208	 x13:0xd3788000 x28:0x00000000
       44805000	      4479	800041f8	00354cb3	xor	x25,x10,x3	 x10:0x10000001  x3:0xffffc000 x25=0xefffc001
       44815000	      4480	800041fc	019d1f13	slli	x30,x26,0x19	 x26:0xffffc000 x30=0x00000000
       44825000	      4481	80004200	017f8db3	add	x27,x31,x23	 x31:0x80009ef8 x23:0x00000000 x27=0x80009ef8
       44835000	      4482	80004204	01da79b3	and	x19,x20,x29	 x20:0xe4e90541 x29:0x00000000 x19=0x00000000
       44845000	      4483	80004208	64e63d93	sltiu	x27,x12,1614	 x12:0x00000000 x27=0x00000001
       44855000	      4484	8000420c	01f5c5b3	xor	x11,x11,x31	 x11:0x00000000 x31:0x80009ef8 x11=0x80009ef8
       44865000	      4485	80004210	01f200b3	add	x1,x4,x31	  x4:0x00000300 x31:0x80009ef8  x1=0x8000a1f8
       44875000	      4486	80004214	7fc2f493	andi	x9,x5,2044	  x5:0x10000000  x9=0x00000000
       44885000	      4487	80004218	003f3db3	sltu	x27,x30,x3	 x30:0x00000000  x3:0xffffc000 x27=0x00000001
       44895000	      4488	8000421c	01954e63	blt	x10,x25,80004238	 x10:0x10000001 x25:0xefffc001
       44905000	      4489	80004220	017de463	bltu	x27,x23,80004228	 x27:0x00000001 x23:0x00000000
       44915000	      4490	80004224	02a35c63	bge	x6,x10,8000425c	  x6:0x8000a0b5 x10:0x10000001
       44925000	      4491	80004228	5308b093	sltiu	x1,x17,1328	 x17:0x00000080  x1=0x00000001
       44935000	      4492	8000422c	401d04b3	sub	x9,x26,x1	 x26:0xffffc000  x1:0x00000001  x9=0xffffbfff
       44945000	      4493	80004230	00a49663	bne	x9,x10,8000423c	  x9:0xffffbfff x10:0x10000001
       44955000	      4494	00000000	00000013	addi	x0,x0,0	  x0:0x00000000
       44965000	      4495	80004238	00000013	addi	x0,x0,0	  x0:0x00000000
       44975000	      4496	8000423c	01ffd093	srli	x1,x31,0x1f	 x31:0x80009ef8  x1=0x00000001
       44985000	      4497	80004240	00fb4b33	xor	x22,x22,x15	 x22:0x00000001 x15:0x00000800 x22=0x00000801
       44995000	      4498	80004244	00000013	addi	x0,x0,0	  x0:0x00000000
       45005000	      4499	80004248	4a877593	andi	x11,x14,1192	 x14:0x80009fc4 x11=0x00000480
       45015000	      4500	8000424c	ceb10913	addi	x18,x2,-789	  x2:0x80009ef8 x18=0x80009be3
       45025000	      4501	80004250	00d23c33	sltu	x24,x4,x13	  x4:0x00000300 x13:0xd3788000 x24=0x00000001
       45035000	      4502	80004254	00886263	bltu	x16,x8,80004258	 x16:0x43366024  x8:0x00000000
       45045000	      4503	80004258	94576c13	ori	x24,x14,-1723	 x14:0x80009fc4 x24=0xffffffc5
       45055000	      4504	8000425c	009fd0b3	srl	x1,x31,x9	 x31:0x80009ef8  x9:0xffffbfff  x1=0x00000001
       45065000	      4505	80004260	01c33db3	sltu	x27,x6,x28	  x6:0x8000a0b5 x28:0x00000000 x27=0x00000000
       45075000	      4506	80004264	00000013	addi	x0,x0,0	  x0:0x00000000
       45085000	      4507	80004268	01ee5513	srli	x10,x28,0x1e	 x28:0x00000000 x10=0x00000000
       45095000	      4508	8000426c	01b8a6b3	slt	x13,x17,x27	 x17:0x00000080 x27:0x00000000 x13=0x00000000
       45105000	      4509	80004270	00000013	addi	x0,x0,0	  x0:0x00000000
       45115000	      4510	80004274	45272113	slti	x2,x14,1106	 x14:0x80009fc4  x2=0x00000001
       45125000	      4511	80004278	416f5a93	srai	x21,x30,0x16	 x30:0x00000000 x21=0x00000000
       45135000	      4512	8000427c	5d914813	xori	x16,x2,1497	  x2:0x00000001 x16=0x000005d8
       45145000	      4513	80004280	31178617	auipc	x12,0x31178	 x12=0xb117c27c
       45155000	      4514	80004284	7823f293	andi	x5,x7,1922	  x7:0x697a6f10  x5=0x00000700
       45165000	      4515	80004288	034f9c63	bne	x31,x20,800042c0	 x31:0x80009ef8 x20:0xe4e90541
       45175000	      4516	00000000	00000013	addi	x0,x0,0	  x0:0x00000000
       45185000	      4517	800042bc	00000013	addi	x0,x0,0	  x0:0x00000000
       45195000	      4518	800042c0	01324e63	blt	x4,x19,800042dc	  x4:0x00000300 x19:0x00000000
       45205000	      4519	800042c4	052e7863	bgeu	x28,x18,80004314	 x28:0x00000000 x18:0x80009be3
       45215000	      4520	800042c8	00294433	xor	x8,x18,x2	 x18:0x80009be3  x2:0x00000001  x8=0x80009be2
       45225000	      4521	800042cc	419a87b3	sub	x15,x21,x25	 x21:0x00000000 x25:0xefffc001 x15=0x10003fff
       45235000	      4522	800042d0	01747cb3	and	x25,x8,x23	  x8:0x80009be2 x23:0x00000000 x25=0x00000000
       45245000	      4523	800042d4	00eb5413	srli	x8,x22,0xe	 x22:0x00000801  x8=0x00000000
       45255000	      4524	800042d8	000a9bb3	sll	x23,x21,x0	 x21:0x00000000  x0:0x00000000 x23=0x00000000
       45265000	      4525	800042dc	e6ea8e93	addi	x29,x21,-402	 x21:0x00000000 x29=0xfffffe6e
       45275000	      4526	800042e0	41948eb3	sub	x29,x9,x25	  x9:0xffffbfff x25:0x00000000 x29=0xffffbfff
       45285000	      4527	800042e4	03c30263	beq	x6,x28,80004308	  x6:0x8000a0b5 x28:0x00000000
       45295000	      4528	800042e8	00b7b033	sltu	x0,x15,x11	 x15:0x10003fff x11:0x00000480
       45305000	      4529	800042ec	005d9463	bne	x27,x5,800042f4	 x27:0x00000000  x5:0x00000700
       45315000	      4530	00000000	00000013	addi	x0,x0,0	  x0:0x00000000
       45325000	      4531	800042f0	00000013	addi	x0,x0,0	  x0:0x00000000
       45335000	      4532	800042f4	00edbdb3	sltu	x27,x27,x14	 x27:0x00000000 x14:0x80009fc4 x27=0x00000001
       45345000	      4533	800042f8	00b61e93	slli	x29,x12,0xb	 x12:0xb117c27c x29=0xbe13e000
       45355000	      4534	800042fc	00000013	addi	x0,x0,0	  x0:0x00000000
       45365000	      4535	80004300	00c10c63	beq	x2,x12,80004318	  x2:0x00000001 x12:0xb117c27c
       45375000	      4536	80004304	67827917	auipc	x18,0x67827	 x18=0xe782b300
       45385000	      4537	80004308	93c42137	lui	x2,0x93c42	  x2=0x93c42000
       45395000	      4538	8000430c	0118d3b3	srl	x7,x17,x17	 x17:0x00000080 x17:0x00000080  x7=0x00000080
       45405000	      4539	80004310	95eaab93	slti	x23,x21,-1698	 x21:0x00000000 x23=0x00000000
       45415000	      4540	80004314	01b91213	slli	x4,x18,0x1b	 x18:0xe782b300  x4=0x00000000
       45425000	      4541	80004318	05a41197	auipc	x3,0x5a41	  x3=0x85a45314
       45435000	      4542	8000431c	014311b3	sll	x3,x6,x20	  x6:0x8000a0b5 x20:0xe4e90541  x3=0x0001416a
       45445000	      4543	80004320	0040f833	and	x16,x1,x4	  x1:0x00000001  x4:0x00000000 x16=0x00000000
       45455000	      4544	80004324	01cb7663	bgeu	x22,x28,80004330	 x22:0x00000801 x28:0x00000000
       45465000	      4545	00000000	00000013	addi	x0,x0,0	  x0:0x00000000
       45475000	      4546	8000432c	00000013	addi	x0,x0,0	  x0:0x00000000
       45485000	      4547	80004330	00a1d6b3	srl	x13,x3,x10	  x3:0x0001416a x10:0x00000000 x13=0x0001416a
       45495000	      4548	80004334	00e08633	add	x12,x1,x14	  x1:0x00000001 x14:0x80009fc4 x12=0x80009fc5
       45505000	      4549	80004338	016b7f33	and	x30,x22,x22	 x22:0x00000801 x22:0x00000801 x30=0x00000801
       45515000	      4550	8000433c	00595c93	srli	x25,x18,0x5	 x18:0xe782b300 x25=0x073c1598
       45525000	      4551	80004340	05d7c663	blt	x15,x29,8000438c	 x15:0x10003fff x29:0xbe13e000
       45535000	      4552	80004344	0053d933	srl	x18,x7,x5	  x7:0x00000080  x5:0x00000700 x18=0x00000080
       45545000	      4553	80004348	6fea7b13	andi	x22,x20,1790	 x20:0xe4e90541 x22=0x00000440
       45555000	      4554	8000434c	01806033	or	x0,x0,x24	  x0:0x00000000 x24:0xffffffc5
       45565000	      4555	80004350	01d7eab3	or	x21,x15,x29	 x15:0x10003fff x29:0xbe13e000 x21=0xbe13ffff
       45575000	      4556	80004354	01825833	srl	x16,x4,x24	  x4:0x00000000 x24:0xffffffc5 x16=0x00000000
       45585000	      4557	80004358	01509b13	slli	x22,x1,0x15	  x1:0x00000001 x22=0x00200000
       45595000	      4558	8000435c	0156abb3	slt	x23,x13,x21	 x13:0x0001416a x21:0xbe13ffff x23=0x00000000
       45605000	      4559	80004360	00d67b33	and	x22,x12,x13	 x12:0x80009fc5 x13:0x0001416a x22=0x00000140
       45615000	      4560	80004364	011ad813	srli	x16,x21,0x11	 x21:0xbe13ffff x16=0x00005f09
       45625000	      4561	80004368	01644e63	blt	x8,x22,80004384	  x8:0x00000000 x22:0x00000140
       45635000	      4562	00000000	00000013	addi	x0,x0,0	  x0:0x00000000
       45645000	      4563	80004380	00000013	addi	x0,x0,0	  x0:0x00000000
       45655000	      4564	80004384	01f28333	add	x6,x5,x31	  x5:0x00000700 x31:0x80009ef8  x6=0x8000a5f8
       45665000	      4565	80004388	00000013	addi	x0,x0,0	  x0:0x00000000
       45675000	      4566	8000438c	e1376537	lui	x10,0xe1376	 x10=0xe1376000
       45685000	      4567	80004390	4fa72b13	slti	x22,x14,1274	 x14:0x80009fc4 x22=0x00000001
       45695000	      4568	80004394	00131693	slli	x13,x6,0x1	  x6:0x8000a5f8 x13=0x00014bf0
       45705000	      4569	80004398	00a2fd33	and	x26,x5,x10	  x5:0x00000700 x10:0xe1376000 x26=0x00000000
       45715000	      4570	8000439c	01d496b3	sll	x13,x9,x29	  x9:0xffffbfff x29:0xbe13e000 x13=0xffffbfff
       45725000	      4571	800043a0	b2e7a4b7	lui	x9,0xb2e7a	  x9=0xb2e7a000
       45735000	      4572	800043a4	004fa283	lw	x5,4(x31)	 x31:0x80009ef8  x5=0x8000190c PA:0x80009efc
       45745000	      4573	800043a8	017e37b3	sltu	x15,x28,x23	 x28:0x00000000 x23:0x00000000 x15=0x00000000
       45755000	      4574	800043ac	01be9933	sll	x18,x29,x27	 x29:0xbe13e000 x27:0x00000001 x18=0x7c27c000
       45765000	      4575	800043b0	0064d333	srl	x6,x9,x6	  x9:0xb2e7a000  x6:0x8000a5f8  x6=0x000000b2
       45775000	      4576	800043b4	0058e833	or	x16,x17,x5	 x17:0x00000080  x5:0x8000190c x16=0x8000198c
       45785000	      4577	800043b8	01cf8f93	addi	x31,x31,28	 x31:0x80009ef8 x31=0x80009f14
       45795000	      4578	800043bc	41d6d613	srai	x12,x13,0x1d	 x13:0xffffbfff x12=0xffffffff
       45805000	      4579	800043c0	00128893	addi	x17,x5,1	  x5:0x8000190c x17=0x8000190d
       45815000	      4580	800043c4	000888e7	jalr	x17,x17,0	 x17:0x8000190d x17=0x800043c4
       45825000	      4581	00000000	00000013	addi	x0,x0,0	  x0:0x00000000
       45835000	      4582	8000190c	00000013	addi	x0,x0,0	  x0:0x00000000
       45845000	      4583	80001910	41e98633	sub	x12,x19,x30	 x19:0x00000000 x30:0x00000801 x12=0xfffff7ff
       45855000	      4584	80001914	018465b3	or	x11,x8,x24	  x8:0x00000000 x24:0xffffffc5 x11=0xffffffc5
       45865000	      4585	80001918	03b3c463	blt	x7,x27,80001940	  x7:0x00000080 x27:0x00000001
       45875000	      4586	8000191c	016d9293	slli	x5,x27,0x16	 x27:0x00000001  x5=0x00400000
       45885000	      4587	80001920	02b09063	bne	x1,x11,80001940	  x1:0x00000001 x11:0xffffffc5
       45895000	      4588	00000000	00000013	addi	x0,x0,0	  x0:0x00000000
       45905000	      4589	8000193c	00000013	addi	x0,x0,0	  x0:0x00000000
       45915000	      4590	80001940	00ff67b3	or	x15,x30,x15	 x30:0x00000801 x15:0x00000000 x15=0x00000801
       45925000	      4591	80001944	00425cb3	srl	x25,x4,x4	  x4:0x00000000  x4:0x00000000 x25=0x00000000
       45935000	      4592	80001948	4140d5b3	sra	x11,x1,x20	  x1:0x00000001 x20:0xe4e90541 x11=0x00000000
       45945000	      4593	8000194c	004fa283	lw	x5,4(x31)	 x31:0x80009f14  x5=0x80000e04 PA:0x80009f18
       45955000	      4594	80001950	02cf8f93	addi	x31,x31,44	 x31:0x80009f14 x31=0x80009f40
       45965000	      4595	80001954	4e8ffb13	andi	x22,x31,1256	 x31:0x80009f40 x22=0x00000440
       45975000	      4596	80001958	01111db3	sll	x27,x2,x17	  x2:0x93c42000 x17:0x800043c4 x27=0x3c420000
       45985000	      4597	8000195c	00028b13	addi	x22,x5,0	  x5:0x80000e04 x22=0x80000e04
       45995000	      4598	80001960	000b0b67	jalr	x22,x22,0	 x22:0x80000e04 x22=0x80001960
       46005000	      4599	00000000	00000013	addi	x0,x0,0	  x0:0x00000000
       46015000	      4600	80000e04	00000013	addi	x0,x0,0	  x0:0x00000000
       46025000	      4601	80000e08	016f0133	add	x2,x30,x22	 x30:0x00000801 x22:0x80001960  x2=0x80002161
       46035000	      4602	80000e0c	019a0c33	add	x24,x20,x25	 x20:0xe4e90541 x25:0x00000000 x24=0xe4e90541
       46045000	      4603	80000e10	3b9df193	andi	x3,x27,953	 x27:0x3c420000  x3=0x00000000
       46055000	      4604	80000e14	0335fe63	bgeu	x11,x19,80000e50	 x11:0x00000000 x19:0x00000000
       46065000	      4605	00000000	00000013	addi	x0,x0,0	  x0:0x00000000
       46075000	      4606	80000e4c	00000013	addi	x0,x0,0	  x0:0x00000000
       46085000	      4607	80000e50	3bb6a293	slti	x5,x13,955	 x13:0xffffbfff  x5=0x00000001
       46095000	      4608	80000e54	05c34063	blt	x6,x28,80000e94	  x6:0x000000b2 x28:0x00000000
       46105000	      4609	80000e58	009f0e33	add	x28,x30,x9	 x30:0x00000801  x9:0xb2e7a000 x28=0xb2e7a801
       46115000	      4610	80000e5c	01d33833	sltu	x16,x6,x29	  x6:0x000000b2 x29:0xbe13e000 x16=0x00000001
       46125000	      4611	80000e60	009cff33	and	x30,x25,x9	 x25:0x00000000  x9:0xb2e7a000 x30=0x00000000
       46135000	      4612	80000e64	00bb25b3	slt	x11,x22,x11	 x22:0x80001960 x11:0x00000000 x11=0x00000001
       46145000	      4613	80000e68	4049d2b3	sra	x5,x19,x4	 x19:0x00000000  x4:0x00000000  x5=0x00000000
       46155000	      4614	80000e6c	574cb793	sltiu	x15,x25,1396	 x25:0x00000000 x15=0x00000001
       46165000	      4615	80000e70	97648413	addi	x8,x9,-1674	  x9:0xb2e7a000  x8=0xb2e79976
       46175000	      4616	80000e74	00429113	slli	x2,x5,0x4	  x5:0x00000000  x2=0x00000000
       46185000	      4617	80000e78	01be59b3	srl	x19,x28,x27	 x28:0xb2e7a801 x27:0x3c420000 x19=0xb2e7a801
       46195000	      4618	80000e7c	01738e33	add	x28,x7,x23	  x7:0x00000080 x23:0x00000000 x28=0x00000080
       46205000	      4619	80000e80	414a8333	sub	x6,x21,x20	 x21:0xbe13ffff x20:0xe4e90541  x6=0xd92afabe
       46215000	      4620	80000e84	001391b3	sll	x3,x7,x1	  x7:0x00000080  x1:0x00000001  x3=0x00000100
       46225000	      4621	80000e88	0006d213	srli	x4,x13,0x0	 x13:0xffffbfff  x4=0xffffbfff
       46235000	      4622	80000e8c	0058da63	bge	x17,x5,80000ea0	 x17:0x800043c4  x5:0x00000000
       46245000	      4623	80000e90	a92a6113	ori	x2,x20,-1390	 x20:0xe4e90541  x2=0xffffffd3
       46255000	      4624	80000e94	02c1e863	bltu	x3,x12,80000ec4	  x3:0x00000100 x12:0xfffff7ff
       46265000	      4625	00000000	00000013	addi	x0,x0,0	  x0:0x00000000
       46275000	      4626	80000ec0	00000013	addi	x0,x0,0	  x0:0x00000000
       46285000	      4627	80000ec4	7e144993	xori	x19,x8,2017	  x8:0xb2e79976 x19=0xb2e79e97
       46295000	      4628	80000ec8	0000be33	sltu	x28,x1,x0	  x1:0x00000001  x0:0x00000000 x28=0x00000000
       46305000	      4629	80000ecc	01f6c4b3	xor	x9,x13,x31	 x13:0xffffbfff x31:0x80009f40  x9=0x7fff20bf
       46315000	      4630	80000ed0	012401b3	add	x3,x8,x18	  x8:0xb2e79976 x18:0x7c27c000  x3=0x2f0f5976
       46325000	      4631	80000ed4	672bcc93	xori	x25,x23,1650	 x23:0x00000000 x25=0x00000672
       46335000	      4632	80000ed8	006bfcb3	and	x25,x23,x6	 x23:0x00000000  x6:0xd92afabe x25=0x00000000
       46345000	      4633	80000edc	1918e913	ori	x18,x17,401	 x17:0x800043c4 x18=0x800043d5
       46355000	      4634	80000ee0	0044bbb3	sltu	x23,x9,x4	  x9:0x7fff20bf  x4:0xffffbfff x23=0x00000001
       46365000	      4635	80000ee4	006fde63	bge	x31,x6,80000f00	 x31:0x80009f40  x6:0xd92afabe
       46375000	      4636	80000ee8	009ef2b3	and	x5,x29,x9	 x29:0xbe13e000  x9:0x7fff20bf  x5=0x3e132000
       46385000	      4637	80000eec	0074feb3	and	x29,x9,x7	  x9:0x7fff20bf  x7:0x00000080 x29=0x00000080
       46395000	      4638	80000ef0	40cd5e33	sra	x28,x26,x12	 x26:0x00000000 x12:0xfffff7ff x28=0x00000000
       46405000	      4639	80000ef4	40ea59b3	sra	x19,x20,x14	 x20:0xe4e90541 x14:0x80009fc4 x19=0xfe4e9054
       46415000	      4640	80000ef8	4be4ec93	ori	x25,x9,1214	  x9:0x7fff20bf x25=0x7fff24bf
       46425000	      4641	80000efc	05059863	bne	x11,x16,80000f4c	 x11:0x00000001 x16:0x00000001
       46435000	      4642	80000f00	01d5da63	bge	x11,x29,80000f14	 x11:0x00000001 x29:0x00000080
       46445000	      4643	80000f04	00a9eab3	or	x21,x19,x10	 x19:0xfe4e9054 x10:0xe1376000 x21=0xff7ff054
       46455000	      4644	80000f08	c49a9037	lui	x0,0xc49a9	
       46465000	      4645	80000f0c	003b45b3	xor	x11,x22,x3	 x22:0x80001960  x3:0x2f0f5976 x11=0xaf0f4016
       46475000	      4646	80000f10	40515693	srai	x13,x2,0x5	  x2:0xffffffd3 x13=0xfffffffe
       46485000	      4647	80000f14	01f84c63	blt	x16,x31,80000f2c	 x16:0x00000001 x31:0x80009f40
       46495000	      4648	80000f18	405d5833	sra	x16,x26,x5	 x26:0x00000000  x5:0x3e132000 x16=0x00000000
       46505000	      4649	80000f1c	d72c4f13	xori	x30,x24,-654	 x24:0xe4e90541 x30=0x1b16f833
       46515000	      4650	80000f20	ad8fae93	slti	x29,x31,-1320	 x31:0x80009f40 x29=0x00000001
       46525000	      4651	80000f24	d9ed4213	xori	x4,x26,-610	 x26:0x00000000  x4=0xfffffd9e
       46535000	      4652	80000f28	00000013	addi	x0,x0,0	  x0:0x00000000
       46545000	      4653	80000f2c	00adf1b3	and	x3,x27,x10	 x27:0x3c420000 x10:0xe1376000  x3=0x20020000
       46555000	      4654	80000f30	00b798b3	sll	x17,x15,x11	 x15:0x00000001 x11:0xaf0f4016 x17=0x00400000
       46565000	      4655	80000f34	00000013	addi	x0,x0,0	  x0:0x00000000
       46575000	      4656	80000f38	01c29e63	bne	x5,x28,80000f54	  x5:0x3e132000 x28:0x00000000
       46585000	      4657	00000000	00000013	addi	x0,x0,0	  x0:0x00000000
       46595000	      4658	80000f50	00000013	addi	x0,x0,0	  x0:0x00000000
       46605000	      4659	80000f54	00ebd833	srl	x16,x23,x14	 x23:0x00000001 x14:0x80009fc4 x16=0x00000000
       46615000	      4660	80000f58	03091263	bne	x18,x16,80000f7c	 x18:0x800043d5 x16:0x00000000
       46625000	      4661	00000000	00000013	addi	x0,x0,0	  x0:0x00000000
       46635000	      4662	80000f78	00000013	addi	x0,x0,0	  x0:0x00000000
       46645000	      4663	80000f7c	04729663	bne	x5,x7,80000fc8	  x5:0x3e132000  x7:0x00000080
       46655000	      4664	00000000	00000013	addi	x0,x0,0	  x0:0x00000000
       46665000	      4665	80000fc4	00000013	addi	x0,x0,0	  x0:0x00000000
       46675000	      4666	80000fc8	05f0c4b7	lui	x9,0x5f0c	  x9=0x05f0c000
       46685000	      4667	80000fcc	12780f13	addi	x30,x16,295	 x16:0x00000000 x30=0x00000127
       46695000	      4668	80000fd0	cf55b7b7	lui	x15,0xcf55b	 x15=0xcf55b000
       46705000	      4669	80000fd4	006ed513	srli	x10,x29,0x6	 x29:0x00000001 x10=0x00000000
       46715000	      4670	80000fd8	5efdf2b7	lui	x5,0x5efdf	  x5=0x5efdf000
       46725000	      4671	80000fdc	03fd6a63	bltu	x26,x31,80001010	 x26:0x00000000 x31:0x80009f40
       46735000	      4672	00000000	00000013	addi	x0,x0,0	  x0:0x00000000
       46745000	      4673	8000100c	00000013	addi	x0,x0,0	  x0:0x00000000
       46755000	      4674	80001010	00932933	slt	x18,x6,x9	  x6:0xd92afabe  x9:0x05f0c000 x18=0x00000001
       46765000	      4675	80001014	01309113	slli	x2,x1,0x13	  x1:0x00000001  x2=0x00080000
       46775000	      4676	80001018	4190d7b3	sra	x15,x1,x25	  x1:0x00000001 x25:0x7fff24bf x15=0x00000000
       46785000	      4677	8000101c	4b0cb213	sltiu	x4,x25,1200	 x25:0x7fff24bf  x4=0x00000000
       46795000	      4678	80001020	2ba10993	addi	x19,x2,698	  x2:0x00080000 x19=0x000802ba
       46805000	      4679	80001024	c010a693	slti	x13,x1,-1023	  x1:0x00000001 x13=0x00000000
       46815000	      4680	80001028	ed1d6b13	ori	x22,x26,-303	 x26:0x00000000 x22=0xfffffed1
       46825000	      4681	8000102c	0516f463	bgeu	x13,x17,80001074	 x13:0x00000000 x17:0x00400000
       46835000	      4682	80001030	0032d133	srl	x2,x5,x3	  x5:0x5efdf000  x3:0x20020000  x2=0x5efdf000
       46845000	      4683	80001034	1f9f0813	addi	x16,x30,505	 x30:0x00000127 x16=0x00000320
       46855000	      4684	80001038	00ad9593	slli	x11,x27,0xa	 x27:0x3c420000 x11=0x08000000
       46865000	      4685	8000103c	00000013	addi	x0,x0,0	  x0:0x00000000
       46875000	      4686	80001040	95dafb93	andi	x23,x21,-1699	 x21:0xff7ff054 x23=0xff7ff054
       46885000	      4687	80001044	daf1e813	ori	x16,x3,-593	  x3:0x20020000 x16=0xfffffdaf
       46895000	      4688	80001048	00ed9a93	slli	x21,x27,0xe	 x27:0x3c420000 x21=0x80000000
       46905000	      4689	8000104c	0022f2b3	and	x5,x5,x2	  x5:0x5efdf000  x2:0x5efdf000  x5=0x5efdf000
       46915000	      4690	80001050	00000013	addi	x0,x0,0	  x0:0x00000000
       46925000	      4691	80001054	00bff833	and	x16,x31,x11	 x31:0x80009f40 x11:0x08000000 x16=0x00000000
       46935000	      4692	80001058	d4443793	sltiu	x15,x8,-700	  x8:0xb2e79976 x15=0x00000001
       46945000	      4693	8000105c	00e85333	srl	x6,x16,x14	 x16:0x00000000 x14:0x80009fc4  x6=0x00000000
       46955000	      4694	80001060	0b88ee93	ori	x29,x17,184	 x17:0x00400000 x29=0x004000b8
       46965000	      4695	80001064	00622b33	slt	x22,x4,x6	  x4:0x00000000  x6:0x00000000 x22=0x00000000
       46975000	      4696	80001068	231d8413	addi	x8,x27,561	 x27:0x3c420000  x8=0x3c420231
       46985000	      4697	8000106c	01b8f633	and	x12,x17,x27	 x17:0x00400000 x27:0x3c420000 x12=0x00400000
       46995000	      4698	80001070	01de5c63	bge	x28,x29,80001088	 x28:0x00000000 x29:0x004000b8
       47005000	      4699	80001074	02884a63	blt	x16,x8,800010a8	 x16:0x00000000  x8:0x3c420231
       47015000	      4700	00000000	00000013	addi	x0,x0,0	  x0:0x00000000
       47025000	      4701	800010a4	00000013	addi	x0,x0,0	  x0:0x00000000
       47035000	      4702	800010a8	00000013	addi	x0,x0,0	  x0:0x00000000
       47045000	      4703	800010ac	f439b693	sltiu	x13,x19,-189	 x19:0x000802ba x13=0x00000001
       47055000	      4704	800010b0	00ecda93	srli	x21,x25,0xe	 x25:0x7fff24bf x21=0x0001fffc
       47065000	      4705	800010b4	001feb33	or	x22,x31,x1	 x31:0x80009f40  x1:0x00000001 x22=0x80009f41
       47075000	      4706	800010b8	412cd4b3	sra	x9,x25,x18	 x25:0x7fff24bf x18:0x00000001  x9=0x3fff925f
       47085000	      4707	800010bc	0003c2b3	xor	x5,x7,x0	  x7:0x00000080  x0:0x00000000  x5=0x00000080
       47095000	      4708	800010c0	00d91263	bne	x18,x13,800010c4	 x18:0x00000001 x13:0x00000001
       47105000	      4709	800010c4	00ea5293	srli	x5,x20,0xe	 x20:0xe4e90541  x5=0x000393a4
       47115000	      4710	800010c8	c82dbd93	sltiu	x27,x27,-894	 x27:0x3c420000 x27=0x00000001
       47125000	      4711	800010cc	00771a63	bne	x14,x7,800010e0	 x14:0x80009fc4  x7:0x00000080
       47135000	      4712	00000000	00000013	addi	x0,x0,0	  x0:0x00000000
       47145000	      4713	800010dc	00000013	addi	x0,x0,0	  x0:0x00000000
       47155000	      4714	800010e0	016a6ab3	or	x21,x20,x22	 x20:0xe4e90541 x22:0x80009f41 x21=0xe4e99f41
       47165000	      4715	800010e4	01ba3bb3	sltu	x23,x20,x27	 x20:0xe4e90541 x27:0x00000001 x23=0x00000000
       47175000	      4716	800010e8	409bdab3	sra	x21,x23,x9	 x23:0x00000000  x9:0x3fff925f x21=0x00000000
       47185000	      4717	800010ec	01ba52b3	srl	x5,x20,x27	 x20:0xe4e90541 x27:0x00000001  x5=0x727482a0
       47195000	      4718	800010f0	00302db3	slt	x27,x0,x3	  x0:0x00000000  x3:0x20020000 x27=0x00000001
       47205000	      4719	800010f4	2848a097	auipc	x1,0x2848a	  x1=0xa848b0f0
       47215000	      4720	800010f8	015b5263	bge	x22,x21,800010fc	 x22:0x80009f41 x21:0x00000000
       47225000	      4721	800010fc	dcd82393	slti	x7,x16,-563	 x16:0x00000000  x7=0x00000000
       47235000	      4722	80001100	0050b7b3	sltu	x15,x1,x5	  x1:0xa848b0f0  x5:0x727482a0 x15=0x00000000
       47245000	      4723	80001104	00000013	addi	x0,x0,0	  x0:0x00000000
       47255000	      4724	80001108	00000013	addi	x0,x0,0	  x0:0x00000000
       47265000	      4725	8000110c	b9f38293	addi	x5,x7,-1121	  x7:0x00000000  x5=0xfffffb9f
       47275000	      4726	80001110	0168aab3	slt	x21,x17,x22	 x17:0x00400000 x22:0x80009f41 x21=0x00000000
       47285000	      4727	80001114	00d91ab3	sll	x21,x18,x13	 x18:0x00000001 x13:0x00000001 x21=0x00000002
       47295000	      4728	80001118	51047a93	andi	x21,x8,1296	  x8:0x3c420231 x21=0x00000010
       47305000	      4729	8000111c	39e70293	addi	x5,x14,926	 x14:0x80009fc4  x5=0x8000a362
       47315000	      4730	80001120	0183c4b3	xor	x9,x7,x24	  x7:0x00000000 x24:0xe4e90541  x9=0xe4e90541
       47325000	      4731	80001124	0057f8b3	and	x17,x15,x5	 x15:0x00000000  x5:0x8000a362 x17=0x00000000
       47335000	      4732	80001128	04b4e463	bltu	x9,x11,80001170	  x9:0xe4e90541 x11:0x08000000
       47345000	      4733	8000112c	02b49a63	bne	x9,x11,80001160	  x9:0xe4e90541 x11:0x08000000
       47355000	      4734	00000000	00000013	addi	x0,x0,0	  x0:0x00000000
       47365000	      4735	8000115c	00000013	addi	x0,x0,0	  x0:0x00000000
       47375000	      4736	80001160	314c7613	andi	x12,x24,788	 x24:0xe4e90541 x12=0x00000100
       47385000	      4737	80001164	01ffe263	bltu	x31,x31,80001168	 x31:0x80009f40 x31:0x80009f40
       47395000	      4738	80001168	01af3333	sltu	x6,x30,x26	 x30:0x00000127 x26:0x00000000  x6=0x00000000
       47405000	      4739	8000116c	1def7113	andi	x2,x30,478	 x30:0x00000127  x2=0x00000106
       47415000	      4740	80001170	84708d13	addi	x26,x1,-1977	  x1:0xa848b0f0 x26=0xa848a937
       47425000	      4741	80001174	00a1d093	srli	x1,x3,0xa	  x3:0x20020000  x1=0x00080080
       47435000	      4742	80001178	01ed5e33	srl	x28,x26,x30	 x26:0xa848a937 x30:0x00000127 x28=0x01509152
       47445000	      4743	8000117c	4051d693	srai	x13,x3,0x5	  x3:0x20020000 x13=0x01001000
       47455000	      4744	80001180	01db4bb3	xor	x23,x22,x29	 x22:0x80009f41 x29:0x004000b8 x23=0x80409ff9
       47465000	      4745	80001184	78784d13	xori	x26,x16,1927	 x16:0x00000000 x26=0x00000787
       47475000	      4746	80001188	0192b1b3	sltu	x3,x5,x25	  x5:0x8000a362 x25:0x7fff24bf  x3=0x00000000
       47485000	      4747	8000118c	00e5e033	or	x0,x11,x14	 x11:0x08000000 x14:0x80009fc4
       47495000	      4748	80001190	03896c63	bltu	x18,x24,800011c8	 x18:0x00000001 x24:0xe4e90541
       47505000	      4749	00000000	00000013	addi	x0,x0,0	  x0:0x00000000
       47515000	      4750	800011c4	00000013	addi	x0,x0,0	  x0:0x00000000
       47525000	      4751	800011c8	01c1df33	srl	x30,x3,x28	  x3:0x00000000 x28:0x01509152 x30=0x00000000
       47535000	      4752	800011cc	01578e63	beq	x15,x21,800011e8	 x15:0x00000000 x21:0x00000010
       47545000	      4753	800011d0	405d8033	sub	x0,x27,x5	 x27:0x00000001  x5:0x8000a362
       47555000	      4754	800011d4	00000013	addi	x0,x0,0	  x0:0x00000000
       47565000	      4755	800011d8	00de5393	srli	x7,x28,0xd	 x28:0x01509152  x7=0x00000a84
       47575000	      4756	800011dc	00dbf833	and	x16,x23,x13	 x23:0x80409ff9 x13:0x01001000 x16=0x00001000
       47585000	      4757	800011e0	0335c863	blt	x11,x19,80001210	 x11:0x08000000 x19:0x000802ba
       47595000	      4758	800011e4	001a5b13	srli	x22,x20,0x1	 x20:0xe4e90541 x22=0x727482a0
       47605000	      4759	800011e8	bdb73893	sltiu	x17,x14,-1061	 x14:0x80009fc4 x17=0x00000001
       47615000	      4760	800011ec	40f90e33	sub	x28,x18,x15	 x18:0x00000001 x15:0x00000000 x28=0x00000001
       47625000	      4761	800011f0	116b7093	andi	x1,x22,278	 x22:0x727482a0  x1=0x00000000
       47635000	      4762	800011f4	5a3fa293	slti	x5,x31,1443	 x31:0x80009f40  x5=0x00000001
       47645000	      4763	800011f8	4f383c93	sltiu	x25,x16,1267	 x16:0x00001000 x25=0x00000000
       47655000	      4764	800011fc	03727a63	bgeu	x4,x23,80001230	  x4:0x00000000 x23:0x80409ff9
       47665000	      4765	80001200	01c59e63	bne	x11,x28,8000121c	 x11:0x08000000 x28:0x00000001
       47675000	      4766	00000000	00000013	addi	x0,x0,0	  x0:0x00000000
       47685000	      4767	80001218	00000013	addi	x0,x0,0	  x0:0x00000000
       47695000	      4768	8000121c	d5b1cb13	xori	x22,x3,-677	  x3:0x00000000 x22=0xfffffd5b
       47705000	      4769	80001220	014492b3	sll	x5,x9,x20	  x9:0xe4e90541 x20:0xe4e90541  x5=0xc9d20a82
       47715000	      4770	80001224	01dec7b3	xor	x15,x29,x29	 x29:0x004000b8 x29:0x004000b8 x15=0x00000000
       47725000	      4771	80001228	01049eb3	sll	x29,x9,x16	  x9:0xe4e90541 x16:0x00001000 x29=0xe4e90541
       47735000	      4772	8000122c	9ea9f937	lui	x18,0x9ea9f	 x18=0x9ea9f000
       47745000	      4773	80001230	0058c033	xor	x0,x17,x5	 x17:0x00000001  x5:0xc9d20a82
       47755000	      4774	80001234	35c448b7	lui	x17,0x35c44	 x17=0x35c44000
       47765000	      4775	80001238	01142233	slt	x4,x8,x17	  x8:0x3c420231 x17:0x35c44000  x4=0x00000000
       47775000	      4776	8000123c	00000013	addi	x0,x0,0	  x0:0x00000000
       47785000	      4777	80001240	004c1213	slli	x4,x24,0x4	 x24:0xe4e90541  x4=0x4e905410
       47795000	      4778	80001244	05fbc663	blt	x23,x31,80001290	 x23:0x80409ff9 x31:0x80009f40
       47805000	      4779	80001248	005612b3	sll	x5,x12,x5	 x12:0x00000100  x5:0xc9d20a82  x5=0x00000400
       47815000	      4780	8000124c	0078dd13	srli	x26,x17,0x7	 x17:0x35c44000 x26=0x006b8880
       47825000	      4781	80001250	0169d593	srli	x11,x19,0x16	 x19:0x000802ba x11=0x00000000
       47835000	      4782	80001254	00000013	addi	x0,x0,0	  x0:0x00000000
       47845000	      4783	80001258	41010d33	sub	x26,x2,x16	  x2:0x00000106 x16:0x00001000 x26=0xfffff106
       47855000	      4784	8000125c	012b68b3	or	x17,x22,x18	 x22:0xfffffd5b x18:0x9ea9f000 x17=0xfffffd5b
       47865000	      4785	80001260	0001c033	xor	x0,x3,x0	  x3:0x00000000  x0:0x00000000
       47875000	      4786	80001264	01f75513	srli	x10,x14,0x1f	 x14:0x80009fc4 x10=0x00000001
       47885000	      4787	80001268	40a25eb3	sra	x29,x4,x10	  x4:0x4e905410 x10:0x00000001 x29=0x27482a08
       47895000	      4788	8000126c	03127263	bgeu	x4,x17,80001290	  x4:0x4e905410 x17:0xfffffd5b
       47905000	      4789	80001270	19717693	andi	x13,x2,407	  x2:0x00000106 x13=0x00000106
       47915000	      4790	80001274	787cbb17	auipc	x22,0x787cb	 x22=0xf87cc270
       47925000	      4791	80001278	02cd1e63	bne	x26,x12,800012b4	 x26:0xfffff106 x12:0x00000100
       47935000	      4792	00000000	00000013	addi	x0,x0,0	  x0:0x00000000
       47945000	      4793	800012b0	00000013	addi	x0,x0,0	  x0:0x00000000
       47955000	      4794	800012b4	1d847a93	andi	x21,x8,472	  x8:0x3c420231 x21=0x00000010
       47965000	      4795	800012b8	4023d493	srai	x9,x7,0x2	  x7:0x00000a84  x9=0x000002a1
       47975000	      4796	800012bc	01c17263	bgeu	x2,x28,800012c0	  x2:0x00000106 x28:0x00000001
       47985000	      4797	00000000	00000013	addi	x0,x0,0	  x0:0x00000000
       47995000	      4798	800012bc	00000013	addi	x0,x0,0	  x0:0x00000000
       48005000	      4799	800012c0	231df613	andi	x12,x27,561	 x27:0x00000001 x12=0x00000001
       48015000	      4800	800012c4	91148b17	auipc	x22,0x91148	 x22=0x111492c0
       48025000	      4801	800012c8	0182e4b3	or	x9,x5,x24	  x5:0x00000400 x24:0xe4e90541  x9=0xe4e90541
       48035000	      4802	800012cc	003cb4b3	sltu	x9,x25,x3	 x25:0x00000000  x3:0x00000000  x9=0x00000000
       48045000	      4803	800012d0	0138b233	sltu	x4,x17,x19	 x17:0xfffffd5b x19:0x000802ba  x4=0x00000000
       48055000	      4804	800012d4	133dbc93	sltiu	x25,x27,307	 x27:0x00000001 x25=0x00000001
       48065000	      4805	800012d8	00c313b3	sll	x7,x6,x12	  x6:0x00000000 x12:0x00000001  x7=0x00000000
       48075000	      4806	800012dc	00196f33	or	x30,x18,x1	 x18:0x9ea9f000  x1:0x00000000 x30=0x9ea9f000
       48085000	      4807	800012e0	01558c63	beq	x11,x21,800012f8	 x11:0x00000000 x21:0x00000010
       48095000	      4808	800012e4	00c25893	srli	x17,x4,0xc	  x4:0x00000000 x17=0x00000000
       48105000	      4809	800012e8	2560b193	sltiu	x3,x1,598	  x1:0x00000000  x3=0x00000001
       48115000	      4810	800012ec	003edbb3	srl	x23,x29,x3	 x29:0x27482a08  x3:0x00000001 x23=0x13a41504
       48125000	      4811	800012f0	432b4393	xori	x7,x22,1074	 x22:0x111492c0  x7=0x111496f2
       48135000	      4812	800012f4	40225093	srai	x1,x4,0x2	  x4:0x00000000  x1=0x00000000
       48145000	      4813	800012f8	01e9c633	xor	x12,x19,x30	 x19:0x000802ba x30:0x9ea9f000 x12=0x9ea1f2ba
       48155000	      4814	800012fc	00e4a6b3	slt	x13,x9,x14	  x9:0x00000000 x14:0x80009fc4 x13=0x00000000
       48165000	      4815	80001300	0433e663	bltu	x7,x3,8000134c	  x7:0x111496f2  x3:0x00000001
       48175000	      4816	80001304	5d4b6e13	ori	x28,x22,1492	 x22:0x111492c0 x28=0x111497d4
       48185000	      4817	80001308	41b2d013	srai	x0,x5,0x1b	  x5:0x00000400
       48195000	      4818	8000130c	43eb6e13	ori	x28,x22,1086	 x22:0x111492c0 x28=0x111496fe
       48205000	      4819	80001310	01f37933	and	x18,x6,x31	  x6:0x00000000 x31:0x80009f40 x18=0x00000000
       48215000	      4820	80001314	00f61db3	sll	x27,x12,x15	 x12:0x9ea1f2ba x15:0x00000000 x27=0x9ea1f2ba
       48225000	      4821	80001318	e76a3f13	sltiu	x30,x20,-394	 x20:0xe4e90541 x30=0x00000001
       48235000	      4822	8000131c	01663533	sltu	x10,x12,x22	 x12:0x9ea1f2ba x22:0x111492c0 x10=0x00000000
       48245000	      4823	80001320	f1347793	andi	x15,x8,-237	  x8:0x3c420231 x15=0x3c420211
       48255000	      4824	80001324	01a95b13	srli	x22,x18,0x1a	 x18:0x00000000 x22=0x00000000
       48265000	      4825	80001328	00637eb3	and	x29,x6,x6	  x6:0x00000000  x6:0x00000000 x29=0x00000000
       48275000	      4826	8000132c	04ed6463	bltu	x26,x14,80001374	 x26:0xfffff106 x14:0x80009fc4
       48285000	      4827	80001330	02864a93	xori	x21,x12,40	 x12:0x9ea1f2ba x21=0x9ea1f292
       48295000	      4828	80001334	01f50263	beq	x10,x31,80001338	 x10:0x00000000 x31:0x80009f40
       48305000	      4829	80001338	019c64b3	or	x9,x24,x25	 x24:0xe4e90541 x25:0x00000001  x9=0xe4e90541
       48315000	      4830	8000133c	010f80b3	add	x1,x31,x16	 x31:0x80009f40 x16:0x00001000  x1=0x8000af40
       48325000	      4831	80001340	005c7433	and	x8,x24,x5	 x24:0xe4e90541  x5:0x00000400  x8=0x00000400
       48335000	      4832	80001344	01950bb3	add	x23,x10,x25	 x10:0x00000000 x25:0x00000001 x23=0x00000001
       48345000	      4833	80001348	41b059b3	sra	x19,x0,x27	  x0:0x00000000 x27:0x9ea1f2ba x19=0x00000000
       48355000	      4834	8000134c	008cc463	blt	x25,x8,80001354	 x25:0x00000001  x8:0x00000400
       48365000	      4835	00000000	00000013	addi	x0,x0,0	  x0:0x00000000
       48375000	      4836	80001350	00000013	addi	x0,x0,0	  x0:0x00000000
       48385000	      4837	80001354	01adaab7	lui	x21,0x1ada	 x21=0x01ada000
       48395000	      4838	80001358	020d4e63	blt	x26,x0,80001394	 x26:0xfffff106  x0:0x00000000
       48405000	      4839	00000000	00000013	addi	x0,x0,0	  x0:0x00000000
       48415000	      4840	80001390	00000013	addi	x0,x0,0	  x0:0x00000000
       48425000	      4841	80001394	00395933	srl	x18,x18,x3	 x18:0x00000000  x3:0x00000001 x18=0x00000000
       48435000	      4842	80001398	00d37f33	and	x30,x6,x13	  x6:0x00000000 x13:0x00000000 x30=0x00000000
       48445000	      4843	8000139c	873aec13	ori	x24,x21,-1933	 x21:0x01ada000 x24=0xfffff873
       48455000	      4844	800013a0	03b16e63	bltu	x2,x27,800013dc	  x2:0x00000106 x27:0x9ea1f2ba
       48465000	      4845	00000000	00000013	addi	x0,x0,0	  x0:0x00000000
       48475000	      4846	800013d8	00000013	addi	x0,x0,0	  x0:0x00000000
       48485000	      4847	800013dc	23af8c13	addi	x24,x31,570	 x31:0x80009f40 x24=0x8000a17a
       48495000	      4848	800013e0	41c25c93	srai	x25,x4,0x1c	  x4:0x00000000 x25=0x00000000
       48505000	      4849	800013e4	58998513	addi	x10,x19,1417	 x19:0x00000000 x10=0x00000589
       48515000	      4850	800013e8	017f65b3	or	x11,x30,x23	 x30:0x00000000 x23:0x00000001 x11=0x00000001
       48525000	      4851	800013ec	0f254263	blt	x10,x18,800014d0	 x10:0x00000589 x18:0x00000000
       48535000	      4852	800013f0	000e9e63	bne	x29,x0,8000140c	 x29:0x00000000  x0:0x00000000
       48545000	      4853	800013f4	00d82c33	slt	x24,x16,x13	 x16:0x00001000 x13:0x00000000 x24=0x00000000
       48555000	      4854	800013f8	002d74b3	and	x9,x26,x2	 x26:0xfffff106  x2:0x00000106  x9=0x00000106
       48565000	      4855	800013fc	0083b233	sltu	x4,x7,x8	  x7:0x111496f2  x8:0x00000400  x4=0x00000000
       48575000	      4856	80001400	04383393	sltiu	x7,x16,67	 x16:0x00001000  x7=0x00000000
       48585000	      4857	80001404	0c088c63	beq	x17,x0,800014dc	 x17:0x00000000  x0:0x00000000
       48595000	      4858	00000000	00000013	addi	x0,x0,0	  x0:0x00000000
       48605000	      4859	800014d8	00000013	addi	x0,x0,0	  x0:0x00000000
       48615000	      4860	800014dc	05b47263	bgeu	x8,x27,80001520	  x8:0x00000400 x27:0x9ea1f2ba
       48625000	      4861	800014e0	00594c63	blt	x18,x5,800014f8	 x18:0x00000000  x5:0x00000400
       48635000	      4862	00000000	00000013	addi	x0,x0,0	  x0:0x00000000
       48645000	      4863	800014f4	00000013	addi	x0,x0,0	  x0:0x00000000
       48655000	      4864	800014f8	9ae98793	addi	x15,x19,-1618	 x19:0x00000000 x15=0xfffff9ae
       48665000	      4865	800014fc	003c1093	slli	x1,x24,0x3	 x24:0x00000000  x1=0x00000000
       48675000	      4866	80001500	93f62f13	slti	x30,x12,-1729	 x12:0x9ea1f2ba x30=0x00000001
       48685000	      4867	80001504	01bbf263	bgeu	x23,x27,80001508	 x23:0x00000001 x27:0x9ea1f2ba
       48695000	      4868	80001508	01a7fe63	bgeu	x15,x26,80001524	 x15:0xfffff9ae x26:0xfffff106
       48705000	      4869	00000000	00000013	addi	x0,x0,0	  x0:0x00000000
       48715000	      4870	80001520	00000013	addi	x0,x0,0	  x0:0x00000000
       48725000	      4871	80001524	07707eb7	lui	x29,0x7707	 x29=0x07707000
       48735000	      4872	80001528	68876413	ori	x8,x14,1672	 x14:0x80009fc4  x8=0x80009fcc
       48745000	      4873	8000152c	1b59e093	ori	x1,x19,437	 x19:0x00000000  x1=0x000001b5
       48755000	      4874	80001530	000ac6b3	xor	x13,x21,x0	 x21:0x01ada000  x0:0x00000000 x13=0x01ada000
       48765000	      4875	80001534	01c279b3	and	x19,x4,x28	  x4:0x00000000 x28:0x111496fe x19=0x00000000
       48775000	      4876	80001538	d010c093	xori	x1,x1,-767	  x1:0x000001b5  x1=0xfffffcb4
       48785000	      4877	8000153c	f2b9c093	xori	x1,x19,-213	 x19:0x00000000  x1=0xffffff2b
       48795000	      4878	80001540	001ac133	xor	x2,x21,x1	 x21:0x01ada000  x1:0xffffff2b  x2=0xfe525f2b
       48805000	      4879	80001544	0191dd93	srli	x27,x3,0x19	  x3:0x00000001 x27=0x00000000
       48815000	      4880	80001548	00b49293	slli	x5,x9,0xb	  x9:0x00000106  x5=0x00083000
       48825000	      4881	8000154c	01efda93	srli	x21,x31,0x1e	 x31:0x80009f40 x21=0x00000002
       48835000	      4882	80001550	4434c293	xori	x5,x9,1091	  x9:0x00000106  x5=0x00000545
       48845000	      4883	80001554	12a78913	addi	x18,x15,298	 x15:0xfffff9ae x18=0xfffffad8
       48855000	      4884	80001558	0022d333	srl	x6,x5,x2	  x5:0x00000545  x2:0xfe525f2b  x6=0x00000000
       48865000	      4885	8000155c	c36db293	sltiu	x5,x27,-970	 x27:0x00000000  x5=0x00000001
       48875000	      4886	80001560	00e26c63	bltu	x4,x14,80001578	  x4:0x00000000 x14:0x80009fc4
       48885000	      4887	00000000	00000013	addi	x0,x0,0	  x0:0x00000000
       48895000	      4888	80001574	00000013	addi	x0,x0,0	  x0:0x00000000
       48905000	      4889	80001578	008a9993	slli	x19,x21,0x8	 x21:0x00000002 x19=0x00000200
       48915000	      4890	8000157c	10eb6493	ori	x9,x22,270	 x22:0x00000000  x9=0x0000010e
       48925000	      4891	80001580	017a12b3	sll	x5,x20,x23	 x20:0xe4e90541 x23:0x00000001  x5=0xc9d20a82
       48935000	      4892	80001584	03278c63	beq	x15,x18,800015bc	 x15:0xfffff9ae x18:0xfffffad8
       48945000	      4893	80001588	05665463	bge	x12,x22,800015d0	 x12:0x9ea1f2ba x22:0x00000000
       48955000	      4894	8000158c	01fe0e33	add	x28,x28,x31	 x28:0x111496fe x31:0x80009f40 x28=0x9115363e
       48965000	      4895	80001590	007fe2b3	or	x5,x31,x7	 x31:0x80009f40  x7:0x00000000  x5=0x80009f40
       48975000	      4896	80001594	018743b3	xor	x7,x14,x24	 x14:0x80009fc4 x24:0x00000000  x7=0x80009fc4
       48985000	      4897	80001598	00b08233	add	x4,x1,x11	  x1:0xffffff2b x11:0x00000001  x4=0xffffff2c
       48995000	      4898	8000159c	409fdd13	srai	x26,x31,0x9	 x31:0x80009f40 x26=0xffc0004f
       49005000	      4899	800015a0	00906333	or	x6,x0,x9	  x0:0x00000000  x9:0x0000010e  x6=0x0000010e
       49015000	      4900	800015a4	c0cc6193	ori	x3,x24,-1012	 x24:0x00000000  x3=0xfffffc0c
       49025000	      4901	800015a8	01eb9463	bne	x23,x30,800015b0	 x23:0x00000001 x30:0x00000001
       49035000	      4902	800015ac	017ad493	srli	x9,x21,0x17	 x21:0x00000002  x9=0x00000000
       49045000	      4903	800015b0	03b70c63	beq	x14,x27,800015e8	 x14:0x80009fc4 x27:0x00000000
       49055000	      4904	800015b4	05631463	bne	x6,x22,800015fc	  x6:0x0000010e x22:0x00000000
       49065000	      4905	00000000	00000013	addi	x0,x0,0	  x0:0x00000000
       49075000	      4906	800015f8	00000013	addi	x0,x0,0	  x0:0x00000000
       49085000	      4907	800015fc	e68d3013	sltiu	x0,x26,-408	 x26:0xffc0004f
       49095000	      4908	80001600	00ca9f13	slli	x30,x21,0xc	 x21:0x00000002 x30=0x00002000
       49105000	      4909	80001604	0231d263	bge	x3,x3,80001628	  x3:0xfffffc0c  x3:0xfffffc0c
       49115000	      4910	00000000	00000013	addi	x0,x0,0	  x0:0x00000000
       49125000	      4911	80001624	00000013	addi	x0,x0,0	  x0:0x00000000
       49135000	      4912	80001628	00ed9793	slli	x15,x27,0xe	 x27:0x00000000 x15=0x00000000
       49145000	      4913	8000162c	01db0263	beq	x22,x29,80001630	 x22:0x00000000 x29:0x07707000
       49155000	      4914	80001630	4d6a2493	slti	x9,x20,1238	 x20:0xe4e90541  x9=0x00000001
       49165000	      4915	80001634	006bbdb3	sltu	x27,x23,x6	 x23:0x00000001  x6:0x0000010e x27=0x00000001
       49175000	      4916	80001638	00d85633	srl	x12,x16,x13	 x16:0x00001000 x13:0x01ada000 x12=0x00001000
       49185000	      4917	8000163c	00115ab3	srl	x21,x2,x1	  x2:0xfe525f2b  x1:0xffffff2b x21=0x001fca4b
       49195000	      4918	80001640	03b4ce63	blt	x9,x27,8000167c	  x9:0x00000001 x27:0x00000001
       49205000	      4919	80001644	00000013	addi	x0,x0,0	  x0:0x00000000
       49215000	      4920	80001648	03308e63	beq	x1,x19,80001684	  x1:0xffffff2b x19:0x00000200
       49225000	      4921	8000164c	05fe4663	blt	x28,x31,80001698	 x28:0x9115363e x31:0x80009f40
       49235000	      4922	80001650	0119d013	srli	x0,x19,0x11	 x19:0x00000200
       49245000	      4923	80001654	01c421b3	slt	x3,x8,x28	  x8:0x80009fcc x28:0x9115363e  x3=0x00000001
       49255000	      4924	80001658	40c00e33	sub	x28,x0,x12	  x0:0x00000000 x12:0x00001000 x28=0xfffff000
       49265000	      4925	8000165c	01707033	and	x0,x0,x23	  x0:0x00000000 x23:0x00000001
       49275000	      4926	80001660	41ce54b3	sra	x9,x28,x28	 x28:0xfffff000 x28:0xfffff000  x9=0xfffff000
       49285000	      4927	80001664	01995c13	srli	x24,x18,0x19	 x18:0xfffffad8 x24=0x0000007f
       49295000	      4928	80001668	0057bbb3	sltu	x23,x15,x5	 x15:0x00000000  x5:0x80009f40 x23=0x00000001
       49305000	      4929	8000166c	004dcd33	xor	x26,x27,x4	 x27:0x00000001  x4:0xffffff2c x26=0xffffff2d
       49315000	      4930	80001670	01e84033	xor	x0,x16,x30	 x16:0x00001000 x30:0x00002000
       49325000	      4931	80001674	c0f93313	sltiu	x6,x18,-1009	 x18:0xfffffad8  x6=0x00000001
       49335000	      4932	80001678	4f212393	slti	x7,x2,1266	  x2:0xfe525f2b  x7=0x00000001
       49345000	      4933	8000167c	0cfd0093	addi	x1,x26,207	 x26:0xffffff2d  x1=0xfffffffc
       49355000	      4934	80001680	01017263	bgeu	x2,x16,80001684	  x2:0xfe525f2b x16:0x00001000
       49365000	      4935	00000000	00000013	addi	x0,x0,0	  x0:0x00000000
       49375000	      4936	80001680	00000013	addi	x0,x0,0	  x0:0x00000000
       49385000	      4937	80001684	d3548f13	addi	x30,x9,-715	  x9:0xfffff000 x30=0xffffed35
       49395000	      4938	80001688	01af68b3	or	x17,x30,x26	 x30:0xffffed35 x26:0xffffff2d x17=0xffffff3d
       49405000	      4939	8000168c	011714b3	sll	x9,x14,x17	 x14:0x80009fc4 x17:0xffffff3d  x9=0x80000000
       49415000	      4940	80001690	000dd233	srl	x4,x27,x0	 x27:0x00000001  x0:0x00000000  x4=0x00000001
       49425000	      4941	80001694	4033df33	sra	x30,x7,x3	  x7:0x00000001  x3:0x00000001 x30=0x00000000
       49435000	      4942	80001698	94be3793	sltiu	x15,x28,-1717	 x28:0xfffff000 x15=0x00000001
       49445000	      4943	8000169c	00000013	addi	x0,x0,0	  x0:0x00000000
       49455000	      4944	800016a0	41995e13	srai	x28,x18,0x19	 x18:0xfffffad8 x28=0xffffffff
       49465000	      4945	800016a4	01568533	add	x10,x13,x21	 x13:0x01ada000 x21:0x001fca4b x10=0x01cd6a4b
       49475000	      4946	800016a8	04011663	bne	x2,x0,800016f4	  x2:0xfe525f2b  x0:0x00000000
       49485000	      4947	00000000	00000013	addi	x0,x0,0	  x0:0x00000000
       49495000	      4948	800016f0	00000013	addi	x0,x0,0	  x0:0x00000000
       49505000	      4949	800016f4	51aea793	slti	x15,x29,1306	 x29:0x07707000 x15=0x00000000
       49515000	      4950	800016f8	00000013	addi	x0,x0,0	  x0:0x00000000
       49525000	      4951	800016fc	017a5e63	bge	x20,x23,80001718	 x20:0xe4e90541 x23:0x00000001
       49535000	      4952	80001700	40d00433	sub	x8,x0,x13	  x0:0x00000000 x13:0x01ada000  x8=0xfe526000
       49545000	      4953	80001704	0174e6b3	or	x13,x9,x23	  x9:0x80000000 x23:0x00000001 x13=0x80000001
       49555000	      4954	80001708	04aa7663	bgeu	x20,x10,80001754	 x20:0xe4e90541 x10:0x01cd6a4b
       49565000	      4955	00000000	00000013	addi	x0,x0,0	  x0:0x00000000
       49575000	      4956	80001750	00000013	addi	x0,x0,0	  x0:0x00000000
       49585000	      4957	80001754	00175db3	srl	x27,x14,x1	 x14:0x80009fc4  x1:0xfffffffc x27=0x00000008
       49595000	      4958	80001758	00000013	addi	x0,x0,0	  x0:0x00000000
       49605000	      4959	8000175c	409b5033	sra	x0,x22,x9	 x22:0x00000000  x9:0x80000000
       49615000	      4960	80001760	41a58133	sub	x2,x11,x26	 x11:0x00000001 x26:0xffffff2d  x2=0x000000d4
       49625000	      4961	80001764	00000013	addi	x0,x0,0	  x0:0x00000000
       49635000	      4962	80001768	03166e63	bltu	x12,x17,800017a4	 x12:0x00001000 x17:0xffffff3d
       49645000	      4963	00000000	00000013	addi	x0,x0,0	  x0:0x00000000
       49655000	      4964	800017a0	00000013	addi	x0,x0,0	  x0:0x00000000
       49665000	      4965	800017a4	01cefc63	bgeu	x29,x28,800017bc	 x29:0x07707000 x28:0xffffffff
       49675000	      4966	800017a8	00641d93	slli	x27,x8,0x6	  x8:0xfe526000 x27=0x94980000
       49685000	      4967	800017ac	002a5813	srli	x16,x20,0x2	 x20:0xe4e90541 x16=0x393a4150
       49695000	      4968	800017b0	0b214913	xori	x18,x2,178	  x2:0x000000d4 x18=0x00000066
       49705000	      4969	800017b4	40078cb3	sub	x25,x15,x0	 x15:0x00000000  x0:0x00000000 x25=0x00000000
       49715000	      4970	800017b8	00921493	slli	x9,x4,0x9	  x4:0x00000001  x9=0x00000200
       49725000	      4971	800017bc	00285093	srli	x1,x16,0x2	 x16:0x393a4150  x1=0x0e4e9054
       49735000	      4972	800017c0	025aec63	bltu	x21,x5,800017f8	 x21:0x001fca4b  x5:0x80009f40
       49745000	      4973	00000000	00000013	addi	x0,x0,0	  x0:0x00000000
       49755000	      4974	800017f4	00000013	addi	x0,x0,0	  x0:0x00000000
       49765000	      4975	800017f8	00000013	addi	x0,x0,0	  x0:0x00000000
       49775000	      4976	800017fc	e1cb7193	andi	x3,x22,-484	 x22:0x00000000  x3=0x00000000
       49785000	      4977	80001800	00d4f4b3	and	x9,x9,x13	  x9:0x00000200 x13:0x80000001  x9=0x00000000
       49795000	      4978	80001804	0525c863	blt	x11,x18,80001854	 x11:0x00000001 x18:0x00000066
       49805000	      4979	00000000	00000013	addi	x0,x0,0	  x0:0x00000000
       49815000	      4980	80001850	00000013	addi	x0,x0,0	  x0:0x00000000
       49825000	      4981	80001854	dd2ba293	slti	x5,x23,-558	 x23:0x00000001  x5=0x00000000
       49835000	      4982	80001858	01869893	slli	x17,x13,0x18	 x13:0x80000001 x17=0x01000000
       49845000	      4983	8000185c	40d95433	sra	x8,x18,x13	 x18:0x00000066 x13:0x80000001  x8=0x00000033
       49855000	      4984	80001860	00000013	addi	x0,x0,0	  x0:0x00000000
       49865000	      4985	80001864	01802d33	slt	x26,x0,x24	  x0:0x00000000 x24:0x0000007f x26=0x00000001
       49875000	      4986	80001868	0fae8593	addi	x11,x29,250	 x29:0x07707000 x11=0x077070fa
       49885000	      4987	8000186c	48d47b13	andi	x22,x8,1165	  x8:0x00000033 x22=0x00000001
       49895000	      4988	80001870	02d7e263	bltu	x15,x13,80001894	 x15:0x00000000 x13:0x80000001
       49905000	      4989	00000000	00000013	addi	x0,x0,0	  x0:0x00000000
       49915000	      4990	80001890	00000013	addi	x0,x0,0	  x0:0x00000000
       49925000	      4991	80001894	fd4baf13	slti	x30,x23,-44	 x23:0x00000001 x30=0x00000000
       49935000	      4992	80001898	00509b33	sll	x22,x1,x5	  x1:0x0e4e9054  x5:0x00000000 x22=0x0e4e9054
       49945000	      4993	8000189c	41fd5b93	srai	x23,x26,0x1f	 x26:0x00000001 x23=0x00000000
       49955000	      4994	800018a0	004fa283	lw	x5,4(x31)	 x31:0x80009f40  x5=0x800005fc PA:0x80009f44
       49965000	      4995	800018a4	020f8f93	addi	x31,x31,32	 x31:0x80009f40 x31=0x80009f60
       49975000	      4996	800018a8	3e9e0313	addi	x6,x28,1001	 x28:0xffffffff  x6=0x000003e8
       49985000	      4997	800018ac	00dbd033	srl	x0,x23,x13	 x23:0x00000000 x13:0x80000001
       49995000	      4998	800018b0	409250b3	sra	x1,x4,x9	  x4:0x00000001  x9:0x00000000  x1=0x00000001
       50005000	      4999	800018b4	00028d13	addi	x26,x5,0	  x5:0x800005fc x26=0x800005fc
       50015000	      5000	800018b8	000d0d67	jalr	x26,x26,0	 x26:0x800005fc x26=0x800018b8
       50025000	      5001	00000000	00000013	addi	x0,x0,0	  x0:0x00000000
       50035000	      5002	800005fc	00000013	addi	x0,x0,0	  x0:0x00000000
       50045000	      5003	80000600	2f084793	xori	x15,x16,752	 x16:0x393a4150 x15=0x393a43a0
       50055000	      5004	80000604	f28c5017	auipc	x0,0xf28c5	
       50065000	      5005	80000608	00476133	or	x2,x14,x4	 x14:0x80009fc4  x4:0x00000001  x2=0x80009fc5
       50075000	      5006	8000060c	9862f793	andi	x15,x5,-1658	  x5:0x800005fc x15=0x80000184
       50085000	      5007	80000610	9c9f3393	sltiu	x7,x30,-1591	 x30:0x00000000  x7=0x00000001
       50095000	      5008	80000614	00000013	addi	x0,x0,0	  x0:0x00000000
       50105000	      5009	80000618	00000597	auipc	x11,0x0	 x11=0x80000614
       50115000	      5010	8000061c	e9058593	addi	x11,x11,-368	 x11:0x80000614 x11=0x800004a4
       50125000	      5011	80000620	00000013	addi	x0,x0,0	  x0:0x00000000
       50135000	      5012	80000624	016032b3	sltu	x5,x0,x22	  x0:0x00000000 x22:0x0e4e9054  x5=0x00000001
       50145000	      5013	80000628	00db10b3	sll	x1,x22,x13	 x22:0x0e4e9054 x13:0x80000001  x1=0x1c9d20a8
       50155000	      5014	8000062c	07b58593	addi	x11,x11,123	 x11:0x800004a4 x11=0x8000051f
       50165000	      5015	80000630	40e5d033	sra	x0,x11,x14	 x11:0x8000051f x14:0x80009fc4
       50175000	      5016	80000634	f85582e7	jalr	x5,x11,-123	 x11:0x8000051f  x5=0x80000634
       50185000	      5017	00000000	00000013	addi	x0,x0,0	  x0:0x00000000
       50195000	      5018	800004a4	00000013	addi	x0,x0,0	  x0:0x00000000
       50205000	      5019	800004a8	22afcd17	auipc	x26,0x22afc	 x26=0xa2afc4a4
       50215000	      5020	800004ac	01f6d663	bge	x13,x31,800004b8	 x13:0x80000001 x31:0x80009f60
       50225000	      5021	800004b0	00205233	srl	x4,x0,x2	  x0:0x00000000  x2:0x80009fc5  x4=0x00000000
       50235000	      5022	800004b4	d4907e93	andi	x29,x0,-695	  x0:0x00000000 x29=0x00000000
       50245000	      5023	800004b8	fc8f8f93	addi	x31,x31,-56	 x31:0x80009f60 x31=0x80009f28
       50255000	      5024	800004bc	01981233	sll	x4,x16,x25	 x16:0x393a4150 x25:0x00000000  x4=0x393a4150
       50265000	      5025	800004c0	56297813	andi	x16,x18,1378	 x18:0x00000066 x16=0x00000062
       50275000	      5026	800004c4	4106d6b3	sra	x13,x13,x16	 x13:0x80000001 x16:0x00000062 x13=0xe0000000
       50285000	      5027	800004c8	005fa223	sw	x5,4(x31)	 x31:0x80009f28  x5:0x80000634 PA:0x80009f2c
       50295000	      5028	800004cc	013b5db3	srl	x27,x22,x19	 x22:0x0e4e9054 x19:0x00000200 x27=0x0e4e9054
       50305000	      5029	800004d0	be0f8e93	addi	x29,x31,-1056	 x31:0x80009f28 x29=0x80009b08
       50315000	      5030	800004d4	00001997	auipc	x19,0x1	 x19=0x800014d0
       50325000	      5031	800004d8	3e898993	addi	x19,x19,1000	 x19:0x800014d0 x19=0x800018b8
       50335000	      5032	800004dc	00000013	addi	x0,x0,0	  x0:0x00000000
       50345000	      5033	800004e0	0072b6b3	sltu	x13,x5,x7	  x5:0x80000634  x7:0x00000001 x13=0x00000000
       50355000	      5034	800004e4	c6198993	addi	x19,x19,-927	 x19:0x800018b8 x19=0x80001519
       50365000	      5035	800004e8	40b35533	sra	x10,x6,x11	  x6:0x000003e8 x11:0x8000051f x10=0x00000000
       50375000	      5036	800004ec	405b5cb3	sra	x25,x22,x5	 x22:0x0e4e9054  x5:0x80000634 x25=0x000000e4
       50385000	      5037	800004f0	013d5033	srl	x0,x26,x19	 x26:0xa2afc4a4 x19:0x80001519
       50395000	      5038	800004f4	43f5f2b7	lui	x5,0x43f5f	  x5=0x43f5f000
       50405000	      5039	800004f8	00000013	addi	x0,x0,0	  x0:0x00000000
       50415000	      5040	800004fc	3a0982e7	jalr	x5,x19,928	 x19:0x80001519  x5=0x800004fc
       50425000	      5041	00000000	00000013	addi	x0,x0,0	  x0:0x00000000
       50435000	      5042	800018b8	00000013	addi	x0,x0,0	  x0:0x00000000
       50445000	      5043	800018bc	40ee5d33	sra	x26,x28,x14	 x28:0xffffffff x14:0x80009fc4 x26=0xffffffff
       50455000	      5044	800018c0	008c9463	bne	x25,x8,800018c8	 x25:0x000000e4  x8:0x00000033
       50465000	      5045	00000000	00000013	addi	x0,x0,0	  x0:0x00000000
       50475000	      5046	800018c4	00000013	addi	x0,x0,0	  x0:0x00000000
       50485000	      5047	800018c8	fd4f8f93	addi	x31,x31,-44	 x31:0x80009f28 x31=0x80009efc
       50495000	      5048	800018cc	28ebcd93	xori	x27,x23,654	 x23:0x00000000 x27=0x0000028e
       50505000	      5049	800018d0	895ad9b7	lui	x19,0x895ad	 x19=0x895ad000
       50515000	      5050	800018d4	00cb7cb3	and	x25,x22,x12	 x22:0x0e4e9054 x12:0x00001000 x25=0x00001000
       50525000	      5051	800018d8	005fa223	sw	x5,4(x31)	 x31:0x80009efc  x5:0x800004fc PA:0x80009f00
       50535000	      5052	800018dc	01e75693	srli	x13,x14,0x1e	 x14:0x80009fc4 x13=0x00000002
       50545000	      5053	800018e0	01eb71b3	and	x3,x22,x30	 x22:0x0e4e9054 x30:0x00000000  x3=0x00000000
       50555000	      5054	800018e4	54f0ca93	xori	x21,x1,1359	  x1:0x1c9d20a8 x21=0x1c9d25e7
       50565000	      5055	800018e8	00e394b3	sll	x9,x7,x14	  x7:0x00000001 x14:0x80009fc4  x9=0x00000010
       50575000	      5056	800018ec	41045493	srai	x9,x8,0x10	  x8:0x00000033  x9=0x00000000
       50585000	      5057	800018f0	0156dc13	srli	x24,x13,0x15	 x13:0x00000002 x24=0x00000000
       50595000	      5058	800018f4	00000013	addi	x0,x0,0	  x0:0x00000000
       50605000	      5059	800018f8	00aedb33	srl	x22,x29,x10	 x29:0x80009b08 x10:0x00000000 x22=0x80009b08
       50615000	      5060	800018fc	007105b3	add	x11,x2,x7	  x2:0x80009fc5  x7:0x00000001 x11=0x80009fc6
       50625000	      5061	80001900	005a4e33	xor	x28,x20,x5	 x20:0xe4e90541  x5:0x800004fc x28=0x64e901bd
       50635000	      5062	80001904	00000013	addi	x0,x0,0	  x0:0x00000000
       50645000	      5063	80001908	52564793	xori	x15,x12,1317	 x12:0x00001000 x15=0x00001525
       50655000	      5064	8000190c	2a4002ef	jal	x5,8000190c	  x5=0x8000190c
       50665000	      5065	00000000	00000013	addi	x0,x0,0	  x0:0x00000000
       50675000	      5066	80001bac	00000013	addi	x0,x0,0	  x0:0x00000000
       50685000	      5067	80001bb0	00012133	slt	x2,x2,x0	  x2:0x80009fc5  x0:0x00000000  x2=0x00000001
       50695000	      5068	80001bb4	00f6d463	bge	x13,x15,80001bbc	 x13:0x00000002 x15:0x00001525
       50705000	      5069	80001bb8	0182c7b3	xor	x15,x5,x24	  x5:0x8000190c x24:0x00000000 x15=0x8000190c
       50715000	      5070	80001bbc	fe4f8f93	addi	x31,x31,-28	 x31:0x80009efc x31=0x80009ee0
       50725000	      5071	80001bc0	78c46113	ori	x2,x8,1932	  x8:0x00000033  x2=0x000007bf
       50735000	      5072	80001bc4	01a49613	slli	x12,x9,0x1a	  x9:0x00000000 x12=0x00000000
       50745000	      5073	80001bc8	00d6dd33	srl	x26,x13,x13	 x13:0x00000002 x13:0x00000002 x26=0x00000000
       50755000	      5074	80001bcc	003ebdb3	sltu	x27,x29,x3	 x29:0x80009b08  x3:0x00000000 x27=0x00000000
       50765000	      5075	80001bd0	005fa223	sw	x5,4(x31)	 x31:0x80009ee0  x5:0x8000190c PA:0x80009ee4
       50775000	      5076	80001bd4	925ace93	xori	x29,x21,-1755	 x21:0x1c9d25e7 x29=0xe362dcc2
       50785000	      5077	80001bd8	7041b813	sltiu	x16,x3,1796	  x3:0x00000000 x16=0x00000001
       50795000	      5078	80001bdc	008b44b3	xor	x9,x22,x8	 x22:0x80009b08  x8:0x00000033  x9=0x80009b3b
       50805000	      5079	80001be0	00007b97	auipc	x23,0x7	 x23=0x80008bdc
       50815000	      5080	80001be4	406b8b93	addi	x23,x23,1030	 x23:0x80008bdc x23=0x80008fe2
       50825000	      5081	80001be8	01dfb433	sltu	x8,x31,x29	 x31:0x80009ee0 x29:0xe362dcc2  x8=0x00000001
       50835000	      5082	80001bec	00a718b3	sll	x17,x14,x10	 x14:0x80009fc4 x10:0x00000000 x17=0x80009fc4
       50845000	      5083	80001bf0	fcdb8783	lb	x15,-51(x23)	 x23:0x80008fe2 x15=0x00000062 PA:0x80008faf
       50855000	      5084	80001bf4	21f2a893	slti	x17,x5,543	  x5:0x8000190c x17=0x00000001
       50865000	      5085	80001bf8	01cf8133	add	x2,x31,x28	 x31:0x80009ee0 x28:0x64e901bd  x2=0xe4e9a09d
       50875000	      5086	80001bfc	500ff693	andi	x13,x31,1280	 x31:0x80009ee0 x13=0x00000400
       50885000	      5087	80001c00	006a1913	slli	x18,x20,0x6	 x20:0xe4e90541 x18=0x3a415040
       50895000	      5088	80001c04	00c7ccb3	xor	x25,x15,x12	 x15:0x00000062 x12:0x00000000 x25=0x00000062
       50905000	      5089	80001c08	f3cb8f03	lb	x30,-196(x23)	 x23:0x80008fe2 x30=0x0000002f PA:0x80008f1e
       50915000	      5090	80001c0c	f2abad83	lw	x27,-214(x23)	 x23:0x80008fe2 x27=0x0001f476 PA:0x80008f0c
       50925000	      5091	80001c10	fd0ba123	sw	x16,-62(x23)	 x23:0x80008fe2 x16:0x00000001 PA:0x80008fa4
       50935000	      5092	80001c14	0164eab3	or	x21,x9,x22	  x9:0x80009b3b x22:0x80009b08 x21=0x80009b3b
       50945000	      5093	80001c18	40168833	sub	x16,x13,x1	 x13:0x00000400  x1:0x1c9d20a8 x16=0xe362e358
       50955000	      5094	80001c1c	005099b3	sll	x19,x1,x5	  x1:0x1c9d20a8  x5:0x8000190c x19=0xd20a8000
       50965000	      5095	80001c20	f91b8a23	sb	x17,-108(x23)	 x23:0x80008fe2 x17:0x00000001 PA:0x80008f76
       50975000	      5096	80001c24	402cd033	sra	x0,x25,x2	 x25:0x00000062  x2:0xe4e9a09d
       50985000	      5097	80001c28	01f2e633	or	x12,x5,x31	  x5:0x8000190c x31:0x80009ee0 x12=0x80009fec
       50995000	      5098	80001c2c	bf7e3913	sltiu	x18,x28,-1033	 x28:0x64e901bd x18=0x00000001
       51005000	      5099	80001c30	de03e613	ori	x12,x7,-544	  x7:0x00000001 x12=0xfffffde1
       51015000	      5100	80001c34	0006ceb3	xor	x29,x13,x0	 x13:0x00000400  x0:0x00000000 x29=0x00000400
       51025000	      5101	80001c38	f4cbc903	lbu	x18,-180(x23)	 x23:0x80008fe2 x18=0x0000009c PA:0x80008f2e
       51035000	      5102	80001c3c	40e7d333	sra	x6,x15,x14	 x15:0x00000062 x14:0x80009fc4  x6=0x00000006
       51045000	      5103	80001c40	41385eb3	sra	x29,x16,x19	 x16:0xe362e358 x19:0xd20a8000 x29=0xe362e358
       51055000	      5104	80001c44	f40b9523	sh	x0,-182(x23)	 x23:0x80008fe2  x0:0x00000000 PA:0x80008f2c
       51065000	      5105	80001c48	fd9b83a3	sb	x25,-57(x23)	 x23:0x80008fe2 x25:0x00000062 PA:0x80008fa9
       51075000	      5106	80001c4c	f80ba323	sw	x0,-122(x23)	 x23:0x80008fe2  x0:0x00000000 PA:0x80008f68
       51085000	      5107	80001c50	e098f797	auipc	x15,0xe098f	 x15=0x60990c4c
       51095000	      5108	80001c54	f22b8b03	lb	x22,-222(x23)	 x23:0x80008fe2 x22=0x0000000c PA:0x80008f04
       51105000	      5109	80001c58	f15bc683	lbu	x13,-235(x23)	 x23:0x80008fe2 x13=0x000000de PA:0x80008ef7
       51115000	      5110	80001c5c	fdab81a3	sb	x26,-61(x23)	 x23:0x80008fe2 x26:0x00000000 PA:0x80008fa5
       51125000	      5111	80001c60	e099bc93	sltiu	x25,x19,-503	 x19:0xd20a8000 x25=0x00000001
       51135000	      5112	80001c64	fcdb8c03	lb	x24,-51(x23)	 x23:0x80008fe2 x24=0x00000062 PA:0x80008faf
       51145000	      5113	80001c68	03452513	slti	x10,x10,52	 x10:0x00000000 x10=0x00000001
       51155000	      5114	80001c6c	fa1b82a3	sb	x1,-91(x23)	 x23:0x80008fe2  x1:0x1c9d20a8 PA:0x80008f87
       51165000	      5115	80001c70	f31b8203	lb	x4,-207(x23)	 x23:0x80008fe2  x4=0x00000031 PA:0x80008f13
       51175000	      5116	80001c74	018a96b3	sll	x13,x21,x24	 x21:0x80009b3b x24:0x00000062 x13=0x00026cec
       51185000	      5117	80001c78	f68b8923	sb	x8,-142(x23)	 x23:0x80008fe2  x8:0x00000001 PA:0x80008f54
       51195000	      5118	80001c7c	41825f13	srai	x30,x4,0x18	  x4:0x00000031 x30=0x00000000
       51205000	      5119	80001c80	000d1f13	slli	x30,x26,0x0	 x26:0x00000000 x30=0x00000000
       51215000	      5120	80001c84	40cfc213	xori	x4,x31,1036	 x31:0x80009ee0  x4=0x80009aec
       51225000	      5121	80001c88	40065d93	srai	x27,x12,0x0	 x12:0xfffffde1 x27=0xfffffde1
       51235000	      5122	80001c8c	41635333	sra	x6,x6,x22	  x6:0x00000006 x22:0x0000000c  x6=0x00000000
       51245000	      5123	80001c90	f84bd803	lhu	x16,-124(x23)	 x23:0x80008fe2 x16=0x00006e24 PA:0x80008f66
       51255000	      5124	80001c94	00006117	auipc	x2,0x6	  x2=0x80007c90
       51265000	      5125	80001c98	58810113	addi	x2,x2,1416	  x2:0x80007c90  x2=0x80008218
       51275000	      5126	80001c9c	fd110aa3	sb	x17,-43(x2)	  x2:0x80008218 x17:0x00000001 PA:0x800081ed
       51285000	      5127	80001ca0	037108a3	sb	x23,49(x2)	  x2:0x80008218 x23:0x80008fe2 PA:0x80008249
       51295000	      5128	80001ca4	fd310903	lb	x18,-45(x2)	  x2:0x80008218 x18=0x0000003f PA:0x800081eb
       51305000	      5129	80001ca8	9b99ac13	slti	x24,x19,-1607	 x19:0xd20a8000 x24=0x00000001
       51315000	      5130	80001cac	fd714a83	lbu	x21,-41(x2)	  x2:0x80008218 x21=0x000000f4 PA:0x800081ef
       51325000	      5131	80001cb0	03b10523	sb	x27,42(x2)	  x2:0x80008218 x27:0xfffffde1 PA:0x80008242
       51335000	      5132	80001cb4	02012483	lw	x9,32(x2)	  x2:0x80008218  x9=0x89d6fe60 PA:0x80008238
       51345000	      5133	80001cb8	41e059b3	sra	x19,x0,x30	  x0:0x00000000 x30:0x00000000 x19=0x00000000
       51355000	      5134	80001cbc	4062d993	srai	x19,x5,0x6	  x5:0x8000190c x19=0xfe000064
       51365000	      5135	80001cc0	fda10723	sb	x26,-50(x2)	  x2:0x80008218 x26:0x00000000 PA:0x800081e6
       51375000	      5136	80001cc4	94d62497	auipc	x9,0x94d62	  x9=0x14d63cc0
       51385000	      5137	80001cc8	a0298db7	lui	x27,0xa0298	 x27=0xa0298000
       51395000	      5138	80001ccc	40060933	sub	x18,x12,x0	 x12:0xfffffde1  x0:0x00000000 x18=0xfffffde1
       51405000	      5139	80001cd0	40be50b3	sra	x1,x28,x11	 x28:0x64e901bd x11:0x80009fc6  x1=0x0193a406
       51415000	      5140	80001cd4	a4027c93	andi	x25,x4,-1472	  x4:0x80009aec x25=0x80009a40
       51425000	      5141	80001cd8	03e15e03	lhu	x28,62(x2)	  x2:0x80008218 x28=0x0000000c PA:0x80008256
       51435000	      5142	80001cdc	fe0102a3	sb	x0,-27(x2)	  x2:0x80008218  x0:0x00000000 PA:0x800081fd
       51445000	      5143	80001ce0	41e45793	srai	x15,x8,0x1e	  x8:0x00000001 x15=0x00000000
       51455000	      5144	80001ce4	ff812203	lw	x4,-8(x2)	  x2:0x80008218  x4=0xc2701a21 PA:0x80008210
       51465000	      5145	80001ce8	3f5c4813	xori	x16,x24,1013	 x24:0x00000001 x16=0x000003f4
       51475000	      5146	80001cec	00000013	addi	x0,x0,0	  x0:0x00000000
       51485000	      5147	80001cf0	9223e7b7	lui	x15,0x9223e	 x15=0x9223e000
       51495000	      5148	80001cf4	ff2108a3	sb	x18,-15(x2)	  x2:0x80008218 x18:0xfffffde1 PA:0x80008209
       51505000	      5149	80001cf8	2b8b5c37	lui	x24,0x2b8b5	 x24=0x2b8b5000
       51515000	      5150	80001cfc	957fbe13	sltiu	x28,x31,-1705	 x31:0x80009ee0 x28=0x00000001
       51525000	      5151	80001d00	415b56b3	sra	x13,x22,x21	 x22:0x0000000c x21:0x000000f4 x13=0x00000000
       51535000	      5152	80001d04	fff10d83	lb	x27,-1(x2)	  x2:0x80008218 x27=0x00000060 PA:0x80008217
       51545000	      5153	80001d08	feb106a3	sb	x11,-19(x2)	  x2:0x80008218 x11:0x80009fc6 PA:0x80008205
       51555000	      5154	80001d0c	00000013	addi	x0,x0,0	  x0:0x00000000
       51565000	      5155	80001d10	ffc14583	lbu	x11,-4(x2)	  x2:0x80008218 x11=0x000000c6 PA:0x80008214
       51575000	      5156	80001d14	fc310183	lb	x3,-61(x2)	  x2:0x80008218  x3=0xffffffff PA:0x800081db
       51585000	      5157	80001d18	ff214783	lbu	x15,-14(x2)	  x2:0x80008218 x15=0x00000047 PA:0x8000820a
       51595000	      5158	80001d1c	00b2edb3	or	x27,x5,x11	  x5:0x8000190c x11:0x000000c6 x27=0x800019ce
       51605000	      5159	80001d20	01b10b83	lb	x23,27(x2)	  x2:0x80008218 x23=0xffffff99 PA:0x80008233
       51615000	      5160	80001d24	fe415a83	lhu	x21,-28(x2)	  x2:0x80008218 x21=0x000000de PA:0x800081fc
       51625000	      5161	80001d28	02910883	lb	x17,41(x2)	  x2:0x80008218 x17=0x00000051 PA:0x80008241
       51635000	      5162	80001d2c	0139bd33	sltu	x26,x19,x19	 x19:0xfe000064 x19:0xfe000064 x26=0x00000000
       51645000	      5163	80001d30	005971b3	and	x3,x18,x5	 x18:0xfffffde1  x5:0x8000190c  x3=0x80001900
       51655000	      5164	80001d34	01814483	lbu	x9,24(x2)	  x2:0x80008218  x9=0x000000d5 PA:0x80008230
       51665000	      5165	80001d38	03811183	lh	x3,56(x2)	  x2:0x80008218  x3=0xffffedfb PA:0x80008250
       51675000	      5166	80001d3c	fe610e03	lb	x28,-26(x2)	  x2:0x80008218 x28=0x0000002d PA:0x800081fe
       51685000	      5167	80001d40	00006197	auipc	x3,0x6	  x3=0x80007d3c
       51695000	      5168	80001d44	36618193	addi	x3,x3,870	  x3:0x80007d3c  x3=0x800080a2
       51705000	      5169	80001d48	01697933	and	x18,x18,x22	 x18:0xfffffde1 x22:0x0000000c x18=0x00000000
       51715000	      5170	80001d4c	0ddae093	ori	x1,x21,221	 x21:0x000000de  x1=0x000000df
       51725000	      5171	80001d50	21018b23	sb	x16,534(x3)	  x3:0x800080a2 x16:0x000003f4 PA:0x800082b8
       51735000	      5172	80001d54	02e44097	auipc	x1,0x2e44	  x1=0x82e45d50
       51745000	      5173	80001d58	40770b33	sub	x22,x14,x7	 x14:0x80009fc4  x7:0x00000001 x22=0x80009fc3
       51755000	      5174	80001d5c	00b4e0b3	or	x1,x9,x11	  x9:0x000000d5 x11:0x000000c6  x1=0x000000d7
       51765000	      5175	80001d60	0132d313	srli	x6,x5,0x13	  x5:0x8000190c  x6=0x00001000
       51775000	      5176	80001d64	00000013	addi	x0,x0,0	  x0:0x00000000
       51785000	      5177	80001d68	0114d213	srli	x4,x9,0x11	  x9:0x000000d5  x4=0x00000000
       51795000	      5178	80001d6c	9c1cab13	slti	x22,x25,-1599	 x25:0x80009a40 x22=0x00000001
       51805000	      5179	80001d70	17b20813	addi	x16,x4,379	  x4:0x00000000 x16=0x0000017b
       51815000	      5180	80001d74	12618aa3	sb	x6,309(x3)	  x3:0x800080a2  x6:0x00001000 PA:0x800081d7
       51825000	      5181	80001d78	5d019283	lh	x5,1488(x3)	  x3:0x800080a2  x5=0x0000523d PA:0x80008672
       51835000	      5182	80001d7c	01ae84b3	add	x9,x29,x26	 x29:0xe362e358 x26:0x00000000  x9=0xe362e358
       51845000	      5183	80001d80	f8a83413	sltiu	x8,x16,-118	 x16:0x0000017b  x8=0x00000001
       51855000	      5184	80001d84	e6d38d93	addi	x27,x7,-403	  x7:0x00000001 x27=0xfffffe6e
       51865000	      5185	80001d88	10e1d803	lhu	x16,270(x3)	  x3:0x800080a2 x16=0x00004138 PA:0x800081b0
       51875000	      5186	80001d8c	fda182a3	sb	x26,-59(x3)	  x3:0x800080a2 x26:0x00000000 PA:0x80008067
       51885000	      5187	80001d90	015d0933	add	x18,x26,x21	 x26:0x00000000 x21:0x000000de x18=0x000000de
       51895000	      5188	80001d94	5071c683	lbu	x13,1287(x3)	  x3:0x800080a2 x13=0x000000ff PA:0x800085a9
       51905000	      5189	80001d98	0159f233	and	x4,x19,x21	 x19:0xfe000064 x21:0x000000de  x4=0x00000044
       51915000	      5190	80001d9c	83a65337	lui	x6,0x83a65	  x6=0x83a65000
       51925000	      5191	80001da0	05318783	lb	x15,83(x3)	  x3:0x800080a2 x15=0x0000004f PA:0x800080f5
       51935000	      5192	80001da4	9d52f513	andi	x10,x5,-1579	  x5:0x0000523d x10=0x00005015
       51945000	      5193	80001da8	4c386493	ori	x9,x16,1219	 x16:0x00004138  x9=0x000045fb
       51955000	      5194	80001dac	4bf1cd83	lbu	x27,1215(x3)	  x3:0x800080a2 x27=0x00000052 PA:0x80008561
       51965000	      5195	80001db0	40d187a3	sb	x13,1039(x3)	  x3:0x800080a2 x13:0x000000ff PA:0x800084b1
       51975000	      5196	80001db4	6760a693	slti	x13,x1,1654	  x1:0x000000d7 x13=0x00000001
       51985000	      5197	80001db8	00000013	addi	x0,x0,0	  x0:0x00000000
       51995000	      5198	80001dbc	34a18203	lb	x4,842(x3)	  x3:0x800080a2  x4=0x00000022 PA:0x800083ec
       52005000	      5199	80001dc0	00706833	or	x16,x0,x7	  x0:0x00000000  x7:0x00000001 x16=0x00000001
       52015000	      5200	80001dc4	0026c0b3	xor	x1,x13,x2	 x13:0x00000001  x2:0x80008218  x1=0x80008219
       52025000	      5201	80001dc8	01eb1333	sll	x6,x22,x30	 x22:0x00000001 x30:0x00000000  x6=0x00000001
       52035000	      5202	80001dcc	46018ba3	sb	x0,1143(x3)	  x3:0x800080a2  x0:0x00000000 PA:0x80008519
       52045000	      5203	80001dd0	509d8313	addi	x6,x27,1289	 x27:0x00000052  x6=0x0000055b
       52055000	      5204	80001dd4	30a1ac03	lw	x24,778(x3)	  x3:0x800080a2 x24=0x321d4c87 PA:0x800083ac
       52065000	      5205	80001dd8	00007117	auipc	x2,0x7	  x2=0x80008dd4
       52075000	      5206	80001ddc	d3e10113	addi	x2,x2,-706	  x2:0x80008dd4  x2=0x80008b12
       52085000	      5207	80001de0	f5c10823	sb	x28,-176(x2)	  x2:0x80008b12 x28:0x0000002d PA:0x80008a62
       52095000	      5208	80001de4	713ce793	ori	x15,x25,1811	 x25:0x80009a40 x15=0x80009f53
       52105000	      5209	80001de8	0fe15f03	lhu	x30,254(x2)	  x2:0x80008b12 x30=0x000086c4 PA:0x80008c10
       52115000	      5210	80001dec	4124d333	sra	x6,x9,x18	  x9:0x000045fb x18:0x000000de  x6=0x00000000
       52125000	      5211	80001df0	0d27e793	ori	x15,x15,210	 x15:0x80009f53 x15=0x80009fd3
       52135000	      5212	80001df4	d70d8013	addi	x0,x27,-656	 x27:0x00000052
       52145000	      5213	80001df8	fae15e83	lhu	x29,-82(x2)	  x2:0x80008b12 x29=0x0000ab6f PA:0x80008ac0
       52155000	      5214	80001dfc	02215083	lhu	x1,34(x2)	  x2:0x80008b12  x1=0x00006ea1 PA:0x80008b34
       52165000	      5215	80001e00	f5a11983	lh	x19,-166(x2)	  x2:0x80008b12 x19=0x00003497 PA:0x80008a6c
       52175000	      5216	80001e04	73f64e93	xori	x29,x12,1855	 x12:0xfffffde1 x29=0xfffffade
       52185000	      5217	80001e08	01ecd933	srl	x18,x25,x30	 x25:0x80009a40 x30:0x000086c4 x18=0x080009a4
       52195000	      5218	80001e0c	010fc333	xor	x6,x31,x16	 x31:0x80009ee0 x16:0x00000001  x6=0x80009ee1
       52205000	      5219	80001e10	0022a633	slt	x12,x5,x2	  x5:0x0000523d  x2:0x80008b12 x12=0x00000000
       52215000	      5220	80001e14	f4c10223	sb	x12,-188(x2)	  x2:0x80008b12 x12:0x00000000 PA:0x80008a56
       52225000	      5221	80001e18	f1b10403	lb	x8,-229(x2)	  x2:0x80008b12  x8=0x0000001d PA:0x80008a2d
       52235000	      5222	80001e1c	01c84833	xor	x16,x16,x28	 x16:0x00000001 x28:0x0000002d x16=0x0000002c
       52245000	      5223	80001e20	41195ab3	sra	x21,x18,x17	 x18:0x080009a4 x17:0x00000051 x21=0x00000400
       52255000	      5224	80001e24	d7688097	auipc	x1,0xd7688	  x1=0x57689e20
       52265000	      5225	80001e28	dab72893	slti	x17,x14,-597	 x14:0x80009fc4 x17=0x00000001
       52275000	      5226	80001e2c	fec11203	lh	x4,-20(x2)	  x2:0x80008b12  x4=0xffff815e PA:0x80008afe
       52285000	      5227	80001e30	00a50333	add	x6,x10,x10	 x10:0x00005015 x10:0x00005015  x6=0x0000a02a
       52295000	      5228	80001e34	f1110c83	lb	x25,-239(x2)	  x2:0x80008b12 x25=0xffffff85 PA:0x80008a23
       52305000	      5229	80001e38	00c08b33	add	x22,x1,x12	  x1:0x57689e20 x12:0x00000000 x22=0x57689e20
       52315000	      5230	80001e3c	00000013	addi	x0,x0,0	  x0:0x00000000
       52325000	      5231	80001e40	0b910fa3	sb	x25,191(x2)	  x2:0x80008b12 x25:0xffffff85 PA:0x80008bd1
       52335000	      5232	80001e44	f4f10203	lb	x4,-177(x2)	  x2:0x80008b12  x4=0xffffffc3 PA:0x80008a61
       52345000	      5233	80001e48	05b14503	lbu	x10,91(x2)	  x2:0x80008b12 x10=0x0000000c PA:0x80008b6d
       52355000	      5234	80001e4c	01a73d33	sltu	x26,x14,x26	 x14:0x80009fc4 x26:0x00000000 x26=0x00000000
       52365000	      5235	80001e50	fa011e03	lh	x28,-96(x2)	  x2:0x80008b12 x28=0xffff9175 PA:0x80008ab2
       52375000	      5236	80001e54	0f7108a3	sb	x23,241(x2)	  x2:0x80008b12 x23:0xffffff99 PA:0x80008c03
       52385000	      5237	80001e58	0087c2b3	xor	x5,x15,x8	 x15:0x80009fd3  x8:0x0000001d  x5=0x80009fce
       52395000	      5238	80001e5c	0174c3b3	xor	x7,x9,x23	  x9:0x000045fb x23:0xffffff99  x7=0xffffba62
       52405000	      5239	80001e60	b2e82413	slti	x8,x16,-1234	 x16:0x0000002c  x8=0x00000000
       52415000	      5240	80001e64	10510023	sb	x5,256(x2)	  x2:0x80008b12  x5:0x80009fce PA:0x80008c12
       52425000	      5241	80001e68	41c38eb3	sub	x29,x7,x28	  x7:0xffffba62 x28:0xffff9175 x29=0x000028ed
       52435000	      5242	80001e6c	002bdb93	srli	x23,x23,0x2	 x23:0xffffff99 x23=0x3fffffe6
       52445000	      5243	80001e70	01af39b3	sltu	x19,x30,x26	 x30:0x000086c4 x26:0x00000000 x19=0x00000000
       52455000	      5244	80001e74	f3c108a3	sb	x28,-207(x2)	  x2:0x80008b12 x28:0xffff9175 PA:0x80008a43
       52465000	      5245	80001e78	00007a97	auipc	x21,0x7	 x21=0x80008e74
       52475000	      5246	80001e7c	e80a8a93	addi	x21,x21,-384	 x21:0x80008e74 x21=0x80008cf4
       52485000	      5247	80001e80	03fac003	lbu	x0,63(x21)	 x21:0x80008cf4 PA:0x80008d33
       52495000	      5248	80001e84	22fdb593	sltiu	x11,x27,559	 x27:0x00000052 x11=0x00000001
       52505000	      5249	80001e88	fe1a8aa3	sb	x1,-11(x21)	 x21:0x80008cf4  x1:0x57689e20 PA:0x80008ce9
       52515000	      5250	80001e8c	409451b3	sra	x3,x8,x9	  x8:0x00000000  x9:0x000045fb  x3=0x00000000
       52525000	      5251	80001e90	fc1ace03	lbu	x28,-63(x21)	 x21:0x80008cf4 x28=0x000000a3 PA:0x80008cb5
       52535000	      5252	80001e94	00da8883	lb	x17,13(x21)	 x21:0x80008cf4 x17=0x00000038 PA:0x80008d01
       52545000	      5253	80001e98	00bc1593	slli	x11,x24,0xb	 x24:0x321d4c87 x11=0xea643800
       52555000	      5254	80001e9c	fcca8103	lb	x2,-52(x21)	 x21:0x80008cf4  x2=0x0000007a PA:0x80008cc0
       52565000	      5255	80001ea0	01560933	add	x18,x12,x21	 x12:0x00000000 x21:0x80008cf4 x18=0x80008cf4
       52575000	      5256	80001ea4	426d6113	ori	x2,x26,1062	 x26:0x00000000  x2=0x00000426
       52585000	      5257	80001ea8	0040b5b3	sltu	x11,x1,x4	  x1:0x57689e20  x4:0xffffffc3 x11=0x00000001
       52595000	      5258	80001eac	4187dd33	sra	x26,x15,x24	 x15:0x80009fd3 x24:0x321d4c87 x26=0xff00013f
       52605000	      5259	80001eb0	fefacb03	lbu	x22,-17(x21)	 x21:0x80008cf4 x22=0x0000005a PA:0x80008ce3
       52615000	      5260	80001eb4	01affc33	and	x24,x31,x26	 x31:0x80009ee0 x26:0xff00013f x24=0x80000020
       52625000	      5261	80001eb8	fc6a85a3	sb	x6,-53(x21)	 x21:0x80008cf4  x6:0x0000a02a PA:0x80008cbf
       52635000	      5262	80001ebc	fcca8503	lb	x10,-52(x21)	 x21:0x80008cf4 x10=0x0000007a PA:0x80008cc0
       52645000	      5263	80001ec0	01dacb83	lbu	x23,29(x21)	 x21:0x80008cf4 x23=0x000000be PA:0x80008d11
       52655000	      5264	80001ec4	fd3a88a3	sb	x19,-47(x21)	 x21:0x80008cf4 x19:0x00000000 PA:0x80008cc5
       52665000	      5265	80001ec8	026a88a3	sb	x6,49(x21)	 x21:0x80008cf4  x6:0x0000a02a PA:0x80008d25
       52675000	      5266	80001ecc	00dacd83	lbu	x27,13(x21)	 x21:0x80008cf4 x27=0x00000038 PA:0x80008d01
       52685000	      5267	80001ed0	002801b3	add	x3,x16,x2	 x16:0x0000002c  x2:0x00000426  x3=0x00000452
       52695000	      5268	80001ed4	01d64f33	xor	x30,x12,x29	 x12:0x00000000 x29:0x000028ed x30=0x000028ed
       52705000	      5269	80001ed8	018a86a3	sb	x24,13(x21)	 x21:0x80008cf4 x24:0x80000020 PA:0x80008d01
       52715000	      5270	80001edc	000aa083	lw	x1,0(x21)	 x21:0x80008cf4  x1=0x4db73d7a PA:0x80008cf4
       52725000	      5271	80001ee0	fc5a8b03	lb	x22,-59(x21)	 x21:0x80008cf4 x22=0xffffffb4 PA:0x80008cb9
       52735000	      5272	80001ee4	038a87a3	sb	x24,47(x21)	 x21:0x80008cf4 x24:0x80000020 PA:0x80008d23
       52745000	      5273	80001ee8	01eac483	lbu	x9,30(x21)	 x21:0x80008cf4  x9=0x000000d2 PA:0x80008d12
       52755000	      5274	80001eec	00007117	auipc	x2,0x7	  x2=0x80008ee8
       52765000	      5275	80001ef0	eff10113	addi	x2,x2,-257	  x2:0x80008ee8  x2=0x80008de7
       52775000	      5276	80001ef4	41035793	srai	x15,x6,0x10	  x6:0x0000a02a x15=0x00000000
       52785000	      5277	80001ef8	15e14383	lbu	x7,350(x2)	  x2:0x80008de7  x7=0x000000cc PA:0x80008f45
       52795000	      5278	80001efc	eb010623	sb	x16,-340(x2)	  x2:0x80008de7 x16:0x0000002c PA:0x80008c93
       52805000	      5279	80001f00	410e5b13	srai	x22,x28,0x10	 x28:0x000000a3 x22=0x00000000
       52815000	      5280	80001f04	ac810f23	sb	x8,-1314(x2)	  x2:0x80008de7  x8:0x00000000 PA:0x800088c5
       52825000	      5281	80001f08	005748b3	xor	x17,x14,x5	 x14:0x80009fc4  x5:0x80009fce x17=0x0000000a
       52835000	      5282	80001f0c	e5915983	lhu	x19,-423(x2)	  x2:0x80008de7 x19=0x0000c984 PA:0x80008c40
       52845000	      5283	80001f10	ddb10883	lb	x17,-549(x2)	  x2:0x80008de7 x17=0x00000031 PA:0x80008bc2
       52855000	      5284	80001f14	00d2f333	and	x6,x5,x13	  x5:0x80009fce x13:0x00000001  x6=0x00000000
       52865000	      5285	80001f18	78db30b7	lui	x1,0x78db3	  x1=0x78db3000
       52875000	      5286	80001f1c	402dd9b3	sra	x19,x27,x2	 x27:0x00000038  x2:0x80008de7 x19=0x00000000
       52885000	      5287	80001f20	dea10083	lb	x1,-534(x2)	  x2:0x80008de7  x1=0xffffff85 PA:0x80008bd1
       52895000	      5288	80001f24	d5910da3	sb	x25,-677(x2)	  x2:0x80008de7 x25:0xffffff85 PA:0x80008b42
       52905000	      5289	80001f28	015e23b3	slt	x7,x28,x21	 x28:0x000000a3 x21:0x80008cf4  x7=0x00000000
       52915000	      5290	80001f2c	d8c14503	lbu	x10,-628(x2)	  x2:0x80008de7 x10=0x0000006a PA:0x80008b73
       52925000	      5291	80001f30	c7610383	lb	x7,-906(x2)	  x2:0x80008de7  x7=0xffffffcf PA:0x80008a5d
       52935000	      5292	80001f34	0182f533	and	x10,x5,x24	  x5:0x80009fce x24:0x80000020 x10=0x80000000
       52945000	      5293	80001f38	00cebcb3	sltu	x25,x29,x12	 x29:0x000028ed x12:0x00000000 x25=0x00000000
       52955000	      5294	80001f3c	014c14b3	sll	x9,x24,x20	 x24:0x80000020 x20:0xe4e90541  x9=0x00000040
       52965000	      5295	80001f40	0079a4b3	slt	x9,x19,x7	 x19:0x00000000  x7:0xffffffcf  x9=0x00000000
       52975000	      5296	80001f44	03e100a3	sb	x30,33(x2)	  x2:0x80008de7 x30:0x000028ed PA:0x80008e08
       52985000	      5297	80001f48	401c5033	sra	x0,x24,x1	 x24:0x80000020  x1:0xffffff85
       52995000	      5298	80001f4c	00df19b3	sll	x19,x30,x13	 x30:0x000028ed x13:0x00000001 x19=0x000051da
       53005000	      5299	80001f50	001adb33	srl	x22,x21,x1	 x21:0x80008cf4  x1:0xffffff85 x22=0x04000467
       53015000	      5300	80001f54	c8f15903	lhu	x18,-881(x2)	  x2:0x80008de7 x18=0x000018b3 PA:0x80008a76
       53025000	      5301	80001f58	0c810383	lb	x7,200(x2)	  x2:0x80008de7  x7=0x00000040 PA:0x80008eaf
       53035000	      5302	80001f5c	0f610903	lb	x18,246(x2)	  x2:0x80008de7 x18=0xffffffa7 PA:0x80008edd
       53045000	      5303	80001f60	40000d33	sub	x26,x0,x0	  x0:0x00000000  x0:0x00000000 x26=0x00000000
       53055000	      5304	80001f64	40415213	srai	x4,x2,0x4	  x2:0x80008de7  x4=0xf80008de
       53065000	      5305	80001f68	a8753093	sltiu	x1,x10,-1401	 x10:0x80000000  x1=0x00000001
       53075000	      5306	80001f6c	01177b33	and	x22,x14,x17	 x14:0x80009fc4 x17:0x00000031 x22=0x00000000
       53085000	      5307	80001f70	01ae4c33	xor	x24,x28,x26	 x28:0x000000a3 x26:0x00000000 x24=0x000000a3
       53095000	      5308	80001f74	976a8793	addi	x15,x21,-1674	 x21:0x80008cf4 x15=0x8000866a
       53105000	      5309	80001f78	b7410403	lb	x8,-1164(x2)	  x2:0x80008de7  x8=0xffffffe4 PA:0x8000895b
       53115000	      5310	80001f7c	002e20b3	slt	x1,x28,x2	 x28:0x000000a3  x2:0x80008de7  x1=0x00000000
       53125000	      5311	80001f80	00491093	slli	x1,x18,0x4	 x18:0xffffffa7  x1=0xfffffa70
       53135000	      5312	80001f84	ef7a8d13	addi	x26,x21,-265	 x21:0x80008cf4 x26=0x80008beb
       53145000	      5313	80001f88	8487a493	slti	x9,x15,-1976	 x15:0x8000866a  x9=0x00000001
       53155000	      5314	80001f8c	b9f11603	lh	x12,-1121(x2)	  x2:0x80008de7 x12=0x00000e92 PA:0x80008986
       53165000	      5315	80001f90	00006097	auipc	x1,0x6	  x1=0x80007f8c
       53175000	      5316	80001f94	6db08093	addi	x1,x1,1755	  x1:0x80007f8c  x1=0x80008667
       53185000	      5317	80001f98	00308623	sb	x3,12(x1)	  x1:0x80008667  x3:0x00000452 PA:0x80008673
       53195000	      5318	80001f9c	01108423	sb	x17,8(x1)	  x1:0x80008667 x17:0x00000031 PA:0x8000866f
       53205000	      5319	80001fa0	7fc8a797	auipc	x15,0x7fc8a	 x15=0xffc8bf9c
       53215000	      5320	80001fa4	00000013	addi	x0,x0,0	  x0:0x00000000
       53225000	      5321	80001fa8	9fef8913	addi	x18,x31,-1538	 x31:0x80009ee0 x18=0x800098de
       53235000	      5322	80001fac	bf864613	xori	x12,x12,-1032	 x12:0x00000e92 x12=0xfffff56a
       53245000	      5323	80001fb0	41958133	sub	x2,x11,x25	 x11:0x00000001 x25:0x00000000  x2=0x00000001
       53255000	      5324	80001fb4	0212bf37	lui	x30,0x212b	 x30=0x0212b000
       53265000	      5325	80001fb8	00242db3	slt	x27,x8,x2	  x8:0xffffffe4  x2:0x00000001 x27=0x00000001
       53275000	      5326	80001fbc	00afe8b3	or	x17,x31,x10	 x31:0x80009ee0 x10:0x80000000 x17=0x80009ee0
       53285000	      5327	80001fc0	3fd78217	auipc	x4,0x3fd78	  x4=0xbfd79fbc
       53295000	      5328	80001fc4	01015693	srli	x13,x2,0x10	  x2:0x00000001 x13=0x00000000
       53305000	      5329	80001fc8	015092a3	sh	x21,5(x1)	  x1:0x80008667 x21:0x80008cf4 PA:0x8000866c
       53315000	      5330	80001fcc	005edc93	srli	x25,x29,0x5	 x29:0x000028ed x25=0x00000147
       53325000	      5331	80001fd0	49ae9e17	auipc	x28,0x49ae9	 x28=0xc9aeafcc
       53335000	      5332	80001fd4	5c8d8293	addi	x5,x27,1480	 x27:0x00000001  x5=0x000005c9
       53345000	      5333	80001fd8	409ed893	srai	x17,x29,0x9	 x29:0x000028ed x17=0x00000014
       53355000	      5334	80001fdc	4125d813	srai	x16,x11,0x12	 x11:0x00000001 x16=0x00000000
       53365000	      5335	80001fe0	f74ba493	slti	x9,x23,-140	 x23:0x000000be  x9=0x00000000
       53375000	      5336	80001fe4	ffa0c503	lbu	x10,-6(x1)	  x1:0x80008667 x10=0x0000000c PA:0x80008661
       53385000	      5337	80001fe8	0100c683	lbu	x13,16(x1)	  x1:0x80008667 x13=0x000000f1 PA:0x80008677
       53395000	      5338	80001fec	00398033	add	x0,x19,x3	 x19:0x000051da  x3:0x00000452
       53405000	      5339	80001ff0	ff208483	lb	x9,-14(x1)	  x1:0x80008667  x9=0x00000029 PA:0x80008659
       53415000	      5340	80001ff4	01b88833	add	x16,x17,x27	 x17:0x00000014 x27:0x00000001 x16=0x00000015
       53425000	      5341	80001ff8	00000013	addi	x0,x0,0	  x0:0x00000000
       53435000	      5342	80001ffc	015271b3	and	x3,x4,x21	  x4:0xbfd79fbc x21:0x80008cf4  x3=0x80008cb4
       53445000	      5343	80002000	00df5b33	srl	x22,x30,x13	 x30:0x0212b000 x13:0x000000f1 x22=0x00000109
       53455000	      5344	80002004	00d0aa83	lw	x21,13(x1)	  x1:0x80008667 x21=0xf1420380 PA:0x80008674
       53465000	      5345	80002008	00f0c203	lbu	x4,15(x1)	  x1:0x80008667  x4=0x00000042 PA:0x80008676
       53475000	      5346	8000200c	fe208a23	sb	x2,-12(x1)	  x1:0x80008667  x2:0x00000001 PA:0x8000865b
       53485000	      5347	80002010	00b9fdb3	and	x27,x19,x11	 x19:0x000051da x11:0x00000001 x27=0x00000000
       53495000	      5348	80002014	ff308183	lb	x3,-13(x1)	  x1:0x80008667  x3=0xffffff86 PA:0x8000865a
       53505000	      5349	80002018	010e2333	slt	x6,x28,x16	 x28:0xc9aeafcc x16:0x00000015  x6=0x00000001
       53515000	      5350	8000201c	018942b3	xor	x5,x18,x24	 x18:0x800098de x24:0x000000a3  x5=0x8000987d
       53525000	      5351	80002020	ffe08aa3	sb	x30,-11(x1)	  x1:0x80008667 x30:0x0212b000 PA:0x8000865c
       53535000	      5352	80002024	00007117	auipc	x2,0x7	  x2=0x80009020
       53545000	      5353	80002028	e2d10113	addi	x2,x2,-467	  x2:0x80009020  x2=0x80008e4d
       53555000	      5354	8000202c	01005ab3	srl	x21,x0,x16	  x0:0x00000000 x16:0x00000015 x21=0x00000000
       53565000	      5355	80002030	04910623	sb	x9,76(x2)	  x2:0x80008e4d  x9:0x00000029 PA:0x80008e99
       53575000	      5356	80002034	0f0105a3	sb	x16,235(x2)	  x2:0x80008e4d x16:0x00000015 PA:0x80008f38
       53585000	      5357	80002038	07810183	lb	x3,120(x2)	  x2:0x80008e4d  x3=0xffffffd6 PA:0x80008ec5
       53595000	      5358	8000203c	09c114a3	sh	x28,137(x2)	  x2:0x80008e4d x28:0xc9aeafcc PA:0x80008ed6
       53605000	      5359	80002040	13503993	sltiu	x19,x0,309	  x0:0x00000000 x19=0x00000001
       53615000	      5360	80002044	4148da93	srai	x21,x17,0x14	 x17:0x00000014 x21=0x00000000
       53625000	      5361	80002048	00000013	addi	x0,x0,0	  x0:0x00000000
       53635000	      5362	8000204c	0fb15783	lhu	x15,251(x2)	  x2:0x80008e4d x15=0x0000ccce PA:0x80008f48
       53645000	      5363	80002050	019aa3b3	slt	x7,x21,x25	 x21:0x00000000 x25:0x00000147  x7=0x00000001
       53655000	      5364	80002054	f1214683	lbu	x13,-238(x2)	  x2:0x80008e4d x13=0x0000008a PA:0x80008d5f
       53665000	      5365	80002058	fc115a83	lhu	x21,-63(x2)	  x2:0x80008e4d x21=0x0000611c PA:0x80008e0e
       53675000	      5366	8000205c	0c115203	lhu	x4,193(x2)	  x2:0x80008e4d  x4=0x00000001 PA:0x80008f0e
       53685000	      5367	80002060	726ca913	slti	x18,x25,1830	 x25:0x00000147 x18=0x00000001
       53695000	      5368	80002064	fa6116a3	sh	x6,-83(x2)	  x2:0x80008e4d  x6:0x00000001 PA:0x80008dfa
       53705000	      5369	80002068	f2515c83	lhu	x25,-219(x2)	  x2:0x80008e4d x25=0x00005ad1 PA:0x80008d72
       53715000	      5370	8000206c	f8014283	lbu	x5,-128(x2)	  x2:0x80008e4d  x5=0x0000004f PA:0x80008dcd
       53725000	      5371	80002070	0aa10ba3	sb	x10,183(x2)	  x2:0x80008e4d x10:0x0000000c PA:0x80008f04
       53735000	      5372	80002074	0ba10783	lb	x15,186(x2)	  x2:0x80008e4d x15=0x0000000e PA:0x80008f07
       53745000	      5373	80002078	00000013	addi	x0,x0,0	  x0:0x00000000
       53755000	      5374	8000207c	06610e83	lb	x29,102(x2)	  x2:0x80008e4d x29=0x00000057 PA:0x80008eb3
       53765000	      5375	80002080	fc582493	slti	x9,x16,-59	 x16:0x00000015  x9=0x00000000
       53775000	      5376	80002084	fa910223	sb	x9,-92(x2)	  x2:0x80008e4d  x9:0x00000000 PA:0x80008df1
       53785000	      5377	80002088	01c760b3	or	x1,x14,x28	 x14:0x80009fc4 x28:0xc9aeafcc  x1=0xc9aebfcc
       53795000	      5378	8000208c	0166d4b3	srl	x9,x13,x22	 x13:0x0000008a x22:0x00000109  x9=0x00000000
       53805000	      5379	80002090	05110c03	lb	x24,81(x2)	  x2:0x80008e4d x24=0xffffff98 PA:0x80008e9e
       53815000	      5380	80002094	fe110203	lb	x4,-31(x2)	  x2:0x80008e4d  x4=0x00000067 PA:0x80008e2e
       53825000	      5381	80002098	d7c599b7	lui	x19,0xd7c59	 x19=0xd7c59000
       53835000	      5382	8000209c	f4411fa3	sh	x4,-161(x2)	  x2:0x80008e4d  x4:0x00000067 PA:0x80008dac
       53845000	      5383	800020a0	f74103a3	sb	x20,-153(x2)	  x2:0x80008e4d x20:0xe4e90541 PA:0x80008db4
       53855000	      5384	800020a4	090106a3	sb	x16,141(x2)	  x2:0x80008e4d x16:0x00000015 PA:0x80008eda
       53865000	      5385	800020a8	a9d0ab13	slti	x22,x1,-1379	  x1:0xc9aebfcc x22=0x00000001
       53875000	      5386	800020ac	f2b10a83	lb	x21,-213(x2)	  x2:0x80008e4d x21=0xffffffc5 PA:0x80008d78
       53885000	      5387	800020b0	fdb14303	lbu	x6,-37(x2)	  x2:0x80008e4d  x6=0x000000b2 PA:0x80008e28
       53895000	      5388	800020b4	fa410803	lb	x16,-92(x2)	  x2:0x80008e4d x16=0x00000000 PA:0x80008df1
       53905000	      5389	800020b8	7e35aa93	slti	x21,x11,2019	 x11:0x00000001 x21=0x00000001
       53915000	      5390	800020bc	0172d413	srli	x8,x5,0x17	  x5:0x0000004f  x8=0x00000000
       53925000	      5391	800020c0	0de10a23	sb	x30,212(x2)	  x2:0x80008e4d x30:0x0212b000 PA:0x80008f21
       53935000	      5392	800020c4	00884b33	xor	x22,x16,x8	 x16:0x00000000  x8:0x00000000 x22=0x00000000
       53945000	      5393	800020c8	084109a3	sb	x4,147(x2)	  x2:0x80008e4d  x4:0x00000067 PA:0x80008ee0
       53955000	      5394	800020cc	00006c17	auipc	x24,0x6	 x24=0x800080c8
       53965000	      5395	800020d0	190c0c13	addi	x24,x24,400	 x24:0x800080c8 x24=0x80008258
       53975000	      5396	800020d4	00dbf833	and	x16,x23,x13	 x23:0x000000be x13:0x0000008a x16=0x0000008a
       53985000	      5397	800020d8	00b7b033	sltu	x0,x15,x11	 x15:0x0000000e x11:0x00000001
       53995000	      5398	800020dc	d9f2a793	slti	x15,x5,-609	  x5:0x0000004f x15=0x00000000
       54005000	      5399	800020e0	00f4e833	or	x16,x9,x15	  x9:0x00000000 x15:0x00000000 x16=0x00000000
       54015000	      5400	800020e4	001c06a3	sb	x1,13(x24)	 x24:0x80008258  x1:0xc9aebfcc PA:0x80008265
       54025000	      5401	800020e8	c7f27093	andi	x1,x4,-897	  x4:0x00000067  x1=0x00000067
       54035000	      5402	800020ec	001dbf33	sltu	x30,x27,x1	 x27:0x00000000  x1:0x00000067 x30=0x00000001
       54045000	      5403	800020f0	92182cb7	lui	x25,0x92182	 x25=0x92182000
       54055000	      5404	800020f4	00bfc6b3	xor	x13,x31,x11	 x31:0x80009ee0 x11:0x00000001 x13=0x80009ee1
       54065000	      5405	800020f8	01b75893	srli	x17,x14,0x1b	 x14:0x80009fc4 x17=0x00000010
       54075000	      5406	800020fc	00ec0e83	lb	x29,14(x24)	 x24:0x80008258 x29=0xfffffff9 PA:0x80008266
       54085000	      5407	80002100	00a9adb3	slt	x27,x19,x10	 x19:0xd7c59000 x10:0x0000000c x27=0x00000001
       54095000	      5408	80002104	0037b433	sltu	x8,x15,x3	 x15:0x00000000  x3:0xffffffd6  x8=0x00000001
       54105000	      5409	80002108	4170d233	sra	x4,x1,x23	  x1:0x00000067 x23:0x000000be  x4=0x00000000
       54115000	      5410	8000210c	8a2f0293	addi	x5,x30,-1886	 x30:0x00000001  x5=0xfffff8a3
       54125000	      5411	80002110	006c5003	lhu	x0,6(x24)	 x24:0x80008258 PA:0x8000825e
       54135000	      5412	80002114	006108b3	add	x17,x2,x6	  x2:0x80008e4d  x6:0x000000b2 x17=0x80008eff
       54145000	      5413	80002118	000461b3	or	x3,x8,x0	  x8:0x00000001  x0:0x00000000  x3=0x00000001
       54155000	      5414	8000211c	404b86b3	sub	x13,x23,x4	 x23:0x000000be  x4:0x00000000 x13=0x000000be
       54165000	      5415	80002120	9ec30913	addi	x18,x6,-1556	  x6:0x000000b2 x18=0xfffffa9e
       54175000	      5416	80002124	ffdc0b23	sb	x29,-10(x24)	 x24:0x80008258 x29:0xfffffff9 PA:0x8000824e
       54185000	      5417	80002128	8cb3c113	xori	x2,x7,-1845	  x7:0x00000001  x2=0xfffff8ca
       54195000	      5418	8000212c	2ef1bb97	auipc	x23,0x2ef1b	 x23=0xaef1d128
       54205000	      5419	80002130	01cf7233	and	x4,x30,x28	 x30:0x00000001 x28:0xc9aeafcc  x4=0x00000000
       54215000	      5420	80002134	4b0de993	ori	x19,x27,1200	 x27:0x00000001 x19=0x000004b1
       54225000	      5421	80002138	004c0483	lb	x9,4(x24)	 x24:0x80008258  x9=0xffffff9a PA:0x8000825c
       54235000	      5422	8000213c	008c05a3	sb	x8,11(x24)	 x24:0x80008258  x8:0x00000001 PA:0x80008263
       54245000	      5423	80002140	ff6c4683	lbu	x13,-10(x24)	 x24:0x80008258 x13=0x000000f9 PA:0x8000824e
       54255000	      5424	80002144	000c2283	lw	x5,0(x24)	 x24:0x80008258  x5=0x6e635f94 PA:0x80008258
       54265000	      5425	80002148	003e71b3	and	x3,x28,x3	 x28:0xc9aeafcc  x3:0x00000001  x3=0x00000000
       54275000	      5426	8000214c	1b2f4313	xori	x6,x30,434	 x30:0x00000001  x6=0x000001b3
       54285000	      5427	80002150	feac1f23	sh	x10,-2(x24)	 x24:0x80008258 x10:0x0000000c PA:0x80008256
       54295000	      5428	80002154	40a95a93	srai	x21,x18,0xa	 x18:0xfffffa9e x21=0xfffffffe
       54305000	      5429	80002158	002c0203	lb	x4,2(x24)	 x24:0x80008258  x4=0x00000063 PA:0x8000825a
       54315000	      5430	8000215c	4082db93	srai	x23,x5,0x8	  x5:0x6e635f94 x23=0x006e635f
       54325000	      5431	80002160	007c4303	lbu	x6,7(x24)	 x24:0x80008258  x6=0x0000003b PA:0x8000825f
       54335000	      5432	80002164	00006117	auipc	x2,0x6	  x2=0x80008160
       54345000	      5433	80002168	22010113	addi	x2,x2,544	  x2:0x80008160  x2=0x80008380
       54355000	      5434	8000216c	ffe15303	lhu	x6,-2(x2)	  x2:0x80008380  x6=0x00005fc3 PA:0x8000837e
       54365000	      5435	80002170	4888bc13	sltiu	x24,x17,1160	 x17:0x80008eff x24=0x00000000
       54375000	      5436	80002174	015ba0b3	slt	x1,x23,x21	 x23:0x006e635f x21:0xfffffffe  x1=0x00000000
       54385000	      5437	80002178	02610903	lb	x18,38(x2)	  x2:0x80008380 x18=0x00000077 PA:0x800083a6
       54395000	      5438	8000217c	02410403	lb	x8,36(x2)	  x2:0x80008380  x8=0x0000005e PA:0x800083a4
       54405000	      5439	80002180	c1dec693	xori	x13,x29,-995	 x29:0xfffffff9 x13=0x000003e4
       54415000	      5440	80002184	01b14283	lbu	x5,27(x2)	  x2:0x80008380  x5=0x00000021 PA:0x8000839b
       54425000	      5441	80002188	b30e8193	addi	x3,x29,-1232	 x29:0xfffffff9  x3=0xfffffb29
       54435000	      5442	8000218c	00059193	slli	x3,x11,0x0	 x11:0x00000001  x3=0x00000001
       54445000	      5443	80002190	4191d333	sra	x6,x3,x25	  x3:0x00000001 x25:0x92182000  x6=0x00000001
       54455000	      5444	80002194	76c07313	andi	x6,x0,1900	  x0:0x00000000  x6=0x00000000
       54465000	      5445	80002198	71fa7813	andi	x16,x20,1823	 x20:0xe4e90541 x16=0x00000501
       54475000	      5446	8000219c	00000013	addi	x0,x0,0	  x0:0x00000000
       54485000	      5447	800021a0	01e5d3b3	srl	x7,x11,x30	 x11:0x00000001 x30:0x00000001  x7=0x00000000
       54495000	      5448	800021a4	005cdd33	srl	x26,x25,x5	 x25:0x92182000  x5:0x00000021 x26=0x490c1000
       54505000	      5449	800021a8	004fd033	srl	x0,x31,x4	 x31:0x80009ee0  x4:0x00000063
       54515000	      5450	800021ac	fe811923	sh	x8,-14(x2)	  x2:0x80008380  x8:0x0000005e PA:0x80008372
       54525000	      5451	800021b0	0027dd33	srl	x26,x15,x2	 x15:0x00000000  x2:0x80008380 x26=0x00000000
       54535000	      5452	800021b4	ff9107a3	sb	x25,-17(x2)	  x2:0x80008380 x25:0x92182000 PA:0x8000836f
       54545000	      5453	800021b8	5e6ffc93	andi	x25,x31,1510	 x31:0x80009ee0 x25=0x000004e0
       54555000	      5454	800021bc	0198db93	srli	x23,x17,0x19	 x17:0x80008eff x23=0x00000040
       54565000	      5455	800021c0	014102a3	sb	x20,5(x2)	  x2:0x80008380 x20:0xe4e90541 PA:0x80008385
       54575000	      5456	800021c4	fe3101a3	sb	x3,-29(x2)	  x2:0x80008380  x3:0x00000001 PA:0x80008363
       54585000	      5457	800021c8	fd514e83	lbu	x29,-43(x2)	  x2:0x80008380 x29=0x0000001e PA:0x80008355
       54595000	      5458	800021cc	02b10403	lb	x8,43(x2)	  x2:0x80008380  x8=0xffffffe9 PA:0x800083ab
       54605000	      5459	800021d0	004136b3	sltu	x13,x2,x4	  x2:0x80008380  x4:0x00000063 x13=0x00000000
       54615000	      5460	800021d4	01950f33	add	x30,x10,x25	 x10:0x0000000c x25:0x000004e0 x30=0x000004ec
       54625000	      5461	800021d8	405f83b3	sub	x7,x31,x5	 x31:0x80009ee0  x5:0x00000021  x7=0x80009ebf
       54635000	      5462	800021dc	fef14c83	lbu	x25,-17(x2)	  x2:0x80008380 x25=0x00000000 PA:0x8000836f
       54645000	      5463	800021e0	00007217	auipc	x4,0x7	  x4=0x800091dc
       54655000	      5464	800021e4	82420213	addi	x4,x4,-2012	  x4:0x800091dc  x4=0x80008a00
       54665000	      5465	800021e8	009f6ab3	or	x21,x30,x9	 x30:0x000004ec  x9:0xffffff9a x21=0xfffffffe
       54675000	      5466	800021ec	f3d24b83	lbu	x23,-195(x4)	  x4:0x80008a00 x23=0x0000009c PA:0x8000893d
       54685000	      5467	800021f0	f63207a3	sb	x3,-145(x4)	  x4:0x80008a00  x3:0x00000001 PA:0x8000896f
       54695000	      5468	800021f4	412c51b3	sra	x3,x24,x18	 x24:0x00000000 x18:0x00000077  x3=0x00000000
       54705000	      5469	800021f8	f5422c23	sw	x20,-168(x4)	  x4:0x80008a00 x20:0xe4e90541 PA:0x80008958
       54715000	      5470	800021fc	412ed913	srai	x18,x29,0x12	 x29:0x0000001e x18=0x00000000
       54725000	      5471	80002200	f8224a83	lbu	x21,-126(x4)	  x4:0x80008a00 x21=0x000000ae PA:0x80008982
       54735000	      5472	80002204	fa620883	lb	x17,-90(x4)	  x4:0x80008a00 x17=0x0000007c PA:0x800089a6
       54745000	      5473	80002208	0bf20403	lb	x8,191(x4)	  x4:0x80008a00  x8=0x0000000e PA:0x80008abf
       54755000	      5474	8000220c	40f55693	srai	x13,x10,0xf	 x10:0x0000000c x13=0x00000000
       54765000	      5475	80002210	0053b1b3	sltu	x3,x7,x5	  x7:0x80009ebf  x5:0x00000021  x3=0x00000000
       54775000	      5476	80002214	402500b3	sub	x1,x10,x2	 x10:0x0000000c  x2:0x80008380  x1=0x7fff7c8c
       54785000	      5477	80002218	f4220e23	sb	x2,-164(x4)	  x4:0x80008a00  x2:0x80008380 PA:0x8000895c
       54795000	      5478	8000221c	ff422a23	sw	x20,-12(x4)	  x4:0x80008a00 x20:0xe4e90541 PA:0x800089f4
       54805000	      5479	80002220	000128b3	slt	x17,x2,x0	  x2:0x80008380  x0:0x00000000 x17=0x00000001
       54815000	      5480	80002224	04020083	lb	x1,64(x4)	  x4:0x80008a00  x1=0xffffff92 PA:0x80008a40
       54825000	      5481	80002228	f8720a83	lb	x21,-121(x4)	  x4:0x80008a00 x21=0x0000000e PA:0x80008987
       54835000	      5482	8000222c	98f64ab7	lui	x21,0x98f64	 x21=0x98f64000
       54845000	      5483	80002230	fb924383	lbu	x7,-71(x4)	  x4:0x80008a00  x7=0x000000b5 PA:0x800089b9
       54855000	      5484	80002234	004a0633	add	x12,x20,x4	 x20:0xe4e90541  x4:0x80008a00 x12=0x64e98f41
       54865000	      5485	80002238	0cf21623	sh	x15,204(x4)	  x4:0x80008a00 x15:0x00000000 PA:0x80008acc
       54875000	      5486	8000223c	f3220183	lb	x3,-206(x4)	  x4:0x80008a00  x3=0xffffffc8 PA:0x80008932
       54885000	      5487	80002240	04124f03	lbu	x30,65(x4)	  x4:0x80008a00 x30=0x00000086 PA:0x80008a41
       54895000	      5488	80002244	00000013	addi	x0,x0,0	  x0:0x00000000
       54905000	      5489	80002248	09620483	lb	x9,150(x4)	  x4:0x80008a00  x9=0x00000025 PA:0x80008a96
       54915000	      5490	8000224c	0e7207a3	sb	x7,239(x4)	  x4:0x80008a00  x7:0x000000b5 PA:0x80008aef
       54925000	      5491	80002250	f0920103	lb	x2,-247(x4)	  x4:0x80008a00  x2=0x00000034 PA:0x80008909
       54935000	      5492	80002254	d5bd6893	ori	x17,x26,-677	 x26:0x00000000 x17=0xfffffd5b
       54945000	      5493	80002258	01b5e233	or	x4,x11,x27	 x11:0x00000001 x27:0x00000001  x4=0x00000001
       54955000	      5494	8000225c	01e995b3	sll	x11,x19,x30	 x19:0x000004b1 x30:0x00000086 x11=0x00012c40
       54965000	      5495	80002260	005480b3	add	x1,x9,x5	  x9:0x00000025  x5:0x00000021  x1=0x00000046
       54975000	      5496	80002264	41ffd093	srai	x1,x31,0x1f	 x31:0x80009ee0  x1=0xffffffff
       54985000	      5497	80002268	4cdc8213	addi	x4,x25,1229	 x25:0x00000000  x4=0x000004cd
       54995000	      5498	8000226c	00000013	addi	x0,x0,0	  x0:0x00000000
       55005000	      5499	80002270	44b63413	sltiu	x8,x12,1099	 x12:0x64e98f41  x8=0x00000000
       55015000	      5500	80002274	01055b33	srl	x22,x10,x16	 x10:0x0000000c x16:0x00000501 x22=0x00000006
       55025000	      5501	80002278	01d037b3	sltu	x15,x0,x29	  x0:0x00000000 x29:0x0000001e x15=0x00000001
       55035000	      5502	8000227c	025b0063	beq	x22,x5,8000229c	 x22:0x00000006  x5:0x00000021
       55045000	      5503	80002280	033d1463	bne	x26,x19,800022a8	 x26:0x00000000 x19:0x000004b1
       55055000	      5504	00000000	00000013	addi	x0,x0,0	  x0:0x00000000
       55065000	      5505	800022a4	00000013	addi	x0,x0,0	  x0:0x00000000
       55075000	      5506	800022a8	05a81863	bne	x16,x26,800022f8	 x16:0x00000501 x26:0x00000000
       55085000	      5507	00000000	00000013	addi	x0,x0,0	  x0:0x00000000
       55095000	      5508	800022f4	00000013	addi	x0,x0,0	  x0:0x00000000
       55105000	      5509	800022f8	011f0e63	beq	x30,x17,80002314	 x30:0x00000086 x17:0xfffffd5b
       55115000	      5510	800022fc	00a17f33	and	x30,x2,x10	  x2:0x00000034 x10:0x0000000c x30=0x00000004
       55125000	      5511	80002300	005a7333	and	x6,x20,x5	 x20:0xe4e90541  x5:0x00000021  x6=0x00000001
       55135000	      5512	80002304	01657a63	bgeu	x10,x22,80002318	 x10:0x0000000c x22:0x00000006
       55145000	      5513	00000000	00000013	addi	x0,x0,0	  x0:0x00000000
       55155000	      5514	80002314	00000013	addi	x0,x0,0	  x0:0x00000000
       55165000	      5515	80002318	006a8e63	beq	x21,x6,80002334	 x21:0x98f64000  x6:0x00000001
       55175000	      5516	8000231c	8699e213	ori	x4,x19,-1943	 x19:0x000004b1  x4=0xfffffcf9
       55185000	      5517	80002320	20f98293	addi	x5,x19,527	 x19:0x000004b1  x5=0x000006c0
       55195000	      5518	80002324	02520a63	beq	x4,x5,80002358	  x4:0xfffffcf9  x5:0x000006c0
       55205000	      5519	80002328	0232e663	bltu	x5,x3,80002354	  x5:0x000006c0  x3:0xffffffc8
       55215000	      5520	00000000	00000013	addi	x0,x0,0	  x0:0x00000000
       55225000	      5521	80002350	00000013	addi	x0,x0,0	  x0:0x00000000
       55235000	      5522	80002354	ad4ffe93	andi	x29,x31,-1324	 x31:0x80009ee0 x29=0x80009ac0
       55245000	      5523	80002358	00c53c33	sltu	x24,x10,x12	 x10:0x0000000c x12:0x64e98f41 x24=0x00000001
       55255000	      5524	8000235c	02611263	bne	x2,x6,80002380	  x2:0x00000034  x6:0x00000001
       55265000	      5525	00000000	00000013	addi	x0,x0,0	  x0:0x00000000
       55275000	      5526	8000237c	00000013	addi	x0,x0,0	  x0:0x00000000
       55285000	      5527	80002380	00f2edb3	or	x27,x5,x15	  x5:0x000006c0 x15:0x00000001 x27=0x000006c1
       55295000	      5528	80002384	00969593	slli	x11,x13,0x9	 x13:0x00000000 x11=0x00000000
       55305000	      5529	80002388	414d8833	sub	x16,x27,x20	 x27:0x000006c1 x20:0xe4e90541 x16=0x1b170180
       55315000	      5530	8000238c	015fb0b3	sltu	x1,x31,x21	 x31:0x80009ee0 x21:0x98f64000  x1=0x00000001
       55325000	      5531	80002390	0027d663	bge	x15,x2,8000239c	 x15:0x00000001  x2:0x00000034
       55335000	      5532	80002394	01f9be33	sltu	x28,x19,x31	 x19:0x000004b1 x31:0x80009ee0 x28=0x00000001
       55345000	      5533	80002398	c488e413	ori	x8,x17,-952	 x17:0xfffffd5b  x8=0xfffffd5b
       55355000	      5534	8000239c	77deeb93	ori	x23,x29,1917	 x29:0x80009ac0 x23=0x80009ffd
       55365000	      5535	800023a0	0526e463	bltu	x13,x18,800023e8	 x13:0x00000000 x18:0x00000000
       55375000	      5536	800023a4	005c9d93	slli	x27,x25,0x5	 x25:0x00000000 x27=0x00000000
       55385000	      5537	800023a8	dfcb2f13	slti	x30,x22,-516	 x22:0x00000006 x30=0x00000000
       55395000	      5538	800023ac	81757cb7	lui	x25,0x81757	 x25=0x81757000
       55405000	      5539	800023b0	4004d9b3	sra	x19,x9,x0	  x9:0x00000025  x0:0x00000000 x19=0x00000025
       55415000	      5540	800023b4	01549793	slli	x15,x9,0x15	  x9:0x00000025 x15=0x04a00000
       55425000	      5541	800023b8	40dc8e33	sub	x28,x25,x13	 x25:0x81757000 x13:0x00000000 x28=0x81757000
       55435000	      5542	800023bc	043a7263	bgeu	x20,x3,80002400	 x20:0xe4e90541  x3:0xffffffc8
       55445000	      5543	800023c0	04411263	bne	x2,x4,80002404	  x2:0x00000034  x4:0xfffffcf9
       55455000	      5544	00000000	00000013	addi	x0,x0,0	  x0:0x00000000
       55465000	      5545	80002400	00000013	addi	x0,x0,0	  x0:0x00000000
       55475000	      5546	80002404	096e3417	auipc	x8,0x96e3	  x8=0x896e5400
       55485000	      5547	80002408	00dcfcb3	and	x25,x25,x13	 x25:0x81757000 x13:0x00000000 x25=0x00000000
       55495000	      5548	8000240c	01875393	srli	x7,x14,0x18	 x14:0x80009fc4  x7=0x00000080
       55505000	      5549	80002410	c171a113	slti	x2,x3,-1001	  x3:0xffffffc8  x2=0x00000000
       55515000	      5550	80002414	41745513	srai	x10,x8,0x17	  x8:0x896e5400 x10=0xffffff12
       55525000	      5551	80002418	64939217	auipc	x4,0x64939	  x4=0xe493b414
       55535000	      5552	8000241c	019f5e63	bge	x30,x25,80002438	 x30:0x00000000 x25:0x00000000
       55545000	      5553	00000000	00000013	addi	x0,x0,0	  x0:0x00000000
       55555000	      5554	80002434	00000013	addi	x0,x0,0	  x0:0x00000000
       55565000	      5555	80002438	01a4f0b3	and	x1,x9,x26	  x9:0x00000025 x26:0x00000000  x1=0x00000000
       55575000	      5556	8000243c	ce69a493	slti	x9,x19,-794	 x19:0x00000025  x9=0x00000000
       55585000	      5557	80002440	40445293	srai	x5,x8,0x4	  x8:0x896e5400  x5=0xf896e540
       55595000	      5558	80002444	e8135ab7	lui	x21,0xe8135	 x21=0xe8135000
       55605000	      5559	80002448	f7fcc913	xori	x18,x25,-129	 x25:0x00000000 x18=0xffffff7f
       55615000	      5560	8000244c	9711eb93	ori	x23,x3,-1679	  x3:0xffffffc8 x23=0xfffffff9
       55625000	      5561	80002450	41d985b3	sub	x11,x19,x29	 x19:0x00000025 x29:0x80009ac0 x11=0x7fff6565
       55635000	      5562	80002454	04add863	bge	x27,x10,800024a4	 x27:0x00000000 x10:0xffffff12
       55645000	      5563	00000000	00000013	addi	x0,x0,0	  x0:0x00000000
       55655000	      5564	800024a0	00000013	addi	x0,x0,0	  x0:0x00000000
       55665000	      5565	800024a4	05058863	beq	x11,x16,800024f4	 x11:0x7fff6565 x16:0x1b170180
       55675000	      5566	800024a8	401b5893	srai	x17,x22,0x1	 x22:0x00000006 x17=0x00000003
       55685000	      5567	800024ac	05060063	beq	x12,x16,800024ec	 x12:0x64e98f41 x16:0x1b170180
       55695000	      5568	800024b0	9d4c0293	addi	x5,x24,-1580	 x24:0x00000001  x5=0xfffff9d5
       55705000	      5569	800024b4	016f4c63	blt	x30,x22,800024cc	 x30:0x00000000 x22:0x00000006
       55715000	      5570	00000000	00000013	addi	x0,x0,0	  x0:0x00000000
       55725000	      5571	800024c8	00000013	addi	x0,x0,0	  x0:0x00000000
       55735000	      5572	800024cc	24dece93	xori	x29,x29,589	 x29:0x80009ac0 x29=0x8000988d
       55745000	      5573	800024d0	01536033	or	x0,x6,x21	  x6:0x00000001 x21:0xe8135000
       55755000	      5574	800024d4	00331663	bne	x6,x3,800024e0	  x6:0x00000001  x3:0xffffffc8
       55765000	      5575	00000000	00000013	addi	x0,x0,0	  x0:0x00000000
       55775000	      5576	800024dc	00000013	addi	x0,x0,0	  x0:0x00000000
       55785000	      5577	800024e0	019015b3	sll	x11,x0,x25	  x0:0x00000000 x25:0x00000000 x11=0x00000000
       55795000	      5578	800024e4	00000013	addi	x0,x0,0	  x0:0x00000000
       55805000	      5579	800024e8	00d65813	srli	x16,x12,0xd	 x12:0x64e98f41 x16=0x0003274c
       55815000	      5580	800024ec	0aa16a63	bltu	x2,x10,800025a0	  x2:0x00000000 x10:0xffffff12
       55825000	      5581	00000000	00000013	addi	x0,x0,0	  x0:0x00000000
       55835000	      5582	8000259c	00000013	addi	x0,x0,0	  x0:0x00000000
       55845000	      5583	800025a0	0528f263	bgeu	x17,x18,800025e4	 x17:0x00000003 x18:0xffffff7f
       55855000	      5584	800025a4	00384533	xor	x10,x16,x3	 x16:0x0003274c  x3:0xffffffc8 x10=0xfffcd884
       55865000	      5585	800025a8	00e7d433	srl	x8,x15,x14	 x15:0x04a00000 x14:0x80009fc4  x8=0x004a0000
       55875000	      5586	800025ac	016b2ab3	slt	x21,x22,x22	 x22:0x00000006 x22:0x00000006 x21=0x00000000
       55885000	      5587	800025b0	a6f6a5b7	lui	x11,0xa6f6a	 x11=0xa6f6a000
       55895000	      5588	800025b4	014808b3	add	x17,x16,x20	 x16:0x0003274c x20:0xe4e90541 x17=0xe4ec2c8d
       55905000	      5589	800025b8	8df71e97	auipc	x29,0x8df71	 x29=0x0df735b4
       55915000	      5590	800025bc	01c52233	slt	x4,x10,x28	 x10:0xfffcd884 x28:0x81757000  x4=0x00000000
       55925000	      5591	800025c0	b6a52c13	slti	x24,x10,-1174	 x10:0xfffcd884 x24=0x00000001
       55935000	      5592	800025c4	03697c63	bgeu	x18,x22,800025fc	 x18:0xffffff7f x22:0x00000006
       55945000	      5593	00000000	00000013	addi	x0,x0,0	  x0:0x00000000
       55955000	      5594	800025f8	00000013	addi	x0,x0,0	  x0:0x00000000
       55965000	      5595	800025fc	010f93b3	sll	x7,x31,x16	 x31:0x80009ee0 x16:0x0003274c  x7=0x09ee0000
       55975000	      5596	80002600	dcfa7c13	andi	x24,x20,-561	 x20:0xe4e90541 x24=0xe4e90541
       55985000	      5597	80002604	f71ee213	ori	x4,x29,-143	 x29:0x0df735b4  x4=0xfffffff5
       55995000	      5598	80002608	662317b7	lui	x15,0x66231	 x15=0x66231000
       56005000	      5599	8000260c	02139463	bne	x7,x1,80002634	  x7:0x09ee0000  x1:0x00000000
       56015000	      5600	00000000	00000013	addi	x0,x0,0	  x0:0x00000000
       56025000	      5601	80002630	00000013	addi	x0,x0,0	  x0:0x00000000
       56035000	      5602	80002634	00c7e9b3	or	x19,x15,x12	 x15:0x66231000 x12:0x64e98f41 x19=0x66eb9f41
       56045000	      5603	80002638	8d8f3293	sltiu	x5,x30,-1832	 x30:0x00000000  x5=0x00000001
       56055000	      5604	8000263c	01c40a63	beq	x8,x28,80002650	  x8:0x004a0000 x28:0x81757000
       56065000	      5605	80002640	00279833	sll	x16,x15,x2	 x15:0x66231000  x2:0x00000000 x16=0x66231000
       56075000	      5606	80002644	0054db33	srl	x22,x9,x5	  x9:0x00000000  x5:0x00000001 x22=0x00000000
       56085000	      5607	80002648	012ea3b3	slt	x7,x29,x18	 x29:0x0df735b4 x18:0xffffff7f  x7=0x00000000
       56095000	      5608	8000264c	01873533	sltu	x10,x14,x24	 x14:0x80009fc4 x24:0xe4e90541 x10=0x00000001
       56105000	      5609	80002650	00effc63	bgeu	x31,x14,80002668	 x31:0x80009ee0 x14:0x80009fc4
       56115000	      5610	80002654	41af88b3	sub	x17,x31,x26	 x31:0x80009ee0 x26:0x00000000 x17=0x80009ee0
       56125000	      5611	80002658	008d1133	sll	x2,x26,x8	 x26:0x00000000  x8:0x004a0000  x2=0x00000000
       56135000	      5612	8000265c	01eb0e63	beq	x22,x30,80002678	 x22:0x00000000 x30:0x00000000
       56145000	      5613	00000000	00000013	addi	x0,x0,0	  x0:0x00000000
       56155000	      5614	80002674	00000013	addi	x0,x0,0	  x0:0x00000000
       56165000	      5615	80002678	005dccb3	xor	x25,x27,x5	 x27:0x00000000  x5:0x00000001 x25=0x00000001
       56175000	      5616	8000267c	73ddf493	andi	x9,x27,1853	 x27:0x00000000  x9=0x00000000
       56185000	      5617	80002680	409358b3	sra	x17,x6,x9	  x6:0x00000001  x9:0x00000000 x17=0x00000001
       56195000	      5618	80002684	40d10b33	sub	x22,x2,x13	  x2:0x00000000 x13:0x00000000 x22=0x00000000
       56205000	      5619	80002688	40a58b33	sub	x22,x11,x10	 x11:0xa6f6a000 x10:0x00000001 x22=0xa6f69fff
       56215000	      5620	8000268c	01a91e63	bne	x18,x26,800026a8	 x18:0xffffff7f x26:0x00000000
       56225000	      5621	00000000	00000013	addi	x0,x0,0	  x0:0x00000000
       56235000	      5622	800026a4	00000013	addi	x0,x0,0	  x0:0x00000000
       56245000	      5623	800026a8	41800bb3	sub	x23,x0,x24	  x0:0x00000000 x24:0xe4e90541 x23=0x1b16fabf
       56255000	      5624	800026ac	01b81c33	sll	x24,x16,x27	 x16:0x66231000 x27:0x00000000 x24=0x66231000
       56265000	      5625	800026b0	41e05e33	sra	x28,x0,x30	  x0:0x00000000 x30:0x00000000 x28=0x00000000
       56275000	      5626	800026b4	41cc50b3	sra	x1,x24,x28	 x24:0x66231000 x28:0x00000000  x1=0x66231000
       56285000	      5627	800026b8	003dd433	srl	x8,x27,x3	 x27:0x00000000  x3:0xffffffc8  x8=0x00000000
       56295000	      5628	800026bc	019bcb33	xor	x22,x23,x25	 x23:0x1b16fabf x25:0x00000001 x22=0x1b16fabe
       56305000	      5629	800026c0	ef52ea97	auipc	x21,0xef52e	 x21=0x6f5306bc
       56315000	      5630	800026c4	00cb47b3	xor	x15,x22,x12	 x22:0x1b16fabe x12:0x64e98f41 x15=0x7fff75ff
       56325000	      5631	800026c8	e76c4e13	xori	x28,x24,-394	 x24:0x66231000 x28=0x99dcee76
       56335000	      5632	800026cc	0050a133	slt	x2,x1,x5	  x1:0x66231000  x5:0x00000001  x2=0x00000000
       56345000	      5633	800026d0	00115833	srl	x16,x2,x1	  x2:0x00000000  x1:0x66231000 x16=0x00000000
       56355000	      5634	800026d4	01f083b3	add	x7,x1,x31	  x1:0x66231000 x31:0x80009ee0  x7=0xe623aee0
       56365000	      5635	800026d8	0092beb3	sltu	x29,x5,x9	  x5:0x00000001  x9:0x00000000 x29=0x00000000
       56375000	      5636	800026dc	00f1ce63	blt	x3,x15,800026f8	  x3:0xffffffc8 x15:0x7fff75ff
       56385000	      5637	00000000	00000013	addi	x0,x0,0	  x0:0x00000000
       56395000	      5638	800026f4	00000013	addi	x0,x0,0	  x0:0x00000000
       56405000	      5639	800026f8	6c2d0e93	addi	x29,x26,1730	 x26:0x00000000 x29=0x000006c2
       56415000	      5640	800026fc	030afc63	bgeu	x21,x16,80002734	 x21:0x6f5306bc x16:0x00000000
       56425000	      5641	00000000	00000013	addi	x0,x0,0	  x0:0x00000000
       56435000	      5642	80002730	00000013	addi	x0,x0,0	  x0:0x00000000
       56445000	      5643	80002734	013ea433	slt	x8,x29,x19	 x29:0x000006c2 x19:0x66eb9f41  x8=0x00000001
       56455000	      5644	80002738	00ccdcb3	srl	x25,x25,x12	 x25:0x00000001 x12:0x64e98f41 x25=0x00000000
       56465000	      5645	8000273c	05e54063	blt	x10,x30,8000277c	 x10:0x00000001 x30:0x00000000
       56475000	      5646	80002740	41ba0133	sub	x2,x20,x27	 x20:0xe4e90541 x27:0x00000000  x2=0xe4e90541
       56485000	      5647	80002744	05cf6463	bltu	x30,x28,8000278c	 x30:0x00000000 x28:0x99dcee76
       56495000	      5648	00000000	00000013	addi	x0,x0,0	  x0:0x00000000
       56505000	      5649	80002788	00000013	addi	x0,x0,0	  x0:0x00000000
       56515000	      5650	8000278c	008340b3	xor	x1,x6,x8	  x6:0x00000001  x8:0x00000001  x1=0x00000000
       56525000	      5651	80002790	0129d7b3	srl	x15,x19,x18	 x19:0x66eb9f41 x18:0xffffff7f x15=0x00000000
       56535000	      5652	80002794	68685f17	auipc	x30,0x68685	 x30=0xe8687790
       56545000	      5653	80002798	ebf1b613	sltiu	x12,x3,-321	  x3:0xffffffc8 x12=0x00000000
       56555000	      5654	8000279c	002ea833	slt	x16,x29,x2	 x29:0x000006c2  x2:0xe4e90541 x16=0x00000000
       56565000	      5655	800027a0	02815463	bge	x2,x8,800027c8	  x2:0xe4e90541  x8:0x00000001
       56575000	      5656	800027a4	41955e33	sra	x28,x10,x25	 x10:0x00000001 x25:0x00000000 x28=0x00000001
       56585000	      5657	800027a8	01a87bb3	and	x23,x16,x26	 x16:0x00000000 x26:0x00000000 x23=0x00000000
       56595000	      5658	800027ac	016cee63	bltu	x25,x22,800027c8	 x25:0x00000000 x22:0x1b16fabe
       56605000	      5659	00000000	00000013	addi	x0,x0,0	  x0:0x00000000
       56615000	      5660	800027c4	00000013	addi	x0,x0,0	  x0:0x00000000
       56625000	      5661	800027c8	00146c63	bltu	x8,x1,800027e0	  x8:0x00000001  x1:0x00000000
       56635000	      5662	800027cc	01a9f533	and	x10,x19,x26	 x19:0x66eb9f41 x26:0x00000000 x10=0x00000000
       56645000	      5663	800027d0	00000013	addi	x0,x0,0	  x0:0x00000000
       56655000	      5664	800027d4	c485b993	sltiu	x19,x11,-952	 x11:0xa6f6a000 x19=0x00000001
       56665000	      5665	800027d8	404905b3	sub	x11,x18,x4	 x18:0xffffff7f  x4:0xfffffff5 x11=0xffffff8a
       56675000	      5666	800027dc	032e6c63	bltu	x28,x18,80002814	 x28:0x00000001 x18:0xffffff7f
       56685000	      5667	00000000	00000013	addi	x0,x0,0	  x0:0x00000000
       56695000	      5668	80002810	00000013	addi	x0,x0,0	  x0:0x00000000
       56705000	      5669	80002814	01e8e1b3	or	x3,x17,x30	 x17:0x00000001 x30:0xe8687790  x3=0xe8687791
       56715000	      5670	80002818	d9f6a593	slti	x11,x13,-609	 x13:0x00000000 x11=0x00000000
       56725000	      5671	8000281c	04a58263	beq	x11,x10,80002860	 x11:0x00000000 x10:0x00000000
       56735000	      5672	00000000	00000013	addi	x0,x0,0	  x0:0x00000000
       56745000	      5673	8000285c	00000013	addi	x0,x0,0	  x0:0x00000000
       56755000	      5674	80002860	18a9ca93	xori	x21,x19,394	 x19:0x00000001 x21=0x0000018b
       56765000	      5675	80002864	029d7663	bgeu	x26,x9,80002890	 x26:0x00000000  x9:0x00000000
       56775000	      5676	00000000	00000013	addi	x0,x0,0	  x0:0x00000000
       56785000	      5677	8000288c	00000013	addi	x0,x0,0	  x0:0x00000000
       56795000	      5678	80002890	003449b3	xor	x19,x8,x3	  x8:0x00000001  x3:0xe8687791 x19=0xe8687790
       56805000	      5679	80002894	a7432c93	slti	x25,x6,-1420	  x6:0x00000001 x25=0x00000000
       56815000	      5680	80002898	f895ff37	lui	x30,0xf895f	 x30=0xf895f000
       56825000	      5681	8000289c	007734b3	sltu	x9,x14,x7	 x14:0x80009fc4  x7:0xe623aee0  x9=0x00000001
       56835000	      5682	800028a0	05a50463	beq	x10,x26,800028e8	 x10:0x00000000 x26:0x00000000
       56845000	      5683	00000000	00000013	addi	x0,x0,0	  x0:0x00000000
       56855000	      5684	800028e4	00000013	addi	x0,x0,0	  x0:0x00000000
       56865000	      5685	800028e8	404b5933	sra	x18,x22,x4	 x22:0x1b16fabe  x4:0xfffffff5 x18=0x000000d8
       56875000	      5686	800028ec	006d79b3	and	x19,x26,x6	 x26:0x00000000  x6:0x00000001 x19=0x00000000
       56885000	      5687	800028f0	41b20633	sub	x12,x4,x27	  x4:0xfffffff5 x27:0x00000000 x12=0xfffffff5
       56895000	      5688	800028f4	ef7db897	auipc	x17,0xef7db	 x17=0x6f7dd8f0
       56905000	      5689	800028f8	8ebcb613	sltiu	x12,x25,-1813	 x25:0x00000000 x12=0x00000001
       56915000	      5690	800028fc	01844a63	blt	x8,x24,80002910	  x8:0x00000001 x24:0x66231000
       56925000	      5691	00000000	00000013	addi	x0,x0,0	  x0:0x00000000
       56935000	      5692	8000290c	00000013	addi	x0,x0,0	  x0:0x00000000
       56945000	      5693	80002910	01774eb3	xor	x29,x14,x23	 x14:0x80009fc4 x23:0x00000000 x29=0x80009fc4
       56955000	      5694	80002914	007a95b3	sll	x11,x21,x7	 x21:0x0000018b  x7:0xe623aee0 x11=0x0000018b
       56965000	      5695	80002918	6c392413	slti	x8,x18,1731	 x18:0x000000d8  x8=0x00000001
       56975000	      5696	8000291c	001e8c33	add	x24,x29,x1	 x29:0x80009fc4  x1:0x00000000 x24=0x80009fc4
       56985000	      5697	80002920	2f804017	auipc	x0,0x2f804	
       56995000	      5698	80002924	2f0e7c93	andi	x25,x28,752	 x28:0x00000001 x25=0x00000000
       57005000	      5699	80002928	d9b7fc13	andi	x24,x15,-613	 x15:0x00000000 x24=0x00000000
       57015000	      5700	8000292c	014927b3	slt	x15,x18,x20	 x18:0x000000d8 x20:0xe4e90541 x15=0x00000000
       57025000	      5701	80002930	05087063	bgeu	x16,x16,80002970	 x16:0x00000000 x16:0x00000000
       57035000	      5702	00000000	00000013	addi	x0,x0,0	  x0:0x00000000
       57045000	      5703	8000296c	00000013	addi	x0,x0,0	  x0:0x00000000
       57055000	      5704	80002970	02256a63	bltu	x10,x2,800029a4	 x10:0x00000000  x2:0xe4e90541
       57065000	      5705	00000000	00000013	addi	x0,x0,0	  x0:0x00000000
       57075000	      5706	800029a0	00000013	addi	x0,x0,0	  x0:0x00000000
       57085000	      5707	800029a4	f01f6313	ori	x6,x30,-255	 x30:0xf895f000  x6=0xffffff01
       57095000	      5708	800029a8	ae757c93	andi	x25,x10,-1305	 x10:0x00000000 x25=0x00000000
       57105000	      5709	800029ac	6645bb13	sltiu	x22,x11,1636	 x11:0x0000018b x22=0x00000001
       57115000	      5710	800029b0	4029d8b3	sra	x17,x19,x2	 x19:0x00000000  x2:0xe4e90541 x17=0x00000000
       57125000	      5711	800029b4	014f7e63	bgeu	x30,x20,800029d0	 x30:0xf895f000 x20:0xe4e90541
       57135000	      5712	00000000	00000013	addi	x0,x0,0	  x0:0x00000000
       57145000	      5713	800029cc	00000013	addi	x0,x0,0	  x0:0x00000000
       57155000	      5714	800029d0	0188b033	sltu	x0,x17,x24	 x17:0x00000000 x24:0x00000000
       57165000	      5715	800029d4	40e2deb3	sra	x29,x5,x14	  x5:0x00000001 x14:0x80009fc4 x29=0x00000000
       57175000	      5716	800029d8	03519c63	bne	x3,x21,80002a10	  x3:0xe8687791 x21:0x0000018b
       57185000	      5717	00000000	00000013	addi	x0,x0,0	  x0:0x00000000
       57195000	      5718	80002a0c	00000013	addi	x0,x0,0	  x0:0x00000000
       57205000	      5719	80002a10	00bcfb33	and	x22,x25,x11	 x25:0x00000000 x11:0x0000018b x22=0x00000000
       57215000	      5720	80002a14	01fedd93	srli	x27,x29,0x1f	 x29:0x00000000 x27=0x00000000
       57225000	      5721	80002a18	00b93933	sltu	x18,x18,x11	 x18:0x000000d8 x11:0x0000018b x18=0x00000001
       57235000	      5722	80002a1c	90f6ee13	ori	x28,x13,-1777	 x13:0x00000000 x28=0xfffff90f
       57245000	      5723	80002a20	0199af33	slt	x30,x19,x25	 x19:0x00000000 x25:0x00000000 x30=0x00000000
       57255000	      5724	80002a24	6d9cdf37	lui	x30,0x6d9cd	 x30=0x6d9cd000
       57265000	      5725	80002a28	03a27463	bgeu	x4,x26,80002a50	  x4:0xfffffff5 x26:0x00000000
       57275000	      5726	00000000	00000013	addi	x0,x0,0	  x0:0x00000000
       57285000	      5727	80002a4c	00000013	addi	x0,x0,0	  x0:0x00000000
       57295000	      5728	80002a50	015d09b3	add	x19,x26,x21	 x26:0x00000000 x21:0x0000018b x19=0x0000018b
       57305000	      5729	80002a54	0332fd13	andi	x26,x5,51	  x5:0x00000001 x26=0x00000001
       57315000	      5730	80002a58	0b627293	andi	x5,x4,182	  x4:0xfffffff5  x5=0x000000b4
       57325000	      5731	80002a5c	578f3493	sltiu	x9,x30,1400	 x30:0x6d9cd000  x9=0x00000000
       57335000	      5732	80002a60	01ab8263	beq	x23,x26,80002a64	 x23:0x00000000 x26:0x00000001
       57345000	      5733	80002a64	01397db3	and	x27,x18,x19	 x18:0x00000001 x19:0x0000018b x27=0x00000001
       57355000	      5734	80002a68	01831d93	slli	x27,x6,0x18	  x6:0xffffff01 x27=0x01000000
       57365000	      5735	80002a6c	00000013	addi	x0,x0,0	  x0:0x00000000
       57375000	      5736	80002a70	00c21993	slli	x19,x4,0xc	  x4:0xfffffff5 x19=0xffff5000
       57385000	      5737	80002a74	41d1d793	srai	x15,x3,0x1d	  x3:0xe8687791 x15=0xffffffff
       57395000	      5738	80002a78	001c9333	sll	x6,x25,x1	 x25:0x00000000  x1:0x00000000  x6=0x00000000
       57405000	      5739	80002a7c	df3ea317	auipc	x6,0xdf3ea	  x6=0x5f3eca78
       57415000	      5740	80002a80	02cf1063	bne	x30,x12,80002aa0	 x30:0x6d9cd000 x12:0x00000001
       57425000	      5741	00000000	00000013	addi	x0,x0,0	  x0:0x00000000
       57435000	      5742	80002a9c	00000013	addi	x0,x0,0	  x0:0x00000000
       57445000	      5743	80002aa0	002d1cb3	sll	x25,x26,x2	 x26:0x00000001  x2:0xe4e90541 x25=0x00000002
       57455000	      5744	80002aa4	00006697	auipc	x13,0x6	 x13=0x80008aa0
       57465000	      5745	80002aa8	bfa68693	addi	x13,x13,-1030	 x13:0x80008aa0 x13=0x8000869a
       57475000	      5746	80002aac	0a968303	lb	x6,169(x13)	 x13:0x8000869a  x6=0xffffffaa PA:0x80008743
       57485000	      5747	80002ab0	f0e08993	addi	x19,x1,-242	  x1:0x00000000 x19=0xffffff0e
       57495000	      5748	80002ab4	414b0eb3	sub	x29,x22,x20	 x22:0x00000000 x20:0xe4e90541 x29=0x1b16fabf
       57505000	      5749	80002ab8	f576c903	lbu	x18,-169(x13)	 x13:0x8000869a x18=0x0000000e PA:0x800085f1
       57515000	      5750	80002abc	f4269623	sh	x2,-180(x13)	 x13:0x8000869a  x2:0xe4e90541 PA:0x800085e6
       57525000	      5751	80002ac0	f9a69b23	sh	x26,-106(x13)	 x13:0x8000869a x26:0x00000001 PA:0x80008630
       57535000	      5752	80002ac4	0ce6a283	lw	x5,206(x13)	 x13:0x8000869a  x5=0xf81de261 PA:0x80008768
       57545000	      5753	80002ac8	09669d03	lh	x26,150(x13)	 x13:0x8000869a x26=0xffffd200 PA:0x80008730
       57555000	      5754	80002acc	01c35893	srli	x17,x6,0x1c	  x6:0xffffffaa x17=0x0000000f
       57565000	      5755	80002ad0	00177333	and	x6,x14,x1	 x14:0x80009fc4  x1:0x00000000  x6=0x00000000
       57575000	      5756	80002ad4	f37685a3	sb	x23,-213(x13)	 x13:0x8000869a x23:0x00000000 PA:0x800085c5
       57585000	      5757	80002ad8	01d7d933	srl	x18,x15,x29	 x15:0xffffffff x29:0x1b16fabf x18=0x00000001
       57595000	      5758	80002adc	2651b893	sltiu	x17,x3,613	  x3:0xe8687791 x17=0x00000000
       57605000	      5759	80002ae0	001f5113	srli	x2,x30,0x1	 x30:0x6d9cd000  x2=0x36ce6800
       57615000	      5760	80002ae4	f5368ba3	sb	x19,-169(x13)	 x13:0x8000869a x19:0xffffff0e PA:0x800085f1
       57625000	      5761	80002ae8	01d29c33	sll	x24,x5,x29	  x5:0xf81de261 x29:0x1b16fabf x24=0x80000000
       57635000	      5762	80002aec	36baa617	auipc	x12,0x36baa	 x12=0xb6bacae8
       57645000	      5763	80002af0	95a7c413	xori	x8,x15,-1702	 x15:0xffffffff  x8=0x000006a5
       57655000	      5764	80002af4	fd76c403	lbu	x8,-41(x13)	 x13:0x8000869a  x8=0x000000dd PA:0x80008671
       57665000	      5765	80002af8	00481893	slli	x17,x16,0x4	 x16:0x00000000 x17=0x00000000
       57675000	      5766	80002afc	3b4ef113	andi	x2,x29,948	 x29:0x1b16fabf  x2=0x000002b4
       57685000	      5767	80002b00	0178bb33	sltu	x22,x17,x23	 x17:0x00000000 x23:0x00000000 x22=0x00000000
       57695000	      5768	80002b04	0846cb03	lbu	x22,132(x13)	 x13:0x8000869a x22=0x0000009d PA:0x8000871e
       57705000	      5769	80002b08	00879433	sll	x8,x15,x8	 x15:0xffffffff  x8:0x000000dd  x8=0xe0000000
       57715000	      5770	80002b0c	00e68fa3	sb	x14,31(x13)	 x13:0x8000869a x14:0x80009fc4 PA:0x800086b9
       57725000	      5771	80002b10	58fee493	ori	x9,x29,1423	 x29:0x1b16fabf  x9=0x1b16ffbf
       57735000	      5772	80002b14	f7e68983	lb	x19,-130(x13)	 x13:0x8000869a x19=0xffffffd8 PA:0x80008618
       57745000	      5773	80002b18	d1f47793	andi	x15,x8,-737	  x8:0xe0000000 x15=0xe0000000
       57755000	      5774	80002b1c	0099b433	sltu	x8,x19,x9	 x19:0xffffffd8  x9:0x1b16ffbf  x8=0x00000000
       57765000	      5775	80002b20	7e6bbb93	sltiu	x23,x23,2022	 x23:0x00000000 x23=0x00000001
       57775000	      5776	80002b24	0126c583	lbu	x11,18(x13)	 x13:0x8000869a x11=0x00000010 PA:0x800086ac
       57785000	      5777	80002b28	f3b68003	lb	x0,-197(x13)	 x13:0x8000869a PA:0x800085d5
       57795000	      5778	80002b2c	00715993	srli	x19,x2,0x7	  x2:0x000002b4 x19=0x00000005
       57805000	      5779	80002b30	0286dc83	lhu	x25,40(x13)	 x13:0x8000869a x25=0x00002fcd PA:0x800086c2
       57815000	      5780	80002b34	43ce0593	addi	x11,x28,1084	 x28:0xfffff90f x11=0xfffffd4b
       57825000	      5781	80002b38	06a68903	lb	x18,106(x13)	 x13:0x8000869a x18=0x00000047 PA:0x80008704
       57835000	      5782	80002b3c	04a68b83	lb	x23,74(x13)	 x13:0x8000869a x23=0xffffffae PA:0x800086e4
       57845000	      5783	80002b40	fa268623	sb	x2,-84(x13)	 x13:0x8000869a  x2:0x000002b4 PA:0x80008646
       57855000	      5784	80002b44	01b560b3	or	x1,x10,x27	 x10:0x00000000 x27:0x01000000  x1=0x01000000
       57865000	      5785	80002b48	f526ab83	lw	x23,-174(x13)	 x13:0x8000869a x23=0x799f0051 PA:0x800085ec
       57875000	      5786	80002b4c	f2b6c183	lbu	x3,-213(x13)	 x13:0x8000869a  x3=0x00000000 PA:0x800085c5
       57885000	      5787	80002b50	40aadf33	sra	x30,x21,x10	 x21:0x0000018b x10:0x00000000 x30=0x0000018b
       57895000	      5788	80002b54	0b168603	lb	x12,177(x13)	 x13:0x8000869a x12=0x00000035 PA:0x8000874b
       57905000	      5789	80002b58	985c7993	andi	x19,x24,-1659	 x24:0x80000000 x19=0x80000000
       57915000	      5790	80002b5c	000837b3	sltu	x15,x16,x0	 x16:0x00000000  x0:0x00000000 x15=0x00000000
       57925000	      5791	80002b60	00c18533	add	x10,x3,x12	  x3:0x00000000 x12:0x00000035 x10=0x00000035
       57935000	      5792	80002b64	01ddaeb3	slt	x29,x27,x29	 x27:0x01000000 x29:0x1b16fabf x29=0x00000001
       57945000	      5793	80002b68	5f246593	ori	x11,x8,1522	  x8:0x00000000 x11=0x000005f2
       57955000	      5794	80002b6c	018c9313	slli	x6,x25,0x18	 x25:0x00002fcd  x6=0xcd000000
       57965000	      5795	80002b70	402b5593	srai	x11,x22,0x2	 x22:0x0000009d x11=0x00000027
       57975000	      5796	80002b74	00d533b3	sltu	x7,x10,x13	 x10:0x00000035 x13:0x8000869a  x7=0x00000001
       57985000	      5797	80002b78	004b9693	slli	x13,x23,0x4	 x23:0x799f0051 x13=0x99f00510
       57995000	      5798	80002b7c	ebe47393	andi	x7,x8,-322	  x8:0x00000000  x7=0x00000000
       58005000	      5799	80002b80	004bb933	sltu	x18,x23,x4	 x23:0x799f0051  x4:0xfffffff5 x18=0x00000001
       58015000	      5800	80002b84	c2a94a93	xori	x21,x18,-982	 x18:0x00000001 x21=0xfffffc2b
       58025000	      5801	80002b88	0c35b513	sltiu	x10,x11,195	 x11:0x00000027 x10=0x00000001
       58035000	      5802	80002b8c	d502ad93	slti	x27,x5,-688	  x5:0xf81de261 x27=0x00000001
       58045000	      5803	80002b90	00db9613	slli	x12,x23,0xd	 x23:0x799f0051 x12=0xe00a2000
       58055000	      5804	80002b94	007a5e33	srl	x28,x20,x7	 x20:0xe4e90541  x7:0x00000000 x28=0xe4e90541
       58065000	      5805	80002b98	00b59c63	bne	x11,x11,80002bb0	 x11:0x00000027 x11:0x00000027
       58075000	      5806	80002b9c	04e21063	bne	x4,x14,80002bdc	  x4:0xfffffff5 x14:0x80009fc4
       58085000	      5807	00000000	00000013	addi	x0,x0,0	  x0:0x00000000
       58095000	      5808	80002bd8	00000013	addi	x0,x0,0	  x0:0x00000000
       58105000	      5809	80002bdc	47917113	andi	x2,x2,1145	  x2:0x000002b4  x2=0x00000030
       58115000	      5810	80002be0	01f56e63	bltu	x10,x31,80002bfc	 x10:0x00000001 x31:0x80009ee0
       58125000	      5811	00000000	00000013	addi	x0,x0,0	  x0:0x00000000
       58135000	      5812	80002bf8	00000013	addi	x0,x0,0	  x0:0x00000000
       58145000	      5813	80002bfc	003c3133	sltu	x2,x24,x3	 x24:0x80000000  x3:0x00000000  x2=0x00000000
       58155000	      5814	80002c00	05bcd063	bge	x25,x27,80002c40	 x25:0x00002fcd x27:0x00000001
       58165000	      5815	00000000	00000013	addi	x0,x0,0	  x0:0x00000000
       58175000	      5816	80002c3c	00000013	addi	x0,x0,0	  x0:0x00000000
       58185000	      5817	80002c40	a3ea8413	addi	x8,x21,-1474	 x21:0xfffffc2b  x8=0xfffff669
       58195000	      5818	80002c44	02f81663	bne	x16,x15,80002c70	 x16:0x00000000 x15:0x00000000
       58205000	      5819	80002c48	7dda7b37	lui	x22,0x7dda7	 x22=0x7dda7000
       58215000	      5820	80002c4c	00001b13	slli	x22,x0,0x0	  x0:0x00000000 x22=0x00000000
       58225000	      5821	80002c50	01aa83b3	add	x7,x21,x26	 x21:0xfffffc2b x26:0xffffd200  x7=0xffffce2b
       58235000	      5822	80002c54	00a13cb3	sltu	x25,x2,x10	  x2:0x00000000 x10:0x00000001 x25=0x00000001
       58245000	      5823	80002c58	f2bed4b7	lui	x9,0xf2bed	  x9=0xf2bed000
       58255000	      5824	80002c5c	00fc61b3	or	x3,x24,x15	 x24:0x80000000 x15:0x00000000  x3=0x80000000
       58265000	      5825	80002c60	00d5f2b3	and	x5,x11,x13	 x11:0x00000027 x13:0x99f00510  x5=0x00000000
       58275000	      5826	80002c64	002b3333	sltu	x6,x22,x2	 x22:0x00000000  x2:0x00000000  x6=0x00000000
       58285000	      5827	80002c68	00145293	srli	x5,x8,0x1	  x8:0xfffff669  x5=0x7ffffb34
       58295000	      5828	80002c6c	01f1cd33	xor	x26,x3,x31	  x3:0x80000000 x31:0x80009ee0 x26=0x00009ee0
       58305000	      5829	80002c70	a64fe913	ori	x18,x31,-1436	 x31:0x80009ee0 x18=0xfffffee4
       58315000	      5830	80002c74	0470d263	bge	x1,x7,80002cb8	  x1:0x01000000  x7:0xffffce2b
       58325000	      5831	00000000	00000013	addi	x0,x0,0	  x0:0x00000000
       58335000	      5832	80002cb4	00000013	addi	x0,x0,0	  x0:0x00000000
       58345000	      5833	80002cb8	40990533	sub	x10,x18,x9	 x18:0xfffffee4  x9:0xf2bed000 x10=0x0d412ee4
       58355000	      5834	80002cbc	03aa8493	addi	x9,x21,58	 x21:0xfffffc2b  x9=0xfffffc65
       58365000	      5835	80002cc0	f7931117	auipc	x2,0xf7931	  x2=0x77933cbc
       58375000	      5836	80002cc4	0044c663	blt	x9,x4,80002cd0	  x9:0xfffffc65  x4:0xfffffff5
       58385000	      5837	00000000	00000013	addi	x0,x0,0	  x0:0x00000000
       58395000	      5838	80002ccc	00000013	addi	x0,x0,0	  x0:0x00000000
       58405000	      5839	80002cd0	01344d33	xor	x26,x8,x19	  x8:0xfffff669 x19:0x80000000 x26=0x7ffff669
       58415000	      5840	80002cd4	0f751a63	bne	x10,x23,80002dc8	 x10:0x0d412ee4 x23:0x799f0051
       58425000	      5841	00000000	00000013	addi	x0,x0,0	  x0:0x00000000
       58435000	      5842	80002dc4	00000013	addi	x0,x0,0	  x0:0x00000000
       58445000	      5843	80002dc8	00a5ce63	blt	x11,x10,80002de4	 x11:0x00000027 x10:0x0d412ee4
       58455000	      5844	00000000	00000013	addi	x0,x0,0	  x0:0x00000000
       58465000	      5845	80002de0	00000013	addi	x0,x0,0	  x0:0x00000000
       58475000	      5846	80002de4	00687833	and	x16,x16,x6	 x16:0x00000000  x6:0x00000000 x16=0x00000000
       58485000	      5847	80002de8	1a6cfe13	andi	x28,x25,422	 x25:0x00000001 x28=0x00000000
       58495000	      5848	80002dec	00000013	addi	x0,x0,0	  x0:0x00000000
       58505000	      5849	80002df0	40b98933	sub	x18,x19,x11	 x19:0x80000000 x11:0x00000027 x18=0x7fffffd9
       58515000	      5850	80002df4	41448333	sub	x6,x9,x20	  x9:0xfffffc65 x20:0xe4e90541  x6=0x1b16f724
       58525000	      5851	80002df8	0145b6b3	sltu	x13,x11,x20	 x11:0x00000027 x20:0xe4e90541 x13=0x00000001
       58535000	      5852	80002dfc	0013ccb3	xor	x25,x7,x1	  x7:0xffffce2b  x1:0x01000000 x25=0xfeffce2b
       58545000	      5853	80002e00	403b59b3	sra	x19,x22,x3	 x22:0x00000000  x3:0x80000000 x19=0x00000000
       58555000	      5854	80002e04	e6b18c13	addi	x24,x3,-405	  x3:0x80000000 x24=0x7ffffe6b
       58565000	      5855	80002e08	00510e63	beq	x2,x5,80002e24	  x2:0x77933cbc  x5:0x7ffffb34
       58575000	      5856	80002e0c	00000013	addi	x0,x0,0	  x0:0x00000000
       58585000	      5857	80002e10	40c35c13	srai	x24,x6,0xc	  x6:0x1b16f724 x24=0x0001b16f
       58595000	      5858	80002e14	d35da013	slti	x0,x27,-715	 x27:0x00000001
       58605000	      5859	80002e18	3ef36097	auipc	x1,0x3ef36	  x1=0xbef38e14
       58615000	      5860	80002e1c	aae8b337	lui	x6,0xaae8b	  x6=0xaae8b000
       58625000	      5861	80002e20	01cb1633	sll	x12,x22,x28	 x22:0x00000000 x28:0x00000000 x12=0x00000000
       58635000	      5862	80002e24	040b7863	bgeu	x22,x0,80002e74	 x22:0x00000000  x0:0x00000000
       58645000	      5863	00000000	00000013	addi	x0,x0,0	  x0:0x00000000
       58655000	      5864	80002e70	00000013	addi	x0,x0,0	  x0:0x00000000
       58665000	      5865	80002e74	03e1ea63	bltu	x3,x30,80002ea8	  x3:0x80000000 x30:0x0000018b
       58675000	      5866	80002e78	00c67233	and	x4,x12,x12	 x12:0x00000000 x12:0x00000000  x4=0x00000000
       58685000	      5867	80002e7c	01b948b3	xor	x17,x18,x27	 x18:0x7fffffd9 x27:0x00000001 x17=0x7fffffd8
       58695000	      5868	80002e80	0152e833	or	x16,x5,x21	  x5:0x7ffffb34 x21:0xfffffc2b x16=0xffffff3f
       58705000	      5869	80002e84	4f520693	addi	x13,x4,1269	  x4:0x00000000 x13=0x000004f5
       58715000	      5870	80002e88	2730bab7	lui	x21,0x2730b	 x21=0x2730b000
       58725000	      5871	80002e8c	416f0eb3	sub	x29,x30,x22	 x30:0x0000018b x22:0x00000000 x29=0x0000018b
       58735000	      5872	80002e90	001b7833	and	x16,x22,x1	 x22:0x00000000  x1:0xbef38e14 x16=0x00000000
       58745000	      5873	80002e94	004cdab3	srl	x21,x25,x4	 x25:0xfeffce2b  x4:0x00000000 x21=0xfeffce2b
       58755000	      5874	80002e98	04eef463	bgeu	x29,x14,80002ee0	 x29:0x0000018b x14:0x80009fc4
       58765000	      5875	80002e9c	01fc9313	slli	x6,x25,0x1f	 x25:0xfeffce2b  x6=0x80000000
       58775000	      5876	80002ea0	041d0063	beq	x26,x1,80002ee0	 x26:0x7ffff669  x1:0xbef38e14
       58785000	      5877	80002ea4	a901b493	sltiu	x9,x3,-1392	  x3:0x80000000  x9=0x00000001
       58795000	      5878	80002ea8	013898b3	sll	x17,x17,x19	 x17:0x7fffffd8 x19:0x00000000 x17=0x7fffffd8
       58805000	      5879	80002eac	00aa5f13	srli	x30,x20,0xa	 x20:0xe4e90541 x30=0x00393a41
       58815000	      5880	80002eb0	0342ec63	bltu	x5,x20,80002ee8	  x5:0x7ffffb34 x20:0xe4e90541
       58825000	      5881	00000000	00000013	addi	x0,x0,0	  x0:0x00000000
       58835000	      5882	80002ee4	00000013	addi	x0,x0,0	  x0:0x00000000
       58845000	      5883	80002ee8	008c9263	bne	x25,x8,80002eec	 x25:0xfeffce2b  x8:0xfffff669
       58855000	      5884	00000000	00000013	addi	x0,x0,0	  x0:0x00000000
       58865000	      5885	80002ee8	00000013	addi	x0,x0,0	  x0:0x00000000
       58875000	      5886	80002eec	75f97413	andi	x8,x18,1887	 x18:0x7fffffd9  x8=0x00000759
       58885000	      5887	80002ef0	bc34fe13	andi	x28,x9,-1085	  x9:0x00000001 x28=0x00000001
       58895000	      5888	80002ef4	00827633	and	x12,x4,x8	  x4:0x00000000  x8:0x00000759 x12=0x00000000
       58905000	      5889	80002ef8	01105d33	srl	x26,x0,x17	  x0:0x00000000 x17:0x7fffffd8 x26=0x00000000
       58915000	      5890	80002efc	01f7b033	sltu	x0,x15,x31	 x15:0x00000000 x31:0x80009ee0
       58925000	      5891	80002f00	01c1f333	and	x6,x3,x28	  x3:0x80000000 x28:0x00000001  x6=0x00000000
       58935000	      5892	80002f04	40a4d093	srai	x1,x9,0xa	  x9:0x00000001  x1=0x00000000
       58945000	      5893	80002f08	05eb7863	bgeu	x22,x30,80002f58	 x22:0x00000000 x30:0x00393a41
       58955000	      5894	80002f0c	41180933	sub	x18,x16,x17	 x16:0x00000000 x17:0x7fffffd8 x18=0x80000028
       58965000	      5895	80002f10	00b8edb3	or	x27,x17,x11	 x17:0x7fffffd8 x11:0x00000027 x27=0x7fffffff
       58975000	      5896	80002f14	325bc413	xori	x8,x23,805	 x23:0x799f0051  x8=0x799f0374
       58985000	      5897	80002f18	73547513	andi	x10,x8,1845	  x8:0x799f0374 x10=0x00000334
       58995000	      5898	80002f1c	002e8633	add	x12,x29,x2	 x29:0x0000018b  x2:0x77933cbc x12=0x77933e47
       59005000	      5899	80002f20	00000013	addi	x0,x0,0	  x0:0x00000000
       59015000	      5900	80002f24	03f3ca63	blt	x7,x31,80002f58	  x7:0xffffce2b x31:0x80009ee0
       59025000	      5901	80002f28	acbe4793	xori	x15,x28,-1333	 x28:0x00000001 x15=0xfffffaca
       59035000	      5902	80002f2c	41188433	sub	x8,x17,x17	 x17:0x7fffffd8 x17:0x7fffffd8  x8=0x00000000
       59045000	      5903	80002f30	00b934b3	sltu	x9,x18,x11	 x18:0x80000028 x11:0x00000027  x9=0x00000000
       59055000	      5904	80002f34	01875c33	srl	x24,x14,x24	 x14:0x80009fc4 x24:0x0001b16f x24=0x00010001
       59065000	      5905	80002f38	609ffd93	andi	x27,x31,1545	 x31:0x80009ee0 x27=0x00000600
       59075000	      5906	80002f3c	406585b3	sub	x11,x11,x6	 x11:0x00000027  x6:0x00000000 x11=0x00000027
       59085000	      5907	80002f40	01a05463	bge	x0,x26,80002f48	  x0:0x00000000 x26:0x00000000
       59095000	      5908	00000000	00000013	addi	x0,x0,0	  x0:0x00000000
       59105000	      5909	80002f44	00000013	addi	x0,x0,0	  x0:0x00000000
       59115000	      5910	80002f48	05410863	beq	x2,x20,80002f98	  x2:0x77933cbc x20:0xe4e90541
       59125000	      5911	80002f4c	008bfe63	bgeu	x23,x8,80002f68	 x23:0x799f0051  x8:0x00000000
       59135000	      5912	00000000	00000013	addi	x0,x0,0	  x0:0x00000000
       59145000	      5913	80002f64	00000013	addi	x0,x0,0	  x0:0x00000000
       59155000	      5914	80002f68	05a4d463	bge	x9,x26,80002fb0	  x9:0x00000000 x26:0x00000000
       59165000	      5915	00000000	00000013	addi	x0,x0,0	  x0:0x00000000
       59175000	      5916	80002fac	00000013	addi	x0,x0,0	  x0:0x00000000
       59185000	      5917	80002fb0	00f3be33	sltu	x28,x7,x15	  x7:0xffffce2b x15:0xfffffaca x28=0x00000001
       59195000	      5918	80002fb4	a7bcb617	auipc	x12,0xa7bcb	 x12=0x27bcdfb0
       59205000	      5919	80002fb8	00771663	bne	x14,x7,80002fc4	 x14:0x80009fc4  x7:0xffffce2b
       59215000	      5920	00000000	00000013	addi	x0,x0,0	  x0:0x00000000
       59225000	      5921	80002fc0	00000013	addi	x0,x0,0	  x0:0x00000000
       59235000	      5922	80002fc4	006f4f33	xor	x30,x30,x6	 x30:0x00393a41  x6:0x00000000 x30=0x00393a41
       59245000	      5923	80002fc8	00998c33	add	x24,x19,x9	 x19:0x00000000  x9:0x00000000 x24=0x00000000
       59255000	      5924	80002fcc	00000013	addi	x0,x0,0	  x0:0x00000000
       59265000	      5925	80002fd0	cf3201b7	lui	x3,0xcf320	  x3=0xcf320000
       59275000	      5926	80002fd4	00cd2633	slt	x12,x26,x12	 x26:0x00000000 x12:0x27bcdfb0 x12=0x00000001
       59285000	      5927	80002fd8	013dd393	srli	x7,x27,0x13	 x27:0x00000600  x7=0x00000000
       59295000	      5928	80002fdc	0092eb33	or	x22,x5,x9	  x5:0x7ffffb34  x9:0x00000000 x22=0x7ffffb34
       59305000	      5929	80002fe0	014f7db3	and	x27,x30,x20	 x30:0x00393a41 x20:0xe4e90541 x27=0x00290041
       59315000	      5930	80002fe4	00e405b3	add	x11,x8,x14	  x8:0x00000000 x14:0x80009fc4 x11=0x80009fc4
       59325000	      5931	80002fe8	00eace63	blt	x21,x14,80003004	 x21:0xfeffce2b x14:0x80009fc4
       59335000	      5932	80002fec	0433d063	bge	x7,x3,8000302c	  x7:0x00000000  x3:0xcf320000
       59345000	      5933	00000000	00000013	addi	x0,x0,0	  x0:0x00000000
       59355000	      5934	80003028	00000013	addi	x0,x0,0	  x0:0x00000000
       59365000	      5935	8000302c	27d08113	addi	x2,x1,637	  x1:0x00000000  x2=0x0000027d
       59375000	      5936	80003030	0204e263	bltu	x9,x0,80003054	  x9:0x00000000  x0:0x00000000
       59385000	      5937	80003034	db2ec413	xori	x8,x29,-590	 x29:0x0000018b  x8=0xfffffc39
       59395000	      5938	80003038	40c15033	sra	x0,x2,x12	  x2:0x0000027d x12:0x00000001
       59405000	      5939	8000303c	4183d9b3	sra	x19,x7,x24	  x7:0x00000000 x24:0x00000000 x19=0x00000000
       59415000	      5940	80003040	01d3fab3	and	x21,x7,x29	  x7:0x00000000 x29:0x0000018b x21=0x00000000
       59425000	      5941	80003044	8fa04193	xori	x3,x0,-1798	  x0:0x00000000  x3=0xfffff8fa
       59435000	      5942	80003048	00000013	addi	x0,x0,0	  x0:0x00000000
       59445000	      5943	8000304c	0087bc33	sltu	x24,x15,x8	 x15:0xfffffaca  x8:0xfffffc39 x24=0x00000001
       59455000	      5944	80003050	eabd3c13	sltiu	x24,x26,-341	 x26:0x00000000 x24=0x00000001
       59465000	      5945	80003054	01e37d33	and	x26,x6,x30	  x6:0x00000000 x30:0x00393a41 x26=0x00000000
       59475000	      5946	80003058	41755893	srai	x17,x10,0x17	 x10:0x00000334 x17=0x00000000
       59485000	      5947	8000305c	00d4cc63	blt	x9,x13,80003074	  x9:0x00000000 x13:0x000004f5
       59495000	      5948	00000000	00000013	addi	x0,x0,0	  x0:0x00000000
       59505000	      5949	80003070	00000013	addi	x0,x0,0	  x0:0x00000000
       59515000	      5950	80003074	01f0b4b3	sltu	x9,x1,x31	  x1:0x00000000 x31:0x80009ee0  x9=0x00000001
       59525000	      5951	80003078	0095a233	slt	x4,x11,x9	 x11:0x80009fc4  x9:0x00000001  x4=0x00000001
       59535000	      5952	8000307c	0066ca63	blt	x13,x6,80003090	 x13:0x000004f5  x6:0x00000000
       59545000	      5953	80003080	017a8433	add	x8,x21,x23	 x21:0x00000000 x23:0x799f0051  x8=0x799f0051
       59555000	      5954	80003084	01b8c4b3	xor	x9,x17,x27	 x17:0x00000000 x27:0x00290041  x9=0x00290041
       59565000	      5955	80003088	007614b3	sll	x9,x12,x7	 x12:0x00000001  x7:0x00000000  x9=0x00000001
       59575000	      5956	8000308c	01b525b3	slt	x11,x10,x27	 x10:0x00000334 x27:0x00290041 x11=0x00000001
       59585000	      5957	80003090	00ab4f33	xor	x30,x22,x10	 x22:0x7ffffb34 x10:0x00000334 x30=0x7ffff800
       59595000	      5958	80003094	02b0e663	bltu	x1,x11,800030c0	  x1:0x00000000 x11:0x00000001
       59605000	      5959	00000000	00000013	addi	x0,x0,0	  x0:0x00000000
       59615000	      5960	800030bc	00000013	addi	x0,x0,0	  x0:0x00000000
       59625000	      5961	800030c0	01d89263	bne	x17,x29,800030c4	 x17:0x00000000 x29:0x0000018b
       59635000	      5962	00000000	00000013	addi	x0,x0,0	  x0:0x00000000
       59645000	      5963	800030c0	00000013	addi	x0,x0,0	  x0:0x00000000
       59655000	      5964	800030c4	4160df13	srai	x30,x1,0x16	  x1:0x00000000 x30=0x00000000
       59665000	      5965	800030c8	01218e63	beq	x3,x18,800030e4	  x3:0xfffff8fa x18:0x80000028
       59675000	      5966	800030cc	00000013	addi	x0,x0,0	  x0:0x00000000
       59685000	      5967	800030d0	e1ffb513	sltiu	x10,x31,-481	 x31:0x80009ee0 x10=0x00000001
       59695000	      5968	800030d4	6b27fb97	auipc	x23,0x6b27f	 x23=0xeb2820d0
       59705000	      5969	800030d8	014cee63	bltu	x25,x20,800030f4	 x25:0xfeffce2b x20:0xe4e90541
       59715000	      5970	800030dc	23772813	slti	x16,x14,567	 x14:0x80009fc4 x16=0x00000001
       59725000	      5971	800030e0	6adc8613	addi	x12,x25,1709	 x25:0xfeffce2b x12=0xfeffd4d8
       59735000	      5972	800030e4	00b246b3	xor	x13,x4,x11	  x4:0x00000001 x11:0x00000001 x13=0x00000000
       59745000	      5973	800030e8	00e8adb3	slt	x27,x17,x14	 x17:0x00000000 x14:0x80009fc4 x27=0x00000000
       59755000	      5974	800030ec	01bcd193	srli	x3,x25,0x1b	 x25:0xfeffce2b  x3=0x0000001f
       59765000	      5975	800030f0	0053d933	srl	x18,x7,x5	  x7:0x00000000  x5:0x7ffffb34 x18=0x00000000
       59775000	      5976	800030f4	01261e33	sll	x28,x12,x18	 x12:0xfeffd4d8 x18:0x00000000 x28=0xfeffd4d8
       59785000	      5977	800030f8	7cf82493	slti	x9,x16,1999	 x16:0x00000001  x9=0x00000001
       59795000	      5978	800030fc	79cc8b93	addi	x23,x25,1948	 x25:0xfeffce2b x23=0xfeffd5c7
       59805000	      5979	80003100	04e80463	beq	x16,x14,80003148	 x16:0x00000001 x14:0x80009fc4
       59815000	      5980	80003104	00433c33	sltu	x24,x6,x4	  x6:0x00000000  x4:0x00000001 x24=0x00000001
       59825000	      5981	80003108	00a9d993	srli	x19,x19,0xa	 x19:0x00000000 x19=0x00000000
       59835000	      5982	8000310c	00000013	addi	x0,x0,0	  x0:0x00000000
       59845000	      5983	80003110	00b24263	blt	x4,x11,80003114	  x4:0x00000001 x11:0x00000001
       59855000	      5984	80003114	00a2b033	sltu	x0,x5,x10	  x5:0x7ffffb34 x10:0x00000001
       59865000	      5985	80003118	01ef5a63	bge	x30,x30,8000312c	 x30:0x00000000 x30:0x00000000
       59875000	      5986	00000000	00000013	addi	x0,x0,0	  x0:0x00000000
       59885000	      5987	80003128	00000013	addi	x0,x0,0	  x0:0x00000000
       59895000	      5988	8000312c	01d987b3	add	x15,x19,x29	 x19:0x00000000 x29:0x0000018b x15=0x0000018b
       59905000	      5989	80003130	db77c017	auipc	x0,0xdb77c	
       59915000	      5990	80003134	397b4917	auipc	x18,0x397b4	 x18=0xb97b7130
       59925000	      5991	80003138	012e9e63	bne	x29,x18,80003154	 x29:0x0000018b x18:0xb97b7130
       59935000	      5992	00000000	00000013	addi	x0,x0,0	  x0:0x00000000
       59945000	      5993	80003150	00000013	addi	x0,x0,0	  x0:0x00000000
       59955000	      5994	80003154	519a0813	addi	x16,x20,1305	 x20:0xe4e90541 x16=0xe4e90a5a
       59965000	      5995	80003158	32c08993	addi	x19,x1,812	  x1:0x00000000 x19=0x0000032c
       59975000	      5996	8000315c	05e8e063	bltu	x17,x30,8000319c	 x17:0x00000000 x30:0x00000000
       59985000	      5997	80003160	310fb293	sltiu	x5,x31,784	 x31:0x80009ee0  x5=0x00000000
       59995000	      5998	80003164	0007de93	srli	x29,x15,0x0	 x15:0x0000018b x29=0x0000018b
       60005000	      5999	80003168	84620c17	auipc	x24,0x84620	 x24=0x04623164
       60015000	      6000	8000316c	016be033	or	x0,x23,x22	 x23:0xfeffd5c7 x22:0x7ffffb34
       60025000	      6001	80003170	00329b93	slli	x23,x5,0x3	  x5:0x00000000 x23=0x00000000
       60035000	      6002	80003174	04cbc063	blt	x23,x12,800031b4	 x23:0x00000000 x12:0xfeffd4d8
       60045000	      6003	80003178	99ee4a93	xori	x21,x28,-1634	 x28:0xfeffd4d8 x21=0x01002d46
       60055000	      6004	8000317c	0169d233	srl	x4,x19,x22	 x19:0x0000032c x22:0x7ffffb34  x4=0x00000000
       60065000	      6005	80003180	0172d2b3	srl	x5,x5,x23	  x5:0x00000000 x23:0x00000000  x5=0x00000000
       60075000	      6006	80003184	41c7dab3	sra	x21,x15,x28	 x15:0x0000018b x28:0xfeffd4d8 x21=0x00000000
       60085000	      6007	80003188	005dd4b3	srl	x9,x27,x5	 x27:0x00000000  x5:0x00000000  x9=0x00000000
       60095000	      6008	8000318c	5b34a613	slti	x12,x9,1459	  x9:0x00000000 x12=0x00000001
       60105000	      6009	80003190	01eb4bb3	xor	x23,x22,x30	 x22:0x7ffffb34 x30:0x00000000 x23=0x7ffffb34
       60115000	      6010	80003194	4106de33	sra	x28,x13,x16	 x13:0x00000000 x16:0xe4e90a5a x28=0x00000000
       60125000	      6011	80003198	0011f5b3	and	x11,x3,x1	  x3:0x0000001f  x1:0x00000000 x11=0x00000000
       60135000	      6012	8000319c	003c97b3	sll	x15,x25,x3	 x25:0xfeffce2b  x3:0x0000001f x15=0x80000000
       60145000	      6013	800031a0	4211f493	andi	x9,x3,1057	  x3:0x0000001f  x9=0x00000001
       60155000	      6014	800031a4	05671063	bne	x14,x22,800031e4	 x14:0x80009fc4 x22:0x7ffffb34
       60165000	      6015	00000000	00000013	addi	x0,x0,0	  x0:0x00000000
       60175000	      6016	800031e0	00000013	addi	x0,x0,0	  x0:0x00000000
       60185000	      6017	800031e4	406ed3b3	sra	x7,x29,x6	 x29:0x0000018b  x6:0x00000000  x7=0x0000018b
       60195000	      6018	800031e8	197ac197	auipc	x3,0x197ac	  x3=0x997af1e4
       60205000	      6019	800031ec	015c9b13	slli	x22,x25,0x15	 x25:0xfeffce2b x22=0xc5600000
       60215000	      6020	800031f0	00000013	addi	x0,x0,0	  x0:0x00000000
       60225000	      6021	800031f4	00133933	sltu	x18,x6,x1	  x6:0x00000000  x1:0x00000000 x18=0x00000000
       60235000	      6022	800031f8	040f0263	beq	x30,x0,8000323c	 x30:0x00000000  x0:0x00000000
       60245000	      6023	00000000	00000013	addi	x0,x0,0	  x0:0x00000000
       60255000	      6024	80003238	00000013	addi	x0,x0,0	  x0:0x00000000
       60265000	      6025	8000323c	00000013	addi	x0,x0,0	  x0:0x00000000
       60275000	      6026	80003240	0151cc63	blt	x3,x21,80003258	  x3:0x997af1e4 x21:0x00000000
       60285000	      6027	00000000	00000013	addi	x0,x0,0	  x0:0x00000000
       60295000	      6028	80003254	00000013	addi	x0,x0,0	  x0:0x00000000
       60305000	      6029	80003258	04575263	bge	x14,x5,8000329c	 x14:0x80009fc4  x5:0x00000000
       60315000	      6030	8000325c	01e9f633	and	x12,x19,x30	 x19:0x0000032c x30:0x00000000 x12=0x00000000
       60325000	      6031	80003260	01d25463	bge	x4,x29,80003268	  x4:0x00000000 x29:0x0000018b
       60335000	      6032	80003264	0167d663	bge	x15,x22,80003270	 x15:0x80000000 x22:0xc5600000
       60345000	      6033	80003268	04f6f863	bgeu	x13,x15,800032b8	 x13:0x00000000 x15:0x80000000
       60355000	      6034	8000326c	013602b3	add	x5,x12,x19	 x12:0x00000000 x19:0x0000032c  x5=0x0000032c
       60365000	      6035	80003270	01018c33	add	x24,x3,x16	  x3:0x997af1e4 x16:0xe4e90a5a x24=0x7e63fc3e
       60375000	      6036	80003274	41565533	sra	x10,x12,x21	 x12:0x00000000 x21:0x00000000 x10=0x00000000
       60385000	      6037	80003278	0199c9b3	xor	x19,x19,x25	 x19:0x0000032c x25:0xfeffce2b x19=0xfeffcd07
       60395000	      6038	8000327c	00fae633	or	x12,x21,x15	 x21:0x00000000 x15:0x80000000 x12=0x80000000
       60405000	      6039	80003280	11870293	addi	x5,x14,280	 x14:0x80009fc4  x5=0x8000a0dc
       60415000	      6040	80003284	00000013	addi	x0,x0,0	  x0:0x00000000
       60425000	      6041	80003288	8448c293	xori	x5,x17,-1980	 x17:0x00000000  x5=0xfffff844
       60435000	      6042	8000328c	016aa233	slt	x4,x21,x22	 x21:0x00000000 x22:0xc5600000  x4=0x00000000
       60445000	      6043	80003290	00a557b3	srl	x15,x10,x10	 x10:0x00000000 x10:0x00000000 x15=0x00000000
       60455000	      6044	80003294	00d84663	blt	x16,x13,800032a0	 x16:0xe4e90a5a x13:0x00000000
       60465000	      6045	00000000	00000013	addi	x0,x0,0	  x0:0x00000000
       60475000	      6046	8000329c	00000013	addi	x0,x0,0	  x0:0x00000000
       60485000	      6047	800032a0	01462433	slt	x8,x12,x20	 x12:0x80000000 x20:0xe4e90541  x8=0x00000001
       60495000	      6048	800032a4	415e5633	sra	x12,x28,x21	 x28:0x00000000 x21:0x00000000 x12=0x00000000
       60505000	      6049	800032a8	4ddae217	auipc	x4,0x4ddae	  x4=0xcddb12a4
       60515000	      6050	800032ac	4180d3b3	sra	x7,x1,x24	  x1:0x00000000 x24:0x7e63fc3e  x7=0x00000000
       60525000	      6051	800032b0	01e8de63	bge	x17,x30,800032cc	 x17:0x00000000 x30:0x00000000
       60535000	      6052	00000000	00000013	addi	x0,x0,0	  x0:0x00000000
       60545000	      6053	800032c8	00000013	addi	x0,x0,0	  x0:0x00000000
       60555000	      6054	800032cc	cd26cb93	xori	x23,x13,-814	 x13:0x00000000 x23=0xfffffcd2
       60565000	      6055	800032d0	05b81063	bne	x16,x27,80003310	 x16:0xe4e90a5a x27:0x00000000
       60575000	      6056	00000000	00000013	addi	x0,x0,0	  x0:0x00000000
       60585000	      6057	8000330c	00000013	addi	x0,x0,0	  x0:0x00000000
       60595000	      6058	80003310	01acce63	blt	x25,x26,8000332c	 x25:0xfeffce2b x26:0x00000000
       60605000	      6059	00000000	00000013	addi	x0,x0,0	  x0:0x00000000
       60615000	      6060	80003328	00000013	addi	x0,x0,0	  x0:0x00000000
       60625000	      6061	8000332c	ac774e13	xori	x28,x14,-1337	 x14:0x80009fc4 x28=0x7fff6503
       60635000	      6062	80003330	01703833	sltu	x16,x0,x23	  x0:0x00000000 x23:0xfffffcd2 x16=0x00000001
       60645000	      6063	80003334	efaf4613	xori	x12,x30,-262	 x30:0x00000000 x12=0xfffffefa
       60655000	      6064	80003338	01d6cf33	xor	x30,x13,x29	 x13:0x00000000 x29:0x0000018b x30=0x0000018b
       60665000	      6065	8000333c	01923eb3	sltu	x29,x4,x25	  x4:0xcddb12a4 x25:0xfeffce2b x29=0x00000001
       60675000	      6066	80003340	eb58c193	xori	x3,x17,-331	 x17:0x00000000  x3=0xfffffeb5
       60685000	      6067	80003344	00405b33	srl	x22,x0,x4	  x0:0x00000000  x4:0xcddb12a4 x22=0x00000000
       60695000	      6068	80003348	01910c33	add	x24,x2,x25	  x2:0x0000027d x25:0xfeffce2b x24=0xfeffd0a8
       60705000	      6069	8000334c	05aa8863	beq	x21,x26,8000339c	 x21:0x00000000 x26:0x00000000
       60715000	      6070	00000000	00000013	addi	x0,x0,0	  x0:0x00000000
       60725000	      6071	80003398	00000013	addi	x0,x0,0	  x0:0x00000000
       60735000	      6072	8000339c	016ae1b3	or	x3,x21,x22	 x21:0x00000000 x22:0x00000000  x3=0x00000000
       60745000	      6073	800033a0	b9ca2893	slti	x17,x20,-1124	 x20:0xe4e90541 x17=0x00000001
       60755000	      6074	800033a4	57ed4393	xori	x7,x26,1406	 x26:0x00000000  x7=0x0000057e
       60765000	      6075	800033a8	013ed333	srl	x6,x29,x19	 x29:0x00000001 x19:0xfeffcd07  x6=0x00000000
       60775000	      6076	800033ac	04756863	bltu	x10,x7,800033fc	 x10:0x00000000  x7:0x0000057e
       60785000	      6077	00000000	00000013	addi	x0,x0,0	  x0:0x00000000
       60795000	      6078	800033f8	00000013	addi	x0,x0,0	  x0:0x00000000
       60805000	      6079	800033fc	7d0b8493	addi	x9,x23,2000	 x23:0xfffffcd2  x9=0x000004a2
       60815000	      6080	80003400	01676c63	bltu	x14,x22,80003418	 x14:0x80009fc4 x22:0x00000000
       60825000	      6081	80003404	000ddb13	srli	x22,x27,0x0	 x27:0x00000000 x22=0x00000000
       60835000	      6082	80003408	01185113	srli	x2,x16,0x11	 x16:0x00000001  x2=0x00000000
       60845000	      6083	8000340c	c216d917	auipc	x18,0xc216d	 x18=0x42170408
       60855000	      6084	80003410	00035193	srli	x3,x6,0x0	  x6:0x00000000  x3=0x00000000
       60865000	      6085	80003414	00645d13	srli	x26,x8,0x6	  x8:0x00000001 x26=0x00000000
       60875000	      6086	80003418	09832837	lui	x16,0x9832	 x16=0x09832000
       60885000	      6087	8000341c	013880b3	add	x1,x17,x19	 x17:0x00000001 x19:0xfeffcd07  x1=0xfeffcd08
       60895000	      6088	80003420	3ca5c913	xori	x18,x11,970	 x11:0x00000000 x18=0x000003ca
       60905000	      6089	80003424	0060ec33	or	x24,x1,x6	  x1:0xfeffcd08  x6:0x00000000 x24=0xfeffcd08
       60915000	      6090	80003428	01b44bb3	xor	x23,x8,x27	  x8:0x00000001 x27:0x00000000 x23=0x00000001
       60925000	      6091	8000342c	4146dc33	sra	x24,x13,x20	 x13:0x00000000 x20:0xe4e90541 x24=0x00000000
       60935000	      6092	80003430	88cd0813	addi	x16,x26,-1908	 x26:0x00000000 x16=0xfffff88c
       60945000	      6093	80003434	01aff9b3	and	x19,x31,x26	 x31:0x80009ee0 x26:0x00000000 x19=0x00000000
       60955000	      6094	80003438	02c2ec63	bltu	x5,x12,80003470	  x5:0xfffff844 x12:0xfffffefa
       60965000	      6095	00000000	00000013	addi	x0,x0,0	  x0:0x00000000
       60975000	      6096	8000346c	00000013	addi	x0,x0,0	  x0:0x00000000
       60985000	      6097	80003470	00006663	bltu	x0,x0,8000347c	  x0:0x00000000  x0:0x00000000
       60995000	      6098	80003474	0328ec63	bltu	x17,x18,800034ac	 x17:0x00000001 x18:0x000003ca
       61005000	      6099	00000000	00000013	addi	x0,x0,0	  x0:0x00000000
       61015000	      6100	800034a8	00000013	addi	x0,x0,0	  x0:0x00000000
       61025000	      6101	800034ac	400a8b33	sub	x22,x21,x0	 x21:0x00000000  x0:0x00000000 x22=0x00000000
       61035000	      6102	800034b0	290a8f13	addi	x30,x21,656	 x21:0x00000000 x30=0x00000290
       61045000	      6103	800034b4	369b4893	xori	x17,x22,873	 x22:0x00000000 x17=0x00000369
       61055000	      6104	800034b8	0147fe63	bgeu	x15,x20,800034d4	 x15:0x00000000 x20:0xe4e90541
       61065000	      6105	800034bc	042b6263	bltu	x22,x2,80003500	 x22:0x00000000  x2:0x00000000
       61075000	      6106	800034c0	41da0133	sub	x2,x20,x29	 x20:0xe4e90541 x29:0x00000001  x2=0xe4e90540
       61085000	      6107	800034c4	41905233	sra	x4,x0,x25	  x0:0x00000000 x25:0xfeffce2b  x4=0x00000000
       61095000	      6108	800034c8	41d08233	sub	x4,x1,x29	  x1:0xfeffcd08 x29:0x00000001  x4=0xfeffcd07
       61105000	      6109	800034cc	01f21813	slli	x16,x4,0x1f	  x4:0xfeffcd07 x16=0x80000000
       61115000	      6110	800034d0	03ad5c63	bge	x26,x26,80003508	 x26:0x00000000 x26:0x00000000
       61125000	      6111	00000000	00000013	addi	x0,x0,0	  x0:0x00000000
       61135000	      6112	80003504	00000013	addi	x0,x0,0	  x0:0x00000000
       61145000	      6113	80003508	40c65493	srai	x9,x12,0xc	 x12:0xfffffefa  x9=0xffffffff
       61155000	      6114	8000350c	b2388193	addi	x3,x17,-1245	 x17:0x00000369  x3=0xfffffe8c
       61165000	      6115	80003510	89b98893	addi	x17,x19,-1893	 x19:0x00000000 x17=0xfffff89b
       61175000	      6116	80003514	00000013	addi	x0,x0,0	  x0:0x00000000
       61185000	      6117	80003518	772e6493	ori	x9,x28,1906	 x28:0x7fff6503  x9=0x7fff6773
       61195000	      6118	8000351c	695e0513	addi	x10,x28,1685	 x28:0x7fff6503 x10=0x7fff6b98
       61205000	      6119	80003520	0044b4b3	sltu	x9,x9,x4	  x9:0x7fff6773  x4:0xfeffcd07  x9=0x00000001
       61215000	      6120	80003524	83a96e13	ori	x28,x18,-1990	 x18:0x000003ca x28=0xfffffbfa
       61225000	      6121	80003528	01772cb3	slt	x25,x14,x23	 x14:0x80009fc4 x23:0x00000001 x25=0x00000001
       61235000	      6122	8000352c	47e04913	xori	x18,x0,1150	  x0:0x00000000 x18=0x0000047e
       61245000	      6123	80003530	5a9df993	andi	x19,x27,1449	 x27:0x00000000 x19=0x00000000
       61255000	      6124	80003534	01d8e1b3	or	x3,x17,x29	 x17:0xfffff89b x29:0x00000001  x3=0xfffff89b
       61265000	      6125	80003538	000d6333	or	x6,x26,x0	 x26:0x00000000  x0:0x00000000  x6=0x00000000
       61275000	      6126	8000353c	0364ca63	blt	x9,x22,80003570	  x9:0x00000001 x22:0x00000000
       61285000	      6127	80003540	00857c63	bgeu	x10,x8,80003558	 x10:0x7fff6b98  x8:0x00000001
       61295000	      6128	00000000	00000013	addi	x0,x0,0	  x0:0x00000000
       61305000	      6129	80003554	00000013	addi	x0,x0,0	  x0:0x00000000
       61315000	      6130	80003558	8b2e0193	addi	x3,x28,-1870	 x28:0xfffffbfa  x3=0xfffff4ac
       61325000	      6131	8000355c	0aa3a693	slti	x13,x7,170	  x7:0x0000057e x13=0x00000000
       61335000	      6132	80003560	02d7e463	bltu	x15,x13,80003588	 x15:0x00000000 x13:0x00000000
       61345000	      6133	80003564	5ab53293	sltiu	x5,x10,1451	 x10:0x7fff6b98  x5=0x00000000
       61355000	      6134	80003568	0ca90293	addi	x5,x18,202	 x18:0x0000047e  x5=0x00000548
       61365000	      6135	8000356c	4001d693	srai	x13,x3,0x0	  x3:0xfffff4ac x13=0xfffff4ac
       61375000	      6136	80003570	fce83e13	sltiu	x28,x16,-50	 x16:0x80000000 x28=0x00000001
       61385000	      6137	80003574	01bad593	srli	x11,x21,0x1b	 x21:0x00000000 x11=0x00000000
       61395000	      6138	80003578	404250b3	sra	x1,x4,x4	  x4:0xfeffcd07  x4:0xfeffcd07  x1=0xfffdff9a
       61405000	      6139	8000357c	8a33e393	ori	x7,x7,-1885	  x7:0x0000057e  x7=0xfffffdff
       61415000	      6140	80003580	04074463	blt	x14,x0,800035c8	 x14:0x80009fc4  x0:0x00000000
       61425000	      6141	00000000	00000013	addi	x0,x0,0	  x0:0x00000000
       61435000	      6142	800035c4	00000013	addi	x0,x0,0	  x0:0x00000000
       61445000	      6143	800035c8	0577c863	blt	x15,x23,80003618	 x15:0x00000000 x23:0x00000001
       61455000	      6144	00000000	00000013	addi	x0,x0,0	  x0:0x00000000
       61465000	      6145	80003614	00000013	addi	x0,x0,0	  x0:0x00000000
       61475000	      6146	80003618	05e79863	bne	x15,x30,80003668	 x15:0x00000000 x30:0x00000290
       61485000	      6147	00000000	00000013	addi	x0,x0,0	  x0:0x00000000
       61495000	      6148	80003664	00000013	addi	x0,x0,0	  x0:0x00000000
       61505000	      6149	80003668	ef910c93	addi	x25,x2,-263	  x2:0xe4e90540 x25=0xe4e90439
       61515000	      6150	8000366c	401ad8b3	sra	x17,x21,x1	 x21:0x00000000  x1:0xfffdff9a x17=0x00000000
       61525000	      6151	80003670	01df70b3	and	x1,x30,x29	 x30:0x00000290 x29:0x00000001  x1=0x00000000
       61535000	      6152	80003674	01156033	or	x0,x10,x17	 x10:0x7fff6b98 x17:0x00000000
       61545000	      6153	80003678	01a99413	slli	x8,x19,0x1a	 x19:0x00000000  x8=0x00000000
       61555000	      6154	8000367c	40788db3	sub	x27,x17,x7	 x17:0x00000000  x7:0xfffffdff x27=0x00000201
       61565000	      6155	80003680	00da1263	bne	x20,x13,80003684	 x20:0xe4e90541 x13:0xfffff4ac
       61575000	      6156	00000000	00000013	addi	x0,x0,0	  x0:0x00000000
       61585000	      6157	80003680	00000013	addi	x0,x0,0	  x0:0x00000000
       61595000	      6158	80003684	01c82b33	slt	x22,x16,x28	 x16:0x80000000 x28:0x00000001 x22=0x00000001
       61605000	      6159	80003688	a53e4993	xori	x19,x28,-1453	 x28:0x00000001 x19=0xfffffa52
       61615000	      6160	8000368c	0fa37497	auipc	x9,0xfa37	  x9=0x8fa3a688
       61625000	      6161	80003690	01519663	bne	x3,x21,8000369c	  x3:0xfffff4ac x21:0x00000000
       61635000	      6162	00000000	00000013	addi	x0,x0,0	  x0:0x00000000
       61645000	      6163	80003698	00000013	addi	x0,x0,0	  x0:0x00000000
       61655000	      6164	8000369c	d88d2913	slti	x18,x26,-632	 x26:0x00000000 x18=0x00000000
       61665000	      6165	800036a0	015073b3	and	x7,x0,x21	  x0:0x00000000 x21:0x00000000  x7=0x00000000
       61675000	      6166	800036a4	03494663	blt	x18,x20,800036d0	 x18:0x00000000 x20:0xe4e90541
       61685000	      6167	800036a8	00000013	addi	x0,x0,0	  x0:0x00000000
       61695000	      6168	800036ac	00000013	addi	x0,x0,0	  x0:0x00000000
       61705000	      6169	800036b0	00eb5a63	bge	x22,x14,800036c4	 x22:0x00000001 x14:0x80009fc4
       61715000	      6170	00000000	00000013	addi	x0,x0,0	  x0:0x00000000
       61725000	      6171	800036c0	00000013	addi	x0,x0,0	  x0:0x00000000
       61735000	      6172	800036c4	02448263	beq	x9,x4,800036e8	  x9:0x8fa3a688  x4:0xfeffcd07
       61745000	      6173	800036c8	00375333	srl	x6,x14,x3	 x14:0x80009fc4  x3:0xfffff4ac  x6=0x00080009
       61755000	      6174	800036cc	016b6663	bltu	x22,x22,800036d8	 x22:0x00000001 x22:0x00000001
       61765000	      6175	800036d0	e3e9f793	andi	x15,x19,-450	 x19:0xfffffa52 x15=0xfffffa12
       61775000	      6176	800036d4	402ed393	srai	x7,x29,0x2	 x29:0x00000001  x7=0x00000000
       61785000	      6177	800036d8	04f79463	bne	x15,x15,80003720	 x15:0xfffffa12 x15:0xfffffa12
       61795000	      6178	800036dc	c8106d13	ori	x26,x0,-895	  x0:0x00000000 x26=0xfffffc81
       61805000	      6179	800036e0	1d2c7037	lui	x0,0x1d2c7	
       61815000	      6180	800036e4	52fe20b7	lui	x1,0x52fe2	  x1=0x52fe2000
       61825000	      6181	800036e8	01287e63	bgeu	x16,x18,80003704	 x16:0x80000000 x18:0x00000000
       61835000	      6182	00000000	00000013	addi	x0,x0,0	  x0:0x00000000
       61845000	      6183	80003700	00000013	addi	x0,x0,0	  x0:0x00000000
       61855000	      6184	80003704	199ab493	sltiu	x9,x21,409	 x21:0x00000000  x9=0x00000001
       61865000	      6185	80003708	e5702d37	lui	x26,0xe5702	 x26=0xe5702000
       61875000	      6186	8000370c	5d022893	slti	x17,x4,1488	  x4:0xfeffcd07 x17=0x00000001
       61885000	      6187	80003710	41c85313	srai	x6,x16,0x1c	 x16:0x80000000  x6=0xfffffff8
       61895000	      6188	80003714	13592ab7	lui	x21,0x13592	 x21=0x13592000
       61905000	      6189	80003718	00dbe833	or	x16,x23,x13	 x23:0x00000001 x13:0xfffff4ac x16=0xfffff4ad
       61915000	      6190	8000371c	40468833	sub	x16,x13,x4	 x13:0xfffff4ac  x4:0xfeffcd07 x16=0x010027a5
       61925000	      6191	80003720	0b7cb613	sltiu	x12,x25,183	 x25:0xe4e90439 x12=0x00000000
       61935000	      6192	80003724	0050d233	srl	x4,x1,x5	  x1:0x52fe2000  x5:0x00000548  x4=0x0052fe20
       61945000	      6193	80003728	0024d033	srl	x0,x9,x2	  x9:0x00000001  x2:0xe4e90540
       61955000	      6194	8000372c	014f5e63	bge	x30,x20,80003748	 x30:0x00000290 x20:0xe4e90541
       61965000	      6195	00000000	00000013	addi	x0,x0,0	  x0:0x00000000
       61975000	      6196	80003744	00000013	addi	x0,x0,0	  x0:0x00000000
       61985000	      6197	80003748	002c1663	bne	x24,x2,80003754	 x24:0x00000000  x2:0xe4e90540
       61995000	      6198	00000000	00000013	addi	x0,x0,0	  x0:0x00000000
       62005000	      6199	80003750	00000013	addi	x0,x0,0	  x0:0x00000000
       62015000	      6200	80003754	01bec8b3	xor	x17,x29,x27	 x29:0x00000001 x27:0x00000201 x17=0x00000200
       62025000	      6201	80003758	00cfc2b3	xor	x5,x31,x12	 x31:0x80009ee0 x12:0x00000000  x5=0x80009ee0
       62035000	      6202	8000375c	570aa617	auipc	x12,0x570aa	 x12=0xd70ad758
       62045000	      6203	80003760	58667813	andi	x16,x12,1414	 x12:0xd70ad758 x16=0x00000500
       62055000	      6204	80003764	005f7333	and	x6,x30,x5	 x30:0x00000290  x5:0x80009ee0  x6=0x00000280
       62065000	      6205	80003768	40b55113	srai	x2,x10,0xb	 x10:0x7fff6b98  x2=0x000fffed
       62075000	      6206	8000376c	052bc863	blt	x23,x18,800037bc	 x23:0x00000001 x18:0x00000000
       62085000	      6207	80003770	00000013	addi	x0,x0,0	  x0:0x00000000
       62095000	      6208	80003774	410c5993	srai	x19,x24,0x10	 x24:0x00000000 x19=0x00000000
       62105000	      6209	80003778	55ea0993	addi	x19,x20,1374	 x20:0xe4e90541 x19=0xe4e90a9f
       62115000	      6210	8000377c	e7c5c537	lui	x10,0xe7c5c	 x10=0xe7c5c000
       62125000	      6211	80003780	01f20333	add	x6,x4,x31	  x4:0x0052fe20 x31:0x80009ee0  x6=0x80539d00
       62135000	      6212	80003784	00000013	addi	x0,x0,0	  x0:0x00000000
       62145000	      6213	80003788	53477f17	auipc	x30,0x53477	 x30=0xd347a784
       62155000	      6214	8000378c	00830463	beq	x6,x8,80003794	  x6:0x80539d00  x8:0x00000000
       62165000	      6215	80003790	00d08d33	add	x26,x1,x13	  x1:0x52fe2000 x13:0xfffff4ac x26=0x52fe14ac
       62175000	      6216	80003794	0156e4b3	or	x9,x13,x21	 x13:0xfffff4ac x21:0x13592000  x9=0xfffff4ac
       62185000	      6217	80003798	ea093217	auipc	x4,0xea093	  x4=0x6a096794
       62195000	      6218	8000379c	01261ab3	sll	x21,x12,x18	 x12:0xd70ad758 x18:0x00000000 x21=0xd70ad758
       62205000	      6219	800037a0	00328433	add	x8,x5,x3	  x5:0x80009ee0  x3:0xfffff4ac  x8=0x8000938c
       62215000	      6220	800037a4	41aa8233	sub	x4,x21,x26	 x21:0xd70ad758 x26:0x52fe14ac  x4=0x840cc2ac
       62225000	      6221	800037a8	60156837	lui	x16,0x60156	 x16=0x60156000
       62235000	      6222	800037ac	019725b3	slt	x11,x14,x25	 x14:0x80009fc4 x25:0xe4e90439 x11=0x00000001
       62245000	      6223	800037b0	55f73093	sltiu	x1,x14,1375	 x14:0x80009fc4  x1=0x00000000
       62255000	      6224	800037b4	013235b3	sltu	x11,x4,x19	  x4:0x840cc2ac x19:0xe4e90a9f x11=0x00000001
       62265000	      6225	800037b8	0075d263	bge	x11,x7,800037bc	 x11:0x00000001  x7:0x00000000
       62275000	      6226	00000000	00000013	addi	x0,x0,0	  x0:0x00000000
       62285000	      6227	800037b8	00000013	addi	x0,x0,0	  x0:0x00000000
       62295000	      6228	800037bc	011ad9b3	srl	x19,x21,x17	 x21:0xd70ad758 x17:0x00000200 x19=0xd70ad758
       62305000	      6229	800037c0	011bc1b3	xor	x3,x23,x17	 x23:0x00000001 x17:0x00000200  x3=0x00000201
       62315000	      6230	800037c4	01a2d013	srli	x0,x5,0x1a	  x5:0x80009ee0
       62325000	      6231	800037c8	00c066b3	or	x13,x0,x12	  x0:0x00000000 x12:0xd70ad758 x13=0xd70ad758
       62335000	      6232	800037cc	010e9993	slli	x19,x29,0x10	 x29:0x00000001 x19=0x00010000
       62345000	      6233	800037d0	40c88d33	sub	x26,x17,x12	 x17:0x00000200 x12:0xd70ad758 x26=0x28f52aa8
       62355000	      6234	800037d4	043cd063	bge	x25,x3,80003814	 x25:0xe4e90439  x3:0x00000201
       62365000	      6235	800037d8	404f0433	sub	x8,x30,x4	 x30:0xd347a784  x4:0x840cc2ac  x8=0x4f3ae4d8
       62375000	      6236	800037dc	0139d593	srli	x11,x19,0x13	 x19:0x00010000 x11=0x00000000
       62385000	      6237	800037e0	00be6033	or	x0,x28,x11	 x28:0x00000001 x11:0x00000000
       62395000	      6238	800037e4	02b76063	bltu	x14,x11,80003804	 x14:0x80009fc4 x11:0x00000000
       62405000	      6239	800037e8	012729b3	slt	x19,x14,x18	 x14:0x80009fc4 x18:0x00000000 x19=0x00000001
       62415000	      6240	800037ec	1f322537	lui	x10,0x1f322	 x10=0x1f322000
       62425000	      6241	800037f0	40355f33	sra	x30,x10,x3	 x10:0x1f322000  x3:0x00000201 x30=0x0f991000
       62435000	      6242	800037f4	01c1ce63	blt	x3,x28,80003810	  x3:0x00000201 x28:0x00000001
       62445000	      6243	800037f8	00939213	slli	x4,x7,0x9	  x7:0x00000000  x4=0x00000000
       62455000	      6244	800037fc	dd766597	auipc	x11,0xdd766	 x11=0x5d7697f8
       62465000	      6245	80003800	00c51a63	bne	x10,x12,80003814	 x10:0x1f322000 x12:0xd70ad758
       62475000	      6246	00000000	00000013	addi	x0,x0,0	  x0:0x00000000
       62485000	      6247	80003810	00000013	addi	x0,x0,0	  x0:0x00000000
       62495000	      6248	80003814	00000013	addi	x0,x0,0	  x0:0x00000000
       62505000	      6249	80003818	01b7ce63	blt	x15,x27,80003834	 x15:0xfffffa12 x27:0x00000201
       62515000	      6250	00000000	00000013	addi	x0,x0,0	  x0:0x00000000
       62525000	      6251	80003830	00000013	addi	x0,x0,0	  x0:0x00000000
       62535000	      6252	80003834	41538933	sub	x18,x7,x21	  x7:0x00000000 x21:0xd70ad758 x18=0x28f528a8
       62545000	      6253	80003838	05148063	beq	x9,x17,80003878	  x9:0xfffff4ac x17:0x00000200
       62555000	      6254	8000383c	3ae8b313	sltiu	x6,x17,942	 x17:0x00000200  x6=0x00000001
       62565000	      6255	80003840	c6fb3c93	sltiu	x25,x22,-913	 x22:0x00000001 x25=0x00000001
       62575000	      6256	80003844	41135093	srai	x1,x6,0x11	  x6:0x00000001  x1=0x00000000
       62585000	      6257	80003848	2c462213	slti	x4,x12,708	 x12:0xd70ad758  x4=0x00000001
       62595000	      6258	8000384c	057d6863	bltu	x26,x23,8000389c	 x26:0x28f52aa8 x23:0x00000001
       62605000	      6259	80003850	0551d263	bge	x3,x21,80003894	  x3:0x00000201 x21:0xd70ad758
       62615000	      6260	00000000	00000013	addi	x0,x0,0	  x0:0x00000000
       62625000	      6261	80003890	00000013	addi	x0,x0,0	  x0:0x00000000
       62635000	      6262	80003894	b7577b97	auipc	x23,0xb7577	 x23=0x3757a890
       62645000	      6263	80003898	00340933	add	x18,x8,x3	  x8:0x4f3ae4d8  x3:0x00000201 x18=0x4f3ae6d9
       62655000	      6264	8000389c	b69e6c13	ori	x24,x28,-1175	 x28:0x00000001 x24=0xfffffb69
       62665000	      6265	800038a0	41e08b33	sub	x22,x1,x30	  x1:0x00000000 x30:0x0f991000 x22=0xf066f000
       62675000	      6266	800038a4	1a66e993	ori	x19,x13,422	 x13:0xd70ad758 x19=0xd70ad7fe
       62685000	      6267	800038a8	00765c63	bge	x12,x7,800038c0	 x12:0xd70ad758  x7:0x00000000
       62695000	      6268	800038ac	01c6a4b3	slt	x9,x13,x28	 x13:0xd70ad758 x28:0x00000001  x9=0x00000001
       62705000	      6269	800038b0	01417333	and	x6,x2,x20	  x2:0x000fffed x20:0xe4e90541  x6=0x00090541
       62715000	      6270	800038b4	003c5193	srli	x3,x24,0x3	 x24:0xfffffb69  x3=0x1fffff6d
       62725000	      6271	800038b8	5c6d7c13	andi	x24,x26,1478	 x26:0x28f52aa8 x24=0x00000080
       62735000	      6272	800038bc	005d8db3	add	x27,x27,x5	 x27:0x00000201  x5:0x80009ee0 x27=0x8000a0e1
       62745000	      6273	800038c0	01e1b933	sltu	x18,x3,x30	  x3:0x1fffff6d x30:0x0f991000 x18=0x00000000
       62755000	      6274	800038c4	01af1833	sll	x16,x30,x26	 x30:0x0f991000 x26:0x28f52aa8 x16=0x99100000
       62765000	      6275	800038c8	40165533	sra	x10,x12,x1	 x12:0xd70ad758  x1:0x00000000 x10=0xd70ad758
       62775000	      6276	800038cc	01e5b533	sltu	x10,x11,x30	 x11:0x5d7697f8 x30:0x0f991000 x10=0x00000000
       62785000	      6277	800038d0	82de8793	addi	x15,x29,-2003	 x29:0x00000001 x15=0xfffff82e
       62795000	      6278	800038d4	05027463	bgeu	x4,x16,8000391c	  x4:0x00000001 x16:0x99100000
       62805000	      6279	800038d8	c94f8c13	addi	x24,x31,-876	 x31:0x80009ee0 x24=0x80009b74
       62815000	      6280	800038dc	415c06b3	sub	x13,x24,x21	 x24:0x80009b74 x21:0xd70ad758 x13=0xa8f5c41c
       62825000	      6281	800038e0	01661db3	sll	x27,x12,x22	 x12:0xd70ad758 x22:0xf066f000 x27=0xd70ad758
       62835000	      6282	800038e4	00000013	addi	x0,x0,0	  x0:0x00000000
       62845000	      6283	800038e8	01ce4e33	xor	x28,x28,x28	 x28:0x00000001 x28:0x00000001 x28=0x00000000
       62855000	      6284	800038ec	02ae9263	bne	x29,x10,80003910	 x29:0x00000001 x10:0x00000000
       62865000	      6285	00000000	00000013	addi	x0,x0,0	  x0:0x00000000
       62875000	      6286	8000390c	00000013	addi	x0,x0,0	  x0:0x00000000
       62885000	      6287	80003910	04118863	beq	x3,x1,80003960	  x3:0x1fffff6d  x1:0x00000000
       62895000	      6288	80003914	287ab893	sltiu	x17,x21,647	 x21:0xd70ad758 x17=0x00000000
       62905000	      6289	80003918	4112d393	srai	x7,x5,0x11	  x5:0x80009ee0  x7=0xffffc000
       62915000	      6290	8000391c	01658db3	add	x27,x11,x22	 x11:0x5d7697f8 x22:0xf066f000 x27=0x4ddd87f8
       62925000	      6291	80003920	c13c95b7	lui	x11,0xc13c9	 x11=0xc13c9000
       62935000	      6292	80003924	0ee6ae13	slti	x28,x13,238	 x13:0xa8f5c41c x28=0x00000001
       62945000	      6293	80003928	a73e8813	addi	x16,x29,-1421	 x29:0x00000001 x16=0xfffffa74
       62955000	      6294	8000392c	7acf6d13	ori	x26,x30,1964	 x30:0x0f991000 x26=0x0f9917ac
       62965000	      6295	80003930	cf375597	auipc	x11,0xcf375	 x11=0x4f37892c
       62975000	      6296	80003934	00468bb3	add	x23,x13,x4	 x13:0xa8f5c41c  x4:0x00000001 x23=0xa8f5c41d
       62985000	      6297	80003938	02680463	beq	x16,x6,80003960	 x16:0xfffffa74  x6:0x00090541
       62995000	      6298	8000393c	0105fd33	and	x26,x11,x16	 x11:0x4f37892c x16:0xfffffa74 x26=0x4f378824
       63005000	      6299	80003940	416dd293	srai	x5,x27,0x16	 x27:0x4ddd87f8  x5=0x00000137
       63015000	      6300	80003944	00e9dc63	bge	x19,x14,8000395c	 x19:0xd70ad7fe x14:0x80009fc4
       63025000	      6301	00000000	00000013	addi	x0,x0,0	  x0:0x00000000
       63035000	      6302	80003958	00000013	addi	x0,x0,0	  x0:0x00000000
       63045000	      6303	8000395c	01bf2bb3	slt	x23,x30,x27	 x30:0x0f991000 x27:0x4ddd87f8 x23=0x00000001
       63055000	      6304	80003960	003a8663	beq	x21,x3,8000396c	 x21:0xd70ad758  x3:0x1fffff6d
       63065000	      6305	80003964	01598db3	add	x27,x19,x21	 x19:0xd70ad7fe x21:0xd70ad758 x27=0xae15af56
       63075000	      6306	80003968	00000013	addi	x0,x0,0	  x0:0x00000000
       63085000	      6307	8000396c	6b1d3b37	lui	x22,0x6b1d3	 x22=0x6b1d3000
       63095000	      6308	80003970	1e58e393	ori	x7,x17,485	 x17:0x00000000  x7=0x000001e5
       63105000	      6309	80003974	dd644793	xori	x15,x8,-554	  x8:0x4f3ae4d8 x15=0xb0c5190e
       63115000	      6310	80003978	00d6d293	srli	x5,x13,0xd	 x13:0xa8f5c41c  x5=0x000547ae
       63125000	      6311	8000397c	03d44063	blt	x8,x29,8000399c	  x8:0x4f3ae4d8 x29:0x00000001
       63135000	      6312	80003980	009336b3	sltu	x13,x6,x9	  x6:0x00090541  x9:0x00000001 x13=0x00000000
       63145000	      6313	80003984	04704063	blt	x0,x7,800039c4	  x0:0x00000000  x7:0x000001e5
       63155000	      6314	00000000	00000013	addi	x0,x0,0	  x0:0x00000000
       63165000	      6315	800039c0	00000013	addi	x0,x0,0	  x0:0x00000000
       63175000	      6316	800039c4	40888b33	sub	x22,x17,x8	 x17:0x00000000  x8:0x4f3ae4d8 x22=0xb0c51b28
       63185000	      6317	800039c8	04084263	blt	x16,x0,80003a0c	 x16:0xfffffa74  x0:0x00000000
       63195000	      6318	00000000	00000013	addi	x0,x0,0	  x0:0x00000000
       63205000	      6319	80003a08	00000013	addi	x0,x0,0	  x0:0x00000000
       63215000	      6320	80003a0c	00cca0b3	slt	x1,x25,x12	 x25:0x00000001 x12:0xd70ad758  x1=0x00000000
       63225000	      6321	80003a10	01b9ce63	blt	x19,x27,80003a2c	 x19:0xd70ad7fe x27:0xae15af56
       63235000	      6322	80003a14	00dd1933	sll	x18,x26,x13	 x26:0x4f378824 x13:0x00000000 x18=0x4f378824
       63245000	      6323	80003a18	f65e7637	lui	x12,0xf65e7	 x12=0xf65e7000
       63255000	      6324	80003a1c	00620663	beq	x4,x6,80003a28	  x4:0x00000001  x6:0x00090541
       63265000	      6325	80003a20	591afa93	andi	x21,x21,1425	 x21:0xd70ad758 x21=0x00000510
       63275000	      6326	80003a24	15fbcb13	xori	x22,x23,351	 x23:0x00000001 x22=0x0000015e
       63285000	      6327	80003a28	01a7de63	bge	x15,x26,80003a44	 x15:0xb0c5190e x26:0x4f378824
       63295000	      6328	80003a2c	f1b5c197	auipc	x3,0xf1b5c	  x3=0x71b5fa28
       63305000	      6329	80003a30	dfa6f813	andi	x16,x13,-518	 x13:0x00000000 x16=0x00000000
       63315000	      6330	80003a34	40285193	srai	x3,x16,0x2	 x16:0x00000000  x3=0x00000000
       63325000	      6331	80003a38	4182dc13	srai	x24,x5,0x18	  x5:0x000547ae x24=0x00000000
       63335000	      6332	80003a3c	41d78d33	sub	x26,x15,x29	 x15:0xb0c5190e x29:0x00000001 x26=0xb0c5190d
       63345000	      6333	80003a40	9fa1a113	slti	x2,x3,-1542	  x3:0x00000000  x2=0x00000000
       63355000	      6334	80003a44	00f8ec63	bltu	x17,x15,80003a5c	 x17:0x00000000 x15:0xb0c5190e
       63365000	      6335	00000000	00000013	addi	x0,x0,0	  x0:0x00000000
       63375000	      6336	80003a58	00000013	addi	x0,x0,0	  x0:0x00000000
       63385000	      6337	80003a5c	90c7a393	slti	x7,x15,-1780	 x15:0xb0c5190e  x7=0x00000001
       63395000	      6338	80003a60	e06f7c13	andi	x24,x30,-506	 x30:0x0f991000 x24=0x0f991000
       63405000	      6339	80003a64	00000013	addi	x0,x0,0	  x0:0x00000000
       63415000	      6340	80003a68	01055e63	bge	x10,x16,80003a84	 x10:0x00000000 x16:0x00000000
       63425000	      6341	00000000	00000013	addi	x0,x0,0	  x0:0x00000000
       63435000	      6342	80003a80	00000013	addi	x0,x0,0	  x0:0x00000000
       63445000	      6343	80003a84	00a8a133	slt	x2,x17,x10	 x17:0x00000000 x10:0x00000000  x2=0x00000000
       63455000	      6344	80003a88	00e931b3	sltu	x3,x18,x14	 x18:0x4f378824 x14:0x80009fc4  x3=0x00000001
       63465000	      6345	80003a8c	018a3b33	sltu	x22,x20,x24	 x20:0xe4e90541 x24:0x0f991000 x22=0x00000000
       63475000	      6346	80003a90	00b45cb3	srl	x25,x8,x11	  x8:0x4f3ae4d8 x11:0x4f37892c x25=0x0004f3ae
       63485000	      6347	80003a94	05b29463	bne	x5,x27,80003adc	  x5:0x000547ae x27:0xae15af56
       63495000	      6348	00000000	00000013	addi	x0,x0,0	  x0:0x00000000
       63505000	      6349	80003ad8	00000013	addi	x0,x0,0	  x0:0x00000000
       63515000	      6350	80003adc	014ddcb3	srl	x25,x27,x20	 x27:0xae15af56 x20:0xe4e90541 x25=0x570ad7ab
       63525000	      6351	80003ae0	005135b3	sltu	x11,x2,x5	  x2:0x00000000  x5:0x000547ae x11=0x00000001
       63535000	      6352	80003ae4	53707393	andi	x7,x0,1335	  x0:0x00000000  x7=0x00000000
       63545000	      6353	80003ae8	01796e63	bltu	x18,x23,80003b04	 x18:0x4f378824 x23:0x00000001
       63555000	      6354	80003aec	f3472a93	slti	x21,x14,-204	 x14:0x80009fc4 x21=0x00000001
       63565000	      6355	80003af0	00ac8cb3	add	x25,x25,x10	 x25:0x570ad7ab x10:0x00000000 x25=0x570ad7ab
       63575000	      6356	80003af4	00378f33	add	x30,x15,x3	 x15:0xb0c5190e  x3:0x00000001 x30=0xb0c5190f
       63585000	      6357	80003af8	bc370d13	addi	x26,x14,-1085	 x14:0x80009fc4 x26=0x80009b87
       63595000	      6358	80003afc	e446fd13	andi	x26,x13,-444	 x13:0x00000000 x26=0x00000000
       63605000	      6359	80003b00	e29d2e13	slti	x28,x26,-471	 x26:0x00000000 x28=0x00000000
       63615000	      6360	80003b04	006a1e13	slli	x28,x20,0x6	 x20:0xe4e90541 x28=0x3a415040
       63625000	      6361	80003b08	013a1633	sll	x12,x20,x19	 x20:0xe4e90541 x19:0xd70ad7fe x12=0x40000000
       63635000	      6362	80003b0c	408dac13	slti	x24,x27,1032	 x27:0xae15af56 x24=0x00000001
       63645000	      6363	80003b10	01d64a63	blt	x12,x29,80003b24	 x12:0x40000000 x29:0x00000001
       63655000	      6364	80003b14	40b2db13	srai	x22,x5,0xb	  x5:0x000547ae x22=0x000000a8
       63665000	      6365	80003b18	01e4a7b3	slt	x15,x9,x30	  x9:0x00000001 x30:0xb0c5190f x15=0x00000000
       63675000	      6366	80003b1c	0142ce63	blt	x5,x20,80003b38	  x5:0x000547ae x20:0xe4e90541
       63685000	      6367	80003b20	f5e56d93	ori	x27,x10,-162	 x10:0x00000000 x27=0xffffff5e
       63695000	      6368	80003b24	44760e17	auipc	x28,0x44760	 x28=0xc4763b20
       63705000	      6369	80003b28	01d1ae33	slt	x28,x3,x29	  x3:0x00000001 x29:0x00000001 x28=0x00000000
       63715000	      6370	80003b2c	00f64e33	xor	x28,x12,x15	 x12:0x40000000 x15:0x00000000 x28=0x40000000
       63725000	      6371	80003b30	01cd6463	bltu	x26,x28,80003b38	 x26:0x00000000 x28:0x40000000
       63735000	      6372	00000000	00000013	addi	x0,x0,0	  x0:0x00000000
       63745000	      6373	80003b34	00000013	addi	x0,x0,0	  x0:0x00000000
       63755000	      6374	80003b38	00eb0a63	beq	x22,x14,80003b4c	 x22:0x000000a8 x14:0x80009fc4
       63765000	      6375	80003b3c	0135d2b3	srl	x5,x11,x19	 x11:0x00000001 x19:0xd70ad7fe  x5=0x00000000
       63775000	      6376	80003b40	0126ca63	blt	x13,x18,80003b54	 x13:0x00000000 x18:0x4f378824
       63785000	      6377	00000000	00000013	addi	x0,x0,0	  x0:0x00000000
       63795000	      6378	80003b50	00000013	addi	x0,x0,0	  x0:0x00000000
       63805000	      6379	80003b54	949a8013	addi	x0,x21,-1719	 x21:0x00000001
       63815000	      6380	80003b58	0191d993	srli	x19,x3,0x19	  x3:0x00000001 x19=0x00000000
       63825000	      6381	80003b5c	042a8063	beq	x21,x2,80003b9c	 x21:0x00000001  x2:0x00000000
       63835000	      6382	80003b60	acfb6093	ori	x1,x22,-1329	 x22:0x000000a8  x1=0xfffffaef
       63845000	      6383	80003b64	00000013	addi	x0,x0,0	  x0:0x00000000
       63855000	      6384	80003b68	1e0f0593	addi	x11,x30,480	 x30:0xb0c5190f x11=0xb0c51aef
       63865000	      6385	80003b6c	40115ab3	sra	x21,x2,x1	  x2:0x00000000  x1:0xfffffaef x21=0x00000000
       63875000	      6386	80003b70	044e1863	bne	x28,x4,80003bc0	 x28:0x40000000  x4:0x00000001
       63885000	      6387	00000000	00000013	addi	x0,x0,0	  x0:0x00000000
       63895000	      6388	80003bbc	00000013	addi	x0,x0,0	  x0:0x00000000
       63905000	      6389	80003bc0	00000013	addi	x0,x0,0	  x0:0x00000000
       63915000	      6390	80003bc4	01c73b33	sltu	x22,x14,x28	 x14:0x80009fc4 x28:0x40000000 x22=0x00000000
       63925000	      6391	80003bc8	00545113	srli	x2,x8,0x5	  x8:0x4f3ae4d8  x2=0x0279d726
       63935000	      6392	80003bcc	003c28b3	slt	x17,x24,x3	 x24:0x00000001  x3:0x00000001 x17=0x00000000
       63945000	      6393	80003bd0	00686663	bltu	x16,x6,80003bdc	 x16:0x00000000  x6:0x00090541
       63955000	      6394	00000000	00000013	addi	x0,x0,0	  x0:0x00000000
       63965000	      6395	80003bd8	00000013	addi	x0,x0,0	  x0:0x00000000
       63975000	      6396	80003bdc	6c59c593	xori	x11,x19,1733	 x19:0x00000000 x11=0x000006c5
       63985000	      6397	80003be0	00aa98b3	sll	x17,x21,x10	 x21:0x00000000 x10:0x00000000 x17=0x00000000
       63995000	      6398	80003be4	faa73637	lui	x12,0xfaa73	 x12=0xfaa73000
       64005000	      6399	80003be8	a374eeb7	lui	x29,0xa374e	 x29=0xa374e000
       64015000	      6400	80003bec	00637bb3	and	x23,x6,x6	  x6:0x00090541  x6:0x00090541 x23=0x00090541
       64025000	      6401	80003bf0	bc31bf37	lui	x30,0xbc31b	 x30=0xbc31b000
       64035000	      6402	80003bf4	01324c63	blt	x4,x19,80003c0c	  x4:0x00000001 x19:0x00000000
       64045000	      6403	80003bf8	010a23b3	slt	x7,x20,x16	 x20:0xe4e90541 x16:0x00000000  x7=0x00000001
       64055000	      6404	80003bfc	01b5feb3	and	x29,x11,x27	 x11:0x000006c5 x27:0xffffff5e x29=0x00000644
       64065000	      6405	80003c00	40c65893	srai	x17,x12,0xc	 x12:0xfaa73000 x17=0xffffaa73
       64075000	      6406	80003c04	372b3e17	auipc	x28,0x372b3	 x28=0xb72b6c00
       64085000	      6407	80003c08	61403c93	sltiu	x25,x0,1556	  x0:0x00000000 x25=0x00000001
       64095000	      6408	80003c0c	4044d093	srai	x1,x9,0x4	  x9:0x00000001  x1=0x00000000
       64105000	      6409	80003c10	02c0e663	bltu	x1,x12,80003c3c	  x1:0x00000000 x12:0xfaa73000
       64115000	      6410	00000000	00000013	addi	x0,x0,0	  x0:0x00000000
       64125000	      6411	80003c38	00000013	addi	x0,x0,0	  x0:0x00000000
       64135000	      6412	80003c3c	00801693	slli	x13,x0,0x8	  x0:0x00000000 x13=0x00000000
       64145000	      6413	80003c40	3ca5fd93	andi	x27,x11,970	 x11:0x000006c5 x27=0x000002c0
       64155000	      6414	80003c44	012713b3	sll	x7,x14,x18	 x14:0x80009fc4 x18:0x4f378824  x7=0x0009fc40
       64165000	      6415	80003c48	01cd5bb3	srl	x23,x26,x28	 x26:0x00000000 x28:0xb72b6c00 x23=0x00000000
       64175000	      6416	80003c4c	fb2a86b7	lui	x13,0xfb2a8	 x13=0xfb2a8000
       64185000	      6417	80003c50	015d7f33	and	x30,x26,x21	 x26:0x00000000 x21:0x00000000 x30=0x00000000
       64195000	      6418	80003c54	01ff86b3	add	x13,x31,x31	 x31:0x80009ee0 x31:0x80009ee0 x13=0x00013dc0
       64205000	      6419	80003c58	b7b1e293	ori	x5,x3,-1157	  x3:0x00000001  x5=0xfffffb7b
       64215000	      6420	80003c5c	005c03b3	add	x7,x24,x5	 x24:0x00000001  x5:0xfffffb7b  x7=0xfffffb7c
       64225000	      6421	80003c60	014994b3	sll	x9,x19,x20	 x19:0x00000000 x20:0xe4e90541  x9=0x00000000
       64235000	      6422	80003c64	433668b7	lui	x17,0x43366	 x17=0x43366000
       64245000	      6423	80003c68	41d68333	sub	x6,x13,x29	 x13:0x00013dc0 x29:0x00000644  x6=0x0001377c
       64255000	      6424	80003c6c	663bac17	auipc	x24,0x663ba	 x24=0xe63bdc68
       64265000	      6425	80003c70	0157acb3	slt	x25,x15,x21	 x15:0x00000000 x21:0x00000000 x25=0x00000000
       64275000	      6426	80003c74	01301bb3	sll	x23,x0,x19	  x0:0x00000000 x19:0x00000000 x23=0x00000000
       64285000	      6427	80003c78	41db8bb3	sub	x23,x23,x29	 x23:0x00000000 x29:0x00000644 x23=0xfffff9bc
       64295000	      6428	80003c7c	01c09a93	slli	x21,x1,0x1c	  x1:0x00000000 x21=0x00000000
       64305000	      6429	80003c80	00c9aab3	slt	x21,x19,x12	 x19:0x00000000 x12:0xfaa73000 x21=0x00000000
       64315000	      6430	80003c84	000aee63	bltu	x21,x0,80003ca0	 x21:0x00000000  x0:0x00000000
       64325000	      6431	80003c88	00a14bb3	xor	x23,x2,x10	  x2:0x0279d726 x10:0x00000000 x23=0x0279d726
       64335000	      6432	80003c8c	01a587b3	add	x15,x11,x26	 x11:0x000006c5 x26:0x00000000 x15=0x000006c5
       64345000	      6433	80003c90	01a2d313	srli	x6,x5,0x1a	  x5:0xfffffb7b  x6=0x0000003f
       64355000	      6434	80003c94	00000013	addi	x0,x0,0	  x0:0x00000000
       64365000	      6435	80003c98	0167c663	blt	x15,x22,80003ca4	 x15:0x000006c5 x22:0x00000000
       64375000	      6436	80003c9c	01aaf3b3	and	x7,x21,x26	 x21:0x00000000 x26:0x00000000  x7=0x00000000
       64385000	      6437	80003ca0	00b0a7b3	slt	x15,x1,x11	  x1:0x00000000 x11:0x000006c5 x15=0x00000001
       64395000	      6438	80003ca4	01a32b33	slt	x22,x6,x26	  x6:0x0000003f x26:0x00000000 x22=0x00000000
       64405000	      6439	80003ca8	017bd4b3	srl	x9,x23,x23	 x23:0x0279d726 x23:0x0279d726  x9=0x0009e75c
       64415000	      6440	80003cac	057df463	bgeu	x27,x23,80003cf4	 x27:0x000002c0 x23:0x0279d726
       64425000	      6441	80003cb0	b5143c13	sltiu	x24,x8,-1199	  x8:0x4f3ae4d8 x24=0x00000001
       64435000	      6442	80003cb4	017a5093	srli	x1,x20,0x17	 x20:0xe4e90541  x1=0x000001c9
       64445000	      6443	80003cb8	2d4fc3b7	lui	x7,0x2d4fc	  x7=0x2d4fc000
       64455000	      6444	80003cbc	01014e63	blt	x2,x16,80003cd8	  x2:0x0279d726 x16:0x00000000
       64465000	      6445	80003cc0	01ccfab3	and	x21,x25,x28	 x25:0x00000000 x28:0xb72b6c00 x21=0x00000000
       64475000	      6446	80003cc4	015dde93	srli	x29,x27,0x15	 x27:0x000002c0 x29=0x00000000
       64485000	      6447	80003cc8	00d635b3	sltu	x11,x12,x13	 x12:0xfaa73000 x13:0x00013dc0 x11=0x00000000
       64495000	      6448	80003ccc	02ca9c63	bne	x21,x12,80003d04	 x21:0x00000000 x12:0xfaa73000
       64505000	      6449	00000000	00000013	addi	x0,x0,0	  x0:0x00000000
       64515000	      6450	80003d00	00000013	addi	x0,x0,0	  x0:0x00000000
       64525000	      6451	80003d04	045a8263	beq	x21,x5,80003d48	 x21:0x00000000  x5:0xfffffb7b
       64535000	      6452	80003d08	4008d113	srai	x2,x17,0x0	 x17:0x43366000  x2=0x43366000
       64545000	      6453	80003d0c	40d00c33	sub	x24,x0,x13	  x0:0x00000000 x13:0x00013dc0 x24=0xfffec240
       64555000	      6454	80003d10	007f5113	srli	x2,x30,0x7	 x30:0x00000000  x2=0x00000000
       64565000	      6455	80003d14	03a61263	bne	x12,x26,80003d38	 x12:0xfaa73000 x26:0x00000000
       64575000	      6456	00000000	00000013	addi	x0,x0,0	  x0:0x00000000
       64585000	      6457	80003d34	00000013	addi	x0,x0,0	  x0:0x00000000
       64595000	      6458	80003d38	00001a93	slli	x21,x0,0x0	  x0:0x00000000 x21=0x00000000
       64605000	      6459	80003d3c	0160b0b3	sltu	x1,x1,x22	  x1:0x000001c9 x22:0x00000000  x1=0x00000000
       64615000	      6460	80003d40	e44a3993	sltiu	x19,x20,-444	 x20:0xe4e90541 x19=0x00000001
       64625000	      6461	80003d44	056c4063	blt	x24,x22,80003d84	 x24:0xfffec240 x22:0x00000000
       64635000	      6462	00000000	00000013	addi	x0,x0,0	  x0:0x00000000
       64645000	      6463	80003d80	00000013	addi	x0,x0,0	  x0:0x00000000
       64655000	      6464	80003d84	8c0e9d97	auipc	x27,0x8c0e9	 x27=0x0c0ecd80
       64665000	      6465	80003d88	017b99b3	sll	x19,x23,x23	 x23:0x0279d726 x23:0x0279d726 x19=0x9e75c980
       64675000	      6466	80003d8c	00245193	srli	x3,x8,0x2	  x8:0x4f3ae4d8  x3=0x13ceb936
       64685000	      6467	80003d90	60377c13	andi	x24,x14,1539	 x14:0x80009fc4 x24=0x00000600
       64695000	      6468	80003d94	01670263	beq	x14,x22,80003d98	 x14:0x80009fc4 x22:0x00000000
       64705000	      6469	80003d98	0136a1b3	slt	x3,x13,x19	 x13:0x00013dc0 x19:0x9e75c980  x3=0x00000000
       64715000	      6470	80003d9c	419fddb3	sra	x27,x31,x25	 x31:0x80009ee0 x25:0x00000000 x27=0x80009ee0
       64725000	      6471	80003da0	013ac533	xor	x10,x21,x19	 x21:0x00000000 x19:0x9e75c980 x10=0x9e75c980
       64735000	      6472	80003da4	5dfc3b93	sltiu	x23,x24,1503	 x24:0x00000600 x23=0x00000000
       64745000	      6473	80003da8	0498d463	bge	x17,x9,80003df0	 x17:0x43366000  x9:0x0009e75c
       64755000	      6474	00000000	00000013	addi	x0,x0,0	  x0:0x00000000
       64765000	      6475	80003dec	00000013	addi	x0,x0,0	  x0:0x00000000
       64775000	      6476	80003df0	a6b53493	sltiu	x9,x10,-1429	 x10:0x9e75c980  x9=0x00000001
       64785000	      6477	80003df4	01f87e63	bgeu	x16,x31,80003e10	 x16:0x00000000 x31:0x80009ee0
       64795000	      6478	80003df8	7b9fe913	ori	x18,x31,1977	 x31:0x80009ee0 x18=0x80009ff9
       64805000	      6479	80003dfc	008b1e63	bne	x22,x8,80003e18	 x22:0x00000000  x8:0x4f3ae4d8
       64815000	      6480	00000000	00000013	addi	x0,x0,0	  x0:0x00000000
       64825000	      6481	80003e14	00000013	addi	x0,x0,0	  x0:0x00000000
       64835000	      6482	80003e18	05daf863	bgeu	x21,x29,80003e68	 x21:0x00000000 x29:0x00000000
       64845000	      6483	00000000	00000013	addi	x0,x0,0	  x0:0x00000000
       64855000	      6484	80003e64	00000013	addi	x0,x0,0	  x0:0x00000000
       64865000	      6485	80003e68	00641bb3	sll	x23,x8,x6	  x8:0x4f3ae4d8  x6:0x0000003f x23=0x00000000
       64875000	      6486	80003e6c	0dc57e63	bgeu	x10,x28,80003f48	 x10:0x9e75c980 x28:0xb72b6c00
       64885000	      6487	80003e70	afa3f517	auipc	x10,0xafa3f	 x10=0x2fa42e6c
       64895000	      6488	80003e74	00005117	auipc	x2,0x5	  x2=0x80008e70
       64905000	      6489	80003e78	da710113	addi	x2,x2,-601	  x2:0x80008e70  x2=0x80008c17
       64915000	      6490	80003e7c	32311083	lh	x1,803(x2)	  x2:0x80008c17  x1=0x000015bb PA:0x80008f3a
       64925000	      6491	80003e80	0192ebb3	or	x23,x5,x25	  x5:0xfffffb7b x25:0x00000000 x23=0xfffffb7b
       64935000	      6492	80003e84	f04db917	auipc	x18,0xf04db	 x18=0x704dee80
       64945000	      6493	80003e88	2e411ba3	sh	x4,759(x2)	  x2:0x80008c17  x4:0x00000001 PA:0x80008f0e
       64955000	      6494	80003e8c	00ff5d93	srli	x27,x30,0xf	 x30:0x00000000 x27=0x00000000
       64965000	      6495	80003e90	2f3120a3	sw	x19,737(x2)	  x2:0x80008c17 x19:0x9e75c980 PA:0x80008ef8
       64975000	      6496	80003e94	01c44533	xor	x10,x8,x28	  x8:0x4f3ae4d8 x28:0xb72b6c00 x10=0xf81188d8
       64985000	      6497	80003e98	ca311783	lh	x15,-861(x2)	  x2:0x80008c17 x15=0x0000649c PA:0x800088ba
       64995000	      6498	80003e9c	004d8cb3	add	x25,x27,x4	 x27:0x00000000  x4:0x00000001 x25=0x00000001
       65005000	      6499	80003ea0	f1a10083	lb	x1,-230(x2)	  x2:0x80008c17  x1=0x00000024 PA:0x80008b31
       65015000	      6500	80003ea4	fb414483	lbu	x9,-76(x2)	  x2:0x80008c17  x9=0x0000007b PA:0x80008bcb
       65025000	      6501	80003ea8	01d716b3	sll	x13,x14,x29	 x14:0x80009fc4 x29:0x00000000 x13=0x80009fc4
       65035000	      6502	80003eac	40a95e13	srai	x28,x18,0xa	 x18:0x704dee80 x28=0x001c137b
       65045000	      6503	80003eb0	01da6033	or	x0,x20,x29	 x20:0xe4e90541 x29:0x00000000
       65055000	      6504	80003eb4	010f6d33	or	x26,x30,x16	 x30:0x00000000 x16:0x00000000 x26=0x00000000
       65065000	      6505	80003eb8	20fd4613	xori	x12,x26,527	 x26:0x00000000 x12=0x0000020f
       65075000	      6506	80003ebc	49e56293	ori	x5,x10,1182	 x10:0xf81188d8  x5=0xf8118cde
       65085000	      6507	80003ec0	0110e833	or	x16,x1,x17	  x1:0x00000024 x17:0x43366000 x16=0x43366024
       65095000	      6508	80003ec4	d8f11c83	lh	x25,-625(x2)	  x2:0x80008c17 x25=0xffffb97c PA:0x800089a6
       65105000	      6509	00000000	00000013	addi	x0,x0,0	  x0:0x00000000
       65115000	      6510	80003ec8	2b911283	lh	x5,697(x2)	  x2:0x80008c17  x5=0x00004625 PA:0x80008ed0
       65125000	      6511	80003ecc	fb910083	lb	x1,-71(x2)	  x2:0x80008c17  x1=0xffffff83 PA:0x80008bd0
       65135000	      6512	80003ed0	00716233	or	x4,x2,x7	  x2:0x80008c17  x7:0x2d4fc000  x4=0xad4fcc17
       65145000	      6513	80003ed4	41680eb3	sub	x29,x16,x22	 x16:0x43366024 x22:0x00000000 x29=0x43366024
       65155000	      6514	80003ed8	ce3112a3	sh	x3,-795(x2)	  x2:0x80008c17  x3:0x00000000 PA:0x800088fc
       65165000	      6515	80003edc	0fe14283	lbu	x5,254(x2)	  x2:0x80008c17  x5=0x000000f0 PA:0x80008d15
       65175000	      6516	00000000	00000013	addi	x0,x0,0	  x0:0x00000000
       65185000	      6517	80003ee0	fe510003	lb	x0,-27(x2)	  x2:0x80008c17 PA:0x80008bfc
       65195000	      6518	80003ee4	f3a14683	lbu	x13,-198(x2)	  x2:0x80008c17 x13=0x000000f1 PA:0x80008b51
       65205000	      6519	80003ee8	816cbd13	sltiu	x26,x25,-2026	 x25:0xffffb97c x26=0x00000001
       65215000	      6520	80003eec	0ee107a3	sb	x14,239(x2)	  x2:0x80008c17 x14:0x80009fc4 PA:0x80008d06
       65225000	      6521	80003ef0	008f3bb3	sltu	x23,x30,x8	 x30:0x00000000  x8:0x4f3ae4d8 x23=0x00000001
       65235000	      6522	80003ef4	38912083	lw	x1,905(x2)	  x2:0x80008c17  x1=0xdbeca59e PA:0x80008fa0
       65245000	      6523	80003ef8	13512d03	lw	x26,309(x2)	  x2:0x80008c17 x26=0xbe6e2ebe PA:0x80008d4c
       65255000	      6524	80003efc	0170c2b3	xor	x5,x1,x23	  x1:0xdbeca59e x23:0x00000001  x5=0xdbeca59f
       65265000	      6525	80003f00	f7d14883	lbu	x17,-131(x2)	  x2:0x80008c17 x17=0x00000080 PA:0x80008b94
       65275000	      6526	80003f04	3c07c397	auipc	x7,0x3c07c	  x7=0xbc07ff00
       65285000	      6527	80003f08	16c10983	lb	x19,364(x2)	  x2:0x80008c17 x19=0x00000009 PA:0x80008d83
       65295000	      6528	80003f0c	f9410b03	lb	x22,-108(x2)	  x2:0x80008c17 x22=0xffffffbc PA:0x80008bab
       65305000	      6529	80003f10	edd10503	lb	x10,-291(x2)	  x2:0x80008c17 x10=0x00000070 PA:0x80008af4
       65315000	      6530	80003f14	e97a3d97	auipc	x27,0xe97a3	 x27=0x697a6f10
       65325000	      6531	80003f18	00d62e33	slt	x28,x12,x13	 x12:0x0000020f x13:0x000000f1 x28=0x00000000
       65335000	      6532	80003f1c	5f650b13	addi	x22,x10,1526	 x10:0x00000070 x22=0x00000666
       65345000	      6533	80003f20	25b10b23	sb	x27,598(x2)	  x2:0x80008c17 x27:0x697a6f10 PA:0x80008e6d
       65355000	      6534	80003f24	db112383	lw	x7,-591(x2)	  x2:0x80008c17  x7=0xa37cb6a2 PA:0x800089c8
       65365000	      6535	80003f28	11614b83	lbu	x23,278(x2)	  x2:0x80008c17 x23=0x00000060 PA:0x80008d2d
       65375000	      6536	80003f2c	00000013	addi	x0,x0,0	  x0:0x00000000
       65385000	      6537	80003f30	01d12903	lw	x18,29(x2)	  x2:0x80008c17 x18=0xed639161 PA:0x80008c34
       65395000	      6538	80003f34	eb311903	lh	x18,-333(x2)	  x2:0x80008c17 x18=0xffffd86f PA:0x80008aca
       65405000	      6539	80003f38	40fb8e33	sub	x28,x23,x15	 x23:0x00000060 x15:0x0000649c x28=0xffff9bc4
       65415000	      6540	80003f3c	00576933	or	x18,x14,x5	 x14:0x80009fc4  x5:0xdbeca59f x18=0xdbecbfdf
       65425000	      6541	80003f40	4142da93	srai	x21,x5,0x14	  x5:0xdbeca59f x21=0xfffffdbe
       65435000	      6542	80003f44	01556263	bltu	x10,x21,80003f48	 x10:0x00000070 x21:0xfffffdbe
       65445000	      6543	00000000	00000013	addi	x0,x0,0	  x0:0x00000000
       65455000	      6544	80003f44	00000013	addi	x0,x0,0	  x0:0x00000000
       65465000	      6545	80003f48	009de033	or	x0,x27,x9	 x27:0x697a6f10  x9:0x0000007b
       65475000	      6546	80003f4c	00d41e33	sll	x28,x8,x13	  x8:0x4f3ae4d8 x13:0x000000f1 x28=0xc9b00000
       65485000	      6547	80003f50	00b3b633	sltu	x12,x7,x11	  x7:0xa37cb6a2 x11:0x00000000 x12=0x00000000
       65495000	      6548	80003f54	03a60c63	beq	x12,x26,80003f8c	 x12:0x00000000 x26:0xbe6e2ebe
       65505000	      6549	80003f58	014411b3	sll	x3,x8,x20	  x8:0x4f3ae4d8 x20:0xe4e90541  x3=0x9e75c9b0
       65515000	      6550	80003f5c	00ac6f33	or	x30,x24,x10	 x24:0x00000600 x10:0x00000070 x30=0x00000670
       65525000	      6551	80003f60	00b40933	add	x18,x8,x11	  x8:0x4f3ae4d8 x11:0x00000000 x18=0x4f3ae4d8
       65535000	      6552	80003f64	00016c63	bltu	x2,x0,80003f7c	  x2:0x80008c17  x0:0x00000000
       65545000	      6553	80003f68	01c7c0b3	xor	x1,x15,x28	 x15:0x0000649c x28:0xc9b00000  x1=0xc9b0649c
       65555000	      6554	80003f6c	016d4633	xor	x12,x26,x22	 x26:0xbe6e2ebe x22:0x00000666 x12=0xbe6e28d8
       65565000	      6555	80003f70	01cc9093	slli	x1,x25,0x1c	 x25:0xffffb97c  x1=0xc0000000
       65575000	      6556	80003f74	00000013	addi	x0,x0,0	  x0:0x00000000
       65585000	      6557	80003f78	01e1e9b3	or	x19,x3,x30	  x3:0x9e75c9b0 x30:0x00000670 x19=0x9e75cff0
       65595000	      6558	80003f7c	02a69663	bne	x13,x10,80003fa8	 x13:0x000000f1 x10:0x00000070
       65605000	      6559	00000000	00000013	addi	x0,x0,0	  x0:0x00000000
       65615000	      6560	80003fa4	00000013	addi	x0,x0,0	  x0:0x00000000
       65625000	      6561	80003fa8	2676e013	ori	x0,x13,615	 x13:0x000000f1
       65635000	      6562	80003fac	04d6c863	blt	x13,x13,80003ffc	 x13:0x000000f1 x13:0x000000f1
       65645000	      6563	80003fb0	05984063	blt	x16,x25,80003ff0	 x16:0x43366024 x25:0xffffb97c
       65655000	      6564	80003fb4	00b38233	add	x4,x7,x11	  x7:0xa37cb6a2 x11:0x00000000  x4=0xa37cb6a2
       65665000	      6565	80003fb8	016ca5b3	slt	x11,x25,x22	 x25:0xffffb97c x22:0x00000666 x11=0x00000001
       65675000	      6566	80003fbc	00000013	addi	x0,x0,0	  x0:0x00000000
       65685000	      6567	80003fc0	400d83b3	sub	x7,x27,x0	 x27:0x697a6f10  x0:0x00000000  x7=0x697a6f10
       65695000	      6568	80003fc4	410b5e13	srai	x28,x22,0x10	 x22:0x00000666 x28=0x00000000
       65705000	      6569	80003fc8	04821063	bne	x4,x8,80004008	  x4:0xa37cb6a2  x8:0x4f3ae4d8
       65715000	      6570	00000000	00000013	addi	x0,x0,0	  x0:0x00000000
       65725000	      6571	80004004	00000013	addi	x0,x0,0	  x0:0x00000000
       65735000	      6572	80004008	000c8333	add	x6,x25,x0	 x25:0xffffb97c  x0:0x00000000  x6=0xffffb97c
       65745000	      6573	8000400c	0580d263	bge	x1,x24,80004050	  x1:0xc0000000 x24:0x00000600
       65755000	      6574	80004010	00000013	addi	x0,x0,0	  x0:0x00000000
       65765000	      6575	80004014	f16cb213	sltiu	x4,x25,-234	 x25:0xffffb97c  x4=0x00000001
       65775000	      6576	80004018	041c5263	bge	x24,x1,8000405c	 x24:0x00000600  x1:0xc0000000
       65785000	      6577	00000000	00000013	addi	x0,x0,0	  x0:0x00000000
       65795000	      6578	80004058	00000013	addi	x0,x0,0	  x0:0x00000000
       65805000	      6579	8000405c	40cb5593	srai	x11,x22,0xc	 x22:0x00000666 x11=0x00000000
       65815000	      6580	80004060	00878a63	beq	x15,x8,80004074	 x15:0x0000649c  x8:0x4f3ae4d8
       65825000	      6581	80004064	4a4ca193	slti	x3,x25,1188	 x25:0xffffb97c  x3=0x00000001
       65835000	      6582	80004068	02cf2593	slti	x11,x30,44	 x30:0x00000670 x11=0x00000000
       65845000	      6583	8000406c	836b8d13	addi	x26,x23,-1994	 x23:0x00000060 x26=0xfffff896
       65855000	      6584	80004070	00865213	srli	x4,x12,0x8	 x12:0xbe6e28d8  x4=0x00be6e28
       65865000	      6585	80004074	00811133	sll	x2,x2,x8	  x2:0x80008c17  x8:0x4f3ae4d8  x2=0x17000000
       65875000	      6586	80004078	01371913	slli	x18,x14,0x13	 x14:0x80009fc4 x18=0xfe200000
       65885000	      6587	8000407c	7d81fc93	andi	x25,x3,2008	  x3:0x00000001 x25=0x00000000
       65895000	      6588	80004080	006a1e33	sll	x28,x20,x6	 x20:0xe4e90541  x6:0xffffb97c x28=0x10000000
       65905000	      6589	80004084	00b19793	slli	x15,x3,0xb	  x3:0x00000001 x15=0x00000800
       65915000	      6590	80004088	99410c93	addi	x25,x2,-1644	  x2:0x17000000 x25=0x16fff994
       65925000	      6591	8000408c	00000013	addi	x0,x0,0	  x0:0x00000000
       65935000	      6592	80004090	419fddb3	sra	x27,x31,x25	 x31:0x80009ee0 x25:0x16fff994 x27=0xfffff800
       65945000	      6593	80004094	00e68333	add	x6,x13,x14	 x13:0x000000f1 x14:0x80009fc4  x6=0x8000a0b5
       65955000	      6594	80004098	00b39693	slli	x13,x7,0xb	  x7:0x697a6f10 x13=0xd3788000
       65965000	      6595	8000409c	41e0dd33	sra	x26,x1,x30	  x1:0xc0000000 x30:0x00000670 x26=0xffffc000
       65975000	      6596	800040a0	00be59b3	srl	x19,x28,x11	 x28:0x10000000 x11:0x00000000 x19=0x10000000
       65985000	      6597	800040a4	048dd463	bge	x27,x8,800040ec	 x27:0xfffff800  x8:0x4f3ae4d8
       65995000	      6598	800040a8	9b1f7e13	andi	x28,x30,-1615	 x30:0x00000670 x28=0x00000030
       66005000	      6599	800040ac	00cf5b93	srli	x23,x30,0xc	 x30:0x00000670 x23=0x00000000
       66015000	      6600	800040b0	01ef0cb3	add	x25,x30,x30	 x30:0x00000670 x30:0x00000670 x25=0x00000ce0
       66025000	      6601	800040b4	01410e63	beq	x2,x20,800040d0	  x2:0x17000000 x20:0xe4e90541
       66035000	      6602	800040b8	00ee1233	sll	x4,x28,x14	 x28:0x00000030 x14:0x80009fc4  x4=0x00000300
       66045000	      6603	800040bc	019c1a93	slli	x21,x24,0x19	 x24:0x00000600 x21=0x00000000
       66055000	      6604	800040c0	40488e33	sub	x28,x17,x4	 x17:0x00000080  x4:0x00000300 x28=0xfffffd80
       66065000	      6605	800040c4	015d11b3	sll	x3,x26,x21	 x26:0xffffc000 x21:0x00000000  x3=0xffffc000
       66075000	      6606	800040c8	04464063	blt	x12,x4,80004108	 x12:0xbe6e28d8  x4:0x00000300
       66085000	      6607	00000000	00000013	addi	x0,x0,0	  x0:0x00000000
       66095000	      6608	80004104	00000013	addi	x0,x0,0	  x0:0x00000000
       66105000	      6609	80004108	032f9263	bne	x31,x18,8000412c	 x31:0x80009ee0 x18:0xfe200000
       66115000	      6610	00000000	00000013	addi	x0,x0,0	  x0:0x00000000
       66125000	      6611	80004128	00000013	addi	x0,x0,0	  x0:0x00000000
       66135000	      6612	8000412c	0126a533	slt	x10,x13,x18	 x13:0xd3788000 x18:0xfe200000 x10=0x00000001
       66145000	      6613	80004130	0051f033	and	x0,x3,x5	  x3:0xffffc000  x5:0xdbeca59f
       66155000	      6614	80004134	007eedb3	or	x27,x29,x7	 x29:0x43366024  x7:0x697a6f10 x27=0x6b7e6f34
       66165000	      6615	80004138	049a1063	bne	x20,x9,80004178	 x20:0xe4e90541  x9:0x0000007b
       66175000	      6616	00000000	00000013	addi	x0,x0,0	  x0:0x00000000
       66185000	      6617	80004174	00000013	addi	x0,x0,0	  x0:0x00000000
       66195000	      6618	80004178	18622e93	slti	x29,x4,390	  x4:0x00000300 x29=0x00000000
       66205000	      6619	8000417c	df59f293	andi	x5,x19,-523	 x19:0x10000000  x5=0x10000000
       66215000	      6620	80004180	002f6e63	bltu	x30,x2,8000419c	 x30:0x00000670  x2:0x17000000
       66225000	      6621	00000000	00000013	addi	x0,x0,0	  x0:0x00000000
       66235000	      6622	80004198	00000013	addi	x0,x0,0	  x0:0x00000000
       66245000	      6623	8000419c	00651c13	slli	x24,x10,0x6	 x10:0x00000001 x24=0x00000040
       66255000	      6624	800041a0	402204b3	sub	x9,x4,x2	  x4:0x00000300  x2:0x17000000  x9=0xe9000300
       66265000	      6625	800041a4	01e93cb3	sltu	x25,x18,x30	 x18:0xfe200000 x30:0x00000670 x25=0x00000000
       66275000	      6626	800041a8	00519263	bne	x3,x5,800041ac	  x3:0xffffc000  x5:0x10000000
       66285000	      6627	00000000	00000013	addi	x0,x0,0	  x0:0x00000000
       66295000	      6628	800041a8	00000013	addi	x0,x0,0	  x0:0x00000000
       66305000	      6629	800041ac	00a95663	bge	x18,x10,800041b8	 x18:0xfe200000 x10:0x00000001
       66315000	      6630	800041b0	d7866d93	ori	x27,x12,-648	 x12:0xbe6e28d8 x27=0xfffffdf8
       66325000	      6631	800041b4	00d01633	sll	x12,x0,x13	  x0:0x00000000 x13:0xd3788000 x12=0x00000000
       66335000	      6632	800041b8	60d32c93	slti	x25,x6,1549	  x6:0x8000a0b5 x25=0x00000001
       66345000	      6633	800041bc	00164e63	blt	x12,x1,800041d8	 x12:0x00000000  x1:0xc0000000
       66355000	      6634	800041c0	9ce50093	addi	x1,x10,-1586	 x10:0x00000001  x1=0xfffff9cf
       66365000	      6635	800041c4	017fe133	or	x2,x31,x23	 x31:0x80009ee0 x23:0x00000000  x2=0x80009ee0
       66375000	      6636	800041c8	00dc3b33	sltu	x22,x24,x13	 x24:0x00000040 x13:0xd3788000 x22=0x00000001
       66385000	      6637	800041cc	003bf0b3	and	x1,x23,x3	 x23:0x00000000  x3:0xffffc000  x1=0x00000000
       66395000	      6638	800041d0	00e5d413	srli	x8,x11,0xe	 x11:0x00000000  x8=0x00000000
       66405000	      6639	800041d4	00905d93	srli	x27,x0,0x9	  x0:0x00000000 x27=0x00000000
       66415000	      6640	800041d8	016a9b93	slli	x23,x21,0x16	 x21:0x00000000 x23=0x00000000
       66425000	      6641	800041dc	00cf8cb3	add	x25,x31,x12	 x31:0x80009ee0 x12:0x00000000 x25=0x80009ee0
       66435000	      6642	800041e0	013b6533	or	x10,x22,x19	 x22:0x00000001 x19:0x10000000 x10=0x10000001
       66445000	      6643	800041e4	414d5c13	srai	x24,x26,0x14	 x26:0xffffc000 x24=0xffffffff
       66455000	      6644	800041e8	01d005b3	add	x11,x0,x29	  x0:0x00000000 x29:0x00000000 x11=0x00000000
       66465000	      6645	800041ec	00b27e33	and	x28,x4,x11	  x4:0x00000300 x11:0x00000000 x28=0x00000000
       66475000	      6646	800041f0	00af39b3	sltu	x19,x30,x10	 x30:0x00000670 x10:0x10000001 x19=0x00000001
       66485000	      6647	800041f4	01c6ea63	bltu	x13,x28,80004208	 x13:0xd3788000 x28:0x00000000
       66495000	      6648	800041f8	00354cb3	xor	x25,x10,x3	 x10:0x10000001  x3:0xffffc000 x25=0xefffc001
       66505000	      6649	800041fc	019d1f13	slli	x30,x26,0x19	 x26:0xffffc000 x30=0x00000000
       66515000	      6650	80004200	017f8db3	add	x27,x31,x23	 x31:0x80009ee0 x23:0x00000000 x27=0x80009ee0
       66525000	      6651	80004204	01da79b3	and	x19,x20,x29	 x20:0xe4e90541 x29:0x00000000 x19=0x00000000
       66535000	      6652	80004208	64e63d93	sltiu	x27,x12,1614	 x12:0x00000000 x27=0x00000001
       66545000	      6653	8000420c	01f5c5b3	xor	x11,x11,x31	 x11:0x00000000 x31:0x80009ee0 x11=0x80009ee0
       66555000	      6654	80004210	01f200b3	add	x1,x4,x31	  x4:0x00000300 x31:0x80009ee0  x1=0x8000a1e0
       66565000	      6655	80004214	7fc2f493	andi	x9,x5,2044	  x5:0x10000000  x9=0x00000000
       66575000	      6656	80004218	003f3db3	sltu	x27,x30,x3	 x30:0x00000000  x3:0xffffc000 x27=0x00000001
       66585000	      6657	8000421c	01954e63	blt	x10,x25,80004238	 x10:0x10000001 x25:0xefffc001
       66595000	      6658	80004220	017de463	bltu	x27,x23,80004228	 x27:0x00000001 x23:0x00000000
       66605000	      6659	80004224	02a35c63	bge	x6,x10,8000425c	  x6:0x8000a0b5 x10:0x10000001
       66615000	      6660	80004228	5308b093	sltiu	x1,x17,1328	 x17:0x00000080  x1=0x00000001
       66625000	      6661	8000422c	401d04b3	sub	x9,x26,x1	 x26:0xffffc000  x1:0x00000001  x9=0xffffbfff
       66635000	      6662	80004230	00a49663	bne	x9,x10,8000423c	  x9:0xffffbfff x10:0x10000001
       66645000	      6663	00000000	00000013	addi	x0,x0,0	  x0:0x00000000
       66655000	      6664	80004238	00000013	addi	x0,x0,0	  x0:0x00000000
       66665000	      6665	8000423c	01ffd093	srli	x1,x31,0x1f	 x31:0x80009ee0  x1=0x00000001
       66675000	      6666	80004240	00fb4b33	xor	x22,x22,x15	 x22:0x00000001 x15:0x00000800 x22=0x00000801
       66685000	      6667	80004244	00000013	addi	x0,x0,0	  x0:0x00000000
       66695000	      6668	80004248	4a877593	andi	x11,x14,1192	 x14:0x80009fc4 x11=0x00000480
       66705000	      6669	8000424c	ceb10913	addi	x18,x2,-789	  x2:0x80009ee0 x18=0x80009bcb
       66715000	      6670	80004250	00d23c33	sltu	x24,x4,x13	  x4:0x00000300 x13:0xd3788000 x24=0x00000001
       66725000	      6671	80004254	00886263	bltu	x16,x8,80004258	 x16:0x43366024  x8:0x00000000
       66735000	      6672	80004258	94576c13	ori	x24,x14,-1723	 x14:0x80009fc4 x24=0xffffffc5
       66745000	      6673	8000425c	009fd0b3	srl	x1,x31,x9	 x31:0x80009ee0  x9:0xffffbfff  x1=0x00000001
       66755000	      6674	80004260	01c33db3	sltu	x27,x6,x28	  x6:0x8000a0b5 x28:0x00000000 x27=0x00000000
       66765000	      6675	80004264	00000013	addi	x0,x0,0	  x0:0x00000000
       66775000	      6676	80004268	01ee5513	srli	x10,x28,0x1e	 x28:0x00000000 x10=0x00000000
       66785000	      6677	8000426c	01b8a6b3	slt	x13,x17,x27	 x17:0x00000080 x27:0x00000000 x13=0x00000000
       66795000	      6678	80004270	00000013	addi	x0,x0,0	  x0:0x00000000
       66805000	      6679	80004274	45272113	slti	x2,x14,1106	 x14:0x80009fc4  x2=0x00000001
       66815000	      6680	80004278	416f5a93	srai	x21,x30,0x16	 x30:0x00000000 x21=0x00000000
       66825000	      6681	8000427c	5d914813	xori	x16,x2,1497	  x2:0x00000001 x16=0x000005d8
       66835000	      6682	80004280	31178617	auipc	x12,0x31178	 x12=0xb117c27c
       66845000	      6683	80004284	7823f293	andi	x5,x7,1922	  x7:0x697a6f10  x5=0x00000700
       66855000	      6684	80004288	034f9c63	bne	x31,x20,800042c0	 x31:0x80009ee0 x20:0xe4e90541
       66865000	      6685	00000000	00000013	addi	x0,x0,0	  x0:0x00000000
       66875000	      6686	800042bc	00000013	addi	x0,x0,0	  x0:0x00000000
       66885000	      6687	800042c0	01324e63	blt	x4,x19,800042dc	  x4:0x00000300 x19:0x00000000
       66895000	      6688	800042c4	052e7863	bgeu	x28,x18,80004314	 x28:0x00000000 x18:0x80009bcb
       66905000	      6689	800042c8	00294433	xor	x8,x18,x2	 x18:0x80009bcb  x2:0x00000001  x8=0x80009bca
       66915000	      6690	800042cc	419a87b3	sub	x15,x21,x25	 x21:0x00000000 x25:0xefffc001 x15=0x10003fff
       66925000	      6691	800042d0	01747cb3	and	x25,x8,x23	  x8:0x80009bca x23:0x00000000 x25=0x00000000
       66935000	      6692	800042d4	00eb5413	srli	x8,x22,0xe	 x22:0x00000801  x8=0x00000000
       66945000	      6693	800042d8	000a9bb3	sll	x23,x21,x0	 x21:0x00000000  x0:0x00000000 x23=0x00000000
       66955000	      6694	800042dc	e6ea8e93	addi	x29,x21,-402	 x21:0x00000000 x29=0xfffffe6e
       66965000	      6695	800042e0	41948eb3	sub	x29,x9,x25	  x9:0xffffbfff x25:0x00000000 x29=0xffffbfff
       66975000	      6696	800042e4	03c30263	beq	x6,x28,80004308	  x6:0x8000a0b5 x28:0x00000000
       66985000	      6697	800042e8	00b7b033	sltu	x0,x15,x11	 x15:0x10003fff x11:0x00000480
       66995000	      6698	800042ec	005d9463	bne	x27,x5,800042f4	 x27:0x00000000  x5:0x00000700
       67005000	      6699	00000000	00000013	addi	x0,x0,0	  x0:0x00000000
       67015000	      6700	800042f0	00000013	addi	x0,x0,0	  x0:0x00000000
       67025000	      6701	800042f4	00edbdb3	sltu	x27,x27,x14	 x27:0x00000000 x14:0x80009fc4 x27=0x00000001
       67035000	      6702	800042f8	00b61e93	slli	x29,x12,0xb	 x12:0xb117c27c x29=0xbe13e000
       67045000	      6703	800042fc	00000013	addi	x0,x0,0	  x0:0x00000000
       67055000	      6704	80004300	00c10c63	beq	x2,x12,80004318	  x2:0x00000001 x12:0xb117c27c
       67065000	      6705	80004304	67827917	auipc	x18,0x67827	 x18=0xe782b300
       67075000	      6706	80004308	93c42137	lui	x2,0x93c42	  x2=0x93c42000
       67085000	      6707	8000430c	0118d3b3	srl	x7,x17,x17	 x17:0x00000080 x17:0x00000080  x7=0x00000080
       67095000	      6708	80004310	95eaab93	slti	x23,x21,-1698	 x21:0x00000000 x23=0x00000000
       67105000	      6709	80004314	01b91213	slli	x4,x18,0x1b	 x18:0xe782b300  x4=0x00000000
       67115000	      6710	80004318	05a41197	auipc	x3,0x5a41	  x3=0x85a45314
       67125000	      6711	8000431c	014311b3	sll	x3,x6,x20	  x6:0x8000a0b5 x20:0xe4e90541  x3=0x0001416a
       67135000	      6712	80004320	0040f833	and	x16,x1,x4	  x1:0x00000001  x4:0x00000000 x16=0x00000000
       67145000	      6713	80004324	01cb7663	bgeu	x22,x28,80004330	 x22:0x00000801 x28:0x00000000
       67155000	      6714	00000000	00000013	addi	x0,x0,0	  x0:0x00000000
       67165000	      6715	8000432c	00000013	addi	x0,x0,0	  x0:0x00000000
       67175000	      6716	80004330	00a1d6b3	srl	x13,x3,x10	  x3:0x0001416a x10:0x00000000 x13=0x0001416a
       67185000	      6717	80004334	00e08633	add	x12,x1,x14	  x1:0x00000001 x14:0x80009fc4 x12=0x80009fc5
       67195000	      6718	80004338	016b7f33	and	x30,x22,x22	 x22:0x00000801 x22:0x00000801 x30=0x00000801
       67205000	      6719	8000433c	00595c93	srli	x25,x18,0x5	 x18:0xe782b300 x25=0x073c1598
       67215000	      6720	80004340	05d7c663	blt	x15,x29,8000438c	 x15:0x10003fff x29:0xbe13e000
       67225000	      6721	80004344	0053d933	srl	x18,x7,x5	  x7:0x00000080  x5:0x00000700 x18=0x00000080
       67235000	      6722	80004348	6fea7b13	andi	x22,x20,1790	 x20:0xe4e90541 x22=0x00000440
       67245000	      6723	8000434c	01806033	or	x0,x0,x24	  x0:0x00000000 x24:0xffffffc5
       67255000	      6724	80004350	01d7eab3	or	x21,x15,x29	 x15:0x10003fff x29:0xbe13e000 x21=0xbe13ffff
       67265000	      6725	80004354	01825833	srl	x16,x4,x24	  x4:0x00000000 x24:0xffffffc5 x16=0x00000000
       67275000	      6726	80004358	01509b13	slli	x22,x1,0x15	  x1:0x00000001 x22=0x00200000
       67285000	      6727	8000435c	0156abb3	slt	x23,x13,x21	 x13:0x0001416a x21:0xbe13ffff x23=0x00000000
       67295000	      6728	80004360	00d67b33	and	x22,x12,x13	 x12:0x80009fc5 x13:0x0001416a x22=0x00000140
       67305000	      6729	80004364	011ad813	srli	x16,x21,0x11	 x21:0xbe13ffff x16=0x00005f09
       67315000	      6730	80004368	01644e63	blt	x8,x22,80004384	  x8:0x00000000 x22:0x00000140
       67325000	      6731	00000000	00000013	addi	x0,x0,0	  x0:0x00000000
       67335000	      6732	80004380	00000013	addi	x0,x0,0	  x0:0x00000000
       67345000	      6733	80004384	01f28333	add	x6,x5,x31	  x5:0x00000700 x31:0x80009ee0  x6=0x8000a5e0
       67355000	      6734	80004388	00000013	addi	x0,x0,0	  x0:0x00000000
       67365000	      6735	8000438c	e1376537	lui	x10,0xe1376	 x10=0xe1376000
       67375000	      6736	80004390	4fa72b13	slti	x22,x14,1274	 x14:0x80009fc4 x22=0x00000001
       67385000	      6737	80004394	00131693	slli	x13,x6,0x1	  x6:0x8000a5e0 x13=0x00014bc0
       67395000	      6738	80004398	00a2fd33	and	x26,x5,x10	  x5:0x00000700 x10:0xe1376000 x26=0x00000000
       67405000	      6739	8000439c	01d496b3	sll	x13,x9,x29	  x9:0xffffbfff x29:0xbe13e000 x13=0xffffbfff
       67415000	      6740	800043a0	b2e7a4b7	lui	x9,0xb2e7a	  x9=0xb2e7a000
       67425000	      6741	800043a4	004fa283	lw	x5,4(x31)	 x31:0x80009ee0  x5=0x8000190c PA:0x80009ee4
       67435000	      6742	800043a8	017e37b3	sltu	x15,x28,x23	 x28:0x00000000 x23:0x00000000 x15=0x00000000
       67445000	      6743	800043ac	01be9933	sll	x18,x29,x27	 x29:0xbe13e000 x27:0x00000001 x18=0x7c27c000
       67455000	      6744	800043b0	0064d333	srl	x6,x9,x6	  x9:0xb2e7a000  x6:0x8000a5e0  x6=0xb2e7a000
       67465000	      6745	800043b4	0058e833	or	x16,x17,x5	 x17:0x00000080  x5:0x8000190c x16=0x8000198c
       67475000	      6746	800043b8	01cf8f93	addi	x31,x31,28	 x31:0x80009ee0 x31=0x80009efc
       67485000	      6747	800043bc	41d6d613	srai	x12,x13,0x1d	 x13:0xffffbfff x12=0xffffffff
       67495000	      6748	800043c0	00128893	addi	x17,x5,1	  x5:0x8000190c x17=0x8000190d
       67505000	      6749	800043c4	000888e7	jalr	x17,x17,0	 x17:0x8000190d x17=0x800043c4
       67515000	      6750	00000000	00000013	addi	x0,x0,0	  x0:0x00000000
       67525000	      6751	8000190c	00000013	addi	x0,x0,0	  x0:0x00000000
       67535000	      6752	80001910	41e98633	sub	x12,x19,x30	 x19:0x00000000 x30:0x00000801 x12=0xfffff7ff
       67545000	      6753	80001914	018465b3	or	x11,x8,x24	  x8:0x00000000 x24:0xffffffc5 x11=0xffffffc5
       67555000	      6754	80001918	03b3c463	blt	x7,x27,80001940	  x7:0x00000080 x27:0x00000001
       67565000	      6755	8000191c	016d9293	slli	x5,x27,0x16	 x27:0x00000001  x5=0x00400000
       67575000	      6756	80001920	02b09063	bne	x1,x11,80001940	  x1:0x00000001 x11:0xffffffc5
       67585000	      6757	00000000	00000013	addi	x0,x0,0	  x0:0x00000000
       67595000	      6758	8000193c	00000013	addi	x0,x0,0	  x0:0x00000000
       67605000	      6759	80001940	00ff67b3	or	x15,x30,x15	 x30:0x00000801 x15:0x00000000 x15=0x00000801
       67615000	      6760	80001944	00425cb3	srl	x25,x4,x4	  x4:0x00000000  x4:0x00000000 x25=0x00000000
       67625000	      6761	80001948	4140d5b3	sra	x11,x1,x20	  x1:0x00000001 x20:0xe4e90541 x11=0x00000000
       67635000	      6762	8000194c	004fa283	lw	x5,4(x31)	 x31:0x80009efc  x5=0x800004fc PA:0x80009f00
       67645000	      6763	80001950	02cf8f93	addi	x31,x31,44	 x31:0x80009efc x31=0x80009f28
       67655000	      6764	80001954	4e8ffb13	andi	x22,x31,1256	 x31:0x80009f28 x22=0x00000428
       67665000	      6765	80001958	01111db3	sll	x27,x2,x17	  x2:0x93c42000 x17:0x800043c4 x27=0x3c420000
       67675000	      6766	8000195c	00028b13	addi	x22,x5,0	  x5:0x800004fc x22=0x800004fc
       67685000	      6767	80001960	000b0b67	jalr	x22,x22,0	 x22:0x800004fc x22=0x80001960
       67695000	      6768	00000000	00000013	addi	x0,x0,0	  x0:0x00000000
       67705000	      6769	800004fc	00000013	addi	x0,x0,0	  x0:0x00000000
       67715000	      6770	80000500	008448b3	xor	x17,x8,x8	  x8:0x00000000  x8:0x00000000 x17=0x00000000
       67725000	      6771	80000504	00004b97	auipc	x23,0x4	 x23=0x80004500
       67735000	      6772	80000508	09cb8b93	addi	x23,x23,156	 x23:0x80004500 x23=0x8000459c
       67745000	      6773	8000050c	4d520613	addi	x12,x4,1237	  x4:0x00000000 x12=0x000004d5
       67755000	      6774	80000510	cf8b8b93	addi	x23,x23,-776	 x23:0x8000459c x23=0x80004294
       67765000	      6775	80000514	729a7593	andi	x11,x20,1833	 x20:0xe4e90541 x11=0x00000501
       67775000	      6776	80000518	001e43b3	xor	x7,x28,x1	 x28:0x00000000  x1:0x00000001  x7=0x00000001
       67785000	      6777	8000051c	007c42b3	xor	x5,x24,x7	 x24:0xffffffc5  x7:0x00000001  x5=0xffffffc4
       67795000	      6778	80000520	309b82e7	jalr	x5,x23,777	 x23:0x80004294  x5=0x80000520
       67805000	      6779	00000000	00000013	addi	x0,x0,0	  x0:0x00000000
       67815000	      6780	8000459c	00000013	addi	x0,x0,0	  x0:0x00000000
       67825000	      6781	800045a0	41c28f33	sub	x30,x5,x28	  x5:0x80000520 x28:0x00000000 x30=0x80000520
       67835000	      6782	800045a4	fe4f8f93	addi	x31,x31,-28	 x31:0x80009f28 x31=0x80009f0c
       67845000	      6783	800045a8	017c8d33	add	x26,x25,x23	 x25:0x00000000 x23:0x80004294 x26=0x80004294
       67855000	      6784	800045ac	80ba7e93	andi	x29,x20,-2037	 x20:0xe4e90541 x29=0xe4e90001
       67865000	      6785	800045b0	005fa223	sw	x5,4(x31)	 x31:0x80009f0c  x5:0x80000520 PA:0x80009f10
       67875000	      6786	800045b4	015adb33	srl	x22,x21,x21	 x21:0xbe13ffff x21:0xbe13ffff x22=0x00000001
       67885000	      6787	800045b8	01ef50b3	srl	x1,x30,x30	 x30:0x80000520 x30:0x80000520  x1=0x80000520
       67895000	      6788	800045bc	401488b3	sub	x17,x9,x1	  x9:0xb2e7a000  x1:0x80000520 x17=0x32e79ae0
       67905000	      6789	800045c0	641e0593	addi	x11,x28,1601	 x28:0x00000000 x11=0x00000641
       67915000	      6790	800045c4	010f9c33	sll	x24,x31,x16	 x31:0x80009f0c x16:0x8000198c x24=0x09f0c000
       67925000	      6791	800045c8	01861993	slli	x19,x12,0x18	 x12:0x000004d5 x19=0xd5000000
       67935000	      6792	800045cc	40845093	srai	x1,x8,0x8	  x8:0x00000000  x1=0x00000000
       67945000	      6793	800045d0	00000013	addi	x0,x0,0	  x0:0x00000000
       67955000	      6794	800045d4	b90fd2ef	jal	x5,800045d4	  x5=0x800045d4
       67965000	      6795	00000000	00000013	addi	x0,x0,0	  x0:0x00000000
       67975000	      6796	80001960	00000013	addi	x0,x0,0	  x0:0x00000000
       67985000	      6797	80001964	0104f463	bgeu	x9,x16,8000196c	  x9:0xb2e7a000 x16:0x8000198c
       67995000	      6798	00000000	00000013	addi	x0,x0,0	  x0:0x00000000
       68005000	      6799	80001968	00000013	addi	x0,x0,0	  x0:0x00000000
       68015000	      6800	8000196c	fdcf8f93	addi	x31,x31,-36	 x31:0x80009f0c x31=0x80009ee8
       68025000	      6801	80001970	6a92c913	xori	x18,x5,1705	  x5:0x800045d4 x18=0x8000437d
       68035000	      6802	80001974	9c654e93	xori	x29,x10,-1594	 x10:0xe1376000 x29=0x1ec899c6
       68045000	      6803	80001978	005fa223	sw	x5,4(x31)	 x31:0x80009ee8  x5:0x800045d4 PA:0x80009eec
       68055000	      6804	8000197c	e6728113	addi	x2,x5,-409	  x5:0x800045d4  x2=0x8000443b
       68065000	      6805	80001980	00005697	auipc	x13,0x5	 x13=0x8000697c
       68075000	      6806	80001984	1ec68693	addi	x13,x13,492	 x13:0x8000697c x13=0x80006b68
       68085000	      6807	80001988	005e2e33	slt	x28,x28,x5	 x28:0x00000000  x5:0x800045d4 x28=0x00000000
       68095000	      6808	8000198c	19468693	addi	x13,x13,404	 x13:0x80006b68 x13=0x80006cfc
       68105000	      6809	80001990	65aeac97	auipc	x25,0x65aea	 x25=0xe5aeb98c
       68115000	      6810	80001994	0121da63	bge	x3,x18,800019a8	  x3:0x0001416a x18:0x8000437d
       68125000	      6811	00000000	00000013	addi	x0,x0,0	  x0:0x00000000
       68135000	      6812	800019a4	00000013	addi	x0,x0,0	  x0:0x00000000
       68145000	      6813	800019a8	e6c682e7	jalr	x5,x13,-404	 x13:0x80006cfc  x5=0x800019a8
       68155000	      6814	00000000	00000013	addi	x0,x0,0	  x0:0x00000000
       68165000	      6815	80006b68	00000013	addi	x0,x0,0	  x0:0x00000000
       68175000	      6816	80006b6c	cc06a813	slti	x16,x13,-832	 x13:0x80006cfc x16=0x00000001
       68185000	      6817	80006b70	0acb6e13	ori	x28,x22,172	 x22:0x00000001 x28=0x000000ad
       68195000	      6818	80006b74	90017b13	andi	x22,x2,-1792	  x2:0x8000443b x22=0x80004000
       68205000	      6819	80006b78	30f49317	auipc	x6,0x30f49	  x6=0xb0f4fb74
       68215000	      6820	80006b7c	00f76463	bltu	x14,x15,80006b84	 x14:0x80009fc4 x15:0x00000801
       68225000	      6821	80006b80	000ac933	xor	x18,x21,x0	 x21:0xbe13ffff  x0:0x00000000 x18=0xbe13ffff
       68235000	      6822	80006b84	fd8f8f93	addi	x31,x31,-40	 x31:0x80009ee8 x31=0x80009ec0
       68245000	      6823	80006b88	005fa223	sw	x5,4(x31)	 x31:0x80009ec0  x5:0x800019a8 PA:0x80009ec4
       68255000	      6824	80006b8c	b61be913	ori	x18,x23,-1183	 x23:0x80004294 x18=0xfffffbf5
       68265000	      6825	80006b90	e6600c13	addi	x24,x0,-410	  x0:0x00000000 x24=0xfffffe66
       68275000	      6826	80006b94	000f1d33	sll	x26,x30,x0	 x30:0x80000520  x0:0x00000000 x26=0x80000520
       68285000	      6827	80006b98	01b23233	sltu	x4,x4,x27	  x4:0x00000000 x27:0x3c420000  x4=0x00000001
       68295000	      6828	80006b9c	d8229b97	auipc	x23,0xd8229	 x23=0x5822fb98
       68305000	      6829	80006ba0	01558863	beq	x11,x21,80006bb0	 x11:0x00000641 x21:0xbe13ffff
       68315000	      6830	80006ba4	00daaab3	slt	x21,x21,x13	 x21:0xbe13ffff x13:0x80006cfc x21=0x00000000
       68325000	      6831	80006ba8	ce589cb7	lui	x25,0xce589	 x25=0xce589000
       68335000	      6832	80006bac	0f1f3d97	auipc	x27,0xf1f3	 x27=0x8f1f9ba8
       68345000	      6833	80006bb0	002fd2b3	srl	x5,x31,x2	 x31:0x80009ec0  x2:0x8000443b  x5=0x00000010
       68355000	      6834	80006bb4	01edab33	slt	x22,x27,x30	 x27:0x8f1f9ba8 x30:0x80000520 x22=0x00000000
       68365000	      6835	80006bb8	0148e863	bltu	x17,x20,80006bc8	 x17:0x32e79ae0 x20:0xe4e90541
       68375000	      6836	00000000	00000013	addi	x0,x0,0	  x0:0x00000000
       68385000	      6837	80006bc4	00000013	addi	x0,x0,0	  x0:0x00000000
       68395000	      6838	80006bc8	0100ceb3	xor	x29,x1,x16	  x1:0x00000000 x16:0x00000001 x29=0x00000001
       68405000	      6839	80006bcc	01bc5263	bge	x24,x27,80006bd0	 x24:0xfffffe66 x27:0x8f1f9ba8
       68415000	      6840	00000000	00000013	addi	x0,x0,0	  x0:0x00000000
       68425000	      6841	80006bcc	00000013	addi	x0,x0,0	  x0:0x00000000
       68435000	      6842	80006bd0	00354c33	xor	x24,x10,x3	 x10:0xe1376000  x3:0x0001416a x24=0xe136216a
       68445000	      6843	80006bd4	419f5eb3	sra	x29,x30,x25	 x30:0x80000520 x25:0xce589000 x29=0x80000520
       68455000	      6844	80006bd8	004fa283	lw	x5,4(x31)	 x31:0x80009ec0  x5=0x800019a8 PA:0x80009ec4
       68465000	      6845	80006bdc	42c82e13	slti	x28,x16,1068	 x16:0x00000001 x28=0x00000001
       68475000	      6846	80006be0	028f8f93	addi	x31,x31,40	 x31:0x80009ec0 x31=0x80009ee8
       68485000	      6847	80006be4	00a40333	add	x6,x8,x10	  x8:0x00000000 x10:0xe1376000  x6=0xe1376000
       68495000	      6848	80006be8	006c56b3	srl	x13,x24,x6	 x24:0xe136216a  x6:0xe1376000 x13=0xe136216a
       68505000	      6849	80006bec	40c10d33	sub	x26,x2,x12	  x2:0x8000443b x12:0x000004d5 x26=0x80003f66
       68515000	      6850	80006bf0	00441433	sll	x8,x8,x4	  x8:0x00000000  x4:0x00000001  x8=0x00000000
       68525000	      6851	80006bf4	00128413	addi	x8,x5,1	  x5:0x800019a8  x8=0x800019a9
       68535000	      6852	80006bf8	00040467	jalr	x8,x8,0	  x8:0x800019a9  x8=0x80006bf8
       68545000	      6853	00000000	00000013	addi	x0,x0,0	  x0:0x00000000
       68555000	      6854	800019a8	00000013	addi	x0,x0,0	  x0:0x00000000
       68565000	      6855	800019ac	020dfc63	bgeu	x27,x0,800019e4	 x27:0x8f1f9ba8  x0:0x00000000
       68575000	      6856	00000000	00000013	addi	x0,x0,0	  x0:0x00000000
       68585000	      6857	800019e0	00000013	addi	x0,x0,0	  x0:0x00000000
       68595000	      6858	800019e4	cc6fed13	ori	x26,x31,-826	 x31:0x80009ee8 x26=0xfffffeee
       68605000	      6859	800019e8	01981933	sll	x18,x16,x25	 x16:0x00000001 x25:0xce589000 x18=0x00000001
       68615000	      6860	800019ec	5e853493	sltiu	x9,x10,1512	 x10:0xe1376000  x9=0x00000000
       68625000	      6861	800019f0	03ff8863	beq	x31,x31,80001a20	 x31:0x80009ee8 x31:0x80009ee8
       68635000	      6862	00000000	00000013	addi	x0,x0,0	  x0:0x00000000
       68645000	      6863	80001a1c	00000013	addi	x0,x0,0	  x0:0x00000000
       68655000	      6864	80001a20	01fc1113	slli	x2,x24,0x1f	 x24:0xe136216a  x2=0x00000000
       68665000	      6865	80001a24	9fd62793	slti	x15,x12,-1539	 x12:0x000004d5 x15=0x00000000
       68675000	      6866	80001a28	00000013	addi	x0,x0,0	  x0:0x00000000
       68685000	      6867	80001a2c	0380c463	blt	x1,x24,80001a54	  x1:0x00000000 x24:0xe136216a
       68695000	      6868	80001a30	7de80613	addi	x12,x16,2014	 x16:0x00000001 x12=0x000007df
       68705000	      6869	80001a34	984418b7	lui	x17,0x98441	 x17=0x98441000
       68715000	      6870	80001a38	016e00b3	add	x1,x28,x22	 x28:0x00000001 x22:0x00000000  x1=0x00000001
       68725000	      6871	80001a3c	40c80c33	sub	x24,x16,x12	 x16:0x00000001 x12:0x000007df x24=0xfffff822
       68735000	      6872	80001a40	015c75b3	and	x11,x24,x21	 x24:0xfffff822 x21:0x00000000 x11=0x00000000
       68745000	      6873	80001a44	01aff5b3	and	x11,x31,x26	 x31:0x80009ee8 x26:0xfffffeee x11=0x80009ee8
       68755000	      6874	80001a48	406e54b3	sra	x9,x28,x6	 x28:0x00000001  x6:0xe1376000  x9=0x00000001
       68765000	      6875	80001a4c	8e297797	auipc	x15,0x8e297	 x15=0x0e298a48
       68775000	      6876	80001a50	02424a63	blt	x4,x4,80001a84	  x4:0x00000001  x4:0x00000001
       68785000	      6877	80001a54	0062b933	sltu	x18,x5,x6	  x5:0x800019a8  x6:0xe1376000 x18=0x00000001
       68795000	      6878	80001a58	80006d97	auipc	x27,0x80006	 x27=0x00007a54
       68805000	      6879	80001a5c	00e5b333	sltu	x6,x11,x14	 x11:0x80009ee8 x14:0x80009fc4  x6=0x00000001
       68815000	      6880	80001a60	00411033	sll	x0,x2,x4	  x2:0x00000000  x4:0x00000001
       68825000	      6881	80001a64	41095113	srai	x2,x18,0x10	 x18:0x00000001  x2=0x00000000
       68835000	      6882	80001a68	f959c913	xori	x18,x19,-107	 x19:0xd5000000 x18=0x2affff95
       68845000	      6883	80001a6c	00bd9333	sll	x6,x27,x11	 x27:0x00007a54 x11:0x80009ee8  x6=0x007a5400
       68855000	      6884	80001a70	00177033	and	x0,x14,x1	 x14:0x80009fc4  x1:0x00000001
       68865000	      6885	80001a74	0328fa63	bgeu	x17,x18,80001aa8	 x17:0x98441000 x18:0x2affff95
       68875000	      6886	00000000	00000013	addi	x0,x0,0	  x0:0x00000000
       68885000	      6887	80001aa4	00000013	addi	x0,x0,0	  x0:0x00000000
       68895000	      6888	80001aa8	043be863	bltu	x23,x3,80001af8	 x23:0x5822fb98  x3:0x0001416a
       68905000	      6889	80001aac	05897463	bgeu	x18,x24,80001af4	 x18:0x2affff95 x24:0xfffff822
       68915000	      6890	80001ab0	2df68f13	addi	x30,x13,735	 x13:0xe136216a x30=0xe1362449
       68925000	      6891	80001ab4	00f75e63	bge	x14,x15,80001ad0	 x14:0x80009fc4 x15:0x0e298a48
       68935000	      6892	80001ab8	02114c63	blt	x2,x1,80001af0	  x2:0x00000000  x1:0x00000001
       68945000	      6893	00000000	00000013	addi	x0,x0,0	  x0:0x00000000
       68955000	      6894	80001aec	00000013	addi	x0,x0,0	  x0:0x00000000
       68965000	      6895	80001af0	01044833	xor	x16,x8,x16	  x8:0x80006bf8 x16:0x00000001 x16=0x80006bf9
       68975000	      6896	80001af4	00309893	slli	x17,x1,0x3	  x1:0x00000001 x17=0x00000008
       68985000	      6897	80001af8	8e233e93	sltiu	x29,x6,-1822	  x6:0x007a5400 x29=0x00000001
       68995000	      6898	80001afc	89f8f113	andi	x2,x17,-1889	 x17:0x00000008  x2=0x00000008
       69005000	      6899	80001b00	01e0eeb3	or	x29,x1,x30	  x1:0x00000001 x30:0xe1362449 x29=0xe1362449
       69015000	      6900	80001b04	d47a3d13	sltiu	x26,x20,-697	 x20:0xe4e90541 x26=0x00000001
       69025000	      6901	80001b08	00c29a63	bne	x5,x12,80001b1c	  x5:0x800019a8 x12:0x000007df
       69035000	      6902	00000000	00000013	addi	x0,x0,0	  x0:0x00000000
       69045000	      6903	80001b18	00000013	addi	x0,x0,0	  x0:0x00000000
       69055000	      6904	80001b1c	ccc60113	addi	x2,x12,-820	 x12:0x000007df  x2=0x000004ab
       69065000	      6905	80001b20	00edec63	bltu	x27,x14,80001b38	 x27:0x00007a54 x14:0x80009fc4
       69075000	      6906	00000000	00000013	addi	x0,x0,0	  x0:0x00000000
       69085000	      6907	80001b34	00000013	addi	x0,x0,0	  x0:0x00000000
       69095000	      6908	80001b38	00334db3	xor	x27,x6,x3	  x6:0x007a5400  x3:0x0001416a x27=0x007b156a
       69105000	      6909	80001b3c	0826ec93	ori	x25,x13,130	 x13:0xe136216a x25=0xe13621ea
       69115000	      6910	80001b40	33c93413	sltiu	x8,x18,828	 x18:0x2affff95  x8=0x00000000
       69125000	      6911	80001b44	009a5d33	srl	x26,x20,x9	 x20:0xe4e90541  x9:0x00000001 x26=0x727482a0
       69135000	      6912	80001b48	d5122113	slti	x2,x4,-687	  x4:0x00000001  x2=0x00000000
       69145000	      6913	80001b4c	5add2c17	auipc	x24,0x5add2	 x24=0xdadd3b48
       69155000	      6914	80001b50	004ad1b3	srl	x3,x21,x4	 x21:0x00000000  x4:0x00000001  x3=0x00000000
       69165000	      6915	80001b54	2b750493	addi	x9,x10,695	 x10:0xe1376000  x9=0xe13762b7
       69175000	      6916	80001b58	00f831b3	sltu	x3,x16,x15	 x16:0x80006bf9 x15:0x0e298a48  x3=0x00000000
       69185000	      6917	80001b5c	40090633	sub	x12,x18,x0	 x18:0x2affff95  x0:0x00000000 x12=0x2affff95
       69195000	      6918	80001b60	40c55893	srai	x17,x10,0xc	 x10:0xe1376000 x17=0xfffe1376
       69205000	      6919	80001b64	3f8a8113	addi	x2,x21,1016	 x21:0x00000000  x2=0x000003f8
       69215000	      6920	80001b68	00b7a0b3	slt	x1,x15,x11	 x15:0x0e298a48 x11:0x80009ee8  x1=0x00000000
       69225000	      6921	80001b6c	0186de63	bge	x13,x24,80001b88	 x13:0xe136216a x24:0xdadd3b48
       69235000	      6922	00000000	00000013	addi	x0,x0,0	  x0:0x00000000
       69245000	      6923	80001b84	00000013	addi	x0,x0,0	  x0:0x00000000
       69255000	      6924	80001b88	005169b3	or	x19,x2,x5	  x2:0x000003f8  x5:0x800019a8 x19=0x80001bf8
       69265000	      6925	80001b8c	968a2837	lui	x16,0x968a2	 x16=0x968a2000
       69275000	      6926	80001b90	d62b6397	auipc	x7,0xd62b6	  x7=0x562b7b8c
       69285000	      6927	80001b94	d2034b97	auipc	x23,0xd2034	 x23=0x52035b90
       69295000	      6928	80001b98	004fa283	lw	x5,4(x31)	 x31:0x80009ee8  x5=0x800045d4 PA:0x80009eec
       69305000	      6929	80001b9c	024f8f93	addi	x31,x31,36	 x31:0x80009ee8 x31=0x80009f0c
       69315000	      6930	80001ba0	01d59833	sll	x16,x11,x29	 x11:0x80009ee8 x29:0xe1362449 x16=0x013dd000
       69325000	      6931	80001ba4	001da493	slti	x9,x27,1	 x27:0x007b156a  x9=0x00000000
       69335000	      6932	80001ba8	00128793	addi	x15,x5,1	  x5:0x800045d4 x15=0x800045d5
       69345000	      6933	80001bac	000787e7	jalr	x15,x15,0	 x15:0x800045d5 x15=0x80001bac
       69355000	      6934	00000000	00000013	addi	x0,x0,0	  x0:0x00000000
       69365000	      6935	800045d4	00000013	addi	x0,x0,0	  x0:0x00000000
       69375000	      6936	800045d8	0005ed33	or	x26,x11,x0	 x11:0x80009ee8  x0:0x00000000 x26=0x80009ee8
       69385000	      6937	800045dc	40e4da93	srai	x21,x9,0xe	  x9:0x00000000 x21=0x00000000
       69395000	      6938	800045e0	1242f493	andi	x9,x5,292	  x5:0x800045d4  x9=0x00000104
       69405000	      6939	800045e4	01f634b3	sltu	x9,x12,x31	 x12:0x2affff95 x31:0x80009f0c  x9=0x00000001
       69415000	      6940	800045e8	01272e33	slt	x28,x14,x18	 x14:0x80009fc4 x18:0x2affff95 x28=0x00000001
       69425000	      6941	800045ec	013cde33	srl	x28,x25,x19	 x25:0xe13621ea x19:0x80001bf8 x28=0x000000e1
       69435000	      6942	800045f0	00da9db3	sll	x27,x21,x13	 x21:0x00000000 x13:0xe136216a x27=0x00000000
       69445000	      6943	800045f4	5a403937	lui	x18,0x5a403	 x18=0x5a403000
       69455000	      6944	800045f8	b6cfd2ef	jal	x5,800045f8	  x5=0x800045f8
       69465000	      6945	00000000	00000013	addi	x0,x0,0	  x0:0x00000000
       69475000	      6946	80001960	00000013	addi	x0,x0,0	  x0:0x00000000
       69485000	      6947	80001964	0104f463	bgeu	x9,x16,8000196c	  x9:0x00000001 x16:0x013dd000
       69495000	      6948	80001968	01b7ec33	or	x24,x15,x27	 x15:0x80001bac x27:0x00000000 x24=0x80001bac
       69505000	      6949	8000196c	fdcf8f93	addi	x31,x31,-36	 x31:0x80009f0c x31=0x80009ee8
       69515000	      6950	80001970	6a92c913	xori	x18,x5,1705	  x5:0x800045f8 x18=0x80004351
       69525000	      6951	80001974	9c654e93	xori	x29,x10,-1594	 x10:0xe1376000 x29=0x1ec899c6
       69535000	      6952	80001978	005fa223	sw	x5,4(x31)	 x31:0x80009ee8  x5:0x800045f8 PA:0x80009eec
       69545000	      6953	8000197c	e6728113	addi	x2,x5,-409	  x5:0x800045f8  x2=0x8000445f
       69555000	      6954	80001980	00005697	auipc	x13,0x5	 x13=0x8000697c
       69565000	      6955	80001984	1ec68693	addi	x13,x13,492	 x13:0x8000697c x13=0x80006b68
       69575000	      6956	80001988	005e2e33	slt	x28,x28,x5	 x28:0x000000e1  x5:0x800045f8 x28=0x00000000
       69585000	      6957	8000198c	19468693	addi	x13,x13,404	 x13:0x80006b68 x13=0x80006cfc
       69595000	      6958	80001990	65aeac97	auipc	x25,0x65aea	 x25=0xe5aeb98c
       69605000	      6959	80001994	0121da63	bge	x3,x18,800019a8	  x3:0x00000000 x18:0x80004351
       69615000	      6960	00000000	00000013	addi	x0,x0,0	  x0:0x00000000
       69625000	      6961	800019a4	00000013	addi	x0,x0,0	  x0:0x00000000
       69635000	      6962	800019a8	e6c682e7	jalr	x5,x13,-404	 x13:0x80006cfc  x5=0x800019a8
       69645000	      6963	00000000	00000013	addi	x0,x0,0	  x0:0x00000000
       69655000	      6964	80006b68	00000013	addi	x0,x0,0	  x0:0x00000000
       69665000	      6965	80006b6c	cc06a813	slti	x16,x13,-832	 x13:0x80006cfc x16=0x00000001
       69675000	      6966	80006b70	0acb6e13	ori	x28,x22,172	 x22:0x00000000 x28=0x000000ac
       69685000	      6967	80006b74	90017b13	andi	x22,x2,-1792	  x2:0x8000445f x22=0x80004000
       69695000	      6968	80006b78	30f49317	auipc	x6,0x30f49	  x6=0xb0f4fb74
       69705000	      6969	80006b7c	00f76463	bltu	x14,x15,80006b84	 x14:0x80009fc4 x15:0x80001bac
       69715000	      6970	80006b80	000ac933	xor	x18,x21,x0	 x21:0x00000000  x0:0x00000000 x18=0x00000000
       69725000	      6971	80006b84	fd8f8f93	addi	x31,x31,-40	 x31:0x80009ee8 x31=0x80009ec0
       69735000	      6972	80006b88	005fa223	sw	x5,4(x31)	 x31:0x80009ec0  x5:0x800019a8 PA:0x80009ec4
       69745000	      6973	80006b8c	b61be913	ori	x18,x23,-1183	 x23:0x52035b90 x18=0xfffffbf1
       69755000	      6974	80006b90	e6600c13	addi	x24,x0,-410	  x0:0x00000000 x24=0xfffffe66
       69765000	      6975	80006b94	000f1d33	sll	x26,x30,x0	 x30:0xe1362449  x0:0x00000000 x26=0xe1362449
       69775000	      6976	80006b98	01b23233	sltu	x4,x4,x27	  x4:0x00000001 x27:0x00000000  x4=0x00000000
       69785000	      6977	80006b9c	d8229b97	auipc	x23,0xd8229	 x23=0x5822fb98
       69795000	      6978	80006ba0	01558863	beq	x11,x21,80006bb0	 x11:0x80009ee8 x21:0x00000000
       69805000	      6979	80006ba4	00daaab3	slt	x21,x21,x13	 x21:0x00000000 x13:0x80006cfc x21=0x00000000
       69815000	      6980	80006ba8	ce589cb7	lui	x25,0xce589	 x25=0xce589000
       69825000	      6981	80006bac	0f1f3d97	auipc	x27,0xf1f3	 x27=0x8f1f9ba8
       69835000	      6982	80006bb0	002fd2b3	srl	x5,x31,x2	 x31:0x80009ec0  x2:0x8000445f  x5=0x00000001
       69845000	      6983	80006bb4	01edab33	slt	x22,x27,x30	 x27:0x8f1f9ba8 x30:0xe1362449 x22=0x00000001
       69855000	      6984	80006bb8	0148e863	bltu	x17,x20,80006bc8	 x17:0xfffe1376 x20:0xe4e90541
       69865000	      6985	80006bbc	0085d233	srl	x4,x11,x8	 x11:0x80009ee8  x8:0x00000000  x4=0x80009ee8
       69875000	      6986	80006bc0	35858393	addi	x7,x11,856	 x11:0x80009ee8  x7=0x8000a240
       69885000	      6987	80006bc4	9a814b93	xori	x23,x2,-1624	  x2:0x8000445f x23=0x7fffbdf7
       69895000	      6988	80006bc8	0100ceb3	xor	x29,x1,x16	  x1:0x00000000 x16:0x00000001 x29=0x00000001
       69905000	      6989	80006bcc	01bc5263	bge	x24,x27,80006bd0	 x24:0xfffffe66 x27:0x8f1f9ba8
       69915000	      6990	00000000	00000013	addi	x0,x0,0	  x0:0x00000000
       69925000	      6991	80006bcc	00000013	addi	x0,x0,0	  x0:0x00000000
       69935000	      6992	80006bd0	00354c33	xor	x24,x10,x3	 x10:0xe1376000  x3:0x00000000 x24=0xe1376000
       69945000	      6993	80006bd4	419f5eb3	sra	x29,x30,x25	 x30:0xe1362449 x25:0xce589000 x29=0xe1362449
       69955000	      6994	80006bd8	004fa283	lw	x5,4(x31)	 x31:0x80009ec0  x5=0x800019a8 PA:0x80009ec4
       69965000	      6995	80006bdc	42c82e13	slti	x28,x16,1068	 x16:0x00000001 x28=0x00000001
       69975000	      6996	80006be0	028f8f93	addi	x31,x31,40	 x31:0x80009ec0 x31=0x80009ee8
       69985000	      6997	80006be4	00a40333	add	x6,x8,x10	  x8:0x00000000 x10:0xe1376000  x6=0xe1376000
       69995000	      6998	80006be8	006c56b3	srl	x13,x24,x6	 x24:0xe1376000  x6:0xe1376000 x13=0xe1376000
       70005000	      6999	80006bec	40c10d33	sub	x26,x2,x12	  x2:0x8000445f x12:0x2affff95 x26=0x550044ca
       70015000	      7000	80006bf0	00441433	sll	x8,x8,x4	  x8:0x00000000  x4:0x80009ee8  x8=0x00000000
       70025000	      7001	80006bf4	00128413	addi	x8,x5,1	  x5:0x800019a8  x8=0x800019a9
       70035000	      7002	80006bf8	00040467	jalr	x8,x8,0	  x8:0x800019a9  x8=0x80006bf8
       70045000	      7003	00000000	00000013	addi	x0,x0,0	  x0:0x00000000
       70055000	      7004	800019a8	00000013	addi	x0,x0,0	  x0:0x00000000
       70065000	      7005	800019ac	020dfc63	bgeu	x27,x0,800019e4	 x27:0x8f1f9ba8  x0:0x00000000
       70075000	      7006	00000000	00000013	addi	x0,x0,0	  x0:0x00000000
       70085000	      7007	800019e0	00000013	addi	x0,x0,0	  x0:0x00000000
       70095000	      7008	800019e4	cc6fed13	ori	x26,x31,-826	 x31:0x80009ee8 x26=0xfffffeee
       70105000	      7009	800019e8	01981933	sll	x18,x16,x25	 x16:0x00000001 x25:0xce589000 x18=0x00000001
       70115000	      7010	800019ec	5e853493	sltiu	x9,x10,1512	 x10:0xe1376000  x9=0x00000000
       70125000	      7011	800019f0	03ff8863	beq	x31,x31,80001a20	 x31:0x80009ee8 x31:0x80009ee8
       70135000	      7012	00000000	00000013	addi	x0,x0,0	  x0:0x00000000
       70145000	      7013	80001a1c	00000013	addi	x0,x0,0	  x0:0x00000000
       70155000	      7014	80001a20	01fc1113	slli	x2,x24,0x1f	 x24:0xe1376000  x2=0x00000000
       70165000	      7015	80001a24	9fd62793	slti	x15,x12,-1539	 x12:0x2affff95 x15=0x00000000
       70175000	      7016	80001a28	00000013	addi	x0,x0,0	  x0:0x00000000
       70185000	      7017	80001a2c	0380c463	blt	x1,x24,80001a54	  x1:0x00000000 x24:0xe1376000
       70195000	      7018	80001a30	7de80613	addi	x12,x16,2014	 x16:0x00000001 x12=0x000007df
       70205000	      7019	80001a34	984418b7	lui	x17,0x98441	 x17=0x98441000
       70215000	      7020	80001a38	016e00b3	add	x1,x28,x22	 x28:0x00000001 x22:0x00000001  x1=0x00000002
       70225000	      7021	80001a3c	40c80c33	sub	x24,x16,x12	 x16:0x00000001 x12:0x000007df x24=0xfffff822
       70235000	      7022	80001a40	015c75b3	and	x11,x24,x21	 x24:0xfffff822 x21:0x00000000 x11=0x00000000
       70245000	      7023	80001a44	01aff5b3	and	x11,x31,x26	 x31:0x80009ee8 x26:0xfffffeee x11=0x80009ee8
       70255000	      7024	80001a48	406e54b3	sra	x9,x28,x6	 x28:0x00000001  x6:0xe1376000  x9=0x00000001
       70265000	      7025	80001a4c	8e297797	auipc	x15,0x8e297	 x15=0x0e298a48
       70275000	      7026	80001a50	02424a63	blt	x4,x4,80001a84	  x4:0x80009ee8  x4:0x80009ee8
       70285000	      7027	80001a54	0062b933	sltu	x18,x5,x6	  x5:0x800019a8  x6:0xe1376000 x18=0x00000001
       70295000	      7028	80001a58	80006d97	auipc	x27,0x80006	 x27=0x00007a54
       70305000	      7029	80001a5c	00e5b333	sltu	x6,x11,x14	 x11:0x80009ee8 x14:0x80009fc4  x6=0x00000001
       70315000	      7030	80001a60	00411033	sll	x0,x2,x4	  x2:0x00000000  x4:0x80009ee8
       70325000	      7031	80001a64	41095113	srai	x2,x18,0x10	 x18:0x00000001  x2=0x00000000
       70335000	      7032	80001a68	f959c913	xori	x18,x19,-107	 x19:0x80001bf8 x18=0x7fffe46d
       70345000	      7033	80001a6c	00bd9333	sll	x6,x27,x11	 x27:0x00007a54 x11:0x80009ee8  x6=0x007a5400
       70355000	      7034	80001a70	00177033	and	x0,x14,x1	 x14:0x80009fc4  x1:0x00000002
       70365000	      7035	80001a74	0328fa63	bgeu	x17,x18,80001aa8	 x17:0x98441000 x18:0x7fffe46d
       70375000	      7036	00000000	00000013	addi	x0,x0,0	  x0:0x00000000
       70385000	      7037	80001aa4	00000013	addi	x0,x0,0	  x0:0x00000000
       70395000	      7038	80001aa8	043be863	bltu	x23,x3,80001af8	 x23:0x7fffbdf7  x3:0x00000000
       70405000	      7039	80001aac	05897463	bgeu	x18,x24,80001af4	 x18:0x7fffe46d x24:0xfffff822
       70415000	      7040	80001ab0	2df68f13	addi	x30,x13,735	 x13:0xe1376000 x30=0xe13762df
       70425000	      7041	80001ab4	00f75e63	bge	x14,x15,80001ad0	 x14:0x80009fc4 x15:0x0e298a48
       70435000	      7042	80001ab8	02114c63	blt	x2,x1,80001af0	  x2:0x00000000  x1:0x00000002
       70445000	      7043	00000000	00000013	addi	x0,x0,0	  x0:0x00000000
       70455000	      7044	80001aec	00000013	addi	x0,x0,0	  x0:0x00000000
       70465000	      7045	80001af0	01044833	xor	x16,x8,x16	  x8:0x80006bf8 x16:0x00000001 x16=0x80006bf9
       70475000	      7046	80001af4	00309893	slli	x17,x1,0x3	  x1:0x00000002 x17=0x00000010
       70485000	      7047	80001af8	8e233e93	sltiu	x29,x6,-1822	  x6:0x007a5400 x29=0x00000001
       70495000	      7048	80001afc	89f8f113	andi	x2,x17,-1889	 x17:0x00000010  x2=0x00000010
       70505000	      7049	80001b00	01e0eeb3	or	x29,x1,x30	  x1:0x00000002 x30:0xe13762df x29=0xe13762df
       70515000	      7050	80001b04	d47a3d13	sltiu	x26,x20,-697	 x20:0xe4e90541 x26=0x00000001
       70525000	      7051	80001b08	00c29a63	bne	x5,x12,80001b1c	  x5:0x800019a8 x12:0x000007df
       70535000	      7052	00000000	00000013	addi	x0,x0,0	  x0:0x00000000
       70545000	      7053	80001b18	00000013	addi	x0,x0,0	  x0:0x00000000
       70555000	      7054	80001b1c	ccc60113	addi	x2,x12,-820	 x12:0x000007df  x2=0x000004ab
       70565000	      7055	80001b20	00edec63	bltu	x27,x14,80001b38	 x27:0x00007a54 x14:0x80009fc4
       70575000	      7056	00000000	00000013	addi	x0,x0,0	  x0:0x00000000
       70585000	      7057	80001b34	00000013	addi	x0,x0,0	  x0:0x00000000
       70595000	      7058	80001b38	00334db3	xor	x27,x6,x3	  x6:0x007a5400  x3:0x00000000 x27=0x007a5400
       70605000	      7059	80001b3c	0826ec93	ori	x25,x13,130	 x13:0xe1376000 x25=0xe1376082
       70615000	      7060	80001b40	33c93413	sltiu	x8,x18,828	 x18:0x7fffe46d  x8=0x00000000
       70625000	      7061	80001b44	009a5d33	srl	x26,x20,x9	 x20:0xe4e90541  x9:0x00000001 x26=0x727482a0
       70635000	      7062	80001b48	d5122113	slti	x2,x4,-687	  x4:0x80009ee8  x2=0x00000001
       70645000	      7063	80001b4c	5add2c17	auipc	x24,0x5add2	 x24=0xdadd3b48
       70655000	      7064	80001b50	004ad1b3	srl	x3,x21,x4	 x21:0x00000000  x4:0x80009ee8  x3=0x00000000
       70665000	      7065	80001b54	2b750493	addi	x9,x10,695	 x10:0xe1376000  x9=0xe13762b7
       70675000	      7066	80001b58	00f831b3	sltu	x3,x16,x15	 x16:0x80006bf9 x15:0x0e298a48  x3=0x00000000
       70685000	      7067	80001b5c	40090633	sub	x12,x18,x0	 x18:0x7fffe46d  x0:0x00000000 x12=0x7fffe46d
       70695000	      7068	80001b60	40c55893	srai	x17,x10,0xc	 x10:0xe1376000 x17=0xfffe1376
       70705000	      7069	80001b64	3f8a8113	addi	x2,x21,1016	 x21:0x00000000  x2=0x000003f8
       70715000	      7070	80001b68	00b7a0b3	slt	x1,x15,x11	 x15:0x0e298a48 x11:0x80009ee8  x1=0x00000000
       70725000	      7071	80001b6c	0186de63	bge	x13,x24,80001b88	 x13:0xe1376000 x24:0xdadd3b48
       70735000	      7072	00000000	00000013	addi	x0,x0,0	  x0:0x00000000
       70745000	      7073	80001b84	00000013	addi	x0,x0,0	  x0:0x00000000
       70755000	      7074	80001b88	005169b3	or	x19,x2,x5	  x2:0x000003f8  x5:0x800019a8 x19=0x80001bf8
       70765000	      7075	80001b8c	968a2837	lui	x16,0x968a2	 x16=0x968a2000
       70775000	      7076	80001b90	d62b6397	auipc	x7,0xd62b6	  x7=0x562b7b8c
       70785000	      7077	80001b94	d2034b97	auipc	x23,0xd2034	 x23=0x52035b90
       70795000	      7078	80001b98	004fa283	lw	x5,4(x31)	 x31:0x80009ee8  x5=0x800045f8 PA:0x80009eec
       70805000	      7079	80001b9c	024f8f93	addi	x31,x31,36	 x31:0x80009ee8 x31=0x80009f0c
       70815000	      7080	80001ba0	01d59833	sll	x16,x11,x29	 x11:0x80009ee8 x29:0xe13762df x16=0x00000000
       70825000	      7081	80001ba4	001da493	slti	x9,x27,1	 x27:0x007a5400  x9=0x00000000
       70835000	      7082	80001ba8	00128793	addi	x15,x5,1	  x5:0x800045f8 x15=0x800045f9
       70845000	      7083	80001bac	000787e7	jalr	x15,x15,0	 x15:0x800045f9 x15=0x80001bac
       70855000	      7084	00000000	00000013	addi	x0,x0,0	  x0:0x00000000
       70865000	      7085	800045f8	00000013	addi	x0,x0,0	  x0:0x00000000
       70875000	      7086	800045fc	00447133	and	x2,x8,x4	  x8:0x00000000  x4:0x80009ee8  x2=0x00000000
       70885000	      7087	80004600	770aa7b7	lui	x15,0x770aa	 x15=0x770aa000
       70895000	      7088	80004604	00000c97	auipc	x25,0x0	 x25=0x80004600
       70905000	      7089	80004608	dc4c8c93	addi	x25,x25,-572	 x25:0x80004600 x25=0x800043c4
       70915000	      7090	8000460c	29276e13	ori	x28,x14,658	 x14:0x80009fc4 x28=0x80009fd6
       70925000	      7091	80004610	10452b37	lui	x22,0x10452	 x22=0x10452000
       70935000	      7092	80004614	01bf1e93	slli	x29,x30,0x1b	 x30:0xe13762df x29=0xf8000000
       70945000	      7093	80004618	705f7393	andi	x7,x30,1797	 x30:0xe13762df  x7=0x00000205
       70955000	      7094	8000461c	408add93	srai	x27,x21,0x8	 x21:0x00000000 x27=0x00000000
       70965000	      7095	80004620	0fcc8c93	addi	x25,x25,252	 x25:0x800043c4 x25=0x800044c0
       70975000	      7096	80004624	41be5913	srai	x18,x28,0x1b	 x28:0x80009fd6 x18=0xfffffff0
       70985000	      7097	80004628	f6cd73b7	lui	x7,0xf6cd7	  x7=0xf6cd7000
       70995000	      7098	8000462c	f04c82e7	jalr	x5,x25,-252	 x25:0x800044c0  x5=0x8000462c
       71005000	      7099	00000000	00000013	addi	x0,x0,0	  x0:0x00000000
       71015000	      7100	800043c4	00000013	addi	x0,x0,0	  x0:0x00000000
       71025000	      7101	800043c8	00b676b3	and	x13,x12,x11	 x12:0x7fffe46d x11:0x80009ee8 x13=0x00008468
       71035000	      7102	800043cc	0110d833	srl	x16,x1,x17	  x1:0x00000000 x17:0xfffe1376 x16=0x00000000
       71045000	      7103	800043d0	00e88463	beq	x17,x14,800043d8	 x17:0xfffe1376 x14:0x80009fc4
       71055000	      7104	800043d4	85f9b613	sltiu	x12,x19,-1953	 x19:0x80001bf8 x12=0x00000001
       71065000	      7105	800043d8	ff0f8f93	addi	x31,x31,-16	 x31:0x80009f0c x31=0x80009efc
       71075000	      7106	800043dc	005fa223	sw	x5,4(x31)	 x31:0x80009efc  x5:0x8000462c PA:0x80009f00
       71085000	      7107	800043e0	9c1b4393	xori	x7,x22,-1599	 x22:0x10452000  x7=0xefbad9c1
       71095000	      7108	800043e4	2041fc13	andi	x24,x3,516	  x3:0x00000000 x24=0x00000000
       71105000	      7109	800043e8	01856933	or	x18,x10,x24	 x10:0xe1376000 x24:0x00000000 x18=0xe1376000
       71115000	      7110	800043ec	001a9f33	sll	x30,x21,x1	 x21:0x00000000  x1:0x00000000 x30=0x00000000
       71125000	      7111	800043f0	03d27a63	bgeu	x4,x29,80004424	  x4:0x80009ee8 x29:0xf8000000
       71135000	      7112	800043f4	0199f7b3	and	x15,x19,x25	 x19:0x80001bf8 x25:0x800044c0 x15=0x800000c0
       71145000	      7113	800043f8	02c88e63	beq	x17,x12,80004434	 x17:0xfffe1376 x12:0x00000001
       71155000	      7114	800043fc	d90be793	ori	x15,x23,-624	 x23:0x52035b90 x15=0xffffff90
       71165000	      7115	80004400	9ee1b213	sltiu	x4,x3,-1554	  x3:0x00000000  x4=0x00000001
       71175000	      7116	80004404	00317433	and	x8,x2,x3	  x2:0x00000000  x3:0x00000000  x8=0x00000000
       71185000	      7117	80004408	0049fc33	and	x24,x19,x4	 x19:0x80001bf8  x4:0x00000001 x24=0x00000000
       71195000	      7118	8000440c	01e45b93	srli	x23,x8,0x1e	  x8:0x00000000 x23=0x00000000
       71205000	      7119	80004410	03a21663	bne	x4,x26,8000443c	  x4:0x00000001 x26:0x727482a0
       71215000	      7120	00000000	00000013	addi	x0,x0,0	  x0:0x00000000
       71225000	      7121	80004438	00000013	addi	x0,x0,0	  x0:0x00000000
       71235000	      7122	8000443c	00026db3	or	x27,x4,x0	  x4:0x00000001  x0:0x00000000 x27=0x00000001
       71245000	      7123	80004440	019b02b3	add	x5,x22,x25	 x22:0x10452000 x25:0x800044c0  x5=0x904564c0
       71255000	      7124	80004444	03c4ec63	bltu	x9,x28,8000447c	  x9:0x00000000 x28:0x80009fd6
       71265000	      7125	00000000	00000013	addi	x0,x0,0	  x0:0x00000000
       71275000	      7126	80004478	00000013	addi	x0,x0,0	  x0:0x00000000
       71285000	      7127	8000447c	00000013	addi	x0,x0,0	  x0:0x00000000
       71295000	      7128	80004480	03bb8863	beq	x23,x27,800044b0	 x23:0x00000000 x27:0x00000001
       71305000	      7129	80004484	b4413613	sltiu	x12,x2,-1212	  x2:0x00000000 x12=0x00000001
       71315000	      7130	80004488	415354b3	sra	x9,x6,x21	  x6:0x007a5400 x21:0x00000000  x9=0x007a5400
       71325000	      7131	8000448c	00000013	addi	x0,x0,0	  x0:0x00000000
       71335000	      7132	80004490	00d16863	bltu	x2,x13,800044a0	  x2:0x00000000 x13:0x00008468
       71345000	      7133	00000000	00000013	addi	x0,x0,0	  x0:0x00000000
       71355000	      7134	8000449c	00000013	addi	x0,x0,0	  x0:0x00000000
       71365000	      7135	800044a0	0085c233	xor	x4,x11,x8	 x11:0x80009ee8  x8:0x00000000  x4=0x80009ee8
       71375000	      7136	800044a4	02ba1463	bne	x20,x11,800044cc	 x20:0xe4e90541 x11:0x80009ee8
       71385000	      7137	00000000	00000013	addi	x0,x0,0	  x0:0x00000000
       71395000	      7138	800044c8	00000013	addi	x0,x0,0	  x0:0x00000000
       71405000	      7139	800044cc	6189b393	sltiu	x7,x19,1560	 x19:0x80001bf8  x7=0x00000000
       71415000	      7140	800044d0	0004a2b3	slt	x5,x9,x0	  x9:0x007a5400  x0:0x00000000  x5=0x00000000
       71425000	      7141	800044d4	bad13293	sltiu	x5,x2,-1107	  x2:0x00000000  x5=0x00000001
       71435000	      7142	800044d8	00394c63	blt	x18,x3,800044f0	 x18:0xe1376000  x3:0x00000000
       71445000	      7143	00000000	00000013	addi	x0,x0,0	  x0:0x00000000
       71455000	      7144	800044ec	00000013	addi	x0,x0,0	  x0:0x00000000
       71465000	      7145	800044f0	fc2ef193	andi	x3,x29,-62	 x29:0xf8000000  x3=0xf8000000
       71475000	      7146	800044f4	03e24063	blt	x4,x30,80004514	  x4:0x80009ee8 x30:0x00000000
       71485000	      7147	00000000	00000013	addi	x0,x0,0	  x0:0x00000000
       71495000	      7148	80004510	00000013	addi	x0,x0,0	  x0:0x00000000
       71505000	      7149	80004514	9769eb37	lui	x22,0x9769e	 x22=0x9769e000
       71515000	      7150	80004518	00ee95b3	sll	x11,x29,x14	 x29:0xf8000000 x14:0x80009fc4 x11=0x80000000
       71525000	      7151	8000451c	00e73633	sltu	x12,x14,x14	 x14:0x80009fc4 x14:0x80009fc4 x12=0x00000000
       71535000	      7152	80004520	00000013	addi	x0,x0,0	  x0:0x00000000
       71545000	      7153	80004524	01f57433	and	x8,x10,x31	 x10:0xe1376000 x31:0x80009efc  x8=0x80000000
       71555000	      7154	80004528	63c7f0b7	lui	x1,0x63c7f	  x1=0x63c7f000
       71565000	      7155	8000452c	00a09b33	sll	x22,x1,x10	  x1:0x63c7f000 x10:0xe1376000 x22=0x63c7f000
       71575000	      7156	80004530	00260bb3	add	x23,x12,x2	 x12:0x00000000  x2:0x00000000 x23=0x00000000
       71585000	      7157	80004534	01420a63	beq	x4,x20,80004548	  x4:0x80009ee8 x20:0xe4e90541
       71595000	      7158	80004538	009a1193	slli	x3,x20,0x9	 x20:0xe4e90541  x3=0xd20a8200
       71605000	      7159	8000453c	01758eb3	add	x29,x11,x23	 x11:0x80000000 x23:0x00000000 x29=0x80000000
       71615000	      7160	80004540	02a67463	bgeu	x12,x10,80004568	 x12:0x00000000 x10:0xe1376000
       71625000	      7161	80004544	02244a63	blt	x8,x2,80004578	  x8:0x80000000  x2:0x00000000
       71635000	      7162	00000000	00000013	addi	x0,x0,0	  x0:0x00000000
       71645000	      7163	80004574	00000013	addi	x0,x0,0	  x0:0x00000000
       71655000	      7164	80004578	00239133	sll	x2,x7,x2	  x7:0x00000000  x2:0x00000000  x2=0x00000000
       71665000	      7165	8000457c	31293d13	sltiu	x26,x18,786	 x18:0xe1376000 x26=0x00000000
       71675000	      7166	80004580	0180a0b3	slt	x1,x1,x24	  x1:0x63c7f000 x24:0x00000000  x1=0x00000000
       71685000	      7167	80004584	004fa283	lw	x5,4(x31)	 x31:0x80009efc  x5=0x8000462c PA:0x80009f00
       71695000	      7168	80004588	cf45ab17	auipc	x22,0xcf45a	 x22=0x4f45e584
       71705000	      7169	8000458c	01873cb3	sltu	x25,x14,x24	 x14:0x80009fc4 x24:0x00000000 x25=0x00000000
       71715000	      7170	80004590	010f8f93	addi	x31,x31,16	 x31:0x80009efc x31=0x80009f0c
       71725000	      7171	80004594	00d1e833	or	x16,x3,x13	  x3:0xd20a8200 x13:0x00008468 x16=0xd20a8668
       71735000	      7172	80004598	00028b93	addi	x23,x5,0	  x5:0x8000462c x23=0x8000462c
       71745000	      7173	8000459c	000b8be7	jalr	x23,x23,0	 x23:0x8000462c x23=0x8000459c
       71755000	      7174	00000000	00000013	addi	x0,x0,0	  x0:0x00000000
       71765000	      7175	8000462c	00000013	addi	x0,x0,0	  x0:0x00000000
       71775000	      7176	80004630	00004117	auipc	x2,0x4	  x2=0x8000862c
       71785000	      7177	80004634	ead10113	addi	x2,x2,-339	  x2:0x8000862c  x2=0x800084d9
       71795000	      7178	80004638	01f10a23	sb	x31,20(x2)	  x2:0x800084d9 x31:0x80009f0c PA:0x800084ed
       71805000	      7179	8000463c	fb510d83	lb	x27,-75(x2)	  x2:0x800084d9 x27=0xfffffff0 PA:0x8000848e
       71815000	      7180	80004640	0b114f03	lbu	x30,177(x2)	  x2:0x800084d9 x30=0x00000001 PA:0x8000858a
       71825000	      7181	80004644	05da8c13	addi	x24,x21,93	 x21:0x00000000 x24=0x0000005d
       71835000	      7182	80004648	016ad5b3	srl	x11,x21,x22	 x21:0x00000000 x22:0x4f45e584 x11=0x00000000
       71845000	      7183	8000464c	f2310623	sb	x3,-212(x2)	  x2:0x800084d9  x3:0xd20a8200 PA:0x80008405
       71855000	      7184	80004650	0cb10ea3	sb	x11,221(x2)	  x2:0x800084d9 x11:0x00000000 PA:0x800085b6
       71865000	      7185	80004654	fb715e83	lhu	x29,-73(x2)	  x2:0x800084d9 x29=0x00002ba2 PA:0x80008490
       71875000	      7186	00000000	00000013	addi	x0,x0,0	  x0:0x00000000
       71885000	      7187	80004658	01dd05b3	add	x11,x26,x29	 x26:0x00000000 x29:0x00002ba2 x11=0x00002ba2
       71895000	      7188	8000465c	00865bb3	srl	x23,x12,x8	 x12:0x00000000  x8:0x80000000 x23=0x00000000
       71905000	      7189	80004660	423b2697	auipc	x13,0x423b2	 x13=0xc23b665c
       71915000	      7190	80004664	0c810383	lb	x7,200(x2)	  x2:0x800084d9  x7=0xffffffc6 PA:0x800085a1
       71925000	      7191	80004668	0c310523	sb	x3,202(x2)	  x2:0x800084d9  x3:0xd20a8200 PA:0x800085a3
       71935000	      7192	8000466c	012c06b3	add	x13,x24,x18	 x24:0x0000005d x18:0xe1376000 x13=0xe137605d
       71945000	      7193	80004670	ea21c3b7	lui	x7,0xea21c	  x7=0xea21c000
       71955000	      7194	80004674	0f010d83	lb	x27,240(x2)	  x2:0x800084d9 x27=0xffffffb8 PA:0x800085c9
       71965000	      7195	00000000	00000013	addi	x0,x0,0	  x0:0x00000000
       71975000	      7196	80004678	0bb11ba3	sh	x27,183(x2)	  x2:0x800084d9 x27:0xffffffb8 PA:0x80008590
       71985000	      7197	8000467c	f6110223	sb	x1,-156(x2)	  x2:0x800084d9  x1:0x00000000 PA:0x8000843d
       71995000	      7198	80004680	01a57833	and	x16,x10,x26	 x10:0xe1376000 x26:0x00000000 x16=0x00000000
       72005000	      7199	80004684	0ca10503	lb	x10,202(x2)	  x2:0x800084d9 x10=0x00000000 PA:0x800085a3
       72015000	      7200	80004688	09210923	sb	x18,146(x2)	  x2:0x800084d9 x18:0xe1376000 PA:0x8000856b
       72025000	      7201	8000468c	ffa10883	lb	x17,-6(x2)	  x2:0x800084d9 x17=0x00000071 PA:0x800084d3
       72035000	      7202	80004690	fc414003	lbu	x0,-60(x2)	  x2:0x800084d9 PA:0x8000849d
       72045000	      7203	80004694	01c14483	lbu	x9,28(x2)	  x2:0x800084d9  x9=0x00000043 PA:0x800084f5
       72055000	      7204	80004698	5251e6b7	lui	x13,0x5251e	 x13=0x5251e000
       72065000	      7205	8000469c	00000013	addi	x0,x0,0	  x0:0x00000000
       72075000	      7206	800046a0	fca119a3	sh	x10,-45(x2)	  x2:0x800084d9 x10:0x00000000 PA:0x800084ac
       72085000	      7207	800046a4	f8511d83	lh	x27,-123(x2)	  x2:0x800084d9 x27=0xffffc89e PA:0x8000845e
       72095000	      7208	800046a8	10010b03	lb	x22,256(x2)	  x2:0x800084d9 x22=0x00000054 PA:0x800085d9
       72105000	      7209	800046ac	a022ea93	ori	x21,x5,-1534	  x5:0x8000462c x21=0xfffffe2e
       72115000	      7210	800046b0	705b7c93	andi	x25,x22,1797	 x22:0x00000054 x25=0x00000004
       72125000	      7211	800046b4	8f4bcc13	xori	x24,x23,-1804	 x23:0x00000000 x24=0xfffff8f4
       72135000	      7212	800046b8	00f8d393	srli	x7,x17,0xf	 x17:0x00000071  x7=0x00000000
       72145000	      7213	800046bc	35ed3313	sltiu	x6,x26,862	 x26:0x00000000  x6=0x00000001
       72155000	      7214	800046c0	012be9b3	or	x19,x23,x18	 x23:0x00000000 x18:0xe1376000 x19=0xe1376000
       72165000	      7215	800046c4	004f0933	add	x18,x30,x4	 x30:0x00000001  x4:0x80009ee8 x18=0x80009ee9
       72175000	      7216	800046c8	01c55913	srli	x18,x10,0x1c	 x10:0x00000000 x18=0x00000000
       72185000	      7217	800046cc	00261e63	bne	x12,x2,800046e8	 x12:0x00000000  x2:0x800084d9
       72195000	      7218	00000000	00000013	addi	x0,x0,0	  x0:0x00000000
       72205000	      7219	800046e4	00000013	addi	x0,x0,0	  x0:0x00000000
       72215000	      7220	800046e8	01ec58b3	srl	x17,x24,x30	 x24:0xfffff8f4 x30:0x00000001 x17=0x7ffffc7a
       72225000	      7221	800046ec	01537f33	and	x30,x6,x21	  x6:0x00000001 x21:0xfffffe2e x30=0x00000000
       72235000	      7222	800046f0	857a5c37	lui	x24,0x857a5	 x24=0x857a5000
       72245000	      7223	800046f4	41f389b3	sub	x19,x7,x31	  x7:0x00000000 x31:0x80009f0c x19=0x7fff60f4
       72255000	      7224	800046f8	b9ac8293	addi	x5,x25,-1126	 x25:0x00000004  x5=0xfffffb9e
       72265000	      7225	800046fc	00000013	addi	x0,x0,0	  x0:0x00000000
       72275000	      7226	80004700	03290063	beq	x18,x18,80004720	 x18:0x00000000 x18:0x00000000
       72285000	      7227	00000000	00000013	addi	x0,x0,0	  x0:0x00000000
       72295000	      7228	8000471c	00000013	addi	x0,x0,0	  x0:0x00000000
       72305000	      7229	80004720	2fd95917	auipc	x18,0x2fd95	 x18=0xafd9971c
       72315000	      7230	80004724	40638433	sub	x8,x7,x6	  x7:0x00000000  x6:0x00000001  x8=0xffffffff
       72325000	      7231	80004728	02848063	beq	x9,x8,80004748	  x9:0x00000043  x8:0xffffffff
       72335000	      7232	8000472c	f3073313	sltiu	x6,x14,-208	 x14:0x80009fc4  x6=0x00000001
       72345000	      7233	80004730	40c85593	srai	x11,x16,0xc	 x16:0x00000000 x11=0x00000000
       72355000	      7234	80004734	033ce463	bltu	x25,x19,8000475c	 x25:0x00000004 x19:0x7fff60f4
       72365000	      7235	00000000	00000013	addi	x0,x0,0	  x0:0x00000000
       72375000	      7236	80004758	00000013	addi	x0,x0,0	  x0:0x00000000
       72385000	      7237	8000475c	014e5863	bge	x28,x20,8000476c	 x28:0x80009fd6 x20:0xe4e90541
       72395000	      7238	80004760	47d1ab93	slti	x23,x3,1149	  x3:0xd20a8200 x23=0x00000001
       72405000	      7239	80004764	0595e263	bltu	x11,x25,800047a8	 x11:0x00000000 x25:0x00000004
       72415000	      7240	00000000	00000013	addi	x0,x0,0	  x0:0x00000000
       72425000	      7241	800047a4	00000013	addi	x0,x0,0	  x0:0x00000000
       72435000	      7242	800047a8	00000013	addi	x0,x0,0	  x0:0x00000000
       72445000	      7243	800047ac	faa56c13	ori	x24,x10,-86	 x10:0x00000000 x24=0xffffffaa
       72455000	      7244	800047b0	01189263	bne	x17,x17,800047b4	 x17:0x7ffffc7a x17:0x7ffffc7a
       72465000	      7245	800047b4	035ee863	bltu	x29,x21,800047e4	 x29:0x00002ba2 x21:0xfffffe2e
       72475000	      7246	00000000	00000013	addi	x0,x0,0	  x0:0x00000000
       72485000	      7247	800047e0	00000013	addi	x0,x0,0	  x0:0x00000000
       72495000	      7248	800047e4	01cd5bb3	srl	x23,x26,x28	 x26:0x00000000 x28:0x80009fd6 x23=0x00000000
       72505000	      7249	800047e8	b5a5f993	andi	x19,x11,-1190	 x11:0x00000000 x19=0x00000000
       72515000	      7250	800047ec	07f80663	beq	x16,x31,80004858	 x16:0x00000000 x31:0x80009f0c
       72525000	      7251	800047f0	01cb85b3	add	x11,x23,x28	 x23:0x00000000 x28:0x80009fd6 x11=0x80009fd6
       72535000	      7252	800047f4	00be9913	slli	x18,x29,0xb	 x29:0x00002ba2 x18=0x015d1000
       72545000	      7253	800047f8	04924e63	blt	x4,x9,80004854	  x4:0x80009ee8  x9:0x00000043
       72555000	      7254	00000000	00000013	addi	x0,x0,0	  x0:0x00000000
       72565000	      7255	80004850	00000013	addi	x0,x0,0	  x0:0x00000000
       72575000	      7256	80004854	e1098913	addi	x18,x19,-496	 x19:0x00000000 x18=0xfffffe10
       72585000	      7257	80004858	4158d5b3	sra	x11,x17,x21	 x17:0x7ffffc7a x21:0xfffffe2e x11=0x0001ffff
       72595000	      7258	8000485c	404f85b3	sub	x11,x31,x4	 x31:0x80009f0c  x4:0x80009ee8 x11=0x00000024
       72605000	      7259	80004860	408d50b3	sra	x1,x26,x8	 x26:0x00000000  x8:0xffffffff  x1=0x00000000
       72615000	      7260	80004864	010f08b3	add	x17,x30,x16	 x30:0x00000000 x16:0x00000000 x17=0x00000000
       72625000	      7261	80004868	013466b3	or	x13,x8,x19	  x8:0xffffffff x19:0x00000000 x13=0xffffffff
       72635000	      7262	8000486c	69a9ee93	ori	x29,x19,1690	 x19:0x00000000 x29=0x0000069a
       72645000	      7263	80004870	006cc533	xor	x10,x25,x6	 x25:0x00000004  x6:0x00000001 x10=0x00000005
       72655000	      7264	80004874	012ff7b3	and	x15,x31,x18	 x31:0x80009f0c x18:0xfffffe10 x15=0x80009e00
       72665000	      7265	80004878	03880063	beq	x16,x24,80004898	 x16:0x00000000 x24:0xffffffaa
       72675000	      7266	8000487c	026fd063	bge	x31,x6,8000489c	 x31:0x80009f0c  x6:0x00000001
       72685000	      7267	80004880	0100e9b3	or	x19,x1,x16	  x1:0x00000000 x16:0x00000000 x19=0x00000000
       72695000	      7268	80004884	03da1263	bne	x20,x29,800048a8	 x20:0xe4e90541 x29:0x0000069a
       72705000	      7269	00000000	00000013	addi	x0,x0,0	  x0:0x00000000
       72715000	      7270	800048a4	00000013	addi	x0,x0,0	  x0:0x00000000
       72725000	      7271	800048a8	009e1013	slli	x0,x28,0x9	 x28:0x80009fd6
       72735000	      7272	800048ac	f1f04917	auipc	x18,0xf1f04	 x18=0x71f088a8
       72745000	      7273	800048b0	aa67f893	andi	x17,x15,-1370	 x15:0x80009e00 x17=0x80009a00
       72755000	      7274	800048b4	01891e93	slli	x29,x18,0x18	 x18:0x71f088a8 x29=0xa8000000
       72765000	      7275	800048b8	01c5f633	and	x12,x11,x28	 x11:0x00000024 x28:0x80009fd6 x12=0x00000004
       72775000	      7276	800048bc	9f6d4613	xori	x12,x26,-1546	 x26:0x00000000 x12=0xfffff9f6
       72785000	      7277	800048c0	009f1e93	slli	x29,x30,0x9	 x30:0x00000000 x29=0x00000000
       72795000	      7278	800048c4	058ff863	bgeu	x31,x24,80004914	 x31:0x80009f0c x24:0xffffffaa
       72805000	      7279	800048c8	01b89b13	slli	x22,x17,0x1b	 x17:0x80009a00 x22=0x00000000
       72815000	      7280	800048cc	03f3d463	bge	x7,x31,800048f4	  x7:0x00000000 x31:0x80009f0c
       72825000	      7281	00000000	00000013	addi	x0,x0,0	  x0:0x00000000
       72835000	      7282	800048f0	00000013	addi	x0,x0,0	  x0:0x00000000
       72845000	      7283	800048f4	011d2433	slt	x8,x26,x17	 x26:0x00000000 x17:0x80009a00  x8=0x00000000
       72855000	      7284	800048f8	01ce5863	bge	x28,x28,80004908	 x28:0x80009fd6 x28:0x80009fd6
       72865000	      7285	00000000	00000013	addi	x0,x0,0	  x0:0x00000000
       72875000	      7286	80004904	00000013	addi	x0,x0,0	  x0:0x00000000
       72885000	      7287	80004908	00000013	addi	x0,x0,0	  x0:0x00000000
       72895000	      7288	8000490c	b51c6913	ori	x18,x24,-1199	 x24:0xffffffaa x18=0xfffffffb
       72905000	      7289	80004910	00000013	addi	x0,x0,0	  x0:0x00000000
       72915000	      7290	80004914	056c1863	bne	x24,x22,80004964	 x24:0xffffffaa x22:0x00000000
       72925000	      7291	00000000	00000013	addi	x0,x0,0	  x0:0x00000000
       72935000	      7292	80004960	00000013	addi	x0,x0,0	  x0:0x00000000
       72945000	      7293	80004964	6a3c8113	addi	x2,x25,1699	 x25:0x00000004  x2=0x000006a7
       72955000	      7294	80004968	00ed7d33	and	x26,x26,x14	 x26:0x00000000 x14:0x80009fc4 x26=0x00000000
       72965000	      7295	8000496c	01169d13	slli	x26,x13,0x11	 x13:0xffffffff x26=0xfffe0000
       72975000	      7296	80004970	40a20033	sub	x0,x4,x10	  x4:0x80009ee8 x10:0x00000005
       72985000	      7297	80004974	004fa283	lw	x5,4(x31)	 x31:0x80009f0c  x5=0x80000520 PA:0x80009f10
       72995000	      7298	80004978	016077b3	and	x15,x0,x22	  x0:0x00000000 x22:0x00000000 x15=0x00000000
       73005000	      7299	8000497c	01b55b13	srli	x22,x10,0x1b	 x10:0x00000005 x22=0x00000000
       73015000	      7300	80004980	45f370b7	lui	x1,0x45f37	  x1=0x45f37000
       73025000	      7301	80004984	007b17b3	sll	x15,x22,x7	 x22:0x00000000  x7:0x00000000 x15=0x00000000
       73035000	      7302	80004988	0144a1b3	slt	x3,x9,x20	  x9:0x00000043 x20:0xe4e90541  x3=0x00000000
       73045000	      7303	8000498c	01cf8f93	addi	x31,x31,28	 x31:0x80009f0c x31=0x80009f28
       73055000	      7304	80004990	008bfbb3	and	x23,x23,x8	 x23:0x00000000  x8:0x00000000 x23=0x00000000
       73065000	      7305	80004994	41a88633	sub	x12,x17,x26	 x17:0x80009a00 x26:0xfffe0000 x12=0x80029a00
       73075000	      7306	80004998	0080bb33	sltu	x22,x1,x8	  x1:0x45f37000  x8:0x00000000 x22=0x00000000
       73085000	      7307	8000499c	366dd037	lui	x0,0x366dd	
       73095000	      7308	800049a0	00028813	addi	x16,x5,0	  x5:0x80000520 x16=0x80000520
       73105000	      7309	800049a4	00080867	jalr	x16,x16,0	 x16:0x80000520 x16=0x800049a4
       73115000	      7310	00000000	00000013	addi	x0,x0,0	  x0:0x00000000
       73125000	      7311	80000520	00000013	addi	x0,x0,0	  x0:0x00000000
       73135000	      7312	80000524	000c9033	sll	x0,x25,x0	 x25:0x00000004  x0:0x00000000
       73145000	      7313	80000528	01d69463	bne	x13,x29,80000530	 x13:0xffffffff x29:0x00000000
       73155000	      7314	00000000	00000013	addi	x0,x0,0	  x0:0x00000000
       73165000	      7315	8000052c	00000013	addi	x0,x0,0	  x0:0x00000000
       73175000	      7316	80000530	013bcdb3	xor	x27,x23,x19	 x23:0x00000000 x19:0x00000000 x27=0x00000000
       73185000	      7317	80000534	01310a63	beq	x2,x19,80000548	  x2:0x000006a7 x19:0x00000000
       73195000	      7318	80000538	408b5eb3	sra	x29,x22,x8	 x22:0x00000000  x8:0x00000000 x29=0x00000000
       73205000	      7319	8000053c	01b30cb3	add	x25,x6,x27	  x6:0x00000001 x27:0x00000000 x25=0x00000001
       73215000	      7320	80000540	41d80c33	sub	x24,x16,x29	 x16:0x800049a4 x29:0x00000000 x24=0x800049a4
       73225000	      7321	80000544	4375c637	lui	x12,0x4375c	 x12=0x4375c000
       73235000	      7322	80000548	0199c7b3	xor	x15,x19,x25	 x19:0x00000000 x25:0x00000001 x15=0x00000001
       73245000	      7323	8000054c	0031db93	srli	x23,x3,0x3	  x3:0x00000000 x23=0x00000000
       73255000	      7324	80000550	3c20ef13	ori	x30,x1,962	  x1:0x45f37000 x30=0x45f373c2
       73265000	      7325	80000554	40ae0533	sub	x10,x28,x10	 x28:0x80009fd6 x10:0x00000005 x10=0x80009fd1
       73275000	      7326	80000558	004fa283	lw	x5,4(x31)	 x31:0x80009f28  x5=0x80000634 PA:0x80009f2c
       73285000	      7327	8000055c	40ca5ab3	sra	x21,x20,x12	 x20:0xe4e90541 x12:0x4375c000 x21=0xe4e90541
       73295000	      7328	80000560	0091b033	sltu	x0,x3,x9	  x3:0x00000000  x9:0x00000043
       73305000	      7329	80000564	038f8f93	addi	x31,x31,56	 x31:0x80009f28 x31=0x80009f60
       73315000	      7330	80000568	01091633	sll	x12,x18,x16	 x18:0xfffffffb x16:0x800049a4 x12=0xffffffb0
       73325000	      7331	8000056c	019a98b3	sll	x17,x21,x25	 x21:0xe4e90541 x25:0x00000001 x17=0xc9d20a82
       73335000	      7332	80000570	019f7033	and	x0,x30,x25	 x30:0x45f373c2 x25:0x00000001
       73345000	      7333	80000574	00128a93	addi	x21,x5,1	  x5:0x80000634 x21=0x80000635
       73355000	      7334	80000578	000a8ae7	jalr	x21,x21,0	 x21:0x80000635 x21=0x80000578
       73365000	      7335	00000000	00000013	addi	x0,x0,0	  x0:0x00000000
       73375000	      7336	80000634	00000013	addi	x0,x0,0	  x0:0x00000000
       73385000	      7337	80000638	050d1863	bne	x26,x16,80000688	 x26:0xfffe0000 x16:0x800049a4
       73395000	      7338	00000000	00000013	addi	x0,x0,0	  x0:0x00000000
       73405000	      7339	80000684	00000013	addi	x0,x0,0	  x0:0x00000000
       73415000	      7340	80000688	013d65b3	or	x11,x26,x19	 x26:0xfffe0000 x19:0x00000000 x11=0xfffe0000
       73425000	      7341	8000068c	01529e63	bne	x5,x21,800006a8	  x5:0x80000634 x21:0x80000578
       73435000	      7342	00000000	00000013	addi	x0,x0,0	  x0:0x00000000
       73445000	      7343	800006a4	00000013	addi	x0,x0,0	  x0:0x00000000
       73455000	      7344	800006a8	01bcd313	srli	x6,x25,0x1b	 x25:0x00000001  x6=0x00000000
       73465000	      7345	800006ac	018ce863	bltu	x25,x24,800006bc	 x25:0x00000001 x24:0x800049a4
       73475000	      7346	00000000	00000013	addi	x0,x0,0	  x0:0x00000000
       73485000	      7347	800006b8	00000013	addi	x0,x0,0	  x0:0x00000000
       73495000	      7348	800006bc	00200463	beq	x0,x2,800006c4	  x0:0x00000000  x2:0x000006a7
       73505000	      7349	800006c0	00e958b3	srl	x17,x18,x14	 x18:0xfffffffb x14:0x80009fc4 x17=0x0fffffff
       73515000	      7350	800006c4	033cd263	bge	x25,x19,800006e8	 x25:0x00000001 x19:0x00000000
       73525000	      7351	00000000	00000013	addi	x0,x0,0	  x0:0x00000000
       73535000	      7352	800006e4	00000013	addi	x0,x0,0	  x0:0x00000000
       73545000	      7353	800006e8	00daf4b3	and	x9,x21,x13	 x21:0x80000578 x13:0xffffffff  x9=0x80000578
       73555000	      7354	800006ec	01ce1033	sll	x0,x28,x28	 x28:0x80009fd6 x28:0x80009fd6
       73565000	      7355	800006f0	0099d993	srli	x19,x19,0x9	 x19:0x00000000 x19=0x00000000
       73575000	      7356	800006f4	00d949b3	xor	x19,x18,x13	 x18:0xfffffffb x13:0xffffffff x19=0x00000004
       73585000	      7357	800006f8	00f733b3	sltu	x7,x14,x15	 x14:0x80009fc4 x15:0x00000001  x7=0x00000000
       73595000	      7358	800006fc	004fa283	lw	x5,4(x31)	 x31:0x80009f60  x5=0x800001f0 PA:0x80009f64
       73605000	      7359	80000700	40ec8133	sub	x2,x25,x14	 x25:0x00000001 x14:0x80009fc4  x2=0x7fff603d
       73615000	      7360	80000704	410c0cb3	sub	x25,x24,x16	 x24:0x800049a4 x16:0x800049a4 x25=0x00000000
       73625000	      7361	80000708	024f8f93	addi	x31,x31,36	 x31:0x80009f60 x31=0x80009f84
       73635000	      7362	8000070c	60ee4213	xori	x4,x28,1550	 x28:0x80009fd6  x4=0x800099d8
       73645000	      7363	80000710	0123c5b3	xor	x11,x7,x18	  x7:0x00000000 x18:0xfffffffb x11=0xfffffffb
       73655000	      7364	80000714	41088c33	sub	x24,x17,x16	 x17:0x0fffffff x16:0x800049a4 x24=0x8fffb65b
       73665000	      7365	80000718	00028e93	addi	x29,x5,0	  x5:0x800001f0 x29=0x800001f0
       73675000	      7366	8000071c	000e8ee7	jalr	x29,x29,0	 x29:0x800001f0 x29=0x8000071c
       73685000	      7367	00000000	00000013	addi	x0,x0,0	  x0:0x00000000
       73695000	      7368	800001f0	00000013	addi	x0,x0,0	  x0:0x00000000
       73705000	      7369	800001f4	014c34b3	sltu	x9,x24,x20	 x24:0x8fffb65b x20:0xe4e90541  x9=0x00000001
       73715000	      7370	800001f8	00667333	and	x6,x12,x6	 x12:0xffffffb0  x6:0x00000000  x6=0x00000000
       73725000	      7371	800001fc	02468e63	beq	x13,x4,80000238	 x13:0xffffffff  x4:0x800099d8
       73735000	      7372	80000200	011dedb3	or	x27,x27,x17	 x27:0x00000000 x17:0x0fffffff x27=0x0fffffff
       73745000	      7373	80000204	00209863	bne	x1,x2,80000214	  x1:0x45f37000  x2:0x7fff603d
       73755000	      7374	00000000	00000013	addi	x0,x0,0	  x0:0x00000000
       73765000	      7375	80000210	00000013	addi	x0,x0,0	  x0:0x00000000
       73775000	      7376	80000214	01689ab3	sll	x21,x17,x22	 x17:0x0fffffff x22:0x00000000 x21=0x0fffffff
       73785000	      7377	80000218	01b96633	or	x12,x18,x27	 x18:0xfffffffb x27:0x0fffffff x12=0xffffffff
       73795000	      7378	8000021c	a143b493	sltiu	x9,x7,-1516	  x7:0x00000000  x9=0x00000001
       73805000	      7379	80000220	002bd933	srl	x18,x23,x2	 x23:0x00000000  x2:0x7fff603d x18=0x00000000
       73815000	      7380	80000224	0097f8b3	and	x17,x15,x9	 x15:0x00000001  x9:0x00000001 x17=0x00000001
       73825000	      7381	80000228	0058b033	sltu	x0,x17,x5	 x17:0x00000001  x5:0x800001f0
       73835000	      7382	8000022c	00310c33	add	x24,x2,x3	  x2:0x7fff603d  x3:0x00000000 x24=0x7fff603d
       73845000	      7383	80000230	398c4693	xori	x13,x24,920	 x24:0x7fff603d x13=0x7fff63a5
       73855000	      7384	80000234	9bba2b13	slti	x22,x20,-1605	 x20:0xe4e90541 x22=0x00000001
       73865000	      7385	80000238	5c9a7e93	andi	x29,x20,1481	 x20:0xe4e90541 x29=0x00000541
       73875000	      7386	8000023c	036bd263	bge	x23,x22,80000260	 x23:0x00000000 x22:0x00000001
       73885000	      7387	80000240	00000013	addi	x0,x0,0	  x0:0x00000000
       73895000	      7388	80000244	9b8c1417	auipc	x8,0x9b8c1	  x8=0x1b8c1240
       73905000	      7389	80000248	4188de33	sra	x28,x17,x24	 x17:0x00000001 x24:0x7fff603d x28=0x00000000
       73915000	      7390	8000024c	018781b3	add	x3,x15,x24	 x15:0x00000001 x24:0x7fff603d  x3=0x7fff603e
       73925000	      7391	80000250	014bd513	srli	x10,x23,0x14	 x23:0x00000000 x10=0x00000000
       73935000	      7392	80000254	006a9463	bne	x21,x6,8000025c	 x21:0x0fffffff  x6:0x00000000
       73945000	      7393	00000000	00000013	addi	x0,x0,0	  x0:0x00000000
       73955000	      7394	80000258	00000013	addi	x0,x0,0	  x0:0x00000000
       73965000	      7395	8000025c	4f2ff693	andi	x13,x31,1266	 x31:0x80009f84 x13=0x00000480
       73975000	      7396	80000260	415bd413	srai	x8,x23,0x15	 x23:0x00000000  x8=0x00000000
       73985000	      7397	80000264	00000013	addi	x0,x0,0	  x0:0x00000000
       73995000	      7398	80000268	9caa3493	sltiu	x9,x20,-1590	 x20:0xe4e90541  x9=0x00000001
       74005000	      7399	8000026c	e77c3313	sltiu	x6,x24,-393	 x24:0x7fff603d  x6=0x00000001
       74015000	      7400	80000270	00e195b3	sll	x11,x3,x14	  x3:0x7fff603e x14:0x80009fc4 x11=0xfff603e0
       74025000	      7401	80000274	0554f263	bgeu	x9,x21,800002b8	  x9:0x00000001 x21:0x0fffffff
       74035000	      7402	80000278	01607863	bgeu	x0,x22,80000288	  x0:0x00000000 x22:0x00000001
       74045000	      7403	8000027c	40cf5613	srai	x12,x30,0xc	 x30:0x45f373c2 x12=0x00045f37
       74055000	      7404	80000280	01a79ab3	sll	x21,x15,x26	 x15:0x00000001 x26:0xfffe0000 x21=0x00000001
       74065000	      7405	80000284	4185d993	srai	x19,x11,0x18	 x11:0xfff603e0 x19=0xffffffff
       74075000	      7406	80000288	7eadbc93	sltiu	x25,x27,2026	 x27:0x0fffffff x25=0x00000000
       74085000	      7407	8000028c	00476d97	auipc	x27,0x476	 x27=0x80476288
       74095000	      7408	80000290	d6476293	ori	x5,x14,-668	 x14:0x80009fc4  x5=0xffffffe4
       74105000	      7409	80000294	00076db3	or	x27,x14,x0	 x14:0x80009fc4  x0:0x00000000 x27=0x80009fc4
       74115000	      7410	80000298	00000013	addi	x0,x0,0	  x0:0x00000000
       74125000	      7411	8000029c	04cb8663	beq	x23,x12,800002e8	 x23:0x00000000 x12:0x00045f37
       74135000	      7412	800002a0	01f6ad33	slt	x26,x13,x31	 x13:0x00000480 x31:0x80009f84 x26=0x00000000
       74145000	      7413	800002a4	4195d933	sra	x18,x11,x25	 x11:0xfff603e0 x25:0x00000000 x18=0xfff603e0
       74155000	      7414	800002a8	00b93d33	sltu	x26,x18,x11	 x18:0xfff603e0 x11:0xfff603e0 x26=0x00000000
       74165000	      7415	800002ac	016a4b33	xor	x22,x20,x22	 x20:0xe4e90541 x22:0x00000001 x22=0xe4e90540
       74175000	      7416	800002b0	0753ca63	blt	x7,x21,80000324	  x7:0x00000000 x21:0x00000001
       74185000	      7417	00000000	00000013	addi	x0,x0,0	  x0:0x00000000
       74195000	      7418	80000320	00000013	addi	x0,x0,0	  x0:0x00000000
       74205000	      7419	80000324	015c8233	add	x4,x25,x21	 x25:0x00000000 x21:0x00000001  x4=0x00000001
       74215000	      7420	80000328	01797233	and	x4,x18,x23	 x18:0xfff603e0 x23:0x00000000  x4=0x00000000
       74225000	      7421	8000032c	be9e2d93	slti	x27,x28,-1047	 x28:0x00000000 x27=0x00000000
       74235000	      7422	80000330	00529d13	slli	x26,x5,0x5	  x5:0xffffffe4 x26=0xfffffc80
       74245000	      7423	80000334	05bb5063	bge	x22,x27,80000374	 x22:0xe4e90540 x27:0x00000000
       74255000	      7424	80000338	0168cd33	xor	x26,x17,x22	 x17:0x00000001 x22:0xe4e90540 x26=0xe4e90541
       74265000	      7425	8000033c	79ba6c13	ori	x24,x20,1947	 x20:0xe4e90541 x24=0xe4e907db
       74275000	      7426	80000340	037be863	bltu	x23,x23,80000370	 x23:0x00000000 x23:0x00000000
       74285000	      7427	80000344	006e9793	slli	x15,x29,0x6	 x29:0x00000541 x15=0x00015040
       74295000	      7428	80000348	69d4a113	slti	x2,x9,1693	  x9:0x00000001  x2=0x00000001
       74305000	      7429	8000034c	0182e5b3	or	x11,x5,x24	  x5:0xffffffe4 x24:0xe4e907db x11=0xffffffff
       74315000	      7430	80000350	011ff1b3	and	x3,x31,x17	 x31:0x80009f84 x17:0x00000001  x3=0x00000000
       74325000	      7431	80000354	004364b3	or	x9,x6,x4	  x6:0x00000001  x4:0x00000000  x9=0x00000001
       74335000	      7432	80000358	5f524e13	xori	x28,x4,1525	  x4:0x00000000 x28=0x000005f5
       74345000	      7433	8000035c	001748b3	xor	x17,x14,x1	 x14:0x80009fc4  x1:0x45f37000 x17=0xc5f3efc4
       74355000	      7434	80000360	83a3c093	xori	x1,x7,-1990	  x7:0x00000000  x1=0xfffff83a
       74365000	      7435	80000364	40648533	sub	x10,x9,x6	  x9:0x00000001  x6:0x00000001 x10=0x00000000
       74375000	      7436	80000368	41cfd993	srai	x19,x31,0x1c	 x31:0x80009f84 x19=0xfffffff8
       74385000	      7437	8000036c	02d0d863	bge	x1,x13,8000039c	  x1:0xfffff83a x13:0x00000480
       74395000	      7438	80000370	00000013	addi	x0,x0,0	  x0:0x00000000
       74405000	      7439	80000374	6d8e4213	xori	x4,x28,1752	 x28:0x000005f5  x4=0x0000032d
       74415000	      7440	80000378	3d3cfb93	andi	x23,x25,979	 x25:0x00000000 x23=0x00000000
       74425000	      7441	8000037c	04f47263	bgeu	x8,x15,800003c0	  x8:0x00000000 x15:0x00015040
       74435000	      7442	80000380	036dce63	blt	x27,x22,800003bc	 x27:0x00000000 x22:0xe4e90540
       74445000	      7443	80000384	051f7463	bgeu	x30,x17,800003cc	 x30:0x45f373c2 x17:0xc5f3efc4
       74455000	      7444	80000388	0153ee63	bltu	x7,x21,800003a4	  x7:0x00000000 x21:0x00000001
       74465000	      7445	00000000	00000013	addi	x0,x0,0	  x0:0x00000000
       74475000	      7446	800003a0	00000013	addi	x0,x0,0	  x0:0x00000000
       74485000	      7447	800003a4	0100f1b3	and	x3,x1,x16	  x1:0xfffff83a x16:0x800049a4  x3=0x80004820
       74495000	      7448	800003a8	8bae8213	addi	x4,x29,-1862	 x29:0x00000541  x4=0xfffffdfb
       74505000	      7449	800003ac	82318593	addi	x11,x3,-2013	  x3:0x80004820 x11=0x80004043
       74515000	      7450	800003b0	011b6033	or	x0,x22,x17	 x22:0xe4e90540 x17:0xc5f3efc4
       74525000	      7451	800003b4	00819c93	slli	x25,x3,0x8	  x3:0x80004820 x25=0x00482000
       74535000	      7452	800003b8	fbd73293	sltiu	x5,x14,-67	 x14:0x80009fc4  x5=0x00000001
       74545000	      7453	800003bc	015a9463	bne	x21,x21,800003c4	 x21:0x00000001 x21:0x00000001
       74555000	      7454	800003c0	93e44513	xori	x10,x8,-1730	  x8:0x00000000 x10=0xfffff93e
       74565000	      7455	800003c4	3e0dd097	auipc	x1,0x3e0dd	  x1=0xbe0dd3c0
       74575000	      7456	800003c8	00cf6833	or	x16,x30,x12	 x30:0x45f373c2 x12:0x00045f37 x16=0x45f77ff7
       74585000	      7457	800003cc	0131e033	or	x0,x3,x19	  x3:0x80004820 x19:0xfffffff8
       74595000	      7458	800003d0	9c45fe37	lui	x28,0x9c45f	 x28=0x9c45f000
       74605000	      7459	800003d4	40685893	srai	x17,x16,0x6	 x16:0x45f77ff7 x17=0x0117ddff
       74615000	      7460	800003d8	41f85933	sra	x18,x16,x31	 x16:0x45f77ff7 x31:0x80009f84 x18=0x045f77ff
       74625000	      7461	800003dc	00ef1db3	sll	x27,x30,x14	 x30:0x45f373c2 x14:0x80009fc4 x27=0x5f373c20
       74635000	      7462	800003e0	040ac463	blt	x21,x0,80000428	 x21:0x00000001  x0:0x00000000
       74645000	      7463	800003e4	006379b3	and	x19,x6,x6	  x6:0x00000001  x6:0x00000001 x19=0x00000001
       74655000	      7464	800003e8	04a38463	beq	x7,x10,80000430	  x7:0x00000000 x10:0xfffff93e
       74665000	      7465	800003ec	92a80513	addi	x10,x16,-1750	 x16:0x45f77ff7 x10=0x45f77921
       74675000	      7466	800003f0	03d3ec63	bltu	x7,x29,80000428	  x7:0x00000000 x29:0x00000541
       74685000	      7467	00000000	00000013	addi	x0,x0,0	  x0:0x00000000
       74695000	      7468	80000424	00000013	addi	x0,x0,0	  x0:0x00000000
       74705000	      7469	80000428	f5f8c337	lui	x6,0xf5f8c	  x6=0xf5f8c000
       74715000	      7470	8000042c	033d1663	bne	x26,x19,80000458	 x26:0xe4e90541 x19:0x00000001
       74725000	      7471	00000000	00000013	addi	x0,x0,0	  x0:0x00000000
       74735000	      7472	80000454	00000013	addi	x0,x0,0	  x0:0x00000000
       74745000	      7473	80000458	00901933	sll	x18,x0,x9	  x0:0x00000000  x9:0x00000001 x18=0x00000000
       74755000	      7474	8000045c	41eb8633	sub	x12,x23,x30	 x23:0x00000000 x30:0x45f373c2 x12=0xba0c8c3e
       74765000	      7475	80000460	00000013	addi	x0,x0,0	  x0:0x00000000
       74775000	      7476	80000464	00229e33	sll	x28,x5,x2	  x5:0x00000001  x2:0x00000001 x28=0x00000002
       74785000	      7477	80000468	000f5293	srli	x5,x30,0x0	 x30:0x45f373c2  x5=0x45f373c2
       74795000	      7478	8000046c	02359263	bne	x11,x3,80000490	 x11:0x80004043  x3:0x80004820
       74805000	      7479	00000000	00000013	addi	x0,x0,0	  x0:0x00000000
       74815000	      7480	8000048c	00000013	addi	x0,x0,0	  x0:0x00000000
       74825000	      7481	80000490	91220113	addi	x2,x4,-1774	  x4:0xfffffdfb  x2=0xfffff70d
       74835000	      7482	80000494	00000a17	auipc	x20,0x0	 x20=0x80000490
       74845000	      7483	80000498	00ca0a13	addi	x20,x20,12	 x20:0x80000490 x20=0x8000049c
       74855000	      7484	8000049c	000a0067	jalr	x0,x20,0	 x20:0x8000049c
       74865000	      7485	00000000	00000013	addi	x0,x0,0	  x0:0x00000000
       74875000	      7486	8000049c	00000013	addi	x0,x0,0	  x0:0x00000000
       74885000	      7487	800004a0	00100193	addi	x3,x0,1	  x0:0x00000000  x3=0x00000001
       74895000	      7488	800004a4	00000073	ecall	
       74905000	      7489	800004a8	22afcd17	auipc	x26,0x22afc	 x26=0xa2afc4a4
