		Time			Cycle	PC		Insn	Decoded instruction	Register and memory contents
          65000	         5	80000004	00000293	addi	x5,x0,0	  x0:0x00000000  x5=0x00000000
          75000	         6	80000008	00000313	addi	x6,x0,0	  x0:0x00000000  x6=0x00000000
          85000	         7	8000000c	00628263	beq	x5,x6,80000010	  x5:0x00000000  x6:0x00000000
          95000	         8	00000000	00000013	addi	x0,x0,0	  x0:0x00000000
         105000	         9	8000000c	00000013	addi	x0,x0,0	  x0:0x00000000
         115000	        10	80000010	00000517	auipc	x10,0x0	 x10=0x8000000c
         125000	        11	80000014	00c50513	addi	x10,x10,12	 x10:0x8000000c x10=0x80000018
         135000	        12	80000018	00050067	jalr	x0,x10,0	 x10:0x80000018
         145000	        13	00000000	00000013	addi	x0,x0,0	  x0:0x00000000
         155000	        14	80000018	00000013	addi	x0,x0,0	  x0:0x00000000
         165000	        15	8000001c	40000137	lui	x2,0x40000	  x2=0x40000000
         175000	        16	80000020	10010113	addi	x2,x2,256	  x2:0x40000000  x2=0x40000100
         185000	        17	80000024	00000013	addi	x0,x0,0	  x0:0x00000000
         195000	        18	80000028	0000ac17	auipc	x24,0xa	 x24=0x8000a024
         205000	        19	8000002c	fa0c0c13	addi	x24,x24,-96	 x24:0x8000a024 x24=0x80009fc4
         215000	        20	80000030	00007117	auipc	x2,0x7	  x2=0x8000702c
         225000	        21	80000034	c2410113	addi	x2,x2,-988	  x2:0x8000702c  x2=0x80006c50
         235000	        22	80000038	00016113	ori	x2,x2,0	  x2:0x80006c50  x2=0x80006c50
         245000	        23	8000003c	00000013	addi	x0,x0,0	  x0:0x00000000
         255000	        24	80000040	00000117	auipc	x2,0x0	  x2=0x8000003c
         265000	        25	80000044	02010113	addi	x2,x2,32	  x2:0x8000003c  x2=0x8000005c
         275000	        26	80000048	00000013	addi	x0,x0,0	  x0:0x00000000
         285000	        27	8000004c	00000013	addi	x0,x0,0	  x0:0x00000000
         295000	        28	80000050	00002137	lui	x2,0x2	  x2=0x00002000
         305000	        29	80000054	80010113	addi	x2,x2,-2048	  x2:0x00002000  x2=0x00001800
         315000	        30	80000058	00000013	addi	x0,x0,0	  x0:0x00000000
         325000	        31	8000005c	00000013	addi	x0,x0,0	  x0:0x00000000
         335000	        32	80000060	00f00013	addi	x0,x0,15	  x0:0x00000000
         345000	        33	80000064	800000b7	lui	x1,0x80000	  x1=0x80000000
         355000	        34	80000068	00c00113	addi	x2,x0,12	  x0:0x00000000  x2=0x0000000c
         365000	        35	8000006c	fd7c41b7	lui	x3,0xfd7c4	  x3=0xfd7c4000
         375000	        36	80000070	dfd18193	addi	x3,x3,-515	  x3:0xfd7c4000  x3=0xfd7c3dfd
         385000	        37	80000074	fc1df237	lui	x4,0xfc1df	  x4=0xfc1df000
         395000	        38	80000078	feb20213	addi	x4,x4,-21	  x4:0xfc1df000  x4=0xfc1defeb
         405000	        39	8000007c	5faf82b7	lui	x5,0x5faf8	  x5=0x5faf8000
         415000	        40	80000080	69028293	addi	x5,x5,1680	  x5:0x5faf8000  x5=0x5faf8690
         425000	        41	80000084	00d00313	addi	x6,x0,13	  x0:0x00000000  x6=0x0000000d
         435000	        42	80000088	00300393	addi	x7,x0,3	  x0:0x00000000  x7=0x00000003
         445000	        43	8000008c	80000437	lui	x8,0x80000	  x8=0x80000000
         455000	        44	80000090	00000493	addi	x9,x0,0	  x0:0x00000000  x9=0x00000000
         465000	        45	80000094	80000537	lui	x10,0x80000	 x10=0x80000000
         475000	        46	80000098	fe4325b7	lui	x11,0xfe432	 x11=0xfe432000
         485000	        47	8000009c	f5558593	addi	x11,x11,-171	 x11:0xfe432000 x11=0xfe431f55
         495000	        48	800000a0	80000637	lui	x12,0x80000	 x12=0x80000000
         505000	        49	800000a4	50bff6b7	lui	x13,0x50bff	 x13=0x50bff000
         515000	        50	800000a8	53368693	addi	x13,x13,1331	 x13:0x50bff000 x13=0x50bff533
         525000	        51	800000ac	fc2f4737	lui	x14,0xfc2f4	 x14=0xfc2f4000
         535000	        52	800000b0	60470713	addi	x14,x14,1540	 x14:0xfc2f4000 x14=0xfc2f4604
         545000	        53	800000b4	00700793	addi	x15,x0,7	  x0:0x00000000 x15=0x00000007
         555000	        54	800000b8	0466f837	lui	x16,0x466f	 x16=0x0466f000
         565000	        55	800000bc	96580813	addi	x16,x16,-1691	 x16:0x0466f000 x16=0x0466e965
         575000	        56	800000c0	00200893	addi	x17,x0,2	  x0:0x00000000 x17=0x00000002
         585000	        57	800000c4	00300993	addi	x19,x0,3	  x0:0x00000000 x19=0x00000003
         595000	        58	800000c8	a0bcea37	lui	x20,0xa0bce	 x20=0xa0bce000
         605000	        59	800000cc	f4ca0a13	addi	x20,x20,-180	 x20:0xa0bce000 x20=0xa0bcdf4c
         615000	        60	800000d0	f2d70ab7	lui	x21,0xf2d70	 x21=0xf2d70000
         625000	        61	800000d4	644a8a93	addi	x21,x21,1604	 x21:0xf2d70000 x21=0xf2d70644
         635000	        62	800000d8	fd399b37	lui	x22,0xfd399	 x22=0xfd399000
         645000	        63	800000dc	defb0b13	addi	x22,x22,-529	 x22:0xfd399000 x22=0xfd398def
         655000	        64	800000e0	f97d9bb7	lui	x23,0xf97d9	 x23=0xf97d9000
         665000	        65	800000e4	254b8b93	addi	x23,x23,596	 x23:0xf97d9000 x23=0xf97d9254
         675000	        66	800000e8	00900c93	addi	x25,x0,9	  x0:0x00000000 x25=0x00000009
         685000	        67	800000ec	00300d13	addi	x26,x0,3	  x0:0x00000000 x26=0x00000003
         695000	        68	800000f0	00f00d93	addi	x27,x0,15	  x0:0x00000000 x27=0x0000000f
         705000	        69	800000f4	a51f5e37	lui	x28,0xa51f5	 x28=0xa51f5000
         715000	        70	800000f8	cdae0e13	addi	x28,x28,-806	 x28:0xa51f5000 x28=0xa51f4cda
         725000	        71	800000fc	f2c48eb7	lui	x29,0xf2c48	 x29=0xf2c48000
         735000	        72	80000100	fd4e8e93	addi	x29,x29,-44	 x29:0xf2c48000 x29=0xf2c47fd4
         745000	        73	80000104	f9382f37	lui	x30,0xf9382	 x30=0xf9382000
         755000	        74	80000108	a31f0f13	addi	x30,x30,-1487	 x30:0xf9382000 x30=0xf9381a31
         765000	        75	8000010c	d5e54fb7	lui	x31,0xd5e54	 x31=0xd5e54000
         775000	        76	80000110	db3f8f93	addi	x31,x31,-589	 x31:0xd5e54000 x31=0xd5e53db3
         785000	        77	80000114	0000a917	auipc	x18,0xa	 x18=0x8000a110
         795000	        78	80000118	e7490913	addi	x18,x18,-396	 x18:0x8000a110 x18=0x80009f84
         805000	        79	8000011c	00000b97	auipc	x23,0x0	 x23=0x80000118
         815000	        80	80000120	6f4b8b93	addi	x23,x23,1780	 x23:0x80000118 x23=0x8000080c
         825000	        81	80000124	01299eb3	sll	x29,x19,x18	 x19:0x00000003 x18:0x80009f84 x29=0x00000030
         835000	        82	80000128	34db8b93	addi	x23,x23,845	 x23:0x8000080c x23=0x80000b59
         845000	        83	8000012c	011892b3	sll	x5,x17,x17	 x17:0x00000002 x17:0x00000002  x5=0x00000008
         855000	        84	80000130	014a8d33	add	x26,x21,x20	 x21:0xf2d70644 x20:0xa0bcdf4c x26=0x9393e590
         865000	        85	80000134	b0470e13	addi	x28,x14,-1276	 x14:0xfc2f4604 x28=0xfc2f4108
         875000	        86	80000138	108b7a93	andi	x21,x22,264	 x22:0xfd398def x21=0x00000108
         885000	        87	8000013c	01aeb1b3	sltu	x3,x29,x26	 x29:0x00000030 x26:0x9393e590  x3=0x00000001
         895000	        88	80000140	fcdd2113	slti	x2,x26,-51	 x26:0x9393e590  x2=0x00000001
         905000	        89	80000144	cb2c3013	sltiu	x0,x24,-846	 x24:0x80009fc4
         915000	        90	80000148	01c14463	blt	x2,x28,80000150	  x2:0x00000001 x28:0xfc2f4108
         925000	        91	8000014c	004af133	and	x2,x21,x4	 x21:0x00000108  x4:0xfc1defeb  x2=0x00000108
         935000	        92	80000150	cb3b86e7	jalr	x13,x23,-845	 x23:0x80000b59 x13=0x80000150
         945000	        93	00000000	00000013	addi	x0,x0,0	  x0:0x00000000
         955000	        94	8000080c	00000013	addi	x0,x0,0	  x0:0x00000000
         965000	        95	80000810	60874313	xori	x6,x14,1544	 x14:0xfc2f4604  x6=0xfc2f400c
         975000	        96	80000814	007e9263	bne	x29,x7,80000818	 x29:0x00000030  x7:0x00000003
         985000	        97	00000000	00000013	addi	x0,x0,0	  x0:0x00000000
         995000	        98	80000814	00000013	addi	x0,x0,0	  x0:0x00000000
        1005000	        99	80000818	fc890913	addi	x18,x18,-56	 x18:0x80009f84 x18=0x80009f4c
        1015000	       100	8000081c	4a3d8393	addi	x7,x27,1187	 x27:0x0000000f  x7=0x000004b2
        1025000	       101	80000820	00d92223	sw	x13,4(x18)	 x18:0x80009f4c x13:0x80000150 PA:0x80009f50
        1035000	       102	80000824	007df833	and	x16,x27,x7	 x27:0x0000000f  x7:0x000004b2 x16=0x00000002
        1045000	       103	80000828	353bf5b7	lui	x11,0x353bf	 x11=0x353bf000
        1055000	       104	8000082c	408fd733	sra	x14,x31,x8	 x31:0xd5e53db3  x8:0x80000000 x14=0xd5e53db3
        1065000	       105	80000830	40b988b3	sub	x17,x19,x11	 x19:0x00000003 x11:0x353bf000 x17=0xcac41003
        1075000	       106	80000834	3f10e193	ori	x3,x1,1009	  x1:0x80000000  x3=0x800003f1
        1085000	       107	80000838	012cc7b3	xor	x15,x25,x18	 x25:0x00000009 x18:0x80009f4c x15=0x80009f45
        1095000	       108	8000083c	01e497b3	sll	x15,x9,x30	  x9:0x00000000 x30:0xf9381a31 x15=0x00000000
        1105000	       109	80000840	723db717	auipc	x14,0x723db	 x14=0xf23db83c
        1115000	       110	80000844	00c9c733	xor	x14,x19,x12	 x19:0x00000003 x12:0x80000000 x14=0x80000003
        1125000	       111	80000848	40c95893	srai	x17,x18,0xc	 x18:0x80009f4c x17=0xfff80009
        1135000	       112	8000084c	03438e63	beq	x7,x20,80000888	  x7:0x000004b2 x20:0xa0bcdf4c
        1145000	       113	80000850	00000013	addi	x0,x0,0	  x0:0x00000000
        1155000	       114	80000854	00bcfab3	and	x21,x25,x11	 x25:0x00000009 x11:0x353bf000 x21=0x00000000
        1165000	       115	80000858	00fd0a33	add	x20,x26,x15	 x26:0x9393e590 x15:0x00000000 x20=0x9393e590
        1175000	       116	8000085c	00611c93	slli	x25,x2,0x6	  x2:0x00000108 x25=0x00004200
        1185000	       117	80000860	d0580013	addi	x0,x16,-763	 x16:0x00000002
        1195000	       118	80000864	40745813	srai	x16,x8,0x7	  x8:0x80000000 x16=0xff000000
        1205000	       119	80000868	05068063	beq	x13,x16,800008a8	 x13:0x80000150 x16:0xff000000
        1215000	       120	8000086c	00000013	addi	x0,x0,0	  x0:0x00000000
        1225000	       121	80000870	189d2693	slti	x13,x26,393	 x26:0x9393e590 x13=0x00000001
        1235000	       122	80000874	0147e863	bltu	x15,x20,80000884	 x15:0x00000000 x20:0x9393e590
        1245000	       123	00000000	00000013	addi	x0,x0,0	  x0:0x00000000
        1255000	       124	80000880	00000013	addi	x0,x0,0	  x0:0x00000000
        1265000	       125	80000884	4030ddb3	sra	x27,x1,x3	  x1:0x80000000  x3:0x800003f1 x27=0xffffc000
        1275000	       126	80000888	00000013	addi	x0,x0,0	  x0:0x00000000
        1285000	       127	8000088c	00de9733	sll	x14,x29,x13	 x29:0x00000030 x13:0x00000001 x14=0x00000060
        1295000	       128	80000890	07910b13	addi	x22,x2,121	  x2:0x00000108 x22=0x00000181
        1305000	       129	80000894	00b91333	sll	x6,x18,x11	 x18:0x80009f4c x11:0x353bf000  x6=0x80009f4c
        1315000	       130	80000898	00910663	beq	x2,x9,800008a4	  x2:0x00000108  x9:0x00000000
        1325000	       131	8000089c	07dd2a93	slti	x21,x26,125	 x26:0x9393e590 x21=0x00000001
        1335000	       132	800008a0	41740633	sub	x12,x8,x23	  x8:0x80000000 x23:0x80000b59 x12=0xfffff4a7
        1345000	       133	800008a4	c252c413	xori	x8,x5,-987	  x5:0x00000008  x8=0xfffffc2d
        1355000	       134	800008a8	04074463	blt	x14,x0,800008f0	 x14:0x00000060  x0:0x00000000
        1365000	       135	800008ac	02364463	blt	x12,x3,800008d4	 x12:0xfffff4a7  x3:0x800003f1
        1375000	       136	800008b0	02c25a63	bge	x4,x12,800008e4	  x4:0xfc1defeb x12:0xfffff4a7
        1385000	       137	800008b4	03bf8c63	beq	x31,x27,800008ec	 x31:0xd5e53db3 x27:0xffffc000
        1395000	       138	800008b8	a33da493	slti	x9,x27,-1485	 x27:0xffffc000  x9=0x00000001
        1405000	       139	800008bc	6b563397	auipc	x7,0x6b563	  x7=0xeb5638b8
        1415000	       140	800008c0	e2d5ab93	slti	x23,x11,-467	 x11:0x353bf000 x23=0x00000000
        1425000	       141	800008c4	c46f6293	ori	x5,x30,-954	 x30:0xf9381a31  x5=0xfffffe77
        1435000	       142	800008c8	025a4063	blt	x20,x5,800008e8	 x20:0x9393e590  x5:0xfffffe77
        1445000	       143	00000000	00000013	addi	x0,x0,0	  x0:0x00000000
        1455000	       144	800008e4	00000013	addi	x0,x0,0	  x0:0x00000000
        1465000	       145	800008e8	01136e63	bltu	x6,x17,80000904	  x6:0x80009f4c x17:0xfff80009
        1475000	       146	00000000	00000013	addi	x0,x0,0	  x0:0x00000000
        1485000	       147	80000900	00000013	addi	x0,x0,0	  x0:0x00000000
        1495000	       148	80000904	007f75b3	and	x11,x30,x7	 x30:0xf9381a31  x7:0xeb5638b8 x11=0xe9101830
        1505000	       149	80000908	68dcb093	sltiu	x1,x25,1677	 x25:0x00004200  x1=0x00000000
        1515000	       150	8000090c	4f2e3193	sltiu	x3,x28,1266	 x28:0xfc2f4108  x3=0x00000000
        1525000	       151	80000910	00379463	bne	x15,x3,80000918	 x15:0x00000000  x3:0x00000000
        1535000	       152	80000914	00b69eb3	sll	x29,x13,x11	 x13:0x00000001 x11:0xe9101830 x29=0x00010000
        1545000	       153	80000918	01f41a93	slli	x21,x8,0x1f	  x8:0xfffffc2d x21=0x80000000
        1555000	       154	8000091c	f509f613	andi	x12,x19,-176	 x19:0x00000003 x12=0x00000000
        1565000	       155	80000920	ed9071b7	lui	x3,0xed907	  x3=0xed907000
        1575000	       156	80000924	028f4463	blt	x30,x8,8000094c	 x30:0xf9381a31  x8:0xfffffc2d
        1585000	       157	00000000	00000013	addi	x0,x0,0	  x0:0x00000000
        1595000	       158	80000948	00000013	addi	x0,x0,0	  x0:0x00000000
        1605000	       159	8000094c	00037463	bgeu	x6,x0,80000954	  x6:0x80009f4c  x0:0x00000000
        1615000	       160	00000000	00000013	addi	x0,x0,0	  x0:0x00000000
        1625000	       161	80000950	00000013	addi	x0,x0,0	  x0:0x00000000
        1635000	       162	80000954	40470833	sub	x16,x14,x4	 x14:0x00000060  x4:0xfc1defeb x16=0x03e21075
        1645000	       163	80000958	032d4e63	blt	x26,x18,80000994	 x26:0x9393e590 x18:0x80009f4c
        1655000	       164	8000095c	efcf3313	sltiu	x6,x30,-260	 x30:0xf9381a31  x6=0x00000001
        1665000	       165	80000960	0192af33	slt	x30,x5,x25	  x5:0xfffffe77 x25:0x00004200 x30=0x00000001
        1675000	       166	80000964	02186863	bltu	x16,x1,80000994	 x16:0x03e21075  x1:0x00000000
        1685000	       167	80000968	7311c793	xori	x15,x3,1841	  x3:0xed907000 x15=0xed907731
        1695000	       168	8000096c	40240cb3	sub	x25,x8,x2	  x8:0xfffffc2d  x2:0x00000108 x25=0xfffffb25
        1705000	       169	80000970	01253033	sltu	x0,x10,x18	 x10:0x80000000 x18:0x80009f4c
        1715000	       170	80000974	211fad13	slti	x26,x31,529	 x31:0xd5e53db3 x26=0x00000001
        1725000	       171	80000978	051ec863	blt	x29,x17,800009c8	 x29:0x00010000 x17:0xfff80009
        1735000	       172	8000097c	01a39f13	slli	x30,x7,0x1a	  x7:0xeb5638b8 x30=0xe0000000
        1745000	       173	80000980	04f1e863	bltu	x3,x15,800009d0	  x3:0xed907000 x15:0xed907731
        1755000	       174	00000000	00000013	addi	x0,x0,0	  x0:0x00000000
        1765000	       175	800009cc	00000013	addi	x0,x0,0	  x0:0x00000000
        1775000	       176	800009d0	00357333	and	x6,x10,x3	 x10:0x80000000  x3:0xed907000  x6=0x80000000
        1785000	       177	800009d4	0072c4b3	xor	x9,x5,x7	  x5:0xfffffe77  x7:0xeb5638b8  x9=0x14a9c6cf
        1795000	       178	800009d8	0296ec63	bltu	x13,x9,80000a10	 x13:0x00000001  x9:0x14a9c6cf
        1805000	       179	00000000	00000013	addi	x0,x0,0	  x0:0x00000000
        1815000	       180	80000a0c	00000013	addi	x0,x0,0	  x0:0x00000000
        1825000	       181	80000a10	0137ddb3	srl	x27,x15,x19	 x15:0xed907731 x19:0x00000003 x27=0x1db20ee6
        1835000	       182	80000a14	00492683	lw	x13,4(x18)	 x18:0x80009f4c x13=0x80000150 PA:0x80009f50
        1845000	       183	80000a18	40e40833	sub	x16,x8,x14	  x8:0xfffffc2d x14:0x00000060 x16=0xfffffbcd
        1855000	       184	80000a1c	89fa0a13	addi	x20,x20,-1889	 x20:0x9393e590 x20=0x9393de2f
        1865000	       185	80000a20	03890913	addi	x18,x18,56	 x18:0x80009f4c x18=0x80009f84
        1875000	       186	80000a24	94f2e393	ori	x7,x5,-1713	  x5:0xfffffe77  x7=0xffffff7f
        1885000	       187	80000a28	00168893	addi	x17,x13,1	 x13:0x80000150 x17=0x80000151
        1895000	       188	80000a2c	000888e7	jalr	x17,x17,0	 x17:0x80000151 x17=0x80000a2c
        1905000	       189	00000000	00000013	addi	x0,x0,0	  x0:0x00000000
        1915000	       190	80000150	00000013	addi	x0,x0,0	  x0:0x00000000
        1925000	       191	80000154	07e67f13	andi	x30,x12,126	 x12:0x00000000 x30=0x00000000
        1935000	       192	80000158	01088d33	add	x26,x17,x16	 x17:0x80000a2c x16:0xfffffbcd x26=0x800005f9
        1945000	       193	8000015c	014e67b3	or	x15,x28,x20	 x28:0xfc2f4108 x20:0x9393de2f x15=0xffbfdf2f
        1955000	       194	80000160	00001297	auipc	x5,0x1	  x5=0x8000115c
        1965000	       195	80000164	c9028293	addi	x5,x5,-880	  x5:0x8000115c  x5=0x80000dec
        1975000	       196	80000168	01b54bb3	xor	x23,x10,x27	 x10:0x80000000 x27:0x1db20ee6 x23=0x9db20ee6
        1985000	       197	8000016c	d8c28293	addi	x5,x5,-628	  x5:0x80000dec  x5=0x80000b78
        1995000	       198	80000170	01d1ed33	or	x26,x3,x29	  x3:0xed907000 x29:0x00010000 x26=0xed917000
        2005000	       199	80000174	03d8e713	ori	x14,x17,61	 x17:0x80000a2c x14=0x80000a3d
        2015000	       200	80000178	00000013	addi	x0,x0,0	  x0:0x00000000
        2025000	       201	8000017c	004f5d33	srl	x26,x30,x4	 x30:0x00000000  x4:0xfc1defeb x26=0x00000000
        2035000	       202	80000180	1ece3c93	sltiu	x25,x28,492	 x28:0xfc2f4108 x25=0x00000000
        2045000	       203	80000184	275286e7	jalr	x13,x5,629	  x5:0x80000b78 x13=0x80000184
        2055000	       204	00000000	00000013	addi	x0,x0,0	  x0:0x00000000
        2065000	       205	80000dec	00000013	addi	x0,x0,0	  x0:0x00000000
        2075000	       206	80000df0	411a8633	sub	x12,x21,x17	 x21:0x80000000 x17:0x80000a2c x12=0xfffff5d4
        2085000	       207	80000df4	4f4c1317	auipc	x6,0x4f4c1	  x6=0xcf4c1df0
        2095000	       208	80000df8	01194863	blt	x18,x17,80000e08	 x18:0x80009f84 x17:0x80000a2c
        2105000	       209	80000dfc	5d5e6893	ori	x17,x28,1493	 x28:0xfc2f4108 x17=0xfc2f45dd
        2115000	       210	80000e00	017ca1b3	slt	x3,x25,x23	 x25:0x00000000 x23:0x9db20ee6  x3=0x00000000
        2125000	       211	80000e04	00aa1633	sll	x12,x20,x10	 x20:0x9393de2f x10:0x80000000 x12=0x9393de2f
        2135000	       212	80000e08	fd890913	addi	x18,x18,-40	 x18:0x80009f84 x18=0x80009f5c
        2145000	       213	80000e0c	019c5c93	srli	x25,x24,0x19	 x24:0x80009fc4 x25=0x00000040
        2155000	       214	80000e10	00d92223	sw	x13,4(x18)	 x18:0x80009f5c x13:0x80000184 PA:0x80009f60
        2165000	       215	80000e14	400d80b3	sub	x1,x27,x0	 x27:0x1db20ee6  x0:0x00000000  x1=0x1db20ee6
        2175000	       216	80000e18	00008117	auipc	x2,0x8	  x2=0x80008e14
        2185000	       217	80000e1c	ba310113	addi	x2,x2,-1117	  x2:0x80008e14  x2=0x800089b7
        2195000	       218	80000e20	40f15633	sra	x12,x2,x15	  x2:0x800089b7 x15:0xffbfdf2f x12=0xffff0001
        2205000	       219	80000e24	03715683	lhu	x13,55(x2)	  x2:0x800089b7 x13=0x00006d9d PA:0x800089ee
        2215000	       220	80000e28	c282f313	andi	x6,x5,-984	  x5:0x80000b78  x6=0x80000828
        2225000	       221	80000e2c	414b8ab3	sub	x21,x23,x20	 x23:0x9db20ee6 x20:0x9393de2f x21=0x0a1e30b7
        2235000	       222	80000e30	fdf111a3	sh	x31,-61(x2)	  x2:0x800089b7 x31:0xd5e53db3 PA:0x8000897a
        2245000	       223	80000e34	40a659b3	sra	x19,x12,x10	 x12:0xffff0001 x10:0x80000000 x19=0xffff0001
        2255000	       224	80000e38	018b1b93	slli	x23,x22,0x18	 x22:0x00000181 x23=0x81000000
        2265000	       225	80000e3c	fd910d83	lb	x27,-39(x2)	  x2:0x800089b7 x27=0x00000050 PA:0x80008990
        2275000	       226	80000e40	00938633	add	x12,x7,x9	  x7:0xffffff7f  x9:0x14a9c6cf x12=0x14a9c64e
        2285000	       227	80000e44	b86a7b13	andi	x22,x20,-1146	 x20:0x9393de2f x22=0x9393da06
        2295000	       228	80000e48	00984333	xor	x6,x16,x9	 x16:0xfffffbcd  x9:0x14a9c6cf  x6=0xeb563d02
        2305000	       229	80000e4c	40b4deb3	sra	x29,x9,x11	  x9:0x14a9c6cf x11:0xe9101830 x29=0x000014a9
        2315000	       230	80000e50	002f4833	xor	x16,x30,x2	 x30:0x00000000  x2:0x800089b7 x16=0x800089b7
        2325000	       231	80000e54	0051c7b3	xor	x15,x3,x5	  x3:0x00000000  x5:0x80000b78 x15=0x80000b78
        2335000	       232	80000e58	000736b3	sltu	x13,x14,x0	 x14:0x80000a3d  x0:0x00000000 x13=0x00000000
        2345000	       233	80000e5c	fc014e03	lbu	x28,-64(x2)	  x2:0x800089b7 x28=0x0000004d PA:0x80008977
        2355000	       234	80000e60	00010783	lb	x15,0(x2)	  x2:0x800089b7 x15=0x0000001f PA:0x800089b7
        2365000	       235	80000e64	c5337d13	andi	x26,x6,-941	  x6:0xeb563d02 x26=0xeb563c02
        2375000	       236	80000e68	01a10f83	lb	x31,26(x2)	  x2:0x800089b7 x31=0xfffffff1 PA:0x800089d1
        2385000	       237	80000e6c	ff714a03	lbu	x20,-9(x2)	  x2:0x800089b7 x20=0x0000004d PA:0x800089ae
        2395000	       238	80000e70	01d6d313	srli	x6,x13,0x1d	 x13:0x00000000  x6=0x00000000
        2405000	       239	80000e74	fe010d03	lb	x26,-32(x2)	  x2:0x800089b7 x26=0x00000072 PA:0x80008997
        2415000	       240	00000000	00000013	addi	x0,x0,0	  x0:0x00000000
        2425000	       241	80000e78	01abccb3	xor	x25,x23,x26	 x23:0x81000000 x26:0x00000072 x25=0x81000072
        2435000	       242	80000e7c	014968b3	or	x17,x18,x20	 x18:0x80009f5c x20:0x0000004d x17=0x80009f5d
        2445000	       243	80000e80	c5e86493	ori	x9,x16,-930	 x16:0x800089b7  x9=0xfffffdff
        2455000	       244	80000e84	000bbf33	sltu	x30,x23,x0	 x23:0x81000000  x0:0x00000000 x30=0x00000000
        2465000	       245	80000e88	fd810f03	lb	x30,-40(x2)	  x2:0x800089b7 x30=0x00000023 PA:0x8000898f
        2475000	       246	80000e8c	ff711e03	lh	x28,-9(x2)	  x2:0x800089b7 x28=0x0000084d PA:0x800089ae
        2485000	       247	80000e90	fe712ea3	sw	x7,-3(x2)	  x2:0x800089b7  x7:0xffffff7f PA:0x800089b4
        2495000	       248	80000e94	5cecbf93	sltiu	x31,x25,1486	 x25:0x81000072 x31=0x00000000
        2505000	       249	80000e98	000d1193	slli	x3,x26,0x0	 x26:0x00000072  x3=0x00000072
        2515000	       250	80000e9c	02714603	lbu	x12,39(x2)	  x2:0x800089b7 x12=0x000000b6 PA:0x800089de
        2525000	       251	80000ea0	fc6117a3	sh	x6,-49(x2)	  x2:0x800089b7  x6:0x00000000 PA:0x80008986
        2535000	       252	80000ea4	fca10123	sb	x10,-62(x2)	  x2:0x800089b7 x10:0x80000000 PA:0x80008979
        2545000	       253	80000ea8	fcf14c83	lbu	x25,-49(x2)	  x2:0x800089b7 x25=0x00000000 PA:0x80008986
        2555000	       254	80000eac	9fda2413	slti	x8,x20,-1539	 x20:0x0000004d  x8=0x00000000
        2565000	       255	80000eb0	023111a3	sh	x3,35(x2)	  x2:0x800089b7  x3:0x00000072 PA:0x800089da
        2575000	       256	80000eb4	00008d17	auipc	x26,0x8	 x26=0x80008eb0
        2585000	       257	80000eb8	8e9d0d13	addi	x26,x26,-1815	 x26:0x80008eb0 x26=0x80008799
        2595000	       258	80000ebc	fecd4e83	lbu	x29,-20(x26)	 x26:0x80008799 x29=0x00000058 PA:0x80008785
        2605000	       259	80000ec0	00000013	addi	x0,x0,0	  x0:0x00000000
        2615000	       260	80000ec4	046d0d83	lb	x27,70(x26)	 x26:0x80008799 x27=0xffffff8b PA:0x800087df
        2625000	       261	80000ec8	9a3a8f13	addi	x30,x21,-1629	 x21:0x0a1e30b7 x30=0x0a1e2a5a
        2635000	       262	80000ecc	68e0cb13	xori	x22,x1,1678	  x1:0x1db20ee6 x22=0x1db20868
        2645000	       263	80000ed0	066d4803	lbu	x16,102(x26)	 x26:0x80008799 x16=0x000000e3 PA:0x800087ff
        2655000	       264	80000ed4	408f5093	srai	x1,x30,0x8	 x30:0x0a1e2a5a  x1=0x000a1e2a
        2665000	       265	80000ed8	0166d233	srl	x4,x13,x22	 x13:0x00000000 x22:0x1db20868  x4=0x00000000
        2675000	       266	80000edc	410a03b3	sub	x7,x20,x16	 x20:0x0000004d x16:0x000000e3  x7=0xffffff6a
        2685000	       267	80000ee0	029d5d83	lhu	x27,41(x26)	 x26:0x80008799 x27=0x0000eb3c PA:0x800087c2
        2695000	       268	80000ee4	022d4803	lbu	x16,34(x26)	 x26:0x80008799 x16=0x0000003f PA:0x800087bb
        2705000	       269	80000ee8	f0ad0683	lb	x13,-246(x26)	 x26:0x80008799 x13=0xffffffc0 PA:0x800086a3
        2715000	       270	80000eec	df19a293	slti	x5,x19,-527	 x19:0xffff0001  x5=0x00000001
        2725000	       271	80000ef0	f94d4f03	lbu	x30,-108(x26)	 x26:0x80008799 x30=0x00000063 PA:0x8000872d
        2735000	       272	80000ef4	01541a93	slli	x21,x8,0x15	  x8:0x00000000 x21=0x00000000
        2745000	       273	80000ef8	96596a13	ori	x20,x18,-1691	 x18:0x80009f5c x20=0xffffff7d
        2755000	       274	80000efc	035d1783	lh	x15,53(x26)	 x26:0x80008799 x15=0x0000525a PA:0x800087ce
        2765000	       275	80000f00	01c9e833	or	x16,x19,x28	 x19:0xffff0001 x28:0x0000084d x16=0xffff084d
        2775000	       276	80000f04	ff2d4803	lbu	x16,-14(x26)	 x26:0x80008799 x16=0x00000079 PA:0x8000878b
        2785000	       277	80000f08	00f63db3	sltu	x27,x12,x15	 x12:0x000000b6 x15:0x0000525a x27=0x00000001
        2795000	       278	80000f0c	fc2d0683	lb	x13,-62(x26)	 x26:0x80008799 x13=0x0000006b PA:0x8000875b
        2805000	       279	80000f10	fb7d1a03	lh	x20,-73(x26)	 x26:0x80008799 x20=0x00004fd1 PA:0x80008750
        2815000	       280	80000f14	98dea193	slti	x3,x29,-1651	 x29:0x00000058  x3=0x00000000
        2825000	       281	80000f18	012d1ca3	sh	x18,25(x26)	 x26:0x80008799 x18:0x80009f5c PA:0x800087b2
        2835000	       282	80000f1c	fd6d4c83	lbu	x25,-42(x26)	 x26:0x80008799 x25=0x00000051 PA:0x8000876f
        2845000	       283	80000f20	01d60333	add	x6,x12,x29	 x12:0x000000b6 x29:0x00000058  x6=0x0000010e
        2855000	       284	80000f24	009f0ab3	add	x21,x30,x9	 x30:0x00000063  x9:0xfffffdff x21=0xfffffe62
        2865000	       285	80000f28	006c2ab3	slt	x21,x24,x6	 x24:0x80009fc4  x6:0x0000010e x21=0x00000001
        2875000	       286	80000f2c	f43d2a03	lw	x20,-189(x26)	 x26:0x80008799 x20=0x251cc990 PA:0x800086dc
        2885000	       287	00000000	00000013	addi	x0,x0,0	  x0:0x00000000
        2895000	       288	80000f30	aeda63b7	lui	x7,0xaeda6	  x7=0xaeda6000
        2905000	       289	80000f34	14552793	slti	x15,x10,325	 x10:0x80000000 x15=0x00000001
        2915000	       290	80000f38	002b4463	blt	x22,x2,80000f40	 x22:0x1db20868  x2:0x800089b7
        2925000	       291	80000f3c	01cd6f33	or	x30,x26,x28	 x26:0x80008799 x28:0x0000084d x30=0x80008fdd
        2935000	       292	80000f40	0590e063	bltu	x1,x25,80000f80	  x1:0x000a1e2a x25:0x00000051
        2945000	       293	80000f44	01b45333	srl	x6,x8,x27	  x8:0x00000000 x27:0x00000001  x6=0x00000000
        2955000	       294	80000f48	001692b3	sll	x5,x13,x1	 x13:0x0000006b  x1:0x000a1e2a  x5=0x0001ac00
        2965000	       295	80000f4c	00632ab3	slt	x21,x6,x6	  x6:0x00000000  x6:0x00000000 x21=0x00000000
        2975000	       296	80000f50	407edfb3	sra	x31,x29,x7	 x29:0x00000058  x7:0xaeda6000 x31=0x00000058
        2985000	       297	80000f54	005d9e63	bne	x27,x5,80000f70	 x27:0x00000001  x5:0x0001ac00
        2995000	       298	00000000	00000013	addi	x0,x0,0	  x0:0x00000000
        3005000	       299	80000f6c	00000013	addi	x0,x0,0	  x0:0x00000000
        3015000	       300	80000f70	a812fa93	andi	x21,x5,-1407	  x5:0x0001ac00 x21=0x0001a800
        3025000	       301	80000f74	04b2e063	bltu	x5,x11,80000fb4	  x5:0x0001ac00 x11:0xe9101830
        3035000	       302	00000000	00000013	addi	x0,x0,0	  x0:0x00000000
        3045000	       303	80000fb0	00000013	addi	x0,x0,0	  x0:0x00000000
        3055000	       304	80000fb4	409786b3	sub	x13,x15,x9	 x15:0x00000001  x9:0xfffffdff x13=0x00000202
        3065000	       305	80000fb8	00000013	addi	x0,x0,0	  x0:0x00000000
        3075000	       306	80000fbc	00238cb3	add	x25,x7,x2	  x7:0xaeda6000  x2:0x800089b7 x25=0x2edae9b7
        3085000	       307	80000fc0	00465093	srli	x1,x12,0x4	 x12:0x000000b6  x1=0x0000000b
        3095000	       308	80000fc4	05667863	bgeu	x12,x22,80001014	 x12:0x000000b6 x22:0x1db20868
        3105000	       309	80000fc8	411152b3	sra	x5,x2,x17	  x2:0x800089b7 x17:0x80009f5d  x5=0xfffffffc
        3115000	       310	80000fcc	40d7dc93	srai	x25,x15,0xd	 x15:0x00000001 x25=0x00000000
        3125000	       311	80000fd0	003bd263	bge	x23,x3,80000fd4	 x23:0x81000000  x3:0x00000000
        3135000	       312	80000fd4	0cf4f413	andi	x8,x9,207	  x9:0xfffffdff  x8=0x000000cf
        3145000	       313	80000fd8	d6790f97	auipc	x31,0xd6790	 x31=0x56790fd4
        3155000	       314	80000fdc	00867c63	bgeu	x12,x8,80000ff4	 x12:0x000000b6  x8:0x000000cf
        3165000	       315	80000fe0	416b8333	sub	x6,x23,x22	 x23:0x81000000 x22:0x1db20868  x6=0x634df798
        3175000	       316	80000fe4	40855ab3	sra	x21,x10,x8	 x10:0x80000000  x8:0x000000cf x21=0xffff0000
        3185000	       317	80000fe8	00a07663	bgeu	x0,x10,80000ff4	  x0:0x00000000 x10:0x80000000
        3195000	       318	80000fec	01980333	add	x6,x16,x25	 x16:0x00000079 x25:0x00000000  x6=0x00000079
        3205000	       319	80000ff0	008116b3	sll	x13,x2,x8	  x2:0x800089b7  x8:0x000000cf x13=0x44db8000
        3215000	       320	80000ff4	006cdcb3	srl	x25,x25,x6	 x25:0x00000000  x6:0x00000079 x25=0x00000000
        3225000	       321	80000ff8	001fe863	bltu	x31,x1,80001008	 x31:0x56790fd4  x1:0x0000000b
        3235000	       322	80000ffc	011d41b3	xor	x3,x26,x17	 x26:0x80008799 x17:0x80009f5d  x3=0x000018c4
        3245000	       323	80001000	039ce663	bltu	x25,x25,8000102c	 x25:0x00000000 x25:0x00000000
        3255000	       324	80001004	01cebf33	sltu	x30,x29,x28	 x29:0x00000058 x28:0x0000084d x30=0x00000001
        3265000	       325	80001008	01a25b93	srli	x23,x4,0x1a	  x4:0x00000000 x23=0x00000000
        3275000	       326	8000100c	46b8d097	auipc	x1,0x46b8d	  x1=0xc6b8e008
        3285000	       327	80001010	7eba0f93	addi	x31,x20,2027	 x20:0x251cc990 x31=0x251cd17b
        3295000	       328	80001014	861c7817	auipc	x16,0x861c7	 x16=0x061c8010
        3305000	       329	80001018	41dfd793	srai	x15,x31,0x1d	 x31:0x251cd17b x15=0x00000001
        3315000	       330	8000101c	03a0d663	bge	x1,x26,80001048	  x1:0xc6b8e008 x26:0x80008799
        3325000	       331	00000000	00000013	addi	x0,x0,0	  x0:0x00000000
        3335000	       332	80001044	00000013	addi	x0,x0,0	  x0:0x00000000
        3345000	       333	80001048	0149f633	and	x12,x19,x20	 x19:0xffff0001 x20:0x251cc990 x12=0x251c0000
        3355000	       334	8000104c	4743c593	xori	x11,x7,1140	  x7:0xaeda6000 x11=0xaeda6474
        3365000	       335	80001050	009bd793	srli	x15,x23,0x9	 x23:0x00000000 x15=0x00000000
        3375000	       336	80001054	02fef263	bgeu	x29,x15,80001078	 x29:0x00000058 x15:0x00000000
        3385000	       337	00000000	00000013	addi	x0,x0,0	  x0:0x00000000
        3395000	       338	80001074	00000013	addi	x0,x0,0	  x0:0x00000000
        3405000	       339	80001078	02938463	beq	x7,x9,800010a0	  x7:0xaeda6000  x9:0xfffffdff
        3415000	       340	8000107c	410353b3	sra	x7,x6,x16	  x6:0x00000079 x16:0x061c8010  x7=0x00000000
        3425000	       341	80001080	fe3ce393	ori	x7,x25,-29	 x25:0x00000000  x7=0xffffffe3
        3435000	       342	80001084	01f95813	srli	x16,x18,0x1f	 x18:0x80009f5c x16=0x00000001
        3445000	       343	80001088	016899b3	sll	x19,x17,x22	 x17:0x80009f5d x22:0x1db20868 x19=0x009f5d00
        3455000	       344	8000108c	03de7a63	bgeu	x28,x29,800010c0	 x28:0x0000084d x29:0x00000058
        3465000	       345	00000000	00000013	addi	x0,x0,0	  x0:0x00000000
        3475000	       346	800010bc	00000013	addi	x0,x0,0	  x0:0x00000000
        3485000	       347	800010c0	c0c14e93	xori	x29,x2,-1012	  x2:0x800089b7 x29=0x7fff75bb
        3495000	       348	800010c4	01c7ca63	blt	x15,x28,800010d8	 x15:0x00000000 x28:0x0000084d
        3505000	       349	00000000	00000013	addi	x0,x0,0	  x0:0x00000000
        3515000	       350	800010d4	00000013	addi	x0,x0,0	  x0:0x00000000
        3525000	       351	800010d8	01abe8b3	or	x17,x23,x26	 x23:0x00000000 x26:0x80008799 x17=0x80008799
        3535000	       352	800010dc	00fdd863	bge	x27,x15,800010ec	 x27:0x00000001 x15:0x00000000
        3545000	       353	00000000	00000013	addi	x0,x0,0	  x0:0x00000000
        3555000	       354	800010e8	00000013	addi	x0,x0,0	  x0:0x00000000
        3565000	       355	800010ec	00c8f1b3	and	x3,x17,x12	 x17:0x80008799 x12:0x251c0000  x3=0x00000000
        3575000	       356	800010f0	2ffe1cb7	lui	x25,0x2ffe1	 x25=0x2ffe1000
        3585000	       357	800010f4	002a44b3	xor	x9,x20,x2	 x20:0x251cc990  x2:0x800089b7  x9=0xa51c4027
        3595000	       358	800010f8	428ccc93	xori	x25,x25,1064	 x25:0x2ffe1000 x25=0x2ffe1428
        3605000	       359	800010fc	bc6e7c93	andi	x25,x28,-1082	 x28:0x0000084d x25=0x00000844
        3615000	       360	80001100	0050e863	bltu	x1,x5,80001110	  x1:0xc6b8e008  x5:0xfffffffc
        3625000	       361	00000000	00000013	addi	x0,x0,0	  x0:0x00000000
        3635000	       362	8000110c	00000013	addi	x0,x0,0	  x0:0x00000000
        3645000	       363	80001110	41a2d693	srai	x13,x5,0x1a	  x5:0xfffffffc x13=0xffffffff
        3655000	       364	80001114	01837863	bgeu	x6,x24,80001124	  x6:0x00000079 x24:0x80009fc4
        3665000	       365	80001118	398f1d97	auipc	x27,0x398f1	 x27=0xb98f2114
        3675000	       366	8000111c	01c9d693	srli	x13,x19,0x1c	 x19:0x009f5d00 x13=0x00000000
        3685000	       367	80001120	d59a8897	auipc	x17,0xd59a8	 x17=0x559a911c
        3695000	       368	80001124	c9710997	auipc	x19,0xc9710	 x19=0x49711120
        3705000	       369	80001128	0165bd33	sltu	x26,x11,x22	 x11:0xaeda6474 x22:0x1db20868 x26=0x00000000
        3715000	       370	8000112c	02eaea63	bltu	x21,x14,80001160	 x21:0xffff0000 x14:0x80000a3d
        3725000	       371	80001130	e0c96497	auipc	x9,0xe0c96	  x9=0x60c9712c
        3735000	       372	80001134	004f51b3	srl	x3,x30,x4	 x30:0x00000001  x4:0x00000000  x3=0x00000001
        3745000	       373	80001138	00960663	beq	x12,x9,80001144	 x12:0x251c0000  x9:0x60c9712c
        3755000	       374	8000113c	005fc033	xor	x0,x31,x5	 x31:0x251cd17b  x5:0xfffffffc
        3765000	       375	80001140	71ff0313	addi	x6,x30,1823	 x30:0x00000001  x6=0x00000720
        3775000	       376	80001144	41525033	sra	x0,x4,x21	  x4:0x00000000 x21:0xffff0000
        3785000	       377	80001148	accc5b37	lui	x22,0xaccc5	 x22=0xaccc5000
        3795000	       378	8000114c	00aba733	slt	x14,x23,x10	 x23:0x00000000 x10:0x80000000 x14=0x00000000
        3805000	       379	80001150	400d5b33	sra	x22,x26,x0	 x26:0x00000000  x0:0x00000000 x22=0x00000000
        3815000	       380	80001154	ec456a93	ori	x21,x10,-316	 x10:0x80000000 x21=0xfffffec4
        3825000	       381	80001158	b2d24113	xori	x2,x4,-1235	  x4:0x00000000  x2=0xfffffb2d
        3835000	       382	8000115c	77d4e117	auipc	x2,0x77d4e	  x2=0xf7d4f158
        3845000	       383	80001160	15481017	auipc	x0,0x15481	
        3855000	       384	80001164	0025e733	or	x14,x11,x2	 x11:0xaeda6474  x2:0xf7d4f158 x14=0xffdef57c
        3865000	       385	80001168	b431fa13	andi	x20,x3,-1213	  x3:0x00000001 x20=0x00000001
        3875000	       386	8000116c	01074f33	xor	x30,x14,x16	 x14:0xffdef57c x16:0x00000001 x30=0xffdef57d
        3885000	       387	80001170	419d8733	sub	x14,x27,x25	 x27:0xb98f2114 x25:0x00000844 x14=0xb98f18d0
        3895000	       388	80001174	39b0b093	sltiu	x1,x1,923	  x1:0xc6b8e008  x1=0x00000000
        3905000	       389	80001178	7bbaf193	andi	x3,x21,1979	 x21:0xfffffec4  x3=0x00000680
        3915000	       390	8000117c	01d28863	beq	x5,x29,8000118c	  x5:0xfffffffc x29:0x7fff75bb
        3925000	       391	80001180	4a8d3d93	sltiu	x27,x26,1192	 x26:0x00000000 x27=0x00000001
        3935000	       392	80001184	d3327b93	andi	x23,x4,-717	  x4:0x00000000 x23=0x00000000
        3945000	       393	80001188	8bf43e13	sltiu	x28,x8,-1857	  x8:0x000000cf x28=0x00000001
        3955000	       394	8000118c	00dff663	bgeu	x31,x13,80001198	 x31:0x251cd17b x13:0x00000000
        3965000	       395	00000000	00000013	addi	x0,x0,0	  x0:0x00000000
        3975000	       396	80001194	00000013	addi	x0,x0,0	  x0:0x00000000
        3985000	       397	80001198	41c9db13	srai	x22,x19,0x1c	 x19:0x49711120 x22=0x00000004
        3995000	       398	8000119c	016dbf33	sltu	x30,x27,x22	 x27:0x00000001 x22:0x00000004 x30=0x00000001
        4005000	       399	800011a0	01c3cfb3	xor	x31,x7,x28	  x7:0xffffffe3 x28:0x00000001 x31=0xffffffe2
        4015000	       400	800011a4	41610233	sub	x4,x2,x22	  x2:0xf7d4f158 x22:0x00000004  x4=0xf7d4f154
        4025000	       401	800011a8	0029d693	srli	x13,x19,0x2	 x19:0x49711120 x13=0x125c4448
        4035000	       402	800011ac	408c5893	srai	x17,x24,0x8	 x24:0x80009fc4 x17=0xff80009f
        4045000	       403	800011b0	00cfae33	slt	x28,x31,x12	 x31:0xffffffe2 x12:0x251c0000 x28=0x00000001
        4055000	       404	800011b4	00680463	beq	x16,x6,800011bc	 x16:0x00000001  x6:0x00000720
        4065000	       405	800011b8	027c8063	beq	x25,x7,800011d8	 x25:0x00000844  x7:0xffffffe3
        4075000	       406	800011bc	00946f33	or	x30,x8,x9	  x8:0x000000cf  x9:0x60c9712c x30=0x60c971ef
        4085000	       407	800011c0	008c5e63	bge	x24,x8,800011dc	 x24:0x80009fc4  x8:0x000000cf
        4095000	       408	800011c4	0184fbb3	and	x23,x9,x24	  x9:0x60c9712c x24:0x80009fc4 x23=0x00001104
        4105000	       409	800011c8	00a80bb3	add	x23,x16,x10	 x16:0x00000001 x10:0x80000000 x23=0x80000001
        4115000	       410	800011cc	0e940b93	addi	x23,x8,233	  x8:0x000000cf x23=0x000001b8
        4125000	       411	800011d0	4178d0b3	sra	x1,x17,x23	 x17:0xff80009f x23:0x000001b8  x1=0xffffffff
        4135000	       412	800011d4	44a44993	xori	x19,x8,1098	  x8:0x000000cf x19=0x00000485
        4145000	       413	800011d8	4d27a693	slti	x13,x15,1234	 x15:0x00000000 x13=0x00000001
        4155000	       414	800011dc	00000013	addi	x0,x0,0	  x0:0x00000000
        4165000	       415	800011e0	039cfa63	bgeu	x25,x25,80001214	 x25:0x00000844 x25:0x00000844
        4175000	       416	00000000	00000013	addi	x0,x0,0	  x0:0x00000000
        4185000	       417	80001210	00000013	addi	x0,x0,0	  x0:0x00000000
        4195000	       418	80001214	c1bc6813	ori	x16,x24,-997	 x24:0x80009fc4 x16=0xffffffdf
        4205000	       419	80001218	01149593	slli	x11,x9,0x11	  x9:0x60c9712c x11=0xe2580000
        4215000	       420	8000121c	019d8db3	add	x27,x27,x25	 x27:0x00000001 x25:0x00000844 x27=0x00000845
        4225000	       421	80001220	00000013	addi	x0,x0,0	  x0:0x00000000
        4235000	       422	80001224	01e68c63	beq	x13,x30,8000123c	 x13:0x00000001 x30:0x60c971ef
        4245000	       423	80001228	71775817	auipc	x16,0x71775	 x16=0xf1776224
        4255000	       424	8000122c	02808263	beq	x1,x8,80001250	  x1:0xffffffff  x8:0x000000cf
        4265000	       425	80001230	fc4fe813	ori	x16,x31,-60	 x31:0xffffffe2 x16=0xffffffe6
        4275000	       426	80001234	7a61cf13	xori	x30,x3,1958	  x3:0x00000680 x30=0x00000126
        4285000	       427	80001238	420abe13	sltiu	x28,x21,1056	 x21:0xfffffec4 x28=0x00000000
        4295000	       428	8000123c	40cc5033	sra	x0,x24,x12	 x24:0x80009fc4 x12:0x251c0000
        4305000	       429	80001240	00d3afb3	slt	x31,x7,x13	  x7:0xffffffe3 x13:0x00000001 x31=0x00000001
        4315000	       430	80001244	01a8b9b3	sltu	x19,x17,x26	 x17:0xff80009f x26:0x00000000 x19=0x00000000
        4325000	       431	80001248	008809b3	add	x19,x16,x8	 x16:0xffffffe6  x8:0x000000cf x19=0x000000b5
        4335000	       432	8000124c	65c3f313	andi	x6,x7,1628	  x7:0xffffffe3  x6=0x00000640
        4345000	       433	80001250	01631f93	slli	x31,x6,0x16	  x6:0x00000640 x31=0x90000000
        4355000	       434	80001254	c74cf393	andi	x7,x25,-908	 x25:0x00000844  x7=0x00000844
        4365000	       435	80001258	00924033	xor	x0,x4,x9	  x4:0xf7d4f154  x9:0x60c9712c
        4375000	       436	8000125c	00871263	bne	x14,x8,80001260	 x14:0xb98f18d0  x8:0x000000cf
        4385000	       437	00000000	00000013	addi	x0,x0,0	  x0:0x00000000
        4395000	       438	8000125c	00000013	addi	x0,x0,0	  x0:0x00000000
        4405000	       439	80001260	00afe1b3	or	x3,x31,x10	 x31:0x90000000 x10:0x80000000  x3=0x90000000
        4415000	       440	80001264	009e4b33	xor	x22,x28,x9	 x28:0x00000000  x9:0x60c9712c x22=0x60c9712c
        4425000	       441	80001268	01415eb3	srl	x29,x2,x20	  x2:0xf7d4f158 x20:0x00000001 x29=0x7bea78ac
        4435000	       442	8000126c	04ae4063	blt	x28,x10,800012ac	 x28:0x00000000 x10:0x80000000
        4445000	       443	80001270	62f96eb7	lui	x29,0x62f96	 x29=0x62f96000
        4455000	       444	80001274	31baf717	auipc	x14,0x31baf	 x14=0xb1bb0270
        4465000	       445	80001278	00f75893	srli	x17,x14,0xf	 x14:0xb1bb0270 x17=0x00016376
        4475000	       446	8000127c	006fdfb3	srl	x31,x31,x6	 x31:0x90000000  x6:0x00000640 x31=0x90000000
        4485000	       447	80001280	01ac3eb3	sltu	x29,x24,x26	 x24:0x80009fc4 x26:0x00000000 x29=0x00000000
        4495000	       448	80001284	402c5593	srai	x11,x24,0x2	 x24:0x80009fc4 x11=0xe00027f1
        4505000	       449	80001288	004f5293	srli	x5,x30,0x4	 x30:0x00000126  x5=0x00000012
        4515000	       450	8000128c	00dfdd93	srli	x27,x31,0xd	 x31:0x90000000 x27=0x00048000
        4525000	       451	80001290	dd0cbf13	sltiu	x30,x25,-560	 x25:0x00000844 x30=0x00000001
        4535000	       452	80001294	01c00463	beq	x0,x28,8000129c	  x0:0x00000000 x28:0x00000000
        4545000	       453	00000000	00000013	addi	x0,x0,0	  x0:0x00000000
        4555000	       454	80001298	00000013	addi	x0,x0,0	  x0:0x00000000
        4565000	       455	8000129c	01823333	sltu	x6,x4,x24	  x4:0xf7d4f154 x24:0x80009fc4  x6=0x00000000
        4575000	       456	800012a0	02691463	bne	x18,x6,800012c8	 x18:0x80009f5c  x6:0x00000000
        4585000	       457	00000000	00000013	addi	x0,x0,0	  x0:0x00000000
        4595000	       458	800012c4	00000013	addi	x0,x0,0	  x0:0x00000000
        4605000	       459	800012c8	00ed98b3	sll	x17,x27,x14	 x27:0x00048000 x14:0xb1bb0270 x17=0x80000000
        4615000	       460	800012cc	00aee1b3	or	x3,x29,x10	 x29:0x00000000 x10:0x80000000  x3=0x80000000
        4625000	       461	800012d0	00d52ab3	slt	x21,x10,x13	 x10:0x80000000 x13:0x00000001 x21=0x00000001
        4635000	       462	800012d4	d2046d93	ori	x27,x8,-736	  x8:0x000000cf x27=0xfffffdef
        4645000	       463	800012d8	010df333	and	x6,x27,x16	 x27:0xfffffdef x16:0xffffffe6  x6=0xfffffde6
        4655000	       464	800012dc	00c191b3	sll	x3,x3,x12	  x3:0x80000000 x12:0x251c0000  x3=0x80000000
        4665000	       465	800012e0	40520db3	sub	x27,x4,x5	  x4:0xf7d4f154  x5:0x00000012 x27=0xf7d4f142
        4675000	       466	800012e4	d6be27b7	lui	x15,0xd6be2	 x15=0xd6be2000
        4685000	       467	800012e8	40ee8f33	sub	x30,x29,x14	 x29:0x00000000 x14:0xb1bb0270 x30=0x4e44fd90
        4695000	       468	800012ec	d4cdf593	andi	x11,x27,-692	 x27:0xf7d4f142 x11=0xf7d4f140
        4705000	       469	800012f0	354eb093	sltiu	x1,x29,852	 x29:0x00000000  x1=0x00000001
        4715000	       470	800012f4	0fa60db7	lui	x27,0xfa60	 x27=0x0fa60000
        4725000	       471	800012f8	0014d613	srli	x12,x9,0x1	  x9:0x60c9712c x12=0x3064b896
        4735000	       472	800012fc	04ee6863	bltu	x28,x14,8000134c	 x28:0x00000000 x14:0xb1bb0270
        4745000	       473	00000000	00000013	addi	x0,x0,0	  x0:0x00000000
        4755000	       474	80001348	00000013	addi	x0,x0,0	  x0:0x00000000
        4765000	       475	8000134c	00c14a63	blt	x2,x12,80001360	  x2:0xf7d4f158 x12:0x3064b896
        4775000	       476	00000000	00000013	addi	x0,x0,0	  x0:0x00000000
        4785000	       477	8000135c	00000013	addi	x0,x0,0	  x0:0x00000000
        4795000	       478	80001360	405b5613	srai	x12,x22,0x5	 x22:0x60c9712c x12=0x03064b89
        4805000	       479	80001364	012a0db3	add	x27,x20,x18	 x20:0x00000001 x18:0x80009f5c x27=0x80009f5d
        4815000	       480	80001368	01af8233	add	x4,x31,x26	 x31:0x90000000 x26:0x00000000  x4=0x90000000
        4825000	       481	8000136c	41f18cb3	sub	x25,x3,x31	  x3:0x80000000 x31:0x90000000 x25=0xf0000000
        4835000	       482	80001370	011d6fb3	or	x31,x26,x17	 x26:0x00000000 x17:0x80000000 x31=0x80000000
        4845000	       483	80001374	04391863	bne	x18,x3,800013c4	 x18:0x80009f5c  x3:0x80000000
        4855000	       484	00000000	00000013	addi	x0,x0,0	  x0:0x00000000
        4865000	       485	800013c0	00000013	addi	x0,x0,0	  x0:0x00000000
        4875000	       486	800013c4	010ad9b3	srl	x19,x21,x16	 x21:0x00000001 x16:0xffffffe6 x19=0x00000000
        4885000	       487	800013c8	219a8f93	addi	x31,x21,537	 x21:0x00000001 x31=0x0000021a
        4895000	       488	800013cc	01ded263	bge	x29,x29,800013d0	 x29:0x00000000 x29:0x00000000
        4905000	       489	00000000	00000013	addi	x0,x0,0	  x0:0x00000000
        4915000	       490	800013cc	00000013	addi	x0,x0,0	  x0:0x00000000
        4925000	       491	800013d0	c66df813	andi	x16,x27,-922	 x27:0x80009f5d x16=0x80009c44
        4935000	       492	800013d4	01b23f33	sltu	x30,x4,x27	  x4:0x90000000 x27:0x80009f5d x30=0x00000000
        4945000	       493	800013d8	014c5393	srli	x7,x24,0x14	 x24:0x80009fc4  x7=0x00000800
        4955000	       494	800013dc	5b2ca1b7	lui	x3,0x5b2ca	  x3=0x5b2ca000
        4965000	       495	800013e0	0236c063	blt	x13,x3,80001400	 x13:0x00000001  x3:0x5b2ca000
        4975000	       496	00000000	00000013	addi	x0,x0,0	  x0:0x00000000
        4985000	       497	800013fc	00000013	addi	x0,x0,0	  x0:0x00000000
        4995000	       498	80001400	03dd1663	bne	x26,x29,8000142c	 x26:0x00000000 x29:0x00000000
        5005000	       499	80001404	00e97863	bgeu	x18,x14,80001414	 x18:0x80009f5c x14:0xb1bb0270
        5015000	       500	80001408	00000013	addi	x0,x0,0	  x0:0x00000000
        5025000	       501	8000140c	0137a3b3	slt	x7,x15,x19	 x15:0xd6be2000 x19:0x00000000  x7=0x00000001
        5035000	       502	80001410	0225da63	bge	x11,x2,80001444	 x11:0xf7d4f140  x2:0xf7d4f158
        5045000	       503	80001414	4010d833	sra	x16,x1,x1	  x1:0x00000001  x1:0x00000001 x16=0x00000000
        5055000	       504	80001418	00000013	addi	x0,x0,0	  x0:0x00000000
        5065000	       505	8000141c	00f0b9b3	sltu	x19,x1,x15	  x1:0x00000001 x15:0xd6be2000 x19=0x00000001
        5075000	       506	80001420	40725733	sra	x14,x4,x7	  x4:0x90000000  x7:0x00000001 x14=0xc8000000
        5085000	       507	80001424	01014863	blt	x2,x16,80001434	  x2:0xf7d4f158 x16:0x00000000
        5095000	       508	00000000	00000013	addi	x0,x0,0	  x0:0x00000000
        5105000	       509	80001430	00000013	addi	x0,x0,0	  x0:0x00000000
        5115000	       510	80001434	efa37137	lui	x2,0xefa37	  x2=0xefa37000
        5125000	       511	80001438	41578db3	sub	x27,x15,x21	 x15:0xd6be2000 x21:0x00000001 x27=0xd6be1fff
        5135000	       512	8000143c	019abeb3	sltu	x29,x21,x25	 x21:0x00000001 x25:0xf0000000 x29=0x00000001
        5145000	       513	80001440	40b557b3	sra	x15,x10,x11	 x10:0x80000000 x11:0xf7d4f140 x15=0x80000000
        5155000	       514	80001444	5ccc6293	ori	x5,x24,1484	 x24:0x80009fc4  x5=0x80009fcc
        5165000	       515	80001448	74daba93	sltiu	x21,x21,1869	 x21:0x00000001 x21=0x00000001
        5175000	       516	8000144c	7d11c717	auipc	x14,0x7d11c	 x14=0xfd11d448
        5185000	       517	80001450	b14e1617	auipc	x12,0xb14e1	 x12=0x314e244c
        5195000	       518	80001454	e900e993	ori	x19,x1,-368	  x1:0x00000001 x19=0xfffffe91
        5205000	       519	80001458	0078acb3	slt	x25,x17,x7	 x17:0x80000000  x7:0x00000001 x25=0x00000001
        5215000	       520	8000145c	01d34463	blt	x6,x29,80001464	  x6:0xfffffde6 x29:0x00000001
        5225000	       521	00000000	00000013	addi	x0,x0,0	  x0:0x00000000
        5235000	       522	80001460	00000013	addi	x0,x0,0	  x0:0x00000000
        5245000	       523	80001464	0173fe33	and	x28,x7,x23	  x7:0x00000001 x23:0x000001b8 x28=0x00000000
        5255000	       524	80001468	004ddb33	srl	x22,x27,x4	 x27:0xd6be1fff  x4:0x90000000 x22=0xd6be1fff
        5265000	       525	8000146c	009efa63	bgeu	x29,x9,80001480	 x29:0x00000001  x9:0x60c9712c
        5275000	       526	80001470	006dbe33	sltu	x28,x27,x6	 x27:0xd6be1fff  x6:0xfffffde6 x28=0x00000001
        5285000	       527	80001474	40ca5033	sra	x0,x20,x12	 x20:0x00000001 x12:0x314e244c
        5295000	       528	80001478	00165a33	srl	x20,x12,x1	 x12:0x314e244c  x1:0x00000001 x20=0x18a71226
        5305000	       529	8000147c	01d0cb33	xor	x22,x1,x29	  x1:0x00000001 x29:0x00000001 x22=0x00000000
        5315000	       530	80001480	01ea01b3	add	x3,x20,x30	 x20:0x18a71226 x30:0x00000000  x3=0x18a71226
        5325000	       531	80001484	49f48193	addi	x3,x9,1183	  x9:0x60c9712c  x3=0x60c975cb
        5335000	       532	80001488	00276e33	or	x28,x14,x2	 x14:0xfd11d448  x2:0xefa37000 x28=0xffb3f448
        5345000	       533	8000148c	d8a02893	slti	x17,x0,-630	  x0:0x00000000 x17=0x00000000
        5355000	       534	80001490	006e50b3	srl	x1,x28,x6	 x28:0xffb3f448  x6:0xfffffde6  x1=0x03fecfd1
        5365000	       535	80001494	2cab7593	andi	x11,x22,714	 x22:0x00000000 x11=0x00000000
        5375000	       536	80001498	00492683	lw	x13,4(x18)	 x18:0x80009f5c x13=0x80000184 PA:0x80009f60
        5385000	       537	8000149c	00000013	addi	x0,x0,0	  x0:0x00000000
        5395000	       538	800014a0	00930333	add	x6,x6,x9	  x6:0xfffffde6  x9:0x60c9712c  x6=0x60c96f12
        5405000	       539	800014a4	4f34ee13	ori	x28,x9,1267	  x9:0x60c9712c x28=0x60c975ff
        5415000	       540	800014a8	02890913	addi	x18,x18,40	 x18:0x80009f5c x18=0x80009f84
        5425000	       541	800014ac	01fb5633	srl	x12,x22,x31	 x22:0x00000000 x31:0x0000021a x12=0x00000000
        5435000	       542	800014b0	00519b13	slli	x22,x3,0x5	  x3:0x60c975cb x22=0x192eb960
        5445000	       543	800014b4	00068b93	addi	x23,x13,0	 x13:0x80000184 x23=0x80000184
        5455000	       544	800014b8	000b8be7	jalr	x23,x23,0	 x23:0x80000184 x23=0x800014b8
        5465000	       545	00000000	00000013	addi	x0,x0,0	  x0:0x00000000
        5475000	       546	80000184	00000013	addi	x0,x0,0	  x0:0x00000000
        5485000	       547	80000188	00001b17	auipc	x22,0x1	 x22=0x80001184
        5495000	       548	8000018c	bb4b0b13	addi	x22,x22,-1100	 x22:0x80001184 x22=0x80000d38
        5505000	       549	80000190	00e71613	slli	x12,x14,0xe	 x14:0xfd11d448 x12=0x75120000
        5515000	       550	80000194	4132dab3	sra	x21,x5,x19	  x5:0x80009fcc x19:0xfffffe91 x21=0xffffc000
        5525000	       551	80000198	f76b0b13	addi	x22,x22,-138	 x22:0x80000d38 x22=0x80000cae
        5535000	       552	8000019c	23233213	sltiu	x4,x6,562	  x6:0x60c96f12  x4=0x00000000
        5545000	       553	800001a0	0171e5b3	or	x11,x3,x23	  x3:0x60c975cb x23:0x800014b8 x11=0xe0c975fb
        5555000	       554	800001a4	00c59393	slli	x7,x11,0xc	 x11:0xe0c975fb  x7=0x975fb000
        5565000	       555	800001a8	bbcaa993	slti	x19,x21,-1092	 x21:0xffffc000 x19=0x00000001
        5575000	       556	800001ac	01e56133	or	x2,x10,x30	 x10:0x80000000 x30:0x00000000  x2=0x80000000
        5585000	       557	800001b0	e399c693	xori	x13,x19,-455	 x19:0x00000001 x13=0xfffffe38
        5595000	       558	800001b4	08bb06e7	jalr	x13,x22,139	 x22:0x80000cae x13=0x800001b4
        5605000	       559	00000000	00000013	addi	x0,x0,0	  x0:0x00000000
        5615000	       560	80000d38	00000013	addi	x0,x0,0	  x0:0x00000000
        5625000	       561	80000d3c	da59e713	ori	x14,x19,-603	 x19:0x00000001 x14=0xfffffda5
        5635000	       562	80000d40	00781cb3	sll	x25,x16,x7	 x16:0x00000000  x7:0x975fb000 x25=0x00000000
        5645000	       563	80000d44	fe090913	addi	x18,x18,-32	 x18:0x80009f84 x18=0x80009f64
        5655000	       564	80000d48	830dcb93	xori	x23,x27,-2000	 x27:0xd6be1fff x23=0x2941e7cf
        5665000	       565	80000d4c	9afea813	slti	x16,x29,-1617	 x29:0x00000001 x16=0x00000000
        5675000	       566	80000d50	0112b433	sltu	x8,x5,x17	  x5:0x80009fcc x17:0x00000000  x8=0x00000000
        5685000	       567	80000d54	a7f1b193	sltiu	x3,x3,-1409	  x3:0x60c975cb  x3=0x00000001
        5695000	       568	80000d58	01891113	slli	x2,x18,0x18	 x18:0x80009f64  x2=0x64000000
        5705000	       569	80000d5c	00be3433	sltu	x8,x28,x11	 x28:0x60c975ff x11:0xe0c975fb  x8=0x00000001
        5715000	       570	80000d60	00d92223	sw	x13,4(x18)	 x18:0x80009f64 x13:0x800001b4 PA:0x80009f68
        5725000	       571	80000d64	69bf8113	addi	x2,x31,1691	 x31:0x0000021a  x2=0x000008b5
        5735000	       572	80000d68	004b1033	sll	x0,x22,x4	 x22:0x80000cae  x4:0x00000000
        5745000	       573	80000d6c	00000697	auipc	x13,0x0	 x13=0x80000d68
        5755000	       574	80000d70	cc468693	addi	x13,x13,-828	 x13:0x80000d68 x13=0x80000a2c
        5765000	       575	80000d74	00000013	addi	x0,x0,0	  x0:0x00000000
        5775000	       576	80000d78	41c95833	sra	x16,x18,x28	 x18:0x80009f64 x28:0x60c975ff x16=0xffffffff
        5785000	       577	80000d7c	602f6297	auipc	x5,0x602f6	  x5=0xe02f6d78
        5795000	       578	80000d80	e2968693	addi	x13,x13,-471	 x13:0x80000a2c x13=0x80000855
        5805000	       579	80000d84	01520663	beq	x4,x21,80000d90	  x4:0x00000000 x21:0xffffc000
        5815000	       580	80000d88	015f89b3	add	x19,x31,x21	 x31:0x0000021a x21:0xffffc000 x19=0xffffc21a
        5825000	       581	80000d8c	00f11593	slli	x11,x2,0xf	  x2:0x000008b5 x11=0x045a8000
        5835000	       582	80000d90	1d7686e7	jalr	x13,x13,471	 x13:0x80000855 x13=0x80000d90
        5845000	       583	00000000	00000013	addi	x0,x0,0	  x0:0x00000000
        5855000	       584	80000a2c	00000013	addi	x0,x0,0	  x0:0x00000000
        5865000	       585	80000a30	01f24d33	xor	x26,x4,x31	  x4:0x00000000 x31:0x0000021a x26=0x0000021a
        5875000	       586	80000a34	00317a63	bgeu	x2,x3,80000a48	  x2:0x000008b5  x3:0x00000001
        5885000	       587	00000000	00000013	addi	x0,x0,0	  x0:0x00000000
        5895000	       588	80000a44	00000013	addi	x0,x0,0	  x0:0x00000000
        5905000	       589	80000a48	fc890913	addi	x18,x18,-56	 x18:0x80009f64 x18=0x80009f2c
        5915000	       590	80000a4c	00d92223	sw	x13,4(x18)	 x18:0x80009f2c x13:0x80000d90 PA:0x80009f30
        5925000	       591	80000a50	f5c26d13	ori	x26,x4,-164	  x4:0x00000000 x26=0xffffff5c
        5935000	       592	80000a54	d17a3293	sltiu	x5,x20,-745	 x20:0x18a71226  x5=0x00000001
        5945000	       593	80000a58	00000617	auipc	x12,0x0	 x12=0x80000a54
        5955000	       594	80000a5c	21c60613	addi	x12,x12,540	 x12:0x80000a54 x12=0x80000c70
        5965000	       595	80000a60	47e82d13	slti	x26,x16,1150	 x16:0xffffffff x26=0x00000001
        5975000	       596	80000a64	7ee43f93	sltiu	x31,x8,2030	  x8:0x00000001 x31=0x00000001
        5985000	       597	80000a68	0085feb3	and	x29,x11,x8	 x11:0x045a8000  x8:0x00000001 x29=0x00000000
        5995000	       598	80000a6c	0129b3b3	sltu	x7,x19,x18	 x19:0xffffc21a x18:0x80009f2c  x7=0x00000000
        6005000	       599	80000a70	16a60613	addi	x12,x12,362	 x12:0x80000c70 x12=0x80000dda
        6015000	       600	80000a74	01cd7ab3	and	x21,x26,x28	 x26:0x00000001 x28:0x60c975ff x21=0x00000001
        6025000	       601	80000a78	e96606e7	jalr	x13,x12,-362	 x12:0x80000dda x13=0x80000a78
        6035000	       602	00000000	00000013	addi	x0,x0,0	  x0:0x00000000
        6045000	       603	80000c70	00000013	addi	x0,x0,0	  x0:0x00000000
        6055000	       604	80000c74	c09bf113	andi	x2,x23,-1015	 x23:0x2941e7cf  x2=0x2941e409
        6065000	       605	80000c78	fc090913	addi	x18,x18,-64	 x18:0x80009f2c x18=0x80009eec
        6075000	       606	80000c7c	a5e43813	sltiu	x16,x8,-1442	  x8:0x00000001 x16=0x00000001
        6085000	       607	80000c80	013a1d33	sll	x26,x20,x19	 x20:0x18a71226 x19:0xffffc21a x26=0x98000000
        6095000	       608	80000c84	00d92223	sw	x13,4(x18)	 x18:0x80009eec x13:0x80000a78 PA:0x80009ef0
        6105000	       609	80000c88	40f907b3	sub	x15,x18,x15	 x18:0x80009eec x15:0x80000000 x15=0x00009eec
        6115000	       610	80000c8c	00f13b33	sltu	x22,x2,x15	  x2:0x2941e409 x15:0x00009eec x22=0x00000000
        6125000	       611	80000c90	00539db3	sll	x27,x7,x5	  x7:0x00000000  x5:0x00000001 x27=0x00000000
        6135000	       612	80000c94	015fd4b3	srl	x9,x31,x21	 x31:0x00000001 x21:0x00000001  x9=0x00000000
        6145000	       613	80000c98	744666b7	lui	x13,0x74466	 x13=0x74466000
        6155000	       614	80000c9c	fffff897	auipc	x17,0xfffff	 x17=0x7ffffc98
        6165000	       615	80000ca0	65c88893	addi	x17,x17,1628	 x17:0x7ffffc98 x17=0x800002f4
        6175000	       616	80000ca4	010cdeb3	srl	x29,x25,x16	 x25:0x00000000 x16:0x00000001 x29=0x00000000
        6185000	       617	80000ca8	0043afb3	slt	x31,x7,x4	  x7:0x00000000  x4:0x00000000 x31=0x00000000
        6195000	       618	80000cac	41aed293	srai	x5,x29,0x1a	 x29:0x00000000  x5=0x00000000
        6205000	       619	80000cb0	40c28e33	sub	x28,x5,x12	  x5:0x00000000 x12:0x80000dda x28=0x7ffff226
        6215000	       620	80000cb4	44db6d93	ori	x27,x22,1101	 x22:0x00000000 x27=0x0000044d
        6225000	       621	80000cb8	00080133	add	x2,x16,x0	 x16:0x00000001  x0:0x00000000  x2=0x00000001
        6235000	       622	80000cbc	d0e88893	addi	x17,x17,-754	 x17:0x800002f4 x17=0x80000002
        6245000	       623	80000cc0	08167a13	andi	x20,x12,129	 x12:0x80000dda x20=0x00000080
        6255000	       624	80000cc4	2f2886e7	jalr	x13,x17,754	 x17:0x80000002 x13=0x80000cc4
        6265000	       625	00000000	00000013	addi	x0,x0,0	  x0:0x00000000
        6275000	       626	800002f4	00000013	addi	x0,x0,0	  x0:0x00000000
        6285000	       627	800002f8	38bcf593	andi	x11,x25,907	 x25:0x00000000 x11=0x00000000
        6295000	       628	800002fc	005e1463	bne	x28,x5,80000304	 x28:0x7ffff226  x5:0x00000000
        6305000	       629	00000000	00000013	addi	x0,x0,0	  x0:0x00000000
        6315000	       630	80000300	00000013	addi	x0,x0,0	  x0:0x00000000
        6325000	       631	80000304	fd090913	addi	x18,x18,-48	 x18:0x80009eec x18=0x80009ebc
        6335000	       632	80000308	00d92223	sw	x13,4(x18)	 x18:0x80009ebc x13:0x80000cc4 PA:0x80009ec0
        6345000	       633	8000030c	018feab3	or	x21,x31,x24	 x31:0x00000000 x24:0x80009fc4 x21=0x80009fc4
        6355000	       634	80000310	015f9e33	sll	x28,x31,x21	 x31:0x00000000 x21:0x80009fc4 x28=0x00000000
        6365000	       635	80000314	00eb9593	slli	x11,x23,0xe	 x23:0x2941e7cf x11=0x79f3c000
        6375000	       636	80000318	014ac9b3	xor	x19,x21,x20	 x21:0x80009fc4 x20:0x00000080 x19=0x80009f44
        6385000	       637	8000031c	03f69663	bne	x13,x31,80000348	 x13:0x80000cc4 x31:0x00000000
        6395000	       638	00000000	00000013	addi	x0,x0,0	  x0:0x00000000
        6405000	       639	80000344	00000013	addi	x0,x0,0	  x0:0x00000000
        6415000	       640	80000348	003adeb3	srl	x29,x21,x3	 x21:0x80009fc4  x3:0x00000001 x29=0x40004fe2
        6425000	       641	8000034c	01b905b3	add	x11,x18,x27	 x18:0x80009ebc x27:0x0000044d x11=0x8000a309
        6435000	       642	80000350	00492683	lw	x13,4(x18)	 x18:0x80009ebc x13=0x80000cc4 PA:0x80009ec0
        6445000	       643	80000354	211cc713	xori	x14,x25,529	 x25:0x00000000 x14=0x00000211
        6455000	       644	80000358	41a85a13	srai	x20,x16,0x1a	 x16:0x00000001 x20=0x00000000
        6465000	       645	8000035c	03090913	addi	x18,x18,48	 x18:0x80009ebc x18=0x80009eec
        6475000	       646	80000360	01f7d4b3	srl	x9,x15,x31	 x15:0x00009eec x31:0x00000000  x9=0x00009eec
        6485000	       647	80000364	55f96497	auipc	x9,0x55f96	  x9=0xd5f96360
        6495000	       648	80000368	00c09cb3	sll	x25,x1,x12	  x1:0x03fecfd1 x12:0x80000dda x25=0x44000000
        6505000	       649	8000036c	00eea4b3	slt	x9,x29,x14	 x29:0x40004fe2 x14:0x00000211  x9=0x00000000
        6515000	       650	80000370	014a7b33	and	x22,x20,x20	 x20:0x00000000 x20:0x00000000 x22=0x00000000
        6525000	       651	80000374	00068b13	addi	x22,x13,0	 x13:0x80000cc4 x22=0x80000cc4
        6535000	       652	80000378	000b0b67	jalr	x22,x22,0	 x22:0x80000cc4 x22=0x80000378
        6545000	       653	00000000	00000013	addi	x0,x0,0	  x0:0x00000000
        6555000	       654	80000cc4	00000013	addi	x0,x0,0	  x0:0x00000000
        6565000	       655	80000cc8	0186b033	sltu	x0,x13,x24	 x13:0x80000cc4 x24:0x80009fc4
        6575000	       656	80000ccc	0073cfb3	xor	x31,x7,x7	  x7:0x00000000  x7:0x00000000 x31=0x00000000
        6585000	       657	80000cd0	7a33ed13	ori	x26,x7,1955	  x7:0x00000000 x26=0x000007a3
        6595000	       658	80000cd4	aff76493	ori	x9,x14,-1281	 x14:0x00000211  x9=0xfffffaff
        6605000	       659	80000cd8	01a55713	srli	x14,x10,0x1a	 x10:0x80000000 x14=0x00000020
        6615000	       660	80000cdc	032b0663	beq	x22,x18,80000d08	 x22:0x80000378 x18:0x80009eec
        6625000	       661	80000ce0	6d5c8797	auipc	x15,0x6d5c8	 x15=0xed5c8cdc
        6635000	       662	80000ce4	f7b67193	andi	x3,x12,-133	 x12:0x80000dda  x3=0x80000d5a
        6645000	       663	80000ce8	01056263	bltu	x10,x16,80000cec	 x10:0x80000000 x16:0x00000001
        6655000	       664	80000cec	35cd4113	xori	x2,x26,860	 x26:0x000007a3  x2=0x000004ff
        6665000	       665	80000cf0	0167e3b3	or	x7,x15,x22	 x15:0xed5c8cdc x22:0x80000378  x7=0xed5c8ffc
        6675000	       666	80000cf4	001c52b3	srl	x5,x24,x1	 x24:0x80009fc4  x1:0x03fecfd1  x5=0x00004000
        6685000	       667	80000cf8	01654b33	xor	x22,x10,x22	 x10:0x80000000 x22:0x80000378 x22=0x00000378
        6695000	       668	80000cfc	007d9c93	slli	x25,x27,0x7	 x27:0x0000044d x25=0x00022680
        6705000	       669	80000d00	01ded463	bge	x29,x29,80000d08	 x29:0x40004fe2 x29:0x40004fe2
        6715000	       670	00000000	00000013	addi	x0,x0,0	  x0:0x00000000
        6725000	       671	80000d04	00000013	addi	x0,x0,0	  x0:0x00000000
        6735000	       672	80000d08	00dd6e33	or	x28,x26,x13	 x26:0x000007a3 x13:0x80000cc4 x28=0x80000fe7
        6745000	       673	80000d0c	00492683	lw	x13,4(x18)	 x18:0x80009eec x13=0x80000a78 PA:0x80009ef0
        6755000	       674	00000000	00000013	addi	x0,x0,0	  x0:0x00000000
        6765000	       675	80000d10	0136a633	slt	x12,x13,x19	 x13:0x80000a78 x19:0x80009f44 x12=0x00000001
        6775000	       676	80000d14	00613033	sltu	x0,x2,x6	  x2:0x000004ff  x6:0x60c96f12
        6785000	       677	80000d18	01cc1133	sll	x2,x24,x28	 x24:0x80009fc4 x28:0x80000fe7  x2=0x004fe200
        6795000	       678	80000d1c	41085ab3	sra	x21,x16,x16	 x16:0x00000001 x16:0x00000001 x21=0x00000000
        6805000	       679	80000d20	005062b3	or	x5,x0,x5	  x0:0x00000000  x5:0x00004000  x5=0x00004000
        6815000	       680	80000d24	2a09a1b7	lui	x3,0x2a09a	  x3=0x2a09a000
        6825000	       681	80000d28	00876db3	or	x27,x14,x8	 x14:0x00000020  x8:0x00000001 x27=0x00000021
        6835000	       682	80000d2c	04090913	addi	x18,x18,64	 x18:0x80009eec x18=0x80009f2c
        6845000	       683	80000d30	00095633	srl	x12,x18,x0	 x18:0x80009f2c  x0:0x00000000 x12=0x80009f2c
        6855000	       684	80000d34	00168093	addi	x1,x13,1	 x13:0x80000a78  x1=0x80000a79
        6865000	       685	80000d38	000080e7	jalr	x1,x1,0	  x1:0x80000a79  x1=0x80000d38
        6875000	       686	00000000	00000013	addi	x0,x0,0	  x0:0x00000000
        6885000	       687	80000a78	00000013	addi	x0,x0,0	  x0:0x00000000
        6895000	       688	80000a7c	00a23db3	sltu	x27,x4,x10	  x4:0x00000000 x10:0x80000000 x27=0x00000001
        6905000	       689	80000a80	0067acb3	slt	x25,x15,x6	 x15:0xed5c8cdc  x6:0x60c96f12 x25=0x00000001
        6915000	       690	80000a84	8cf9df37	lui	x30,0x8cf9d	 x30=0x8cf9d000
        6925000	       691	80000a88	409e84b3	sub	x9,x29,x9	 x29:0x40004fe2  x9:0xfffffaff  x9=0x400054e3
        6935000	       692	80000a8c	41c15f93	srai	x31,x2,0x1c	  x2:0x004fe200 x31=0x00000000
        6945000	       693	80000a90	405887b3	sub	x15,x17,x5	 x17:0x80000002  x5:0x00004000 x15=0x7fffc002
        6955000	       694	80000a94	8e9ff6ef	jal	x13,80000a94	 x13=0x80000a94
        6965000	       695	00000000	00000013	addi	x0,x0,0	  x0:0x00000000
        6975000	       696	80000378	00000013	addi	x0,x0,0	  x0:0x00000000
        6985000	       697	8000037c	01259263	bne	x11,x18,80000380	 x11:0x8000a309 x18:0x80009f2c
        6995000	       698	00000000	00000013	addi	x0,x0,0	  x0:0x00000000
        7005000	       699	8000037c	00000013	addi	x0,x0,0	  x0:0x00000000
        7015000	       700	80000380	fdc90913	addi	x18,x18,-36	 x18:0x80009f2c x18=0x80009f08
        7025000	       701	80000384	4145db33	sra	x22,x11,x20	 x11:0x8000a309 x20:0x00000000 x22=0x8000a309
        7035000	       702	80000388	40da8eb3	sub	x29,x21,x13	 x21:0x00000000 x13:0x80000a94 x29=0x7ffff56c
        7045000	       703	8000038c	06b5cf93	xori	x31,x11,107	 x11:0x8000a309 x31=0x8000a362
        7055000	       704	80000390	00d92223	sw	x13,4(x18)	 x18:0x80009f08 x13:0x80000a94 PA:0x80009f0c
        7065000	       705	80000394	0015ed33	or	x26,x11,x1	 x11:0x8000a309  x1:0x80000d38 x26=0x8000af39
        7075000	       706	80000398	00009f17	auipc	x30,0x9	 x30=0x80009394
        7085000	       707	8000039c	957f0f13	addi	x30,x30,-1705	 x30:0x80009394 x30=0x80008ceb
        7095000	       708	800003a0	ff5f20a3	sw	x21,-31(x30)	 x30:0x80008ceb x21:0x00000000 PA:0x80008ccc
        7105000	       709	800003a4	006d9333	sll	x6,x27,x6	 x27:0x00000001  x6:0x60c96f12  x6=0x00040000
        7115000	       710	800003a8	017f1283	lh	x5,23(x30)	 x30:0x80008ceb  x5=0xffffbebb PA:0x80008d02
        7125000	       711	800003ac	008f4f83	lbu	x31,8(x30)	 x30:0x80008ceb x31=0x0000007f PA:0x80008cf3
        7135000	       712	800003b0	56103a97	auipc	x21,0x56103	 x21=0xd61033ac
        7145000	       713	800003b4	00000013	addi	x0,x0,0	  x0:0x00000000
        7155000	       714	800003b8	41140433	sub	x8,x8,x17	  x8:0x00000001 x17:0x80000002  x8=0x7fffffff
        7165000	       715	800003bc	fd4f07a3	sb	x20,-49(x30)	 x30:0x80008ceb x20:0x00000000 PA:0x80008cba
        7175000	       716	800003c0	40b35013	srai	x0,x6,0xb	  x6:0x00040000
        7185000	       717	800003c4	01621d93	slli	x27,x4,0x16	  x4:0x00000000 x27=0x00000000
        7195000	       718	800003c8	401b0733	sub	x14,x22,x1	 x22:0x8000a309  x1:0x80000d38 x14=0x000095d1
        7205000	       719	800003cc	0002deb3	srl	x29,x5,x0	  x5:0xffffbebb  x0:0x00000000 x29=0xffffbebb
        7215000	       720	800003d0	00bf17a3	sh	x11,15(x30)	 x30:0x80008ceb x11:0x8000a309 PA:0x80008cfa
        7225000	       721	800003d4	002bb333	sltu	x6,x23,x2	 x23:0x2941e7cf  x2:0x004fe200  x6=0x00000000
        7235000	       722	800003d8	40898bb3	sub	x23,x19,x8	 x19:0x80009f44  x8:0x7fffffff x23=0x00009f45
        7245000	       723	800003dc	ab91d717	auipc	x14,0xab91d	 x14=0x2b91d3d8
        7255000	       724	800003e0	024f0083	lb	x1,36(x30)	 x30:0x80008ceb  x1=0x00000053 PA:0x80008d0f
        7265000	       725	800003e4	035f5683	lhu	x13,53(x30)	 x30:0x80008ceb x13=0x0000e9a7 PA:0x80008d20
        7275000	       726	800003e8	027f1083	lh	x1,39(x30)	 x30:0x80008ceb  x1=0x00000b29 PA:0x80008d12
        7285000	       727	800003ec	41d356b3	sra	x13,x6,x29	  x6:0x00000000 x29:0xffffbebb x13=0x00000000
        7295000	       728	800003f0	0145d6b3	srl	x13,x11,x20	 x11:0x8000a309 x20:0x00000000 x13=0x8000a309
        7305000	       729	800003f4	41dc5033	sra	x0,x24,x29	 x24:0x80009fc4 x29:0xffffbebb
        7315000	       730	800003f8	40be8833	sub	x16,x29,x11	 x29:0xffffbebb x11:0x8000a309 x16=0x7fff1bb2
        7325000	       731	800003fc	024f4683	lbu	x13,36(x30)	 x30:0x80008ceb x13=0x00000053 PA:0x80008d0f
        7335000	       732	80000400	feb0b893	sltiu	x17,x1,-21	  x1:0x00000b29 x17=0x00000001
        7345000	       733	80000404	007f0aa3	sb	x7,21(x30)	 x30:0x80008ceb  x7:0xed5c8ffc PA:0x80008d00
        7355000	       734	80000408	41a3dfb3	sra	x31,x7,x26	  x7:0xed5c8ffc x26:0x8000af39 x31=0xfffffff6
        7365000	       735	8000040c	fcdf1b83	lh	x23,-51(x30)	 x30:0x80008ceb x23=0xffffc20c PA:0x80008cb8
        7375000	       736	80000410	003b7833	and	x16,x22,x3	 x22:0x8000a309  x3:0x2a09a000 x16=0x0000a000
        7385000	       737	80000414	01b9d733	srl	x14,x19,x27	 x19:0x80009f44 x27:0x00000000 x14=0x80009f44
        7395000	       738	80000418	00bca7b3	slt	x15,x25,x11	 x25:0x00000001 x11:0x8000a309 x15=0x00000000
        7405000	       739	8000041c	005b3133	sltu	x2,x22,x5	 x22:0x8000a309  x5:0xffffbebb  x2=0x00000001
        7415000	       740	80000420	9cec5197	auipc	x3,0x9cec5	  x3=0x1cec541c
        7425000	       741	80000424	be7e3793	sltiu	x15,x28,-1049	 x28:0x80000fe7 x15=0x00000001
        7435000	       742	80000428	00bf5b03	lhu	x22,11(x30)	 x30:0x80008ceb x22=0x0000b37b PA:0x80008cf6
        7445000	       743	8000042c	00df4083	lbu	x1,13(x30)	 x30:0x80008ceb  x1=0x000000c9 PA:0x80008cf8
        7455000	       744	80000430	037a6863	bltu	x20,x23,80000460	 x20:0x00000000 x23:0xffffc20c
        7465000	       745	00000000	00000013	addi	x0,x0,0	  x0:0x00000000
        7475000	       746	8000045c	00000013	addi	x0,x0,0	  x0:0x00000000
        7485000	       747	80000460	00f4d733	srl	x14,x9,x15	  x9:0x400054e3 x15:0x00000001 x14=0x20002a71
        7495000	       748	80000464	15c85797	auipc	x15,0x15c85	 x15=0x95c85460
        7505000	       749	80000468	02c45a63	bge	x8,x12,8000049c	  x8:0x7fffffff x12:0x80009f2c
        7515000	       750	00000000	00000013	addi	x0,x0,0	  x0:0x00000000
        7525000	       751	80000498	00000013	addi	x0,x0,0	  x0:0x00000000
        7535000	       752	8000049c	01033233	sltu	x4,x6,x16	  x6:0x00000000 x16:0x0000a000  x4=0x00000001
        7545000	       753	800004a0	009d52b3	srl	x5,x26,x9	 x26:0x8000af39  x9:0x400054e3  x5=0x100015e7
        7555000	       754	800004a4	4068d893	srai	x17,x17,0x6	 x17:0x00000001 x17=0x00000000
        7565000	       755	800004a8	03ea9a63	bne	x21,x30,800004dc	 x21:0xd61033ac x30:0x80008ceb
        7575000	       756	00000000	00000013	addi	x0,x0,0	  x0:0x00000000
        7585000	       757	800004d8	00000013	addi	x0,x0,0	  x0:0x00000000
        7595000	       758	800004dc	06085a63	bge	x16,x0,80000550	 x16:0x0000a000  x0:0x00000000
        7605000	       759	00000000	00000013	addi	x0,x0,0	  x0:0x00000000
        7615000	       760	8000054c	00000013	addi	x0,x0,0	  x0:0x00000000
        7625000	       761	80000550	01b45593	srli	x11,x8,0x1b	  x8:0x7fffffff x11=0x0000000f
        7635000	       762	80000554	35faae13	slti	x28,x21,863	 x21:0xd61033ac x28=0x00000001
        7645000	       763	80000558	40eeda93	srai	x21,x29,0xe	 x29:0xffffbebb x21=0xfffffffe
        7655000	       764	8000055c	02e3e263	bltu	x7,x14,80000580	  x7:0xed5c8ffc x14:0x20002a71
        7665000	       765	80000560	01150b33	add	x22,x10,x17	 x10:0x80000000 x17:0x00000000 x22=0x80000000
        7675000	       766	80000564	00000013	addi	x0,x0,0	  x0:0x00000000
        7685000	       767	80000568	012d5113	srli	x2,x26,0x12	 x26:0x8000af39  x2=0x00002000
        7695000	       768	8000056c	001246b3	xor	x13,x4,x1	  x4:0x00000001  x1:0x000000c9 x13=0x000000c8
        7705000	       769	80000570	00c3dc63	bge	x7,x12,80000588	  x7:0xed5c8ffc x12:0x80009f2c
        7715000	       770	00000000	00000013	addi	x0,x0,0	  x0:0x00000000
        7725000	       771	80000584	00000013	addi	x0,x0,0	  x0:0x00000000
        7735000	       772	80000588	41805093	srai	x1,x0,0x18	  x0:0x00000000  x1=0x00000000
        7745000	       773	8000058c	0049e1b3	or	x3,x19,x4	 x19:0x80009f44  x4:0x00000001  x3=0x80009f45
        7755000	       774	80000590	bf9ebe97	auipc	x29,0xbf9eb	 x29=0x3f9eb58c
        7765000	       775	80000594	03b3ee63	bltu	x7,x27,800005d0	  x7:0xed5c8ffc x27:0x00000000
        7775000	       776	80000598	0332d063	bge	x5,x19,800005b8	  x5:0x100015e7 x19:0x80009f44
        7785000	       777	00000000	00000013	addi	x0,x0,0	  x0:0x00000000
        7795000	       778	800005b4	00000013	addi	x0,x0,0	  x0:0x00000000
        7805000	       779	800005b8	02685663	bge	x16,x6,800005e4	 x16:0x0000a000  x6:0x00000000
        7815000	       780	00000000	00000013	addi	x0,x0,0	  x0:0x00000000
        7825000	       781	800005e0	00000013	addi	x0,x0,0	  x0:0x00000000
        7835000	       782	800005e4	c2258f13	addi	x30,x11,-990	 x11:0x0000000f x30=0xfffffc31
        7845000	       783	800005e8	0ca33c97	auipc	x25,0xca33	 x25=0x8ca335e4
        7855000	       784	800005ec	001d5d33	srl	x26,x26,x1	 x26:0x8000af39  x1:0x00000000 x26=0x8000af39
        7865000	       785	800005f0	4085d5b3	sra	x11,x11,x8	 x11:0x0000000f  x8:0x7fffffff x11=0x00000000
        7875000	       786	800005f4	008d11b3	sll	x3,x26,x8	 x26:0x8000af39  x8:0x7fffffff  x3=0x80000000
        7885000	       787	800005f8	005f94b3	sll	x9,x31,x5	 x31:0xfffffff6  x5:0x100015e7  x9=0xfffffb00
        7895000	       788	800005fc	848ae713	ori	x14,x21,-1976	 x21:0xfffffffe x14=0xfffffffe
        7905000	       789	80000600	01f0a333	slt	x6,x1,x31	  x1:0x00000000 x31:0xfffffff6  x6=0x00000000
        7915000	       790	80000604	00000013	addi	x0,x0,0	  x0:0x00000000
        7925000	       791	80000608	51eb8617	auipc	x12,0x51eb8	 x12=0xd1eb8604
        7935000	       792	8000060c	0198df13	srli	x30,x17,0x19	 x17:0x00000000 x30=0x00000000
        7945000	       793	80000610	03f59863	bne	x11,x31,80000640	 x11:0x00000000 x31:0xfffffff6
        7955000	       794	00000000	00000013	addi	x0,x0,0	  x0:0x00000000
        7965000	       795	8000063c	00000013	addi	x0,x0,0	  x0:0x00000000
        7975000	       796	80000640	ed93a393	slti	x7,x7,-295	  x7:0xed5c8ffc  x7=0x00000001
        7985000	       797	80000644	4159dfb3	sra	x31,x19,x21	 x19:0x80009f44 x21:0xfffffffe x31=0xfffffffe
        7995000	       798	80000648	9c383213	sltiu	x4,x16,-1597	 x16:0x0000a000  x4=0x00000001
        8005000	       799	8000064c	0134d793	srli	x15,x9,0x13	  x9:0xfffffb00 x15=0x00001fff
        8015000	       800	80000650	006a92b3	sll	x5,x21,x6	 x21:0xfffffffe  x6:0x00000000  x5=0xfffffffe
        8025000	       801	80000654	0386fc63	bgeu	x13,x24,8000068c	 x13:0x000000c8 x24:0x80009fc4
        8035000	       802	80000658	01094a33	xor	x20,x18,x16	 x18:0x80009f08 x16:0x0000a000 x20=0x80003f08
        8045000	       803	8000065c	40365d13	srai	x26,x12,0x3	 x12:0xd1eb8604 x26=0xfa3d70c0
        8055000	       804	80000660	0179a333	slt	x6,x19,x23	 x19:0x80009f44 x23:0xffffc20c  x6=0x00000001
        8065000	       805	80000664	99ade793	ori	x15,x27,-1638	 x27:0x00000000 x15=0xfffff99a
        8075000	       806	80000668	4d2eff13	andi	x30,x29,1234	 x29:0x3f9eb58c x30=0x00000480
        8085000	       807	8000066c	05f4e463	bltu	x9,x31,800006b4	  x9:0xfffffb00 x31:0xfffffffe
        8095000	       808	00000000	00000013	addi	x0,x0,0	  x0:0x00000000
        8105000	       809	800006b0	00000013	addi	x0,x0,0	  x0:0x00000000
        8115000	       810	800006b4	00689893	slli	x17,x17,0x6	 x17:0x00000000 x17=0x00000000
        8125000	       811	800006b8	7c4eb637	lui	x12,0x7c4eb	 x12=0x7c4eb000
        8135000	       812	800006bc	403c5013	srai	x0,x24,0x3	 x24:0x80009fc4
        8145000	       813	800006c0	7fd90d13	addi	x26,x18,2045	 x18:0x80009f08 x26=0x8000a705
        8155000	       814	800006c4	02948663	beq	x9,x9,800006f0	  x9:0xfffffb00  x9:0xfffffb00
        8165000	       815	00000000	00000013	addi	x0,x0,0	  x0:0x00000000
        8175000	       816	800006ec	00000013	addi	x0,x0,0	  x0:0x00000000
        8185000	       817	800006f0	40ba0833	sub	x16,x20,x11	 x20:0x80003f08 x11:0x00000000 x16=0x80003f08
        8195000	       818	800006f4	ccf91db7	lui	x27,0xccf91	 x27=0xccf91000
        8205000	       819	800006f8	0087a8b3	slt	x17,x15,x8	 x15:0xfffff99a  x8:0x7fffffff x17=0x00000001
        8215000	       820	800006fc	016c05b3	add	x11,x24,x22	 x24:0x80009fc4 x22:0x80000000 x11=0x00009fc4
        8225000	       821	80000700	04c29663	bne	x5,x12,8000074c	  x5:0xfffffffe x12:0x7c4eb000
        8235000	       822	00000000	00000013	addi	x0,x0,0	  x0:0x00000000
        8245000	       823	80000748	00000013	addi	x0,x0,0	  x0:0x00000000
        8255000	       824	8000074c	00051263	bne	x10,x0,80000750	 x10:0x80000000  x0:0x00000000
        8265000	       825	00000000	00000013	addi	x0,x0,0	  x0:0x00000000
        8275000	       826	8000074c	00000013	addi	x0,x0,0	  x0:0x00000000
        8285000	       827	80000750	00e51c93	slli	x25,x10,0xe	 x10:0x80000000 x25=0x00000000
        8295000	       828	80000754	00695093	srli	x1,x18,0x6	 x18:0x80009f08  x1=0x0200027c
        8305000	       829	80000758	01e19d33	sll	x26,x3,x30	  x3:0x80000000 x30:0x00000480 x26=0x80000000
        8315000	       830	8000075c	e6537013	andi	x0,x6,-411	  x6:0x00000001
        8325000	       831	80000760	180f0b13	addi	x22,x30,384	 x30:0x00000480 x22=0x00000600
        8335000	       832	80000764	00f14b33	xor	x22,x2,x15	  x2:0x00002000 x15:0xfffff99a x22=0xffffd99a
        8345000	       833	80000768	40ab5b33	sra	x22,x22,x10	 x22:0xffffd99a x10:0x80000000 x22=0xffffd99a
        8355000	       834	8000076c	6b223ab7	lui	x21,0x6b223	 x21=0x6b223000
        8365000	       835	80000770	40d95793	srai	x15,x18,0xd	 x18:0x80009f08 x15=0xfffc0004
        8375000	       836	80000774	00d8bab3	sltu	x21,x17,x13	 x17:0x00000001 x13:0x000000c8 x21=0x00000001
        8385000	       837	80000778	01db3b33	sltu	x22,x22,x29	 x22:0xffffd99a x29:0x3f9eb58c x22=0x00000000
        8395000	       838	8000077c	40b503b3	sub	x7,x10,x11	 x10:0x80000000 x11:0x00009fc4  x7=0x7fff603c
        8405000	       839	80000780	b14c4fb7	lui	x31,0xb14c4	 x31=0xb14c4000
        8415000	       840	80000784	001d4f33	xor	x30,x26,x1	 x26:0x80000000  x1:0x0200027c x30=0x8200027c
        8425000	       841	80000788	01e94833	xor	x16,x18,x30	 x18:0x80009f08 x30:0x8200027c x16=0x02009d74
        8435000	       842	8000078c	02ce5e63	bge	x28,x12,800007c8	 x28:0x00000001 x12:0x7c4eb000
        8445000	       843	80000790	00111613	slli	x12,x2,0x1	  x2:0x00002000 x12=0x00004000
        8455000	       844	80000794	409201b3	sub	x3,x4,x9	  x4:0x00000001  x9:0xfffffb00  x3=0x00000501
        8465000	       845	80000798	012bdb93	srli	x23,x23,0x12	 x23:0xffffc20c x23=0x00003fff
        8475000	       846	8000079c	405ad313	srai	x6,x21,0x5	 x21:0x00000001  x6=0x00000000
        8485000	       847	800007a0	00fa1463	bne	x20,x15,800007a8	 x20:0x80003f08 x15:0xfffc0004
        8495000	       848	00000000	00000013	addi	x0,x0,0	  x0:0x00000000
        8505000	       849	800007a4	00000013	addi	x0,x0,0	  x0:0x00000000
        8515000	       850	800007a8	34c6ce13	xori	x28,x13,844	 x13:0x000000c8 x28=0x00000384
        8525000	       851	800007ac	05e36a37	lui	x20,0x5e36	 x20=0x05e36000
        8535000	       852	800007b0	40a202b3	sub	x5,x4,x10	  x4:0x00000001 x10:0x80000000  x5=0x80000001
        8545000	       853	800007b4	9ce28013	addi	x0,x5,-1586	  x5:0x80000001
        8555000	       854	800007b8	004b5393	srli	x7,x22,0x4	 x22:0x00000000  x7=0x00000000
        8565000	       855	800007bc	abad7617	auipc	x12,0xabad7	 x12=0x2bad77b8
        8575000	       856	800007c0	4a0ff813	andi	x16,x31,1184	 x31:0xb14c4000 x16=0x00000000
        8585000	       857	800007c4	010640b3	xor	x1,x12,x16	 x12:0x2bad77b8 x16:0x00000000  x1=0x2bad77b8
        8595000	       858	800007c8	9d84e013	ori	x0,x9,-1576	  x9:0xfffffb00
        8605000	       859	800007cc	01f5ed33	or	x26,x11,x31	 x11:0x00009fc4 x31:0xb14c4000 x26=0xb14cdfc4
        8615000	       860	800007d0	018693b3	sll	x7,x13,x24	 x13:0x000000c8 x24:0x80009fc4  x7=0x00000c80
        8625000	       861	800007d4	40c652b3	sra	x5,x12,x12	 x12:0x2bad77b8 x12:0x2bad77b8  x5=0x0000002b
        8635000	       862	800007d8	00244863	blt	x8,x2,800007e8	  x8:0x7fffffff  x2:0x00002000
        8645000	       863	800007dc	df61e113	ori	x2,x3,-522	  x3:0x00000501  x2=0xfffffdf7
        8655000	       864	800007e0	00ef3eb3	sltu	x29,x30,x14	 x30:0x8200027c x14:0xfffffffe x29=0x00000001
        8665000	       865	800007e4	010dde13	srli	x28,x27,0x10	 x27:0xccf91000 x28=0x0000ccf9
        8675000	       866	800007e8	2e64f693	andi	x13,x9,742	  x9:0xfffffb00 x13=0x00000200
        8685000	       867	800007ec	01b79d33	sll	x26,x15,x27	 x15:0xfffc0004 x27:0xccf91000 x26=0xfffc0004
        8695000	       868	800007f0	00492683	lw	x13,4(x18)	 x18:0x80009f08 x13=0x80000a94 PA:0x80009f0c
        8705000	       869	800007f4	00000013	addi	x0,x0,0	  x0:0x00000000
        8715000	       870	800007f8	02490913	addi	x18,x18,36	 x18:0x80009f08 x18=0x80009f2c
        8725000	       871	800007fc	d60da113	slti	x2,x27,-672	 x27:0xccf91000  x2=0x00000001
        8735000	       872	80000800	01a5abb3	slt	x23,x11,x26	 x11:0x00009fc4 x26:0xfffc0004 x23=0x00000000
        8745000	       873	80000804	015169b3	or	x19,x2,x21	  x2:0x00000001 x21:0x00000001 x19=0x00000001
        8755000	       874	80000808	00068693	addi	x13,x13,0	 x13:0x80000a94 x13=0x80000a94
        8765000	       875	8000080c	000686e7	jalr	x13,x13,0	 x13:0x80000a94 x13=0x8000080c
        8775000	       876	00000000	00000013	addi	x0,x0,0	  x0:0x00000000
        8785000	       877	80000a94	00000013	addi	x0,x0,0	  x0:0x00000000
        8795000	       878	80000a98	00000617	auipc	x12,0x0	 x12=0x80000a94
        8805000	       879	80000a9c	13860613	addi	x12,x12,312	 x12:0x80000a94 x12=0x80000bcc
        8815000	       880	80000aa0	00861f33	sll	x30,x12,x8	 x12:0x80000bcc  x8:0x7fffffff x30=0x00000000
        8825000	       881	80000aa4	41d40cb3	sub	x25,x8,x29	  x8:0x7fffffff x29:0x00000001 x25=0x7ffffffe
        8835000	       882	80000aa8	00000013	addi	x0,x0,0	  x0:0x00000000
        8845000	       883	80000aac	013dcab3	xor	x21,x27,x19	 x27:0xccf91000 x19:0x00000001 x21=0xccf91001
        8855000	       884	80000ab0	40c1dd93	srai	x27,x3,0xc	  x3:0x00000501 x27=0x00000000
        8865000	       885	80000ab4	01d88d33	add	x26,x17,x29	 x17:0x00000001 x29:0x00000001 x26=0x00000002
        8875000	       886	80000ab8	e9460613	addi	x12,x12,-364	 x12:0x80000bcc x12=0x80000a60
        8885000	       887	80000abc	014f16b3	sll	x13,x30,x20	 x30:0x00000000 x20:0x05e36000 x13=0x00000000
        8895000	       888	80000ac0	41ae5e13	srai	x28,x28,0x1a	 x28:0x0000ccf9 x28=0x00000000
        8905000	       889	80000ac4	00000013	addi	x0,x0,0	  x0:0x00000000
        8915000	       890	80000ac8	16d606e7	jalr	x13,x12,365	 x12:0x80000a60 x13=0x80000ac8
        8925000	       891	00000000	00000013	addi	x0,x0,0	  x0:0x00000000
        8935000	       892	80000bcc	00000013	addi	x0,x0,0	  x0:0x00000000
        8945000	       893	80000bd0	00b85463	bge	x16,x11,80000bd8	 x16:0x00000000 x11:0x00009fc4
        8955000	       894	80000bd4	00465833	srl	x16,x12,x4	 x12:0x80000a60  x4:0x00000001 x16=0x40000530
        8965000	       895	80000bd8	fdc90913	addi	x18,x18,-36	 x18:0x80009f2c x18=0x80009f08
        8975000	       896	80000bdc	00d92223	sw	x13,4(x18)	 x18:0x80009f08 x13:0x80000ac8 PA:0x80009f0c
        8985000	       897	80000be0	01075093	srli	x1,x14,0x10	 x14:0xfffffffe  x1=0x0000ffff
        8995000	       898	80000be4	0051dcb3	srl	x25,x3,x5	  x3:0x00000501  x5:0x0000002b x25=0x00000000
        9005000	       899	80000be8	4070dbb3	sra	x23,x1,x7	  x1:0x0000ffff  x7:0x00000c80 x23=0x0000ffff
        9015000	       900	80000bec	01bdc9b3	xor	x19,x27,x27	 x27:0x00000000 x27:0x00000000 x19=0x00000000
        9025000	       901	80000bf0	94c44b93	xori	x23,x8,-1716	  x8:0x7fffffff x23=0x800006b3
        9035000	       902	80000bf4	fffff597	auipc	x11,0xfffff	 x11=0x7ffffbf0
        9045000	       903	80000bf8	70458593	addi	x11,x11,1796	 x11:0x7ffffbf0 x11=0x800002f4
        9055000	       904	80000bfc	63cff693	andi	x13,x31,1596	 x31:0xb14c4000 x13=0x00000000
        9065000	       905	80000c00	d84b0493	addi	x9,x22,-636	 x22:0x00000000  x9=0xfffffd84
        9075000	       906	80000c04	c5858593	addi	x11,x11,-936	 x11:0x800002f4 x11=0x7fffff4c
        9085000	       907	80000c08	fc548a93	addi	x21,x9,-59	  x9:0xfffffd84 x21=0xfffffd49
        9095000	       908	80000c0c	7d1b7e13	andi	x28,x22,2001	 x22:0x00000000 x28=0x00000000
        9105000	       909	80000c10	3a9586e7	jalr	x13,x11,937	 x11:0x7fffff4c x13=0x80000c10
        9115000	       910	00000000	00000013	addi	x0,x0,0	  x0:0x00000000
        9125000	       911	800002f4	00000013	addi	x0,x0,0	  x0:0x00000000
        9135000	       912	800002f8	38bcf593	andi	x11,x25,907	 x25:0x00000000 x11=0x00000000
        9145000	       913	800002fc	005e1463	bne	x28,x5,80000304	 x28:0x00000000  x5:0x0000002b
        9155000	       914	00000000	00000013	addi	x0,x0,0	  x0:0x00000000
        9165000	       915	80000300	00000013	addi	x0,x0,0	  x0:0x00000000
        9175000	       916	80000304	fd090913	addi	x18,x18,-48	 x18:0x80009f08 x18=0x80009ed8
        9185000	       917	80000308	00d92223	sw	x13,4(x18)	 x18:0x80009ed8 x13:0x80000c10 PA:0x80009edc
        9195000	       918	8000030c	018feab3	or	x21,x31,x24	 x31:0xb14c4000 x24:0x80009fc4 x21=0xb14cdfc4
        9205000	       919	80000310	015f9e33	sll	x28,x31,x21	 x31:0xb14c4000 x21:0xb14cdfc4 x28=0x14c40000
        9215000	       920	80000314	00eb9593	slli	x11,x23,0xe	 x23:0x800006b3 x11=0x01acc000
        9225000	       921	80000318	014ac9b3	xor	x19,x21,x20	 x21:0xb14cdfc4 x20:0x05e36000 x19=0xb4afbfc4
        9235000	       922	8000031c	03f69663	bne	x13,x31,80000348	 x13:0x80000c10 x31:0xb14c4000
        9245000	       923	00000000	00000013	addi	x0,x0,0	  x0:0x00000000
        9255000	       924	80000344	00000013	addi	x0,x0,0	  x0:0x00000000
        9265000	       925	80000348	003adeb3	srl	x29,x21,x3	 x21:0xb14cdfc4  x3:0x00000501 x29=0x58a66fe2
        9275000	       926	8000034c	01b905b3	add	x11,x18,x27	 x18:0x80009ed8 x27:0x00000000 x11=0x80009ed8
        9285000	       927	80000350	00492683	lw	x13,4(x18)	 x18:0x80009ed8 x13=0x80000c10 PA:0x80009edc
        9295000	       928	80000354	211cc713	xori	x14,x25,529	 x25:0x00000000 x14=0x00000211
        9305000	       929	80000358	41a85a13	srai	x20,x16,0x1a	 x16:0x40000530 x20=0x00000010
        9315000	       930	8000035c	03090913	addi	x18,x18,48	 x18:0x80009ed8 x18=0x80009f08
        9325000	       931	80000360	01f7d4b3	srl	x9,x15,x31	 x15:0xfffc0004 x31:0xb14c4000  x9=0xfffc0004
        9335000	       932	80000364	55f96497	auipc	x9,0x55f96	  x9=0xd5f96360
        9345000	       933	80000368	00c09cb3	sll	x25,x1,x12	  x1:0x0000ffff x12:0x80000a60 x25=0x0000ffff
        9355000	       934	8000036c	00eea4b3	slt	x9,x29,x14	 x29:0x58a66fe2 x14:0x00000211  x9=0x00000000
        9365000	       935	80000370	014a7b33	and	x22,x20,x20	 x20:0x00000010 x20:0x00000010 x22=0x00000010
        9375000	       936	80000374	00068b13	addi	x22,x13,0	 x13:0x80000c10 x22=0x80000c10
        9385000	       937	80000378	000b0b67	jalr	x22,x22,0	 x22:0x80000c10 x22=0x80000378
        9395000	       938	00000000	00000013	addi	x0,x0,0	  x0:0x00000000
        9405000	       939	80000c10	00000013	addi	x0,x0,0	  x0:0x00000000
        9415000	       940	80000c14	01139b93	slli	x23,x7,0x11	  x7:0x00000c80 x23=0x19000000
        9425000	       941	80000c18	01219a93	slli	x21,x3,0x12	  x3:0x00000501 x21=0x14040000
        9435000	       942	80000c1c	0335f463	bgeu	x11,x19,80000c44	 x11:0x80009ed8 x19:0xb4afbfc4
        9445000	       943	80000c20	411e0cb3	sub	x25,x28,x17	 x28:0x14c40000 x17:0x00000001 x25=0x14c3ffff
        9455000	       944	80000c24	016a0463	beq	x20,x22,80000c2c	 x20:0x00000010 x22:0x80000378
        9465000	       945	80000c28	03ce9263	bne	x29,x28,80000c4c	 x29:0x58a66fe2 x28:0x14c40000
        9475000	       946	00000000	00000013	addi	x0,x0,0	  x0:0x00000000
        9485000	       947	80000c48	00000013	addi	x0,x0,0	  x0:0x00000000
        9495000	       948	80000c4c	00000013	addi	x0,x0,0	  x0:0x00000000
        9505000	       949	80000c50	00492683	lw	x13,4(x18)	 x18:0x80009f08 x13=0x80000ac8 PA:0x80009f0c
        9515000	       950	80000c54	02490913	addi	x18,x18,36	 x18:0x80009f08 x18=0x80009f2c
        9525000	       951	80000c58	cbfa3013	sltiu	x0,x20,-833	 x20:0x00000010
        9535000	       952	80000c5c	8246f593	andi	x11,x13,-2012	 x13:0x80000ac8 x11=0x80000800
        9545000	       953	80000c60	00c95b93	srli	x23,x18,0xc	 x18:0x80009f2c x23=0x00080009
        9555000	       954	80000c64	0038d1b3	srl	x3,x17,x3	 x17:0x00000001  x3:0x00000501  x3=0x00000000
        9565000	       955	80000c68	01d9f433	and	x8,x19,x29	 x19:0xb4afbfc4 x29:0x58a66fe2  x8=0x10a62fc0
        9575000	       956	80000c6c	00168793	addi	x15,x13,1	 x13:0x80000ac8 x15=0x80000ac9
        9585000	       957	80000c70	000787e7	jalr	x15,x15,0	 x15:0x80000ac9 x15=0x80000c70
        9595000	       958	00000000	00000013	addi	x0,x0,0	  x0:0x00000000
        9605000	       959	80000ac8	00000013	addi	x0,x0,0	  x0:0x00000000
        9615000	       960	80000acc	91232093	slti	x1,x6,-1774	  x6:0x00000000  x1=0x00000000
        9625000	       961	80000ad0	0008c2b3	xor	x5,x17,x0	 x17:0x00000001  x0:0x00000000  x5=0x00000001
        9635000	       962	80000ad4	0070e833	or	x16,x1,x7	  x1:0x00000000  x7:0x00000c80 x16=0x00000c80
        9645000	       963	80000ad8	00000013	addi	x0,x0,0	  x0:0x00000000
        9655000	       964	80000adc	0119e733	or	x14,x19,x17	 x19:0xb4afbfc4 x17:0x00000001 x14=0xb4afbfc5
        9665000	       965	80000ae0	00925013	srli	x0,x4,0x9	  x4:0x00000001
        9675000	       966	80000ae4	0ec006ef	jal	x13,80000ae4	 x13=0x80000ae4
        9685000	       967	00000000	00000013	addi	x0,x0,0	  x0:0x00000000
        9695000	       968	80000bcc	00000013	addi	x0,x0,0	  x0:0x00000000
        9705000	       969	80000bd0	00b85463	bge	x16,x11,80000bd8	 x16:0x00000c80 x11:0x80000800
        9715000	       970	00000000	00000013	addi	x0,x0,0	  x0:0x00000000
        9725000	       971	80000bd4	00000013	addi	x0,x0,0	  x0:0x00000000
        9735000	       972	80000bd8	fdc90913	addi	x18,x18,-36	 x18:0x80009f2c x18=0x80009f08
        9745000	       973	80000bdc	00d92223	sw	x13,4(x18)	 x18:0x80009f08 x13:0x80000ae4 PA:0x80009f0c
        9755000	       974	80000be0	01075093	srli	x1,x14,0x10	 x14:0xb4afbfc5  x1=0x0000b4af
        9765000	       975	80000be4	0051dcb3	srl	x25,x3,x5	  x3:0x00000000  x5:0x00000001 x25=0x00000000
        9775000	       976	80000be8	4070dbb3	sra	x23,x1,x7	  x1:0x0000b4af  x7:0x00000c80 x23=0x0000b4af
        9785000	       977	80000bec	01bdc9b3	xor	x19,x27,x27	 x27:0x00000000 x27:0x00000000 x19=0x00000000
        9795000	       978	80000bf0	94c44b93	xori	x23,x8,-1716	  x8:0x10a62fc0 x23=0xef59d68c
        9805000	       979	80000bf4	fffff597	auipc	x11,0xfffff	 x11=0x7ffffbf0
        9815000	       980	80000bf8	70458593	addi	x11,x11,1796	 x11:0x7ffffbf0 x11=0x800002f4
        9825000	       981	80000bfc	63cff693	andi	x13,x31,1596	 x31:0xb14c4000 x13=0x00000000
        9835000	       982	80000c00	d84b0493	addi	x9,x22,-636	 x22:0x80000378  x9=0x800000fc
        9845000	       983	80000c04	c5858593	addi	x11,x11,-936	 x11:0x800002f4 x11=0x7fffff4c
        9855000	       984	80000c08	fc548a93	addi	x21,x9,-59	  x9:0x800000fc x21=0x800000c1
        9865000	       985	80000c0c	7d1b7e13	andi	x28,x22,2001	 x22:0x80000378 x28=0x00000350
        9875000	       986	80000c10	3a9586e7	jalr	x13,x11,937	 x11:0x7fffff4c x13=0x80000c10
        9885000	       987	00000000	00000013	addi	x0,x0,0	  x0:0x00000000
        9895000	       988	800002f4	00000013	addi	x0,x0,0	  x0:0x00000000
        9905000	       989	800002f8	38bcf593	andi	x11,x25,907	 x25:0x00000000 x11=0x00000000
        9915000	       990	800002fc	005e1463	bne	x28,x5,80000304	 x28:0x00000350  x5:0x00000001
        9925000	       991	00000000	00000013	addi	x0,x0,0	  x0:0x00000000
        9935000	       992	80000300	00000013	addi	x0,x0,0	  x0:0x00000000
        9945000	       993	80000304	fd090913	addi	x18,x18,-48	 x18:0x80009f08 x18=0x80009ed8
        9955000	       994	80000308	00d92223	sw	x13,4(x18)	 x18:0x80009ed8 x13:0x80000c10 PA:0x80009edc
        9965000	       995	8000030c	018feab3	or	x21,x31,x24	 x31:0xb14c4000 x24:0x80009fc4 x21=0xb14cdfc4
        9975000	       996	80000310	015f9e33	sll	x28,x31,x21	 x31:0xb14c4000 x21:0xb14cdfc4 x28=0x14c40000
        9985000	       997	80000314	00eb9593	slli	x11,x23,0xe	 x23:0xef59d68c x11=0x75a30000
        9995000	       998	80000318	014ac9b3	xor	x19,x21,x20	 x21:0xb14cdfc4 x20:0x00000010 x19=0xb14cdfd4
       10005000	       999	8000031c	03f69663	bne	x13,x31,80000348	 x13:0x80000c10 x31:0xb14c4000
       10015000	      1000	00000000	00000013	addi	x0,x0,0	  x0:0x00000000
       10025000	      1001	80000344	00000013	addi	x0,x0,0	  x0:0x00000000
       10035000	      1002	80000348	003adeb3	srl	x29,x21,x3	 x21:0xb14cdfc4  x3:0x00000000 x29=0xb14cdfc4
       10045000	      1003	8000034c	01b905b3	add	x11,x18,x27	 x18:0x80009ed8 x27:0x00000000 x11=0x80009ed8
       10055000	      1004	80000350	00492683	lw	x13,4(x18)	 x18:0x80009ed8 x13=0x80000c10 PA:0x80009edc
       10065000	      1005	80000354	211cc713	xori	x14,x25,529	 x25:0x00000000 x14=0x00000211
       10075000	      1006	80000358	41a85a13	srai	x20,x16,0x1a	 x16:0x00000c80 x20=0x00000000
       10085000	      1007	8000035c	03090913	addi	x18,x18,48	 x18:0x80009ed8 x18=0x80009f08
       10095000	      1008	80000360	01f7d4b3	srl	x9,x15,x31	 x15:0x80000c70 x31:0xb14c4000  x9=0x80000c70
       10105000	      1009	80000364	55f96497	auipc	x9,0x55f96	  x9=0xd5f96360
       10115000	      1010	80000368	00c09cb3	sll	x25,x1,x12	  x1:0x0000b4af x12:0x80000a60 x25=0x0000b4af
       10125000	      1011	8000036c	00eea4b3	slt	x9,x29,x14	 x29:0xb14cdfc4 x14:0x00000211  x9=0x00000001
       10135000	      1012	80000370	014a7b33	and	x22,x20,x20	 x20:0x00000000 x20:0x00000000 x22=0x00000000
       10145000	      1013	80000374	00068b13	addi	x22,x13,0	 x13:0x80000c10 x22=0x80000c10
       10155000	      1014	80000378	000b0b67	jalr	x22,x22,0	 x22:0x80000c10 x22=0x80000378
       10165000	      1015	00000000	00000013	addi	x0,x0,0	  x0:0x00000000
       10175000	      1016	80000c10	00000013	addi	x0,x0,0	  x0:0x00000000
       10185000	      1017	80000c14	01139b93	slli	x23,x7,0x11	  x7:0x00000c80 x23=0x19000000
       10195000	      1018	80000c18	01219a93	slli	x21,x3,0x12	  x3:0x00000000 x21=0x00000000
       10205000	      1019	80000c1c	0335f463	bgeu	x11,x19,80000c44	 x11:0x80009ed8 x19:0xb14cdfd4
       10215000	      1020	80000c20	411e0cb3	sub	x25,x28,x17	 x28:0x14c40000 x17:0x00000001 x25=0x14c3ffff
       10225000	      1021	80000c24	016a0463	beq	x20,x22,80000c2c	 x20:0x00000000 x22:0x80000378
       10235000	      1022	80000c28	03ce9263	bne	x29,x28,80000c4c	 x29:0xb14cdfc4 x28:0x14c40000
       10245000	      1023	00000000	00000013	addi	x0,x0,0	  x0:0x00000000
       10255000	      1024	80000c48	00000013	addi	x0,x0,0	  x0:0x00000000
       10265000	      1025	80000c4c	00000013	addi	x0,x0,0	  x0:0x00000000
       10275000	      1026	80000c50	00492683	lw	x13,4(x18)	 x18:0x80009f08 x13=0x80000ae4 PA:0x80009f0c
       10285000	      1027	80000c54	02490913	addi	x18,x18,36	 x18:0x80009f08 x18=0x80009f2c
       10295000	      1028	80000c58	cbfa3013	sltiu	x0,x20,-833	 x20:0x00000000
       10305000	      1029	80000c5c	8246f593	andi	x11,x13,-2012	 x13:0x80000ae4 x11=0x80000824
       10315000	      1030	80000c60	00c95b93	srli	x23,x18,0xc	 x18:0x80009f2c x23=0x00080009
       10325000	      1031	80000c64	0038d1b3	srl	x3,x17,x3	 x17:0x00000001  x3:0x00000000  x3=0x00000001
       10335000	      1032	80000c68	01d9f433	and	x8,x19,x29	 x19:0xb14cdfd4 x29:0xb14cdfc4  x8=0xb14cdfc4
       10345000	      1033	80000c6c	00168793	addi	x15,x13,1	 x13:0x80000ae4 x15=0x80000ae5
       10355000	      1034	80000c70	000787e7	jalr	x15,x15,0	 x15:0x80000ae5 x15=0x80000c70
       10365000	      1035	00000000	00000013	addi	x0,x0,0	  x0:0x00000000
       10375000	      1036	80000ae4	00000013	addi	x0,x0,0	  x0:0x00000000
       10385000	      1037	80000ae8	00000013	addi	x0,x0,0	  x0:0x00000000
       10395000	      1038	80000aec	019fd893	srli	x17,x31,0x19	 x31:0xb14c4000 x17=0x00000058
       10405000	      1039	80000af0	007a9e63	bne	x21,x7,80000b0c	 x21:0x00000000  x7:0x00000c80
       10415000	      1040	00000000	00000013	addi	x0,x0,0	  x0:0x00000000
       10425000	      1041	80000b08	00000013	addi	x0,x0,0	  x0:0x00000000
       10435000	      1042	80000b0c	428b4f37	lui	x30,0x428b4	 x30=0x428b4000
       10445000	      1043	80000b10	014866b3	or	x13,x16,x20	 x16:0x00000c80 x20:0x00000000 x13=0x00000c80
       10455000	      1044	80000b14	02c78463	beq	x15,x12,80000b3c	 x15:0x80000c70 x12:0x80000a60
       10465000	      1045	80000b18	008671b3	and	x3,x12,x8	 x12:0x80000a60  x8:0xb14cdfc4  x3=0x80000a40
       10475000	      1046	80000b1c	0d1b6d13	ori	x26,x22,209	 x22:0x80000378 x26=0x800003f9
       10485000	      1047	80000b20	01667f33	and	x30,x12,x22	 x12:0x80000a60 x22:0x80000378 x30=0x80000260
       10495000	      1048	80000b24	00ded4b3	srl	x9,x29,x13	 x29:0xb14cdfc4 x13:0x00000c80  x9=0xb14cdfc4
       10505000	      1049	80000b28	056ef063	bgeu	x29,x22,80000b68	 x29:0xb14cdfc4 x22:0x80000378
       10515000	      1050	00000000	00000013	addi	x0,x0,0	  x0:0x00000000
       10525000	      1051	80000b64	00000013	addi	x0,x0,0	  x0:0x00000000
       10535000	      1052	80000b68	e11b7a93	andi	x21,x22,-495	 x22:0x80000378 x21=0x80000210
       10545000	      1053	80000b6c	0042f8b3	and	x17,x5,x4	  x5:0x00000001  x4:0x00000001 x17=0x00000001
       10555000	      1054	80000b70	00727bb3	and	x23,x4,x7	  x4:0x00000001  x7:0x00000c80 x23=0x00000000
       10565000	      1055	80000b74	00f11e13	slli	x28,x2,0xf	  x2:0x00000001 x28=0x00008000
       10575000	      1056	80000b78	03f76663	bltu	x14,x31,80000ba4	 x14:0x00000211 x31:0xb14c4000
       10585000	      1057	00000000	00000013	addi	x0,x0,0	  x0:0x00000000
       10595000	      1058	80000ba0	00000013	addi	x0,x0,0	  x0:0x00000000
       10605000	      1059	80000ba4	0059d9b3	srl	x19,x19,x5	 x19:0xb14cdfd4  x5:0x00000001 x19=0x58a66fea
       10615000	      1060	80000ba8	00db15b3	sll	x11,x22,x13	 x22:0x80000378 x13:0x00000c80 x11=0x80000378
       10625000	      1061	80000bac	00027db3	and	x27,x4,x0	  x4:0x00000001  x0:0x00000000 x27=0x00000000
       10635000	      1062	80000bb0	00492683	lw	x13,4(x18)	 x18:0x80009f2c x13=0x80000d90 PA:0x80009f30
       10645000	      1063	80000bb4	00000013	addi	x0,x0,0	  x0:0x00000000
       10655000	      1064	80000bb8	03890913	addi	x18,x18,56	 x18:0x80009f2c x18=0x80009f64
       10665000	      1065	80000bbc	34d8b413	sltiu	x8,x17,845	 x17:0x00000001  x8=0x00000001
       10675000	      1066	80000bc0	41155e13	srai	x28,x10,0x11	 x10:0x80000000 x28=0xffffc000
       10685000	      1067	80000bc4	01e417b3	sll	x15,x8,x30	  x8:0x00000001 x30:0x80000260 x15=0x00000001
       10695000	      1068	80000bc8	00168a93	addi	x21,x13,1	 x13:0x80000d90 x21=0x80000d91
       10705000	      1069	80000bcc	000a8ae7	jalr	x21,x21,0	 x21:0x80000d91 x21=0x80000bcc
       10715000	      1070	00000000	00000013	addi	x0,x0,0	  x0:0x00000000
       10725000	      1071	80000d90	00000013	addi	x0,x0,0	  x0:0x00000000
       10735000	      1072	80000d94	0144f663	bgeu	x9,x20,80000da0	  x9:0xb14cdfc4 x20:0x00000000
       10745000	      1073	00000000	00000013	addi	x0,x0,0	  x0:0x00000000
       10755000	      1074	80000d9c	00000013	addi	x0,x0,0	  x0:0x00000000
       10765000	      1075	80000da0	01170c63	beq	x14,x17,80000db8	 x14:0x00000211 x17:0x00000001
       10775000	      1076	80000da4	9a657f13	andi	x30,x10,-1626	 x10:0x80000000 x30=0x80000000
       10785000	      1077	80000da8	5851f413	andi	x8,x3,1413	  x3:0x80000a40  x8=0x00000000
       10795000	      1078	80000dac	00ea8663	beq	x21,x14,80000db8	 x21:0x80000bcc x14:0x00000211
       10805000	      1079	80000db0	c3b36f13	ori	x30,x6,-965	  x6:0x00000000 x30=0xfffffc3b
       10815000	      1080	80000db4	3e275bb7	lui	x23,0x3e275	 x23=0x3e275000
       10825000	      1081	80000db8	014fd9b3	srl	x19,x31,x20	 x31:0xb14c4000 x20:0x00000000 x19=0xb14c4000
       10835000	      1082	80000dbc	01530db3	add	x27,x6,x21	  x6:0x00000000 x21:0x80000bcc x27=0x80000bcc
       10845000	      1083	80000dc0	00000013	addi	x0,x0,0	  x0:0x00000000
       10855000	      1084	80000dc4	009f5793	srli	x15,x30,0x9	 x30:0xfffffc3b x15=0x007ffffe
       10865000	      1085	80000dc8	00d85033	srl	x0,x16,x13	 x16:0x00000c80 x13:0x80000d90
       10875000	      1086	80000dcc	0fc02c93	slti	x25,x0,252	  x0:0x00000000 x25=0x00000001
       10885000	      1087	80000dd0	00492683	lw	x13,4(x18)	 x18:0x80009f64 x13=0x800001b4 PA:0x80009f68
       10895000	      1088	80000dd4	02090913	addi	x18,x18,32	 x18:0x80009f64 x18=0x80009f84
       10905000	      1089	80000dd8	0102a833	slt	x16,x5,x16	  x5:0x00000001 x16:0x00000c80 x16=0x00000001
       10915000	      1090	80000ddc	00a7b133	sltu	x2,x15,x10	 x15:0x007ffffe x10:0x80000000  x2=0x00000001
       10925000	      1091	80000de0	00000013	addi	x0,x0,0	  x0:0x00000000
       10935000	      1092	80000de4	01e35d93	srli	x27,x6,0x1e	  x6:0x00000000 x27=0x00000000
       10945000	      1093	80000de8	00068113	addi	x2,x13,0	 x13:0x800001b4  x2=0x800001b4
       10955000	      1094	80000dec	00010167	jalr	x2,x2,0	  x2:0x800001b4  x2=0x80000dec
       10965000	      1095	00000000	00000013	addi	x0,x0,0	  x0:0x00000000
       10975000	      1096	800001b4	00000013	addi	x0,x0,0	  x0:0x00000000
       10985000	      1097	800001b8	00008817	auipc	x16,0x8	 x16=0x800081b4
       10995000	      1098	800001bc	21980813	addi	x16,x16,537	 x16:0x800081b4 x16=0x800083cd
       11005000	      1099	800001c0	f5b82e03	lw	x28,-165(x16)	 x16:0x800083cd x28=0x65549896 PA:0x80008328
       11015000	      1100	800001c4	18a80003	lb	x0,394(x16)	 x16:0x800083cd PA:0x80008557
       11025000	      1101	800001c8	01fd9c93	slli	x25,x27,0x1f	 x27:0x00000000 x25=0x00000000
       11035000	      1102	800001cc	639c3f13	sltiu	x30,x24,1593	 x24:0x80009fc4 x30=0x00000000
       11045000	      1103	800001d0	e4185283	lhu	x5,-447(x16)	 x16:0x800083cd  x5=0x0000e1c4 PA:0x8000820e
       11055000	      1104	800001d4	01388e33	add	x28,x17,x19	 x17:0x00000001 x19:0xb14c4000 x28=0xb14c4001
       11065000	      1105	800001d8	00cc7b33	and	x22,x24,x12	 x24:0x80009fc4 x12:0x80000a60 x22=0x80000a40
       11075000	      1106	800001dc	0103d393	srli	x7,x7,0x10	  x7:0x00000c80  x7=0x00000000
       11085000	      1107	800001e0	dd781103	lh	x2,-553(x16)	 x16:0x800083cd  x2=0xffff9ff1 PA:0x800081a4
       11095000	      1108	800001e4	ec880683	lb	x13,-312(x16)	 x16:0x800083cd x13=0xffffffb3 PA:0x80008295
       11105000	      1109	800001e8	fd72ff93	andi	x31,x5,-41	  x5:0x0000e1c4 x31=0x0000e1c4
       11115000	      1110	800001ec	8f500793	addi	x15,x0,-1803	  x0:0x00000000 x15=0xfffff8f5
       11125000	      1111	800001f0	c85b8893	addi	x17,x23,-891	 x23:0x3e275000 x17=0x3e274c85
       11135000	      1112	800001f4	d8e18737	lui	x14,0xd8e18	 x14=0xd8e18000
       11145000	      1113	800001f8	d4581ba3	sh	x5,-681(x16)	 x16:0x800083cd  x5:0x0000e1c4 PA:0x80008124
       11155000	      1114	800001fc	15f81483	lh	x9,351(x16)	 x16:0x800083cd  x9=0x00000644 PA:0x8000852c
       11165000	      1115	80000200	b3318e37	lui	x28,0xb3318	 x28=0xb3318000
       11175000	      1116	80000204	44460993	addi	x19,x12,1092	 x12:0x80000a60 x19=0x80000ea4
       11185000	      1117	80000208	27a0ba93	sltiu	x21,x1,634	  x1:0x0000b4af x21=0x00000000
       11195000	      1118	8000020c	01f4f7b3	and	x15,x9,x31	  x9:0x00000644 x31:0x0000e1c4 x15=0x00000044
       11205000	      1119	80000210	1f180403	lb	x8,497(x16)	 x16:0x800083cd  x8=0x00000018 PA:0x800085be
       11215000	      1120	80000214	2d384a83	lbu	x21,723(x16)	 x16:0x800083cd x21=0x00000037 PA:0x800086a0
       11225000	      1121	00000000	00000013	addi	x0,x0,0	  x0:0x00000000
       11235000	      1122	80000218	03580a83	lb	x21,53(x16)	 x16:0x800083cd x21=0xffffffd7 PA:0x80008402
       11245000	      1123	8000021c	1943fd13	andi	x26,x7,404	  x7:0x00000000 x26=0x00000000
       11255000	      1124	80000220	00f072b3	and	x5,x0,x15	  x0:0x00000000 x15:0x00000044  x5=0x00000000
       11265000	      1125	80000224	fa580623	sb	x5,-84(x16)	 x16:0x800083cd  x5:0x00000000 PA:0x80008379
       11275000	      1126	80000228	01e80e03	lb	x28,30(x16)	 x16:0x800083cd x28=0x00000009 PA:0x800083eb
       11285000	      1127	8000022c	4025d493	srai	x9,x11,0x2	 x11:0x80000378  x9=0xe00000de
       11295000	      1128	80000230	232dfe93	andi	x29,x27,562	 x27:0x00000000 x29=0x00000000
       11305000	      1129	80000234	2ca80883	lb	x17,714(x16)	 x16:0x800083cd x17=0xffffff82 PA:0x80008697
       11315000	      1130	80000238	e6d81003	lh	x0,-403(x16)	 x16:0x800083cd PA:0x8000823a
       11325000	      1131	8000023c	0de80383	lb	x7,222(x16)	 x16:0x800083cd  x7=0x00000043 PA:0x800084ab
       11335000	      1132	80000240	f3480b83	lb	x23,-204(x16)	 x16:0x800083cd x23=0xfffffff4 PA:0x80008301
       11345000	      1133	80000244	02c80023	sb	x12,32(x16)	 x16:0x800083cd x12:0x80000a60 PA:0x800083ed
       11355000	      1134	80000248	41998333	sub	x6,x19,x25	 x19:0x80000ea4 x25:0x00000000  x6=0x80000ea4
       11365000	      1135	8000024c	4acbbf37	lui	x30,0x4acbb	 x30=0x4acbb000
       11375000	      1136	80000250	00000013	addi	x0,x0,0	  x0:0x00000000
       11385000	      1137	80000254	e81815a3	sh	x1,-373(x16)	 x16:0x800083cd  x1:0x0000b4af PA:0x80008258
       11395000	      1138	80000258	00000013	addi	x0,x0,0	  x0:0x00000000
       11405000	      1139	8000025c	21781d83	lh	x27,535(x16)	 x16:0x800083cd x27=0x000061b6 PA:0x800085e4
       11415000	      1140	80000260	32084b03	lbu	x22,800(x16)	 x16:0x800083cd x22=0x0000001a PA:0x800086ed
       11425000	      1141	80000264	8c46a693	slti	x13,x13,-1852	 x13:0xffffffb3 x13=0x00000000
       11435000	      1142	80000268	c9b13893	sltiu	x17,x2,-869	  x2:0xffff9ff1 x17=0x00000001
       11445000	      1143	8000026c	ffe84703	lbu	x14,-2(x16)	 x16:0x800083cd x14=0x000000ac PA:0x800083cb
       11455000	      1144	80000270	01a20bb3	add	x23,x4,x26	  x4:0x00000001 x26:0x00000000 x23=0x00000001
       11465000	      1145	80000274	00bc1e93	slli	x29,x24,0xb	 x24:0x80009fc4 x29=0x04fe2000
       11475000	      1146	80000278	00b71633	sll	x12,x14,x11	 x14:0x000000ac x11:0x80000378 x12=0xac000000
       11485000	      1147	8000027c	05c801a3	sb	x28,67(x16)	 x16:0x800083cd x28:0x00000009 PA:0x80008410
       11495000	      1148	80000280	5c1de093	ori	x1,x27,1473	 x27:0x000061b6  x1=0x000065f7
       11505000	      1149	80000284	01bb8463	beq	x23,x27,8000028c	 x23:0x00000001 x27:0x000061b6
       11515000	      1150	80000288	5b2396b7	lui	x13,0x5b239	 x13=0x5b239000
       11525000	      1151	8000028c	4070d813	srai	x16,x1,0x7	  x1:0x000065f7 x16=0x000000cb
       11535000	      1152	80000290	012666b3	or	x13,x12,x18	 x12:0xac000000 x18:0x80009f84 x13=0xac009f84
       11545000	      1153	80000294	01b91db3	sll	x27,x18,x27	 x18:0x80009f84 x27:0x000061b6 x27=0xe1000000
       11555000	      1154	80000298	0135a5b3	slt	x11,x11,x19	 x11:0x80000378 x19:0x80000ea4 x11=0x00000001
       11565000	      1155	8000029c	00001a97	auipc	x21,0x1	 x21=0x80001298
       11575000	      1156	800002a0	220a8a93	addi	x21,x21,544	 x21:0x80001298 x21=0x800014b8
       11585000	      1157	800002a4	00000013	addi	x0,x0,0	  x0:0x00000000
       11595000	      1158	800002a8	01d143b3	xor	x7,x2,x29	  x2:0xffff9ff1 x29:0x04fe2000  x7=0xfb01bff1
       11605000	      1159	800002ac	01444e33	xor	x28,x8,x20	  x8:0x00000018 x20:0x00000000 x28=0x00000018
       11615000	      1160	800002b0	3d7c2313	slti	x6,x24,983	 x24:0x80009fc4  x6=0x00000001
       11625000	      1161	800002b4	00a1b2b3	sltu	x5,x3,x10	  x3:0x80000a40 x10:0x80000000  x5=0x00000000
       11635000	      1162	800002b8	400d5a33	sra	x20,x26,x0	 x26:0x00000000  x0:0x00000000 x20=0x00000000
       11645000	      1163	800002bc	000bd633	srl	x12,x23,x0	 x23:0x00000001  x0:0x00000000 x12=0x00000001
       11655000	      1164	800002c0	00c19a33	sll	x20,x3,x12	  x3:0x80000a40 x12:0x00000001 x20=0x00001480
       11665000	      1165	800002c4	f37a8a93	addi	x21,x21,-201	 x21:0x800014b8 x21=0x800013ef
       11675000	      1166	800002c8	01899593	slli	x11,x19,0x18	 x19:0x80000ea4 x11=0xa4000000
       11685000	      1167	800002cc	000c4463	blt	x24,x0,800002d4	 x24:0x80009fc4  x0:0x00000000
       11695000	      1168	00000000	00000013	addi	x0,x0,0	  x0:0x00000000
       11705000	      1169	800002d0	00000013	addi	x0,x0,0	  x0:0x00000000
       11715000	      1170	800002d4	0caa86e7	jalr	x13,x21,202	 x21:0x800013ef x13=0x800002d4
       11725000	      1171	00000000	00000013	addi	x0,x0,0	  x0:0x00000000
       11735000	      1172	800014b8	00000013	addi	x0,x0,0	  x0:0x00000000
       11745000	      1173	800014bc	007efdb3	and	x27,x29,x7	 x29:0x04fe2000  x7:0xfb01bff1 x27=0x00002000
       11755000	      1174	800014c0	00000013	addi	x0,x0,0	  x0:0x00000000
       11765000	      1175	800014c4	0073d263	bge	x7,x7,800014c8	  x7:0xfb01bff1  x7:0xfb01bff1
       11775000	      1176	00000000	00000013	addi	x0,x0,0	  x0:0x00000000
       11785000	      1177	800014c4	00000013	addi	x0,x0,0	  x0:0x00000000
       11795000	      1178	800014c8	ff090913	addi	x18,x18,-16	 x18:0x80009f84 x18=0x80009f74
       11805000	      1179	800014cc	34956d97	auipc	x27,0x34956	 x27=0xb49574c8
       11815000	      1180	800014d0	00d92223	sw	x13,4(x18)	 x18:0x80009f74 x13:0x800002d4 PA:0x80009f78
       11825000	      1181	800014d4	00725ab3	srl	x21,x4,x7	  x4:0x00000001  x7:0xfb01bff1 x21=0x00000000
       11835000	      1182	800014d8	00007117	auipc	x2,0x7	  x2=0x800084d4
       11845000	      1183	800014dc	40210113	addi	x2,x2,1026	  x2:0x800084d4  x2=0x800088d6
       11855000	      1184	800014e0	01839a33	sll	x20,x7,x24	  x7:0xfb01bff1 x24:0x80009fc4 x20=0xb01bff10
       11865000	      1185	800014e4	01810883	lb	x17,24(x2)	  x2:0x800088d6 x17=0xffffffa5 PA:0x800088ee
       11875000	      1186	800014e8	038101a3	sb	x24,35(x2)	  x2:0x800088d6 x24:0x80009fc4 PA:0x800088f9
       11885000	      1187	800014ec	cafea213	slti	x4,x29,-849	 x29:0x04fe2000  x4=0x00000000
       11895000	      1188	800014f0	fdd14183	lbu	x3,-35(x2)	  x2:0x800088d6  x3=0x00000073 PA:0x800088b3
       11905000	      1189	800014f4	02f14b03	lbu	x22,47(x2)	  x2:0x800088d6 x22=0x000000a7 PA:0x80008905
       11915000	      1190	800014f8	feb10283	lb	x5,-21(x2)	  x2:0x800088d6  x5=0x0000002b PA:0x800088c1
       11925000	      1191	800014fc	ff110e03	lb	x28,-15(x2)	  x2:0x800088d6 x28=0xffffff9f PA:0x800088c7
       11935000	      1192	80001500	8f899197	auipc	x3,0x8f899	  x3=0x0f89a4fc
       11945000	      1193	80001504	408809b3	sub	x19,x16,x8	 x16:0x000000cb  x8:0x00000018 x19=0x000000b3
       11955000	      1194	80001508	017f60b3	or	x1,x30,x23	 x30:0x4acbb000 x23:0x00000001  x1=0x4acbb001
       11965000	      1195	8000150c	00f1b3b3	sltu	x7,x3,x15	  x3:0x0f89a4fc x15:0x00000044  x7=0x00000000
       11975000	      1196	80001510	11668e93	addi	x29,x13,278	 x13:0x800002d4 x29=0x800003ea
       11985000	      1197	80001514	05dc0293	addi	x5,x24,93	 x24:0x80009fc4  x5=0x8000a021
       11995000	      1198	80001518	014f9d33	sll	x26,x31,x20	 x31:0x0000e1c4 x20:0xb01bff10 x26=0xe1c40000
       12005000	      1199	8000151c	03212603	lw	x12,50(x2)	  x2:0x800088d6 x12=0x1a4a40af PA:0x80008908
       12015000	      1200	80001520	03314703	lbu	x14,51(x2)	  x2:0x800088d6 x14=0x00000040 PA:0x80008909
       12025000	      1201	80001524	00326fb3	or	x31,x4,x3	  x4:0x00000000  x3:0x0f89a4fc x31=0x0f89a4fc
       12035000	      1202	80001528	03c103a3	sb	x28,39(x2)	  x2:0x800088d6 x28:0xffffff9f PA:0x800088fd
       12045000	      1203	8000152c	01151f33	sll	x30,x10,x17	 x10:0x80000000 x17:0xffffffa5 x30=0x00000000
       12055000	      1204	80001530	4104de33	sra	x28,x9,x16	  x9:0xe00000de x16:0x000000cb x28=0xfffc0000
       12065000	      1205	80001534	01510283	lb	x5,21(x2)	  x2:0x800088d6  x5=0xffffff8a PA:0x800088eb
       12075000	      1206	80001538	01b11613	slli	x12,x2,0x1b	  x2:0x800088d6 x12=0xb0000000
       12085000	      1207	8000153c	017e9813	slli	x16,x29,0x17	 x29:0x800003ea x16=0xf5000000
       12095000	      1208	80001540	00700e33	add	x28,x0,x7	  x0:0x00000000  x7:0x00000000 x28=0x00000000
       12105000	      1209	80001544	00410483	lb	x9,4(x2)	  x2:0x800088d6  x9=0x00000024 PA:0x800088da
       12115000	      1210	80001548	01ee7ab3	and	x21,x28,x30	 x28:0x00000000 x30:0x00000000 x21=0x00000000
       12125000	      1211	8000154c	fe011d23	sh	x0,-6(x2)	  x2:0x800088d6  x0:0x00000000 PA:0x800088d0
       12135000	      1212	80001550	40800ab3	sub	x21,x0,x8	  x0:0x00000000  x8:0x00000018 x21=0xffffffe8
       12145000	      1213	80001554	002f2ab3	slt	x21,x30,x2	 x30:0x00000000  x2:0x800088d6 x21=0x00000000
       12155000	      1214	80001558	02510e93	addi	x29,x2,37	  x2:0x800088d6 x29=0x800088fb
       12165000	      1215	8000155c	fdc15483	lhu	x9,-36(x2)	  x2:0x800088d6  x9=0x00007374 PA:0x800088b2
       12175000	      1216	00000000	00000013	addi	x0,x0,0	  x0:0x00000000
       12185000	      1217	80001560	02942193	slti	x3,x8,41	  x8:0x00000018  x3=0x00000001
       12195000	      1218	80001564	fe114203	lbu	x4,-31(x2)	  x2:0x800088d6  x4=0x00000036 PA:0x800088b7
       12205000	      1219	80001568	00f07fb3	and	x31,x0,x15	  x0:0x00000000 x15:0x00000044 x31=0x00000000
       12215000	      1220	8000156c	03c15d03	lhu	x26,60(x2)	  x2:0x800088d6 x26=0x00006563 PA:0x80008912
       12225000	      1221	80001570	408985b3	sub	x11,x19,x8	 x19:0x000000b3  x8:0x00000018 x11=0x0000009b
       12235000	      1222	80001574	befd4e13	xori	x28,x26,-1041	 x26:0x00006563 x28=0xffff9e8c
       12245000	      1223	80001578	407ade93	srai	x29,x21,0x7	 x21:0x00000000 x29=0x00000000
       12255000	      1224	8000157c	01671bb3	sll	x23,x14,x22	 x14:0x00000040 x22:0x000000a7 x23=0x00002000
       12265000	      1225	80001580	42b63093	sltiu	x1,x12,1067	 x12:0xb0000000  x1=0x00000000
       12275000	      1226	80001584	006c9d13	slli	x26,x25,0x6	 x25:0x00000000 x26=0x00000000
       12285000	      1227	80001588	40835213	srai	x4,x6,0x8	  x6:0x00000001  x4=0x00000000
       12295000	      1228	8000158c	01c15183	lhu	x3,28(x2)	  x2:0x800088d6  x3=0x00003f3a PA:0x800088f2
       12305000	      1229	80001590	010c9793	slli	x15,x25,0x10	 x25:0x00000000 x15=0x00000000
       12315000	      1230	80001594	fd612983	lw	x19,-42(x2)	  x2:0x800088d6 x19=0xa511a11c PA:0x800088ac
       12325000	      1231	80001598	fd5102a3	sb	x21,-59(x2)	  x2:0x800088d6 x21:0x00000000 PA:0x8000889b
       12335000	      1232	8000159c	00007317	auipc	x6,0x7	  x6=0x80008598
       12345000	      1233	800015a0	b4b30313	addi	x6,x6,-1205	  x6:0x80008598  x6=0x800080e3
       12355000	      1234	800015a4	40e9d013	srai	x0,x19,0xe	 x19:0xa511a11c
       12365000	      1235	800015a8	00795fb3	srl	x31,x18,x7	 x18:0x80009f74  x7:0x00000000 x31=0x80009f74
       12375000	      1236	800015ac	0a815437	lui	x8,0xa815	  x8=0x0a815000
       12385000	      1237	800015b0	00e30723	sb	x14,14(x6)	  x6:0x800080e3 x14:0x00000040 PA:0x800080f1
       12395000	      1238	800015b4	01421133	sll	x2,x4,x20	  x4:0x00000000 x20:0xb01bff10  x2=0x00000000
       12405000	      1239	800015b8	00028233	add	x4,x5,x0	  x5:0xffffff8a  x0:0x00000000  x4=0xffffff8a
       12415000	      1240	800015bc	00555cb3	srl	x25,x10,x5	 x10:0x80000000  x5:0xffffff8a x25=0x00200000
       12425000	      1241	800015c0	00b5d213	srli	x4,x11,0xb	 x11:0x0000009b  x4=0x00000000
       12435000	      1242	800015c4	ff735483	lhu	x9,-9(x6)	  x6:0x800080e3  x9=0x0000da8a PA:0x800080da
       12445000	      1243	00000000	00000013	addi	x0,x0,0	  x0:0x00000000
       12455000	      1244	800015c8	0034cf33	xor	x30,x9,x3	  x9:0x0000da8a  x3:0x00003f3a x30=0x0000e5b0
       12465000	      1245	800015cc	00000013	addi	x0,x0,0	  x0:0x00000000
       12475000	      1246	800015d0	fea32aa3	sw	x10,-11(x6)	  x6:0x800080e3 x10:0x80000000 PA:0x800080d8
       12485000	      1247	800015d4	4016df13	srai	x30,x13,0x1	 x13:0x800002d4 x30=0xc000016a
       12495000	      1248	800015d8	ff934d03	lbu	x26,-7(x6)	  x6:0x800080e3 x26=0x00000029 PA:0x800080dc
       12505000	      1249	800015dc	908fb993	sltiu	x19,x31,-1784	 x31:0x80009f74 x19=0x00000001
       12515000	      1250	800015e0	ffd30103	lb	x2,-3(x6)	  x6:0x800080e3  x2=0x00000047 PA:0x800080e0
       12525000	      1251	800015e4	00830403	lb	x8,8(x6)	  x6:0x800080e3  x8=0xfffffffa PA:0x800080eb
       12535000	      1252	800015e8	00734f83	lbu	x31,7(x6)	  x6:0x800080e3 x31=0x0000002d PA:0x800080ea
       12545000	      1253	800015ec	03422cb7	lui	x25,0x3422	 x25=0x03422000
       12555000	      1254	800015f0	41c7dd13	srai	x26,x15,0x1c	 x15:0x00000000 x26=0x00000000
       12565000	      1255	800015f4	d016a593	slti	x11,x13,-767	 x13:0x800002d4 x11=0x00000001
       12575000	      1256	800015f8	0048a633	slt	x12,x17,x4	 x17:0xffffffa5  x4:0x00000000 x12=0x00000001
       12585000	      1257	800015fc	00b789b3	add	x19,x15,x11	 x15:0x00000000 x11:0x00000001 x19=0x00000001
       12595000	      1258	80001600	fe631da3	sh	x6,-5(x6)	  x6:0x800080e3  x6:0x800080e3 PA:0x800080de
       12605000	      1259	80001604	41245bb3	sra	x23,x8,x18	  x8:0xfffffffa x18:0x80009f74 x23=0xffffffff
       12615000	      1260	80001608	00a34b83	lbu	x23,10(x6)	  x6:0x800080e3 x23=0x00000021 PA:0x800080ed
       12625000	      1261	8000160c	ffe30c83	lb	x25,-2(x6)	  x6:0x800080e3 x25=0x0000000a PA:0x800080e1
       12635000	      1262	80001610	01aa2833	slt	x16,x20,x26	 x20:0xb01bff10 x26:0x00000000 x16=0x00000001
       12645000	      1263	80001614	a502ee37	lui	x28,0xa502e	 x28=0xa502e000
       12655000	      1264	80001618	8854a213	slti	x4,x9,-1915	  x9:0x0000da8a  x4=0x00000000
       12665000	      1265	8000161c	00c81e13	slli	x28,x16,0xc	 x16:0x00000001 x28=0x00001000
       12675000	      1266	80001620	01ca1e93	slli	x29,x20,0x1c	 x20:0xb01bff10 x29=0x00000000
       12685000	      1267	80001624	1a235c97	auipc	x25,0x1a235	 x25=0x9a236620
       12695000	      1268	80001628	00125093	srli	x1,x4,0x1	  x4:0x00000000  x1=0x00000000
       12705000	      1269	8000162c	01b13fb3	sltu	x31,x2,x27	  x2:0x00000047 x27:0xb49574c8 x31=0x00000001
       12715000	      1270	80001630	ff530823	sb	x21,-16(x6)	  x6:0x800080e3 x21:0x00000000 PA:0x800080d3
       12725000	      1271	80001634	00007897	auipc	x17,0x7	 x17=0x80008630
       12735000	      1272	80001638	e3988893	addi	x17,x17,-455	 x17:0x80008630 x17=0x80008469
       12745000	      1273	8000163c	00989083	lh	x1,9(x17)	 x17:0x80008469  x1=0x00000710 PA:0x80008472
       12755000	      1274	80001640	009340b3	xor	x1,x6,x9	  x6:0x800080e3  x9:0x0000da8a  x1=0x80005a69
       12765000	      1275	80001644	0058d483	lhu	x9,5(x17)	 x17:0x80008469  x9=0x0000a4cf PA:0x8000846e
       12775000	      1276	80001648	40005113	srai	x2,x0,0x0	  x0:0x00000000  x2=0x00000000
       12785000	      1277	8000164c	fe088e23	sb	x0,-4(x17)	 x17:0x80008469  x0:0x00000000 PA:0x80008465
       12795000	      1278	80001650	fef88a23	sb	x15,-12(x17)	 x17:0x80008469 x15:0x00000000 PA:0x8000845d
       12805000	      1279	80001654	5baa2793	slti	x15,x20,1466	 x20:0xb01bff10 x15=0x00000001
       12815000	      1280	80001658	393db837	lui	x16,0x393db	 x16=0x393db000
       12825000	      1281	8000165c	0068c683	lbu	x13,6(x17)	 x17:0x80008469 x13=0x000000a4 PA:0x8000846f
       12835000	      1282	80001660	feb88aa3	sb	x11,-11(x17)	 x17:0x80008469 x11:0x00000001 PA:0x8000845e
       12845000	      1283	80001664	92f44493	xori	x9,x8,-1745	  x8:0xfffffffa  x9=0x000006d5
       12855000	      1284	80001668	ff789783	lh	x15,-9(x17)	 x17:0x80008469 x15=0x0000328e PA:0x80008460
       12865000	      1285	8000166c	ff28c403	lbu	x8,-14(x17)	 x17:0x80008469  x8=0x000000b5 PA:0x8000845b
       12875000	      1286	80001670	00188423	sb	x1,8(x17)	 x17:0x80008469  x1:0x80005a69 PA:0x80008471
       12885000	      1287	80001674	016881a3	sb	x22,3(x17)	 x17:0x80008469 x22:0x000000a7 PA:0x8000846c
       12895000	      1288	80001678	00188583	lb	x11,1(x17)	 x17:0x80008469 x11=0xfffffff7 PA:0x8000846a
       12905000	      1289	8000167c	00a8c183	lbu	x3,10(x17)	 x17:0x80008469  x3=0x00000007 PA:0x80008473
       12915000	      1290	80001680	0028cb83	lbu	x23,2(x17)	 x17:0x80008469 x23=0x0000008b PA:0x8000846b
       12925000	      1291	80001684	8c7a8e13	addi	x28,x21,-1849	 x21:0x00000000 x28=0xfffff8c7
       12935000	      1292	80001688	0078aa03	lw	x20,7(x17)	 x17:0x80008469 x20=0x071069fd PA:0x80008470
       12945000	      1293	8000168c	a702f213	andi	x4,x5,-1424	  x5:0xffffff8a  x4=0xfffffa00
       12955000	      1294	80001690	00488583	lb	x11,4(x17)	 x17:0x80008469 x11=0xffffffa2 PA:0x8000846d
       12965000	      1295	80001694	01cb43b3	xor	x7,x22,x28	 x22:0x000000a7 x28:0xfffff8c7  x7=0xfffff860
       12975000	      1296	80001698	fec88da3	sb	x12,-5(x17)	 x17:0x80008469 x12:0x00000001 PA:0x80008464
       12985000	      1297	8000169c	415ed9b3	sra	x19,x29,x21	 x29:0x00000000 x21:0x00000000 x19=0x00000000
       12995000	      1298	800016a0	fe888c23	sb	x8,-8(x17)	 x17:0x80008469  x8:0x000000b5 PA:0x80008461
       13005000	      1299	800016a4	013886a3	sb	x19,13(x17)	 x17:0x80008469 x19:0x00000000 PA:0x80008476
       13015000	      1300	800016a8	ff189fa3	sh	x17,-1(x17)	 x17:0x80008469 x17:0x80008469 PA:0x80008468
       13025000	      1301	800016ac	41fdd633	sra	x12,x27,x31	 x27:0xb49574c8 x31:0x00000001 x12=0xda4aba64
       13035000	      1302	800016b0	ffe8c083	lbu	x1,-2(x17)	 x17:0x80008469  x1=0x0000003d PA:0x80008467
       13045000	      1303	800016b4	01588123	sb	x21,2(x17)	 x17:0x80008469 x21:0x00000000 PA:0x8000846b
       13055000	      1304	800016b8	ff68cf83	lbu	x31,-10(x17)	 x17:0x80008469 x31=0x000000b2 PA:0x8000845f
       13065000	      1305	800016bc	00007117	auipc	x2,0x7	  x2=0x800086b8
       13075000	      1306	800016c0	12110113	addi	x2,x2,289	  x2:0x800086b8  x2=0x800087d9
       13085000	      1307	800016c4	f1d113a3	sh	x29,-249(x2)	  x2:0x800087d9 x29:0x00000000 PA:0x800086e0
       13095000	      1308	800016c8	01caddb3	srl	x27,x21,x28	 x21:0x00000000 x28:0xfffff8c7 x27=0x00000000
       13105000	      1309	800016cc	1e0c7097	auipc	x1,0x1e0c7	  x1=0x9e0c86c8
       13115000	      1310	800016d0	00cadcb3	srl	x25,x21,x12	 x21:0x00000000 x12:0xda4aba64 x25=0x00000000
       13125000	      1311	800016d4	0163d713	srli	x14,x7,0x16	  x7:0xfffff860 x14=0x000003ff
       13135000	      1312	800016d8	011c9f13	slli	x30,x25,0x11	 x25:0x00000000 x30=0x00000000
       13145000	      1313	800016dc	003e57b3	srl	x15,x28,x3	 x28:0xfffff8c7  x3:0x00000007 x15=0x01fffff1
       13155000	      1314	800016e0	f6f10423	sb	x15,-152(x2)	  x2:0x800087d9 x15:0x01fffff1 PA:0x80008741
       13165000	      1315	800016e4	4d0d2893	slti	x17,x26,1232	 x26:0x00000000 x17=0x00000001
       13175000	      1316	800016e8	00cc42b3	xor	x5,x24,x12	 x24:0x80009fc4 x12:0xda4aba64  x5=0x5a4a25a0
       13185000	      1317	800016ec	00310da3	sb	x3,27(x2)	  x2:0x800087d9  x3:0x00000007 PA:0x800087f4
       13195000	      1318	800016f0	02c14703	lbu	x14,44(x2)	  x2:0x800087d9 x14=0x00000015 PA:0x80008805
       13205000	      1319	800016f4	004dbc93	sltiu	x25,x27,4	 x27:0x00000000 x25=0x00000001
       13215000	      1320	800016f8	fbb14a83	lbu	x21,-69(x2)	  x2:0x800087d9 x21=0x000000d8 PA:0x80008794
       13225000	      1321	800016fc	3267c8b7	lui	x17,0x3267c	 x17=0x3267c000
       13235000	      1322	80001700	01bcd833	srl	x16,x25,x27	 x25:0x00000001 x27:0x00000000 x16=0x00000001
       13245000	      1323	80001704	fe910c83	lb	x25,-23(x2)	  x2:0x800087d9 x25=0x0000003c PA:0x800087c2
       13255000	      1324	80001708	d3720193	addi	x3,x4,-713	  x4:0xfffffa00  x3=0xfffff737
       13265000	      1325	8000170c	f81113a3	sh	x1,-121(x2)	  x2:0x800087d9  x1:0x9e0c86c8 PA:0x80008760
       13275000	      1326	80001710	fa312a83	lw	x21,-93(x2)	  x2:0x800087d9 x21=0x925172b2 PA:0x8000877c
       13285000	      1327	80001714	ffa10823	sb	x26,-16(x2)	  x2:0x800087d9 x26:0x00000000 PA:0x800087c9
       13295000	      1328	80001718	01fbab33	slt	x22,x23,x31	 x23:0x0000008b x31:0x000000b2 x22=0x00000001
       13305000	      1329	8000171c	cc6af193	andi	x3,x21,-826	 x21:0x925172b2  x3=0x92517082
       13315000	      1330	80001720	416f53b3	sra	x7,x30,x22	 x30:0x00000000 x22:0x00000001  x7=0x00000000
       13325000	      1331	80001724	01b10923	sb	x27,18(x2)	  x2:0x800087d9 x27:0x00000000 PA:0x800087eb
       13335000	      1332	80001728	37734813	xori	x16,x6,887	  x6:0x800080e3 x16=0x80008394
       13345000	      1333	8000172c	fde14c83	lbu	x25,-34(x2)	  x2:0x800087d9 x25=0x000000c5 PA:0x800087b7
       13355000	      1334	80001730	0058d013	srli	x0,x17,0x5	 x17:0x3267c000
       13365000	      1335	80001734	f3c14f83	lbu	x31,-196(x2)	  x2:0x800087d9 x31=0x0000003c PA:0x80008715
       13375000	      1336	80001738	f6a10c83	lb	x25,-150(x2)	  x2:0x800087d9 x25=0x0000005a PA:0x80008743
       13385000	      1337	8000173c	01810823	sb	x24,16(x2)	  x2:0x800087d9 x24:0x80009fc4 PA:0x800087e9
       13395000	      1338	80001740	00007117	auipc	x2,0x7	  x2=0x8000873c
       13405000	      1339	80001744	e9f10113	addi	x2,x2,-353	  x2:0x8000873c  x2=0x800085db
       13415000	      1340	80001748	fc911183	lh	x3,-55(x2)	  x2:0x800085db  x3=0x00007936 PA:0x800085a4
       13425000	      1341	8000174c	414cd613	srai	x12,x25,0x14	 x25:0x0000005a x12=0x00000000
       13435000	      1342	80001750	42477db7	lui	x27,0x42477	 x27=0x42477000
       13445000	      1343	80001754	00310723	sb	x3,14(x2)	  x2:0x800085db  x3:0x00007936 PA:0x800085e9
       13455000	      1344	80001758	00eaeeb3	or	x29,x21,x14	 x21:0x925172b2 x14:0x00000015 x29=0x925172b7
       13465000	      1345	8000175c	ff310083	lb	x1,-13(x2)	  x2:0x800085db  x1=0xffffffbc PA:0x800085ce
       13475000	      1346	80001760	65980693	addi	x13,x16,1625	 x16:0x80008394 x13=0x800089ed
       13485000	      1347	80001764	41c35b33	sra	x22,x6,x28	  x6:0x800080e3 x28:0xfffff8c7 x22=0xff000101
       13495000	      1348	80001768	04010a03	lb	x20,64(x2)	  x2:0x800085db x20=0x0000000a PA:0x8000861b
       13505000	      1349	8000176c	00e6b0b3	sltu	x1,x13,x14	 x13:0x800089ed x14:0x00000015  x1=0x00000000
       13515000	      1350	80001770	02d14e83	lbu	x29,45(x2)	  x2:0x800085db x29=0x00000097 PA:0x80008608
       13525000	      1351	80001774	cc75eb93	ori	x23,x11,-825	 x11:0xffffffa2 x23=0xffffffe7
       13535000	      1352	80001778	f0f63813	sltiu	x16,x12,-241	 x12:0x00000000 x16=0x00000001
       13545000	      1353	8000177c	000b5213	srli	x4,x22,0x0	 x22:0xff000101  x4=0xff000101
       13555000	      1354	80001780	f9ee6b13	ori	x22,x28,-98	 x28:0xfffff8c7 x22=0xffffffdf
       13565000	      1355	80001784	01b967b3	or	x15,x18,x27	 x18:0x80009f74 x27:0x42477000 x15=0xc247ff74
       13575000	      1356	80001788	0087d413	srli	x8,x15,0x8	 x15:0xc247ff74  x8=0x00c247ff
       13585000	      1357	8000178c	00821c93	slli	x25,x4,0x8	  x4:0xff000101 x25=0x00010100
       13595000	      1358	80001790	004dbfb3	sltu	x31,x27,x4	 x27:0x42477000  x4:0xff000101 x31=0x00000001
       13605000	      1359	80001794	03e10803	lb	x16,62(x2)	  x2:0x800085db x16=0x0000000d PA:0x80008619
       13615000	      1360	80001798	fd515e83	lhu	x29,-43(x2)	  x2:0x800085db x29=0x0000d092 PA:0x800085b0
       13625000	      1361	8000179c	000c5693	srli	x13,x24,0x0	 x24:0x80009fc4 x13=0x80009fc4
       13635000	      1362	800017a0	19c35997	auipc	x19,0x19c35	 x19=0x99c3679c
       13645000	      1363	800017a4	fe011ba3	sh	x0,-9(x2)	  x2:0x800085db  x0:0x00000000 PA:0x800085d2
       13655000	      1364	800017a8	02e10883	lb	x17,46(x2)	  x2:0x800085db x17=0x00000040 PA:0x80008609
       13665000	      1365	800017ac	7a338a13	addi	x20,x7,1955	  x7:0x00000000 x20=0x000007a3
       13675000	      1366	800017b0	01061333	sll	x6,x12,x16	 x12:0x00000000 x16:0x0000000d  x6=0x00000000
       13685000	      1367	800017b4	fd610383	lb	x7,-42(x2)	  x2:0x800085db  x7=0xffffffd0 PA:0x800085b1
       13695000	      1368	800017b8	00007117	auipc	x2,0x7	  x2=0x800087b4
       13705000	      1369	800017bc	91710113	addi	x2,x2,-1769	  x2:0x800087b4  x2=0x800080cb
       13715000	      1370	800017c0	01cbcab3	xor	x21,x23,x28	 x23:0xffffffe7 x28:0xfffff8c7 x21=0x00000720
       13725000	      1371	800017c4	e37c3493	sltiu	x9,x24,-457	 x24:0x80009fc4  x9=0x00000001
       13735000	      1372	800017c8	011687b3	add	x15,x13,x17	 x13:0x80009fc4 x17:0x00000040 x15=0x8000a004
       13745000	      1373	800017cc	0a5120a3	sw	x5,161(x2)	  x2:0x800080cb  x5:0x5a4a25a0 PA:0x8000816c
       13755000	      1374	800017d0	000bfeb3	and	x29,x23,x0	 x23:0xffffffe7  x0:0x00000000 x29=0x00000000
       13765000	      1375	800017d4	f8610e83	lb	x29,-122(x2)	  x2:0x800080cb x29=0x00000072 PA:0x80008051
       13775000	      1376	800017d8	e7f5b713	sltiu	x14,x11,-385	 x11:0xffffffa2 x14=0x00000000
       13785000	      1377	800017dc	e6e17893	andi	x17,x2,-402	  x2:0x800080cb x17=0x8000804a
       13795000	      1378	800017e0	5b4acb93	xori	x23,x21,1460	 x21:0x00000720 x23=0x00000294
       13805000	      1379	800017e4	eca28db7	lui	x27,0xeca28	 x27=0xeca28000
       13815000	      1380	800017e8	0b410003	lb	x0,180(x2)	  x2:0x800080cb PA:0x8000817f
       13825000	      1381	800017ec	08414a83	lbu	x21,132(x2)	  x2:0x800080cb x21=0x000000fb PA:0x8000814f
       13835000	      1382	800017f0	01f5f633	and	x12,x11,x31	 x11:0xffffffa2 x31:0x00000001 x12=0x00000000
       13845000	      1383	800017f4	010ada33	srl	x20,x21,x16	 x21:0x000000fb x16:0x0000000d x20=0x00000000
       13855000	      1384	800017f8	07810083	lb	x1,120(x2)	  x2:0x800080cb  x1=0x0000007d PA:0x80008143
       13865000	      1385	800017fc	40658db3	sub	x27,x11,x6	 x11:0xffffffa2  x6:0x00000000 x27=0xffffffa2
       13875000	      1386	80001800	5068c593	xori	x11,x17,1286	 x17:0x8000804a x11=0x8000854c
       13885000	      1387	80001804	00000013	addi	x0,x0,0	  x0:0x00000000
       13895000	      1388	80001808	90c7b993	sltiu	x19,x15,-1780	 x15:0x8000a004 x19=0x00000001
       13905000	      1389	8000180c	0a512ea3	sw	x5,189(x2)	  x2:0x800080cb  x5:0x5a4a25a0 PA:0x80008188
       13915000	      1390	80001810	07c10683	lb	x13,124(x2)	  x2:0x800080cb x13=0xffffffda PA:0x80008147
       13925000	      1391	80001814	fff106a3	sb	x31,-19(x2)	  x2:0x800080cb x31:0x00000001 PA:0x800080b8
       13935000	      1392	80001818	ff311283	lh	x5,-13(x2)	  x2:0x800080cb  x5=0xffffd33a PA:0x800080be
       13945000	      1393	8000181c	05814203	lbu	x4,88(x2)	  x2:0x800080cb  x4=0x000000ff PA:0x80008123
       13955000	      1394	80001820	2a808593	addi	x11,x1,680	  x1:0x0000007d x11=0x00000325
       13965000	      1395	80001824	018a60b3	or	x1,x20,x24	 x20:0x00000000 x24:0x80009fc4  x1=0x80009fc4
       13975000	      1396	80001828	0bf10ea3	sb	x31,189(x2)	  x2:0x800080cb x31:0x00000001 PA:0x80008188
       13985000	      1397	8000182c	05814803	lbu	x16,88(x2)	  x2:0x800080cb x16=0x000000ff PA:0x80008123
       13995000	      1398	80001830	00d981b3	add	x3,x19,x13	 x19:0x00000001 x13:0xffffffda  x3=0xffffffdb
       14005000	      1399	80001834	ac89f093	andi	x1,x19,-1336	 x19:0x00000001  x1=0x00000000
       14015000	      1400	80001838	f8010583	lb	x11,-128(x2)	  x2:0x800080cb x11=0xffffffc6 PA:0x8000804b
       14025000	      1401	8000183c	fd910c83	lb	x25,-39(x2)	  x2:0x800080cb x25=0x00000075 PA:0x800080a4
       14035000	      1402	80001840	00912ab3	slt	x21,x2,x9	  x2:0x800080cb  x9:0x00000001 x21=0x00000001
       14045000	      1403	80001844	003a1433	sll	x8,x20,x3	 x20:0x00000000  x3:0xffffffdb  x8=0x00000000
       14055000	      1404	80001848	7885b013	sltiu	x0,x11,1928	 x11:0xffffffc6
       14065000	      1405	8000184c	fd510d23	sb	x21,-38(x2)	  x2:0x800080cb x21:0x00000001 PA:0x800080a5
       14075000	      1406	80001850	00809e13	slli	x28,x1,0x8	  x1:0x00000000 x28=0x00000000
       14085000	      1407	80001854	09210703	lb	x14,146(x2)	  x2:0x800080cb x14=0x00000023 PA:0x8000815d
       14095000	      1408	80001858	f9b10003	lb	x0,-101(x2)	  x2:0x800080cb PA:0x80008066
       14105000	      1409	8000185c	07e10303	lb	x6,126(x2)	  x2:0x800080cb  x6=0xffffffbb PA:0x80008149
       14115000	      1410	80001860	fa310203	lb	x4,-93(x2)	  x2:0x800080cb  x4=0xffffffe1 PA:0x8000806e
       14125000	      1411	80001864	8b0dc597	auipc	x11,0x8b0dc	 x11=0x0b0dd860
       14135000	      1412	80001868	0e912ea3	sw	x9,253(x2)	  x2:0x800080cb  x9:0x00000001 PA:0x800081c8
       14145000	      1413	8000186c	fb9122a3	sw	x25,-91(x2)	  x2:0x800080cb x25:0x00000075 PA:0x80008070
       14155000	      1414	80001870	5805b713	sltiu	x14,x11,1408	 x11:0x0b0dd860 x14=0x00000000
       14165000	      1415	80001874	05814f03	lbu	x30,88(x2)	  x2:0x800080cb x30=0x000000ff PA:0x80008123
       14175000	      1416	80001878	01c1b333	sltu	x6,x3,x28	  x3:0xffffffdb x28:0x00000000  x6=0x00000000
       14185000	      1417	8000187c	fe1111a3	sh	x1,-29(x2)	  x2:0x800080cb  x1:0x00000000 PA:0x800080ae
       14195000	      1418	80001880	08010f83	lb	x31,128(x2)	  x2:0x800080cb x31=0x00000072 PA:0x8000814b
       14205000	      1419	80001884	419edf93	srai	x31,x29,0x19	 x29:0x00000072 x31=0x00000000
       14215000	      1420	80001888	416f0fb3	sub	x31,x30,x22	 x30:0x000000ff x22:0xffffffdf x31=0x00000120
       14225000	      1421	8000188c	003b7d33	and	x26,x22,x3	 x22:0xffffffdf  x3:0xffffffdb x26=0xffffffdb
       14235000	      1422	80001890	ff910123	sb	x25,-30(x2)	  x2:0x800080cb x25:0x00000075 PA:0x800080ad
       14245000	      1423	80001894	ec96aa13	slti	x20,x13,-311	 x13:0xffffffda x20=0x00000000
       14255000	      1424	80001898	0172d413	srli	x8,x5,0x17	  x5:0xffffd33a  x8=0x000001ff
       14265000	      1425	8000189c	ff911a83	lh	x21,-7(x2)	  x2:0x800080cb x21=0xffffca5a PA:0x800080c4
       14275000	      1426	800018a0	00007b97	auipc	x23,0x7	 x23=0x8000889c
       14285000	      1427	800018a4	da7b8b93	addi	x23,x23,-601	 x23:0x8000889c x23=0x80008643
       14295000	      1428	800018a8	019b9b03	lh	x22,25(x23)	 x23:0x80008643 x22=0xffffac80 PA:0x8000865c
       14305000	      1429	800018ac	012b8a23	sb	x18,20(x23)	 x23:0x80008643 x18:0x80009f74 PA:0x80008657
       14315000	      1430	800018b0	fd2b8ea3	sb	x18,-35(x23)	 x23:0x80008643 x18:0x80009f74 PA:0x80008620
       14325000	      1431	800018b4	03bb8603	lb	x12,59(x23)	 x23:0x80008643 x12=0x0000000b PA:0x8000867e
       14335000	      1432	800018b8	036b8da3	sb	x22,59(x23)	 x23:0x80008643 x22:0xffffac80 PA:0x8000867e
       14345000	      1433	800018bc	e633f093	andi	x1,x7,-413	  x7:0xffffffd0  x1=0xfffffe40
       14355000	      1434	800018c0	861ae997	auipc	x19,0x861ae	 x19=0x061af8bc
       14365000	      1435	800018c4	003b8b23	sb	x3,22(x23)	 x23:0x80008643  x3:0xffffffdb PA:0x80008659
       14375000	      1436	800018c8	ff0b8423	sb	x16,-24(x23)	 x23:0x80008643 x16:0x000000ff PA:0x8000862b
       14385000	      1437	800018cc	024bcf83	lbu	x31,36(x23)	 x23:0x80008643 x31=0x00000077 PA:0x80008667
       14395000	      1438	800018d0	018b8683	lb	x13,24(x23)	 x23:0x80008643 x13=0xffffffe1 PA:0x8000865b
       14405000	      1439	800018d4	40b2d133	sra	x2,x5,x11	  x5:0xffffd33a x11:0x0b0dd860  x2=0xffffd33a
       14415000	      1440	800018d8	ff6b8623	sb	x22,-20(x23)	 x23:0x80008643 x22:0xffffac80 PA:0x8000862f
       14425000	      1441	800018dc	02bb85a3	sb	x11,43(x23)	 x23:0x80008643 x11:0x0b0dd860 PA:0x8000866e
       14435000	      1442	800018e0	01641e13	slli	x28,x8,0x16	  x8:0x000001ff x28=0x7fc00000
       14445000	      1443	800018e4	009182b3	add	x5,x3,x9	  x3:0xffffffdb  x9:0x00000001  x5=0xffffffdc
       14455000	      1444	800018e8	00fb8583	lb	x11,15(x23)	 x23:0x80008643 x11=0xffffffb0 PA:0x80008652
       14465000	      1445	800018ec	fe3b8223	sb	x3,-28(x23)	 x23:0x80008643  x3:0xffffffdb PA:0x80008627
       14475000	      1446	800018f0	012a60b3	or	x1,x20,x18	 x20:0x00000000 x18:0x80009f74  x1=0x80009f74
       14485000	      1447	800018f4	023b99a3	sh	x3,51(x23)	 x23:0x80008643  x3:0xffffffdb PA:0x80008676
       14495000	      1448	800018f8	40490e33	sub	x28,x18,x4	 x18:0x80009f74  x4:0xffffffe1 x28=0x80009f93
       14505000	      1449	800018fc	00000013	addi	x0,x0,0	  x0:0x00000000
       14515000	      1450	80001900	0124a433	slt	x8,x9,x18	  x9:0x00000001 x18:0x80009f74  x8=0x00000000
       14525000	      1451	80001904	fccb8ba3	sb	x12,-41(x23)	 x23:0x80008643 x12:0x0000000b PA:0x8000861a
       14535000	      1452	80001908	fddbc783	lbu	x15,-35(x23)	 x23:0x80008643 x15=0x00000074 PA:0x80008620
       14545000	      1453	8000190c	936e7313	andi	x6,x28,-1738	 x28:0x80009f93  x6=0x80009912
       14555000	      1454	80001910	00936fb3	or	x31,x6,x9	  x6:0x80009912  x9:0x00000001 x31=0x80009913
       14565000	      1455	80001914	00000013	addi	x0,x0,0	  x0:0x00000000
       14575000	      1456	80001918	01eb8603	lb	x12,30(x23)	 x23:0x80008643 x12=0x00000043 PA:0x80008661
       14585000	      1457	8000191c	011c08b3	add	x17,x24,x17	 x24:0x80009fc4 x17:0x8000804a x17=0x0001200e
       14595000	      1458	80001920	fdcbc583	lbu	x11,-36(x23)	 x23:0x80008643 x11=0x00000043 PA:0x8000861f
       14605000	      1459	80001924	015b9303	lh	x6,21(x23)	 x23:0x80008643  x6=0xffffdb5f PA:0x80008658
       14615000	      1460	80001928	02cb8c83	lb	x25,44(x23)	 x23:0x80008643 x25=0xffffffa7 PA:0x8000866f
       14625000	      1461	8000192c	fccb8683	lb	x13,-52(x23)	 x23:0x80008643 x13=0xffffffa9 PA:0x8000860f
       14635000	      1462	80001930	ff0b8f03	lb	x30,-16(x23)	 x23:0x80008643 x30=0xffffffa8 PA:0x80008633
       14645000	      1463	80001934	fd1baa83	lw	x21,-47(x23)	 x23:0x80008643 x21=0xc195c93c PA:0x80008614
       14655000	      1464	80001938	fedb9783	lh	x15,-19(x23)	 x23:0x80008643 x15=0xfffffbab PA:0x80008630
       14665000	      1465	8000193c	01fb9183	lh	x3,31(x23)	 x23:0x80008643  x3=0xffffd02c PA:0x80008662
       14675000	      1466	80001940	ff8bc983	lbu	x19,-8(x23)	 x23:0x80008643 x19=0x00000011 PA:0x8000863b
       14685000	      1467	00000000	00000013	addi	x0,x0,0	  x0:0x00000000
       14695000	      1468	80001944	61b98d13	addi	x26,x19,1563	 x19:0x00000011 x26=0x0000062c
       14705000	      1469	80001948	001c9133	sll	x2,x25,x1	 x25:0xffffffa7  x1:0x80009f74  x2=0xfa700000
       14715000	      1470	8000194c	fcebc883	lbu	x17,-50(x23)	 x23:0x80008643 x17=0x00000098 PA:0x80008611
       14725000	      1471	80001950	40acd3b3	sra	x7,x25,x10	 x25:0xffffffa7 x10:0x80000000  x7=0xffffffa7
       14735000	      1472	80001954	009c5e33	srl	x28,x24,x9	 x24:0x80009fc4  x9:0x00000001 x28=0x40004fe2
       14745000	      1473	80001958	013b9e03	lh	x28,19(x23)	 x23:0x80008643 x28=0x0000748f PA:0x80008656
       14755000	      1474	8000195c	013b8723	sb	x19,14(x23)	 x23:0x80008643 x19:0x00000011 PA:0x80008651
       14765000	      1475	80001960	00007117	auipc	x2,0x7	  x2=0x8000895c
       14775000	      1476	80001964	50a10113	addi	x2,x2,1290	  x2:0x8000895c  x2=0x80008e66
       14785000	      1477	80001968	ff110b83	lb	x23,-15(x2)	  x2:0x80008e66 x23=0xffffff87 PA:0x80008e57
       14795000	      1478	00000000	00000013	addi	x0,x0,0	  x0:0x00000000
       14805000	      1479	8000196c	ff714083	lbu	x1,-9(x2)	  x2:0x80008e66  x1=0x000000aa PA:0x80008e5d
       14815000	      1480	80001970	0067e5b3	or	x11,x15,x6	 x15:0xfffffbab  x6:0xffffdb5f x11=0xfffffbff
       14825000	      1481	80001974	40015613	srai	x12,x2,0x0	  x2:0x80008e66 x12=0x80008e66
       14835000	      1482	80001978	2ba61b97	auipc	x23,0x2ba61	 x23=0xaba62974
       14845000	      1483	8000197c	01f89893	slli	x17,x17,0x1f	 x17:0x00000098 x17=0x00000000
       14855000	      1484	80001980	00000013	addi	x0,x0,0	  x0:0x00000000
       14865000	      1485	80001984	ff212b23	sw	x18,-10(x2)	  x2:0x80008e66 x18:0x80009f74 PA:0x80008e5c
       14875000	      1486	80001988	00d102a3	sb	x13,5(x2)	  x2:0x80008e66 x13:0xffffffa9 PA:0x80008e6b
       14885000	      1487	8000198c	00711123	sh	x7,2(x2)	  x2:0x80008e66  x7:0xffffffa7 PA:0x80008e68
       14895000	      1488	80001990	0138dc93	srli	x25,x17,0x13	 x17:0x00000000 x25=0x00000000
       14905000	      1489	80001994	01da01b3	add	x3,x20,x29	 x20:0x00000000 x29:0x00000072  x3=0x00000072
       14915000	      1490	80001998	410a5693	srai	x13,x20,0x10	 x20:0x00000000 x13=0x00000000
       14925000	      1491	8000199c	00510d03	lb	x26,5(x2)	  x2:0x80008e66 x26=0xffffffa9 PA:0x80008e6b
       14935000	      1492	800019a0	008f5813	srli	x16,x30,0x8	 x30:0xffffffa8 x16=0x00ffffff
       14945000	      1493	800019a4	ff214c83	lbu	x25,-14(x2)	  x2:0x80008e66 x25=0x000000d5 PA:0x80008e58
       14955000	      1494	800019a8	008f01b3	add	x3,x30,x8	 x30:0xffffffa8  x8:0x00000000  x3=0xffffffa8
       14965000	      1495	800019ac	8989be13	sltiu	x28,x19,-1896	 x19:0x00000011 x28=0x00000001
       14975000	      1496	800019b0	ffa12003	lw	x0,-6(x2)	  x2:0x80008e66 PA:0x80008e60
       14985000	      1497	800019b4	00f10d83	lb	x27,15(x2)	  x2:0x80008e66 x27=0x00000065 PA:0x80008e75
       14995000	      1498	800019b8	00b104a3	sb	x11,9(x2)	  x2:0x80008e66 x11:0xfffffbff PA:0x80008e6f
       15005000	      1499	800019bc	00e11403	lh	x8,14(x2)	  x2:0x80008e66  x8=0x00006573 PA:0x80008e74
       15015000	      1500	800019c0	c054f4b7	lui	x9,0xc054f	  x9=0xc054f000
       15025000	      1501	800019c4	ff710e23	sb	x23,-4(x2)	  x2:0x80008e66 x23:0xaba62974 PA:0x80008e62
       15035000	      1502	800019c8	ff710883	lb	x17,-9(x2)	  x2:0x80008e66 x17=0xffffff9f PA:0x80008e5d
       15045000	      1503	800019cc	00f14483	lbu	x9,15(x2)	  x2:0x80008e66  x9=0x00000065 PA:0x80008e75
       15055000	      1504	800019d0	846cbd93	sltiu	x27,x25,-1978	 x25:0x000000d5 x27=0x00000001
       15065000	      1505	800019d4	ff310083	lb	x1,-13(x2)	  x2:0x80008e66  x1=0x0000007e PA:0x80008e59
       15075000	      1506	800019d8	00b14b83	lbu	x23,11(x2)	  x2:0x80008e66 x23=0x0000006c PA:0x80008e71
       15085000	      1507	00000000	00000013	addi	x0,x0,0	  x0:0x00000000
       15095000	      1508	800019dc	ff714e83	lbu	x29,-9(x2)	  x2:0x80008e66 x29=0x0000009f PA:0x80008e5d
       15105000	      1509	800019e0	01b61b33	sll	x22,x12,x27	 x12:0x80008e66 x27:0x00000001 x22=0x00011ccc
       15115000	      1510	800019e4	1dafba93	sltiu	x21,x31,474	 x31:0x80009913 x21=0x00000000
       15125000	      1511	800019e8	bbdc0793	addi	x15,x24,-1091	 x24:0x80009fc4 x15=0x80009b81
       15135000	      1512	800019ec	62c6e293	ori	x5,x13,1580	 x13:0x00000000  x5=0x0000062c
       15145000	      1513	800019f0	ff510783	lb	x15,-11(x2)	  x2:0x80008e66 x15=0xffffff8a PA:0x80008e5b
       15155000	      1514	800019f4	8a0b7b97	auipc	x23,0x8a0b7	 x23=0x0a0b89f0
       15165000	      1515	800019f8	00512723	sw	x5,14(x2)	  x2:0x80008e66  x5:0x0000062c PA:0x80008e74
       15175000	      1516	800019fc	ff212883	lw	x17,-14(x2)	  x2:0x80008e66 x17=0x8ab97ed5 PA:0x80008e58
       15185000	      1517	80001a00	00114803	lbu	x16,1(x2)	  x2:0x80008e66 x16=0x00000097 PA:0x80008e67
       15195000	      1518	80001a04	d40438b7	lui	x17,0xd4043	 x17=0xd4043000
       15205000	      1519	80001a08	010b0ab3	add	x21,x22,x16	 x22:0x00011ccc x16:0x00000097 x21=0x00011d63
       15215000	      1520	80001a0c	1d4864b7	lui	x9,0x1d486	  x9=0x1d486000
       15225000	      1521	80001a10	0028c433	xor	x8,x17,x2	 x17:0xd4043000  x2:0x80008e66  x8=0x5404be66
       15235000	      1522	80001a14	00e15483	lhu	x9,14(x2)	  x2:0x80008e66  x9=0x0000062c PA:0x80008e74
       15245000	      1523	80001a18	ff510883	lb	x17,-11(x2)	  x2:0x80008e66 x17=0xffffff8a PA:0x80008e5b
       15255000	      1524	80001a1c	01d72b33	slt	x22,x14,x29	 x14:0x00000000 x29:0x0000009f x22=0x00000001
       15265000	      1525	80001a20	ff714703	lbu	x14,-9(x2)	  x2:0x80008e66 x14=0x0000009f PA:0x80008e5d
       15275000	      1526	80001a24	01fcd593	srli	x11,x25,0x1f	 x25:0x000000d5 x11=0x00000000
       15285000	      1527	80001a28	d1ebb993	sltiu	x19,x23,-738	 x23:0x0a0b89f0 x19=0x00000001
       15295000	      1528	80001a2c	ff111f23	sh	x17,-2(x2)	  x2:0x80008e66 x17:0xffffff8a PA:0x80008e64
       15305000	      1529	80001a30	ad753193	sltiu	x3,x10,-1321	 x10:0x80000000  x3=0x00000001
       15315000	      1530	80001a34	ffe10e03	lb	x28,-2(x2)	  x2:0x80008e66 x28=0xffffff8a PA:0x80008e64
       15325000	      1531	80001a38	00814a03	lbu	x20,8(x2)	  x2:0x80008e66 x20=0x0000005d PA:0x80008e6e
       15335000	      1532	80001a3c	00010403	lb	x8,0(x2)	  x2:0x80008e66  x8=0x00000032 PA:0x80008e66
       15345000	      1533	80001a40	00710083	lb	x1,7(x2)	  x2:0x80008e66  x1=0x00000017 PA:0x80008e6d
       15355000	      1534	80001a44	006fdd33	srl	x26,x31,x6	 x31:0x80009913  x6:0xffffdb5f x26=0x00000001
       15365000	      1535	80001a48	ff710983	lb	x19,-9(x2)	  x2:0x80008e66 x19=0xffffff9f PA:0x80008e5d
       15375000	      1536	80001a4c	00007d17	auipc	x26,0x7	 x26=0x80008a48
       15385000	      1537	80001a50	ab0d0d13	addi	x26,x26,-1360	 x26:0x80008a48 x26=0x800084f8
       15395000	      1538	80001a54	006d5983	lhu	x19,6(x26)	 x26:0x800084f8 x19=0x00000605 PA:0x800084fe
       15405000	      1539	80001a58	009d1523	sh	x9,10(x26)	 x26:0x800084f8  x9:0x0000062c PA:0x80008502
       15415000	      1540	80001a5c	40cad833	sra	x16,x21,x12	 x21:0x00011d63 x12:0x80008e66 x16=0x00000475
       15425000	      1541	80001a60	ff7d4583	lbu	x11,-9(x26)	 x26:0x800084f8 x11=0x000000f6 PA:0x800084ef
       15435000	      1542	80001a64	00eaa733	slt	x14,x21,x14	 x21:0x00011d63 x14:0x0000009f x14=0x00000000
       15445000	      1543	80001a68	004d0023	sb	x4,0(x26)	 x26:0x800084f8  x4:0xffffffe1 PA:0x800084f8
       15455000	      1544	80001a6c	ffdd4203	lbu	x4,-3(x26)	 x26:0x800084f8  x4=0x00000046 PA:0x800084f5
       15465000	      1545	80001a70	ff1d0da3	sb	x17,-5(x26)	 x26:0x800084f8 x17:0xffffff8a PA:0x800084f3
       15475000	      1546	80001a74	00ad4a03	lbu	x20,10(x26)	 x26:0x800084f8 x20=0x0000002c PA:0x80008502
       15485000	      1547	80001a78	ff0d0d23	sb	x16,-6(x26)	 x26:0x800084f8 x16:0x00000475 PA:0x800084f2
       15495000	      1548	80001a7c	00778e33	add	x28,x15,x7	 x15:0xffffff8a  x7:0xffffffa7 x28=0xffffff31
       15505000	      1549	80001a80	143e8613	addi	x12,x29,323	 x29:0x0000009f x12=0x000001e2
       15515000	      1550	80001a84	285f9137	lui	x2,0x285f9	  x2=0x285f9000
       15525000	      1551	80001a88	008d4983	lbu	x19,8(x26)	 x26:0x800084f8 x19=0x000000cd PA:0x80008500
       15535000	      1552	80001a8c	00daf0b3	and	x1,x21,x13	 x21:0x00011d63 x13:0x00000000  x1=0x00000000
       15545000	      1553	80001a90	fe0d2823	sw	x0,-16(x26)	 x26:0x800084f8  x0:0x00000000 PA:0x800084e8
       15555000	      1554	80001a94	0d300793	addi	x15,x0,211	  x0:0x00000000 x15=0x000000d3
       15565000	      1555	80001a98	0975e613	ori	x12,x11,151	 x11:0x000000f6 x12=0x000000f7
       15575000	      1556	80001a9c	018b7133	and	x2,x22,x24	 x22:0x00000001 x24:0x80009fc4  x2=0x00000000
       15585000	      1557	80001aa0	fffd0a83	lb	x21,-1(x26)	 x26:0x800084f8 x21=0x00000024 PA:0x800084f7
       15595000	      1558	80001aa4	403dd2b3	sra	x5,x27,x3	 x27:0x00000001  x3:0x00000001  x5=0x00000000
       15605000	      1559	80001aa8	010d2083	lw	x1,16(x26)	 x26:0x800084f8  x1=0x50178fae PA:0x80008508
       15615000	      1560	80001aac	61997f13	andi	x30,x18,1561	 x18:0x80009f74 x30=0x00000610
       15625000	      1561	80001ab0	ff5d0c83	lb	x25,-11(x26)	 x26:0x800084f8 x25=0x0000007a PA:0x800084ed
       15635000	      1562	80001ab4	fe3d0fa3	sb	x3,-1(x26)	 x26:0x800084f8  x3:0x00000001 PA:0x800084f7
       15645000	      1563	80001ab8	ff7da893	slti	x17,x27,-9	 x27:0x00000001 x17=0x00000000
       15655000	      1564	80001abc	004d4203	lbu	x4,4(x26)	 x26:0x800084f8  x4=0x0000001b PA:0x800084fc
       15665000	      1565	80001ac0	53108213	addi	x4,x1,1329	  x1:0x50178fae  x4=0x501794df
       15675000	      1566	80001ac4	4d9a2a93	slti	x21,x20,1241	 x20:0x0000002c x21=0x00000001
       15685000	      1567	80001ac8	ffcd2103	lw	x2,-4(x26)	 x26:0x800084f8  x2=0x01104630 PA:0x800084f4
       15695000	      1568	80001acc	01694233	xor	x4,x18,x22	 x18:0x80009f74 x22:0x00000001  x4=0x80009f75
       15705000	      1569	80001ad0	fe4d1f23	sh	x4,-2(x26)	 x26:0x800084f8  x4:0x80009f75 PA:0x800084f6
       15715000	      1570	80001ad4	000592b3	sll	x5,x11,x0	 x11:0x000000f6  x0:0x00000000  x5=0x000000f6
       15725000	      1571	80001ad8	00ed5583	lhu	x11,14(x26)	 x26:0x800084f8 x11=0x00003bd8 PA:0x80008506
       15735000	      1572	80001adc	40374f93	xori	x31,x14,1027	 x14:0x00000000 x31=0x00000403
       15745000	      1573	80001ae0	014d06a3	sb	x20,13(x26)	 x26:0x800084f8 x20:0x0000002c PA:0x80008505
       15755000	      1574	80001ae4	00ed0523	sb	x14,10(x26)	 x26:0x800084f8 x14:0x00000000 PA:0x80008502
       15765000	      1575	80001ae8	00007497	auipc	x9,0x7	  x9=0x80008ae4
       15775000	      1576	80001aec	90748493	addi	x9,x9,-1785	  x9:0x80008ae4  x9=0x800083eb
       15785000	      1577	80001af0	0f14a083	lw	x1,241(x9)	  x9:0x800083eb  x1=0x3e2fffdf PA:0x800084dc
       15795000	      1578	80001af4	f6c4ce03	lbu	x28,-148(x9)	  x9:0x800083eb x28=0x0000000c PA:0x80008357
       15805000	      1579	80001af8	01e4c683	lbu	x13,30(x9)	  x9:0x800083eb x13=0x00000002 PA:0x80008409
       15815000	      1580	80001afc	ba450f13	addi	x30,x10,-1116	 x10:0x80000000 x30=0x7ffffba4
       15825000	      1581	80001b00	00e83833	sltu	x16,x16,x14	 x16:0x00000475 x14:0x00000000 x16=0x00000000
       15835000	      1582	80001b04	01be1693	slli	x13,x28,0x1b	 x28:0x0000000c x13=0x60000000
       15845000	      1583	80001b08	0d6493a3	sh	x22,199(x9)	  x9:0x800083eb x22:0x00000001 PA:0x800084b2
       15855000	      1584	80001b0c	ef6b3297	auipc	x5,0xef6b3	  x5=0x6f6b4b08
       15865000	      1585	80001b10	0158afb3	slt	x31,x17,x21	 x17:0x00000000 x21:0x00000001 x31=0x00000001
       15875000	      1586	80001b14	264f0893	addi	x17,x30,612	 x30:0x7ffffba4 x17=0x7ffffe08
       15885000	      1587	80001b18	007075b3	and	x11,x0,x7	  x0:0x00000000  x7:0xffffffa7 x11=0x00000000
       15895000	      1588	80001b1c	0a348723	sb	x3,174(x9)	  x9:0x800083eb  x3:0x00000001 PA:0x80008499
       15905000	      1589	80001b20	f534ca83	lbu	x21,-173(x9)	  x9:0x800083eb x21=0x0000005d PA:0x8000833e
       15915000	      1590	80001b24	fa248e23	sb	x2,-68(x9)	  x9:0x800083eb  x2:0x01104630 PA:0x800083a7
       15925000	      1591	80001b28	f297e313	ori	x6,x15,-215	 x15:0x000000d3  x6=0xfffffffb
       15935000	      1592	80001b2c	6dd8f737	lui	x14,0x6dd8f	 x14=0x6dd8f000
       15945000	      1593	80001b30	01e53133	sltu	x2,x10,x30	 x10:0x80000000 x30:0x7ffffba4  x2=0x00000000
       15955000	      1594	80001b34	0db49703	lh	x14,219(x9)	  x9:0x800083eb x14=0xffff83a5 PA:0x800084c6
       15965000	      1595	80001b38	01591233	sll	x4,x18,x21	 x18:0x80009f74 x21:0x0000005d  x4=0x80000000
       15975000	      1596	80001b3c	fe248c83	lb	x25,-30(x9)	  x9:0x800083eb x25=0xffffffbc PA:0x800083cd
       15985000	      1597	80001b40	815be697	auipc	x13,0x815be	 x13=0x015bfb3c
       15995000	      1598	80001b44	017ca9b3	slt	x19,x25,x23	 x25:0xffffffbc x23:0x0a0b89f0 x19=0x00000001
       16005000	      1599	80001b48	00000013	addi	x0,x0,0	  x0:0x00000000
       16015000	      1600	80001b4c	01a4cf83	lbu	x31,26(x9)	  x9:0x800083eb x31=0x00000041 PA:0x80008405
       16025000	      1601	80001b50	0bd48d83	lb	x27,189(x9)	  x9:0x800083eb x27=0xffffffb8 PA:0x800084a8
       16035000	      1602	80001b54	016b1e93	slli	x29,x22,0x16	 x22:0x00000001 x29=0x00400000
       16045000	      1603	80001b58	9d16e737	lui	x14,0x9d16e	 x14=0x9d16e000
       16055000	      1604	80001b5c	06aa8413	addi	x8,x21,106	 x21:0x0000005d  x8=0x000000c7
       16065000	      1605	80001b60	2835f093	andi	x1,x11,643	 x11:0x00000000  x1=0x00000000
       16075000	      1606	80001b64	40595d93	srai	x27,x18,0x5	 x18:0x80009f74 x27=0xfc0004fb
       16085000	      1607	80001b68	7a7fea17	auipc	x20,0x7a7fe	 x20=0xfa7ffb64
       16095000	      1608	80001b6c	0191de13	srli	x28,x3,0x19	  x3:0x00000001 x28=0x00000000
       16105000	      1609	80001b70	67a1c0b7	lui	x1,0x67a1c	  x1=0x67a1c000
       16115000	      1610	80001b74	4032dd93	srai	x27,x5,0x3	  x5:0x6f6b4b08 x27=0x0ded6961
       16125000	      1611	80001b78	51d54593	xori	x11,x10,1309	 x10:0x80000000 x11=0x8000051d
       16135000	      1612	80001b7c	f6b97317	auipc	x6,0xf6b97	  x6=0x76b98b78
       16145000	      1613	80001b80	09f48283	lb	x5,159(x9)	  x9:0x800083eb  x5=0x00000051 PA:0x8000848a
       16155000	      1614	80001b84	a0e20293	addi	x5,x4,-1522	  x4:0x80000000  x5=0x7ffffa0e
       16165000	      1615	80001b88	f1148323	sb	x17,-250(x9)	  x9:0x800083eb x17:0x7ffffe08 PA:0x800082f1
       16175000	      1616	80001b8c	d8517813	andi	x16,x2,-635	  x2:0x00000000 x16=0x00000000
       16185000	      1617	80001b90	fa048723	sb	x0,-82(x9)	  x9:0x800083eb  x0:0x00000000 PA:0x80008399
       16195000	      1618	80001b94	410d5cb3	sra	x25,x26,x16	 x26:0x800084f8 x16:0x00000000 x25=0x800084f8
       16205000	      1619	80001b98	0f44c683	lbu	x13,244(x9)	  x9:0x800083eb x13=0x0000003e PA:0x800084df
       16215000	      1620	80001b9c	faa48603	lb	x12,-86(x9)	  x9:0x800083eb x12=0xffffffab PA:0x80008395
       16225000	      1621	80001ba0	0bb4d883	lhu	x17,187(x9)	  x9:0x800083eb x17=0x00000620 PA:0x800084a6
       16235000	      1622	80001ba4	f4848123	sb	x8,-190(x9)	  x9:0x800083eb  x8:0x000000c7 PA:0x8000832d
       16245000	      1623	80001ba8	00007097	auipc	x1,0x7	  x1=0x80008ba4
       16255000	      1624	80001bac	bb608093	addi	x1,x1,-1098	  x1:0x80008ba4  x1=0x8000875a
       16265000	      1625	80001bb0	01855613	srli	x12,x10,0x18	 x10:0x80000000 x12=0x00000080
       16275000	      1626	80001bb4	d450c203	lbu	x4,-699(x1)	  x1:0x8000875a  x4=0x000000ac PA:0x8000849f
       16285000	      1627	00000000	00000013	addi	x0,x0,0	  x0:0x00000000
       16295000	      1628	80001bb8	9c4e6613	ori	x12,x28,-1596	 x28:0x00000000 x12=0xfffff9c4
       16305000	      1629	80001bbc	e8d7e397	auipc	x7,0xe8d7e	  x7=0x68d7fbb8
       16315000	      1630	80001bc0	05508f03	lb	x30,85(x1)	  x1:0x8000875a x30=0x00000074 PA:0x800087af
       16325000	      1631	80001bc4	01c93733	sltu	x14,x18,x28	 x18:0x80009f74 x28:0x00000000 x14=0x00000000
       16335000	      1632	80001bc8	fea09803	lh	x16,-22(x1)	  x1:0x8000875a x16=0x00002423 PA:0x80008744
       16345000	      1633	80001bcc	c9e0c303	lbu	x6,-866(x1)	  x1:0x8000875a  x6=0x00000000 PA:0x800083f8
       16355000	      1634	80001bd0	d6f08703	lb	x14,-657(x1)	  x1:0x8000875a x14=0xffffffd2 PA:0x800084c9
       16365000	      1635	80001bd4	d2c08183	lb	x3,-724(x1)	  x1:0x8000875a  x3=0x00000042 PA:0x80008486
       16375000	      1636	80001bd8	e4108d03	lb	x26,-447(x1)	  x1:0x8000875a x26=0x0000005c PA:0x8000859b
       16385000	      1637	80001bdc	01ef66b3	or	x13,x30,x30	 x30:0x00000074 x30:0x00000074 x13=0x00000074
       16395000	      1638	80001be0	b9108c23	sb	x17,-1128(x1)	  x1:0x8000875a x17:0x00000620 PA:0x800082f2
       16405000	      1639	80001be4	01c45433	srl	x8,x8,x28	  x8:0x000000c7 x28:0x00000000  x8=0x000000c7
       16415000	      1640	80001be8	c3f0cd83	lbu	x27,-961(x1)	  x1:0x8000875a x27=0x00000000 PA:0x80008399
       16425000	      1641	80001bec	00155333	srl	x6,x10,x1	 x10:0x80000000  x1:0x8000875a  x6=0x00000020
       16435000	      1642	80001bf0	d0c0d983	lhu	x19,-756(x1)	  x1:0x8000875a x19=0x00003d69 PA:0x80008466
       16445000	      1643	80001bf4	97b08703	lb	x14,-1669(x1)	  x1:0x8000875a x14=0xffffffff PA:0x800080d5
       16455000	      1644	80001bf8	9210c383	lbu	x7,-1759(x1)	  x1:0x8000875a  x7=0x00000002 PA:0x8000807b
       16465000	      1645	80001bfc	949088a3	sb	x9,-1711(x1)	  x1:0x8000875a  x9:0x800083eb PA:0x800080ab
       16475000	      1646	80001c00	02508703	lb	x14,37(x1)	  x1:0x8000875a x14=0xffffff92 PA:0x8000877f
       16485000	      1647	80001c04	c6909023	sh	x9,-928(x1)	  x1:0x8000875a  x9:0x800083eb PA:0x800083ba
       16495000	      1648	80001c08	8ee0c003	lbu	x0,-1810(x1)	  x1:0x8000875a PA:0x80008048
       16505000	      1649	80001c0c	9220cd83	lbu	x27,-1758(x1)	  x1:0x8000875a x27=0x00000080 PA:0x8000807c
       16515000	      1650	80001c10	f2b0c783	lbu	x15,-213(x1)	  x1:0x8000875a x15=0x00000099 PA:0x80008685
       16525000	      1651	80001c14	d420d003	lhu	x0,-702(x1)	  x1:0x8000875a PA:0x8000849c
       16535000	      1652	80001c18	b4a0d183	lhu	x3,-1206(x1)	  x1:0x8000875a  x3=0x000015f1 PA:0x800082a4
       16545000	      1653	80001c1c	a890ce03	lbu	x28,-1399(x1)	  x1:0x8000875a x28=0x0000001a PA:0x800081e3
       16555000	      1654	80001c20	019cbeb3	sltu	x29,x25,x25	 x25:0x800084f8 x25:0x800084f8 x29=0x00000000
       16565000	      1655	80001c24	00921f13	slli	x30,x4,0x9	  x4:0x000000ac x30=0x00015800
       16575000	      1656	80001c28	0170e733	or	x14,x1,x23	  x1:0x8000875a x23:0x0a0b89f0 x14=0x8a0b8ffa
       16585000	      1657	80001c2c	41ea0333	sub	x6,x20,x30	 x20:0xfa7ffb64 x30:0x00015800  x6=0xfa7ea364
       16595000	      1658	80001c30	97b0ca03	lbu	x20,-1669(x1)	  x1:0x8000875a x20=0x000000ff PA:0x800080d5
       16605000	      1659	80001c34	0b00c603	lbu	x12,176(x1)	  x1:0x8000875a x12=0x000000d4 PA:0x8000880a
       16615000	      1660	80001c38	c9908ba3	sb	x25,-873(x1)	  x1:0x8000875a x25:0x800084f8 PA:0x800083f1
       16625000	      1661	80001c3c	00007e97	auipc	x29,0x7	 x29=0x80008c38
       16635000	      1662	80001c40	9f6e8e93	addi	x29,x29,-1546	 x29:0x80008c38 x29=0x8000862e
       16645000	      1663	80001c44	41058db3	sub	x27,x11,x16	 x11:0x8000051d x16:0x00002423 x27=0x7fffe0fa
       16655000	      1664	80001c48	ca3a7a93	andi	x21,x20,-861	 x20:0x000000ff x21=0x000000a3
       16665000	      1665	80001c4c	006785b3	add	x11,x15,x6	 x15:0x00000099  x6:0xfa7ea364 x11=0xfa7ea3fd
       16675000	      1666	80001c50	cc523a93	sltiu	x21,x4,-827	  x4:0x000000ac x21=0x00000001
       16685000	      1667	80001c54	013edf33	srl	x30,x29,x19	 x29:0x8000862e x19:0x00003d69 x30=0x00400043
       16695000	      1668	80001c58	03ee9c23	sh	x30,56(x29)	 x29:0x8000862e x30:0x00400043 PA:0x80008666
       16705000	      1669	80001c5c	00eb9193	slli	x3,x23,0xe	 x23:0x0a0b89f0  x3=0xe27c0000
       16715000	      1670	80001c60	02eeda03	lhu	x20,46(x29)	 x29:0x8000862e x20=0x0000ac80 PA:0x8000865c
       16725000	      1671	80001c64	ff9ec303	lbu	x6,-7(x29)	 x29:0x8000862e  x6=0x000000db PA:0x80008627
       16735000	      1672	80001c68	004e8483	lb	x9,4(x29)	 x29:0x8000862e  x9=0x00000034 PA:0x80008632
       16745000	      1673	80001c6c	ff5e8ea3	sb	x21,-3(x29)	 x29:0x8000862e x21:0x00000001 PA:0x8000862b
       16755000	      1674	80001c70	027e8b23	sb	x7,54(x29)	 x29:0x8000862e  x7:0x00000002 PA:0x80008664
       16765000	      1675	80001c74	418d0033	sub	x0,x26,x24	 x26:0x0000005c x24:0x80009fc4
       16775000	      1676	80001c78	ff5e8183	lb	x3,-11(x29)	 x29:0x8000862e  x3=0xffffffc8 PA:0x80008623
       16785000	      1677	80001c7c	036e8183	lb	x3,54(x29)	 x29:0x8000862e  x3=0x00000002 PA:0x80008664
       16795000	      1678	80001c80	01f127b3	slt	x15,x2,x31	  x2:0x00000000 x31:0x00000041 x15=0x00000001
       16805000	      1679	80001c84	fceeda83	lhu	x21,-50(x29)	 x29:0x8000862e x21=0x0000876e PA:0x800085fc
       16815000	      1680	80001c88	01982633	slt	x12,x16,x25	 x16:0x00002423 x25:0x800084f8 x12=0x00000000
       16825000	      1681	80001c8c	409f80b3	sub	x1,x31,x9	 x31:0x00000041  x9:0x00000034  x1=0x0000000d
       16835000	      1682	80001c90	139ce597	auipc	x11,0x139ce	 x11=0x939cfc8c
       16845000	      1683	80001c94	ff0ec403	lbu	x8,-16(x29)	 x29:0x8000862e  x8=0x000000bb PA:0x8000861e
       16855000	      1684	80001c98	7d23c813	xori	x16,x7,2002	  x7:0x00000002 x16=0x000007d0
       16865000	      1685	80001c9c	410a5013	srai	x0,x20,0x10	 x20:0x0000ac80
       16875000	      1686	80001ca0	418780b3	sub	x1,x15,x24	 x15:0x00000001 x24:0x80009fc4  x1=0x7fff603d
       16885000	      1687	80001ca4	00a72233	slt	x4,x14,x10	 x14:0x8a0b8ffa x10:0x80000000  x4=0x00000000
       16895000	      1688	80001ca8	72fef593	andi	x11,x29,1839	 x29:0x8000862e x11=0x0000062e
       16905000	      1689	80001cac	db4533b7	lui	x7,0xdb453	  x7=0xdb453000
       16915000	      1690	80001cb0	3eb1dd97	auipc	x27,0x3eb1d	 x27=0xbeb1ecac
       16925000	      1691	80001cb4	51026813	ori	x16,x4,1296	  x4:0x00000000 x16=0x00000510
       16935000	      1692	80001cb8	00b0abb3	slt	x23,x1,x11	  x1:0x7fff603d x11:0x0000062e x23=0x00000000
       16945000	      1693	80001cbc	feee9783	lh	x15,-18(x29)	 x29:0x8000862e x15=0x000004ee PA:0x8000861c
       16955000	      1694	80001cc0	00007997	auipc	x19,0x7	 x19=0x80008cbc
       16965000	      1695	80001cc4	98698993	addi	x19,x19,-1658	 x19:0x80008cbc x19=0x80008642
       16975000	      1696	80001cc8	40b5ddb3	sra	x27,x11,x11	 x11:0x0000062e x11:0x0000062e x27=0x00000000
       16985000	      1697	80001ccc	00844eb3	xor	x29,x8,x8	  x8:0x000000bb  x8:0x000000bb x29=0x00000000
       16995000	      1698	80001cd0	0069dd83	lhu	x27,6(x19)	 x19:0x80008642 x27=0x0000c39d PA:0x80008648
       17005000	      1699	80001cd4	01dfe333	or	x6,x31,x29	 x31:0x00000041 x29:0x00000000  x6=0x00000041
       17015000	      1700	80001cd8	f5460393	addi	x7,x12,-172	 x12:0x00000000  x7=0xffffff54
       17025000	      1701	80001cdc	71aff113	andi	x2,x31,1818	 x31:0x00000041  x2=0x00000000
       17035000	      1702	80001ce0	57ab8f13	addi	x30,x23,1402	 x23:0x00000000 x30=0x0000057a
       17045000	      1703	80001ce4	00a337b3	sltu	x15,x6,x10	  x6:0x00000041 x10:0x80000000 x15=0x00000001
       17055000	      1704	80001ce8	3336e693	ori	x13,x13,819	 x13:0x00000074 x13=0x00000377
       17065000	      1705	80001cec	fe098923	sb	x0,-14(x19)	 x19:0x80008642  x0:0x00000000 PA:0x80008634
       17075000	      1706	80001cf0	41cd5fb3	sra	x31,x26,x28	 x26:0x0000005c x28:0x0000001a x31=0x00000000
       17085000	      1707	80001cf4	d769c213	xori	x4,x19,-650	 x19:0x80008642  x4=0x7fff7b34
       17095000	      1708	80001cf8	fd198483	lb	x9,-47(x19)	 x19:0x80008642  x9=0xffffffda PA:0x80008613
       17105000	      1709	80001cfc	018b1433	sll	x8,x22,x24	 x22:0x00000001 x24:0x80009fc4  x8=0x00000010
       17115000	      1710	80001d00	fd498303	lb	x6,-44(x19)	 x19:0x80008642  x6=0xffffff95 PA:0x80008616
       17125000	      1711	80001d04	01998203	lb	x4,25(x19)	 x19:0x80008642  x4=0xffffffe1 PA:0x8000865b
       17135000	      1712	80001d08	0166dc93	srli	x25,x13,0x16	 x13:0x00000377 x25=0x00000000
       17145000	      1713	80001d0c	00050133	add	x2,x10,x0	 x10:0x80000000  x0:0x00000000  x2=0x80000000
       17155000	      1714	80001d10	01c7aa33	slt	x20,x15,x28	 x15:0x00000001 x28:0x0000001a x20=0x00000001
       17165000	      1715	80001d14	005721b3	slt	x3,x14,x5	 x14:0x8a0b8ffa  x5:0x7ffffa0e  x3=0x00000001
       17175000	      1716	80001d18	03f98f83	lb	x31,63(x19)	 x19:0x80008642 x31=0xffffff99 PA:0x80008681
       17185000	      1717	80001d1c	01a9c683	lbu	x13,26(x19)	 x19:0x80008642 x13=0x00000080 PA:0x8000865c
       17195000	      1718	80001d20	ffb99a23	sh	x27,-12(x19)	 x19:0x80008642 x27:0x0000c39d PA:0x80008636
       17205000	      1719	80001d24	01ab47b3	xor	x15,x22,x26	 x22:0x00000001 x26:0x0000005c x15=0x0000005d
       17215000	      1720	80001d28	ffb9c103	lbu	x2,-5(x19)	 x19:0x80008642  x2=0x0000007b PA:0x8000863d
       17225000	      1721	80001d2c	5cf9fb13	andi	x22,x19,1487	 x19:0x80008642 x22=0x00000442
       17235000	      1722	80001d30	40535f93	srai	x31,x6,0x5	  x6:0xffffff95 x31=0xfffffffc
       17245000	      1723	80001d34	fc69a723	sw	x6,-50(x19)	 x19:0x80008642  x6:0xffffff95 PA:0x80008610
       17255000	      1724	80001d38	414dd033	sra	x0,x27,x20	 x27:0x0000c39d x20:0x00000001
       17265000	      1725	80001d3c	e01368b7	lui	x17,0xe0136	 x17=0xe0136000
       17275000	      1726	80001d40	017631b3	sltu	x3,x12,x23	 x12:0x00000000 x23:0x00000000  x3=0x00000000
       17285000	      1727	80001d44	fff988a3	sb	x31,-15(x19)	 x19:0x80008642 x31:0xfffffffc PA:0x80008633
       17295000	      1728	80001d48	da62ea13	ori	x20,x5,-602	  x5:0x7ffffa0e x20=0xffffffae
       17305000	      1729	80001d4c	00185bb3	srl	x23,x16,x1	 x16:0x00000510  x1:0x7fff603d x23=0x00000000
       17315000	      1730	80001d50	004d2b33	slt	x22,x26,x4	 x26:0x0000005c  x4:0xffffffe1 x22=0x00000000
       17325000	      1731	80001d54	0039cd03	lbu	x26,3(x19)	 x19:0x80008642 x26=0x000000f2 PA:0x80008645
       17335000	      1732	80001d58	b0662393	slti	x7,x12,-1274	 x12:0x00000000  x7=0x00000000
       17345000	      1733	80001d5c	c174fb13	andi	x22,x9,-1001	  x9:0xffffffda x22=0xfffffc12
       17355000	      1734	80001d60	fdf980a3	sb	x31,-63(x19)	 x19:0x80008642 x31:0xfffffffc PA:0x80008603
       17365000	      1735	80001d64	009e2e33	slt	x28,x28,x9	 x28:0x0000001a  x9:0xffffffda x28=0x00000000
       17375000	      1736	80001d68	ffd982a3	sb	x29,-27(x19)	 x19:0x80008642 x29:0x00000000 PA:0x80008627
       17385000	      1737	80001d6c	00006117	auipc	x2,0x6	  x2=0x80007d68
       17395000	      1738	80001d70	6da10113	addi	x2,x2,1754	  x2:0x80007d68  x2=0x80008442
       17405000	      1739	80001d74	40b4d2b3	sra	x5,x9,x11	  x9:0xffffffda x11:0x0000062e  x5=0xffffffff
       17415000	      1740	80001d78	fc614d03	lbu	x26,-58(x2)	  x2:0x80008442 x26=0x000000a6 PA:0x80008408
       17425000	      1741	80001d7c	62aecb93	xori	x23,x29,1578	 x29:0x00000000 x23=0x0000062a
       17435000	      1742	80001d80	fced6293	ori	x5,x26,-50	 x26:0x000000a6  x5=0xffffffee
       17445000	      1743	80001d84	ff3102a3	sb	x19,-27(x2)	  x2:0x80008442 x19:0x80008642 PA:0x80008427
       17455000	      1744	80001d88	00e105a3	sb	x14,11(x2)	  x2:0x80008442 x14:0x8a0b8ffa PA:0x8000844d
       17465000	      1745	80001d8c	00d5d293	srli	x5,x11,0xd	 x11:0x0000062e  x5=0x00000000
       17475000	      1746	80001d90	03c10d83	lb	x27,60(x2)	  x2:0x80008442 x27=0xfffffffd PA:0x8000847e
       17485000	      1747	80001d94	415a5b33	sra	x22,x20,x21	 x20:0xffffffae x21:0x0000876e x22=0xffffffff
       17495000	      1748	80001d98	fd911223	sh	x25,-60(x2)	  x2:0x80008442 x25:0x00000000 PA:0x80008406
       17505000	      1749	80001d9c	016c36b3	sltu	x13,x24,x22	 x24:0x80009fc4 x22:0xffffffff x13=0x00000001
       17515000	      1750	80001da0	dd812013	slti	x0,x2,-552	  x2:0x80008442
       17525000	      1751	80001da4	01aa1413	slli	x8,x20,0x1a	 x20:0xffffffae  x8=0xb8000000
       17535000	      1752	80001da8	00450733	add	x14,x10,x4	 x10:0x80000000  x4:0xffffffe1 x14=0x7fffffe1
       17545000	      1753	80001dac	1f2dc693	xori	x13,x27,498	 x27:0xfffffffd x13=0xfffffe0f
       17555000	      1754	80001db0	ff314d83	lbu	x27,-13(x2)	  x2:0x80008442 x27=0x000000c6 PA:0x80008435
       17565000	      1755	80001db4	00000013	addi	x0,x0,0	  x0:0x00000000
       17575000	      1756	80001db8	fc3109a3	sb	x3,-45(x2)	  x2:0x80008442  x3:0x00000000 PA:0x80008415
       17585000	      1757	80001dbc	00682433	slt	x8,x16,x6	 x16:0x00000510  x6:0xffffff95  x8=0x00000000
       17595000	      1758	80001dc0	00fd74b3	and	x9,x26,x15	 x26:0x000000a6 x15:0x0000005d  x9=0x00000004
       17605000	      1759	80001dc4	0062f833	and	x16,x5,x6	  x5:0x00000000  x6:0xffffff95 x16=0x00000000
       17615000	      1760	80001dc8	0112b233	sltu	x4,x5,x17	  x5:0x00000000 x17:0xe0136000  x4=0x00000001
       17625000	      1761	80001dcc	7f9a72b7	lui	x5,0x7f9a7	  x5=0x7f9a7000
       17635000	      1762	80001dd0	fc510423	sb	x5,-56(x2)	  x2:0x80008442  x5:0x7f9a7000 PA:0x8000840a
       17645000	      1763	80001dd4	00e323b3	slt	x7,x6,x14	  x6:0xffffff95 x14:0x7fffffe1  x7=0x00000001
       17655000	      1764	80001dd8	e7613737	lui	x14,0xe7613	 x14=0xe7613000
       17665000	      1765	80001ddc	fc314f03	lbu	x30,-61(x2)	  x2:0x80008442 x30=0x00000041 PA:0x80008405
       17675000	      1766	80001de0	4f714ab7	lui	x21,0x4f714	 x21=0x4f714000
       17685000	      1767	80001de4	fc410623	sb	x4,-52(x2)	  x2:0x80008442  x4:0x00000001 PA:0x8000840e
       17695000	      1768	80001de8	01f106a3	sb	x31,13(x2)	  x2:0x80008442 x31:0xfffffffc PA:0x8000844f
       17705000	      1769	80001dec	00006e97	auipc	x29,0x6	 x29=0x80007de8
       17715000	      1770	80001df0	417e8e93	addi	x29,x29,1047	 x29:0x80007de8 x29=0x800081ff
       17725000	      1771	80001df4	ef932013	slti	x0,x6,-263	  x6:0xffffff95
       17735000	      1772	80001df8	eddea8a3	sw	x29,-303(x29)	 x29:0x800081ff x29:0x800081ff PA:0x800080d0
       17745000	      1773	80001dfc	01125233	srl	x4,x4,x17	  x4:0x00000001 x17:0xe0136000  x4=0x00000001
       17755000	      1774	80001e00	4b0ec783	lbu	x15,1200(x29)	 x29:0x800081ff x15=0x000000d8 PA:0x800086af
       17765000	      1775	80001e04	1f7e8c83	lb	x25,503(x29)	 x29:0x800081ff x25=0x00000024 PA:0x800083f6
       17775000	      1776	80001e08	49ce8283	lb	x5,1180(x29)	 x29:0x800081ff  x5=0xffffffda PA:0x8000869b
       17785000	      1777	80001e0c	328ecb03	lbu	x22,808(x29)	 x29:0x800081ff x22=0x000000ea PA:0x80008527
       17795000	      1778	80001e10	55141f37	lui	x30,0x55141	 x30=0x55141000
       17805000	      1779	80001e14	050ecd03	lbu	x26,80(x29)	 x29:0x800081ff x26=0x00000099 PA:0x8000824f
       17815000	      1780	80001e18	3cde8a23	sb	x13,980(x29)	 x29:0x800081ff x13:0xfffffe0f PA:0x800085d3
       17825000	      1781	80001e1c	3a6ecd83	lbu	x27,934(x29)	 x29:0x800081ff x27=0x00000079 PA:0x800085a5
       17835000	      1782	00000000	00000013	addi	x0,x0,0	  x0:0x00000000
       17845000	      1783	80001e20	01bb5093	srli	x1,x22,0x1b	 x22:0x000000ea  x1=0x00000000
       17855000	      1784	80001e24	3d4e8523	sb	x20,970(x29)	 x29:0x800081ff x20:0xffffffae PA:0x800085c9
       17865000	      1785	80001e28	01e9d4b3	srl	x9,x19,x30	 x19:0x80008642 x30:0x55141000  x9=0x80008642
       17875000	      1786	80001e2c	16ee8123	sb	x14,354(x29)	 x29:0x800081ff x14:0xe7613000 PA:0x80008361
       17885000	      1787	80001e30	000d2233	slt	x4,x26,x0	 x26:0x00000099  x0:0x00000000  x4=0x00000000
       17895000	      1788	80001e34	1a9e8fa3	sb	x9,447(x29)	 x29:0x800081ff  x9:0x80008642 PA:0x800083be
       17905000	      1789	80001e38	193ec803	lbu	x16,403(x29)	 x29:0x800081ff x16=0x000000e8 PA:0x80008392
       17915000	      1790	80001e3c	241e9583	lh	x11,577(x29)	 x29:0x800081ff x11=0xffffef59 PA:0x80008440
       17925000	      1791	80001e40	405ea083	lw	x1,1029(x29)	 x29:0x800081ff  x1=0x2dab2199 PA:0x80008604
       17935000	      1792	80001e44	280e90a3	sh	x0,641(x29)	 x29:0x800081ff  x0:0x00000000 PA:0x80008480
       17945000	      1793	80001e48	00fe8303	lb	x6,15(x29)	 x29:0x800081ff  x6=0xffffffc4 PA:0x8000820e
       17955000	      1794	80001e4c	e48e8aa3	sb	x8,-427(x29)	 x29:0x800081ff  x8:0x00000000 PA:0x80008054
       17965000	      1795	80001e50	5a0e8f83	lb	x31,1440(x29)	 x29:0x800081ff x31=0xffffffcb PA:0x8000879f
       17975000	      1796	80001e54	00000013	addi	x0,x0,0	  x0:0x00000000
       17985000	      1797	80001e58	00723fb3	sltu	x31,x4,x7	  x4:0x00000000  x7:0x00000001 x31=0x00000001
       17995000	      1798	80001e5c	519e8ea3	sb	x25,1309(x29)	 x29:0x800081ff x25:0x00000024 PA:0x8000871c
       18005000	      1799	80001e60	e94e8d23	sb	x20,-358(x29)	 x29:0x800081ff x20:0xffffffae PA:0x80008099
       18015000	      1800	80001e64	252e8403	lb	x8,594(x29)	 x29:0x800081ff  x8=0x0000005c PA:0x80008451
       18025000	      1801	00000000	00000013	addi	x0,x0,0	  x0:0x00000000
       18035000	      1802	80001e68	fc8e8da3	sb	x8,-37(x29)	 x29:0x800081ff  x8:0x0000005c PA:0x800081da
       18045000	      1803	80001e6c	21ce8003	lb	x0,540(x29)	 x29:0x800081ff PA:0x8000841b
       18055000	      1804	80001e70	00000013	addi	x0,x0,0	  x0:0x00000000
       18065000	      1805	80001e74	1233f393	andi	x7,x7,291	  x7:0x00000001  x7=0x00000001
       18075000	      1806	80001e78	1a6e8b23	sb	x6,438(x29)	 x29:0x800081ff  x6:0xffffffc4 PA:0x800083b5
       18085000	      1807	80001e7c	e96e8303	lb	x6,-362(x29)	 x29:0x800081ff  x6=0x00000061 PA:0x80008095
       18095000	      1808	80001e80	e5cec383	lbu	x7,-420(x29)	 x29:0x800081ff  x7=0x0000009a PA:0x8000805b
       18105000	      1809	80001e84	2b0e8c83	lb	x25,688(x29)	 x29:0x800081ff x25=0x0000003c PA:0x800084af
       18115000	      1810	80001e88	1f0e8723	sb	x16,494(x29)	 x29:0x800081ff x16:0x000000e8 PA:0x800083ed
       18125000	      1811	80001e8c	088e86a3	sb	x8,141(x29)	 x29:0x800081ff  x8:0x0000005c PA:0x8000828c
       18135000	      1812	80001e90	00007117	auipc	x2,0x7	  x2=0x80008e8c
       18145000	      1813	80001e94	12e10113	addi	x2,x2,302	  x2:0x80008e8c  x2=0x80008fba
       18155000	      1814	80001e98	00910a03	lb	x20,9(x2)	  x2:0x80008fba x20=0x0000003b PA:0x80008fc3
       18165000	      1815	80001e9c	00e14203	lbu	x4,14(x2)	  x2:0x80008fba  x4=0x000000f7 PA:0x80008fc8
       18175000	      1816	80001ea0	ff615203	lhu	x4,-10(x2)	  x2:0x80008fba  x4=0x00001d4d PA:0x80008fb0
       18185000	      1817	80001ea4	ff411b83	lh	x23,-12(x2)	  x2:0x80008fba x23=0x0000077e PA:0x80008fae
       18195000	      1818	80001ea8	014d5833	srl	x16,x26,x20	 x26:0x00000099 x20:0x0000003b x16=0x00000000
       18205000	      1819	80001eac	ef168e13	addi	x28,x13,-271	 x13:0xfffffe0f x28=0xfffffd00
       18215000	      1820	80001eb0	41d65693	srai	x13,x12,0x1d	 x12:0x00000000 x13=0x00000000
       18225000	      1821	80001eb4	018782b3	add	x5,x15,x24	 x15:0x000000d8 x24:0x80009fc4  x5=0x8000a09c
       18235000	      1822	80001eb8	01e101a3	sb	x30,3(x2)	  x2:0x80008fba x30:0x55141000 PA:0x80008fbd
       18245000	      1823	80001ebc	00215c83	lhu	x25,2(x2)	  x2:0x80008fba x25=0x0000003f PA:0x80008fbc
       18255000	      1824	80001ec0	00000013	addi	x0,x0,0	  x0:0x00000000
       18265000	      1825	80001ec4	ffb14783	lbu	x15,-5(x2)	  x2:0x80008fba x15=0x0000007f PA:0x80008fb5
       18275000	      1826	80001ec8	422a8493	addi	x9,x21,1058	 x21:0x4f714000  x9=0x4f714422
       18285000	      1827	80001ecc	41f358b3	sra	x17,x6,x31	  x6:0x00000061 x31:0x00000001 x17=0x00000030
       18295000	      1828	80001ed0	0008e233	or	x4,x17,x0	 x17:0x00000030  x0:0x00000000  x4=0x00000030
       18305000	      1829	80001ed4	86062b13	slti	x22,x12,-1952	 x12:0x00000000 x22=0x00000000
       18315000	      1830	80001ed8	01f10023	sb	x31,0(x2)	  x2:0x80008fba x31:0x00000001 PA:0x80008fba
       18325000	      1831	80001edc	6fc6c093	xori	x1,x13,1788	 x13:0x00000000  x1=0x000006fc
       18335000	      1832	80001ee0	0d7e0013	addi	x0,x28,215	 x28:0xfffffd00
       18345000	      1833	80001ee4	005a01b3	add	x3,x20,x5	 x20:0x0000003b  x5:0x8000a09c  x3=0x8000a0d7
       18355000	      1834	80001ee8	cb5c4413	xori	x8,x24,-843	 x24:0x80009fc4  x8=0x7fff6371
       18365000	      1835	80001eec	ff410ea3	sb	x20,-3(x2)	  x2:0x80008fba x20:0x0000003b PA:0x80008fb7
       18375000	      1836	80001ef0	01c10523	sb	x28,10(x2)	  x2:0x80008fba x28:0xfffffd00 PA:0x80008fc4
       18385000	      1837	80001ef4	413dda93	srai	x21,x27,0x13	 x27:0x00000079 x21=0x00000000
       18395000	      1838	80001ef8	00011f03	lh	x30,0(x2)	  x2:0x80008fba x30=0xffffb201 PA:0x80008fba
       18405000	      1839	80001efc	ffd14483	lbu	x9,-3(x2)	  x2:0x80008fba  x9=0x0000003b PA:0x80008fb7
       18415000	      1840	80001f00	00a11803	lh	x16,10(x2)	  x2:0x80008fba x16=0xfffffc00 PA:0x80008fc4
       18425000	      1841	80001f04	00814783	lbu	x15,8(x2)	  x2:0x80008fba x15=0x0000002c PA:0x80008fc2
       18435000	      1842	80001f08	a6733413	sltiu	x8,x6,-1433	  x6:0x00000061  x8=0x00000001
       18445000	      1843	80001f0c	00e15c83	lhu	x25,14(x2)	  x2:0x80008fba x25=0x00003cf7 PA:0x80008fc8
       18455000	      1844	80001f10	00a11d83	lh	x27,10(x2)	  x2:0x80008fba x27=0xfffffc00 PA:0x80008fc4
       18465000	      1845	80001f14	00710e83	lb	x29,7(x2)	  x2:0x80008fba x29=0x00000012 PA:0x80008fc1
       18475000	      1846	80001f18	00f14d83	lbu	x27,15(x2)	  x2:0x80008fba x27=0x0000003c PA:0x80008fc9
       18485000	      1847	80001f1c	ff710983	lb	x19,-9(x2)	  x2:0x80008fba x19=0x0000001d PA:0x80008fb1
       18495000	      1848	80001f20	9aadba13	sltiu	x20,x27,-1622	 x27:0x0000003c x20=0x00000001
       18505000	      1849	80001f24	ffa11c83	lh	x25,-6(x2)	  x2:0x80008fba x25=0x00007f9a PA:0x80008fb4
       18515000	      1850	80001f28	00110083	lb	x1,1(x2)	  x2:0x80008fba  x1=0xffffffb2 PA:0x80008fbb
       18525000	      1851	80001f2c	ff310e23	sb	x19,-4(x2)	  x2:0x80008fba x19:0x0000001d PA:0x80008fb6
       18535000	      1852	80001f30	ff010783	lb	x15,-16(x2)	  x2:0x80008fba x15=0x00000027 PA:0x80008faa
       18545000	      1853	80001f34	00e10783	lb	x15,14(x2)	  x2:0x80008fba x15=0xfffffff7 PA:0x80008fc8
       18555000	      1854	80001f38	01f720b3	slt	x1,x14,x31	 x14:0xe7613000 x31:0x00000001  x1=0x00000001
       18565000	      1855	80001f3c	01af1eb3	sll	x29,x30,x26	 x30:0xffffb201 x26:0x00000099 x29=0x02000000
       18575000	      1856	80001f40	01199e33	sll	x28,x19,x17	 x19:0x0000001d x17:0x00000030 x28=0x001d0000
       18585000	      1857	80001f44	ff714603	lbu	x12,-9(x2)	  x2:0x80008fba x12=0x0000001d PA:0x80008fb1
       18595000	      1858	80001f48	007100a3	sb	x7,1(x2)	  x2:0x80008fba  x7:0x0000009a PA:0x80008fbb
       18605000	      1859	80001f4c	013744b3	xor	x9,x14,x19	 x14:0xe7613000 x19:0x0000001d  x9=0xe761301d
       18615000	      1860	80001f50	007106a3	sb	x7,13(x2)	  x2:0x80008fba  x7:0x0000009a PA:0x80008fc7
       18625000	      1861	80001f54	00006797	auipc	x15,0x6	 x15=0x80007f50
       18635000	      1862	80001f58	32678793	addi	x15,x15,806	 x15:0x80007f50 x15=0x80008276
       18645000	      1863	80001f5c	012fbe33	sltu	x28,x31,x18	 x31:0x00000001 x18:0x80009f74 x28=0x00000001
       18655000	      1864	80001f60	1b1f2093	slti	x1,x30,433	 x30:0xffffb201  x1=0x00000001
       18665000	      1865	80001f64	01215233	srl	x4,x2,x18	  x2:0x80008fba x18:0x80009f74  x4=0x00000800
       18675000	      1866	80001f68	fbe04137	lui	x2,0xfbe04	  x2=0xfbe04000
       18685000	      1867	80001f6c	01d419b3	sll	x19,x8,x29	  x8:0x00000001 x29:0x02000000 x19=0x00000001
       18695000	      1868	80001f70	04578583	lb	x11,69(x15)	 x15:0x80008276 x11=0x00000027 PA:0x800082bb
       18705000	      1869	80001f74	0aa78fa3	sb	x10,191(x15)	 x15:0x80008276 x10:0x80000000 PA:0x80008335
       18715000	      1870	80001f78	05b7ce83	lbu	x29,91(x15)	 x15:0x80008276 x29=0x000000f6 PA:0x800082d1
       18725000	      1871	80001f7c	f907df83	lhu	x31,-112(x15)	 x15:0x80008276 x31=0x0000e0e9 PA:0x80008206
       18735000	      1872	80001f80	013482b3	add	x5,x9,x19	  x9:0xe761301d x19:0x00000001  x5=0xe761301e
       18745000	      1873	80001f84	013ffeb3	and	x29,x31,x19	 x31:0x0000e0e9 x19:0x00000001 x29=0x00000001
       18755000	      1874	80001f88	0df784a3	sb	x31,201(x15)	 x15:0x80008276 x31:0x0000e0e9 PA:0x8000833f
       18765000	      1875	80001f8c	00000013	addi	x0,x0,0	  x0:0x00000000
       18775000	      1876	80001f90	09478983	lb	x19,148(x15)	 x15:0x80008276 x19=0xffffffbd PA:0x8000830a
       18785000	      1877	80001f94	08a784a3	sb	x10,137(x15)	 x15:0x80008276 x10:0x80000000 PA:0x800082ff
       18795000	      1878	80001f98	0387a723	sw	x24,46(x15)	 x15:0x80008276 x24:0x80009fc4 PA:0x800082a4
       18805000	      1879	80001f9c	f7b78303	lb	x6,-133(x15)	 x15:0x80008276  x6=0x00000008 PA:0x800081f1
       18815000	      1880	80001fa0	f25783a3	sb	x5,-217(x15)	 x15:0x80008276  x5:0xe761301e PA:0x8000819d
       18825000	      1881	80001fa4	00000013	addi	x0,x0,0	  x0:0x00000000
       18835000	      1882	80001fa8	c6003193	sltiu	x3,x0,-928	  x0:0x00000000  x3=0x00000001
       18845000	      1883	80001fac	0d878403	lb	x8,216(x15)	 x15:0x80008276  x8=0x00000067 PA:0x8000834e
       18855000	      1884	80001fb0	0ad7c183	lbu	x3,173(x15)	 x15:0x80008276  x3=0x00000071 PA:0x80008323
       18865000	      1885	80001fb4	00000013	addi	x0,x0,0	  x0:0x00000000
       18875000	      1886	80001fb8	f0e78ea3	sb	x14,-227(x15)	 x15:0x80008276 x14:0xe7613000 PA:0x80008193
       18885000	      1887	80001fbc	f0578a83	lb	x21,-251(x15)	 x15:0x80008276 x21=0x00000048 PA:0x8000817b
       18895000	      1888	80001fc0	0b87cc83	lbu	x25,184(x15)	 x15:0x80008276 x25=0x0000008c PA:0x8000832e
       18905000	      1889	80001fc4	f1e7c603	lbu	x12,-226(x15)	 x15:0x80008276 x12=0x000000e1 PA:0x80008194
       18915000	      1890	80001fc8	97d2f713	andi	x14,x5,-1667	  x5:0xe761301e x14=0xe761301c
       18925000	      1891	80001fcc	f1c79183	lh	x3,-228(x15)	 x15:0x80008276  x3=0x00000054 PA:0x80008192
       18935000	      1892	80001fd0	00133db3	sltu	x27,x6,x1	  x6:0x00000008  x1:0x00000001 x27=0x00000000
       18945000	      1893	80001fd4	f13782a3	sb	x19,-251(x15)	 x15:0x80008276 x19:0xffffffbd PA:0x8000817b
       18955000	      1894	80001fd8	01ecf733	and	x14,x25,x30	 x25:0x0000008c x30:0xffffb201 x14=0x00000000
       18965000	      1895	80001fdc	ffe7a403	lw	x8,-2(x15)	 x15:0x80008276  x8=0x875e6e54 PA:0x80008274
       18975000	      1896	80001fe0	000881b3	add	x3,x17,x0	 x17:0x00000030  x0:0x00000000  x3=0x00000030
       18985000	      1897	80001fe4	05d7c683	lbu	x13,93(x15)	 x15:0x80008276 x13=0x00000069 PA:0x800082d3
       18995000	      1898	80001fe8	00a9d133	srl	x2,x19,x10	 x19:0xffffffbd x10:0x80000000  x2=0xffffffbd
       19005000	      1899	80001fec	81866093	ori	x1,x12,-2024	 x12:0x000000e1  x1=0xfffff8f9
       19015000	      1900	80001ff0	f9a78223	sb	x26,-124(x15)	 x15:0x80008276 x26:0x00000099 PA:0x800081fa
       19025000	      1901	80001ff4	00006a17	auipc	x20,0x6	 x20=0x80007ff0
       19035000	      1902	80001ff8	330a0a13	addi	x20,x20,816	 x20:0x80007ff0 x20=0x80008320
       19045000	      1903	80001ffc	0160d3b3	srl	x7,x1,x22	  x1:0xfffff8f9 x22:0x00000000  x7=0xfffff8f9
       19055000	      1904	80002000	01525eb3	srl	x29,x4,x21	  x4:0x00000800 x21:0x00000048 x29=0x00000008
       19065000	      1905	80002004	045a4983	lbu	x19,69(x20)	 x20:0x80008320 x19=0x000000f7 PA:0x80008365
       19075000	      1906	80002008	41d3d5b3	sra	x11,x7,x29	  x7:0xfffff8f9 x29:0x00000008 x11=0xfffffff8
       19085000	      1907	8000200c	3dda4683	lbu	x13,989(x20)	 x20:0x80008320 x13=0x000000a2 PA:0x800086fd
       19095000	      1908	80002010	4f1a06a3	sb	x17,1261(x20)	 x20:0x80008320 x17:0x00000030 PA:0x8000880d
       19105000	      1909	80002014	ebfc3f93	sltiu	x31,x24,-321	 x24:0x80009fc4 x31=0x00000001
       19115000	      1910	80002018	1cca4483	lbu	x9,460(x20)	 x20:0x80008320  x9=0x00000002 PA:0x800084ec
       19125000	      1911	8000201c	d41a0703	lb	x14,-703(x20)	 x20:0x80008320 x14=0x00000016 PA:0x80008061
       19135000	      1912	80002020	1c6a1983	lh	x19,454(x20)	 x20:0x80008320 x19=0xffffc0db PA:0x800084e6
       19145000	      1913	00000000	00000013	addi	x0,x0,0	  x0:0x00000000
       19155000	      1914	80002024	013b61b3	or	x3,x22,x19	 x22:0x00000000 x19:0xffffc0db  x3=0xffffc0db
       19165000	      1915	80002028	5c4f7013	andi	x0,x30,1476	 x30:0xffffb201
       19175000	      1916	8000202c	0018d333	srl	x6,x17,x1	 x17:0x00000030  x1:0xfffff8f9  x6=0x00000000
       19185000	      1917	80002030	0a3a0483	lb	x9,163(x20)	 x20:0x80008320  x9=0x0000002a PA:0x800083c3
       19195000	      1918	80002034	4c2a0623	sb	x2,1228(x20)	 x20:0x80008320  x2:0xffffffbd PA:0x800087ec
       19205000	      1919	80002038	01855e13	srli	x28,x10,0x18	 x10:0x80000000 x28=0x00000080
       19215000	      1920	8000203c	0baa4203	lbu	x4,186(x20)	 x20:0x80008320  x4=0x00000096 PA:0x800083da
       19225000	      1921	80002040	406406b3	sub	x13,x8,x6	  x8:0x875e6e54  x6:0x00000000 x13=0x875e6e54
       19235000	      1922	80002044	24da4583	lbu	x11,589(x20)	 x20:0x80008320 x11=0x0000008d PA:0x8000856d
       19245000	      1923	80002048	00849ab3	sll	x21,x9,x8	  x9:0x0000002a  x8:0x875e6e54 x21=0x02a00000
       19255000	      1924	8000204c	38ba4383	lbu	x7,907(x20)	 x20:0x80008320  x7=0x000000b2 PA:0x800086ab
       19265000	      1925	80002050	4f0a5083	lhu	x1,1264(x20)	 x20:0x80008320  x1=0x0000d220 PA:0x80008810
       19275000	      1926	80002054	015bf433	and	x8,x23,x21	 x23:0x0000077e x21:0x02a00000  x8=0x00000000
       19285000	      1927	80002058	01c64bb3	xor	x23,x12,x28	 x12:0x000000e1 x28:0x00000080 x23=0x00000061
       19295000	      1928	8000205c	00e7ff33	and	x30,x15,x14	 x15:0x80008276 x14:0x00000016 x30=0x00000016
       19305000	      1929	80002060	4c2a5703	lhu	x14,1218(x20)	 x20:0x80008320 x14=0x00004c9c PA:0x800087e2
       19315000	      1930	80002064	41c48f33	sub	x30,x9,x28	  x9:0x0000002a x28:0x00000080 x30=0xffffffaa
       19325000	      1931	80002068	82b5bb13	sltiu	x22,x11,-2005	 x11:0x0000008d x22=0x00000001
       19335000	      1932	8000206c	00594cb3	xor	x25,x18,x5	 x18:0x80009f74  x5:0xe761301e x25=0x6761af6a
       19345000	      1933	80002070	64b3a613	slti	x12,x7,1611	  x7:0x000000b2 x12=0x00000001
       19355000	      1934	80002074	d9ba4e83	lbu	x29,-613(x20)	 x20:0x80008320 x29=0x000000ec PA:0x800080bb
       19365000	      1935	80002078	00007117	auipc	x2,0x7	  x2=0x80009074
       19375000	      1936	8000207c	e2710113	addi	x2,x2,-473	  x2:0x80009074  x2=0x80008e9b
       19385000	      1937	80002080	2196fbb7	lui	x23,0x2196f	 x23=0x2196f000
       19395000	      1938	80002084	0ef11aa3	sh	x15,245(x2)	  x2:0x80008e9b x15:0x80008276 PA:0x80008f90
       19405000	      1939	80002088	f8510a83	lb	x21,-123(x2)	  x2:0x80008e9b x21=0xffffffa1 PA:0x80008e20
       19415000	      1940	00000000	00000013	addi	x0,x0,0	  x0:0x00000000
       19425000	      1941	8000208c	fb510923	sb	x21,-78(x2)	  x2:0x80008e9b x21:0xffffffa1 PA:0x80008e4d
       19435000	      1942	80002090	09c10603	lb	x12,156(x2)	  x2:0x80008e9b x12=0xffffff84 PA:0x80008f37
       19445000	      1943	00000000	00000013	addi	x0,x0,0	  x0:0x00000000
       19455000	      1944	80002094	40c9dc93	srai	x25,x19,0xc	 x19:0xffffc0db x25=0xfffffffc
       19465000	      1945	80002098	407355b3	sra	x11,x6,x7	  x6:0x00000000  x7:0x000000b2 x11=0x00000000
       19475000	      1946	8000209c	f5315703	lhu	x14,-173(x2)	  x2:0x80008e9b x14=0x0000a357 PA:0x80008dee
       19485000	      1947	800020a0	01f8a6b3	slt	x13,x17,x31	 x17:0x00000030 x31:0x00000001 x13=0x00000000
       19495000	      1948	800020a4	006107a3	sb	x6,15(x2)	  x2:0x80008e9b  x6:0x00000000 PA:0x80008eaa
       19505000	      1949	800020a8	f2c14003	lbu	x0,-212(x2)	  x2:0x80008e9b PA:0x80008dc7
       19515000	      1950	800020ac	02214403	lbu	x8,34(x2)	  x2:0x80008e9b  x8=0x000000bd PA:0x80008ebd
       19525000	      1951	800020b0	0fa10803	lb	x16,250(x2)	  x2:0x80008e9b x16=0x00000067 PA:0x80008f95
       19535000	      1952	800020b4	f5214383	lbu	x7,-174(x2)	  x2:0x80008e9b  x7=0x0000002d PA:0x80008ded
       19545000	      1953	800020b8	00c10003	lb	x0,12(x2)	  x2:0x80008e9b PA:0x80008ea7
       19555000	      1954	800020bc	012105b3	add	x11,x2,x18	  x2:0x80008e9b x18:0x80009f74 x11=0x00012e0f
       19565000	      1955	800020c0	fc4102a3	sb	x4,-59(x2)	  x2:0x80008e9b  x4:0x00000096 PA:0x80008e60
       19575000	      1956	800020c4	bfe12d93	slti	x27,x2,-1026	  x2:0x80008e9b x27=0x00000001
       19585000	      1957	800020c8	0b210203	lb	x4,178(x2)	  x2:0x80008e9b  x4=0x00000050 PA:0x80008f4d
       19595000	      1958	800020cc	0dd10023	sb	x29,192(x2)	  x2:0x80008e9b x29:0x000000ec PA:0x80008f5b
       19605000	      1959	800020d0	0f514d83	lbu	x27,245(x2)	  x2:0x80008e9b x27=0x00000076 PA:0x80008f90
       19615000	      1960	800020d4	fc7124a3	sw	x7,-55(x2)	  x2:0x80008e9b  x7:0x0000002d PA:0x80008e64
       19625000	      1961	800020d8	f6214383	lbu	x7,-158(x2)	  x2:0x80008e9b  x7=0x0000003d PA:0x80008dfd
       19635000	      1962	800020dc	f3114983	lbu	x19,-207(x2)	  x2:0x80008e9b x19=0x000000d4 PA:0x80008dcc
       19645000	      1963	800020e0	00aad893	srli	x17,x21,0xa	 x21:0xffffffa1 x17=0x003fffff
       19655000	      1964	800020e4	006a02b3	add	x5,x20,x6	 x20:0x80008320  x6:0x00000000  x5=0x80008320
       19665000	      1965	800020e8	00e39d33	sll	x26,x7,x14	  x7:0x0000003d x14:0x0000a357 x26=0x1e800000
       19675000	      1966	800020ec	0d310123	sb	x19,194(x2)	  x2:0x80008e9b x19:0x000000d4 PA:0x80008f5d
       19685000	      1967	800020f0	00e8cfb3	xor	x31,x17,x14	 x17:0x003fffff x14:0x0000a357 x31=0x003f5ca8
       19695000	      1968	800020f4	07314403	lbu	x8,115(x2)	  x2:0x80008e9b  x8=0x00000095 PA:0x80008f0e
       19705000	      1969	800020f8	f9414c83	lbu	x25,-108(x2)	  x2:0x80008e9b x25=0x000000c2 PA:0x80008e2f
       19715000	      1970	800020fc	00a77233	and	x4,x14,x10	 x14:0x0000a357 x10:0x80000000  x4=0x00000000
       19725000	      1971	80002100	0175df33	srl	x30,x11,x23	 x11:0x00012e0f x23:0x2196f000 x30=0x00012e0f
       19735000	      1972	80002104	fb111aa3	sh	x17,-75(x2)	  x2:0x80008e9b x17:0x003fffff PA:0x80008e50
       19745000	      1973	80002108	00be7e13	andi	x28,x28,11	 x28:0x00000080 x28=0x00000000
       19755000	      1974	8000210c	0d410883	lb	x17,212(x2)	  x2:0x80008e9b x17=0xffffff94 PA:0x80008f6f
       19765000	      1975	80002110	00007f97	auipc	x31,0x7	 x31=0x8000910c
       19775000	      1976	80002114	dc0f8f93	addi	x31,x31,-576	 x31:0x8000910c x31=0x80008ecc
       19785000	      1977	80002118	fdffcf03	lbu	x30,-33(x31)	 x31:0x80008ecc x30=0x0000005d PA:0x80008eab
       19795000	      1978	8000211c	2cc10b13	addi	x22,x2,716	  x2:0x80008e9b x22=0x80009167
       19805000	      1979	80002120	00a200b3	add	x1,x4,x10	  x4:0x00000000 x10:0x80000000  x1=0x80000000
       19815000	      1980	80002124	fd9f82a3	sb	x25,-59(x31)	 x31:0x80008ecc x25:0x000000c2 PA:0x80008e91
       19825000	      1981	80002128	de730e13	addi	x28,x6,-537	  x6:0x00000000 x28=0xfffffde7
       19835000	      1982	8000212c	b7ceceb7	lui	x29,0xb7cec	 x29=0xb7cec000
       19845000	      1983	80002130	004de0b3	or	x1,x27,x4	 x27:0x00000076  x4:0x00000000  x1=0x00000076
       19855000	      1984	80002134	b4988613	addi	x12,x17,-1207	 x17:0xffffff94 x12=0xfffffadd
       19865000	      1985	80002138	011bdab3	srl	x21,x23,x17	 x23:0x2196f000 x17:0xffffff94 x21=0x00000219
       19875000	      1986	8000213c	039f83a3	sb	x25,39(x31)	 x31:0x80008ecc x25:0x000000c2 PA:0x80008ef3
       19885000	      1987	80002140	ff3fce83	lbu	x29,-13(x31)	 x31:0x80008ecc x29=0x0000006b PA:0x80008ebf
       19895000	      1988	80002144	fc7fc283	lbu	x5,-57(x31)	 x31:0x80008ecc  x5=0x0000002d PA:0x80008e93
       19905000	      1989	80002148	00afd383	lhu	x7,10(x31)	 x31:0x80008ecc  x7=0x0000e348 PA:0x80008ed6
       19915000	      1990	8000214c	fd9f8aa3	sb	x25,-43(x31)	 x31:0x80008ecc x25:0x000000c2 PA:0x80008ea1
       19925000	      1991	80002150	fd4f89a3	sb	x20,-45(x31)	 x31:0x80008ecc x20:0x80008320 PA:0x80008e9f
       19935000	      1992	80002154	00641eb3	sll	x29,x8,x6	  x8:0x00000095  x6:0x00000000 x29=0x00000095
       19945000	      1993	80002158	030f82a3	sb	x16,37(x31)	 x31:0x80008ecc x16:0x00000067 PA:0x80008ef1
       19955000	      1994	8000215c	5d86cc93	xori	x25,x13,1496	 x13:0x00000000 x25=0x000005d8
       19965000	      1995	80002160	01eb81b3	add	x3,x23,x30	 x23:0x2196f000 x30:0x0000005d  x3=0x2196f05d
       19975000	      1996	80002164	41bb0cb3	sub	x25,x22,x27	 x22:0x80009167 x27:0x00000076 x25=0x800090f1
       19985000	      1997	80002168	02cf9b23	sh	x12,54(x31)	 x31:0x80008ecc x12:0xfffffadd PA:0x80008f02
       19995000	      1998	8000216c	00006117	auipc	x2,0x6	  x2=0x80008168
       20005000	      1999	80002170	65410113	addi	x2,x2,1620	  x2:0x80008168  x2=0x800087bc
       20015000	      2000	80002174	e7656893	ori	x17,x10,-394	 x10:0x80000000 x17=0xfffffe76
       20025000	      2001	80002178	2872b737	lui	x14,0x2872b	 x14=0x2872b000
       20035000	      2002	8000217c	fd610923	sb	x22,-46(x2)	  x2:0x800087bc x22:0x80009167 PA:0x8000878e
       20045000	      2003	80002180	9f42b893	sltiu	x17,x5,-1548	  x5:0x0000002d x17=0x00000001
       20055000	      2004	80002184	003a2b33	slt	x22,x20,x3	 x20:0x80008320  x3:0x2196f05d x22=0x00000001
       20065000	      2005	80002188	641dcc93	xori	x25,x27,1601	 x27:0x00000076 x25=0x00000637
       20075000	      2006	8000218c	ffb11f23	sh	x27,-2(x2)	  x2:0x800087bc x27:0x00000076 PA:0x800087ba
       20085000	      2007	80002190	ff210203	lb	x4,-14(x2)	  x2:0x800087bc  x4=0xffffff99 PA:0x800087ae
       20095000	      2008	80002194	01710703	lb	x14,23(x2)	  x2:0x800087bc x14=0xffffffa5 PA:0x800087d3
       20105000	      2009	80002198	ff7108a3	sb	x23,-15(x2)	  x2:0x800087bc x23:0x2196f000 PA:0x800087ad
       20115000	      2010	8000219c	00537333	and	x6,x6,x5	  x6:0x00000000  x5:0x0000002d  x6=0x00000000
       20125000	      2011	800021a0	ffd14383	lbu	x7,-3(x2)	  x2:0x800087bc  x7=0x000000c4 PA:0x800087b9
       20135000	      2012	800021a4	fea15183	lhu	x3,-22(x2)	  x2:0x800087bc  x3=0x0000949b PA:0x800087a6
       20145000	      2013	800021a8	40e50db3	sub	x27,x10,x14	 x10:0x80000000 x14:0xffffffa5 x27=0x8000005b
       20155000	      2014	800021ac	407c08b3	sub	x17,x24,x7	 x24:0x80009fc4  x7:0x000000c4 x17=0x80009f00
       20165000	      2015	800021b0	00e45233	srl	x4,x8,x14	  x8:0x00000095 x14:0xffffffa5  x4=0x00000004
       20175000	      2016	800021b4	02e14983	lbu	x19,46(x2)	  x2:0x800087bc x19=0x00000061 PA:0x800087ea
       20185000	      2017	800021b8	fe410ea3	sb	x4,-3(x2)	  x2:0x800087bc  x4:0x00000004 PA:0x800087b9
       20195000	      2018	800021bc	fc410423	sb	x4,-56(x2)	  x2:0x800087bc  x4:0x00000004 PA:0x80008784
       20205000	      2019	800021c0	03410c23	sb	x20,56(x2)	  x2:0x800087bc x20:0x80008320 PA:0x800087f4
       20215000	      2020	800021c4	28adfe93	andi	x29,x27,650	 x27:0x8000005b x29=0x0000000a
       20225000	      2021	800021c8	fe610f23	sb	x6,-2(x2)	  x2:0x800087bc  x6:0x00000000 PA:0x800087ba
       20235000	      2022	800021cc	8b21ba13	sltiu	x20,x3,-1870	  x3:0x0000949b x20=0x00000001
       20245000	      2023	800021d0	fe110303	lb	x6,-31(x2)	  x2:0x800087bc  x6=0xffffff93 PA:0x8000879d
       20255000	      2024	00000000	00000013	addi	x0,x0,0	  x0:0x00000000
       20265000	      2025	800021d4	406b01b3	sub	x3,x22,x6	 x22:0x00000001  x6:0xffffff93  x3=0x0000006e
       20275000	      2026	800021d8	fff14f03	lbu	x30,-1(x2)	  x2:0x800087bc x30=0x00000000 PA:0x800087bb
       20285000	      2027	800021dc	002c5333	srl	x6,x24,x2	 x24:0x80009fc4  x2:0x800087bc  x6=0x00000008
       20295000	      2028	800021e0	b12c3393	sltiu	x7,x24,-1262	 x24:0x80009fc4  x7=0x00000001
       20305000	      2029	800021e4	fcd10083	lb	x1,-51(x2)	  x2:0x800087bc  x1=0xfffffff1 PA:0x80008789
       20315000	      2030	00000000	00000013	addi	x0,x0,0	  x0:0x00000000
       20325000	      2031	800021e8	0015d3b3	srl	x7,x11,x1	 x11:0x00012e0f  x1:0xfffffff1  x7=0x00000000
       20335000	      2032	800021ec	01e15303	lhu	x6,30(x2)	  x2:0x800087bc  x6=0x0000603b PA:0x800087da
       20345000	      2033	800021f0	40a587b3	sub	x15,x11,x10	 x11:0x00012e0f x10:0x80000000 x15=0x80012e0f
       20355000	      2034	800021f4	017e2cb3	slt	x25,x28,x23	 x28:0xfffffde7 x23:0x2196f000 x25=0x00000001
       20365000	      2035	800021f8	01a4cfb3	xor	x31,x9,x26	  x9:0x0000002a x26:0x1e800000 x31=0x1e80002a
       20375000	      2036	800021fc	00966b93	ori	x23,x12,9	 x12:0xfffffadd x23=0xfffffadd
       20385000	      2037	80002200	01d10c83	lb	x25,29(x2)	  x2:0x800087bc x25=0x0000001a PA:0x800087d9
       20395000	      2038	80002204	00006117	auipc	x2,0x6	  x2=0x80008200
       20405000	      2039	80002208	f7d10113	addi	x2,x2,-131	  x2:0x80008200  x2=0x8000817d
       20415000	      2040	8000220c	31796f13	ori	x30,x18,791	 x18:0x80009f74 x30=0x80009f77
       20425000	      2041	80002210	00c14083	lbu	x1,12(x2)	  x2:0x8000817d  x1=0x00000025 PA:0x80008189
       20435000	      2042	80002214	ff210ea3	sb	x18,-3(x2)	  x2:0x8000817d x18:0x80009f74 PA:0x8000817a
       20445000	      2043	80002218	00000013	addi	x0,x0,0	  x0:0x00000000
       20455000	      2044	8000221c	6377a213	slti	x4,x15,1591	 x15:0x80012e0f  x4=0x00000001
       20465000	      2045	80002220	00a10a03	lb	x20,10(x2)	  x2:0x8000817d x20=0xffffff86 PA:0x80008187
       20475000	      2046	80002224	ff010303	lb	x6,-16(x2)	  x2:0x8000817d  x6=0x00000025 PA:0x8000816d
       20485000	      2047	80002228	9772ae93	slti	x29,x5,-1673	  x5:0x0000002d x29=0x00000000
       20495000	      2048	8000222c	e1fc2d13	slti	x26,x24,-481	 x24:0x80009fc4 x26=0x00000001
       20505000	      2049	80002230	ffc14a03	lbu	x20,-4(x2)	  x2:0x8000817d x20=0x000000a8 PA:0x80008179
       20515000	      2050	80002234	005116a3	sh	x5,13(x2)	  x2:0x8000817d  x5:0x0000002d PA:0x8000818a
       20525000	      2051	80002238	01a55493	srli	x9,x10,0x1a	 x10:0x80000000  x9=0x00000020
       20535000	      2052	8000223c	006ec4b3	xor	x9,x29,x6	 x29:0x00000000  x6:0x00000025  x9=0x00000025
       20545000	      2053	80002240	00514683	lbu	x13,5(x2)	  x2:0x8000817d x13=0x000000a3 PA:0x80008182
       20555000	      2054	80002244	2db17393	andi	x7,x2,731	  x2:0x8000817d  x7=0x00000059
       20565000	      2055	80002248	00810583	lb	x11,8(x2)	  x2:0x8000817d x11=0xffffffa5 PA:0x80008185
       20575000	      2056	8000224c	40e0d233	sra	x4,x1,x14	  x1:0x00000025 x14:0xffffffa5  x4=0x00000001
       20585000	      2057	80002250	00d11e03	lh	x28,13(x2)	  x2:0x8000817d x28=0x0000002d PA:0x8000818a
       20595000	      2058	80002254	fe110a23	sb	x1,-12(x2)	  x2:0x8000817d  x1:0x00000025 PA:0x80008171
       20605000	      2059	80002258	542f6393	ori	x7,x30,1346	 x30:0x80009f77  x7=0x80009f77
       20615000	      2060	8000225c	01912633	slt	x12,x2,x25	  x2:0x8000817d x25:0x0000001a x12=0x00000001
       20625000	      2061	80002260	00610b03	lb	x22,6(x2)	  x2:0x8000817d x22=0xffffffb2 PA:0x80008183
       20635000	      2062	80002264	00014083	lbu	x1,0(x2)	  x2:0x8000817d  x1=0x000000bf PA:0x8000817d
       20645000	      2063	80002268	00895e13	srli	x28,x18,0x8	 x18:0x80009f74 x28=0x0080009f
       20655000	      2064	8000226c	01da9493	slli	x9,x21,0x1d	 x21:0x00000219  x9=0x20000000
       20665000	      2065	80002270	01536a33	or	x20,x6,x21	  x6:0x00000025 x21:0x00000219 x20=0x0000023d
       20675000	      2066	80002274	41a10433	sub	x8,x2,x26	  x2:0x8000817d x26:0x00000001  x8=0x8000817c
       20685000	      2067	80002278	b2664293	xori	x5,x12,-1242	 x12:0x00000001  x5=0xfffffb27
       20695000	      2068	8000227c	004115a3	sh	x4,11(x2)	  x2:0x8000817d  x4:0x00000001 PA:0x80008188
       20705000	      2069	80002280	01f9d333	srl	x6,x19,x31	 x19:0x00000061 x31:0x1e80002a  x6=0x00000000
       20715000	      2070	80002284	ff014c83	lbu	x25,-16(x2)	  x2:0x8000817d x25=0x00000025 PA:0x8000816d
       20725000	      2071	80002288	ff714883	lbu	x17,-9(x2)	  x2:0x8000817d x17=0x0000007e PA:0x80008174
       20735000	      2072	8000228c	41dc85b3	sub	x11,x25,x29	 x25:0x00000025 x29:0x00000000 x11=0x00000025
       20745000	      2073	80002290	e311eb13	ori	x22,x3,-463	  x3:0x0000006e x22=0xfffffe7f
       20755000	      2074	80002294	00214083	lbu	x1,2(x2)	  x2:0x8000817d  x1=0x00000020 PA:0x8000817f
       20765000	      2075	80002298	42416e13	ori	x28,x2,1060	  x2:0x8000817d x28=0x8000857d
       20775000	      2076	8000229c	017d4433	xor	x8,x26,x23	 x26:0x00000001 x23:0xfffffadd  x8=0xfffffadc
       20785000	      2077	800022a0	00785c93	srli	x25,x16,0x7	 x16:0x00000067 x25=0x00000000
       20795000	      2078	800022a4	00000013	addi	x0,x0,0	  x0:0x00000000
       20805000	      2079	800022a8	141e6293	ori	x5,x28,321	 x28:0x8000857d  x5=0x8000857d
       20815000	      2080	800022ac	00159a33	sll	x20,x11,x1	 x11:0x00000025  x1:0x00000020 x20=0x00000025
       20825000	      2081	800022b0	704ada17	auipc	x20,0x704ad	 x20=0xf04af2ac
       20835000	      2082	800022b4	00c10a03	lb	x20,12(x2)	  x2:0x8000817d x20=0x00000000 PA:0x80008189
       20845000	      2083	800022b8	01010403	lb	x8,16(x2)	  x2:0x8000817d  x8=0xffffffd9 PA:0x8000818d
       20855000	      2084	800022bc	00007b17	auipc	x22,0x7	 x22=0x800092b8
       20865000	      2085	800022c0	c23b0b13	addi	x22,x22,-989	 x22:0x800092b8 x22=0x80008edb
       20875000	      2086	800022c4	002b00a3	sb	x2,1(x22)	 x22:0x80008edb  x2:0x8000817d PA:0x80008edc
       20885000	      2087	800022c8	ff1b1fa3	sh	x17,-1(x22)	 x22:0x80008edb x17:0x0000007e PA:0x80008eda
       20895000	      2088	800022cc	00810db3	add	x27,x2,x8	  x2:0x8000817d  x8:0xffffffd9 x27=0x80008156
       20905000	      2089	800022d0	01aab433	sltu	x8,x21,x26	 x21:0x00000219 x26:0x00000001  x8=0x00000000
       20915000	      2090	800022d4	fe3b1aa3	sh	x3,-11(x22)	 x22:0x80008edb  x3:0x0000006e PA:0x80008ed0
       20925000	      2091	800022d8	01b39d13	slli	x26,x7,0x1b	  x7:0x80009f77 x26=0xb8000000
       20935000	      2092	800022dc	ff1b0a03	lb	x20,-15(x22)	 x22:0x80008edb x20=0xffffffab PA:0x80008ecc
       20945000	      2093	800022e0	ffdb0923	sb	x29,-14(x22)	 x22:0x80008edb x29:0x00000000 PA:0x80008ecd
       20955000	      2094	800022e4	016356b3	srl	x13,x6,x22	  x6:0x00000000 x22:0x80008edb x13=0x00000000
       20965000	      2095	800022e8	feeb0f23	sb	x14,-2(x22)	 x22:0x80008edb x14:0xffffffa5 PA:0x80008ed9
       20975000	      2096	800022ec	0046c1b3	xor	x3,x13,x4	 x13:0x00000000  x4:0x00000001  x3=0x00000001
       20985000	      2097	800022f0	e1560013	addi	x0,x12,-491	 x12:0x00000001
       20995000	      2098	800022f4	0d5f2e93	slti	x29,x30,213	 x30:0x80009f77 x29=0x00000001
       21005000	      2099	800022f8	019537b3	sltu	x15,x10,x25	 x10:0x80000000 x25:0x00000000 x15=0x00000000
       21015000	      2100	800022fc	fe6b0a23	sb	x6,-12(x22)	 x22:0x80008edb  x6:0x00000000 PA:0x80008ecf
       21025000	      2101	80002300	007b1633	sll	x12,x22,x7	 x22:0x80008edb  x7:0x80009f77 x12=0x6d800000
       21035000	      2102	80002304	ff7b0c23	sb	x23,-8(x22)	 x22:0x80008edb x23:0xfffffadd PA:0x80008ed3
       21045000	      2103	80002308	004b0983	lb	x19,4(x22)	 x22:0x80008edb x19=0xffffff92 PA:0x80008edf
       21055000	      2104	8000230c	00b46e33	or	x28,x8,x11	  x8:0x00000000 x11:0x00000025 x28=0x00000025
       21065000	      2105	80002310	fe7b0fa3	sb	x7,-1(x22)	 x22:0x80008edb  x7:0x80009f77 PA:0x80008eda
       21075000	      2106	80002314	00007d17	auipc	x26,0x7	 x26=0x80009310
       21085000	      2107	80002318	9e4d0d13	addi	x26,x26,-1564	 x26:0x80009310 x26=0x80008cf4
       21095000	      2108	8000231c	0f5d03a3	sb	x21,231(x26)	 x26:0x80008cf4 x21:0x00000219 PA:0x80008ddb
       21105000	      2109	80002320	06dd0583	lb	x11,109(x26)	 x26:0x80008cf4 x11=0x00000007 PA:0x80008d61
       21115000	      2110	80002324	2f9d4993	xori	x19,x26,761	 x26:0x80008cf4 x19=0x80008e0d
       21125000	      2111	80002328	01c15e93	srli	x29,x2,0x1c	  x2:0x8000817d x29=0x00000008
       21135000	      2112	8000232c	f15d1123	sh	x21,-254(x26)	 x26:0x80008cf4 x21:0x00000219 PA:0x80008bf6
       21145000	      2113	80002330	00ac28b3	slt	x17,x24,x10	 x24:0x80009fc4 x10:0x80000000 x17=0x00000000
       21155000	      2114	80002334	a68fae13	slti	x28,x31,-1432	 x31:0x1e80002a x28=0x00000000
       21165000	      2115	80002338	0d0d09a3	sb	x16,211(x26)	 x26:0x80008cf4 x16:0x00000067 PA:0x80008dc7
       21175000	      2116	8000233c	41a7de33	sra	x28,x15,x26	 x15:0x00000000 x26:0x80008cf4 x28=0x00000000
       21185000	      2117	80002340	40815eb3	sra	x29,x2,x8	  x2:0x8000817d  x8:0x00000000 x29=0x8000817d
       21195000	      2118	80002344	fafd4b03	lbu	x22,-81(x26)	 x26:0x80008cf4 x22=0x000000f7 PA:0x80008ca3
       21205000	      2119	80002348	f5bd2a23	sw	x27,-172(x26)	 x26:0x80008cf4 x27:0x80008156 PA:0x80008c48
       21215000	      2120	8000234c	4102d1b3	sra	x3,x5,x16	  x5:0x8000857d x16:0x00000067  x3=0xff00010a
       21225000	      2121	80002350	00000013	addi	x0,x0,0	  x0:0x00000000
       21235000	      2122	80002354	f83d4103	lbu	x2,-125(x26)	 x26:0x80008cf4  x2=0x0000007d PA:0x80008c77
       21245000	      2123	80002358	fdcd0983	lb	x19,-36(x26)	 x26:0x80008cf4 x19=0xffffff96 PA:0x80008cd0
       21255000	      2124	8000235c	01a807b3	add	x15,x16,x26	 x16:0x00000067 x26:0x80008cf4 x15=0x80008d5b
       21265000	      2125	80002360	09cd0183	lb	x3,156(x26)	 x26:0x80008cf4  x3=0x00000054 PA:0x80008d90
       21275000	      2126	80002364	05dd1b23	sh	x29,86(x26)	 x26:0x80008cf4 x29:0x8000817d PA:0x80008d4a
       21285000	      2127	80002368	012d5f83	lhu	x31,18(x26)	 x26:0x80008cf4 x31=0x0000e393 PA:0x80008d06
       21295000	      2128	8000236c	0cad1b03	lh	x22,202(x26)	 x26:0x80008cf4 x22=0x000063f1 PA:0x80008dbe
       21305000	      2129	80002370	f89d03a3	sb	x9,-121(x26)	 x26:0x80008cf4  x9:0x20000000 PA:0x80008c7b
       21315000	      2130	80002374	41e30ab3	sub	x21,x6,x30	  x6:0x00000000 x30:0x80009f77 x21=0x7fff6089
       21325000	      2131	80002378	22c91397	auipc	x7,0x22c91	  x7=0xa2c93374
       21335000	      2132	8000237c	41310833	sub	x16,x2,x19	  x2:0x0000007d x19:0xffffff96 x16=0x000000e7
       21345000	      2133	80002380	f35d0203	lb	x4,-203(x26)	 x26:0x80008cf4  x4=0xffffffc4 PA:0x80008c29
       21355000	      2134	80002384	019b79b3	and	x19,x22,x25	 x22:0x000063f1 x25:0x00000000 x19=0x00000000
       21365000	      2135	80002388	f4bd4283	lbu	x5,-181(x26)	 x26:0x80008cf4  x5=0x00000071 PA:0x80008c3f
       21375000	      2136	8000238c	00c91433	sll	x8,x18,x12	 x18:0x80009f74 x12:0x6d800000  x8=0x80009f74
       21385000	      2137	80002390	01ed0f83	lb	x31,30(x26)	 x26:0x80008cf4 x31=0x00000029 PA:0x80008d12
       21395000	      2138	80002394	00126bb3	or	x23,x4,x1	  x4:0xffffffc4  x1:0x00000020 x23=0xffffffe4
       21405000	      2139	80002398	0f8d0203	lb	x4,248(x26)	 x26:0x80008cf4  x4=0xffffffc1 PA:0x80008dec
       21415000	      2140	8000239c	01eea833	slt	x16,x29,x30	 x29:0x8000817d x30:0x80009f77 x16=0x00000001
       21425000	      2141	800023a0	00644733	xor	x14,x8,x6	  x8:0x80009f74  x6:0x00000000 x14=0x80009f74
       21435000	      2142	800023a4	406f83b3	sub	x7,x31,x6	 x31:0x00000029  x6:0x00000000  x7=0x00000029
       21445000	      2143	800023a8	0182d8b3	srl	x17,x5,x24	  x5:0x00000071 x24:0x80009fc4 x17=0x00000007
       21455000	      2144	800023ac	41ca53b3	sra	x7,x20,x28	 x20:0xffffffab x28:0x00000000  x7=0xffffffab
       21465000	      2145	800023b0	704d8593	addi	x11,x27,1796	 x27:0x80008156 x11=0x8000885a
       21475000	      2146	800023b4	00ed1083	lh	x1,14(x26)	 x26:0x80008cf4  x1=0xffffbebb PA:0x80008d02
       21485000	      2147	800023b8	014296b3	sll	x13,x5,x20	  x5:0x00000071 x20:0xffffffab x13=0x00038800
       21495000	      2148	800023bc	00be03b3	add	x7,x28,x11	 x28:0x00000000 x11:0x8000885a  x7=0x8000885a
       21505000	      2149	800023c0	097d0da3	sb	x23,155(x26)	 x26:0x80008cf4 x23:0xffffffe4 PA:0x80008d8f
       21515000	      2150	800023c4	fb7d0303	lb	x6,-73(x26)	 x26:0x80008cf4  x6=0xffffffc1 PA:0x80008cab
       21525000	      2151	800023c8	06dd0303	lb	x6,109(x26)	 x26:0x80008cf4  x6=0x00000007 PA:0x80008d61
       21535000	      2152	800023cc	f4ad1603	lh	x12,-182(x26)	 x26:0x80008cf4 x12=0x0000715f PA:0x80008c3e
       21545000	      2153	800023d0	ffbd0b83	lb	x23,-5(x26)	 x26:0x80008cf4 x23=0xffffffb2 PA:0x80008cef
       21555000	      2154	800023d4	404705b3	sub	x11,x14,x4	 x14:0x80009f74  x4:0xffffffc1 x11=0x80009fb3
       21565000	      2155	800023d8	00a09e13	slli	x28,x1,0xa	  x1:0xffffbebb x28=0xfefaec00
       21575000	      2156	800023dc	017a3b33	sltu	x22,x20,x23	 x20:0xffffffab x23:0xffffffb2 x22=0x00000001
       21585000	      2157	800023e0	00489f93	slli	x31,x17,0x4	 x17:0x00000007 x31=0x00000070
       21595000	      2158	800023e4	b07b7437	lui	x8,0xb07b7	  x8=0xb07b7000
       21605000	      2159	800023e8	f07d0603	lb	x12,-249(x26)	 x26:0x80008cf4 x12=0x00000057 PA:0x80008bfb
       21615000	      2160	800023ec	60de3793	sltiu	x15,x28,1549	 x28:0xfefaec00 x15=0x00000000
       21625000	      2161	800023f0	0ead0ba3	sb	x10,247(x26)	 x26:0x80008cf4 x10:0x80000000 PA:0x80008deb
       21635000	      2162	800023f4	018c3bb3	sltu	x23,x24,x24	 x24:0x80009fc4 x24:0x80009fc4 x23=0x00000000
       21645000	      2163	800023f8	06dd0283	lb	x5,109(x26)	 x26:0x80008cf4  x5=0x00000007 PA:0x80008d61
       21655000	      2164	800023fc	fb4d0523	sb	x20,-86(x26)	 x26:0x80008cf4 x20:0xffffffab PA:0x80008c9e
       21665000	      2165	80002400	f6f12137	lui	x2,0xf6f12	  x2=0xf6f12000
       21675000	      2166	80002404	00b84863	blt	x16,x11,80002414	 x16:0x00000001 x11:0x80009fb3
       21685000	      2167	80002408	00000013	addi	x0,x0,0	  x0:0x00000000
       21695000	      2168	8000240c	01d4deb3	srl	x29,x9,x29	  x9:0x20000000 x29:0x8000817d x29=0x00000001
       21705000	      2169	80002410	01cd4663	blt	x26,x28,8000241c	 x26:0x80008cf4 x28:0xfefaec00
       21715000	      2170	00000000	00000013	addi	x0,x0,0	  x0:0x00000000
       21725000	      2171	80002418	00000013	addi	x0,x0,0	  x0:0x00000000
       21735000	      2172	8000241c	04450993	addi	x19,x10,68	 x10:0x80000000 x19=0x80000044
       21745000	      2173	80002420	00ba1393	slli	x7,x20,0xb	 x20:0xffffffab  x7=0xfffd5800
       21755000	      2174	80002424	00ce3bb3	sltu	x23,x28,x12	 x28:0xfefaec00 x12:0x00000057 x23=0x00000000
       21765000	      2175	80002428	008b1213	slli	x4,x22,0x8	 x22:0x00000001  x4=0x00000100
       21775000	      2176	8000242c	00e09033	sll	x0,x1,x14	  x1:0xffffbebb x14:0x80009f74
       21785000	      2177	80002430	01b38033	add	x0,x7,x27	  x7:0xfffd5800 x27:0x80008156
       21795000	      2178	80002434	0026d263	bge	x13,x2,80002438	 x13:0x00038800  x2:0xf6f12000
       21805000	      2179	00000000	00000013	addi	x0,x0,0	  x0:0x00000000
       21815000	      2180	80002434	00000013	addi	x0,x0,0	  x0:0x00000000
       21825000	      2181	80002438	0072bf33	sltu	x30,x5,x7	  x5:0x00000007  x7:0xfffd5800 x30=0x00000001
       21835000	      2182	8000243c	0146ec63	bltu	x13,x20,80002454	 x13:0x00038800 x20:0xffffffab
       21845000	      2183	00000000	00000013	addi	x0,x0,0	  x0:0x00000000
       21855000	      2184	80002450	00000013	addi	x0,x0,0	  x0:0x00000000
       21865000	      2185	80002454	00f51633	sll	x12,x10,x15	 x10:0x80000000 x15:0x00000000 x12=0x80000000
       21875000	      2186	80002458	e530ff93	andi	x31,x1,-429	  x1:0xffffbebb x31=0xffffbe13
       21885000	      2187	8000245c	01094bb3	xor	x23,x18,x16	 x18:0x80009f74 x16:0x00000001 x23=0x80009f75
       21895000	      2188	80002460	03766c63	bltu	x12,x23,80002498	 x12:0x80000000 x23:0x80009f75
       21905000	      2189	00000000	00000013	addi	x0,x0,0	  x0:0x00000000
       21915000	      2190	80002494	00000013	addi	x0,x0,0	  x0:0x00000000
       21925000	      2191	80002498	4149da93	srai	x21,x19,0x14	 x19:0x80000044 x21=0xfffff800
       21935000	      2192	8000249c	00664133	xor	x2,x12,x6	 x12:0x80000000  x6:0x00000007  x2=0x80000007
       21945000	      2193	800024a0	00061f93	slli	x31,x12,0x0	 x12:0x80000000 x31=0x80000000
       21955000	      2194	800024a4	21c04a13	xori	x20,x0,540	  x0:0x00000000 x20=0x0000021c
       21965000	      2195	800024a8	000d97b3	sll	x15,x27,x0	 x27:0x80008156  x0:0x00000000 x15=0x80008156
       21975000	      2196	800024ac	c245a797	auipc	x15,0xc245a	 x15=0x4245c4a8
       21985000	      2197	800024b0	41f4d213	srai	x4,x9,0x1f	  x9:0x20000000  x4=0x00000000
       21995000	      2198	800024b4	413e5013	srai	x0,x28,0x13	 x28:0xfefaec00
       22005000	      2199	800024b8	27daedb7	lui	x27,0x27dae	 x27=0x27dae000
       22015000	      2200	800024bc	00ef5133	srl	x2,x30,x14	 x30:0x00000001 x14:0x80009f74  x2=0x00000000
       22025000	      2201	800024c0	6792b813	sltiu	x16,x5,1657	  x5:0x00000007 x16=0x00000001
       22035000	      2202	800024c4	f378f793	andi	x15,x17,-201	 x17:0x00000007 x15=0x00000007
       22045000	      2203	800024c8	0192f833	and	x16,x5,x25	  x5:0x00000007 x25:0x00000000 x16=0x00000000
       22055000	      2204	800024cc	11927e63	bgeu	x4,x25,800025e8	  x4:0x00000000 x25:0x00000000
       22065000	      2205	00000000	00000013	addi	x0,x0,0	  x0:0x00000000
       22075000	      2206	800025e4	00000013	addi	x0,x0,0	  x0:0x00000000
       22085000	      2207	800025e8	0003e433	or	x8,x7,x0	  x7:0xfffd5800  x0:0x00000000  x8=0xfffd5800
       22095000	      2208	800025ec	00d9fe63	bgeu	x19,x13,80002608	 x19:0x80000044 x13:0x00038800
       22105000	      2209	00000000	00000013	addi	x0,x0,0	  x0:0x00000000
       22115000	      2210	80002604	00000013	addi	x0,x0,0	  x0:0x00000000
       22125000	      2211	80002608	04144063	blt	x8,x1,80002648	  x8:0xfffd5800  x1:0xffffbebb
       22135000	      2212	00000000	00000013	addi	x0,x0,0	  x0:0x00000000
       22145000	      2213	80002644	00000013	addi	x0,x0,0	  x0:0x00000000
       22155000	      2214	80002648	0054d863	bge	x9,x5,80002658	  x9:0x20000000  x5:0x00000007
       22165000	      2215	00000000	00000013	addi	x0,x0,0	  x0:0x00000000
       22175000	      2216	80002654	00000013	addi	x0,x0,0	  x0:0x00000000
       22185000	      2217	80002658	015524b3	slt	x9,x10,x21	 x10:0x80000000 x21:0xfffff800  x9=0x00000001
       22195000	      2218	8000265c	00ce9593	slli	x11,x29,0xc	 x29:0x00000001 x11=0x00001000
       22205000	      2219	80002660	00eb5813	srli	x16,x22,0xe	 x22:0x00000001 x16=0x00000000
       22215000	      2220	80002664	00a9c133	xor	x2,x19,x10	 x19:0x80000044 x10:0x80000000  x2=0x00000044
       22225000	      2221	80002668	26ebb093	sltiu	x1,x23,622	 x23:0x80009f75  x1=0x00000000
       22235000	      2222	8000266c	4084d3b3	sra	x7,x9,x8	  x9:0x00000001  x8:0xfffd5800  x7=0x00000001
       22245000	      2223	80002670	01b07233	and	x4,x0,x27	  x0:0x00000000 x27:0x27dae000  x4=0x00000000
       22255000	      2224	80002674	7b1c7f93	andi	x31,x24,1969	 x24:0x80009fc4 x31=0x00000780
       22265000	      2225	80002678	0238e863	bltu	x17,x3,800026a8	 x17:0x00000007  x3:0x00000054
       22275000	      2226	00000000	00000013	addi	x0,x0,0	  x0:0x00000000
       22285000	      2227	800026a4	00000013	addi	x0,x0,0	  x0:0x00000000
       22295000	      2228	800026a8	016a78b3	and	x17,x20,x22	 x20:0x0000021c x22:0x00000001 x17=0x00000000
       22305000	      2229	800026ac	029d9663	bne	x27,x9,800026d8	 x27:0x27dae000  x9:0x00000001
       22315000	      2230	00000000	00000013	addi	x0,x0,0	  x0:0x00000000
       22325000	      2231	800026d4	00000013	addi	x0,x0,0	  x0:0x00000000
       22335000	      2232	800026d8	01831a93	slli	x21,x6,0x18	  x6:0x00000007 x21=0x07000000
       22345000	      2233	800026dc	47dda013	slti	x0,x27,1149	 x27:0x27dae000
       22355000	      2234	800026e0	01b54fb3	xor	x31,x10,x27	 x10:0x80000000 x27:0x27dae000 x31=0xa7dae000
       22365000	      2235	800026e4	01c65db3	srl	x27,x12,x28	 x12:0x80000000 x28:0xfefaec00 x27=0x80000000
       22375000	      2236	800026e8	0010c263	blt	x1,x1,800026ec	  x1:0x00000000  x1:0x00000000
       22385000	      2237	800026ec	02d30663	beq	x6,x13,80002718	  x6:0x00000007 x13:0x00038800
       22395000	      2238	800026f0	409dd093	srai	x1,x27,0x9	 x27:0x80000000  x1=0xffc00000
       22405000	      2239	800026f4	00631293	slli	x5,x6,0x6	  x6:0x00000007  x5=0x000001c0
       22415000	      2240	800026f8	0495f663	bgeu	x11,x9,80002744	 x11:0x00001000  x9:0x00000001
       22425000	      2241	00000000	00000013	addi	x0,x0,0	  x0:0x00000000
       22435000	      2242	80002740	00000013	addi	x0,x0,0	  x0:0x00000000
       22445000	      2243	80002744	01489f13	slli	x30,x17,0x14	 x17:0x00000000 x30=0x00000000
       22455000	      2244	80002748	01b99663	bne	x19,x27,80002754	 x19:0x80000044 x27:0x80000000
       22465000	      2245	00000000	00000013	addi	x0,x0,0	  x0:0x00000000
       22475000	      2246	80002750	00000013	addi	x0,x0,0	  x0:0x00000000
       22485000	      2247	80002754	0119d433	srl	x8,x19,x17	 x19:0x80000044 x17:0x00000000  x8=0x80000044
       22495000	      2248	80002758	01589193	slli	x3,x17,0x15	 x17:0x00000000  x3=0x00000000
       22505000	      2249	8000275c	2a190d13	addi	x26,x18,673	 x18:0x80009f74 x26=0x8000a215
       22515000	      2250	80002760	01631993	slli	x19,x6,0x16	  x6:0x00000007 x19=0x01c00000
       22525000	      2251	80002764	1f6b8b13	addi	x22,x23,502	 x23:0x80009f75 x22=0x8000a16b
       22535000	      2252	80002768	001dc033	xor	x0,x27,x1	 x27:0x80000000  x1:0xffc00000
       22545000	      2253	8000276c	00f0c833	xor	x16,x1,x15	  x1:0xffc00000 x15:0x00000007 x16=0xffc00007
       22555000	      2254	80002770	40f20233	sub	x4,x4,x15	  x4:0x00000000 x15:0x00000007  x4=0xfffffff9
       22565000	      2255	80002774	01e11db3	sll	x27,x2,x30	  x2:0x00000044 x30:0x00000000 x27=0x00000044
       22575000	      2256	80002778	243bb8b7	lui	x17,0x243bb	 x17=0x243bb000
       22585000	      2257	8000277c	29f5e6b7	lui	x13,0x29f5e	 x13=0x29f5e000
       22595000	      2258	80002780	4023d193	srai	x3,x7,0x2	  x7:0x00000001  x3=0x00000000
       22605000	      2259	80002784	004ff033	and	x0,x31,x4	 x31:0xa7dae000  x4:0xfffffff9
       22615000	      2260	80002788	00159e63	bne	x11,x1,800027a4	 x11:0x00001000  x1:0xffc00000
       22625000	      2261	00000000	00000013	addi	x0,x0,0	  x0:0x00000000
       22635000	      2262	800027a0	00000013	addi	x0,x0,0	  x0:0x00000000
       22645000	      2263	800027a4	03bb5063	bge	x22,x27,800027c4	 x22:0x8000a16b x27:0x00000044
       22655000	      2264	800027a8	41e58133	sub	x2,x11,x30	 x11:0x00001000 x30:0x00000000  x2=0x00001000
       22665000	      2265	800027ac	00627c63	bgeu	x4,x6,800027c4	  x4:0xfffffff9  x6:0x00000007
       22675000	      2266	00000000	00000013	addi	x0,x0,0	  x0:0x00000000
       22685000	      2267	800027c0	00000013	addi	x0,x0,0	  x0:0x00000000
       22695000	      2268	800027c4	004d3f33	sltu	x30,x26,x4	 x26:0x8000a215  x4:0xfffffff9 x30=0x00000001
       22705000	      2269	800027c8	00e2d813	srli	x16,x5,0xe	  x5:0x000001c0 x16=0x00000000
       22715000	      2270	800027cc	00f01263	bne	x0,x15,800027d0	  x0:0x00000000 x15:0x00000007
       22725000	      2271	00000000	00000013	addi	x0,x0,0	  x0:0x00000000
       22735000	      2272	800027cc	00000013	addi	x0,x0,0	  x0:0x00000000
       22745000	      2273	800027d0	01b71213	slli	x4,x14,0x1b	 x14:0x80009f74  x4=0xa0000000
       22755000	      2274	800027d4	41785db3	sra	x27,x16,x23	 x16:0x00000000 x23:0x80009f75 x27=0x00000000
       22765000	      2275	800027d8	010e9793	slli	x15,x29,0x10	 x29:0x00000001 x15=0x00010000
       22775000	      2276	800027dc	59203097	auipc	x1,0x59203	  x1=0xd92057d8
       22785000	      2277	800027e0	81a9c817	auipc	x16,0x81a9c	 x16=0x01a9e7dc
       22795000	      2278	800027e4	01acd493	srli	x9,x25,0x1a	 x25:0x00000000  x9=0x00000000
       22805000	      2279	800027e8	411d86b3	sub	x13,x27,x17	 x27:0x00000000 x17:0x243bb000 x13=0xdbc45000
       22815000	      2280	800027ec	01d0d5b3	srl	x11,x1,x29	  x1:0xd92057d8 x29:0x00000001 x11=0x6c902bec
       22825000	      2281	800027f0	0161acb3	slt	x25,x3,x22	  x3:0x00000000 x22:0x8000a16b x25=0x00000000
       22835000	      2282	800027f4	b5a10237	lui	x4,0xb5a10	  x4=0xb5a10000
       22845000	      2283	800027f8	7c623a13	sltiu	x20,x4,1990	  x4:0xb5a10000 x20=0x00000000
       22855000	      2284	800027fc	0044fd33	and	x26,x9,x4	  x9:0x00000000  x4:0xb5a10000 x26=0x00000000
       22865000	      2285	80002800	c896bc97	auipc	x25,0xc896b	 x25=0x4896d7fc
       22875000	      2286	80002804	b7284593	xori	x11,x16,-1166	 x16:0x01a9e7dc x11=0xfe561cae
       22885000	      2287	80002808	00006117	auipc	x2,0x6	  x2=0x80008804
       22895000	      2288	8000280c	cfc10113	addi	x2,x2,-772	  x2:0x80008804  x2=0x80008500
       22905000	      2289	80002810	01972cb3	slt	x25,x14,x25	 x14:0x80009f74 x25:0x4896d7fc x25=0x00000001
       22915000	      2290	80002814	f8714003	lbu	x0,-121(x2)	  x2:0x80008500 PA:0x80008487
       22925000	      2291	80002818	f5f10523	sb	x31,-182(x2)	  x2:0x80008500 x31:0xa7dae000 PA:0x8000844a
       22935000	      2292	8000281c	09e14883	lbu	x17,158(x2)	  x2:0x80008500 x17=0x0000000b PA:0x8000859e
       22945000	      2293	80002820	419a59b3	sra	x19,x20,x25	 x20:0x00000000 x25:0x00000001 x19=0x00000000
       22955000	      2294	80002824	01c25db3	srl	x27,x4,x28	  x4:0xb5a10000 x28:0xfefaec00 x27=0xb5a10000
       22965000	      2295	80002828	ffe10d23	sb	x30,-6(x2)	  x2:0x80008500 x30:0x00000001 PA:0x800084fa
       22975000	      2296	8000282c	0e210d83	lb	x27,226(x2)	  x2:0x80008500 x27=0x0000002c PA:0x800085e2
       22985000	      2297	80002830	40a0d193	srai	x3,x1,0xa	  x1:0xd92057d8  x3=0xfff64815
       22995000	      2298	80002834	fe314983	lbu	x19,-29(x2)	  x2:0x80008500 x19=0x0000008a PA:0x800084e3
       23005000	      2299	80002838	e823e613	ori	x12,x7,-382	  x7:0x00000001 x12=0xfffffe83
       23015000	      2300	8000283c	0123ef33	or	x30,x7,x18	  x7:0x00000001 x18:0x80009f74 x30=0x80009f75
       23025000	      2301	80002840	02f10d03	lb	x26,47(x2)	  x2:0x80008500 x26=0xffffff98 PA:0x8000852f
       23035000	      2302	80002844	01bfd733	srl	x14,x31,x27	 x31:0xa7dae000 x27:0x0000002c x14=0x000a7dae
       23045000	      2303	80002848	0f410e03	lb	x28,244(x2)	  x2:0x80008500 x28=0xffffffd8 PA:0x800085f4
       23055000	      2304	8000284c	f3364b13	xori	x22,x12,-205	 x12:0xfffffe83 x22=0x000001b0
       23065000	      2305	80002850	40a058b3	sra	x17,x0,x10	  x0:0x00000000 x10:0x80000000 x17=0x00000000
       23075000	      2306	80002854	02114803	lbu	x16,33(x2)	  x2:0x80008500 x16=0x0000002b PA:0x80008521
       23085000	      2307	80002858	fc412603	lw	x12,-60(x2)	  x2:0x80008500 x12=0x83a57168 PA:0x800084c4
       23095000	      2308	8000285c	eb8d7393	andi	x7,x26,-328	 x26:0xffffff98  x7=0xfffffe98
       23105000	      2309	80002860	0fb11323	sh	x27,230(x2)	  x2:0x80008500 x27:0x0000002c PA:0x800085e6
       23115000	      2310	80002864	7c633393	sltiu	x7,x6,1990	  x6:0x00000007  x7=0x00000001
       23125000	      2311	80002868	00000013	addi	x0,x0,0	  x0:0x00000000
       23135000	      2312	8000286c	001bc4b3	xor	x9,x23,x1	 x23:0x80009f75  x1:0xd92057d8  x9=0x5920c8ad
       23145000	      2313	80002870	fa012783	lw	x15,-96(x2)	  x2:0x80008500 x15=0x836e1d2f PA:0x800084a0
       23155000	      2314	80002874	419b0db3	sub	x27,x22,x25	 x22:0x000001b0 x25:0x00000001 x27=0x000001af
       23165000	      2315	80002878	be452013	slti	x0,x10,-1052	 x10:0x80000000
       23175000	      2316	8000287c	f5611a03	lh	x20,-170(x2)	  x2:0x80008500 x20=0xffff9e68 PA:0x80008456
       23185000	      2317	80002880	01910583	lb	x11,25(x2)	  x2:0x80008500 x11=0xffffffa0 PA:0x80008519
       23195000	      2318	80002884	01326bb3	or	x23,x4,x19	  x4:0xb5a10000 x19:0x0000008a x23=0xb5a1008a
       23205000	      2319	80002888	00ee84b3	add	x9,x29,x14	 x29:0x00000001 x14:0x000a7dae  x9=0x000a7daf
       23215000	      2320	8000288c	5f93c7b7	lui	x15,0x5f93c	 x15=0x5f93c000
       23225000	      2321	80002890	01110a83	lb	x21,17(x2)	  x2:0x80008500 x21=0x0000002b PA:0x80008511
       23235000	      2322	80002894	01d43333	sltu	x6,x8,x29	  x8:0x80000044 x29:0x00000001  x6=0x00000000
       23245000	      2323	80002898	f8415603	lhu	x12,-124(x2)	  x2:0x80008500 x12=0x0000b902 PA:0x80008484
       23255000	      2324	8000289c	bce07697	auipc	x13,0xbce07	 x13=0x3ce09898
       23265000	      2325	800028a0	0af10123	sb	x15,162(x2)	  x2:0x80008500 x15:0x5f93c000 PA:0x800085a2
       23275000	      2326	800028a4	5c313217	auipc	x4,0x5c313	  x4=0xdc3158a0
       23285000	      2327	800028a8	016bedb3	or	x27,x23,x22	 x23:0xb5a1008a x22:0x000001b0 x27=0xb5a101ba
       23295000	      2328	800028ac	02c12423	sw	x12,40(x2)	  x2:0x80008500 x12:0x0000b902 PA:0x80008528
       23305000	      2329	800028b0	4823b013	sltiu	x0,x7,1154	  x7:0x00000001
       23315000	      2330	800028b4	08211b03	lh	x22,130(x2)	  x2:0x80008500 x22=0x00002773 PA:0x80008582
       23325000	      2331	800028b8	00a8a5b3	slt	x11,x17,x10	 x17:0x00000000 x10:0x80000000 x11=0x00000000
       23335000	      2332	800028bc	00bcfa63	bgeu	x25,x11,800028d0	 x25:0x00000001 x11:0x00000000
       23345000	      2333	00000000	00000013	addi	x0,x0,0	  x0:0x00000000
       23355000	      2334	800028cc	00000013	addi	x0,x0,0	  x0:0x00000000
       23365000	      2335	800028d0	00c008b3	add	x17,x0,x12	  x0:0x00000000 x12:0x0000b902 x17=0x0000b902
       23375000	      2336	800028d4	01a57e33	and	x28,x10,x26	 x10:0x80000000 x26:0xffffff98 x28=0x80000000
       23385000	      2337	800028d8	40b852b3	sra	x5,x16,x11	 x16:0x0000002b x11:0x00000000  x5=0x0000002b
       23395000	      2338	800028dc	2e516893	ori	x17,x2,741	  x2:0x80008500 x17=0x800087e5
       23405000	      2339	800028e0	02820e63	beq	x4,x8,8000291c	  x4:0xdc3158a0  x8:0x80000044
       23415000	      2340	800028e4	a0142e93	slti	x29,x8,-1535	  x8:0x80000044 x29=0x00000001
       23425000	      2341	800028e8	00e59c63	bne	x11,x14,80002900	 x11:0x00000000 x14:0x000a7dae
       23435000	      2342	00000000	00000013	addi	x0,x0,0	  x0:0x00000000
       23445000	      2343	800028fc	00000013	addi	x0,x0,0	  x0:0x00000000
       23455000	      2344	80002900	2daff293	andi	x5,x31,730	 x31:0xa7dae000  x5=0x00000000
       23465000	      2345	80002904	01745863	bge	x8,x23,80002914	  x8:0x80000044 x23:0xb5a1008a
       23475000	      2346	80002908	d609ac93	slti	x25,x19,-672	 x19:0x0000008a x25=0x00000000
       23485000	      2347	8000290c	016d9ab3	sll	x21,x27,x22	 x27:0xb5a101ba x22:0x00002773 x21=0x0dd00000
       23495000	      2348	80002910	91b2c413	xori	x8,x5,-1765	  x5:0x00000000  x8=0xfffff91b
       23505000	      2349	80002914	0153dab3	srl	x21,x7,x21	  x7:0x00000001 x21:0x0dd00000 x21=0x00000001
       23515000	      2350	80002918	003dc133	xor	x2,x27,x3	 x27:0xb5a101ba  x3:0xfff64815  x2=0x4a5749af
       23525000	      2351	8000291c	40fc5d93	srai	x27,x24,0xf	 x24:0x80009fc4 x27=0xffff0001
       23535000	      2352	80002920	02a98863	beq	x19,x10,80002950	 x19:0x0000008a x10:0x80000000
       23545000	      2353	80002924	00000013	addi	x0,x0,0	  x0:0x00000000
       23555000	      2354	80002928	00069693	slli	x13,x13,0x0	 x13:0x3ce09898 x13=0x3ce09898
       23565000	      2355	8000292c	417fd993	srai	x19,x31,0x17	 x31:0xa7dae000 x19=0xffffff4f
       23575000	      2356	80002930	03be8c63	beq	x29,x27,80002968	 x29:0x00000001 x27:0xffff0001
       23585000	      2357	80002934	055bf463	bgeu	x23,x21,8000297c	 x23:0xb5a1008a x21:0x00000001
       23595000	      2358	00000000	00000013	addi	x0,x0,0	  x0:0x00000000
       23605000	      2359	80002978	00000013	addi	x0,x0,0	  x0:0x00000000
       23615000	      2360	8000297c	01ec0433	add	x8,x24,x30	 x24:0x80009fc4 x30:0x80009f75  x8=0x00013f39
       23625000	      2361	80002980	01a113b3	sll	x7,x2,x26	  x2:0x4a5749af x26:0xffffff98  x7=0xaf000000
       23635000	      2362	80002984	411e5fb3	sra	x31,x28,x17	 x28:0x80000000 x17:0x800087e5 x31=0xfc000000
       23645000	      2363	80002988	407d58b3	sra	x17,x26,x7	 x26:0xffffff98  x7:0xaf000000 x17=0xffffff98
       23655000	      2364	8000298c	954f3b93	sltiu	x23,x30,-1708	 x30:0x80009f75 x23=0x00000001
       23665000	      2365	80002990	014e72b3	and	x5,x28,x20	 x28:0x80000000 x20:0xffff9e68  x5=0x80000000
       23675000	      2366	80002994	05b65263	bge	x12,x27,800029d8	 x12:0x0000b902 x27:0xffff0001
       23685000	      2367	00000000	00000013	addi	x0,x0,0	  x0:0x00000000
       23695000	      2368	800029d4	00000013	addi	x0,x0,0	  x0:0x00000000
       23705000	      2369	800029d8	0162d033	srl	x0,x5,x22	  x5:0x80000000 x22:0x00002773
       23715000	      2370	800029dc	42e0b8b7	lui	x17,0x42e0b	 x17=0x42e0b000
       23725000	      2371	800029e0	0186a5b3	slt	x11,x13,x24	 x13:0x3ce09898 x24:0x80009fc4 x11=0x00000000
       23735000	      2372	800029e4	04535463	bge	x6,x5,80002a2c	  x6:0x00000000  x5:0x80000000
       23745000	      2373	00000000	00000013	addi	x0,x0,0	  x0:0x00000000
       23755000	      2374	80002a28	00000013	addi	x0,x0,0	  x0:0x00000000
       23765000	      2375	80002a2c	c61fc717	auipc	x14,0xc61fc	 x14=0x461fea28
       23775000	      2376	80002a30	01c3cc63	blt	x7,x28,80002a48	  x7:0xaf000000 x28:0x80000000
       23785000	      2377	80002a34	43467793	andi	x15,x12,1076	 x12:0x0000b902 x15=0x00000000
       23795000	      2378	80002a38	047c6063	bltu	x24,x7,80002a78	 x24:0x80009fc4  x7:0xaf000000
       23805000	      2379	00000000	00000013	addi	x0,x0,0	  x0:0x00000000
       23815000	      2380	80002a74	00000013	addi	x0,x0,0	  x0:0x00000000
       23825000	      2381	80002a78	06e76293	ori	x5,x14,110	 x14:0x461fea28  x5=0x461fea6e
       23835000	      2382	80002a7c	00c4f433	and	x8,x9,x12	  x9:0x000a7daf x12:0x0000b902  x8=0x00003902
       23845000	      2383	80002a80	410f03b3	sub	x7,x30,x16	 x30:0x80009f75 x16:0x0000002b  x7=0x80009f4a
       23855000	      2384	80002a84	004881b3	add	x3,x17,x4	 x17:0x42e0b000  x4:0xdc3158a0  x3=0x1f1208a0
       23865000	      2385	80002a88	4144d793	srai	x15,x9,0x14	  x9:0x000a7daf x15=0x00000000
       23875000	      2386	80002a8c	01396863	bltu	x18,x19,80002a9c	 x18:0x80009f74 x19:0xffffff4f
       23885000	      2387	00000000	00000013	addi	x0,x0,0	  x0:0x00000000
       23895000	      2388	80002a98	00000013	addi	x0,x0,0	  x0:0x00000000
       23905000	      2389	80002a9c	9fa16213	ori	x4,x2,-1542	  x2:0x4a5749af  x4=0xfffff9ff
       23915000	      2390	80002aa0	04918463	beq	x3,x9,80002ae8	  x3:0x1f1208a0  x9:0x000a7daf
       23925000	      2391	80002aa4	4c4c7493	andi	x9,x24,1220	 x24:0x80009fc4  x9=0x000004c4
       23935000	      2392	80002aa8	01e41b33	sll	x22,x8,x30	  x8:0x00003902 x30:0x80009f75 x22=0x20400000
       23945000	      2393	80002aac	d1bb83b7	lui	x7,0xd1bb8	  x7=0xd1bb8000
       23955000	      2394	80002ab0	22633837	lui	x16,0x22633	 x16=0x22633000
       23965000	      2395	80002ab4	00a88b33	add	x22,x17,x10	 x17:0x42e0b000 x10:0x80000000 x22=0xc2e0b000
       23975000	      2396	80002ab8	007464b3	or	x9,x8,x7	  x8:0x00003902  x7:0xd1bb8000  x9=0xd1bbb902
       23985000	      2397	80002abc	004a6cb3	or	x25,x20,x4	 x20:0xffff9e68  x4:0xfffff9ff x25=0xffffffff
       23995000	      2398	80002ac0	04d88663	beq	x17,x13,80002b0c	 x17:0x42e0b000 x13:0x3ce09898
       24005000	      2399	80002ac4	e3ccc337	lui	x6,0xe3ccc	  x6=0xe3ccc000
       24015000	      2400	80002ac8	0006af33	slt	x30,x13,x0	 x13:0x3ce09898  x0:0x00000000 x30=0x00000000
       24025000	      2401	80002acc	00819693	slli	x13,x3,0x8	  x3:0x1f1208a0 x13=0x1208a000
       24035000	      2402	80002ad0	02966063	bltu	x12,x9,80002af0	 x12:0x0000b902  x9:0xd1bbb902
       24045000	      2403	00000000	00000013	addi	x0,x0,0	  x0:0x00000000
       24055000	      2404	80002aec	00000013	addi	x0,x0,0	  x0:0x00000000
       24065000	      2405	80002af0	00551033	sll	x0,x10,x5	 x10:0x80000000  x5:0x461fea6e
       24075000	      2406	80002af4	004341b3	xor	x3,x6,x4	  x6:0xe3ccc000  x4:0xfffff9ff  x3=0x1c3339ff
       24085000	      2407	80002af8	00a6ad33	slt	x26,x13,x10	 x13:0x1208a000 x10:0x80000000 x26=0x00000000
       24095000	      2408	80002afc	406e4693	xori	x13,x28,1030	 x28:0x80000000 x13=0x80000406
       24105000	      2409	80002b00	010c7a63	bgeu	x24,x16,80002b14	 x24:0x80009fc4 x16:0x22633000
       24115000	      2410	00000000	00000013	addi	x0,x0,0	  x0:0x00000000
       24125000	      2411	80002b10	00000013	addi	x0,x0,0	  x0:0x00000000
       24135000	      2412	80002b14	002e8433	add	x8,x29,x2	 x29:0x00000001  x2:0x4a5749af  x8=0x4a5749b0
       24145000	      2413	80002b18	b2e23313	sltiu	x6,x4,-1234	  x4:0xfffff9ff  x6=0x00000001
       24155000	      2414	80002b1c	407089b3	sub	x19,x1,x7	  x1:0xd92057d8  x7:0xd1bb8000 x19=0x0764d7d8
       24165000	      2415	80002b20	402e0ab3	sub	x21,x28,x2	 x28:0x80000000  x2:0x4a5749af x21=0x35a8b651
       24175000	      2416	80002b24	000142b3	xor	x5,x2,x0	  x2:0x4a5749af  x0:0x00000000  x5=0x4a5749af
       24185000	      2417	80002b28	40118833	sub	x16,x3,x1	  x3:0x1c3339ff  x1:0xd92057d8 x16=0x4312e227
       24195000	      2418	80002b2c	f9e78393	addi	x7,x15,-98	 x15:0x00000000  x7=0xffffff9e
       24205000	      2419	80002b30	5adc0493	addi	x9,x24,1453	 x24:0x80009fc4  x9=0x8000a571
       24215000	      2420	80002b34	8269c613	xori	x12,x19,-2010	 x19:0x0764d7d8 x12=0xf89b2ffe
       24225000	      2421	80002b38	1e16e493	ori	x9,x13,481	 x13:0x80000406  x9=0x800005e7
       24235000	      2422	80002b3c	032f1063	bne	x30,x18,80002b5c	 x30:0x00000000 x18:0x80009f74
       24245000	      2423	00000000	00000013	addi	x0,x0,0	  x0:0x00000000
       24255000	      2424	80002b58	00000013	addi	x0,x0,0	  x0:0x00000000
       24265000	      2425	80002b5c	003da333	slt	x6,x27,x3	 x27:0xffff0001  x3:0x1c3339ff  x6=0x00000001
       24275000	      2426	80002b60	b70de213	ori	x4,x27,-1168	 x27:0xffff0001  x4=0xfffffb71
       24285000	      2427	80002b64	05d39463	bne	x7,x29,80002bac	  x7:0xffffff9e x29:0x00000001
       24295000	      2428	00000000	00000013	addi	x0,x0,0	  x0:0x00000000
       24305000	      2429	80002ba8	00000013	addi	x0,x0,0	  x0:0x00000000
       24315000	      2430	80002bac	0518ff13	andi	x30,x17,81	 x17:0x42e0b000 x30=0x00000000
       24325000	      2431	80002bb0	00454e63	blt	x10,x4,80002bcc	 x10:0x80000000  x4:0xfffffb71
       24335000	      2432	00000000	00000013	addi	x0,x0,0	  x0:0x00000000
       24345000	      2433	80002bc8	00000013	addi	x0,x0,0	  x0:0x00000000
       24355000	      2434	80002bcc	000c5e63	bge	x24,x0,80002be8	 x24:0x80009fc4  x0:0x00000000
       24365000	      2435	80002bd0	003009b3	add	x19,x0,x3	  x0:0x00000000  x3:0x1c3339ff x19=0x1c3339ff
       24375000	      2436	80002bd4	c66ac193	xori	x3,x21,-922	 x21:0x35a8b651  x3=0xca574a37
       24385000	      2437	80002bd8	019d7863	bgeu	x26,x25,80002be8	 x26:0x00000000 x25:0xffffffff
       24395000	      2438	80002bdc	04bde463	bltu	x27,x11,80002c24	 x27:0xffff0001 x11:0x00000000
       24405000	      2439	80002be0	353d6ab7	lui	x21,0x353d6	 x21=0x353d6000
       24415000	      2440	80002be4	01a3d8b3	srl	x17,x7,x26	  x7:0xffffff9e x26:0x00000000 x17=0xffffff9e
       24425000	      2441	80002be8	00000013	addi	x0,x0,0	  x0:0x00000000
       24435000	      2442	80002bec	01c2a7b3	slt	x15,x5,x28	  x5:0x4a5749af x28:0x80000000 x15=0x00000000
       24445000	      2443	80002bf0	01124d33	xor	x26,x4,x17	  x4:0xfffffb71 x17:0xffffff9e x26=0x000004ef
       24455000	      2444	80002bf4	01a81233	sll	x4,x16,x26	 x16:0x4312e227 x26:0x000004ef  x4=0x71138000
       24465000	      2445	80002bf8	1492ab13	slti	x22,x5,329	  x5:0x4a5749af x22=0x00000000
       24475000	      2446	80002bfc	956ffd13	andi	x26,x31,-1706	 x31:0xfc000000 x26=0xfc000000
       24485000	      2447	80002c00	ba7f3813	sltiu	x16,x30,-1113	 x30:0x00000000 x16=0x00000001
       24495000	      2448	80002c04	9233edb7	lui	x27,0x9233e	 x27=0x9233e000
       24505000	      2449	80002c08	04a7d263	bge	x15,x10,80002c4c	 x15:0x00000000 x10:0x80000000
       24515000	      2450	00000000	00000013	addi	x0,x0,0	  x0:0x00000000
       24525000	      2451	80002c48	00000013	addi	x0,x0,0	  x0:0x00000000
       24535000	      2452	80002c4c	962d6793	ori	x15,x26,-1694	 x26:0xfc000000 x15=0xfffff962
       24545000	      2453	80002c50	5da76f93	ori	x31,x14,1498	 x14:0x461fea28 x31=0x461feffa
       24555000	      2454	80002c54	01caa733	slt	x14,x21,x28	 x21:0x353d6000 x28:0x80000000 x14=0x00000000
       24565000	      2455	80002c58	9ff5e413	ori	x8,x11,-1537	 x11:0x00000000  x8=0xfffff9ff
       24575000	      2456	80002c5c	010d1263	bne	x26,x16,80002c60	 x26:0xfc000000 x16:0x00000001
       24585000	      2457	00000000	00000013	addi	x0,x0,0	  x0:0x00000000
       24595000	      2458	80002c5c	00000013	addi	x0,x0,0	  x0:0x00000000
       24605000	      2459	80002c60	03d88c63	beq	x17,x29,80002c98	 x17:0xffffff9e x29:0x00000001
       24615000	      2460	80002c64	01068f33	add	x30,x13,x16	 x13:0x80000406 x16:0x00000001 x30=0x80000407
       24625000	      2461	80002c68	4f8c2f93	slti	x31,x24,1272	 x24:0x80009fc4 x31=0x00000001
       24635000	      2462	80002c6c	002b4d33	xor	x26,x22,x2	 x22:0x00000000  x2:0x4a5749af x26=0x4a5749af
       24645000	      2463	80002c70	01cc4263	blt	x24,x28,80002c74	 x24:0x80009fc4 x28:0x80000000
       24655000	      2464	80002c74	01618bb3	add	x23,x3,x22	  x3:0xca574a37 x22:0x00000000 x23=0xca574a37
       24665000	      2465	80002c78	00e8c863	blt	x17,x14,80002c88	 x17:0xffffff9e x14:0x00000000
       24675000	      2466	00000000	00000013	addi	x0,x0,0	  x0:0x00000000
       24685000	      2467	80002c84	00000013	addi	x0,x0,0	  x0:0x00000000
       24695000	      2468	80002c88	41ddda13	srai	x20,x27,0x1d	 x27:0x9233e000 x20=0xfffffffc
       24705000	      2469	80002c8c	002bdf93	srli	x31,x23,0x2	 x23:0xca574a37 x31=0x3295d28d
       24715000	      2470	80002c90	00f98433	add	x8,x19,x15	 x19:0x1c3339ff x15:0xfffff962  x8=0x1c333361
       24725000	      2471	80002c94	0458e463	bltu	x17,x5,80002cdc	 x17:0xffffff9e  x5:0x4a5749af
       24735000	      2472	80002c98	05858663	beq	x11,x24,80002ce4	 x11:0x00000000 x24:0x80009fc4
       24745000	      2473	80002c9c	01e6feb3	and	x29,x13,x30	 x13:0x80000406 x30:0x80000407 x29=0x80000406
       24755000	      2474	80002ca0	00ed5233	srl	x4,x26,x14	 x26:0x4a5749af x14:0x00000000  x4=0x4a5749af
       24765000	      2475	80002ca4	02d42013	slti	x0,x8,45	  x8:0x1c333361
       24775000	      2476	80002ca8	01bddab3	srl	x21,x27,x27	 x27:0x9233e000 x27:0x9233e000 x21=0x9233e000
       24785000	      2477	80002cac	013041b3	xor	x3,x0,x19	  x0:0x00000000 x19:0x1c3339ff  x3=0x1c3339ff
       24795000	      2478	80002cb0	0534c463	blt	x9,x19,80002cf8	  x9:0x800005e7 x19:0x1c3339ff
       24805000	      2479	00000000	00000013	addi	x0,x0,0	  x0:0x00000000
       24815000	      2480	80002cf4	00000013	addi	x0,x0,0	  x0:0x00000000
       24825000	      2481	80002cf8	016cc263	blt	x25,x22,80002cfc	 x25:0xffffffff x22:0x00000000
       24835000	      2482	00000000	00000013	addi	x0,x0,0	  x0:0x00000000
       24845000	      2483	80002cf8	00000013	addi	x0,x0,0	  x0:0x00000000
       24855000	      2484	80002cfc	01ea7ab3	and	x21,x20,x30	 x20:0xfffffffc x30:0x80000407 x21=0x80000404
       24865000	      2485	80002d00	00e60493	addi	x9,x12,14	 x12:0xf89b2ffe  x9=0xf89b300c
       24875000	      2486	80002d04	00902ab3	slt	x21,x0,x9	  x0:0x00000000  x9:0xf89b300c x21=0x00000000
       24885000	      2487	80002d08	dadfd5b7	lui	x11,0xdadfd	 x11=0xdadfd000
       24895000	      2488	80002d0c	006381b3	add	x3,x7,x6	  x7:0xffffff9e  x6:0x00000001  x3=0xffffff9f
       24905000	      2489	80002d10	0503d263	bge	x7,x16,80002d54	  x7:0xffffff9e x16:0x00000001
       24915000	      2490	80002d14	40475433	sra	x8,x14,x4	 x14:0x00000000  x4:0x4a5749af  x8=0x00000000
       24925000	      2491	80002d18	40f35813	srai	x16,x6,0xf	  x6:0x00000001 x16=0x00000000
       24935000	      2492	80002d1c	01302db3	slt	x27,x0,x19	  x0:0x00000000 x19:0x1c3339ff x27=0x00000001
       24945000	      2493	80002d20	015574b3	and	x9,x10,x21	 x10:0x80000000 x21:0x00000000  x9=0x00000000
       24955000	      2494	80002d24	00000013	addi	x0,x0,0	  x0:0x00000000
       24965000	      2495	80002d28	01951263	bne	x10,x25,80002d2c	 x10:0x80000000 x25:0xffffffff
       24975000	      2496	00000000	00000013	addi	x0,x0,0	  x0:0x00000000
       24985000	      2497	80002d28	00000013	addi	x0,x0,0	  x0:0x00000000
       24995000	      2498	80002d2c	04e81063	bne	x16,x14,80002d6c	 x16:0x00000000 x14:0x00000000
       25005000	      2499	80002d30	05b97863	bgeu	x18,x27,80002d80	 x18:0x80009f74 x27:0x00000001
       25015000	      2500	00000000	00000013	addi	x0,x0,0	  x0:0x00000000
       25025000	      2501	80002d7c	00000013	addi	x0,x0,0	  x0:0x00000000
       25035000	      2502	80002d80	02e3e863	bltu	x7,x14,80002db0	  x7:0xffffff9e x14:0x00000000
       25045000	      2503	80002d84	01a52db3	slt	x27,x10,x26	 x10:0x80000000 x26:0x4a5749af x27=0x00000001
       25055000	      2504	80002d88	ced86817	auipc	x16,0xced86	 x16=0x4ed88d84
       25065000	      2505	80002d8c	007e91b3	sll	x3,x29,x7	 x29:0x80000406  x7:0xffffff9e  x3=0x80000000
       25075000	      2506	80002d90	004d9413	slli	x8,x27,0x4	 x27:0x00000001  x8=0x00000010
       25085000	      2507	80002d94	00261e63	bne	x12,x2,80002db0	 x12:0xf89b2ffe  x2:0x4a5749af
       25095000	      2508	00000000	00000013	addi	x0,x0,0	  x0:0x00000000
       25105000	      2509	80002dac	00000013	addi	x0,x0,0	  x0:0x00000000
       25115000	      2510	80002db0	007829b3	slt	x19,x16,x7	 x16:0x4ed88d84  x7:0xffffff9e x19=0x00000000
       25125000	      2511	80002db4	010304b3	add	x9,x6,x16	  x6:0x00000001 x16:0x4ed88d84  x9=0x4ed88d85
       25135000	      2512	80002db8	010f5393	srli	x7,x30,0x10	 x30:0x80000407  x7=0x00008000
       25145000	      2513	80002dbc	403b5093	srai	x1,x22,0x3	 x22:0x00000000  x1=0x00000000
       25155000	      2514	80002dc0	00f43d33	sltu	x26,x8,x15	  x8:0x00000010 x15:0xfffff962 x26=0x00000001
       25165000	      2515	80002dc4	00c7da13	srli	x20,x15,0xc	 x15:0xfffff962 x20=0x000fffff
       25175000	      2516	80002dc8	01896833	or	x16,x18,x24	 x18:0x80009f74 x24:0x80009fc4 x16=0x80009ff4
       25185000	      2517	80002dcc	0131d4b3	srl	x9,x3,x19	  x3:0x80000000 x19:0x00000000  x9=0x80000000
       25195000	      2518	80002dd0	00ab9033	sll	x0,x23,x10	 x23:0xca574a37 x10:0x80000000
       25205000	      2519	80002dd4	00691f13	slli	x30,x18,0x6	 x18:0x80009f74 x30=0x0027dd00
       25215000	      2520	80002dd8	00501263	bne	x0,x5,80002ddc	  x0:0x00000000  x5:0x4a5749af
       25225000	      2521	00000000	00000013	addi	x0,x0,0	  x0:0x00000000
       25235000	      2522	80002dd8	00000013	addi	x0,x0,0	  x0:0x00000000
       25245000	      2523	80002ddc	03c72593	slti	x11,x14,60	 x14:0x00000000 x11=0x00000001
       25255000	      2524	80002de0	b3323093	sltiu	x1,x4,-1229	  x4:0x4a5749af  x1=0x00000001
       25265000	      2525	80002de4	406109b3	sub	x19,x2,x6	  x2:0x4a5749af  x6:0x00000001 x19=0x4a5749ae
       25275000	      2526	80002de8	00695633	srl	x12,x18,x6	 x18:0x80009f74  x6:0x00000001 x12=0x40004fba
       25285000	      2527	80002dec	00e35593	srli	x11,x6,0xe	  x6:0x00000001 x11=0x00000000
       25295000	      2528	80002df0	8456bd13	sltiu	x26,x13,-1979	 x13:0x80000406 x26=0x00000001
       25305000	      2529	80002df4	005edeb3	srl	x29,x29,x5	 x29:0x80000406  x5:0x4a5749af x29=0x00010000
       25315000	      2530	80002df8	d8e43a93	sltiu	x21,x8,-626	  x8:0x00000010 x21=0x00000001
       25325000	      2531	80002dfc	01f4ea63	bltu	x9,x31,80002e10	  x9:0x80000000 x31:0x3295d28d
       25335000	      2532	80002e00	42916993	ori	x19,x2,1065	  x2:0x4a5749af x19=0x4a574daf
       25345000	      2533	80002e04	41a95b93	srai	x23,x18,0x1a	 x18:0x80009f74 x23=0xffffffe0
       25355000	      2534	80002e08	2d446a93	ori	x21,x8,724	  x8:0x00000010 x21=0x000002d4
       25365000	      2535	80002e0c	41412eb7	lui	x29,0x41412	 x29=0x41412000
       25375000	      2536	80002e10	00c5a133	slt	x2,x11,x12	 x11:0x00000000 x12:0x40004fba  x2=0x00000001
       25385000	      2537	80002e14	00000013	addi	x0,x0,0	  x0:0x00000000
       25395000	      2538	80002e18	04346063	bltu	x8,x3,80002e58	  x8:0x00000010  x3:0x80000000
       25405000	      2539	00000000	00000013	addi	x0,x0,0	  x0:0x00000000
       25415000	      2540	80002e54	00000013	addi	x0,x0,0	  x0:0x00000000
       25425000	      2541	80002e58	417fd233	sra	x4,x31,x23	 x31:0x3295d28d x23:0xffffffe0  x4=0x3295d28d
       25435000	      2542	80002e5c	016933b3	sltu	x7,x18,x22	 x18:0x80009f74 x22:0x00000000  x7=0x00000000
       25445000	      2543	80002e60	40f98cb3	sub	x25,x19,x15	 x19:0x4a574daf x15:0xfffff962 x25=0x4a57544d
       25455000	      2544	80002e64	757a4497	auipc	x9,0x757a4	  x9=0xf57a6e60
       25465000	      2545	80002e68	00000013	addi	x0,x0,0	  x0:0x00000000
       25475000	      2546	80002e6c	01ce3e33	sltu	x28,x28,x28	 x28:0x80000000 x28:0x80000000 x28=0x00000000
       25485000	      2547	80002e70	01b78633	add	x12,x15,x27	 x15:0xfffff962 x27:0x00000001 x12=0xfffff963
       25495000	      2548	80002e74	dda54d13	xori	x26,x10,-550	 x10:0x80000000 x26=0x7ffffdda
       25505000	      2549	80002e78	013b7cb3	and	x25,x22,x19	 x22:0x00000000 x19:0x4a574daf x25=0x00000000
       25515000	      2550	80002e7c	32ea5217	auipc	x4,0x32ea5	  x4=0xb2ea7e78
       25525000	      2551	80002e80	0c4ebb13	sltiu	x22,x29,196	 x29:0x41412000 x22=0x00000000
       25535000	      2552	80002e84	01360433	add	x8,x12,x19	 x12:0xfffff963 x19:0x4a574daf  x8=0x4a574712
       25545000	      2553	80002e88	00720f33	add	x30,x4,x7	  x4:0xb2ea7e78  x7:0x00000000 x30=0xb2ea7e78
       25555000	      2554	80002e8c	3c283293	sltiu	x5,x16,962	 x16:0x80009ff4  x5=0x00000000
       25565000	      2555	80002e90	01f8ce63	blt	x17,x31,80002eac	 x17:0xffffff9e x31:0x3295d28d
       25575000	      2556	00000000	00000013	addi	x0,x0,0	  x0:0x00000000
       25585000	      2557	80002ea8	00000013	addi	x0,x0,0	  x0:0x00000000
       25595000	      2558	80002eac	41f60633	sub	x12,x12,x31	 x12:0xfffff963 x31:0x3295d28d x12=0xcd6a26d6
       25605000	      2559	80002eb0	013d2ab3	slt	x21,x26,x19	 x26:0x7ffffdda x19:0x4a574daf x21=0x00000000
       25615000	      2560	80002eb4	00776333	or	x6,x14,x7	 x14:0x00000000  x7:0x00000000  x6=0x00000000
       25625000	      2561	80002eb8	00cd1a63	bne	x26,x12,80002ecc	 x26:0x7ffffdda x12:0xcd6a26d6
       25635000	      2562	00000000	00000013	addi	x0,x0,0	  x0:0x00000000
       25645000	      2563	80002ec8	00000013	addi	x0,x0,0	  x0:0x00000000
       25655000	      2564	80002ecc	01709193	slli	x3,x1,0x17	  x1:0x00000001  x3=0x00800000
       25665000	      2565	80002ed0	01cf1233	sll	x4,x30,x28	 x30:0xb2ea7e78 x28:0x00000000  x4=0xb2ea7e78
       25675000	      2566	80002ed4	b8820d93	addi	x27,x4,-1144	  x4:0xb2ea7e78 x27=0xb2ea7a00
       25685000	      2567	80002ed8	64ca8013	addi	x0,x21,1612	 x21:0x00000000
       25695000	      2568	80002edc	011e8733	add	x14,x29,x17	 x29:0x41412000 x17:0xffffff9e x14=0x41411f9e
       25705000	      2569	80002ee0	f58bb717	auipc	x14,0xf58bb	 x14=0x758bdedc
       25715000	      2570	80002ee4	032b0e63	beq	x22,x18,80002f20	 x22:0x00000000 x18:0x80009f74
       25725000	      2571	80002ee8	01249f13	slli	x30,x9,0x12	  x9:0xf57a6e60 x30=0xb9800000
       25735000	      2572	80002eec	04448863	beq	x9,x4,80002f3c	  x9:0xf57a6e60  x4:0xb2ea7e78
       25745000	      2573	80002ef0	021ad863	bge	x21,x1,80002f20	 x21:0x00000000  x1:0x00000001
       25755000	      2574	80002ef4	00d17c63	bgeu	x2,x13,80002f0c	  x2:0x00000001 x13:0x80000406
       25765000	      2575	80002ef8	018dd193	srli	x3,x27,0x18	 x27:0xb2ea7a00  x3=0x000000b2
       25775000	      2576	80002efc	05196e93	ori	x29,x18,81	 x18:0x80009f74 x29=0x80009f75
       25785000	      2577	80002f00	7c6fce13	xori	x28,x31,1990	 x31:0x3295d28d x28=0x3295d54b
       25795000	      2578	80002f04	4122d3b3	sra	x7,x5,x18	  x5:0x00000000 x18:0x80009f74  x7=0x00000000
       25805000	      2579	80002f08	405bd193	srai	x3,x23,0x5	 x23:0xffffffe0  x3=0xffffffff
       25815000	      2580	80002f0c	052d0463	beq	x26,x18,80002f54	 x26:0x7ffffdda x18:0x80009f74
       25825000	      2581	80002f10	00653233	sltu	x4,x10,x6	 x10:0x80000000  x6:0x00000000  x4=0x00000000
       25835000	      2582	80002f14	00000013	addi	x0,x0,0	  x0:0x00000000
       25845000	      2583	80002f18	002ade33	srl	x28,x21,x2	 x21:0x00000000  x2:0x00000001 x28=0x00000000
       25855000	      2584	80002f1c	20777413	andi	x8,x14,519	 x14:0x758bdedc  x8=0x00000204
       25865000	      2585	80002f20	008b1e63	bne	x22,x8,80002f3c	 x22:0x00000000  x8:0x00000204
       25875000	      2586	00000000	00000013	addi	x0,x0,0	  x0:0x00000000
       25885000	      2587	80002f38	00000013	addi	x0,x0,0	  x0:0x00000000
       25895000	      2588	80002f3c	00347c63	bgeu	x8,x3,80002f54	  x8:0x00000204  x3:0xffffffff
       25905000	      2589	80002f40	007a1993	slli	x19,x20,0x7	 x20:0x000fffff x19=0x07ffff80
       25915000	      2590	80002f44	6486af13	slti	x30,x13,1608	 x13:0x80000406 x30=0x00000001
       25925000	      2591	80002f48	7b2a6193	ori	x3,x20,1970	 x20:0x000fffff  x3=0x000fffff
       25935000	      2592	80002f4c	a30f8a93	addi	x21,x31,-1488	 x31:0x3295d28d x21=0x3295ccbd
       25945000	      2593	80002f50	02ba5063	bge	x20,x11,80002f70	 x20:0x000fffff x11:0x00000000
       25955000	      2594	00000000	00000013	addi	x0,x0,0	  x0:0x00000000
       25965000	      2595	80002f6c	00000013	addi	x0,x0,0	  x0:0x00000000
       25975000	      2596	80002f70	015e9e63	bne	x29,x21,80002f8c	 x29:0x80009f75 x21:0x3295ccbd
       25985000	      2597	00000000	00000013	addi	x0,x0,0	  x0:0x00000000
       25995000	      2598	80002f88	00000013	addi	x0,x0,0	  x0:0x00000000
       26005000	      2599	80002f8c	04137463	bgeu	x6,x1,80002fd4	  x6:0x00000000  x1:0x00000001
       26015000	      2600	80002f90	f7eac093	xori	x1,x21,-130	 x21:0x3295ccbd  x1=0xcd6a33c3
       26025000	      2601	80002f94	56a5e8b7	lui	x17,0x56a5e	 x17=0x56a5e000
       26035000	      2602	80002f98	3c4b2693	slti	x13,x22,964	 x22:0x00000000 x13=0x00000001
       26045000	      2603	80002f9c	01499eb3	sll	x29,x19,x20	 x19:0x07ffff80 x20:0x000fffff x29=0x00000000
       26055000	      2604	80002fa0	00dc9013	slli	x0,x25,0xd	 x25:0x00000000
       26065000	      2605	80002fa4	00000013	addi	x0,x0,0	  x0:0x00000000
       26075000	      2606	80002fa8	0687f813	andi	x16,x15,104	 x15:0xfffff962 x16=0x00000060
       26085000	      2607	80002fac	45742393	slti	x7,x8,1111	  x8:0x00000204  x7=0x00000001
       26095000	      2608	80002fb0	01d45993	srli	x19,x8,0x1d	  x8:0x00000204 x19=0x00000000
       26105000	      2609	80002fb4	013f9f93	slli	x31,x31,0x13	 x31:0x3295d28d x31=0x94680000
       26115000	      2610	80002fb8	01707663	bgeu	x0,x23,80002fc4	  x0:0x00000000 x23:0xffffffe0
       26125000	      2611	80002fbc	01456263	bltu	x10,x20,80002fc0	 x10:0x80000000 x20:0x000fffff
       26135000	      2612	80002fc0	41ccd7b3	sra	x15,x25,x28	 x25:0x00000000 x28:0x00000000 x15=0x00000000
       26145000	      2613	80002fc4	013d5263	bge	x26,x19,80002fc8	 x26:0x7ffffdda x19:0x00000000
       26155000	      2614	00000000	00000013	addi	x0,x0,0	  x0:0x00000000
       26165000	      2615	80002fc4	00000013	addi	x0,x0,0	  x0:0x00000000
       26175000	      2616	80002fc8	01355633	srl	x12,x10,x19	 x10:0x80000000 x19:0x00000000 x12=0x80000000
       26185000	      2617	80002fcc	0167d4b3	srl	x9,x15,x22	 x15:0x00000000 x22:0x00000000  x9=0x00000000
       26195000	      2618	80002fd0	00f9aa33	slt	x20,x19,x15	 x19:0x00000000 x15:0x00000000 x20=0x00000000
       26205000	      2619	80002fd4	031d9663	bne	x27,x17,80003000	 x27:0xb2ea7a00 x17:0x56a5e000
       26215000	      2620	00000000	00000013	addi	x0,x0,0	  x0:0x00000000
       26225000	      2621	80002ffc	00000013	addi	x0,x0,0	  x0:0x00000000
       26235000	      2622	80003000	b9d38393	addi	x7,x7,-1123	  x7:0x00000001  x7=0xfffffb9e
       26245000	      2623	80003004	40c251b3	sra	x3,x4,x12	  x4:0x00000000 x12:0x80000000  x3=0x00000000
       26255000	      2624	80003008	0580d063	bge	x1,x24,80003048	  x1:0xcd6a33c3 x24:0x80009fc4
       26265000	      2625	00000000	00000013	addi	x0,x0,0	  x0:0x00000000
       26275000	      2626	80003044	00000013	addi	x0,x0,0	  x0:0x00000000
       26285000	      2627	80003048	01e546b3	xor	x13,x10,x30	 x10:0x80000000 x30:0x00000001 x13=0x80000001
       26295000	      2628	8000304c	00060a33	add	x20,x12,x0	 x12:0x80000000  x0:0x00000000 x20=0x80000000
       26305000	      2629	80003050	009480b3	add	x1,x9,x9	  x9:0x00000000  x9:0x00000000  x1=0x00000000
       26315000	      2630	80003054	559cbd93	sltiu	x27,x25,1369	 x25:0x00000000 x27=0x00000001
       26325000	      2631	80003058	00883433	sltu	x8,x16,x8	 x16:0x00000060  x8:0x00000204  x8=0x00000001
       26335000	      2632	8000305c	005848b3	xor	x17,x16,x5	 x16:0x00000060  x5:0x00000000 x17=0x00000060
       26345000	      2633	80003060	0073d863	bge	x7,x7,80003070	  x7:0xfffffb9e  x7:0xfffffb9e
       26355000	      2634	00000000	00000013	addi	x0,x0,0	  x0:0x00000000
       26365000	      2635	8000306c	00000013	addi	x0,x0,0	  x0:0x00000000
       26375000	      2636	80003070	01c0e5b3	or	x11,x1,x28	  x1:0x00000000 x28:0x00000000 x11=0x00000000
       26385000	      2637	80003074	019fed33	or	x26,x31,x25	 x31:0x94680000 x25:0x00000000 x26=0x94680000
       26395000	      2638	80003078	73725ab7	lui	x21,0x73725	 x21=0x73725000
       26405000	      2639	8000307c	02360863	beq	x12,x3,800030ac	 x12:0x80000000  x3:0x00000000
       26415000	      2640	80003080	417254b3	sra	x9,x4,x23	  x4:0x00000000 x23:0xffffffe0  x9=0x00000000
       26425000	      2641	80003084	c61ae617	auipc	x12,0xc61ae	 x12=0x461b1080
       26435000	      2642	80003088	05ccd463	bge	x25,x28,800030d0	 x25:0x00000000 x28:0x00000000
       26445000	      2643	00000000	00000013	addi	x0,x0,0	  x0:0x00000000
       26455000	      2644	800030cc	00000013	addi	x0,x0,0	  x0:0x00000000
       26465000	      2645	800030d0	b9307c93	andi	x25,x0,-1133	  x0:0x00000000 x25=0x00000000
       26475000	      2646	800030d4	cf2df613	andi	x12,x27,-782	 x27:0x00000001 x12=0x00000000
       26485000	      2647	800030d8	117fcd93	xori	x27,x31,279	 x31:0x94680000 x27=0x94680117
       26495000	      2648	800030dc	419ed093	srai	x1,x29,0x19	 x29:0x00000000  x1=0x00000000
       26505000	      2649	800030e0	00d85a63	bge	x16,x13,800030f4	 x16:0x00000060 x13:0x80000001
       26515000	      2650	00000000	00000013	addi	x0,x0,0	  x0:0x00000000
       26525000	      2651	800030f0	00000013	addi	x0,x0,0	  x0:0x00000000
       26535000	      2652	800030f4	00bfd8b3	srl	x17,x31,x11	 x31:0x94680000 x11:0x00000000 x17=0x94680000
       26545000	      2653	800030f8	d724eb13	ori	x22,x9,-654	  x9:0x00000000 x22=0xfffffd72
       26555000	      2654	800030fc	404587b3	sub	x15,x11,x4	 x11:0x00000000  x4:0x00000000 x15=0x00000000
       26565000	      2655	80003100	0a2f0e97	auipc	x29,0xa2f0	 x29=0x8a2f30fc
       26575000	      2656	80003104	4a2af713	andi	x14,x21,1186	 x21:0x73725000 x14=0x00000000
       26585000	      2657	80003108	56a40f13	addi	x30,x8,1386	  x8:0x00000001 x30=0x0000056b
       26595000	      2658	8000310c	0050cbb3	xor	x23,x1,x5	  x1:0x00000000  x5:0x00000000 x23=0x00000000
       26605000	      2659	80003110	00886863	bltu	x16,x8,80003120	 x16:0x00000060  x8:0x00000001
       26615000	      2660	80003114	0113cab3	xor	x21,x7,x17	  x7:0xfffffb9e x17:0x94680000 x21=0x6b97fb9e
       26625000	      2661	80003118	c8c80017	auipc	x0,0xc8c80	
       26635000	      2662	8000311c	e20f7793	andi	x15,x30,-480	 x30:0x0000056b x15=0x00000420
       26645000	      2663	80003120	82a31617	auipc	x12,0x82a31	 x12=0x02a3411c
       26655000	      2664	80003124	5af0ef13	ori	x30,x1,1455	  x1:0x00000000 x30=0x000005af
       26665000	      2665	80003128	51f38393	addi	x7,x7,1311	  x7:0xfffffb9e  x7=0x000000bd
       26675000	      2666	8000312c	00604263	blt	x0,x6,80003130	  x0:0x00000000  x6:0x00000000
       26685000	      2667	80003130	e867c1b7	lui	x3,0xe867c	  x3=0xe867c000
       26695000	      2668	80003134	00ebceb3	xor	x29,x23,x14	 x23:0x00000000 x14:0x00000000 x29=0x00000000
       26705000	      2669	80003138	01cc1613	slli	x12,x24,0x1c	 x24:0x80009fc4 x12=0x40000000
       26715000	      2670	8000313c	ff176c93	ori	x25,x14,-15	 x14:0x00000000 x25=0xfffffff1
       26725000	      2671	80003140	5e3cce13	xori	x28,x25,1507	 x25:0xfffffff1 x28=0xfffffa12
       26735000	      2672	80003144	016cfc63	bgeu	x25,x22,8000315c	 x25:0xfffffff1 x22:0xfffffd72
       26745000	      2673	00000000	00000013	addi	x0,x0,0	  x0:0x00000000
       26755000	      2674	80003158	00000013	addi	x0,x0,0	  x0:0x00000000
       26765000	      2675	8000315c	024f4063	blt	x30,x4,8000317c	 x30:0x000005af  x4:0x00000000
       26775000	      2676	80003160	98e40e93	addi	x29,x8,-1650	  x8:0x00000001 x29=0xfffff98f
       26785000	      2677	80003164	07abea13	ori	x20,x23,122	 x23:0x00000000 x20=0x0000007a
       26795000	      2678	80003168	00e02d33	slt	x26,x0,x14	  x0:0x00000000 x14:0x00000000 x26=0x00000000
       26805000	      2679	8000316c	03958c63	beq	x11,x25,800031a4	 x11:0x00000000 x25:0xfffffff1
       26815000	      2680	80003170	a823f013	andi	x0,x7,-1406	  x7:0x000000bd
       26825000	      2681	80003174	01351663	bne	x10,x19,80003180	 x10:0x80000000 x19:0x00000000
       26835000	      2682	00000000	00000013	addi	x0,x0,0	  x0:0x00000000
       26845000	      2683	8000317c	00000013	addi	x0,x0,0	  x0:0x00000000
       26855000	      2684	80003180	05c6d663	bge	x13,x28,800031cc	 x13:0x80000001 x28:0xfffffa12
       26865000	      2685	80003184	016221b3	slt	x3,x4,x22	  x4:0x00000000 x22:0xfffffd72  x3=0x00000000
       26875000	      2686	80003188	00b2fe63	bgeu	x5,x11,800031a4	  x5:0x00000000 x11:0x00000000
       26885000	      2687	00000000	00000013	addi	x0,x0,0	  x0:0x00000000
       26895000	      2688	800031a0	00000013	addi	x0,x0,0	  x0:0x00000000
       26905000	      2689	800031a4	012804b3	add	x9,x16,x18	 x16:0x00000060 x18:0x80009f74  x9=0x80009fd4
       26915000	      2690	800031a8	41895e93	srai	x29,x18,0x18	 x18:0x80009f74 x29=0xffffff80
       26925000	      2691	800031ac	32b1a113	slti	x2,x3,811	  x3:0x00000000  x2=0x00000001
       26935000	      2692	800031b0	14f14613	xori	x12,x2,335	  x2:0x00000001 x12=0x0000014e
       26945000	      2693	800031b4	038e9063	bne	x29,x24,800031d4	 x29:0xffffff80 x24:0x80009fc4
       26955000	      2694	00000000	00000013	addi	x0,x0,0	  x0:0x00000000
       26965000	      2695	800031d0	00000013	addi	x0,x0,0	  x0:0x00000000
       26975000	      2696	800031d4	cd94e393	ori	x7,x9,-807	  x9:0x80009fd4  x7=0xffffffdd
       26985000	      2697	800031d8	7162a113	slti	x2,x5,1814	  x5:0x00000000  x2=0x00000001
       26995000	      2698	800031dc	2849ff13	andi	x30,x19,644	 x19:0x00000000 x30=0x00000000
       27005000	      2699	800031e0	85228f13	addi	x30,x5,-1966	  x5:0x00000000 x30=0xfffff852
       27015000	      2700	800031e4	ffdb4393	xori	x7,x22,-3	 x22:0xfffffd72  x7=0x0000028f
       27025000	      2701	800031e8	009320b3	slt	x1,x6,x9	  x6:0x00000000  x9:0x80009fd4  x1=0x00000000
       27035000	      2702	800031ec	e9367813	andi	x16,x12,-365	 x12:0x0000014e x16=0x00000002
       27045000	      2703	800031f0	33766a13	ori	x20,x12,823	 x12:0x0000014e x20=0x0000037f
       27055000	      2704	800031f4	01244033	xor	x0,x8,x18	  x8:0x00000001 x18:0x80009f74
       27065000	      2705	800031f8	04376863	bltu	x14,x3,80003248	 x14:0x00000000  x3:0x00000000
       27075000	      2706	800031fc	2dfbed37	lui	x26,0x2dfbe	 x26=0x2dfbe000
       27085000	      2707	80003200	0069efb3	or	x31,x19,x6	 x19:0x00000000  x6:0x00000000 x31=0x00000000
       27095000	      2708	80003204	409e50b3	sra	x1,x28,x9	 x28:0xfffffa12  x9:0x80009fd4  x1=0xffffffff
       27105000	      2709	80003208	01ef1713	slli	x14,x30,0x1e	 x30:0xfffff852 x14=0x80000000
       27115000	      2710	8000320c	01c05cb3	srl	x25,x0,x28	  x0:0x00000000 x28:0xfffffa12 x25=0x00000000
       27125000	      2711	80003210	07fa7613	andi	x12,x20,127	 x20:0x0000037f x12=0x0000007f
       27135000	      2712	80003214	01b27fb3	and	x31,x4,x27	  x4:0x00000000 x27:0x94680117 x31=0x00000000
       27145000	      2713	80003218	4da5c393	xori	x7,x11,1242	 x11:0x00000000  x7=0x000004da
       27155000	      2714	8000321c	037e7063	bgeu	x28,x23,8000323c	 x28:0xfffffa12 x23:0x00000000
       27165000	      2715	00000000	00000013	addi	x0,x0,0	  x0:0x00000000
       27175000	      2716	80003238	00000013	addi	x0,x0,0	  x0:0x00000000
       27185000	      2717	8000323c	8e466193	ori	x3,x12,-1820	 x12:0x0000007f  x3=0xfffff8ff
       27195000	      2718	80003240	0209c863	blt	x19,x0,80003270	 x19:0x00000000  x0:0x00000000
       27205000	      2719	80003244	00cc4833	xor	x16,x24,x12	 x24:0x80009fc4 x12:0x0000007f x16=0x80009fbb
       27215000	      2720	80003248	014451b3	srl	x3,x8,x20	  x8:0x00000001 x20:0x0000037f  x3=0x00000000
       27225000	      2721	8000324c	c585be13	sltiu	x28,x11,-936	 x11:0x00000000 x28=0x00000001
       27235000	      2722	80003250	03c06e63	bltu	x0,x28,8000328c	  x0:0x00000000 x28:0x00000001
       27245000	      2723	00000000	00000013	addi	x0,x0,0	  x0:0x00000000
       27255000	      2724	80003288	00000013	addi	x0,x0,0	  x0:0x00000000
       27265000	      2725	8000328c	3e2e2413	slti	x8,x28,994	 x28:0x00000001  x8=0x00000001
       27275000	      2726	80003290	02c85c63	bge	x16,x12,800032c8	 x16:0x80009fbb x12:0x0000007f
       27285000	      2727	80003294	00f84b33	xor	x22,x16,x15	 x16:0x80009fbb x15:0x00000420 x22=0x80009b9b
       27295000	      2728	80003298	15dbaa13	slti	x20,x23,349	 x23:0x00000000 x20=0x00000001
       27305000	      2729	8000329c	00cd0233	add	x4,x26,x12	 x26:0x2dfbe000 x12:0x0000007f  x4=0x2dfbe07f
       27315000	      2730	800032a0	05d3f063	bgeu	x7,x29,800032e0	  x7:0x000004da x29:0xffffff80
       27325000	      2731	800032a4	cd217313	andi	x6,x2,-814	  x2:0x00000001  x6=0x00000000
       27335000	      2732	800032a8	00a21213	slli	x4,x4,0xa	  x4:0x2dfbe07f  x4=0xef81fc00
       27345000	      2733	800032ac	41b28633	sub	x12,x5,x27	  x5:0x00000000 x27:0x94680117 x12=0x6b97fee9
       27355000	      2734	800032b0	0098db93	srli	x23,x17,0x9	 x17:0x94680000 x23=0x004a3400
       27365000	      2735	800032b4	00ba6b33	or	x22,x20,x11	 x20:0x00000001 x11:0x00000000 x22=0x00000001
       27375000	      2736	800032b8	40f85ab3	sra	x21,x16,x15	 x16:0x80009fbb x15:0x00000420 x21=0x80009fbb
       27385000	      2737	800032bc	3440c713	xori	x14,x1,836	  x1:0xffffffff x14=0xfffffcbb
       27395000	      2738	800032c0	59f72037	lui	x0,0x59f72	
       27405000	      2739	800032c4	569c6d93	ori	x27,x24,1385	 x24:0x80009fc4 x27=0x80009fed
       27415000	      2740	800032c8	3b5e7713	andi	x14,x28,949	 x28:0x00000001 x14=0x00000001
       27425000	      2741	800032cc	770f6d93	ori	x27,x30,1904	 x30:0xfffff852 x27=0xffffff72
       27435000	      2742	800032d0	016f1633	sll	x12,x30,x22	 x30:0xfffff852 x22:0x00000001 x12=0xfffff0a4
       27445000	      2743	800032d4	0180c0b3	xor	x1,x1,x24	  x1:0xffffffff x24:0x80009fc4  x1=0x7fff603b
       27455000	      2744	800032d8	01f56333	or	x6,x10,x31	 x10:0x80000000 x31:0x00000000  x6=0x80000000
       27465000	      2745	800032dc	314d3817	auipc	x16,0x314d3	 x16=0xb14d62d8
       27475000	      2746	800032e0	0116dab3	srl	x21,x13,x17	 x13:0x80000001 x17:0x94680000 x21=0x80000001
       27485000	      2747	800032e4	00000013	addi	x0,x0,0	  x0:0x00000000
       27495000	      2748	800032e8	018cd863	bge	x25,x24,800032f8	 x25:0x00000000 x24:0x80009fc4
       27505000	      2749	00000000	00000013	addi	x0,x0,0	  x0:0x00000000
       27515000	      2750	800032f4	00000013	addi	x0,x0,0	  x0:0x00000000
       27525000	      2751	800032f8	02e3e863	bltu	x7,x14,80003328	  x7:0x000004da x14:0x00000001
       27535000	      2752	800032fc	00acd393	srli	x7,x25,0xa	 x25:0x00000000  x7=0x00000000
       27545000	      2753	80003300	00f92733	slt	x14,x18,x15	 x18:0x80009f74 x15:0x00000420 x14=0x00000001
       27555000	      2754	80003304	003ed3b3	srl	x7,x29,x3	 x29:0xffffff80  x3:0x00000000  x7=0xffffff80
       27565000	      2755	80003308	ff32e713	ori	x14,x5,-13	  x5:0x00000000 x14=0xfffffff3
       27575000	      2756	8000330c	01c16e63	bltu	x2,x28,80003328	  x2:0x00000001 x28:0x00000001
       27585000	      2757	80003310	408583b3	sub	x7,x11,x8	 x11:0x00000000  x8:0x00000001  x7=0xffffffff
       27595000	      2758	80003314	00745193	srli	x3,x8,0x7	  x8:0x00000001  x3=0x00000000
       27605000	      2759	80003318	014105b3	add	x11,x2,x20	  x2:0x00000001 x20:0x00000001 x11=0x00000002
       27615000	      2760	8000331c	017ed893	srli	x17,x29,0x17	 x29:0xffffff80 x17=0x000001ff
       27625000	      2761	80003320	fffe2393	slti	x7,x28,-1	 x28:0x00000001  x7=0x00000000
       27635000	      2762	80003324	40900d33	sub	x26,x0,x9	  x0:0x00000000  x9:0x80009fd4 x26=0x7fff602c
       27645000	      2763	80003328	00000013	addi	x0,x0,0	  x0:0x00000000
       27655000	      2764	8000332c	01569fb3	sll	x31,x13,x21	 x13:0x80000001 x21:0x80000001 x31=0x00000002
       27665000	      2765	80003330	05ca8463	beq	x21,x28,80003378	 x21:0x80000001 x28:0x00000001
       27675000	      2766	80003334	00edd033	srl	x0,x27,x14	 x27:0xffffff72 x14:0xfffffff3
       27685000	      2767	80003338	416f54b3	sra	x9,x30,x22	 x30:0xfffff852 x22:0x00000001  x9=0xfffffc29
       27695000	      2768	8000333c	00de68b3	or	x17,x28,x13	 x28:0x00000001 x13:0x80000001 x17=0x80000001
       27705000	      2769	80003340	034fe063	bltu	x31,x20,80003360	 x31:0x00000002 x20:0x00000001
       27715000	      2770	80003344	00000013	addi	x0,x0,0	  x0:0x00000000
       27725000	      2771	80003348	01814663	blt	x2,x24,80003354	  x2:0x00000001 x24:0x80009fc4
       27735000	      2772	8000334c	ba30b093	sltiu	x1,x1,-1117	  x1:0x7fff603b  x1=0x00000001
       27745000	      2773	80003350	4889fa97	auipc	x21,0x4889f	 x21=0xc88a234c
       27755000	      2774	80003354	412b5a33	sra	x20,x22,x18	 x22:0x00000001 x18:0x80009f74 x20=0x00000000
       27765000	      2775	80003358	00f1feb3	and	x29,x3,x15	  x3:0x00000000 x15:0x00000420 x29=0x00000000
       27775000	      2776	8000335c	051ef263	bgeu	x29,x17,800033a0	 x29:0x00000000 x17:0x80000001
       27785000	      2777	80003360	2dc4c093	xori	x1,x9,732	  x9:0xfffffc29  x1=0xfffffef5
       27795000	      2778	80003364	010a5f33	srl	x30,x20,x16	 x20:0x00000000 x16:0xb14d62d8 x30=0x00000000
       27805000	      2779	80003368	29dc0813	addi	x16,x24,669	 x24:0x80009fc4 x16=0x8000a261
       27815000	      2780	8000336c	01e36263	bltu	x6,x30,80003370	  x6:0x80000000 x30:0x00000000
       27825000	      2781	80003370	40dadd33	sra	x26,x21,x13	 x21:0xc88a234c x13:0x80000001 x26=0xe44511a6
       27835000	      2782	80003374	4147d5b3	sra	x11,x15,x20	 x15:0x00000420 x20:0x00000000 x11=0x00000420
       27845000	      2783	80003378	4f2ebe13	sltiu	x28,x29,1266	 x29:0x00000000 x28=0x00000001
       27855000	      2784	8000337c	013ad813	srli	x16,x21,0x13	 x21:0xc88a234c x16=0x00001911
       27865000	      2785	80003380	00000013	addi	x0,x0,0	  x0:0x00000000
       27875000	      2786	80003384	0073ea63	bltu	x7,x7,80003398	  x7:0x00000000  x7:0x00000000
       27885000	      2787	80003388	01799c63	bne	x19,x23,800033a0	 x19:0x00000000 x23:0x004a3400
       27895000	      2788	00000000	00000013	addi	x0,x0,0	  x0:0x00000000
       27905000	      2789	8000339c	00000013	addi	x0,x0,0	  x0:0x00000000
       27915000	      2790	800033a0	01e06233	or	x4,x0,x30	  x0:0x00000000 x30:0x00000000  x4=0x00000000
       27925000	      2791	800033a4	d9ba6113	ori	x2,x20,-613	 x20:0x00000000  x2=0xfffffd9b
       27935000	      2792	800033a8	74fe6013	ori	x0,x28,1871	 x28:0x00000001
       27945000	      2793	800033ac	f5ecc137	lui	x2,0xf5ecc	  x2=0xf5ecc000
       27955000	      2794	800033b0	00000013	addi	x0,x0,0	  x0:0x00000000
       27965000	      2795	800033b4	0177e9b3	or	x19,x15,x23	 x15:0x00000420 x23:0x004a3400 x19=0x004a3420
       27975000	      2796	800033b8	3fb6cf93	xori	x31,x13,1019	 x13:0x80000001 x31=0x800003fa
       27985000	      2797	800033bc	00359993	slli	x19,x11,0x3	 x11:0x00000420 x19=0x00002100
       27995000	      2798	800033c0	01711733	sll	x14,x2,x23	  x2:0xf5ecc000 x23:0x004a3400 x14=0xf5ecc000
       28005000	      2799	800033c4	2ac36193	ori	x3,x6,684	  x6:0x80000000  x3=0x800002ac
       28015000	      2800	800033c8	02a3f863	bgeu	x7,x10,800033f8	  x7:0x00000000 x10:0x80000000
       28025000	      2801	800033cc	01a59c63	bne	x11,x26,800033e4	 x11:0x00000420 x26:0xe44511a6
       28035000	      2802	00000000	00000013	addi	x0,x0,0	  x0:0x00000000
       28045000	      2803	800033e0	00000013	addi	x0,x0,0	  x0:0x00000000
       28055000	      2804	800033e4	d5a24613	xori	x12,x4,-678	  x4:0x00000000 x12=0xfffffd5a
       28065000	      2805	800033e8	41c45793	srai	x15,x8,0x1c	  x8:0x00000001 x15=0x00000000
       28075000	      2806	800033ec	ab06e113	ori	x2,x13,-1360	 x13:0x80000001  x2=0xfffffab1
       28085000	      2807	800033f0	01c6c5b3	xor	x11,x13,x28	 x13:0x80000001 x28:0x00000001 x11=0x80000000
       28095000	      2808	800033f4	049c5463	bge	x24,x9,8000343c	 x24:0x80009fc4  x9:0xfffffc29
       28105000	      2809	800033f8	05a56463	bltu	x10,x26,80003440	 x10:0x80000000 x26:0xe44511a6
       28115000	      2810	00000000	00000013	addi	x0,x0,0	  x0:0x00000000
       28125000	      2811	8000343c	00000013	addi	x0,x0,0	  x0:0x00000000
       28135000	      2812	80003440	00a178b3	and	x17,x2,x10	  x2:0xfffffab1 x10:0x80000000 x17=0x80000000
       28145000	      2813	80003444	14d50813	addi	x16,x10,333	 x10:0x80000000 x16=0x8000014d
       28155000	      2814	80003448	016f1e63	bne	x30,x22,80003464	 x30:0x00000000 x22:0x00000001
       28165000	      2815	00000000	00000013	addi	x0,x0,0	  x0:0x00000000
       28175000	      2816	80003460	00000013	addi	x0,x0,0	  x0:0x00000000
       28185000	      2817	80003464	002999b3	sll	x19,x19,x2	 x19:0x00002100  x2:0xfffffab1 x19=0x42000000
       28195000	      2818	80003468	02571063	bne	x14,x5,80003488	 x14:0xf5ecc000  x5:0x00000000
       28205000	      2819	00000000	00000013	addi	x0,x0,0	  x0:0x00000000
       28215000	      2820	80003484	00000013	addi	x0,x0,0	  x0:0x00000000
       28225000	      2821	80003488	cbe5c593	xori	x11,x11,-834	 x11:0x80000000 x11=0x7ffffcbe
       28235000	      2822	8000348c	011fdeb3	srl	x29,x31,x17	 x31:0x800003fa x17:0x80000000 x29=0x800003fa
       28245000	      2823	80003490	bcc69b17	auipc	x22,0xbcc69	 x22=0x3cc6c48c
       28255000	      2824	80003494	01b825b3	slt	x11,x16,x27	 x16:0x8000014d x27:0xffffff72 x11=0x00000001
       28265000	      2825	80003498	0122d7b3	srl	x15,x5,x18	  x5:0x00000000 x18:0x80009f74 x15=0x00000000
       28275000	      2826	8000349c	41a0d3b3	sra	x7,x1,x26	  x1:0xfffffef5 x26:0xe44511a6  x7=0xfffffffb
       28285000	      2827	800034a0	0334f663	bgeu	x9,x19,800034cc	  x9:0xfffffc29 x19:0x42000000
       28295000	      2828	00000000	00000013	addi	x0,x0,0	  x0:0x00000000
       28305000	      2829	800034c8	00000013	addi	x0,x0,0	  x0:0x00000000
       28315000	      2830	800034cc	01395eb3	srl	x29,x18,x19	 x18:0x80009f74 x19:0x42000000 x29=0x80009f74
       28325000	      2831	800034d0	410d5eb3	sra	x29,x26,x16	 x26:0xe44511a6 x16:0x8000014d x29=0xffff2228
       28335000	      2832	800034d4	40ea8733	sub	x14,x21,x14	 x21:0xc88a234c x14:0xf5ecc000 x14=0xd29d634c
       28345000	      2833	800034d8	41e8d093	srai	x1,x17,0x1e	 x17:0x80000000  x1=0xfffffffe
       28355000	      2834	800034dc	012a5863	bge	x20,x18,800034ec	 x20:0x00000000 x18:0x80009f74
       28365000	      2835	00000000	00000013	addi	x0,x0,0	  x0:0x00000000
       28375000	      2836	800034e8	00000013	addi	x0,x0,0	  x0:0x00000000
       28385000	      2837	800034ec	96b48193	addi	x3,x9,-1685	  x9:0xfffffc29  x3=0xfffff594
       28395000	      2838	800034f0	05bb0063	beq	x22,x27,80003530	 x22:0x3cc6c48c x27:0xffffff72
       28405000	      2839	800034f4	90a1e013	ori	x0,x3,-1782	  x3:0xfffff594
       28415000	      2840	800034f8	00000013	addi	x0,x0,0	  x0:0x00000000
       28425000	      2841	800034fc	00000013	addi	x0,x0,0	  x0:0x00000000
       28435000	      2842	80003500	01efe5b3	or	x11,x31,x30	 x31:0x800003fa x30:0x00000000 x11=0x800003fa
       28445000	      2843	80003504	04edc863	blt	x27,x14,80003554	 x27:0xffffff72 x14:0xd29d634c
       28455000	      2844	80003508	000c0863	beq	x24,x0,80003518	 x24:0x80009fc4  x0:0x00000000
       28465000	      2845	8000350c	00000013	addi	x0,x0,0	  x0:0x00000000
       28475000	      2846	80003510	03579863	bne	x15,x21,80003540	 x15:0x00000000 x21:0xc88a234c
       28485000	      2847	00000000	00000013	addi	x0,x0,0	  x0:0x00000000
       28495000	      2848	8000353c	00000013	addi	x0,x0,0	  x0:0x00000000
       28505000	      2849	80003540	0071fb33	and	x22,x3,x7	  x3:0xfffff594  x7:0xfffffffb x22=0xfffff590
       28515000	      2850	80003544	91fb2d93	slti	x27,x22,-1761	 x22:0xfffff590 x27=0x00000001
       28525000	      2851	80003548	002281b3	add	x3,x5,x2	  x5:0x00000000  x2:0xfffffab1  x3=0xfffffab1
       28535000	      2852	8000354c	0102d1b3	srl	x3,x5,x16	  x5:0x00000000 x16:0x8000014d  x3=0x00000000
       28545000	      2853	80003550	d10fba13	sltiu	x20,x31,-752	 x31:0x800003fa x20=0x00000001
       28555000	      2854	80003554	581bea17	auipc	x20,0x581be	 x20=0xd81c1550
       28565000	      2855	80003558	305a2a17	auipc	x20,0x305a2	 x20=0xb05a5554
       28575000	      2856	8000355c	e491f813	andi	x16,x3,-439	  x3:0x00000000 x16=0x00000000
       28585000	      2857	80003560	02829863	bne	x5,x8,80003590	  x5:0x00000000  x8:0x00000001
       28595000	      2858	00000000	00000013	addi	x0,x0,0	  x0:0x00000000
       28605000	      2859	8000358c	00000013	addi	x0,x0,0	  x0:0x00000000
       28615000	      2860	80003590	006b8e63	beq	x23,x6,800035ac	 x23:0x004a3400  x6:0x80000000
       28625000	      2861	80003594	00f57c63	bgeu	x10,x15,800035ac	 x10:0x80000000 x15:0x00000000
       28635000	      2862	00000000	00000013	addi	x0,x0,0	  x0:0x00000000
       28645000	      2863	800035a8	00000013	addi	x0,x0,0	  x0:0x00000000
       28655000	      2864	800035ac	00be9fb3	sll	x31,x29,x11	 x29:0xffff2228 x11:0x800003fa x31=0xa0000000
       28665000	      2865	800035b0	019dd313	srli	x6,x27,0x19	 x27:0x00000001  x6=0x00000000
       28675000	      2866	800035b4	00b54bb3	xor	x23,x10,x11	 x10:0x80000000 x11:0x800003fa x23=0x000003fa
       28685000	      2867	800035b8	01540863	beq	x8,x21,800035c8	  x8:0x00000001 x21:0xc88a234c
       28695000	      2868	800035bc	01e19593	slli	x11,x3,0x1e	  x3:0x00000000 x11=0x00000000
       28705000	      2869	800035c0	fa14dd37	lui	x26,0xfa14d	 x26=0xfa14d000
       28715000	      2870	800035c4	01d69c63	bne	x13,x29,800035dc	 x13:0x80000001 x29:0xffff2228
       28725000	      2871	00000000	00000013	addi	x0,x0,0	  x0:0x00000000
       28735000	      2872	800035d8	00000013	addi	x0,x0,0	  x0:0x00000000
       28745000	      2873	800035dc	01afad33	slt	x26,x31,x26	 x31:0xa0000000 x26:0xfa14d000 x26=0x00000001
       28755000	      2874	800035e0	01b74bb3	xor	x23,x14,x27	 x14:0xd29d634c x27:0x00000001 x23=0xd29d634d
       28765000	      2875	800035e4	007ec633	xor	x12,x29,x7	 x29:0xffff2228  x7:0xfffffffb x12=0x0000ddd3
       28775000	      2876	800035e8	00000013	addi	x0,x0,0	  x0:0x00000000
       28785000	      2877	800035ec	01f02db3	slt	x27,x0,x31	  x0:0x00000000 x31:0xa0000000 x27=0x00000000
       28795000	      2878	800035f0	00d56263	bltu	x10,x13,800035f4	 x10:0x80000000 x13:0x80000001
       28805000	      2879	00000000	00000013	addi	x0,x0,0	  x0:0x00000000
       28815000	      2880	800035f0	00000013	addi	x0,x0,0	  x0:0x00000000
       28825000	      2881	800035f4	000e9413	slli	x8,x29,0x0	 x29:0xffff2228  x8=0xffff2228
       28835000	      2882	800035f8	002221b3	slt	x3,x4,x2	  x4:0x00000000  x2:0xfffffab1  x3=0x00000000
       28845000	      2883	800035fc	00daa5b3	slt	x11,x21,x13	 x21:0xc88a234c x13:0x80000001 x11=0x00000000
       28855000	      2884	80003600	00fb7a33	and	x20,x22,x15	 x22:0xfffff590 x15:0x00000000 x20=0x00000000
       28865000	      2885	80003604	012f2eb3	slt	x29,x30,x18	 x30:0x00000000 x18:0x80009f74 x29=0x00000000
       28875000	      2886	80003608	00195793	srli	x15,x18,0x1	 x18:0x80009f74 x15=0x40004fba
       28885000	      2887	8000360c	01490233	add	x4,x18,x20	 x18:0x80009f74 x20:0x00000000  x4=0x80009f74
       28895000	      2888	80003610	72283037	lui	x0,0x72283	
       28905000	      2889	80003614	0078d1b3	srl	x3,x17,x7	 x17:0x80000000  x7:0xfffffffb  x3=0x00000010
       28915000	      2890	80003618	00e50833	add	x16,x10,x14	 x10:0x80000000 x14:0xd29d634c x16=0x529d634c
       28925000	      2891	8000361c	007073b3	and	x7,x0,x7	  x0:0x00000000  x7:0xfffffffb  x7=0x00000000
       28935000	      2892	80003620	00000013	addi	x0,x0,0	  x0:0x00000000
       28945000	      2893	80003624	79eb9837	lui	x16,0x79eb9	 x16=0x79eb9000
       28955000	      2894	80003628	404f54b3	sra	x9,x30,x4	 x30:0x00000000  x4:0x80009f74  x9=0x00000000
       28965000	      2895	8000362c	3f588793	addi	x15,x17,1013	 x17:0x80000000 x15=0x800003f5
       28975000	      2896	80003630	9a527493	andi	x9,x4,-1627	  x4:0x80009f74  x9=0x80009924
       28985000	      2897	80003634	41c08b33	sub	x22,x1,x28	  x1:0xfffffffe x28:0x00000001 x22=0xfffffffd
       28995000	      2898	80003638	05f6c463	blt	x13,x31,80003680	 x13:0x80000001 x31:0xa0000000
       29005000	      2899	00000000	00000013	addi	x0,x0,0	  x0:0x00000000
       29015000	      2900	8000367c	00000013	addi	x0,x0,0	  x0:0x00000000
       29025000	      2901	80003680	008be263	bltu	x23,x8,80003684	 x23:0xd29d634d  x8:0xffff2228
       29035000	      2902	00000000	00000013	addi	x0,x0,0	  x0:0x00000000
       29045000	      2903	80003680	00000013	addi	x0,x0,0	  x0:0x00000000
       29055000	      2904	80003684	24ee7d93	andi	x27,x28,590	 x28:0x00000001 x27=0x00000000
       29065000	      2905	80003688	0404f463	bgeu	x9,x0,800036d0	  x9:0x80009924  x0:0x00000000
       29075000	      2906	00000000	00000013	addi	x0,x0,0	  x0:0x00000000
       29085000	      2907	800036cc	00000013	addi	x0,x0,0	  x0:0x00000000
       29095000	      2908	800036d0	016acab3	xor	x21,x21,x22	 x21:0xc88a234c x22:0xfffffffd x21=0x3775dcb1
       29105000	      2909	800036d4	fa9f3437	lui	x8,0xfa9f3	  x8=0xfa9f3000
       29115000	      2910	800036d8	01f6abb3	slt	x23,x13,x31	 x13:0x80000001 x31:0xa0000000 x23=0x00000001
       29125000	      2911	800036dc	b74afa93	andi	x21,x21,-1164	 x21:0x3775dcb1 x21=0x3775d830
       29135000	      2912	800036e0	40c7de33	sra	x28,x15,x12	 x15:0x800003f5 x12:0x0000ddd3 x28=0xfffff000
       29145000	      2913	800036e4	0522f063	bgeu	x5,x18,80003724	  x5:0x00000000 x18:0x80009f74
       29155000	      2914	800036e8	0244e663	bltu	x9,x4,80003714	  x9:0x80009924  x4:0x80009f74
       29165000	      2915	00000000	00000013	addi	x0,x0,0	  x0:0x00000000
       29175000	      2916	80003710	00000013	addi	x0,x0,0	  x0:0x00000000
       29185000	      2917	80003714	5fc44313	xori	x6,x8,1532	  x8:0xfa9f3000  x6=0xfa9f35fc
       29195000	      2918	80003718	00680a63	beq	x16,x6,8000372c	 x16:0x79eb9000  x6:0xfa9f35fc
       29205000	      2919	8000371c	41b70cb3	sub	x25,x14,x27	 x14:0xd29d634c x27:0x00000000 x25=0xd29d634c
       29215000	      2920	80003720	3f3ced17	auipc	x26,0x3f3ce	 x26=0xbf3d171c
       29225000	      2921	80003724	01796cb3	or	x25,x18,x23	 x18:0x80009f74 x23:0x00000001 x25=0x80009f75
       29235000	      2922	80003728	050b8263	beq	x23,x16,8000376c	 x23:0x00000001 x16:0x79eb9000
       29245000	      2923	8000372c	f9577bb7	lui	x23,0xf9577	 x23=0xf9577000
       29255000	      2924	80003730	031f4c63	blt	x30,x17,80003768	 x30:0x00000000 x17:0x80000000
       29265000	      2925	80003734	01a75733	srl	x14,x14,x26	 x14:0xd29d634c x26:0xbf3d171c x14=0x0000000d
       29275000	      2926	80003738	012a5d13	srli	x26,x20,0x12	 x20:0x00000000 x26=0x00000000
       29285000	      2927	8000373c	40d15b33	sra	x22,x2,x13	  x2:0xfffffab1 x13:0x80000001 x22=0xfffffd58
       29295000	      2928	80003740	00d36263	bltu	x6,x13,80003744	  x6:0xfa9f35fc x13:0x80000001
       29305000	      2929	80003744	01625f33	srl	x30,x4,x22	  x4:0x80009f74 x22:0xfffffd58 x30=0x00000080
       29315000	      2930	80003748	01c11fb3	sll	x31,x2,x28	  x2:0xfffffab1 x28:0xfffff000 x31=0xfffffab1
       29325000	      2931	8000374c	01726433	or	x8,x4,x23	  x4:0x80009f74 x23:0xf9577000  x8=0xf957ff74
       29335000	      2932	80003750	01e09593	slli	x11,x1,0x1e	  x1:0xfffffffe x11=0x80000000
       29345000	      2933	80003754	c6b10b93	addi	x23,x2,-917	  x2:0xfffffab1 x23=0xfffff71c
       29355000	      2934	80003758	00966a33	or	x20,x12,x9	 x12:0x0000ddd3  x9:0x80009924 x20=0x8000ddf7
       29365000	      2935	8000375c	0382ce63	blt	x5,x24,80003798	  x5:0x00000000 x24:0x80009fc4
       29375000	      2936	80003760	0149e3b3	or	x7,x19,x20	 x19:0x42000000 x20:0x8000ddf7  x7=0xc200ddf7
       29385000	      2937	80003764	0136cd33	xor	x26,x13,x19	 x13:0x80000001 x19:0x42000000 x26=0xc2000001
       29395000	      2938	80003768	40b1d093	srai	x1,x3,0xb	  x3:0x00000010  x1=0x00000000
       29405000	      2939	8000376c	00a8e3b3	or	x7,x17,x10	 x17:0x80000000 x10:0x80000000  x7=0x80000000
       29415000	      2940	80003770	62d33d13	sltiu	x26,x6,1581	  x6:0xfa9f35fc x26=0x00000000
       29425000	      2941	80003774	0085ca33	xor	x20,x11,x8	 x11:0x80000000  x8:0xf957ff74 x20=0x7957ff74
       29435000	      2942	80003778	40a20db3	sub	x27,x4,x10	  x4:0x80009f74 x10:0x80000000 x27=0x00009f74
       29445000	      2943	8000377c	01af3f33	sltu	x30,x30,x26	 x30:0x00000080 x26:0x00000000 x30=0x00000000
       29455000	      2944	80003780	00139993	slli	x19,x7,0x1	  x7:0x80000000 x19=0x00000000
       29465000	      2945	80003784	717c2093	slti	x1,x24,1815	 x24:0x80009fc4  x1=0x00000001
       29475000	      2946	80003788	00af4833	xor	x16,x30,x10	 x30:0x00000000 x10:0x80000000 x16=0x80000000
       29485000	      2947	8000378c	0089eeb3	or	x29,x19,x8	 x19:0x00000000  x8:0xf957ff74 x29=0xf957ff74
       29495000	      2948	80003790	01a26c63	bltu	x4,x26,800037a8	  x4:0x80009f74 x26:0x00000000
       29505000	      2949	80003794	402d5293	srai	x5,x26,0x2	 x26:0x00000000  x5=0x00000000
       29515000	      2950	80003798	00db2b33	slt	x22,x22,x13	 x22:0xfffffd58 x13:0x80000001 x22=0x00000000
       29525000	      2951	8000379c	00e961b3	or	x3,x18,x14	 x18:0x80009f74 x14:0x0000000d  x3=0x80009f7d
       29535000	      2952	800037a0	01209b13	slli	x22,x1,0x12	  x1:0x00000001 x22=0x00040000
       29545000	      2953	800037a4	2d02e413	ori	x8,x5,720	  x5:0x00000000  x8=0x000002d0
       29555000	      2954	800037a8	419480b3	sub	x1,x9,x25	  x9:0x80009924 x25:0x80009f75  x1=0xfffff9af
       29565000	      2955	800037ac	6b23f193	andi	x3,x7,1714	  x7:0x80000000  x3=0x00000000
       29575000	      2956	800037b0	01742833	slt	x16,x8,x23	  x8:0x000002d0 x23:0xfffff71c x16=0x00000000
       29585000	      2957	800037b4	f6922b13	slti	x22,x4,-151	  x4:0x80009f74 x22=0x00000001
       29595000	      2958	800037b8	00b1cdb3	xor	x27,x3,x11	  x3:0x00000000 x11:0x80000000 x27=0x80000000
       29605000	      2959	800037bc	69997e93	andi	x29,x18,1689	 x18:0x80009f74 x29=0x00000610
       29615000	      2960	800037c0	049af663	bgeu	x21,x9,8000380c	 x21:0x3775d830  x9:0x80009924
       29625000	      2961	800037c4	19993113	sltiu	x2,x18,409	 x18:0x80009f74  x2=0x00000000
       29635000	      2962	800037c8	3dc5ec93	ori	x25,x11,988	 x11:0x80000000 x25=0x800003dc
       29645000	      2963	800037cc	7a1d8a93	addi	x21,x27,1953	 x27:0x80000000 x21=0x800007a1
       29655000	      2964	800037d0	4064ddb3	sra	x27,x9,x6	  x9:0x80009924  x6:0xfa9f35fc x27=0xfffffff8
       29665000	      2965	800037d4	419cd493	srai	x9,x25,0x19	 x25:0x800003dc  x9=0xffffffc0
       29675000	      2966	800037d8	e3302713	slti	x14,x0,-461	  x0:0x00000000 x14=0x00000000
       29685000	      2967	800037dc	fb8e2713	slti	x14,x28,-72	 x28:0xfffff000 x14=0x00000001
       29695000	      2968	800037e0	fea4a613	slti	x12,x9,-22	  x9:0xffffffc0 x12=0x00000001
       29705000	      2969	800037e4	0147c6b3	xor	x13,x15,x20	 x15:0x800003f5 x20:0x7957ff74 x13=0xf957fc81
       29715000	      2970	800037e8	e2ab2b13	slti	x22,x22,-470	 x22:0x00000001 x22=0x00000000
       29725000	      2971	800037ec	413e08b3	sub	x17,x28,x19	 x28:0xfffff000 x19:0x00000000 x17=0xfffff000
       29735000	      2972	800037f0	03651063	bne	x10,x22,80003810	 x10:0x80000000 x22:0x00000000
       29745000	      2973	00000000	00000013	addi	x0,x0,0	  x0:0x00000000
       29755000	      2974	8000380c	00000013	addi	x0,x0,0	  x0:0x00000000
       29765000	      2975	80003810	013e1633	sll	x12,x28,x19	 x28:0xfffff000 x19:0x00000000 x12=0xfffff000
       29775000	      2976	80003814	00a90eb3	add	x29,x18,x10	 x18:0x80009f74 x10:0x80000000 x29=0x00009f74
       29785000	      2977	80003818	007181b3	add	x3,x3,x7	  x3:0x00000000  x7:0x80000000  x3=0x80000000
       29795000	      2978	8000381c	f488b213	sltiu	x4,x17,-184	 x17:0xfffff000  x4=0x00000001
       29805000	      2979	80003820	05fee463	bltu	x29,x31,80003868	 x29:0x00009f74 x31:0xfffffab1
       29815000	      2980	00000000	00000013	addi	x0,x0,0	  x0:0x00000000
       29825000	      2981	80003864	00000013	addi	x0,x0,0	  x0:0x00000000
       29835000	      2982	80003868	01c60f33	add	x30,x12,x28	 x12:0xfffff000 x28:0xfffff000 x30=0xffffe000
       29845000	      2983	8000386c	01c895b3	sll	x11,x17,x28	 x17:0xfffff000 x28:0xfffff000 x11=0xfffff000
       29855000	      2984	80003870	0bc4ae93	slti	x29,x9,188	  x9:0xffffffc0 x29=0x00000001
       29865000	      2985	80003874	00000013	addi	x0,x0,0	  x0:0x00000000
       29875000	      2986	80003878	00f0a2b3	slt	x5,x1,x15	  x1:0xfffff9af x15:0x800003f5  x5=0x00000000
       29885000	      2987	8000387c	0106c863	blt	x13,x16,8000388c	 x13:0xf957fc81 x16:0x00000000
       29895000	      2988	00000000	00000013	addi	x0,x0,0	  x0:0x00000000
       29905000	      2989	80003888	00000013	addi	x0,x0,0	  x0:0x00000000
       29915000	      2990	8000388c	05935863	bge	x6,x25,800038dc	  x6:0xfa9f35fc x25:0x800003dc
       29925000	      2991	00000000	00000013	addi	x0,x0,0	  x0:0x00000000
       29935000	      2992	800038d8	00000013	addi	x0,x0,0	  x0:0x00000000
       29945000	      2993	800038dc	40a580b3	sub	x1,x11,x10	 x11:0xfffff000 x10:0x80000000  x1=0x7ffff000
       29955000	      2994	800038e0	01659e93	slli	x29,x11,0x16	 x11:0xfffff000 x29=0x00000000
       29965000	      2995	800038e4	20756013	ori	x0,x10,519	 x10:0x80000000
       29975000	      2996	800038e8	c64a3113	sltiu	x2,x20,-924	 x20:0x7957ff74  x2=0x00000001
       29985000	      2997	800038ec	01e2e6b3	or	x13,x5,x30	  x5:0x00000000 x30:0xffffe000 x13=0xffffe000
       29995000	      2998	800038f0	01b86eb3	or	x29,x16,x27	 x16:0x00000000 x27:0xfffffff8 x29=0xfffffff8
       30005000	      2999	800038f4	001518b3	sll	x17,x10,x1	 x10:0x80000000  x1:0x7ffff000 x17=0x80000000
       30015000	      3000	800038f8	418f8cb3	sub	x25,x31,x24	 x31:0xfffffab1 x24:0x80009fc4 x25=0x7fff5aed
       30025000	      3001	800038fc	01d2c1b3	xor	x3,x5,x29	  x5:0x00000000 x29:0xfffffff8  x3=0xfffffff8
       30035000	      3002	80003900	01ae5ab3	srl	x21,x28,x26	 x28:0xfffff000 x26:0x00000000 x21=0xfffff000
       30045000	      3003	80003904	885f5b97	auipc	x23,0x885f5	 x23=0x085f8900
       30055000	      3004	80003908	01f1bdb3	sltu	x27,x3,x31	  x3:0xfffffff8 x31:0xfffffab1 x27=0x00000000
       30065000	      3005	8000390c	b41dba93	sltiu	x21,x27,-1215	 x27:0x00000000 x21=0x00000001
       30075000	      3006	80003910	001b8b33	add	x22,x23,x1	 x23:0x085f8900  x1:0x7ffff000 x22=0x885f7900
       30085000	      3007	80003914	91a0b793	sltiu	x15,x1,-1766	  x1:0x7ffff000 x15=0x00000001
       30095000	      3008	80003918	ee9da693	slti	x13,x27,-279	 x27:0x00000000 x13=0x00000000
       30105000	      3009	8000391c	000d9b33	sll	x22,x27,x0	 x27:0x00000000  x0:0x00000000 x22=0x00000000
       30115000	      3010	80003920	018a4633	xor	x12,x20,x24	 x20:0x7957ff74 x24:0x80009fc4 x12=0xf95760b0
       30125000	      3011	80003924	0088f133	and	x2,x17,x8	 x17:0x80000000  x8:0x000002d0  x2=0x00000000
       30135000	      3012	80003928	01d5bf33	sltu	x30,x11,x29	 x11:0xfffff000 x29:0xfffffff8 x30=0x00000001
       30145000	      3013	8000392c	00000013	addi	x0,x0,0	  x0:0x00000000
       30155000	      3014	80003930	014d1793	slli	x15,x26,0x14	 x26:0x00000000 x15=0x00000000
       30165000	      3015	80003934	844f7b93	andi	x23,x30,-1980	 x30:0x00000001 x23=0x00000000
       30175000	      3016	80003938	05fec463	blt	x29,x31,80003980	 x29:0xfffffff8 x31:0xfffffab1
       30185000	      3017	8000393c	65d7e813	ori	x16,x15,1629	 x15:0x00000000 x16=0x0000065d
       30195000	      3018	80003940	3c45bd13	sltiu	x26,x11,964	 x11:0xfffff000 x26=0x00000000
       30205000	      3019	80003944	8588ea37	lui	x20,0x8588e	 x20=0x8588e000
       30215000	      3020	80003948	e9b06817	auipc	x16,0xe9b06	 x16=0x69b09944
       30225000	      3021	8000394c	40ed5e33	sra	x28,x26,x14	 x26:0x00000000 x14:0x00000001 x28=0x00000000
       30235000	      3022	80003950	004bf033	and	x0,x23,x4	 x23:0x00000000  x4:0x00000001
       30245000	      3023	80003954	2cdd6f13	ori	x30,x26,717	 x26:0x00000000 x30=0x000002cd
       30255000	      3024	80003958	97340593	addi	x11,x8,-1677	  x8:0x000002d0 x11=0xfffffc43
       30265000	      3025	8000395c	012b3733	sltu	x14,x22,x18	 x22:0x00000000 x18:0x80009f74 x14=0x00000001
       30275000	      3026	80003960	e4eb3f93	sltiu	x31,x22,-434	 x22:0x00000000 x31=0x00000001
       30285000	      3027	80003964	00e31233	sll	x4,x6,x14	  x6:0xfa9f35fc x14:0x00000001  x4=0xf53e6bf8
       30295000	      3028	80003968	5bbc12b7	lui	x5,0x5bbc1	  x5=0x5bbc1000
       30305000	      3029	8000396c	018d4eb3	xor	x29,x26,x24	 x26:0x00000000 x24:0x80009fc4 x29=0x80009fc4
       30315000	      3030	80003970	04b9c063	blt	x19,x11,800039b0	 x19:0x00000000 x11:0xfffffc43
       30325000	      3031	80003974	042b9063	bne	x23,x2,800039b4	 x23:0x00000000  x2:0x00000000
       30335000	      3032	80003978	41358a33	sub	x20,x11,x19	 x11:0xfffffc43 x19:0x00000000 x20=0xfffffc43
       30345000	      3033	8000397c	00ca0663	beq	x20,x12,80003988	 x20:0xfffffc43 x12:0xf95760b0
       30355000	      3034	80003980	f360a093	slti	x1,x1,-202	  x1:0x7ffff000  x1=0x00000000
       30365000	      3035	80003984	006f0863	beq	x30,x6,80003994	 x30:0x000002cd  x6:0xfa9f35fc
       30375000	      3036	80003988	00000013	addi	x0,x0,0	  x0:0x00000000
       30385000	      3037	8000398c	00354a33	xor	x20,x10,x3	 x10:0x80000000  x3:0xfffffff8 x20=0x7ffffff8
       30395000	      3038	80003990	013a56b3	srl	x13,x20,x19	 x20:0x7ffffff8 x19:0x00000000 x13=0x7ffffff8
       30405000	      3039	80003994	0057b0b3	sltu	x1,x15,x5	 x15:0x00000000  x5:0x5bbc1000  x1=0x00000001
       30415000	      3040	80003998	24aa1417	auipc	x8,0x24aa1	  x8=0xa4aa4994
       30425000	      3041	8000399c	5464b493	sltiu	x9,x9,1350	  x9:0xffffffc0  x9=0x00000000
       30435000	      3042	800039a0	01b77c63	bgeu	x14,x27,800039b8	 x14:0x00000001 x27:0x00000000
       30445000	      3043	00000000	00000013	addi	x0,x0,0	  x0:0x00000000
       30455000	      3044	800039b4	00000013	addi	x0,x0,0	  x0:0x00000000
       30465000	      3045	800039b8	36a20b13	addi	x22,x4,874	  x4:0xf53e6bf8 x22=0xf53e6f62
       30475000	      3046	800039bc	004f60b3	or	x1,x30,x4	 x30:0x000002cd  x4:0xf53e6bf8  x1=0xf53e6bfd
       30485000	      3047	800039c0	0089d263	bge	x19,x8,800039c4	 x19:0x00000000  x8:0xa4aa4994
       30495000	      3048	00000000	00000013	addi	x0,x0,0	  x0:0x00000000
       30505000	      3049	800039c0	00000013	addi	x0,x0,0	  x0:0x00000000
       30515000	      3050	800039c4	00000013	addi	x0,x0,0	  x0:0x00000000
       30525000	      3051	800039c8	e689a693	slti	x13,x19,-408	 x19:0x00000000 x13=0x00000000
       30535000	      3052	800039cc	002451b3	srl	x3,x8,x2	  x8:0xa4aa4994  x2:0x00000000  x3=0xa4aa4994
       30545000	      3053	800039d0	03758063	beq	x11,x23,800039f0	 x11:0xfffffc43 x23:0x00000000
       30555000	      3054	800039d4	008cb733	sltu	x14,x25,x8	 x25:0x7fff5aed  x8:0xa4aa4994 x14=0x00000001
       30565000	      3055	800039d8	00d6cdb3	xor	x27,x13,x13	 x13:0x00000000 x13:0x00000000 x27=0x00000000
       30575000	      3056	800039dc	3ab62c93	slti	x25,x12,939	 x12:0xf95760b0 x25=0x00000001
       30585000	      3057	800039e0	ef5aee13	ori	x28,x21,-267	 x21:0x00000001 x28=0xfffffef5
       30595000	      3058	800039e4	013d5e63	bge	x26,x19,80003a00	 x26:0x00000000 x19:0x00000000
       30605000	      3059	00000000	00000013	addi	x0,x0,0	  x0:0x00000000
       30615000	      3060	800039fc	00000013	addi	x0,x0,0	  x0:0x00000000
       30625000	      3061	80003a00	e41f7093	andi	x1,x30,-447	 x30:0x000002cd  x1=0x00000241
       30635000	      3062	80003a04	011d5093	srli	x1,x26,0x11	 x26:0x00000000  x1=0x00000000
       30645000	      3063	80003a08	40bedd33	sra	x26,x29,x11	 x29:0x80009fc4 x11:0xfffffc43 x26=0xf00013f8
       30655000	      3064	80003a0c	00668133	add	x2,x13,x6	 x13:0x00000000  x6:0xfa9f35fc  x2=0xfa9f35fc
       30665000	      3065	80003a10	02cd8063	beq	x27,x12,80003a30	 x27:0x00000000 x12:0xf95760b0
       30675000	      3066	80003a14	00000013	addi	x0,x0,0	  x0:0x00000000
       30685000	      3067	80003a18	008064b3	or	x9,x0,x8	  x0:0x00000000  x8:0xa4aa4994  x9=0xa4aa4994
       30695000	      3068	80003a1c	ac90ee93	ori	x29,x1,-1335	  x1:0x00000000 x29=0xfffffac9
       30705000	      3069	80003a20	00f9a433	slt	x8,x19,x15	 x19:0x00000000 x15:0x00000000  x8=0x00000000
       30715000	      3070	80003a24	abe54a93	xori	x21,x10,-1346	 x10:0x80000000 x21=0x7ffffabe
       30725000	      3071	80003a28	4169d993	srai	x19,x19,0x16	 x19:0x00000000 x19=0x00000000
       30735000	      3072	80003a2c	02f15c63	bge	x2,x15,80003a64	  x2:0xfa9f35fc x15:0x00000000
       30745000	      3073	80003a30	00c66733	or	x14,x12,x12	 x12:0xf95760b0 x12:0xf95760b0 x14=0xf95760b0
       30755000	      3074	80003a34	779bf793	andi	x15,x23,1913	 x23:0x00000000 x15=0x00000000
       30765000	      3075	80003a38	41e20fb3	sub	x31,x4,x30	  x4:0xf53e6bf8 x30:0x000002cd x31=0xf53e692b
       30775000	      3076	80003a3c	a3b36313	ori	x6,x6,-1477	  x6:0xfa9f35fc  x6=0xffffffff
       30785000	      3077	80003a40	00bfaab3	slt	x21,x31,x11	 x31:0xf53e692b x11:0xfffffc43 x21=0x00000001
       30795000	      3078	80003a44	41565ab3	sra	x21,x12,x21	 x12:0xf95760b0 x21:0x00000001 x21=0xfcabb058
       30805000	      3079	80003a48	41965a33	sra	x20,x12,x25	 x12:0xf95760b0 x25:0x00000001 x20=0xfcabb058
       30815000	      3080	80003a4c	ae618013	addi	x0,x3,-1306	  x3:0xa4aa4994
       30825000	      3081	80003a50	2f1113b7	lui	x7,0x2f111	  x7=0x2f111000
       30835000	      3082	80003a54	40db09b3	sub	x19,x22,x13	 x22:0xf53e6f62 x13:0x00000000 x19=0xf53e6f62
       30845000	      3083	80003a58	017a47b3	xor	x15,x20,x23	 x20:0xfcabb058 x23:0x00000000 x15=0xfcabb058
       30855000	      3084	80003a5c	0387cc63	blt	x15,x24,80003a94	 x15:0xfcabb058 x24:0x80009fc4
       30865000	      3085	80003a60	11f66293	ori	x5,x12,287	 x12:0xf95760b0  x5=0xf95761bf
       30875000	      3086	80003a64	00931213	slli	x4,x6,0x9	  x6:0xffffffff  x4=0xfffffe00
       30885000	      3087	80003a68	00df7db3	and	x27,x30,x13	 x30:0x000002cd x13:0x00000000 x27=0x00000000
       30895000	      3088	80003a6c	4113da13	srai	x20,x7,0x11	  x7:0x2f111000 x20=0x00001788
       30905000	      3089	80003a70	01006a63	bltu	x0,x16,80003a84	  x0:0x00000000 x16:0x69b09944
       30915000	      3090	00000000	00000013	addi	x0,x0,0	  x0:0x00000000
       30925000	      3091	80003a80	00000013	addi	x0,x0,0	  x0:0x00000000
       30935000	      3092	80003a84	017a0433	add	x8,x20,x23	 x20:0x00001788 x23:0x00000000  x8=0x00001788
       30945000	      3093	80003a88	01065e93	srli	x29,x12,0x10	 x12:0xf95760b0 x29=0x0000f957
       30955000	      3094	80003a8c	b2b88b13	addi	x22,x17,-1237	 x17:0x80000000 x22=0x7ffffb2b
       30965000	      3095	80003a90	89653113	sltiu	x2,x10,-1898	 x10:0x80000000  x2=0x00000001
       30975000	      3096	80003a94	86d52a93	slti	x21,x10,-1939	 x10:0x80000000 x21=0x00000001
       30985000	      3097	80003a98	014a9b13	slli	x22,x21,0x14	 x21:0x00000001 x22=0x00100000
       30995000	      3098	80003a9c	1eb5a297	auipc	x5,0x1eb5a	  x5=0x9eb5da98
       31005000	      3099	80003aa0	dbad3613	sltiu	x12,x26,-582	 x26:0xf00013f8 x12=0x00000001
       31015000	      3100	80003aa4	00000013	addi	x0,x0,0	  x0:0x00000000
       31025000	      3101	80003aa8	0150fe63	bgeu	x1,x21,80003ac4	  x1:0x00000000 x21:0x00000001
       31035000	      3102	80003aac	00817263	bgeu	x2,x8,80003ab0	  x2:0x00000001  x8:0x00001788
       31045000	      3103	80003ab0	040a7063	bgeu	x20,x0,80003af0	 x20:0x00001788  x0:0x00000000
       31055000	      3104	00000000	00000013	addi	x0,x0,0	  x0:0x00000000
       31065000	      3105	80003aec	00000013	addi	x0,x0,0	  x0:0x00000000
       31075000	      3106	80003af0	0002d1b3	srl	x3,x5,x0	  x5:0x9eb5da98  x0:0x00000000  x3=0x9eb5da98
       31085000	      3107	80003af4	da95c293	xori	x5,x11,-599	 x11:0xfffffc43  x5=0x000001ea
       31095000	      3108	80003af8	01425033	srl	x0,x4,x20	  x4:0xfffffe00 x20:0x00001788
       31105000	      3109	80003afc	0036c9b3	xor	x19,x13,x3	 x13:0x00000000  x3:0x9eb5da98 x19=0x9eb5da98
       31115000	      3110	80003b00	013a4e63	blt	x20,x19,80003b1c	 x20:0x00001788 x19:0x9eb5da98
       31125000	      3111	80003b04	00edabb3	slt	x23,x27,x14	 x27:0x00000000 x14:0xf95760b0 x23=0x00000000
       31135000	      3112	80003b08	1f33e313	ori	x6,x7,499	  x7:0x2f111000  x6=0x2f1111f3
       31145000	      3113	80003b0c	01abde63	bge	x23,x26,80003b28	 x23:0x00000000 x26:0xf00013f8
       31155000	      3114	00000000	00000013	addi	x0,x0,0	  x0:0x00000000
       31165000	      3115	80003b24	00000013	addi	x0,x0,0	  x0:0x00000000
       31175000	      3116	80003b28	00f02433	slt	x8,x0,x15	  x0:0x00000000 x15:0xfcabb058  x8=0x00000000
       31185000	      3117	80003b2c	00163e33	sltu	x28,x12,x1	 x12:0x00000001  x1:0x00000000 x28=0x00000000
       31195000	      3118	80003b30	407cd893	srai	x17,x25,0x7	 x25:0x00000001 x17=0x00000000
       31205000	      3119	80003b34	4188d0b3	sra	x1,x17,x24	 x17:0x00000000 x24:0x80009fc4  x1=0x00000000
       31215000	      3120	80003b38	40f4da33	sra	x20,x9,x15	  x9:0xa4aa4994 x15:0xfcabb058 x20=0xffffffa4
       31225000	      3121	80003b3c	00229cb3	sll	x25,x5,x2	  x5:0x000001ea  x2:0x00000001 x25=0x000003d4
       31235000	      3122	80003b40	41515d93	srai	x27,x2,0x15	  x2:0x00000001 x27=0x00000000
       31245000	      3123	80003b44	007a9a63	bne	x21,x7,80003b58	 x21:0x00000001  x7:0x2f111000
       31255000	      3124	00000000	00000013	addi	x0,x0,0	  x0:0x00000000
       31265000	      3125	80003b54	00000013	addi	x0,x0,0	  x0:0x00000000
       31275000	      3126	80003b58	0143e833	or	x16,x7,x20	  x7:0x2f111000 x20:0xffffffa4 x16=0xffffffa4
       31285000	      3127	80003b5c	05fb9663	bne	x23,x31,80003ba8	 x23:0x00000000 x31:0xf53e692b
       31295000	      3128	00000000	00000013	addi	x0,x0,0	  x0:0x00000000
       31305000	      3129	80003ba4	00000013	addi	x0,x0,0	  x0:0x00000000
       31315000	      3130	80003ba8	01503eb3	sltu	x29,x0,x21	  x0:0x00000000 x21:0x00000001 x29=0x00000001
       31325000	      3131	80003bac	013dcfb3	xor	x31,x27,x19	 x27:0x00000000 x19:0x9eb5da98 x31=0x9eb5da98
       31335000	      3132	80003bb0	046f5063	bge	x30,x6,80003bf0	 x30:0x000002cd  x6:0x2f1111f3
       31345000	      3133	80003bb4	00000013	addi	x0,x0,0	  x0:0x00000000
       31355000	      3134	80003bb8	0279d863	bge	x19,x7,80003be8	 x19:0x9eb5da98  x7:0x2f111000
       31365000	      3135	80003bbc	00b7c1b3	xor	x3,x15,x11	 x15:0xfcabb058 x11:0xfffffc43  x3=0x03544c1b
       31375000	      3136	80003bc0	03878663	beq	x15,x24,80003bec	 x15:0xfcabb058 x24:0x80009fc4
       31385000	      3137	80003bc4	aa12e637	lui	x12,0xaa12e	 x12=0xaa12e000
       31395000	      3138	80003bc8	010ba333	slt	x6,x23,x16	 x23:0x00000000 x16:0xffffffa4  x6=0x00000000
       31405000	      3139	80003bcc	ca172f93	slti	x31,x14,-863	 x14:0xf95760b0 x31=0x00000001
       31415000	      3140	80003bd0	41818db3	sub	x27,x3,x24	  x3:0x03544c1b x24:0x80009fc4 x27=0x8353ac57
       31425000	      3141	80003bd4	05561063	bne	x12,x21,80003c14	 x12:0xaa12e000 x21:0x00000001
       31435000	      3142	00000000	00000013	addi	x0,x0,0	  x0:0x00000000
       31445000	      3143	80003c10	00000013	addi	x0,x0,0	  x0:0x00000000
       31455000	      3144	80003c14	40585f33	sra	x30,x16,x5	 x16:0xffffffa4  x5:0x000001ea x30=0xffffffff
       31465000	      3145	80003c18	01ea4863	blt	x20,x30,80003c28	 x20:0xffffffa4 x30:0xffffffff
       31475000	      3146	00000000	00000013	addi	x0,x0,0	  x0:0x00000000
       31485000	      3147	80003c24	00000013	addi	x0,x0,0	  x0:0x00000000
       31495000	      3148	80003c28	00000013	addi	x0,x0,0	  x0:0x00000000
       31505000	      3149	80003c2c	85946fb7	lui	x31,0x85946	 x31=0x85946000
       31515000	      3150	80003c30	01624e63	blt	x4,x22,80003c4c	  x4:0xfffffe00 x22:0x00100000
       31525000	      3151	00000000	00000013	addi	x0,x0,0	  x0:0x00000000
       31535000	      3152	80003c48	00000013	addi	x0,x0,0	  x0:0x00000000
       31545000	      3153	80003c4c	6033b093	sltiu	x1,x7,1539	  x7:0x2f111000  x1=0x00000000
       31555000	      3154	80003c50	8455ca93	xori	x21,x11,-1979	 x11:0xfffffc43 x21=0x00000406
       31565000	      3155	80003c54	04b91463	bne	x18,x11,80003c9c	 x18:0x80009f74 x11:0xfffffc43
       31575000	      3156	00000000	00000013	addi	x0,x0,0	  x0:0x00000000
       31585000	      3157	80003c98	00000013	addi	x0,x0,0	  x0:0x00000000
       31595000	      3158	80003c9c	013250b3	srl	x1,x4,x19	  x4:0xfffffe00 x19:0x9eb5da98  x1=0x000000ff
       31605000	      3159	80003ca0	037aec63	bltu	x21,x23,80003cd8	 x21:0x00000406 x23:0x00000000
       31615000	      3160	80003ca4	ae677313	andi	x6,x14,-1306	 x14:0xf95760b0  x6=0xf95760a0
       31625000	      3161	80003ca8	0369c063	blt	x19,x22,80003cc8	 x19:0x9eb5da98 x22:0x00100000
       31635000	      3162	00000000	00000013	addi	x0,x0,0	  x0:0x00000000
       31645000	      3163	80003cc4	00000013	addi	x0,x0,0	  x0:0x00000000
       31655000	      3164	80003cc8	0366c063	blt	x13,x22,80003ce8	 x13:0x00000000 x22:0x00100000
       31665000	      3165	00000000	00000013	addi	x0,x0,0	  x0:0x00000000
       31675000	      3166	80003ce4	00000013	addi	x0,x0,0	  x0:0x00000000
       31685000	      3167	80003ce8	00000013	addi	x0,x0,0	  x0:0x00000000
       31695000	      3168	80003cec	01ea7633	and	x12,x20,x30	 x20:0xffffffa4 x30:0xffffffff x12=0xffffffa4
       31705000	      3169	80003cf0	0124b7b3	sltu	x15,x9,x18	  x9:0xa4aa4994 x18:0x80009f74 x15=0x00000000
       31715000	      3170	80003cf4	40005e93	srai	x29,x0,0x0	  x0:0x00000000 x29=0x00000000
       31725000	      3171	80003cf8	40d983b3	sub	x7,x19,x13	 x19:0x9eb5da98 x13:0x00000000  x7=0x9eb5da98
       31735000	      3172	80003cfc	00000013	addi	x0,x0,0	  x0:0x00000000
       31745000	      3173	80003d00	416f5093	srai	x1,x30,0x16	 x30:0xffffffff  x1=0xffffffff
       31755000	      3174	80003d04	00000013	addi	x0,x0,0	  x0:0x00000000
       31765000	      3175	80003d08	00a2ef33	or	x30,x5,x10	  x5:0x000001ea x10:0x80000000 x30=0x800001ea
       31775000	      3176	80003d0c	02041c63	bne	x8,x0,80003d44	  x8:0x00000000  x0:0x00000000
       31785000	      3177	80003d10	01754233	xor	x4,x10,x23	 x10:0x80000000 x23:0x00000000  x4=0x80000000
       31795000	      3178	80003d14	05f58063	beq	x11,x31,80003d54	 x11:0xfffffc43 x31:0x85946000
       31805000	      3179	80003d18	00000013	addi	x0,x0,0	  x0:0x00000000
       31815000	      3180	80003d1c	01e278b3	and	x17,x4,x30	  x4:0x80000000 x30:0x800001ea x17=0x80000000
       31825000	      3181	80003d20	012bbe33	sltu	x28,x23,x18	 x23:0x00000000 x18:0x80009f74 x28=0x00000001
       31835000	      3182	80003d24	00325993	srli	x19,x4,0x3	  x4:0x80000000 x19=0x10000000
       31845000	      3183	80003d28	40c18333	sub	x6,x3,x12	  x3:0x03544c1b x12:0xffffffa4  x6=0x03544c77
       31855000	      3184	80003d2c	00560433	add	x8,x12,x5	 x12:0xffffffa4  x5:0x000001ea  x8=0x0000018e
       31865000	      3185	80003d30	01471133	sll	x2,x14,x20	 x14:0xf95760b0 x20:0xffffffa4  x2=0x95760b00
       31875000	      3186	80003d34	e832c693	xori	x13,x5,-381	  x5:0x000001ea x13=0xffffff69
       31885000	      3187	80003d38	9ae86793	ori	x15,x16,-1618	 x16:0xffffffa4 x15=0xffffffae
       31895000	      3188	80003d3c	015af0b3	and	x1,x21,x21	 x21:0x00000406 x21:0x00000406  x1=0x00000406
       31905000	      3189	80003d40	0177ef33	or	x30,x15,x23	 x15:0xffffffae x23:0x00000000 x30=0xffffffae
       31915000	      3190	80003d44	762e0d93	addi	x27,x28,1890	 x28:0x00000001 x27=0x00000763
       31925000	      3191	80003d48	0ee33793	sltiu	x15,x6,238	  x6:0x03544c77 x15=0x00000000
       31935000	      3192	80003d4c	029c4663	blt	x24,x9,80003d78	 x24:0x80009fc4  x9:0xa4aa4994
       31945000	      3193	00000000	00000013	addi	x0,x0,0	  x0:0x00000000
       31955000	      3194	80003d74	00000013	addi	x0,x0,0	  x0:0x00000000
       31965000	      3195	80003d78	41af0a33	sub	x20,x30,x26	 x30:0xffffffae x26:0xf00013f8 x20=0x0fffebb6
       31975000	      3196	80003d7c	4a2afe37	lui	x28,0x4a2af	 x28=0x4a2af000
       31985000	      3197	80003d80	02e25863	bge	x4,x14,80003db0	  x4:0x80000000 x14:0xf95760b0
       31995000	      3198	80003d84	017a1293	slli	x5,x20,0x17	 x20:0x0fffebb6  x5=0xdb000000
       32005000	      3199	80003d88	0026eab3	or	x21,x13,x2	 x13:0xffffff69  x2:0x95760b00 x21=0xffffff69
       32015000	      3200	80003d8c	0422e663	bltu	x5,x2,80003dd8	  x5:0xdb000000  x2:0x95760b00
       32025000	      3201	80003d90	055be863	bltu	x23,x21,80003de0	 x23:0x00000000 x21:0xffffff69
       32035000	      3202	00000000	00000013	addi	x0,x0,0	  x0:0x00000000
       32045000	      3203	80003ddc	00000013	addi	x0,x0,0	  x0:0x00000000
       32055000	      3204	80003de0	004be133	or	x2,x23,x4	 x23:0x00000000  x4:0x80000000  x2=0x80000000
       32065000	      3205	80003de4	41f1d013	srai	x0,x3,0x1f	  x3:0x03544c1b
       32075000	      3206	80003de8	01fc9f93	slli	x31,x25,0x1f	 x25:0x000003d4 x31=0x00000000
       32085000	      3207	80003dec	f7df4293	xori	x5,x30,-131	 x30:0xffffffae  x5=0x000000d3
       32095000	      3208	80003df0	0174ffb3	and	x31,x9,x23	  x9:0xa4aa4994 x23:0x00000000 x31=0x00000000
       32105000	      3209	80003df4	0476c463	blt	x13,x7,80003e3c	 x13:0xffffff69  x7:0x9eb5da98
       32115000	      3210	80003df8	009a7663	bgeu	x20,x9,80003e04	 x20:0x0fffebb6  x9:0xa4aa4994
       32125000	      3211	80003dfc	005cd233	srl	x4,x25,x5	 x25:0x000003d4  x5:0x000000d3  x4=0x00000000
       32135000	      3212	80003e00	41c08433	sub	x8,x1,x28	  x1:0x00000406 x28:0x4a2af000  x8=0xb5d51406
       32145000	      3213	80003e04	007fe2b3	or	x5,x31,x7	 x31:0x00000000  x7:0x9eb5da98  x5=0x9eb5da98
       32155000	      3214	80003e08	4017f693	andi	x13,x15,1025	 x15:0x00000000 x13=0x00000000
       32165000	      3215	80003e0c	01130eb3	add	x29,x6,x17	  x6:0x03544c77 x17:0x80000000 x29=0x83544c77
       32175000	      3216	80003e10	002c5c63	bge	x24,x2,80003e28	 x24:0x80009fc4  x2:0x80000000
       32185000	      3217	00000000	00000013	addi	x0,x0,0	  x0:0x00000000
       32195000	      3218	80003e24	00000013	addi	x0,x0,0	  x0:0x00000000
       32205000	      3219	80003e28	018ace63	blt	x21,x24,80003e44	 x21:0xffffff69 x24:0x80009fc4
       32215000	      3220	80003e2c	01577db3	and	x27,x14,x21	 x14:0xf95760b0 x21:0xffffff69 x27=0xf9576020
       32225000	      3221	80003e30	011018b3	sll	x17,x0,x17	  x0:0x00000000 x17:0x80000000 x17=0x00000000
       32235000	      3222	80003e34	00000013	addi	x0,x0,0	  x0:0x00000000
       32245000	      3223	80003e38	24dcc693	xori	x13,x25,589	 x25:0x000003d4 x13=0x00000199
       32255000	      3224	80003e3c	04269063	bne	x13,x2,80003e7c	 x13:0x00000199  x2:0x80000000
       32265000	      3225	00000000	00000013	addi	x0,x0,0	  x0:0x00000000
       32275000	      3226	80003e78	00000013	addi	x0,x0,0	  x0:0x00000000
       32285000	      3227	80003e7c	00a42f33	slt	x30,x8,x10	  x8:0xb5d51406 x10:0x80000000 x30=0x00000000
       32295000	      3228	80003e80	9484b113	sltiu	x2,x9,-1720	  x9:0xa4aa4994  x2=0x00000001
       32305000	      3229	80003e84	0283d063	bge	x7,x8,80003ea4	  x7:0x9eb5da98  x8:0xb5d51406
       32315000	      3230	80003e88	01be6bb3	or	x23,x28,x27	 x28:0x4a2af000 x27:0xf9576020 x23=0xfb7ff020
       32325000	      3231	80003e8c	ffbb4f13	xori	x30,x22,-5	 x22:0x00100000 x30=0xffeffffb
       32335000	      3232	80003e90	015104b3	add	x9,x2,x21	  x2:0x00000001 x21:0xffffff69  x9=0xffffff6a
       32345000	      3233	80003e94	007905b3	add	x11,x18,x7	 x18:0x80009f74  x7:0x9eb5da98 x11=0x1eb67a0c
       32355000	      3234	80003e98	40e50fb3	sub	x31,x10,x14	 x10:0x80000000 x14:0xf95760b0 x31=0x86a89f50
       32365000	      3235	80003e9c	41b35013	srai	x0,x6,0x1b	  x6:0x03544c77
       32375000	      3236	80003ea0	0143ceb3	xor	x29,x7,x20	  x7:0x9eb5da98 x20:0x0fffebb6 x29=0x914a312e
       32385000	      3237	80003ea4	7c634213	xori	x4,x6,1990	  x6:0x03544c77  x4=0x03544bb1
       32395000	      3238	80003ea8	01d09fb3	sll	x31,x1,x29	  x1:0x00000406 x29:0x914a312e x31=0x01018000
       32405000	      3239	80003eac	00d35e33	srl	x28,x6,x13	  x6:0x03544c77 x13:0x00000199 x28=0x00000001
       32415000	      3240	80003eb0	05d1d263	bge	x3,x29,80003ef4	  x3:0x03544c1b x29:0x914a312e
       32425000	      3241	00000000	00000013	addi	x0,x0,0	  x0:0x00000000
       32435000	      3242	80003ef0	00000013	addi	x0,x0,0	  x0:0x00000000
       32445000	      3243	80003ef4	40b15133	sra	x2,x2,x11	  x2:0x00000001 x11:0x1eb67a0c  x2=0x00000000
       32455000	      3244	80003ef8	053a7663	bgeu	x20,x19,80003f44	 x20:0x0fffebb6 x19:0x10000000
       32465000	      3245	80003efc	01b76fb3	or	x31,x14,x27	 x14:0xf95760b0 x27:0xf9576020 x31=0xf95760b0
       32475000	      3246	80003f00	cc45a993	slti	x19,x11,-828	 x11:0x1eb67a0c x19=0x00000000
       32485000	      3247	80003f04	7a8b8d97	auipc	x27,0x7a8b8	 x27=0xfa8bbf00
       32495000	      3248	80003f08	d549f293	andi	x5,x19,-684	 x19:0x00000000  x5=0x00000000
       32505000	      3249	80003f0c	01dade63	bge	x21,x29,80003f28	 x21:0xffffff69 x29:0x914a312e
       32515000	      3250	00000000	00000013	addi	x0,x0,0	  x0:0x00000000
       32525000	      3251	80003f24	00000013	addi	x0,x0,0	  x0:0x00000000
       32535000	      3252	80003f28	2af5b393	sltiu	x7,x11,687	 x11:0x1eb67a0c  x7=0x00000000
       32545000	      3253	80003f2c	04a58463	beq	x11,x10,80003f74	 x11:0x1eb67a0c x10:0x80000000
       32555000	      3254	80003f30	41925333	sra	x6,x4,x25	  x4:0x03544bb1 x25:0x000003d4  x6=0x00000035
       32565000	      3255	80003f34	01554db3	xor	x27,x10,x21	 x10:0x80000000 x21:0xffffff69 x27=0x7fffff69
       32575000	      3256	80003f38	fd56e593	ori	x11,x13,-43	 x13:0x00000199 x11=0xffffffdd
       32585000	      3257	80003f3c	017da233	slt	x4,x27,x23	 x27:0x7fffff69 x23:0xfb7ff020  x4=0x00000000
       32595000	      3258	80003f40	403206b3	sub	x13,x4,x3	  x4:0x00000000  x3:0x03544c1b x13=0xfcabb3e5
       32605000	      3259	80003f44	40a00333	sub	x6,x0,x10	  x0:0x00000000 x10:0x80000000  x6=0x80000000
       32615000	      3260	80003f48	0332c863	blt	x5,x19,80003f78	  x5:0x00000000 x19:0x00000000
       32625000	      3261	80003f4c	007d8a63	beq	x27,x7,80003f60	 x27:0x7fffff69  x7:0x00000000
       32635000	      3262	80003f50	b44f0b93	addi	x23,x30,-1212	 x30:0xffeffffb x23=0xffeffb3f
       32645000	      3263	80003f54	4fb17f93	andi	x31,x2,1275	  x2:0x00000000 x31=0x00000000
       32655000	      3264	80003f58	0a130a93	addi	x21,x6,161	  x6:0x80000000 x21=0x800000a1
       32665000	      3265	80003f5c	d6064b13	xori	x22,x12,-672	 x12:0xffffffa4 x22=0x000002c4
       32675000	      3266	80003f60	00677263	bgeu	x14,x6,80003f64	 x14:0xf95760b0  x6:0x80000000
       32685000	      3267	00000000	00000013	addi	x0,x0,0	  x0:0x00000000
       32695000	      3268	80003f60	00000013	addi	x0,x0,0	  x0:0x00000000
       32705000	      3269	80003f64	03924c63	blt	x4,x25,80003f9c	  x4:0x00000000 x25:0x000003d4
       32715000	      3270	00000000	00000013	addi	x0,x0,0	  x0:0x00000000
       32725000	      3271	80003f98	00000013	addi	x0,x0,0	  x0:0x00000000
       32735000	      3272	80003f9c	017690b3	sll	x1,x13,x23	 x13:0xfcabb3e5 x23:0xffeffb3f  x1=0x80000000
       32745000	      3273	80003fa0	01f077b3	and	x15,x0,x31	  x0:0x00000000 x31:0x00000000 x15=0x00000000
       32755000	      3274	80003fa4	00000013	addi	x0,x0,0	  x0:0x00000000
       32765000	      3275	80003fa8	a6b47693	andi	x13,x8,-1429	  x8:0xb5d51406 x13=0xb5d51002
       32775000	      3276	80003fac	04556463	bltu	x10,x5,80003ff4	 x10:0x80000000  x5:0x00000000
       32785000	      3277	80003fb0	017960b3	or	x1,x18,x23	 x18:0x80009f74 x23:0xffeffb3f  x1=0xffefff7f
       32795000	      3278	80003fb4	40f8d893	srai	x17,x17,0xf	 x17:0x00000000 x17=0x00000000
       32805000	      3279	80003fb8	011993b3	sll	x7,x19,x17	 x19:0x00000000 x17:0x00000000  x7=0x00000000
       32815000	      3280	80003fbc	01af4fb3	xor	x31,x30,x26	 x30:0xffeffffb x26:0xf00013f8 x31=0x0fefec03
       32825000	      3281	80003fc0	01f9f433	and	x8,x19,x31	 x19:0x00000000 x31:0x0fefec03  x8=0x00000000
       32835000	      3282	80003fc4	41cdd733	sra	x14,x27,x28	 x27:0x7fffff69 x28:0x00000001 x14=0x3fffffb4
       32845000	      3283	80003fc8	41fe8ab3	sub	x21,x29,x31	 x29:0x914a312e x31:0x0fefec03 x21=0x815a452b
       32855000	      3284	80003fcc	00e20863	beq	x4,x14,80003fdc	  x4:0x00000000 x14:0x3fffffb4
       32865000	      3285	80003fd0	0002abb3	slt	x23,x5,x0	  x5:0x00000000  x0:0x00000000 x23=0x00000000
       32875000	      3286	80003fd4	00c14833	xor	x16,x2,x12	  x2:0x00000000 x12:0xffffffa4 x16=0xffffffa4
       32885000	      3287	80003fd8	00000013	addi	x0,x0,0	  x0:0x00000000
       32895000	      3288	80003fdc	cf75a0b7	lui	x1,0xcf75a	  x1=0xcf75a000
       32905000	      3289	80003fe0	01a3a233	slt	x4,x7,x26	  x7:0x00000000 x26:0xf00013f8  x4=0x00000000
       32915000	      3290	80003fe4	00000013	addi	x0,x0,0	  x0:0x00000000
       32925000	      3291	80003fe8	007e7033	and	x0,x28,x7	 x28:0x00000001  x7:0x00000000
       32935000	      3292	80003fec	016f7c63	bgeu	x30,x22,80004004	 x30:0xffeffffb x22:0x000002c4
       32945000	      3293	00000000	00000013	addi	x0,x0,0	  x0:0x00000000
       32955000	      3294	80004000	00000013	addi	x0,x0,0	  x0:0x00000000
       32965000	      3295	80004004	553e3993	sltiu	x19,x28,1363	 x28:0x00000001 x19=0x00000001
       32975000	      3296	80004008	000c4263	blt	x24,x0,8000400c	 x24:0x80009fc4  x0:0x00000000
       32985000	      3297	00000000	00000013	addi	x0,x0,0	  x0:0x00000000
       32995000	      3298	80004008	00000013	addi	x0,x0,0	  x0:0x00000000
       33005000	      3299	8000400c	04408063	beq	x1,x4,8000404c	  x1:0xcf75a000  x4:0x00000000
       33015000	      3300	80004010	3a003a37	lui	x20,0x3a003	 x20=0x3a003000
       33025000	      3301	80004014	6ecd61b7	lui	x3,0x6ecd6	  x3=0x6ecd6000
       33035000	      3302	80004018	00430e63	beq	x6,x4,80004034	  x6:0x80000000  x4:0x00000000
       33045000	      3303	8000401c	01ef6fb3	or	x31,x30,x30	 x30:0xffeffffb x30:0xffeffffb x31=0xffeffffb
       33055000	      3304	80004020	01f34333	xor	x6,x6,x31	  x6:0x80000000 x31:0xffeffffb  x6=0x7feffffb
       33065000	      3305	80004024	019fec63	bltu	x31,x25,8000403c	 x31:0xffeffffb x25:0x000003d4
       33075000	      3306	80004028	02d79c63	bne	x15,x13,80004060	 x15:0x00000000 x13:0xb5d51002
       33085000	      3307	00000000	00000013	addi	x0,x0,0	  x0:0x00000000
       33095000	      3308	8000405c	00000013	addi	x0,x0,0	  x0:0x00000000
       33105000	      3309	80004060	f7594b93	xori	x23,x18,-139	 x18:0x80009f74 x23=0x7fff6001
       33115000	      3310	80004064	e9f97193	andi	x3,x18,-353	 x18:0x80009f74  x3=0x80009e14
       33125000	      3311	80004068	0093cb33	xor	x22,x7,x9	  x7:0x00000000  x9:0xffffff6a x22=0xffffff6a
       33135000	      3312	8000406c	c58133b7	lui	x7,0xc5813	  x7=0xc5813000
       33145000	      3313	80004070	07f2f493	andi	x9,x5,127	  x5:0x00000000  x9=0x00000000
       33155000	      3314	80004074	01850663	beq	x10,x24,80004080	 x10:0x80000000 x24:0x80009fc4
       33165000	      3315	80004078	016bceb3	xor	x29,x23,x22	 x23:0x7fff6001 x22:0xffffff6a x29=0x80009f6b
       33175000	      3316	8000407c	41f4de33	sra	x28,x9,x31	  x9:0x00000000 x31:0xffeffffb x28=0x00000000
       33185000	      3317	80004080	59307213	andi	x4,x0,1427	  x0:0x00000000  x4=0x00000000
       33195000	      3318	80004084	02cf0663	beq	x30,x12,800040b0	 x30:0xffeffffb x12:0xffffffa4
       33205000	      3319	80004088	019cd193	srli	x3,x25,0x19	 x25:0x000003d4  x3=0x00000000
       33215000	      3320	8000408c	01171813	slli	x16,x14,0x11	 x14:0x3fffffb4 x16=0xff680000
       33225000	      3321	80004090	02f0d063	bge	x1,x15,800040b0	  x1:0xcf75a000 x15:0x00000000
       33235000	      3322	80004094	03567063	bgeu	x12,x21,800040b4	 x12:0xffffffa4 x21:0x815a452b
       33245000	      3323	00000000	00000013	addi	x0,x0,0	  x0:0x00000000
       33255000	      3324	800040b0	00000013	addi	x0,x0,0	  x0:0x00000000
       33265000	      3325	800040b4	0271d063	bge	x3,x7,800040d4	  x3:0x00000000  x7:0xc5813000
       33275000	      3326	00000000	00000013	addi	x0,x0,0	  x0:0x00000000
       33285000	      3327	800040d0	00000013	addi	x0,x0,0	  x0:0x00000000
       33295000	      3328	800040d4	0354c863	blt	x9,x21,80004104	  x9:0x00000000 x21:0x815a452b
       33305000	      3329	800040d8	aeb7f793	andi	x15,x15,-1301	 x15:0x00000000 x15=0x00000000
       33315000	      3330	800040dc	014f24b3	slt	x9,x30,x20	 x30:0xffeffffb x20:0x3a003000  x9=0x00000001
       33325000	      3331	800040e0	d5db1d97	auipc	x27,0xd5db1	 x27=0x55db50dc
       33335000	      3332	800040e4	97188413	addi	x8,x17,-1679	 x17:0x00000000  x8=0xfffff971
       33345000	      3333	800040e8	412758b3	sra	x17,x14,x18	 x14:0x3fffffb4 x18:0x80009f74 x17=0x000003ff
       33355000	      3334	800040ec	419787b3	sub	x15,x15,x25	 x15:0x00000000 x25:0x000003d4 x15=0xfffffc2c
       33365000	      3335	800040f0	005cae33	slt	x28,x25,x5	 x25:0x000003d4  x5:0x00000000 x28=0x00000000
       33375000	      3336	800040f4	9f293d13	sltiu	x26,x18,-1550	 x18:0x80009f74 x26=0x00000001
       33385000	      3337	800040f8	01f4f833	and	x16,x9,x31	  x9:0x00000001 x31:0xffeffffb x16=0x00000001
       33395000	      3338	800040fc	013fdb13	srli	x22,x31,0x13	 x31:0xffeffffb x22=0x00001ffd
       33405000	      3339	80004100	40a25f33	sra	x30,x4,x10	  x4:0x00000000 x10:0x80000000 x30=0x00000000
       33415000	      3340	80004104	d6e3ea93	ori	x21,x7,-658	  x7:0xc5813000 x21=0xfffffd6e
       33425000	      3341	80004108	01da99b3	sll	x19,x21,x29	 x21:0xfffffd6e x29:0x80009f6b x19=0xffeb7000
       33435000	      3342	8000410c	01389393	slli	x7,x17,0x13	 x17:0x000003ff  x7=0x1ff80000
       33445000	      3343	80004110	00000013	addi	x0,x0,0	  x0:0x00000000
       33455000	      3344	80004114	006f6fb3	or	x31,x30,x6	 x30:0x00000000  x6:0x7feffffb x31=0x7feffffb
       33465000	      3345	80004118	01955d13	srli	x26,x10,0x19	 x10:0x80000000 x26=0x00000040
       33475000	      3346	8000411c	00000013	addi	x0,x0,0	  x0:0x00000000
       33485000	      3347	80004120	014fbfb3	sltu	x31,x31,x20	 x31:0x7feffffb x20:0x3a003000 x31=0x00000000
       33495000	      3348	80004124	41708033	sub	x0,x1,x23	  x1:0xcf75a000 x23:0x7fff6001
       33505000	      3349	80004128	419085b3	sub	x11,x1,x25	  x1:0xcf75a000 x25:0x000003d4 x11=0xcf759c2c
       33515000	      3350	8000412c	dcf23f93	sltiu	x31,x4,-561	  x4:0x00000000 x31=0x00000001
       33525000	      3351	80004130	01e13fb3	sltu	x31,x2,x30	  x2:0x00000000 x30:0x00000000 x31=0x00000000
       33535000	      3352	80004134	409886b3	sub	x13,x17,x9	 x17:0x000003ff  x9:0x00000001 x13=0x000003fe
       33545000	      3353	80004138	f1b9e793	ori	x15,x19,-229	 x19:0xffeb7000 x15=0xffffff1b
       33555000	      3354	8000413c	00ac70b3	and	x1,x24,x10	 x24:0x80009fc4 x10:0x80000000  x1=0x80000000
       33565000	      3355	80004140	00005117	auipc	x2,0x5	  x2=0x8000913c
       33575000	      3356	80004144	8cd10113	addi	x2,x2,-1843	  x2:0x8000913c  x2=0x80008a09
       33585000	      3357	80004148	01f39633	sll	x12,x7,x31	  x7:0x1ff80000 x31:0x00000000 x12=0x1ff80000
       33595000	      3358	8000414c	01df6833	or	x16,x30,x29	 x30:0x00000000 x29:0x80009f6b x16=0x80009f6b
       33605000	      3359	80004150	ff010623	sb	x16,-20(x2)	  x2:0x80008a09 x16:0x80009f6b PA:0x800089f5
       33615000	      3360	80004154	00410083	lb	x1,4(x2)	  x2:0x80008a09  x1=0xffffffb3 PA:0x80008a0d
       33625000	      3361	80004158	403c0733	sub	x14,x24,x3	 x24:0x80009fc4  x3:0x00000000 x14=0x80009fc4
       33635000	      3362	8000415c	fe811aa3	sh	x8,-11(x2)	  x2:0x80008a09  x8:0xfffff971 PA:0x800089fe
       33645000	      3363	80004160	007a05b3	add	x11,x20,x7	 x20:0x3a003000  x7:0x1ff80000 x11=0x59f83000
       33655000	      3364	80004164	4d91c713	xori	x14,x3,1241	  x3:0x00000000 x14=0x000004d9
       33665000	      3365	80004168	1892bf13	sltiu	x30,x5,393	  x5:0x00000000 x30=0x00000001
       33675000	      3366	8000416c	014c0333	add	x6,x24,x20	 x24:0x80009fc4 x20:0x3a003000  x6=0xba00cfc4
       33685000	      3367	80004170	02c10383	lb	x7,44(x2)	  x2:0x80008a09  x7=0xffffffa4 PA:0x80008a35
       33695000	      3368	80004174	40b1d013	srai	x0,x3,0xb	  x3:0x00000000
       33705000	      3369	80004178	04014b83	lbu	x23,64(x2)	  x2:0x80008a09 x23=0x000000bb PA:0x80008a49
       33715000	      3370	8000417c	1e55bc93	sltiu	x25,x11,485	 x11:0x59f83000 x25=0x00000000
       33725000	      3371	80004180	bb3a8e93	addi	x29,x21,-1101	 x21:0xfffffd6e x29=0xfffff921
       33735000	      3372	80004184	005d65b3	or	x11,x26,x5	 x26:0x00000040  x5:0x00000000 x11=0x00000040
       33745000	      3373	80004188	00d11083	lh	x1,13(x2)	  x2:0x80008a09  x1=0xffffe489 PA:0x80008a16
       33755000	      3374	8000418c	00799633	sll	x12,x19,x7	 x19:0xffeb7000  x7:0xffffffa4 x12=0xfeb70000
       33765000	      3375	80004190	01282d33	slt	x26,x16,x18	 x16:0x80009f6b x18:0x80009f74 x26=0x00000001
       33775000	      3376	80004194	00000013	addi	x0,x0,0	  x0:0x00000000
       33785000	      3377	80004198	d632c697	auipc	x13,0xd632c	 x13=0x56330194
       33795000	      3378	8000419c	00910303	lb	x6,9(x2)	  x2:0x80008a09  x6=0x0000001d PA:0x80008a12
       33805000	      3379	800041a0	0c0ea817	auipc	x16,0xc0ea	 x16=0x8c0ee19c
       33815000	      3380	800041a4	c89a4693	xori	x13,x20,-887	 x20:0x3a003000 x13=0xc5ffcc89
       33825000	      3381	800041a8	174b0993	addi	x19,x22,372	 x22:0x00001ffd x19=0x00002171
       33835000	      3382	800041ac	eaf30f93	addi	x31,x6,-337	  x6:0x0000001d x31=0xfffffecc
       33845000	      3383	800041b0	02a10603	lb	x12,42(x2)	  x2:0x80008a09 x12=0x0000007d PA:0x80008a33
       33855000	      3384	800041b4	40e0df13	srai	x30,x1,0xe	  x1:0xffffe489 x30=0xffffffff
       33865000	      3385	800041b8	56323213	sltiu	x4,x4,1379	  x4:0x00000000  x4=0x00000001
       33875000	      3386	800041bc	fd312883	lw	x17,-45(x2)	  x2:0x80008a09 x17=0xe6b642d5 PA:0x800089dc
       33885000	      3387	800041c0	03f10d23	sb	x31,58(x2)	  x2:0x80008a09 x31:0xfffffecc PA:0x80008a43
       33895000	      3388	800041c4	022c1863	bne	x24,x2,800041f4	 x24:0x80009fc4  x2:0x80008a09
       33905000	      3389	00000000	00000013	addi	x0,x0,0	  x0:0x00000000
       33915000	      3390	800041f0	00000013	addi	x0,x0,0	  x0:0x00000000
       33925000	      3391	800041f4	01f66e33	or	x28,x12,x31	 x12:0x0000007d x31:0xfffffecc x28=0xfffffefd
       33935000	      3392	800041f8	4188d8b3	sra	x17,x17,x24	 x17:0xe6b642d5 x24:0x80009fc4 x17=0xfe6b642d
       33945000	      3393	800041fc	01d8d033	srl	x0,x17,x29	 x17:0xfe6b642d x29:0xfffff921
       33955000	      3394	80004200	013ae4b3	or	x9,x21,x19	 x21:0xfffffd6e x19:0x00002171  x9=0xfffffd7f
       33965000	      3395	80004204	00372733	slt	x14,x14,x3	 x14:0x000004d9  x3:0x00000000 x14=0x00000000
       33975000	      3396	80004208	008d6cb3	or	x25,x26,x8	 x26:0x00000001  x8:0xfffff971 x25=0xfffff971
       33985000	      3397	8000420c	00900a33	add	x20,x0,x9	  x0:0x00000000  x9:0xfffffd7f x20=0xfffffd7f
       33995000	      3398	80004210	491f8213	addi	x4,x31,1169	 x31:0xfffffecc  x4=0x0000035d
       34005000	      3399	80004214	048f4063	blt	x30,x8,80004254	 x30:0xffffffff  x8:0xfffff971
       34015000	      3400	80004218	40545613	srai	x12,x8,0x5	  x8:0xfffff971 x12=0xffffffcb
       34025000	      3401	8000421c	40838bb3	sub	x23,x7,x8	  x7:0xffffffa4  x8:0xfffff971 x23=0x00000633
       34035000	      3402	80004220	41fed4b3	sra	x9,x29,x31	 x29:0xfffff921 x31:0xfffffecc  x9=0xffffffff
       34045000	      3403	80004224	01c85393	srli	x7,x16,0x1c	 x16:0x8c0ee19c  x7=0x00000008
       34055000	      3404	80004228	c19aea93	ori	x21,x21,-999	 x21:0xfffffd6e x21=0xfffffd7f
       34065000	      3405	8000422c	008a93b3	sll	x7,x21,x8	 x21:0xfffffd7f  x8:0xfffff971  x7=0xfafe0000
       34075000	      3406	80004230	13a24613	xori	x12,x4,314	  x4:0x0000035d x12=0x00000267
       34085000	      3407	80004234	40785393	srai	x7,x16,0x7	 x16:0x8c0ee19c  x7=0xff181dc3
       34095000	      3408	80004238	01a55f13	srli	x30,x10,0x1a	 x10:0x80000000 x30=0x00000020
       34105000	      3409	8000423c	698c3993	sltiu	x19,x24,1688	 x24:0x80009fc4 x19=0x00000000
       34115000	      3410	80004240	c16bdf17	auipc	x30,0xc16bd	 x30=0x416c123c
       34125000	      3411	80004244	e37c3993	sltiu	x19,x24,-457	 x24:0x80009fc4 x19=0x00000001
       34135000	      3412	80004248	2eee3213	sltiu	x4,x28,750	 x28:0xfffffefd  x4=0x00000000
       34145000	      3413	8000424c	00581f13	slli	x30,x16,0x5	 x16:0x8c0ee19c x30=0x81dc3380
       34155000	      3414	80004250	01c0d613	srli	x12,x1,0x1c	  x1:0xffffe489 x12=0x0000000f
       34165000	      3415	80004254	83144293	xori	x5,x8,-1999	  x8:0xfffff971  x5=0x00000140
       34175000	      3416	80004258	50c20b13	addi	x22,x4,1292	  x4:0x00000000 x22=0x0000050c
       34185000	      3417	8000425c	0aa40e93	addi	x29,x8,170	  x8:0xfffff971 x29=0xfffffa1b
       34195000	      3418	80004260	c8e99397	auipc	x7,0xc8e99	  x7=0x48e9d25c
       34205000	      3419	80004264	418bdd93	srai	x27,x23,0x18	 x23:0x00000633 x27=0x00000000
       34215000	      3420	80004268	005acdb3	xor	x27,x21,x5	 x21:0xfffffd7f  x5:0x00000140 x27=0xfffffc3f
       34225000	      3421	8000426c	7664f313	andi	x6,x9,1894	  x9:0xffffffff  x6=0x00000766
       34235000	      3422	80004270	01445c63	bge	x8,x20,80004288	  x8:0xfffff971 x20:0xfffffd7f
       34245000	      3423	80004274	01fbceb3	xor	x29,x23,x31	 x23:0x00000633 x31:0xfffffecc x29=0xfffff8ff
       34255000	      3424	80004278	01671493	slli	x9,x14,0x16	 x14:0x00000000  x9=0x00000000
       34265000	      3425	8000427c	578b6413	ori	x8,x22,1400	 x22:0x0000050c  x8=0x0000057c
       34275000	      3426	80004280	033d6c63	bltu	x26,x19,800042b8	 x26:0x00000001 x19:0x00000001
       34285000	      3427	80004284	c3a86837	lui	x16,0xc3a86	 x16=0xc3a86000
       34295000	      3428	80004288	01b02333	slt	x6,x0,x27	  x0:0x00000000 x27:0xfffffc3f  x6=0x00000000
       34305000	      3429	8000428c	ba0db413	sltiu	x8,x27,-1120	 x27:0xfffffc3f  x8=0x00000000
       34315000	      3430	80004290	fb512213	slti	x4,x2,-75	  x2:0x80008a09  x4=0x00000001
       34325000	      3431	80004294	04850063	beq	x10,x8,800042d4	 x10:0x80000000  x8:0x00000000
       34335000	      3432	80004298	00000013	addi	x0,x0,0	  x0:0x00000000
       34345000	      3433	8000429c	d1c32113	slti	x2,x6,-740	  x6:0x00000000  x2=0x00000000
       34355000	      3434	800042a0	c8768817	auipc	x16,0xc8768	 x16=0x4876c29c
       34365000	      3435	800042a4	000d17b3	sll	x15,x26,x0	 x26:0x00000001  x0:0x00000000 x15=0x00000001
       34375000	      3436	800042a8	40d5d293	srai	x5,x11,0xd	 x11:0x00000040  x5=0x00000000
       34385000	      3437	800042ac	006914b3	sll	x9,x18,x6	 x18:0x80009f74  x6:0x00000000  x9=0x80009f74
       34395000	      3438	800042b0	5ae0f613	andi	x12,x1,1454	  x1:0xffffe489 x12=0x00000488
       34405000	      3439	800042b4	01c17ab3	and	x21,x2,x28	  x2:0x00000000 x28:0xfffffefd x21=0x00000000
       34415000	      3440	800042b8	7d41ce37	lui	x28,0x7d41c	 x28=0x7d41c000
       34425000	      3441	800042bc	0444d663	bge	x9,x4,80004308	  x9:0x80009f74  x4:0x00000001
       34435000	      3442	800042c0	019e0a33	add	x20,x28,x25	 x28:0x7d41c000 x25:0xfffff971 x20=0x7d41b971
       34445000	      3443	800042c4	409f5813	srai	x16,x30,0x9	 x30:0x81dc3380 x16=0xffc0ee19
       34455000	      3444	800042c8	0034d4b3	srl	x9,x9,x3	  x9:0x80009f74  x3:0x00000000  x9=0x80009f74
       34465000	      3445	800042cc	01e340b3	xor	x1,x6,x30	  x6:0x00000000 x30:0x81dc3380  x1=0x81dc3380
       34475000	      3446	800042d0	4002d7b3	sra	x15,x5,x0	  x5:0x00000000  x0:0x00000000 x15=0x00000000
       34485000	      3447	800042d4	00000013	addi	x0,x0,0	  x0:0x00000000
       34495000	      3448	800042d8	03f95663	bge	x18,x31,80004304	 x18:0x80009f74 x31:0xfffffecc
       34505000	      3449	800042dc	412f5633	sra	x12,x30,x18	 x30:0x81dc3380 x18:0x80009f74 x12=0xfffff81d
       34515000	      3450	800042e0	0006d0b3	srl	x1,x13,x0	 x13:0xc5ffcc89  x0:0x00000000  x1=0xc5ffcc89
       34525000	      3451	800042e4	c689be93	sltiu	x29,x19,-920	 x19:0x00000001 x29=0x00000001
       34535000	      3452	800042e8	00c67863	bgeu	x12,x12,800042f8	 x12:0xfffff81d x12:0xfffff81d
       34545000	      3453	00000000	00000013	addi	x0,x0,0	  x0:0x00000000
       34555000	      3454	800042f4	00000013	addi	x0,x0,0	  x0:0x00000000
       34565000	      3455	800042f8	4a05fd93	andi	x27,x11,1184	 x11:0x00000040 x27=0x00000000
       34575000	      3456	800042fc	0136b3b3	sltu	x7,x13,x19	 x13:0xc5ffcc89 x19:0x00000001  x7=0x00000000
       34585000	      3457	80004300	01783bb3	sltu	x23,x16,x23	 x16:0xffc0ee19 x23:0x00000633 x23=0x00000000
       34595000	      3458	80004304	b3513613	sltiu	x12,x2,-1227	  x2:0x00000000 x12=0x00000001
       34605000	      3459	80004308	01c783b3	add	x7,x15,x28	 x15:0x00000000 x28:0x7d41c000  x7=0x7d41c000
       34615000	      3460	8000430c	64a1f493	andi	x9,x3,1610	  x3:0x00000000  x9=0x00000000
       34625000	      3461	80004310	7ede8313	addi	x6,x29,2029	 x29:0x00000001  x6=0x000007ee
       34635000	      3462	80004314	013638b3	sltu	x17,x12,x19	 x12:0x00000001 x19:0x00000001 x17=0x00000000
       34645000	      3463	80004318	01b3c233	xor	x4,x7,x27	  x7:0x7d41c000 x27:0x00000000  x4=0x7d41c000
       34655000	      3464	8000431c	003a5293	srli	x5,x20,0x3	 x20:0x7d41b971  x5=0x0fa8372e
       34665000	      3465	80004320	403d5a93	srai	x21,x26,0x3	 x26:0x00000001 x21=0x00000000
       34675000	      3466	80004324	006ba1b3	slt	x3,x23,x6	 x23:0x00000000  x6:0x000007ee  x3=0x00000001
       34685000	      3467	80004328	018e2833	slt	x16,x28,x24	 x28:0x7d41c000 x24:0x80009fc4 x16=0x00000000
       34695000	      3468	8000432c	097b7993	andi	x19,x22,151	 x22:0x0000050c x19=0x00000004
       34705000	      3469	80004330	38ea3893	sltiu	x17,x20,910	 x20:0x7d41b971 x17=0x00000000
       34715000	      3470	80004334	011ed3b3	srl	x7,x29,x17	 x29:0x00000001 x17:0x00000000  x7=0x00000001
       34725000	      3471	80004338	92e0e993	ori	x19,x1,-1746	  x1:0xc5ffcc89 x19=0xfffffdaf
       34735000	      3472	8000433c	460fc437	lui	x8,0x460fc	  x8=0x460fc000
       34745000	      3473	80004340	2cc17d13	andi	x26,x2,716	  x2:0x00000000 x26=0x00000000
       34755000	      3474	80004344	0105cbb3	xor	x23,x11,x16	 x11:0x00000040 x16:0x00000000 x23=0x00000040
       34765000	      3475	80004348	00000013	addi	x0,x0,0	  x0:0x00000000
       34775000	      3476	8000434c	03be9063	bne	x29,x27,8000436c	 x29:0x00000001 x27:0x00000000
       34785000	      3477	00000000	00000013	addi	x0,x0,0	  x0:0x00000000
       34795000	      3478	80004368	00000013	addi	x0,x0,0	  x0:0x00000000
       34805000	      3479	8000436c	001e6e63	bltu	x28,x1,80004388	 x28:0x7d41c000  x1:0xc5ffcc89
       34815000	      3480	00000000	00000013	addi	x0,x0,0	  x0:0x00000000
       34825000	      3481	80004384	00000013	addi	x0,x0,0	  x0:0x00000000
       34835000	      3482	80004388	4108d893	srai	x17,x17,0x10	 x17:0x00000000 x17=0x00000000
       34845000	      3483	8000438c	0184ff33	and	x30,x9,x24	  x9:0x00000000 x24:0x80009fc4 x30=0x00000000
       34855000	      3484	80004390	b9c1a693	slti	x13,x3,-1124	  x3:0x00000001 x13=0x00000000
       34865000	      3485	80004394	01001293	slli	x5,x0,0x10	  x0:0x00000000  x5=0x00000000
       34875000	      3486	80004398	5819f193	andi	x3,x19,1409	 x19:0xfffffdaf  x3=0x00000581
       34885000	      3487	8000439c	00edccb3	xor	x25,x27,x14	 x27:0x00000000 x14:0x00000000 x25=0x00000000
       34895000	      3488	800043a0	00902333	slt	x6,x0,x9	  x0:0x00000000  x9:0x00000000  x6=0x00000000
       34905000	      3489	800043a4	003c8333	add	x6,x25,x3	 x25:0x00000000  x3:0x00000581  x6=0x00000581
       34915000	      3490	800043a8	e936f037	lui	x0,0xe936f	
       34925000	      3491	800043ac	0bf8f793	andi	x15,x17,191	 x17:0x00000000 x15=0x00000000
       34935000	      3492	800043b0	00e466b3	or	x13,x8,x14	  x8:0x460fc000 x14:0x00000000 x13=0x460fc000
       34945000	      3493	800043b4	3f802413	slti	x8,x0,1016	  x0:0x00000000  x8=0x00000001
       34955000	      3494	800043b8	01f24a33	xor	x20,x4,x31	  x4:0x7d41c000 x31:0xfffffecc x20=0x82be3ecc
       34965000	      3495	800043bc	00457cb3	and	x25,x10,x4	 x10:0x80000000  x4:0x7d41c000 x25=0x00000000
       34975000	      3496	800043c0	21bb0337	lui	x6,0x21bb0	  x6=0x21bb0000
       34985000	      3497	800043c4	059f1463	bne	x30,x25,8000440c	 x30:0x00000000 x25:0x00000000
       34995000	      3498	800043c8	25862d13	slti	x26,x12,600	 x12:0x00000001 x26=0x00000001
       35005000	      3499	800043cc	01b98e63	beq	x19,x27,800043e8	 x19:0xfffffdaf x27:0x00000000
       35015000	      3500	800043d0	4144d833	sra	x16,x9,x20	  x9:0x00000000 x20:0x82be3ecc x16=0x00000000
       35025000	      3501	800043d4	01a8a1b3	slt	x3,x17,x26	 x17:0x00000000 x26:0x00000001  x3=0x00000001
       35035000	      3502	800043d8	008bc863	blt	x23,x8,800043e8	 x23:0x00000040  x8:0x00000001
       35045000	      3503	800043dc	00d92433	slt	x8,x18,x13	 x18:0x80009f74 x13:0x460fc000  x8=0x00000001
       35055000	      3504	800043e0	000a5263	bge	x20,x0,800043e4	 x20:0x82be3ecc  x0:0x00000000
       35065000	      3505	800043e4	017628b3	slt	x17,x12,x23	 x12:0x00000001 x23:0x00000040 x17=0x00000001
       35075000	      3506	800043e8	01949793	slli	x15,x9,0x19	  x9:0x00000000 x15=0x00000000
       35085000	      3507	800043ec	007d4a63	blt	x26,x7,80004400	 x26:0x00000001  x7:0x00000001
       35095000	      3508	800043f0	00439e13	slli	x28,x7,0x4	  x7:0x00000001 x28=0x00000010
       35105000	      3509	800043f4	00f28233	add	x4,x5,x15	  x5:0x00000000 x15:0x00000000  x4=0x00000000
       35115000	      3510	800043f8	2e4e6593	ori	x11,x28,740	 x28:0x00000010 x11=0x000002f4
       35125000	      3511	800043fc	01146bb3	or	x23,x8,x17	  x8:0x00000001 x17:0x00000001 x23=0x00000001
       35135000	      3512	80004400	00000013	addi	x0,x0,0	  x0:0x00000000
       35145000	      3513	80004404	8a150a93	addi	x21,x10,-1887	 x10:0x80000000 x21=0x7ffff8a1
       35155000	      3514	80004408	0001e133	or	x2,x3,x0	  x3:0x00000001  x0:0x00000000  x2=0x00000001
       35165000	      3515	8000440c	0178c4b3	xor	x9,x17,x23	 x17:0x00000001 x23:0x00000001  x9=0x00000000
       35175000	      3516	80004410	00ac9833	sll	x16,x25,x10	 x25:0x00000000 x10:0x80000000 x16=0x00000000
       35185000	      3517	80004414	9459b837	lui	x16,0x9459b	 x16=0x9459b000
       35195000	      3518	80004418	024c0063	beq	x24,x4,80004438	 x24:0x80009fc4  x4:0x00000000
       35205000	      3519	8000441c	002c97b3	sll	x15,x25,x2	 x25:0x00000000  x2:0x00000001 x15=0x00000000
       35215000	      3520	80004420	409a55b3	sra	x11,x20,x9	 x20:0x82be3ecc  x9:0x00000000 x11=0x82be3ecc
       35225000	      3521	80004424	8482c593	xori	x11,x5,-1976	  x5:0x00000000 x11=0xfffff848
       35235000	      3522	80004428	00099133	sll	x2,x19,x0	 x19:0xfffffdaf  x0:0x00000000  x2=0xfffffdaf
       35245000	      3523	8000442c	01d6d733	srl	x14,x13,x29	 x13:0x460fc000 x29:0x00000001 x14=0x2307e000
       35255000	      3524	80004430	00000013	addi	x0,x0,0	  x0:0x00000000
       35265000	      3525	80004434	01f770b3	and	x1,x14,x31	 x14:0x2307e000 x31:0xfffffecc  x1=0x2307e000
       35275000	      3526	80004438	053e5463	bge	x28,x19,80004480	 x28:0x00000010 x19:0xfffffdaf
       35285000	      3527	00000000	00000013	addi	x0,x0,0	  x0:0x00000000
       35295000	      3528	8000447c	00000013	addi	x0,x0,0	  x0:0x00000000
       35305000	      3529	80004480	012efa33	and	x20,x29,x18	 x29:0x00000001 x18:0x80009f74 x20=0x00000000
       35315000	      3530	80004484	41c1d593	srai	x11,x3,0x1c	  x3:0x00000001 x11=0x00000000
       35325000	      3531	80004488	05f46463	bltu	x8,x31,800044d0	  x8:0x00000001 x31:0xfffffecc
       35335000	      3532	00000000	00000013	addi	x0,x0,0	  x0:0x00000000
       35345000	      3533	800044cc	00000013	addi	x0,x0,0	  x0:0x00000000
       35355000	      3534	800044d0	015107b3	add	x15,x2,x21	  x2:0xfffffdaf x21:0x7ffff8a1 x15=0x7ffff650
       35365000	      3535	800044d4	322ef713	andi	x14,x29,802	 x29:0x00000001 x14=0x00000000
       35375000	      3536	800044d8	00897c63	bgeu	x18,x8,800044f0	 x18:0x80009f74  x8:0x00000001
       35385000	      3537	00000000	00000013	addi	x0,x0,0	  x0:0x00000000
       35395000	      3538	800044ec	00000013	addi	x0,x0,0	  x0:0x00000000
       35405000	      3539	800044f0	003f4fb3	xor	x31,x30,x3	 x30:0x00000000  x3:0x00000001 x31=0x00000001
       35415000	      3540	800044f4	00000013	addi	x0,x0,0	  x0:0x00000000
       35425000	      3541	800044f8	0088adb3	slt	x27,x17,x8	 x17:0x00000001  x8:0x00000001 x27=0x00000000
       35435000	      3542	800044fc	012926b3	slt	x13,x18,x18	 x18:0x80009f74 x18:0x80009f74 x13=0x00000000
       35445000	      3543	80004500	c4e07693	andi	x13,x0,-946	  x0:0x00000000 x13=0x00000000
       35455000	      3544	80004504	1633b413	sltiu	x8,x7,355	  x7:0x00000001  x8=0x00000001
       35465000	      3545	80004508	10dec263	blt	x29,x13,8000460c	 x29:0x00000001 x13:0x00000000
       35475000	      3546	8000450c	0186b2b3	sltu	x5,x13,x24	 x13:0x00000000 x24:0x80009fc4  x5=0x00000001
       35485000	      3547	80004510	4179d733	sra	x14,x19,x23	 x19:0xfffffdaf x23:0x00000001 x14=0xfffffed7
       35495000	      3548	80004514	00551e33	sll	x28,x10,x5	 x10:0x80000000  x5:0x00000001 x28=0x00000000
       35505000	      3549	80004518	00574d33	xor	x26,x14,x5	 x14:0xfffffed7  x5:0x00000001 x26=0xfffffed6
       35515000	      3550	8000451c	00004c97	auipc	x25,0x4	 x25=0x80008518
       35525000	      3551	80004520	5e0c8c93	addi	x25,x25,1504	 x25:0x80008518 x25=0x80008af8
       35535000	      3552	80004524	40afd693	srai	x13,x31,0xa	 x31:0x00000001 x13=0x00000000
       35545000	      3553	80004528	8818bd13	sltiu	x26,x17,-1919	 x17:0x00000001 x26=0x00000001
       35555000	      3554	8000452c	002c8483	lb	x9,2(x25)	 x25:0x80008af8  x9=0x0000001d PA:0x80008afa
       35565000	      3555	80004530	406e5233	sra	x4,x28,x6	 x28:0x00000000  x6:0x21bb0000  x4=0x00000000
       35575000	      3556	80004534	013e3f33	sltu	x30,x28,x19	 x28:0x00000000 x19:0xfffffdaf x30=0x00000001
       35585000	      3557	80004538	40aa5033	sra	x0,x20,x10	 x20:0x00000000 x10:0x80000000
       35595000	      3558	8000453c	008c8983	lb	x19,8(x25)	 x25:0x80008af8 x19=0x00000041 PA:0x80008b00
       35605000	      3559	80004540	009cc103	lbu	x2,9(x25)	 x25:0x80008af8  x2=0x0000001f PA:0x80008b01
       35615000	      3560	00000000	00000013	addi	x0,x0,0	  x0:0x00000000
       35625000	      3561	80004544	002c9603	lh	x12,2(x25)	 x25:0x80008af8 x12=0xffffc61d PA:0x80008afa
       35635000	      3562	80004548	002c8383	lb	x7,2(x25)	 x25:0x80008af8  x7=0x0000001d PA:0x80008afa
       35645000	      3563	8000454c	00cc9823	sh	x12,16(x25)	 x25:0x80008af8 x12:0xffffc61d PA:0x80008b08
       35655000	      3564	80004550	0052e833	or	x16,x5,x5	  x5:0x00000001  x5:0x00000001 x16=0x00000001
       35665000	      3565	80004554	000c9103	lh	x2,0(x25)	 x25:0x80008af8  x2=0x00006922 PA:0x80008af8
       35675000	      3566	80004558	feac8f23	sb	x10,-2(x25)	 x25:0x80008af8 x10:0x80000000 PA:0x80008af6
       35685000	      3567	8000455c	008d4d33	xor	x26,x26,x8	 x26:0x00000001  x8:0x00000001 x26=0x00000000
       35695000	      3568	80004560	fe7c8aa3	sb	x7,-11(x25)	 x25:0x80008af8  x7:0x0000001d PA:0x80008aed
       35705000	      3569	80004564	ffbccf83	lbu	x31,-5(x25)	 x25:0x80008af8 x31=0x00000020 PA:0x80008af3
       35715000	      3570	80004568	410f5b33	sra	x22,x30,x16	 x30:0x00000001 x16:0x00000001 x22=0x00000000
       35725000	      3571	8000456c	01e601b3	add	x3,x12,x30	 x12:0xffffc61d x30:0x00000001  x3=0xffffc61e
       35735000	      3572	80004570	011ef3b3	and	x7,x29,x17	 x29:0x00000001 x17:0x00000001  x7=0x00000001
       35745000	      3573	80004574	40c5d993	srai	x19,x11,0xc	 x11:0x00000000 x19=0x00000000
       35755000	      3574	80004578	01bab7b3	sltu	x15,x21,x27	 x21:0x7ffff8a1 x27:0x00000000 x15=0x00000000
       35765000	      3575	8000457c	fe3c8a23	sb	x3,-12(x25)	 x25:0x80008af8  x3:0xffffc61e PA:0x80008aec
       35775000	      3576	80004580	01a3f7b3	and	x15,x7,x26	  x7:0x00000001 x26:0x00000000 x15=0x00000000
       35785000	      3577	80004584	40648bb3	sub	x23,x9,x6	  x9:0x0000001d  x6:0x21bb0000 x23=0xde45001d
       35795000	      3578	80004588	43755497	auipc	x9,0x43755	  x9=0xc3759584
       35805000	      3579	8000458c	ffdc8aa3	sb	x29,-11(x25)	 x25:0x80008af8 x29:0x00000001 PA:0x80008aed
       35815000	      3580	80004590	40a15333	sra	x6,x2,x10	  x2:0x00006922 x10:0x80000000  x6=0x00006922
       35825000	      3581	80004594	ffac8e03	lb	x28,-6(x25)	 x25:0x80008af8 x28=0x0000004f PA:0x80008af2
       35835000	      3582	80004598	00971d93	slli	x27,x14,0x9	 x14:0xfffffed7 x27=0xfffdae00
       35845000	      3583	8000459c	ff7c8403	lb	x8,-9(x25)	 x25:0x80008af8  x8=0xffffffee PA:0x80008aef
       35855000	      3584	800045a0	00fcc803	lbu	x16,15(x25)	 x25:0x80008af8 x16=0x000000a9 PA:0x80008b07
       35865000	      3585	800045a4	002c9703	lh	x14,2(x25)	 x25:0x80008af8 x14=0xffffc61d PA:0x80008afa
       35875000	      3586	800045a8	01dfa9b3	slt	x19,x31,x29	 x31:0x00000020 x29:0x00000001 x19=0x00000000
       35885000	      3587	800045ac	ff5c8403	lb	x8,-11(x25)	 x25:0x80008af8  x8=0x00000001 PA:0x80008aed
       35895000	      3588	800045b0	ff6c8583	lb	x11,-10(x25)	 x25:0x80008af8 x11=0x0000005c PA:0x80008aee
       35905000	      3589	800045b4	01b13ab3	sltu	x21,x2,x27	  x2:0x00006922 x27:0xfffdae00 x21=0x00000001
       35915000	      3590	800045b8	ff3ccd83	lbu	x27,-13(x25)	 x25:0x80008af8 x27=0x0000002e PA:0x80008aeb
       35925000	      3591	800045bc	002c8483	lb	x9,2(x25)	 x25:0x80008af8  x9=0x0000001d PA:0x80008afa
       35935000	      3592	800045c0	ffbcc283	lbu	x5,-5(x25)	 x25:0x80008af8  x5=0x00000020 PA:0x80008af3
       35945000	      3593	800045c4	ffecc083	lbu	x1,-2(x25)	 x25:0x80008af8  x1=0x00000000 PA:0x80008af6
       35955000	      3594	800045c8	ff6c8303	lb	x6,-10(x25)	 x25:0x80008af8  x6=0x0000005c PA:0x80008aee
       35965000	      3595	800045cc	ff0ccb03	lbu	x22,-16(x25)	 x25:0x80008af8 x22=0x0000007b PA:0x80008ae8
       35975000	      3596	800045d0	003c5fb3	srl	x31,x24,x3	 x24:0x80009fc4  x3:0xffffc61e x31=0x00000002
       35985000	      3597	800045d4	011c3bb3	sltu	x23,x24,x17	 x24:0x80009fc4 x17:0x00000001 x23=0x00000000
       35995000	      3598	800045d8	ffac8a03	lb	x20,-6(x25)	 x25:0x80008af8 x20=0x0000004f PA:0x80008af2
       36005000	      3599	800045dc	003c82a3	sb	x3,5(x25)	 x25:0x80008af8  x3:0xffffc61e PA:0x80008afd
       36015000	      3600	800045e0	003265b3	or	x11,x4,x3	  x4:0x00000000  x3:0xffffc61e x11=0xffffc61e
       36025000	      3601	800045e4	008c8783	lb	x15,8(x25)	 x25:0x80008af8 x15=0x00000041 PA:0x80008b00
       36035000	      3602	800045e8	00000013	addi	x0,x0,0	  x0:0x00000000
       36045000	      3603	800045ec	903b1e17	auipc	x28,0x903b1	 x28=0x103b55e8
       36055000	      3604	800045f0	c8764737	lui	x14,0xc8764	 x14=0xc8764000
       36065000	      3605	800045f4	860f2593	slti	x11,x30,-1952	 x30:0x00000001 x11=0x00000000
       36075000	      3606	800045f8	38e22b13	slti	x22,x4,910	  x4:0x00000000 x22=0x00000001
       36085000	      3607	800045fc	00155db3	srl	x27,x10,x1	 x10:0x80000000  x1:0x00000000 x27=0x80000000
       36095000	      3608	80004600	04a74663	blt	x14,x10,8000464c	 x14:0xc8764000 x10:0x80000000
       36105000	      3609	80004604	00000013	addi	x0,x0,0	  x0:0x00000000
       36115000	      3610	80004608	007f69b3	or	x19,x30,x7	 x30:0x00000001  x7:0x00000001 x19=0x00000001
       36125000	      3611	8000460c	00b468b3	or	x17,x8,x11	  x8:0x00000001 x11:0x00000000 x17=0x00000001
       36135000	      3612	80004610	00121393	slli	x7,x4,0x1	  x4:0x00000000  x7=0x00000000
       36145000	      3613	80004614	405801b3	sub	x3,x16,x5	 x16:0x000000a9  x5:0x00000020  x3=0x00000089
       36155000	      3614	80004618	0060f263	bgeu	x1,x6,8000461c	  x1:0x00000000  x6:0x0000005c
       36165000	      3615	8000461c	01546433	or	x8,x8,x21	  x8:0x00000001 x21:0x00000001  x8=0x00000001
       36175000	      3616	80004620	03b3c863	blt	x7,x27,80004650	  x7:0x00000000 x27:0x80000000
       36185000	      3617	80004624	bed9ff13	andi	x30,x19,-1043	 x19:0x00000001 x30=0x00000001
       36195000	      3618	80004628	017d1863	bne	x26,x23,80004638	 x26:0x00000000 x23:0x00000000
       36205000	      3619	8000462c	016bfd33	and	x26,x23,x22	 x23:0x00000000 x22:0x00000001 x26=0x00000000
       36215000	      3620	80004630	e173b817	auipc	x16,0xe173b	 x16=0x6173f62c
       36225000	      3621	80004634	04a98463	beq	x19,x10,8000467c	 x19:0x00000001 x10:0x80000000
       36235000	      3622	80004638	058c4263	blt	x24,x24,8000467c	 x24:0x80009fc4 x24:0x80009fc4
       36245000	      3623	8000463c	003a8663	beq	x21,x3,80004648	 x21:0x00000001  x3:0x00000089
       36255000	      3624	80004640	00dd09b3	add	x19,x26,x13	 x26:0x00000000 x13:0x00000000 x19=0x00000000
       36265000	      3625	80004644	05eac463	blt	x21,x30,8000468c	 x21:0x00000001 x30:0x00000001
       36275000	      3626	80004648	01fe0233	add	x4,x28,x31	 x28:0x103b55e8 x31:0x00000002  x4=0x103b55ea
       36285000	      3627	8000464c	00000013	addi	x0,x0,0	  x0:0x00000000
       36295000	      3628	80004650	40b65db3	sra	x27,x12,x11	 x12:0xffffc61d x11:0x00000000 x27=0xffffc61d
       36305000	      3629	80004654	00000013	addi	x0,x0,0	  x0:0x00000000
       36315000	      3630	80004658	bf98ca93	xori	x21,x17,-1031	 x17:0x00000001 x21=0xfffffbf8
       36325000	      3631	8000465c	00e45cb3	srl	x25,x8,x14	  x8:0x00000001 x14:0xc8764000 x25=0x00000001
       36335000	      3632	80004660	01ca3bb3	sltu	x23,x20,x28	 x20:0x0000004f x28:0x103b55e8 x23=0x00000001
       36345000	      3633	80004664	04c7e863	bltu	x15,x12,800046b4	 x15:0x00000041 x12:0xffffc61d
       36355000	      3634	00000000	00000013	addi	x0,x0,0	  x0:0x00000000
       36365000	      3635	800046b0	00000013	addi	x0,x0,0	  x0:0x00000000
       36375000	      3636	800046b4	0035ce33	xor	x28,x11,x3	 x11:0x00000000  x3:0x00000089 x28=0x00000089
       36385000	      3637	800046b8	01dfc9b3	xor	x19,x31,x29	 x31:0x00000002 x29:0x00000001 x19=0x00000003
       36395000	      3638	800046bc	c40c6393	ori	x7,x24,-960	 x24:0x80009fc4  x7=0xffffffc4
       36405000	      3639	800046c0	00761b93	slli	x23,x12,0x7	 x12:0xffffc61d x23=0xffe30e80
       36415000	      3640	800046c4	00091eb3	sll	x29,x18,x0	 x18:0x80009f74  x0:0x00000000 x29=0x80009f74
       36425000	      3641	800046c8	cd2d3713	sltiu	x14,x26,-814	 x26:0x00000000 x14=0x00000001
       36435000	      3642	800046cc	006f6db3	or	x27,x30,x6	 x30:0x00000001  x6:0x0000005c x27=0x0000005d
       36445000	      3643	800046d0	019b9413	slli	x8,x23,0x19	 x23:0xffe30e80  x8=0x00000000
       36455000	      3644	800046d4	03507063	bgeu	x0,x21,800046f4	  x0:0x00000000 x21:0xfffffbf8
       36465000	      3645	800046d8	01031693	slli	x13,x6,0x10	  x6:0x0000005c x13=0x005c0000
       36475000	      3646	800046dc	012d41b3	xor	x3,x26,x18	 x26:0x00000000 x18:0x80009f74  x3=0x80009f74
       36485000	      3647	800046e0	fd0f6b13	ori	x22,x30,-48	 x30:0x00000001 x22=0xffffffd1
       36495000	      3648	800046e4	54bcf693	andi	x13,x25,1355	 x25:0x00000001 x13=0x00000001
       36505000	      3649	800046e8	00ba5e63	bge	x20,x11,80004704	 x20:0x0000004f x11:0x00000000
       36515000	      3650	00000000	00000013	addi	x0,x0,0	  x0:0x00000000
       36525000	      3651	80004700	00000013	addi	x0,x0,0	  x0:0x00000000
       36535000	      3652	80004704	d3bcad93	slti	x27,x25,-709	 x25:0x00000001 x27=0x00000000
       36545000	      3653	80004708	013f8db3	add	x27,x31,x19	 x31:0x00000002 x19:0x00000003 x27=0x00000005
       36555000	      3654	8000470c	016380b3	add	x1,x7,x22	  x7:0xffffffc4 x22:0xffffffd1  x1=0xffffff95
       36565000	      3655	80004710	dae22693	slti	x13,x4,-594	  x4:0x103b55ea x13=0x00000000
       36575000	      3656	80004714	f8ee4613	xori	x12,x28,-114	 x28:0x00000089 x12=0xffffff07
       36585000	      3657	80004718	0169d263	bge	x19,x22,8000471c	 x19:0x00000003 x22:0xffffffd1
       36595000	      3658	00000000	00000013	addi	x0,x0,0	  x0:0x00000000
       36605000	      3659	80004718	00000013	addi	x0,x0,0	  x0:0x00000000
       36615000	      3660	8000471c	01e55cb3	srl	x25,x10,x30	 x10:0x80000000 x30:0x00000001 x25=0x40000000
       36625000	      3661	80004720	5d9af0b7	lui	x1,0x5d9af	  x1=0x5d9af000
       36635000	      3662	80004724	00ea55b3	srl	x11,x20,x14	 x20:0x0000004f x14:0x00000001 x11=0x00000027
       36645000	      3663	80004728	00005117	auipc	x2,0x5	  x2=0x80009724
       36655000	      3664	8000472c	86510113	addi	x2,x2,-1947	  x2:0x80009724  x2=0x80008f89
       36665000	      3665	80004730	00c463b3	or	x7,x8,x12	  x8:0x00000000 x12:0xffffff07  x7=0xffffff07
       36675000	      3666	80004734	fd210823	sb	x18,-48(x2)	  x2:0x80008f89 x18:0x80009f74 PA:0x80008f59
       36685000	      3667	80004738	00623433	sltu	x8,x4,x6	  x4:0x103b55ea  x6:0x0000005c  x8=0x00000000
       36695000	      3668	8000473c	00d38cb3	add	x25,x7,x13	  x7:0xffffff07 x13:0x00000000 x25=0xffffff07
       36705000	      3669	80004740	00000013	addi	x0,x0,0	  x0:0x00000000
       36715000	      3670	80004744	8c423f93	sltiu	x31,x4,-1852	  x4:0x103b55ea x31=0x00000001
       36725000	      3671	80004748	fde10003	lb	x0,-34(x2)	  x2:0x80008f89 PA:0x80008f67
       36735000	      3672	8000474c	01e56333	or	x6,x10,x30	 x10:0x80000000 x30:0x00000001  x6=0x80000001
       36745000	      3673	80004750	ffa10803	lb	x16,-6(x2)	  x2:0x80008f89 x16=0x00000060 PA:0x80008f83
       36755000	      3674	80004754	0119a333	slt	x6,x19,x17	 x19:0x00000003 x17:0x00000001  x6=0x00000000
       36765000	      3675	80004758	00312a03	lw	x20,3(x2)	  x2:0x80008f89 x20=0x095b81a2 PA:0x80008f8c
       36775000	      3676	8000475c	8604dc97	auipc	x25,0x8604d	 x25=0x06051758
       36785000	      3677	80004760	fcd15f83	lhu	x31,-51(x2)	  x2:0x80008f89 x31=0x0000f949 PA:0x80008f56
       36795000	      3678	80004764	cea16d93	ori	x27,x2,-790	  x2:0x80008f89 x27=0xffffffeb
       36805000	      3679	80004768	01136433	or	x8,x6,x17	  x6:0x00000000 x17:0x00000001  x8=0x00000001
       36815000	      3680	8000476c	fd315603	lhu	x12,-45(x2)	  x2:0x80008f89 x12=0x0000d413 PA:0x80008f5c
       36825000	      3681	80004770	599b7893	andi	x17,x22,1433	 x22:0xffffffd1 x17=0x00000591
       36835000	      3682	80004774	000e9e13	slli	x28,x29,0x0	 x29:0x80009f74 x28=0x80009f74
       36845000	      3683	80004778	d7574613	xori	x12,x14,-651	 x14:0x00000001 x12=0xfffffd74
       36855000	      3684	8000477c	0053d8b3	srl	x17,x7,x5	  x7:0xffffff07  x5:0x00000020 x17=0xffffff07
       36865000	      3685	80004780	001e83b3	add	x7,x29,x1	 x29:0x80009f74  x1:0x5d9af000  x7=0xdd9b8f74
       36875000	      3686	80004784	fcc10f23	sb	x12,-34(x2)	  x2:0x80008f89 x12:0xfffffd74 PA:0x80008f67
       36885000	      3687	80004788	00e9e8b3	or	x17,x19,x14	 x19:0x00000003 x14:0x00000001 x17=0x00000003
       36895000	      3688	8000478c	01ab2b33	slt	x22,x22,x26	 x22:0xffffffd1 x26:0x00000000 x22=0x00000001
       36905000	      3689	80004790	01510083	lb	x1,21(x2)	  x2:0x80008f89  x1=0x0000007c PA:0x80008f9e
       36915000	      3690	80004794	01d12fa3	sw	x29,31(x2)	  x2:0x80008f89 x29:0x80009f74 PA:0x80008fa8
       36925000	      3691	80004798	fd1100a3	sb	x17,-63(x2)	  x2:0x80008f89 x17:0x00000003 PA:0x80008f4a
       36935000	      3692	8000479c	02b129a3	sw	x11,51(x2)	  x2:0x80008f89 x11:0x00000027 PA:0x80008fbc
       36945000	      3693	800047a0	031c1863	bne	x24,x17,800047d0	 x24:0x80009fc4 x17:0x00000003
       36955000	      3694	00000000	00000013	addi	x0,x0,0	  x0:0x00000000
       36965000	      3695	800047cc	00000013	addi	x0,x0,0	  x0:0x00000000
       36975000	      3696	800047d0	013ede63	bge	x29,x19,800047ec	 x29:0x80009f74 x19:0x00000003
       36985000	      3697	800047d4	01d49f13	slli	x30,x9,0x1d	  x9:0x0000001d x30=0xa0000000
       36995000	      3698	800047d8	00000013	addi	x0,x0,0	  x0:0x00000000
       37005000	      3699	800047dc	01e0ea33	or	x20,x1,x30	  x1:0x0000007c x30:0xa0000000 x20=0xa000007c
       37015000	      3700	800047e0	011e4db3	xor	x27,x28,x17	 x28:0x80009f74 x17:0x00000003 x27=0x80009f77
       37025000	      3701	800047e4	414b87b3	sub	x15,x23,x20	 x23:0xffe30e80 x20:0xa000007c x15=0x5fe30e04
       37035000	      3702	800047e8	02ff6663	bltu	x30,x15,80004814	 x30:0xa0000000 x15:0x5fe30e04
       37045000	      3703	800047ec	00000013	addi	x0,x0,0	  x0:0x00000000
       37055000	      3704	800047f0	01265213	srli	x4,x12,0x12	 x12:0xfffffd74  x4=0x00003fff
       37065000	      3705	800047f4	019a1033	sll	x0,x20,x25	 x20:0xa000007c x25:0x06051758
       37075000	      3706	800047f8	24cab493	sltiu	x9,x21,588	 x21:0xfffffbf8  x9=0x00000000
       37085000	      3707	800047fc	00084e63	blt	x16,x0,80004818	 x16:0x00000060  x0:0x00000000
       37095000	      3708	80004800	001a9ab3	sll	x21,x21,x1	 x21:0xfffffbf8  x1:0x0000007c x21=0x80000000
       37105000	      3709	80004804	01eb43b3	xor	x7,x22,x30	 x22:0x00000001 x30:0xa0000000  x7=0xa0000001
       37115000	      3710	80004808	0531c063	blt	x3,x19,80004848	  x3:0x80009f74 x19:0x00000003
       37125000	      3711	00000000	00000013	addi	x0,x0,0	  x0:0x00000000
       37135000	      3712	80004844	00000013	addi	x0,x0,0	  x0:0x00000000
       37145000	      3713	80004848	001afe63	bgeu	x21,x1,80004864	 x21:0x80000000  x1:0x0000007c
       37155000	      3714	00000000	00000013	addi	x0,x0,0	  x0:0x00000000
       37165000	      3715	80004860	00000013	addi	x0,x0,0	  x0:0x00000000
       37175000	      3716	80004864	fab32693	slti	x13,x6,-85	  x6:0x00000000 x13=0x00000000
       37185000	      3717	80004868	89364417	auipc	x8,0x89364	  x8=0x09368864
       37195000	      3718	8000486c	02868393	addi	x7,x13,40	 x13:0x00000000  x7=0x00000028
       37205000	      3719	80004870	412ed1b3	sra	x3,x29,x18	 x29:0x80009f74 x18:0x80009f74  x3=0xfffff800
       37215000	      3720	80004874	4b6bca13	xori	x20,x23,1206	 x23:0xffe30e80 x20=0xffe30a36
       37225000	      3721	80004878	41618d33	sub	x26,x3,x22	  x3:0xfffff800 x22:0x00000001 x26=0xfffff7ff
       37235000	      3722	8000487c	01a002b3	add	x5,x0,x26	  x0:0x00000000 x26:0xfffff7ff  x5=0xfffff7ff
       37245000	      3723	80004880	0095e633	or	x12,x11,x9	 x11:0x00000027  x9:0x00000000 x12=0x00000027
       37255000	      3724	80004884	00000013	addi	x0,x0,0	  x0:0x00000000
       37265000	      3725	80004888	004b59b3	srl	x19,x22,x4	 x22:0x00000001  x4:0x00003fff x19=0x00000000
       37275000	      3726	8000488c	40025f93	srai	x31,x4,0x0	  x4:0x00003fff x31=0x00003fff
       37285000	      3727	80004890	04321463	bne	x4,x3,800048d8	  x4:0x00003fff  x3:0xfffff800
       37295000	      3728	00000000	00000013	addi	x0,x0,0	  x0:0x00000000
       37305000	      3729	800048d4	00000013	addi	x0,x0,0	  x0:0x00000000
       37315000	      3730	800048d8	49458093	addi	x1,x11,1172	 x11:0x00000027  x1=0x000004bb
       37325000	      3731	800048dc	04e56063	bltu	x10,x14,8000491c	 x10:0x80000000 x14:0x00000001
       37335000	      3732	800048e0	004871b3	and	x3,x16,x4	 x16:0x00000060  x4:0x00003fff  x3=0x00000060
       37345000	      3733	800048e4	007eed33	or	x26,x29,x7	 x29:0x80009f74  x7:0x00000028 x26=0x80009f7c
       37355000	      3734	800048e8	02b2ce63	blt	x5,x11,80004924	  x5:0xfffff7ff x11:0x00000027
       37365000	      3735	00000000	00000013	addi	x0,x0,0	  x0:0x00000000
       37375000	      3736	80004920	00000013	addi	x0,x0,0	  x0:0x00000000
       37385000	      3737	80004924	11107463	bgeu	x0,x17,80004a2c	  x0:0x00000000 x17:0x00000003
       37395000	      3738	80004928	00000013	addi	x0,x0,0	  x0:0x00000000
       37405000	      3739	8000492c	00004117	auipc	x2,0x4	  x2=0x80008928
       37415000	      3740	80004930	2db10113	addi	x2,x2,731	  x2:0x80008928  x2=0x80008c03
       37425000	      3741	80004934	fe814483	lbu	x9,-24(x2)	  x2:0x80008c03  x9=0x000000e2 PA:0x80008beb
       37435000	      3742	80004938	feb102a3	sb	x11,-27(x2)	  x2:0x80008c03 x11:0x00000027 PA:0x80008be8
       37445000	      3743	8000493c	415f5d13	srai	x26,x30,0x15	 x30:0xa0000000 x26=0xfffffd00
       37455000	      3744	80004940	01828433	add	x8,x5,x24	  x5:0xfffff7ff x24:0x80009fc4  x8=0x800097c3
       37465000	      3745	80004944	014fffb3	and	x31,x31,x20	 x31:0x00003fff x20:0xffe30a36 x31=0x00000a36
       37475000	      3746	80004948	00a012b3	sll	x5,x0,x10	  x0:0x00000000 x10:0x80000000  x5=0x00000000
       37485000	      3747	8000494c	86cecf93	xori	x31,x29,-1940	 x29:0x80009f74 x31=0x7fff6718
       37495000	      3748	80004950	ff410683	lb	x13,-12(x2)	  x2:0x80008c03 x13=0x00000002 PA:0x80008bf7
       37505000	      3749	80004954	fd910803	lb	x16,-39(x2)	  x2:0x80008c03 x16=0x00000022 PA:0x80008bdc
       37515000	      3750	80004958	0083c833	xor	x16,x7,x8	  x7:0x00000028  x8:0x800097c3 x16=0x800097eb
       37525000	      3751	8000495c	fc4115a3	sh	x4,-53(x2)	  x2:0x80008c03  x4:0x00003fff PA:0x80008bce
       37535000	      3752	80004960	fd010923	sb	x16,-46(x2)	  x2:0x80008c03 x16:0x800097eb PA:0x80008bd5
       37545000	      3753	80004964	fbc4d3b7	lui	x7,0xfbc4d	  x7=0xfbc4d000
       37555000	      3754	80004968	9fdfca93	xori	x21,x31,-1539	 x31:0x7fff6718 x21=0x80009ee5
       37565000	      3755	8000496c	009524b3	slt	x9,x10,x9	 x10:0x80000000  x9:0x000000e2  x9=0x00000001
       37575000	      3756	80004970	fc210623	sb	x2,-52(x2)	  x2:0x80008c03  x2:0x80008c03 PA:0x80008bcf
       37585000	      3757	80004974	fd3113a3	sh	x19,-57(x2)	  x2:0x80008c03 x19:0x00000000 PA:0x80008bca
       37595000	      3758	80004978	403804b3	sub	x9,x16,x3	 x16:0x800097eb  x3:0x00000060  x9=0x8000978b
       37605000	      3759	8000497c	02814603	lbu	x12,40(x2)	  x2:0x80008c03 x12=0x000000eb PA:0x80008c2b
       37615000	      3760	80004980	00045fb3	srl	x31,x8,x0	  x8:0x800097c3  x0:0x00000000 x31=0x800097c3
       37625000	      3761	80004984	03110723	sb	x17,46(x2)	  x2:0x80008c03 x17:0x00000003 PA:0x80008c31
       37635000	      3762	80004988	fcd101a3	sb	x13,-61(x2)	  x2:0x80008c03 x13:0x00000002 PA:0x80008bc6
       37645000	      3763	8000498c	fde14a03	lbu	x20,-34(x2)	  x2:0x80008c03 x20=0x000000a2 PA:0x80008be1
       37655000	      3764	80004990	03e103a3	sb	x30,39(x2)	  x2:0x80008c03 x30:0xa0000000 PA:0x80008c2a
       37665000	      3765	80004994	b942ad93	slti	x27,x5,-1132	  x5:0x00000000 x27=0x00000000
       37675000	      3766	80004998	235f57b7	lui	x15,0x235f5	 x15=0x235f5000
       37685000	      3767	8000499c	fea10803	lb	x16,-22(x2)	  x2:0x80008c03 x16=0xffffff9b PA:0x80008bed
       37695000	      3768	800049a0	03511f03	lh	x30,53(x2)	  x2:0x80008c03 x30=0x0000265f PA:0x80008c38
       37705000	      3769	800049a4	fce10803	lb	x16,-50(x2)	  x2:0x80008c03 x16=0x00000066 PA:0x80008bd1
       37715000	      3770	800049a8	fc715883	lhu	x17,-57(x2)	  x2:0x80008c03 x17=0x00000000 PA:0x80008bca
       37725000	      3771	800049ac	00310a23	sb	x3,20(x2)	  x2:0x80008c03  x3:0x00000060 PA:0x80008c17
       37735000	      3772	800049b0	1b04d717	auipc	x14,0x1b04d	 x14=0x9b0519ac
       37745000	      3773	800049b4	ffc14a83	lbu	x21,-4(x2)	  x2:0x80008c03 x21=0x000000f0 PA:0x80008bff
       37755000	      3774	800049b8	01e688b3	add	x17,x13,x30	 x13:0x00000002 x30:0x0000265f x17=0x00002661
       37765000	      3775	800049bc	01241e13	slli	x28,x8,0x12	  x8:0x800097c3 x28=0x5f0c0000
       37775000	      3776	800049c0	01b65633	srl	x12,x12,x27	 x12:0x000000eb x27:0x00000000 x12=0x000000eb
       37785000	      3777	800049c4	00e6f9b3	and	x19,x13,x14	 x13:0x00000002 x14:0x9b0519ac x19=0x00000000
       37795000	      3778	800049c8	4fae0793	addi	x15,x28,1274	 x28:0x5f0c0000 x15=0x5f0c04fa
       37805000	      3779	800049cc	0045ed33	or	x26,x11,x4	 x11:0x00000027  x4:0x00003fff x26=0x00003fff
       37815000	      3780	800049d0	00c08db3	add	x27,x1,x12	  x1:0x000004bb x12:0x000000eb x27=0x000005a6
       37825000	      3781	800049d4	258a8497	auipc	x9,0x258a8	  x9=0xa58ac9d0
       37835000	      3782	800049d8	fe115083	lhu	x1,-31(x2)	  x2:0x80008c03  x1=0x0000c231 PA:0x80008be4
       37845000	      3783	800049dc	b7ffba13	sltiu	x20,x31,-1153	 x31:0x800097c3 x20=0x00000001
       37855000	      3784	800049e0	41cb8733	sub	x14,x23,x28	 x23:0xffe30e80 x28:0x5f0c0000 x14=0xa0d70e80
       37865000	      3785	800049e4	19aef817	auipc	x16,0x19aef	 x16=0x99af39e0
       37875000	      3786	800049e8	40e05013	srai	x0,x0,0xe	  x0:0x00000000
       37885000	      3787	800049ec	00795833	srl	x16,x18,x7	 x18:0x80009f74  x7:0xfbc4d000 x16=0x80009f74
       37895000	      3788	800049f0	fc314183	lbu	x3,-61(x2)	  x2:0x80008c03  x3=0x00000002 PA:0x80008bc6
       37905000	      3789	800049f4	002876b3	and	x13,x16,x2	 x16:0x80009f74  x2:0x80008c03 x13=0x80008c00
       37915000	      3790	800049f8	2d8d7ab7	lui	x21,0x2d8d7	 x21=0x2d8d7000
       37925000	      3791	800049fc	41c3d493	srai	x9,x7,0x1c	  x7:0xfbc4d000  x9=0xffffffff
       37935000	      3792	80004a00	01e98033	add	x0,x19,x30	 x19:0x00000000 x30:0x0000265f
       37945000	      3793	80004a04	41ec53b3	sra	x7,x24,x30	 x24:0x80009fc4 x30:0x0000265f  x7=0xffffffff
       37955000	      3794	80004a08	01cda6b3	slt	x13,x27,x28	 x27:0x000005a6 x28:0x5f0c0000 x13=0x00000001
       37965000	      3795	80004a0c	25f3fe13	andi	x28,x7,607	  x7:0xffffffff x28=0x0000025f
       37975000	      3796	80004a10	00000013	addi	x0,x0,0	  x0:0x00000000
       37985000	      3797	80004a14	01e74f33	xor	x30,x14,x30	 x14:0xa0d70e80 x30:0x0000265f x30=0xa0d728df
       37995000	      3798	80004a18	017d17b3	sll	x15,x26,x23	 x26:0x00003fff x23:0xffe30e80 x15=0x00003fff
       38005000	      3799	80004a1c	03c30c63	beq	x6,x28,80004a54	  x6:0x00000000 x28:0x0000025f
       38015000	      3800	80004a20	00083633	sltu	x12,x16,x0	 x16:0x80009f74  x0:0x00000000 x12=0x00000000
       38025000	      3801	80004a24	01babab3	sltu	x21,x21,x27	 x21:0x2d8d7000 x27:0x000005a6 x21=0x00000000
       38035000	      3802	80004a28	00790d33	add	x26,x18,x7	 x18:0x80009f74  x7:0xffffffff x26=0x80009f73
       38045000	      3803	80004a2c	007c8333	add	x6,x25,x7	 x25:0x06051758  x7:0xffffffff  x6=0x06051757
       38055000	      3804	80004a30	0092a333	slt	x6,x5,x9	  x5:0x00000000  x9:0xffffffff  x6=0x00000000
       38065000	      3805	80004a34	001cea63	bltu	x25,x1,80004a48	 x25:0x06051758  x1:0x0000c231
       38075000	      3806	80004a38	00db70b3	and	x1,x22,x13	 x22:0x00000001 x13:0x00000001  x1=0x00000001
       38085000	      3807	80004a3c	01c22fb3	slt	x31,x4,x28	  x4:0x00003fff x28:0x0000025f x31=0x00000000
       38095000	      3808	80004a40	11918813	addi	x16,x3,281	  x3:0x00000002 x16=0x0000011b
       38105000	      3809	80004a44	01bee663	bltu	x29,x27,80004a50	 x29:0x80009f74 x27:0x000005a6
       38115000	      3810	80004a48	99709b97	auipc	x23,0x99709	 x23=0x1970da44
       38125000	      3811	80004a4c	01f03833	sltu	x16,x0,x31	  x0:0x00000000 x31:0x00000000 x16=0x00000000
       38135000	      3812	80004a50	23d82a13	slti	x20,x16,573	 x16:0x00000000 x20=0x00000001
       38145000	      3813	80004a54	00ec0033	add	x0,x24,x14	 x24:0x80009fc4 x14:0xa0d70e80
       38155000	      3814	80004a58	0161df93	srli	x31,x3,0x16	  x3:0x00000002 x31=0x00000000
       38165000	      3815	80004a5c	00000013	addi	x0,x0,0	  x0:0x00000000
       38175000	      3816	80004a60	004e42b3	xor	x5,x28,x4	 x28:0x0000025f  x4:0x00003fff  x5=0x00003da0
       38185000	      3817	80004a64	20e1fa93	andi	x21,x3,526	  x3:0x00000002 x21=0x00000002
       38195000	      3818	80004a68	00d923b3	slt	x7,x18,x13	 x18:0x80009f74 x13:0x00000001  x7=0x00000001
       38205000	      3819	80004a6c	00000013	addi	x0,x0,0	  x0:0x00000000
       38215000	      3820	80004a70	61ecae93	slti	x29,x25,1566	 x25:0x06051758 x29=0x00000000
       38225000	      3821	80004a74	40d3d7b3	sra	x15,x7,x13	  x7:0x00000001 x13:0x00000001 x15=0x00000000
       38235000	      3822	80004a78	05809663	bne	x1,x24,80004ac4	  x1:0x00000001 x24:0x80009fc4
       38245000	      3823	00000000	00000013	addi	x0,x0,0	  x0:0x00000000
       38255000	      3824	80004ac0	00000013	addi	x0,x0,0	  x0:0x00000000
       38265000	      3825	80004ac4	0b3ff063	bgeu	x31,x19,80004b64	 x31:0x00000000 x19:0x00000000
       38275000	      3826	00000000	00000013	addi	x0,x0,0	  x0:0x00000000
       38285000	      3827	80004b60	00000013	addi	x0,x0,0	  x0:0x00000000
       38295000	      3828	80004b64	9eb6f093	andi	x1,x13,-1557	 x13:0x00000001  x1=0x00000001
       38305000	      3829	80004b68	014a9013	slli	x0,x21,0x14	 x21:0x00000002
       38315000	      3830	80004b6c	370aae13	slti	x28,x21,880	 x21:0x00000002 x28=0x00000001
       38325000	      3831	80004b70	ec742293	slti	x5,x8,-313	  x8:0x800097c3  x5=0x00000001
       38335000	      3832	80004b74	e8d30193	addi	x3,x6,-371	  x6:0x00000000  x3=0xfffffe8d
       38345000	      3833	80004b78	40155f13	srai	x30,x10,0x1	 x10:0x80000000 x30=0xc0000000
       38355000	      3834	80004b7c	01f4d263	bge	x9,x31,80004b80	  x9:0xffffffff x31:0x00000000
       38365000	      3835	80004b80	00820cb3	add	x25,x4,x8	  x4:0x00003fff  x8:0x800097c3 x25=0x8000d7c2
       38375000	      3836	80004b84	00709a13	slli	x20,x1,0x7	  x1:0x00000001 x20=0x00000080
       38385000	      3837	80004b88	01b51093	slli	x1,x10,0x1b	 x10:0x80000000  x1=0x00000000
       38395000	      3838	80004b8c	0051f863	bgeu	x3,x5,80004b9c	  x3:0xfffffe8d  x5:0x00000001
       38405000	      3839	00000000	00000013	addi	x0,x0,0	  x0:0x00000000
       38415000	      3840	80004b98	00000013	addi	x0,x0,0	  x0:0x00000000
       38425000	      3841	80004b9c	01f42733	slt	x14,x8,x31	  x8:0x800097c3 x31:0x00000000 x14=0x00000001
       38435000	      3842	80004ba0	01b71893	slli	x17,x14,0x1b	 x14:0x00000001 x17=0x08000000
       38445000	      3843	80004ba4	007fce63	blt	x31,x7,80004bc0	 x31:0x00000000  x7:0x00000001
       38455000	      3844	00000000	00000013	addi	x0,x0,0	  x0:0x00000000
       38465000	      3845	80004bbc	00000013	addi	x0,x0,0	  x0:0x00000000
       38475000	      3846	80004bc0	f2314413	xori	x8,x2,-221	  x2:0x80008c03  x8=0x7fff7320
       38485000	      3847	80004bc4	01ff3db3	sltu	x27,x30,x31	 x30:0xc0000000 x31:0x00000000 x27=0x00000000
       38495000	      3848	80004bc8	05b45863	bge	x8,x27,80004c18	  x8:0x7fff7320 x27:0x00000000
       38505000	      3849	00000000	00000013	addi	x0,x0,0	  x0:0x00000000
       38515000	      3850	80004c14	00000013	addi	x0,x0,0	  x0:0x00000000
       38525000	      3851	80004c18	401d57b3	sra	x15,x26,x1	 x26:0x80009f73  x1:0x00000000 x15=0x80009f73
       38535000	      3852	80004c1c	0013bb33	sltu	x22,x7,x1	  x7:0x00000001  x1:0x00000000 x22=0x00000000
       38545000	      3853	80004c20	00c11233	sll	x4,x2,x12	  x2:0x80008c03 x12:0x00000000  x4=0x80008c03
       38555000	      3854	80004c24	410187b3	sub	x15,x3,x16	  x3:0xfffffe8d x16:0x00000000 x15=0xfffffe8d
       38565000	      3855	80004c28	00985693	srli	x13,x16,0x9	 x16:0x00000000 x13=0x00000000
       38575000	      3856	80004c2c	f478a013	slti	x0,x17,-185	 x17:0x08000000
       38585000	      3857	80004c30	00000013	addi	x0,x0,0	  x0:0x00000000
       38595000	      3858	80004c34	001e6863	bltu	x28,x1,80004c44	 x28:0x00000001  x1:0x00000000
       38605000	      3859	80004c38	2fd63a17	auipc	x20,0x2fd63	 x20=0xafd67c34
       38615000	      3860	80004c3c	04164063	blt	x12,x1,80004c7c	 x12:0x00000000  x1:0x00000000
       38625000	      3861	80004c40	00365713	srli	x14,x12,0x3	 x12:0x00000000 x14=0x00000000
       38635000	      3862	80004c44	01401293	slli	x5,x0,0x14	  x0:0x00000000  x5=0x00000000
       38645000	      3863	80004c48	005ab1b3	sltu	x3,x21,x5	 x21:0x00000002  x5:0x00000000  x3=0x00000000
       38655000	      3864	80004c4c	41418ab3	sub	x21,x3,x20	  x3:0x00000000 x20:0xafd67c34 x21=0x502983cc
       38665000	      3865	80004c50	e1590d17	auipc	x26,0xe1590	 x26=0x61594c4c
       38675000	      3866	80004c54	41aadb93	srai	x23,x21,0x1a	 x21:0x502983cc x23=0x00000014
       38685000	      3867	80004c58	018e1233	sll	x4,x28,x24	 x28:0x00000001 x24:0x80009fc4  x4=0x00000010
       38695000	      3868	80004c5c	02cdc063	blt	x27,x12,80004c7c	 x27:0x00000000 x12:0x00000000
       38705000	      3869	80004c60	41d18313	addi	x6,x3,1053	  x3:0x00000000  x6=0x0000041d
       38715000	      3870	80004c64	10628f17	auipc	x30,0x10628	 x30=0x9062cc60
       38725000	      3871	80004c68	1b3d3213	sltiu	x4,x26,435	 x26:0x61594c4c  x4=0x00000000
       38735000	      3872	80004c6c	8bf8be93	sltiu	x29,x17,-1857	 x17:0x08000000 x29=0x00000001
       38745000	      3873	80004c70	00f570b3	and	x1,x10,x15	 x10:0x80000000 x15:0xfffffe8d  x1=0x80000000
       38755000	      3874	80004c74	00000013	addi	x0,x0,0	  x0:0x00000000
       38765000	      3875	80004c78	4fe48613	addi	x12,x9,1278	  x9:0xffffffff x12=0x000004fd
       38775000	      3876	80004c7c	00fed033	srl	x0,x29,x15	 x29:0x00000001 x15:0xfffffe8d
       38785000	      3877	80004c80	01fb40b3	xor	x1,x22,x31	 x22:0x00000000 x31:0x00000000  x1=0x00000000
       38795000	      3878	80004c84	01a9ce63	blt	x19,x26,80004ca0	 x19:0x00000000 x26:0x61594c4c
       38805000	      3879	00000000	00000013	addi	x0,x0,0	  x0:0x00000000
       38815000	      3880	80004c9c	00000013	addi	x0,x0,0	  x0:0x00000000
       38825000	      3881	80004ca0	046c4263	blt	x24,x6,80004ce4	 x24:0x80009fc4  x6:0x0000041d
       38835000	      3882	00000000	00000013	addi	x0,x0,0	  x0:0x00000000
       38845000	      3883	80004ce0	00000013	addi	x0,x0,0	  x0:0x00000000
       38855000	      3884	80004ce4	69fcae93	slti	x29,x25,1695	 x25:0x8000d7c2 x29=0x00000001
       38865000	      3885	80004ce8	40990e33	sub	x28,x18,x9	 x18:0x80009f74  x9:0xffffffff x28=0x80009f75
       38875000	      3886	80004cec	d3794a93	xori	x21,x18,-713	 x18:0x80009f74 x21=0x7fff6243
       38885000	      3887	80004cf0	4102d2b3	sra	x5,x5,x16	  x5:0x00000000 x16:0x00000000  x5=0x00000000
       38895000	      3888	80004cf4	419c5ab3	sra	x21,x24,x25	 x24:0x80009fc4 x25:0x8000d7c2 x21=0xe00027f1
       38905000	      3889	80004cf8	83994393	xori	x7,x18,-1991	 x18:0x80009f74  x7=0x7fff674d
       38915000	      3890	80004cfc	01f49113	slli	x2,x9,0x1f	  x9:0xffffffff  x2=0x80000000
       38925000	      3891	80004d00	0040d613	srli	x12,x1,0x4	  x1:0x00000000 x12=0x00000000
       38935000	      3892	80004d04	015a0663	beq	x20,x21,80004d10	 x20:0xafd67c34 x21:0xe00027f1
       38945000	      3893	80004d08	ae967213	andi	x4,x12,-1303	 x12:0x00000000  x4=0x00000000
       38955000	      3894	80004d0c	41fad393	srai	x7,x21,0x1f	 x21:0xe00027f1  x7=0xffffffff
       38965000	      3895	80004d10	4198d793	srai	x15,x17,0x19	 x17:0x08000000 x15=0x00000004
       38975000	      3896	80004d14	00000013	addi	x0,x0,0	  x0:0x00000000
       38985000	      3897	80004d18	7bf03f13	sltiu	x30,x0,1983	  x0:0x00000000 x30=0x00000001
       38995000	      3898	80004d1c	63ba8097	auipc	x1,0x63ba8	  x1=0xe3bacd18
       39005000	      3899	80004d20	01ef0db3	add	x27,x30,x30	 x30:0x00000001 x30:0x00000001 x27=0x00000002
       39015000	      3900	80004d24	019cd633	srl	x12,x25,x25	 x25:0x8000d7c2 x25:0x8000d7c2 x12=0x200035f0
       39025000	      3901	80004d28	001a32b3	sltu	x5,x20,x1	 x20:0xafd67c34  x1:0xe3bacd18  x5=0x00000001
       39035000	      3902	80004d2c	007e68b3	or	x17,x28,x7	 x28:0x80009f75  x7:0xffffffff x17=0xffffffff
       39045000	      3903	80004d30	f9d33d37	lui	x26,0xf9d33	 x26=0xf9d33000
       39055000	      3904	80004d34	012cfdb3	and	x27,x25,x18	 x25:0x8000d7c2 x18:0x80009f74 x27=0x80009740
       39065000	      3905	80004d38	2403ce13	xori	x28,x7,576	  x7:0xffffffff x28=0xfffffdbf
       39075000	      3906	80004d3c	00819613	slli	x12,x3,0x8	  x3:0x00000000 x12=0x00000000
       39085000	      3907	80004d40	01d68e33	add	x28,x13,x29	 x13:0x00000000 x29:0x00000001 x28=0x00000001
       39095000	      3908	80004d44	01aa0263	beq	x20,x26,80004d48	 x20:0xafd67c34 x26:0xf9d33000
       39105000	      3909	80004d48	edd8bf13	sltiu	x30,x17,-291	 x17:0xffffffff x30=0x00000000
       39115000	      3910	80004d4c	0095bab3	sltu	x21,x11,x9	 x11:0x00000027  x9:0xffffffff x21=0x00000001
       39125000	      3911	80004d50	f31b7193	andi	x3,x22,-207	 x22:0x00000000  x3=0x00000000
       39135000	      3912	80004d54	018f1313	slli	x6,x30,0x18	 x30:0x00000000  x6=0x00000000
       39145000	      3913	80004d58	7d682013	slti	x0,x16,2006	 x16:0x00000000
       39155000	      3914	80004d5c	673c3113	sltiu	x2,x24,1651	 x24:0x80009fc4  x2=0x00000000
       39165000	      3915	80004d60	0182fa63	bgeu	x5,x24,80004d74	  x5:0x00000001 x24:0x80009fc4
       39175000	      3916	80004d64	6b9ced13	ori	x26,x25,1721	 x25:0x8000d7c2 x26=0x8000d7fb
       39185000	      3917	80004d68	414e5733	sra	x14,x28,x20	 x28:0x00000001 x20:0xafd67c34 x14=0x00000000
       39195000	      3918	80004d6c	1977ae13	slti	x28,x15,407	 x15:0x00000004 x28=0x00000001
       39205000	      3919	80004d70	0330f663	bgeu	x1,x19,80004d9c	  x1:0xe3bacd18 x19:0x00000000
       39215000	      3920	00000000	00000013	addi	x0,x0,0	  x0:0x00000000
       39225000	      3921	80004d98	00000013	addi	x0,x0,0	  x0:0x00000000
       39235000	      3922	80004d9c	00909e13	slli	x28,x1,0x9	  x1:0xe3bacd18 x28=0x759a3000
       39245000	      3923	80004da0	01871d13	slli	x26,x14,0x18	 x14:0x00000000 x26=0x00000000
       39255000	      3924	80004da4	27e37013	andi	x0,x6,638	  x6:0x00000000
       39265000	      3925	80004da8	03b1cc63	blt	x3,x27,80004de0	  x3:0x00000000 x27:0x80009740
       39275000	      3926	80004dac	03a29863	bne	x5,x26,80004ddc	  x5:0x00000001 x26:0x00000000
       39285000	      3927	00000000	00000013	addi	x0,x0,0	  x0:0x00000000
       39295000	      3928	80004dd8	00000013	addi	x0,x0,0	  x0:0x00000000
       39305000	      3929	80004ddc	006b9093	slli	x1,x23,0x6	 x23:0x00000014  x1=0x00000500
       39315000	      3930	80004de0	01c9b5b3	sltu	x11,x19,x28	 x19:0x00000000 x28:0x759a3000 x11=0x00000001
       39325000	      3931	80004de4	00cdcfb3	xor	x31,x27,x12	 x27:0x80009740 x12:0x00000000 x31=0x80009740
       39335000	      3932	80004de8	41225593	srai	x11,x4,0x12	  x4:0x00000000 x11=0x00000000
       39345000	      3933	80004dec	01ee2833	slt	x16,x28,x30	 x28:0x759a3000 x30:0x00000000 x16=0x00000000
       39355000	      3934	80004df0	017dd033	srl	x0,x27,x23	 x27:0x80009740 x23:0x00000014
       39365000	      3935	80004df4	2f6cc213	xori	x4,x25,758	 x25:0x8000d7c2  x4=0x8000d534
       39375000	      3936	80004df8	da32e993	ori	x19,x5,-605	  x5:0x00000001 x19=0xfffffda3
       39385000	      3937	80004dfc	415d5193	srai	x3,x26,0x15	 x26:0x00000000  x3=0x00000000
       39395000	      3938	80004e00	001a8fb3	add	x31,x21,x1	 x21:0x00000001  x1:0x00000500 x31=0x00000501
       39405000	      3939	80004e04	000059b3	srl	x19,x0,x0	  x0:0x00000000  x0:0x00000000 x19=0x00000000
       39415000	      3940	80004e08	000e3b33	sltu	x22,x28,x0	 x28:0x759a3000  x0:0x00000000 x22=0x00000000
       39425000	      3941	80004e0c	05ad1463	bne	x26,x26,80004e54	 x26:0x00000000 x26:0x00000000
       39435000	      3942	80004e10	f1e8cb97	auipc	x23,0xf1e8c	 x23=0x71e90e0c
       39445000	      3943	80004e14	eecb8313	addi	x6,x23,-276	 x23:0x71e90e0c  x6=0x71e90cf8
       39455000	      3944	80004e18	418b80b3	sub	x1,x23,x24	 x23:0x71e90e0c x24:0x80009fc4  x1=0xf1e86e48
       39465000	      3945	80004e1c	41265293	srai	x5,x12,0x12	 x12:0x00000000  x5=0x00000000
       39475000	      3946	80004e20	82f86e13	ori	x28,x16,-2001	 x16:0x00000000 x28=0xfffff82f
       39485000	      3947	80004e24	94dff813	andi	x16,x31,-1715	 x31:0x00000501 x16=0x00000101
       39495000	      3948	80004e28	010c1bb3	sll	x23,x24,x16	 x24:0x80009fc4 x16:0x00000101 x23=0x00013f88
       39505000	      3949	80004e2c	015cdd93	srli	x27,x25,0x15	 x25:0x8000d7c2 x27=0x00000400
       39515000	      3950	80004e30	04021063	bne	x4,x0,80004e70	  x4:0x8000d534  x0:0x00000000
       39525000	      3951	00000000	00000013	addi	x0,x0,0	  x0:0x00000000
       39535000	      3952	80004e6c	00000013	addi	x0,x0,0	  x0:0x00000000
       39545000	      3953	80004e70	000d5233	srl	x4,x26,x0	 x26:0x00000000  x0:0x00000000  x4=0x00000000
       39555000	      3954	80004e74	002bfcb3	and	x25,x23,x2	 x23:0x00013f88  x2:0x00000000 x25=0x00000000
       39565000	      3955	80004e78	40c75193	srai	x3,x14,0xc	 x14:0x00000000  x3=0x00000000
       39575000	      3956	80004e7c	00b38d33	add	x26,x7,x11	  x7:0xffffffff x11:0x00000000 x26=0xffffffff
       39585000	      3957	80004e80	0aba7993	andi	x19,x20,171	 x20:0xafd67c34 x19=0x00000020
       39595000	      3958	80004e84	005efe63	bgeu	x29,x5,80004ea0	 x29:0x00000001  x5:0x00000000
       39605000	      3959	00000000	00000013	addi	x0,x0,0	  x0:0x00000000
       39615000	      3960	80004e9c	00000013	addi	x0,x0,0	  x0:0x00000000
       39625000	      3961	80004ea0	02c77863	bgeu	x14,x12,80004ed0	 x14:0x00000000 x12:0x00000000
       39635000	      3962	00000000	00000013	addi	x0,x0,0	  x0:0x00000000
       39645000	      3963	80004ecc	00000013	addi	x0,x0,0	  x0:0x00000000
       39655000	      3964	80004ed0	001c5263	bge	x24,x1,80004ed4	 x24:0x80009fc4  x1:0xf1e86e48
       39665000	      3965	80004ed4	0145d413	srli	x8,x11,0x14	 x11:0x00000000  x8=0x00000000
       39675000	      3966	80004ed8	006cb3b3	sltu	x7,x25,x6	 x25:0x00000000  x6:0x71e90cf8  x7=0x00000001
       39685000	      3967	80004edc	01e6feb3	and	x29,x13,x30	 x13:0x00000000 x30:0x00000000 x29=0x00000000
       39695000	      3968	80004ee0	0062f433	and	x8,x5,x6	  x5:0x00000000  x6:0x71e90cf8  x8=0x00000000
       39705000	      3969	80004ee4	009a4e63	blt	x20,x9,80004f00	 x20:0xafd67c34  x9:0xffffffff
       39715000	      3970	00000000	00000013	addi	x0,x0,0	  x0:0x00000000
       39725000	      3971	80004efc	00000013	addi	x0,x0,0	  x0:0x00000000
       39735000	      3972	80004f00	017e02b3	add	x5,x28,x23	 x28:0xfffff82f x23:0x00013f88  x5=0x000137b7
       39745000	      3973	80004f04	00b770b3	and	x1,x14,x11	 x14:0x00000000 x11:0x00000000  x1=0x00000000
       39755000	      3974	80004f08	00b5fdb3	and	x27,x11,x11	 x11:0x00000000 x11:0x00000000 x27=0x00000000
       39765000	      3975	80004f0c	00da9313	slli	x6,x21,0xd	 x21:0x00000001  x6=0x00002000
       39775000	      3976	80004f10	40948f33	sub	x30,x9,x9	  x9:0xffffffff  x9:0xffffffff x30=0x00000000
       39785000	      3977	80004f14	000c05b3	add	x11,x24,x0	 x24:0x80009fc4  x0:0x00000000 x11=0x80009fc4
       39795000	      3978	80004f18	03be6063	bltu	x28,x27,80004f38	 x28:0xfffff82f x27:0x00000000
       39805000	      3979	80004f1c	0189fe63	bgeu	x19,x24,80004f38	 x19:0x00000020 x24:0x80009fc4
       39815000	      3980	80004f20	00fa1d13	slli	x26,x20,0xf	 x20:0xafd67c34 x26=0x3e1a0000
       39825000	      3981	80004f24	86184393	xori	x7,x16,-1951	 x16:0x00000101  x7=0xfffff960
       39835000	      3982	80004f28	006ad1b3	srl	x3,x21,x6	 x21:0x00000001  x6:0x00002000  x3=0x00000001
       39845000	      3983	80004f2c	0124e863	bltu	x9,x18,80004f3c	  x9:0xffffffff x18:0x80009f74
       39855000	      3984	80004f30	40fa05b3	sub	x11,x20,x15	 x20:0xafd67c34 x15:0x00000004 x11=0xafd67c30
       39865000	      3985	80004f34	00157433	and	x8,x10,x1	 x10:0x80000000  x1:0x00000000  x8=0x00000000
       39875000	      3986	80004f38	05903893	sltiu	x17,x0,89	  x0:0x00000000 x17=0x00000001
       39885000	      3987	80004f3c	01eb63b3	or	x7,x22,x30	 x22:0x00000000 x30:0x00000000  x7=0x00000000
       39895000	      3988	80004f40	402707b3	sub	x15,x14,x2	 x14:0x00000000  x2:0x00000000 x15=0x00000000
       39905000	      3989	80004f44	0121df93	srli	x31,x3,0x12	  x3:0x00000001 x31=0x00000000
       39915000	      3990	80004f48	400cd593	srai	x11,x25,0x0	 x25:0x00000000 x11=0x00000000
       39925000	      3991	80004f4c	00e30033	add	x0,x6,x14	  x6:0x00002000 x14:0x00000000
       39935000	      3992	80004f50	01a05a93	srli	x21,x0,0x1a	  x0:0x00000000 x21=0x00000000
       39945000	      3993	80004f54	01117133	and	x2,x2,x17	  x2:0x00000000 x17:0x00000001  x2=0x00000000
       39955000	      3994	80004f58	05f18463	beq	x3,x31,80004fa0	  x3:0x00000001 x31:0x00000000
       39965000	      3995	80004f5c	053ae063	bltu	x21,x19,80004f9c	 x21:0x00000000 x19:0x00000020
       39975000	      3996	00000000	00000013	addi	x0,x0,0	  x0:0x00000000
       39985000	      3997	80004f98	00000013	addi	x0,x0,0	  x0:0x00000000
       39995000	      3998	80004f9c	3ea0ff13	andi	x30,x1,1002	  x1:0x00000000 x30=0x00000000
       40005000	      3999	80004fa0	66cc3613	sltiu	x12,x24,1644	 x24:0x80009fc4 x12=0x00000000
       40015000	      4000	80004fa4	01825033	srl	x0,x4,x24	  x4:0x00000000 x24:0x80009fc4
       40025000	      4001	80004fa8	00000013	addi	x0,x0,0	  x0:0x00000000
       40035000	      4002	80004fac	00c9e733	or	x14,x19,x12	 x19:0x00000020 x12:0x00000000 x14=0x00000020
       40045000	      4003	80004fb0	0150c233	xor	x4,x1,x21	  x1:0x00000000 x21:0x00000000  x4=0x00000000
       40055000	      4004	80004fb4	01774f33	xor	x30,x14,x23	 x14:0x00000020 x23:0x00013f88 x30=0x00013fa8
       40065000	      4005	80004fb8	95f7b693	sltiu	x13,x15,-1697	 x15:0x00000000 x13=0x00000001
       40075000	      4006	80004fbc	0150e9b3	or	x19,x1,x21	  x1:0x00000000 x21:0x00000000 x19=0x00000000
       40085000	      4007	80004fc0	000da2b3	slt	x5,x27,x0	 x27:0x00000000  x0:0x00000000  x5=0x00000000
       40095000	      4008	80004fc4	944df893	andi	x17,x27,-1724	 x27:0x00000000 x17=0x00000000
       40105000	      4009	80004fc8	2eab2593	slti	x11,x22,746	 x22:0x00000000 x11=0x00000001
       40115000	      4010	80004fcc	0484d663	bge	x9,x8,80005018	  x9:0xffffffff  x8:0x00000000
       40125000	      4011	80004fd0	00168b33	add	x22,x13,x1	 x13:0x00000001  x1:0x00000000 x22=0x00000001
       40135000	      4012	80004fd4	03367e63	bgeu	x12,x19,80005010	 x12:0x00000000 x19:0x00000000
       40145000	      4013	00000000	00000013	addi	x0,x0,0	  x0:0x00000000
       40155000	      4014	8000500c	00000013	addi	x0,x0,0	  x0:0x00000000
       40165000	      4015	80005010	00000013	addi	x0,x0,0	  x0:0x00000000
       40175000	      4016	80005014	dd0b4d13	xori	x26,x22,-560	 x22:0x00000001 x26=0xfffffdd1
       40185000	      4017	80005018	045ac463	blt	x21,x5,80005060	 x21:0x00000000  x5:0x00000000
       40195000	      4018	8000501c	02ab6c63	bltu	x22,x10,80005054	 x22:0x00000001 x10:0x80000000
       40205000	      4019	00000000	00000013	addi	x0,x0,0	  x0:0x00000000
       40215000	      4020	80005050	00000013	addi	x0,x0,0	  x0:0x00000000
       40225000	      4021	80005054	023f9063	bne	x31,x3,80005074	 x31:0x00000000  x3:0x00000001
       40235000	      4022	00000000	00000013	addi	x0,x0,0	  x0:0x00000000
       40245000	      4023	80005070	00000013	addi	x0,x0,0	  x0:0x00000000
       40255000	      4024	80005074	001aea33	or	x20,x21,x1	 x21:0x00000000  x1:0x00000000 x20=0x00000000
       40265000	      4025	80005078	016f1713	slli	x14,x30,0x16	 x30:0x00013fa8 x14=0xea000000
       40275000	      4026	8000507c	000bbcb3	sltu	x25,x23,x0	 x23:0x00013f88  x0:0x00000000 x25=0x00000000
       40285000	      4027	80005080	40625d13	srai	x26,x4,0x6	  x4:0x00000000 x26=0x00000000
       40295000	      4028	80005084	2c8cbb13	sltiu	x22,x25,712	 x25:0x00000000 x22=0x00000001
       40305000	      4029	80005088	38748613	addi	x12,x9,903	  x9:0xffffffff x12=0x00000386
       40315000	      4030	8000508c	00156433	or	x8,x10,x1	 x10:0x80000000  x1:0x00000000  x8=0x80000000
       40325000	      4031	80005090	00596863	bltu	x18,x5,800050a0	 x18:0x80009f74  x5:0x00000000
       40335000	      4032	80005094	05154463	blt	x10,x17,800050dc	 x10:0x80000000 x17:0x00000000
       40345000	      4033	00000000	00000013	addi	x0,x0,0	  x0:0x00000000
       40355000	      4034	800050d8	00000013	addi	x0,x0,0	  x0:0x00000000
       40365000	      4035	800050dc	011fc263	blt	x31,x17,800050e0	 x31:0x00000000 x17:0x00000000
       40375000	      4036	800050e0	d8543613	sltiu	x12,x8,-635	  x8:0x80000000 x12=0x00000001
       40385000	      4037	800050e4	015f77b3	and	x15,x30,x21	 x30:0x00013fa8 x21:0x00000000 x15=0x00000000
       40395000	      4038	800050e8	0127fa33	and	x20,x15,x18	 x15:0x00000000 x18:0x80009f74 x20=0x00000000
       40405000	      4039	800050ec	00872633	slt	x12,x14,x8	 x14:0xea000000  x8:0x80000000 x12=0x00000000
       40415000	      4040	800050f0	01ca26b3	slt	x13,x20,x28	 x20:0x00000000 x28:0xfffff82f x13=0x00000000
       40425000	      4041	800050f4	011cf333	and	x6,x25,x17	 x25:0x00000000 x17:0x00000000  x6=0x00000000
       40435000	      4042	800050f8	009f9133	sll	x2,x31,x9	 x31:0x00000000  x9:0xffffffff  x2=0x00000000
       40445000	      4043	800050fc	00b76333	or	x6,x14,x11	 x14:0xea000000 x11:0x00000001  x6=0xea000001
       40455000	      4044	80005100	00000013	addi	x0,x0,0	  x0:0x00000000
       40465000	      4045	80005104	03e68863	beq	x13,x30,80005134	 x13:0x00000000 x30:0x00013fa8
       40475000	      4046	80005108	0183cc63	blt	x7,x24,80005120	  x7:0x00000000 x24:0x80009fc4
       40485000	      4047	8000510c	1264d063	bge	x9,x6,8000522c	  x9:0xffffffff  x6:0xea000001
       40495000	      4048	00000000	00000013	addi	x0,x0,0	  x0:0x00000000
       40505000	      4049	80005228	00000013	addi	x0,x0,0	  x0:0x00000000
       40515000	      4050	8000522c	059d7063	bgeu	x26,x25,8000526c	 x26:0x00000000 x25:0x00000000
       40525000	      4051	00000000	00000013	addi	x0,x0,0	  x0:0x00000000
       40535000	      4052	80005268	00000013	addi	x0,x0,0	  x0:0x00000000
       40545000	      4053	8000526c	d9232b13	slti	x22,x6,-622	  x6:0xea000001 x22=0x00000001
       40555000	      4054	80005270	a8ade493	ori	x9,x27,-1398	 x27:0x00000000  x9=0xfffffa8a
       40565000	      4055	80005274	0021cc63	blt	x3,x2,8000528c	  x3:0x00000001  x2:0x00000000
       40575000	      4056	80005278	018e1fb3	sll	x31,x28,x24	 x28:0xfffff82f x24:0x80009fc4 x31=0xffff82f0
       40585000	      4057	8000527c	00b39493	slli	x9,x7,0xb	  x7:0x00000000  x9=0x00000000
       40595000	      4058	80005280	2ae9cf13	xori	x30,x19,686	 x19:0x00000000 x30=0x000002ae
       40605000	      4059	80005284	00087733	and	x14,x16,x0	 x16:0x00000101  x0:0x00000000 x14=0x00000000
       40615000	      4060	80005288	e4078213	addi	x4,x15,-448	 x15:0x00000000  x4=0xfffffe40
       40625000	      4061	8000528c	6f09e113	ori	x2,x19,1776	 x19:0x00000000  x2=0x000006f0
       40635000	      4062	80005290	019d6733	or	x14,x26,x25	 x26:0x00000000 x25:0x00000000 x14=0x00000000
       40645000	      4063	80005294	d2787793	andi	x15,x16,-729	 x16:0x00000101 x15=0x00000101
       40655000	      4064	80005298	00a45a33	srl	x20,x8,x10	  x8:0x80000000 x10:0x80000000 x20=0x80000000
       40665000	      4065	8000529c	008a2a33	slt	x20,x20,x8	 x20:0x80000000  x8:0x80000000 x20=0x00000000
       40675000	      4066	800052a0	01b38733	add	x14,x7,x27	  x7:0x00000000 x27:0x00000000 x14=0x00000000
       40685000	      4067	800052a4	00659193	slli	x3,x11,0x6	 x11:0x00000001  x3=0x00000040
       40695000	      4068	800052a8	039d4c63	blt	x26,x25,800052e0	 x26:0x00000000 x25:0x00000000
       40705000	      4069	800052ac	011eda93	srli	x21,x29,0x11	 x29:0x00000000 x21=0x00000000
       40715000	      4070	800052b0	4167dd93	srai	x27,x15,0x16	 x15:0x00000101 x27=0x00000000
       40725000	      4071	800052b4	00cf1f13	slli	x30,x30,0xc	 x30:0x000002ae x30=0x002ae000
       40735000	      4072	800052b8	00000013	addi	x0,x0,0	  x0:0x00000000
       40745000	      4073	800052bc	05605463	bge	x0,x22,80005304	  x0:0x00000000 x22:0x00000001
       40755000	      4074	800052c0	007081b3	add	x3,x1,x7	  x1:0x00000000  x7:0x00000000  x3=0x00000000
       40765000	      4075	800052c4	8d97c893	xori	x17,x15,-1831	 x15:0x00000101 x17=0xfffff9d8
       40775000	      4076	800052c8	00f7ee63	bltu	x15,x15,800052e4	 x15:0x00000101 x15:0x00000101
       40785000	      4077	800052cc	7d910b93	addi	x23,x2,2009	  x2:0x000006f0 x23=0x00000ec9
       40795000	      4078	800052d0	043a1463	bne	x20,x3,80005318	 x20:0x00000000  x3:0x00000000
       40805000	      4079	800052d4	0197abb3	slt	x23,x15,x25	 x15:0x00000101 x25:0x00000000 x23=0x00000000
       40815000	      4080	800052d8	001e9ab3	sll	x21,x29,x1	 x29:0x00000000  x1:0x00000000 x21=0x00000000
       40825000	      4081	800052dc	00418663	beq	x3,x4,800052e8	  x3:0x00000000  x4:0xfffffe40
       40835000	      4082	800052e0	407e8f33	sub	x30,x29,x7	 x29:0x00000000  x7:0x00000000 x30=0x00000000
       40845000	      4083	800052e4	013219b3	sll	x19,x4,x19	  x4:0xfffffe40 x19:0x00000000 x19=0xfffffe40
       40855000	      4084	800052e8	01137263	bgeu	x6,x17,800052ec	  x6:0xea000001 x17:0xfffff9d8
       40865000	      4085	800052ec	b7b96e93	ori	x29,x18,-1157	 x18:0x80009f74 x29=0xffffff7f
       40875000	      4086	800052f0	be3b1137	lui	x2,0xbe3b1	  x2=0xbe3b1000
       40885000	      4087	800052f4	401f0033	sub	x0,x30,x1	 x30:0x00000000  x1:0x00000000
       40895000	      4088	800052f8	5781cd13	xori	x26,x3,1400	  x3:0x00000000 x26=0x00000578
       40905000	      4089	800052fc	00205eb3	srl	x29,x0,x2	  x0:0x00000000  x2:0xbe3b1000 x29=0x00000000
       40915000	      4090	80005300	52a8f493	andi	x9,x17,1322	 x17:0xfffff9d8  x9=0x00000108
       40925000	      4091	80005304	d64f2e93	slti	x29,x30,-668	 x30:0x00000000 x29=0x00000000
       40935000	      4092	80005308	9681ca93	xori	x21,x3,-1688	  x3:0x00000000 x21=0xfffff968
       40945000	      4093	8000530c	019626b3	slt	x13,x12,x25	 x12:0x00000000 x25:0x00000000 x13=0x00000000
       40955000	      4094	80005310	ee779e97	auipc	x29,0xee779	 x29=0x6e77e30c
       40965000	      4095	80005314	00000013	addi	x0,x0,0	  x0:0x00000000
       40975000	      4096	80005318	01f8d263	bge	x17,x31,8000531c	 x17:0xfffff9d8 x31:0xffff82f0
       40985000	      4097	00000000	00000013	addi	x0,x0,0	  x0:0x00000000
       40995000	      4098	80005318	00000013	addi	x0,x0,0	  x0:0x00000000
       41005000	      4099	8000531c	00eee033	or	x0,x29,x14	 x29:0x6e77e30c x14:0x00000000
       41015000	      4100	80005320	00c790b3	sll	x1,x15,x12	 x15:0x00000101 x12:0x00000000  x1=0x00000101
       41025000	      4101	80005324	e8256993	ori	x19,x10,-382	 x10:0x80000000 x19=0xfffffe82
       41035000	      4102	80005328	b14fcd93	xori	x27,x31,-1260	 x31:0xffff82f0 x27=0x000079e4
       41045000	      4103	8000532c	29240493	addi	x9,x8,658	  x8:0x80000000  x9=0x80000292
       41055000	      4104	80005330	04cef663	bgeu	x29,x12,8000537c	 x29:0x6e77e30c x12:0x00000000
       41065000	      4105	00000000	00000013	addi	x0,x0,0	  x0:0x00000000
       41075000	      4106	80005378	00000013	addi	x0,x0,0	  x0:0x00000000
       41085000	      4107	8000537c	0411c063	blt	x3,x1,800053bc	  x3:0x00000000  x1:0x00000101
       41095000	      4108	00000000	00000013	addi	x0,x0,0	  x0:0x00000000
       41105000	      4109	800053b8	00000013	addi	x0,x0,0	  x0:0x00000000
       41115000	      4110	800053bc	04fff863	bgeu	x31,x15,8000540c	 x31:0xffff82f0 x15:0x00000101
       41125000	      4111	00000000	00000013	addi	x0,x0,0	  x0:0x00000000
       41135000	      4112	80005408	00000013	addi	x0,x0,0	  x0:0x00000000
       41145000	      4113	8000540c	04388463	beq	x17,x3,80005454	 x17:0xfffff9d8  x3:0x00000000
       41155000	      4114	80005410	41bed833	sra	x16,x29,x27	 x29:0x6e77e30c x27:0x000079e4 x16=0x06e77e30
       41165000	      4115	80005414	00000013	addi	x0,x0,0	  x0:0x00000000
       41175000	      4116	80005418	05529663	bne	x5,x21,80005464	  x5:0x00000000 x21:0xfffff968
       41185000	      4117	00000000	00000013	addi	x0,x0,0	  x0:0x00000000
       41195000	      4118	80005460	00000013	addi	x0,x0,0	  x0:0x00000000
       41205000	      4119	80005464	025d0863	beq	x26,x5,80005494	 x26:0x00000578  x5:0x00000000
       41215000	      4120	80005468	765efe93	andi	x29,x29,1893	 x29:0x6e77e30c x29=0x00000304
       41225000	      4121	8000546c	41c10b33	sub	x22,x2,x28	  x2:0xbe3b1000 x28:0xfffff82f x22=0xbe3b17d1
       41235000	      4122	80005470	00edacb3	slt	x25,x27,x14	 x27:0x000079e4 x14:0x00000000 x25=0x00000000
       41245000	      4123	80005474	00bef263	bgeu	x29,x11,80005478	 x29:0x00000304 x11:0x00000001
       41255000	      4124	00000000	00000013	addi	x0,x0,0	  x0:0x00000000
       41265000	      4125	80005474	00000013	addi	x0,x0,0	  x0:0x00000000
       41275000	      4126	80005478	41db05b3	sub	x11,x22,x29	 x22:0xbe3b17d1 x29:0x00000304 x11=0xbe3b14cd
       41285000	      4127	8000547c	00000013	addi	x0,x0,0	  x0:0x00000000
       41295000	      4128	80005480	c581c117	auipc	x2,0xc581c	  x2=0x4582147c
       41305000	      4129	80005484	41ab56b3	sra	x13,x22,x26	 x22:0xbe3b17d1 x26:0x00000578 x13=0xffffffbe
       41315000	      4130	80005488	b118b897	auipc	x17,0xb118b	 x17=0x31190484
       41325000	      4131	8000548c	03174e63	blt	x14,x17,800054c8	 x14:0x00000000 x17:0x31190484
       41335000	      4132	00000000	00000013	addi	x0,x0,0	  x0:0x00000000
       41345000	      4133	800054c4	00000013	addi	x0,x0,0	  x0:0x00000000
       41355000	      4134	800054c8	00dd21b3	slt	x3,x26,x13	 x26:0x00000578 x13:0xffffffbe  x3=0x00000000
       41365000	      4135	800054cc	4082d613	srai	x12,x5,0x8	  x5:0x00000000 x12=0x00000000
       41375000	      4136	800054d0	052d7263	bgeu	x26,x18,80005514	 x26:0x00000578 x18:0x80009f74
       41385000	      4137	800054d4	01b4c3b3	xor	x7,x9,x27	  x9:0x80000292 x27:0x000079e4  x7=0x80007b76
       41395000	      4138	800054d8	e53e8d13	addi	x26,x29,-429	 x29:0x00000304 x26=0x00000157
       41405000	      4139	800054dc	f065f637	lui	x12,0xf065f	 x12=0xf065f000
       41415000	      4140	800054e0	03331063	bne	x6,x19,80005500	  x6:0xea000001 x19:0xfffffe82
       41425000	      4141	00000000	00000013	addi	x0,x0,0	  x0:0x00000000
       41435000	      4142	800054fc	00000013	addi	x0,x0,0	  x0:0x00000000
       41445000	      4143	80005500	00482ab3	slt	x21,x16,x4	 x16:0x06e77e30  x4:0xfffffe40 x21=0x00000000
       41455000	      4144	80005504	00f30cb3	add	x25,x6,x15	  x6:0xea000001 x15:0x00000101 x25=0xea000102
       41465000	      4145	80005508	a42c7b13	andi	x22,x24,-1470	 x24:0x80009fc4 x22=0x80009a40
       41475000	      4146	8000550c	9f446713	ori	x14,x8,-1548	  x8:0x80000000 x14=0xfffff9f4
       41485000	      4147	80005510	0180e863	bltu	x1,x24,80005520	  x1:0x00000101 x24:0x80009fc4
       41495000	      4148	00000000	00000013	addi	x0,x0,0	  x0:0x00000000
       41505000	      4149	8000551c	00000013	addi	x0,x0,0	  x0:0x00000000
       41515000	      4150	80005520	00544733	xor	x14,x8,x5	  x8:0x80000000  x5:0x00000000 x14=0x80000000
       41525000	      4151	80005524	9d9bb793	sltiu	x15,x23,-1575	 x23:0x00000000 x15=0x00000001
       41535000	      4152	80005528	60917c93	andi	x25,x2,1545	  x2:0x4582147c x25=0x00000408
       41545000	      4153	8000552c	00e9f2b3	and	x5,x19,x14	 x19:0xfffffe82 x14:0x80000000  x5=0x80000000
       41555000	      4154	80005530	04c25463	bge	x4,x12,80005578	  x4:0xfffffe40 x12:0xf065f000
       41565000	      4155	00000000	00000013	addi	x0,x0,0	  x0:0x00000000
       41575000	      4156	80005574	00000013	addi	x0,x0,0	  x0:0x00000000
       41585000	      4157	80005578	03afcc63	blt	x31,x26,800055b0	 x31:0xffff82f0 x26:0x00000157
       41595000	      4158	00000000	00000013	addi	x0,x0,0	  x0:0x00000000
       41605000	      4159	800055ac	00000013	addi	x0,x0,0	  x0:0x00000000
       41615000	      4160	800055b0	036acc63	blt	x21,x22,800055e8	 x21:0x00000000 x22:0x80009a40
       41625000	      4161	800055b4	00321eb3	sll	x29,x4,x3	  x4:0xfffffe40  x3:0x00000000 x29=0xfffffe40
       41635000	      4162	800055b8	0a1f2f13	slti	x30,x30,161	 x30:0x00000000 x30=0x00000001
       41645000	      4163	800055bc	047e0063	beq	x28,x7,800055fc	 x28:0xfffff82f  x7:0x80007b76
       41655000	      4164	800055c0	0175a133	slt	x2,x11,x23	 x11:0xbe3b14cd x23:0x00000000  x2=0x00000001
       41665000	      4165	800055c4	2b5d7b17	auipc	x22,0x2b5d7	 x22=0xab5dc5c0
       41675000	      4166	800055c8	9eec4b13	xori	x22,x24,-1554	 x24:0x80009fc4 x22=0x7fff662a
       41685000	      4167	800055cc	0074cfb3	xor	x31,x9,x7	  x9:0x80000292  x7:0x80007b76 x31=0x000079e4
       41695000	      4168	800055d0	01f792b3	sll	x5,x15,x31	 x15:0x00000001 x31:0x000079e4  x5=0x00000010
       41705000	      4169	800055d4	b7668d93	addi	x27,x13,-1162	 x13:0xffffffbe x27=0xfffffb34
       41715000	      4170	800055d8	00fe8433	add	x8,x29,x15	 x29:0xfffffe40 x15:0x00000001  x8=0xfffffe41
       41725000	      4171	800055dc	008d9f13	slli	x30,x27,0x8	 x27:0xfffffb34 x30=0xfffb3400
       41735000	      4172	800055e0	01e11263	bne	x2,x30,800055e4	  x2:0x00000001 x30:0xfffb3400
       41745000	      4173	00000000	00000013	addi	x0,x0,0	  x0:0x00000000
       41755000	      4174	800055e0	00000013	addi	x0,x0,0	  x0:0x00000000
       41765000	      4175	800055e4	00000013	addi	x0,x0,0	  x0:0x00000000
       41775000	      4176	800055e8	a25f6013	ori	x0,x30,-1499	 x30:0xfffb3400
       41785000	      4177	800055ec	01537e63	bgeu	x6,x21,80005608	  x6:0xea000001 x21:0x00000000
       41795000	      4178	00000000	00000013	addi	x0,x0,0	  x0:0x00000000
       41805000	      4179	80005604	00000013	addi	x0,x0,0	  x0:0x00000000
       41815000	      4180	80005608	0198c333	xor	x6,x17,x25	 x17:0x31190484 x25:0x00000408  x6=0x3119008c
       41825000	      4181	8000560c	d5562a93	slti	x21,x12,-683	 x12:0xf065f000 x21=0x00000001
       41835000	      4182	80005610	a00ec493	xori	x9,x29,-1536	 x29:0xfffffe40  x9=0x00000440
       41845000	      4183	80005614	00d64c63	blt	x12,x13,8000562c	 x12:0xf065f000 x13:0xffffffbe
       41855000	      4184	00000000	00000013	addi	x0,x0,0	  x0:0x00000000
       41865000	      4185	80005628	00000013	addi	x0,x0,0	  x0:0x00000000
       41875000	      4186	8000562c	056c5663	bge	x24,x22,80005678	 x24:0x80009fc4 x22:0x7fff662a
       41885000	      4187	80005630	02c25663	bge	x4,x12,8000565c	  x4:0xfffffe40 x12:0xf065f000
       41895000	      4188	00000000	00000013	addi	x0,x0,0	  x0:0x00000000
       41905000	      4189	80005658	00000013	addi	x0,x0,0	  x0:0x00000000
       41915000	      4190	8000565c	db7e2293	slti	x5,x28,-585	 x28:0xfffff82f  x5=0x00000001
       41925000	      4191	80005660	005475b3	and	x11,x8,x5	  x8:0xfffffe41  x5:0x00000001 x11=0x00000001
       41935000	      4192	80005664	5c9b3493	sltiu	x9,x22,1481	 x22:0x7fff662a  x9=0x00000000
       41945000	      4193	80005668	04506063	bltu	x0,x5,800056a8	  x0:0x00000000  x5:0x00000001
       41955000	      4194	00000000	00000013	addi	x0,x0,0	  x0:0x00000000
       41965000	      4195	800056a4	00000013	addi	x0,x0,0	  x0:0x00000000
       41975000	      4196	800056a8	0472c863	blt	x5,x7,800056f8	  x5:0x00000001  x7:0x80007b76
       41985000	      4197	800056ac	873e2a17	auipc	x20,0x873e2	 x20=0x073e76a8
       41995000	      4198	800056b0	00000013	addi	x0,x0,0	  x0:0x00000000
       42005000	      4199	800056b4	e250bf17	auipc	x30,0xe250b	 x30=0x625106b0
       42015000	      4200	800056b8	00b74f33	xor	x30,x14,x11	 x14:0x80000000 x11:0x00000001 x30=0x80000001
       42025000	      4201	800056bc	019ab7b3	sltu	x15,x21,x25	 x21:0x00000001 x25:0x00000408 x15=0x00000001
       42035000	      4202	800056c0	418b5eb3	sra	x29,x22,x24	 x22:0x7fff662a x24:0x80009fc4 x29=0x07fff662
       42045000	      4203	800056c4	7439e093	ori	x1,x19,1859	 x19:0xfffffe82  x1=0xffffffc3
       42055000	      4204	800056c8	5ef3e393	ori	x7,x7,1519	  x7:0x80007b76  x7=0x80007fff
       42065000	      4205	800056cc	41a85ab3	sra	x21,x16,x26	 x16:0x06e77e30 x26:0x00000157 x21=0x0000000d
       42075000	      4206	800056d0	01b51033	sll	x0,x10,x27	 x10:0x80000000 x27:0xfffffb34
       42085000	      4207	800056d4	02287713	andi	x14,x16,34	 x16:0x06e77e30 x14=0x00000020
       42095000	      4208	800056d8	001f1293	slli	x5,x30,0x1	 x30:0x80000001  x5=0x00000002
       42105000	      4209	800056dc	0406f463	bgeu	x13,x0,80005724	 x13:0xffffffbe  x0:0x00000000
       42115000	      4210	00000000	00000013	addi	x0,x0,0	  x0:0x00000000
       42125000	      4211	80005720	00000013	addi	x0,x0,0	  x0:0x00000000
       42135000	      4212	80005724	4195d713	srai	x14,x11,0x19	 x11:0x00000001 x14=0x00000000
       42145000	      4213	80005728	823ab397	auipc	x7,0x823ab	  x7=0x023b0724
       42155000	      4214	8000572c	01895493	srli	x9,x18,0x18	 x18:0x80009f74  x9=0x00000080
       42165000	      4215	80005730	02476063	bltu	x14,x4,80005750	 x14:0x00000000  x4:0xfffffe40
       42175000	      4216	00000000	00000013	addi	x0,x0,0	  x0:0x00000000
       42185000	      4217	8000574c	00000013	addi	x0,x0,0	  x0:0x00000000
       42195000	      4218	80005750	03f00863	beq	x0,x31,80005780	  x0:0x00000000 x31:0x000079e4
       42205000	      4219	80005754	bff56393	ori	x7,x10,-1025	 x10:0x80000000  x7=0xfffffbff
       42215000	      4220	80005758	01e25e63	bge	x4,x30,80005774	  x4:0xfffffe40 x30:0x80000001
       42225000	      4221	00000000	00000013	addi	x0,x0,0	  x0:0x00000000
       42235000	      4222	80005770	00000013	addi	x0,x0,0	  x0:0x00000000
       42245000	      4223	80005774	05001263	bne	x0,x16,800057b8	  x0:0x00000000 x16:0x06e77e30
       42255000	      4224	00000000	00000013	addi	x0,x0,0	  x0:0x00000000
       42265000	      4225	800057b4	00000013	addi	x0,x0,0	  x0:0x00000000
       42275000	      4226	800057b8	0140bf33	sltu	x30,x1,x20	  x1:0xffffffc3 x20:0x073e76a8 x30=0x00000000
       42285000	      4227	800057bc	10300463	beq	x0,x3,800058c4	  x0:0x00000000  x3:0x00000000
       42295000	      4228	00000000	00000013	addi	x0,x0,0	  x0:0x00000000
       42305000	      4229	800058c0	00000013	addi	x0,x0,0	  x0:0x00000000
       42315000	      4230	800058c4	007b8863	beq	x23,x7,800058d4	 x23:0x00000000  x7:0xfffffbff
       42325000	      4231	800058c8	03471c63	bne	x14,x20,80005900	 x14:0x00000000 x20:0x073e76a8
       42335000	      4232	00000000	00000013	addi	x0,x0,0	  x0:0x00000000
       42345000	      4233	800058fc	00000013	addi	x0,x0,0	  x0:0x00000000
       42355000	      4234	80005900	9e9d6893	ori	x17,x26,-1559	 x26:0x00000157 x17=0xfffff9ff
       42365000	      4235	80005904	03527863	bgeu	x4,x21,80005934	  x4:0xfffffe40 x21:0x0000000d
       42375000	      4236	00000000	00000013	addi	x0,x0,0	  x0:0x00000000
       42385000	      4237	80005930	00000013	addi	x0,x0,0	  x0:0x00000000
       42395000	      4238	80005934	0303e793	ori	x15,x7,48	  x7:0xfffffbff x15=0xfffffbff
       42405000	      4239	80005938	00436663	bltu	x6,x4,80005944	  x6:0x3119008c  x4:0xfffffe40
       42415000	      4240	00000000	00000013	addi	x0,x0,0	  x0:0x00000000
       42425000	      4241	80005940	00000013	addi	x0,x0,0	  x0:0x00000000
       42435000	      4242	80005944	00000013	addi	x0,x0,0	  x0:0x00000000
       42445000	      4243	80005948	41d45633	sra	x12,x8,x29	  x8:0xfffffe41 x29:0x07fff662 x12=0xffffff90
       42455000	      4244	8000594c	014a4bb3	xor	x23,x20,x20	 x20:0x073e76a8 x20:0x073e76a8 x23=0x00000000
       42465000	      4245	80005950	05381463	bne	x16,x19,80005998	 x16:0x06e77e30 x19:0xfffffe82
       42475000	      4246	00000000	00000013	addi	x0,x0,0	  x0:0x00000000
       42485000	      4247	80005994	00000013	addi	x0,x0,0	  x0:0x00000000
       42495000	      4248	80005998	01fc8fb3	add	x31,x25,x31	 x25:0x00000408 x31:0x000079e4 x31=0x00007dec
       42505000	      4249	8000599c	1dab3717	auipc	x14,0x1dab3	 x14=0x9dab8998
       42515000	      4250	800059a0	40e2d713	srai	x14,x5,0xe	  x5:0x00000002 x14=0x00000000
       42525000	      4251	800059a4	0196d713	srli	x14,x13,0x19	 x13:0xffffffbe x14=0x0000007f
       42535000	      4252	800059a8	412356b3	sra	x13,x6,x18	  x6:0x3119008c x18:0x80009f74 x13=0x00000311
       42545000	      4253	800059ac	90fd8717	auipc	x14,0x90fd8	 x14=0x10fdd9a8
       42555000	      4254	800059b0	0551f463	bgeu	x3,x21,800059f8	  x3:0x00000000 x21:0x0000000d
       42565000	      4255	800059b4	02811663	bne	x2,x8,800059e0	  x2:0x00000001  x8:0xfffffe41
       42575000	      4256	00000000	00000013	addi	x0,x0,0	  x0:0x00000000
       42585000	      4257	800059dc	00000013	addi	x0,x0,0	  x0:0x00000000
       42595000	      4258	800059e0	05fb7063	bgeu	x22,x31,80005a20	 x22:0x7fff662a x31:0x00007dec
       42605000	      4259	00000000	00000013	addi	x0,x0,0	  x0:0x00000000
       42615000	      4260	80005a1c	00000013	addi	x0,x0,0	  x0:0x00000000
       42625000	      4261	80005a20	08708813	addi	x16,x1,135	  x1:0xffffffc3 x16=0x0000004a
       42635000	      4262	80005a24	008b6e33	or	x28,x22,x8	 x22:0x7fff662a  x8:0xfffffe41 x28=0xfffffe6b
       42645000	      4263	80005a28	00a09093	slli	x1,x1,0xa	  x1:0xffffffc3  x1=0xffff0c00
       42655000	      4264	80005a2c	99ebb493	sltiu	x9,x23,-1634	 x23:0x00000000  x9=0x00000001
       42665000	      4265	80005a30	00655c63	bge	x10,x6,80005a48	 x10:0x80000000  x6:0x3119008c
       42675000	      4266	80005a34	00e6d833	srl	x16,x13,x14	 x13:0x00000311 x14:0x10fdd9a8 x16=0x00000003
       42685000	      4267	80005a38	41a60633	sub	x12,x12,x26	 x12:0xffffff90 x26:0x00000157 x12=0xfffffe39
       42695000	      4268	80005a3c	05a3e063	bltu	x7,x26,80005a7c	  x7:0xfffffbff x26:0x00000157
       42705000	      4269	80005a40	e4726c93	ori	x25,x4,-441	  x4:0xfffffe40 x25=0xfffffe47
       42715000	      4270	80005a44	0130feb3	and	x29,x1,x19	  x1:0xffff0c00 x19:0xfffffe82 x29=0xffff0c00
       42725000	      4271	80005a48	413ddfb3	sra	x31,x27,x19	 x27:0xfffffb34 x19:0xfffffe82 x31=0xfffffecd
       42735000	      4272	80005a4c	29b4b013	sltiu	x0,x9,667	  x9:0x00000001
       42745000	      4273	80005a50	41e05e13	srai	x28,x0,0x1e	  x0:0x00000000 x28=0x00000000
       42755000	      4274	80005a54	04795063	bge	x18,x7,80005a94	 x18:0x80009f74  x7:0xfffffbff
       42765000	      4275	80005a58	023c1063	bne	x24,x3,80005a78	 x24:0x80009fc4  x3:0x00000000
       42775000	      4276	00000000	00000013	addi	x0,x0,0	  x0:0x00000000
       42785000	      4277	80005a74	00000013	addi	x0,x0,0	  x0:0x00000000
       42795000	      4278	80005a78	010071b3	and	x3,x0,x16	  x0:0x00000000 x16:0x00000003  x3=0x00000000
       42805000	      4279	80005a7c	e563e013	ori	x0,x7,-426	  x7:0xfffffbff
       42815000	      4280	80005a80	77af75b7	lui	x11,0x77af7	 x11=0x77af7000
       42825000	      4281	80005a84	00f3ff33	and	x30,x7,x15	  x7:0xfffffbff x15:0xfffffbff x30=0xfffffbff
       42835000	      4282	80005a88	b5710013	addi	x0,x2,-1193	  x2:0x00000001
       42845000	      4283	80005a8c	414e5e13	srai	x28,x28,0x14	 x28:0x00000000 x28=0x00000000
       42855000	      4284	80005a90	4022d113	srai	x2,x5,0x2	  x5:0x00000002  x2=0x00000000
       42865000	      4285	80005a94	000c1013	slli	x0,x24,0x0	 x24:0x80009fc4
       42875000	      4286	80005a98	01fb02b3	add	x5,x22,x31	 x22:0x7fff662a x31:0xfffffecd  x5=0x7fff64f7
       42885000	      4287	80005a9c	0b6aea17	auipc	x20,0xb6ae	 x20=0x8b6b3a98
       42895000	      4288	80005aa0	40d25833	sra	x16,x4,x13	  x4:0xfffffe40 x13:0x00000311 x16=0xffffffff
       42905000	      4289	80005aa4	40450133	sub	x2,x10,x4	 x10:0x80000000  x4:0xfffffe40  x2=0x800001c0
       42915000	      4290	80005aa8	01e28033	add	x0,x5,x30	  x5:0x7fff64f7 x30:0xfffffbff
       42925000	      4291	80005aac	05434863	blt	x6,x20,80005afc	  x6:0x3119008c x20:0x8b6b3a98
       42935000	      4292	80005ab0	8d71b713	sltiu	x14,x3,-1833	  x3:0x00000000 x14=0x00000001
       42945000	      4293	80005ab4	0060d7b3	srl	x15,x1,x6	  x1:0xffff0c00  x6:0x3119008c x15=0x000ffff0
       42955000	      4294	80005ab8	687afb13	andi	x22,x21,1671	 x21:0x0000000d x22=0x00000005
       42965000	      4295	80005abc	018e2233	slt	x4,x28,x24	 x28:0x00000000 x24:0x80009fc4  x4=0x00000000
       42975000	      4296	80005ac0	011d41b3	xor	x3,x26,x17	 x26:0x00000157 x17:0xfffff9ff  x3=0xfffff8a8
       42985000	      4297	80005ac4	00db6433	or	x8,x22,x13	 x22:0x00000005 x13:0x00000311  x8=0x00000315
       42995000	      4298	80005ac8	40c506b3	sub	x13,x10,x12	 x10:0x80000000 x12:0xfffffe39 x13=0x800001c7
       43005000	      4299	80005acc	00685cb3	srl	x25,x16,x6	 x16:0xffffffff  x6:0x3119008c x25=0x000fffff
       43015000	      4300	80005ad0	e9386a93	ori	x21,x16,-365	 x16:0xffffffff x21=0xffffffff
       43025000	      4301	80005ad4	02a30063	beq	x6,x10,80005af4	  x6:0x3119008c x10:0x80000000
       43035000	      4302	80005ad8	4133d613	srai	x12,x7,0x13	  x7:0xfffffbff x12=0xffffffff
       43045000	      4303	80005adc	fcdbbf13	sltiu	x30,x23,-51	 x23:0x00000000 x30=0x00000001
       43055000	      4304	80005ae0	384b2113	slti	x2,x22,900	 x22:0x00000005  x2=0x00000001
       43065000	      4305	80005ae4	00fa4bb3	xor	x23,x20,x15	 x20:0x8b6b3a98 x15:0x000ffff0 x23=0x8b64c568
       43075000	      4306	80005ae8	b402c8b7	lui	x17,0xb402c	 x17=0xb402c000
       43085000	      4307	80005aec	3523db97	auipc	x23,0x3523d	 x23=0xb5242ae8
       43095000	      4308	80005af0	6822e593	ori	x11,x5,1666	  x5:0x7fff64f7 x11=0x7fff66f7
       43105000	      4309	80005af4	00a5e133	or	x2,x11,x10	 x11:0x7fff66f7 x10:0x80000000  x2=0xffff66f7
       43115000	      4310	80005af8	03ccf863	bgeu	x25,x28,80005b28	 x25:0x000fffff x28:0x00000000
       43125000	      4311	00000000	00000013	addi	x0,x0,0	  x0:0x00000000
       43135000	      4312	80005b24	00000013	addi	x0,x0,0	  x0:0x00000000
       43145000	      4313	80005b28	00aafcb3	and	x25,x21,x10	 x21:0xffffffff x10:0x80000000 x25=0x80000000
       43155000	      4314	80005b2c	00707263	bgeu	x0,x7,80005b30	  x0:0x00000000  x7:0xfffffbff
       43165000	      4315	80005b30	37c52f13	slti	x30,x10,892	 x10:0x80000000 x30=0x00000001
       43175000	      4316	80005b34	02c16c63	bltu	x2,x12,80005b6c	  x2:0xffff66f7 x12:0xffffffff
       43185000	      4317	00000000	00000013	addi	x0,x0,0	  x0:0x00000000
       43195000	      4318	80005b68	00000013	addi	x0,x0,0	  x0:0x00000000
       43205000	      4319	80005b6c	0066fd33	and	x26,x13,x6	 x13:0x800001c7  x6:0x3119008c x26=0x00000084
       43215000	      4320	80005b70	5708bf93	sltiu	x31,x17,1392	 x17:0xb402c000 x31=0x00000000
       43225000	      4321	80005b74	40018233	sub	x4,x3,x0	  x3:0xfffff8a8  x0:0x00000000  x4=0xfffff8a8
       43235000	      4322	80005b78	01aece33	xor	x28,x29,x26	 x29:0xffff0c00 x26:0x00000084 x28=0xffff0c84
       43245000	      4323	80005b7c	00bbdc93	srli	x25,x23,0xb	 x23:0xb5242ae8 x25=0x0016a485
       43255000	      4324	80005b80	05a84663	blt	x16,x26,80005bcc	 x16:0xffffffff x26:0x00000084
       43265000	      4325	00000000	00000013	addi	x0,x0,0	  x0:0x00000000
       43275000	      4326	80005bc8	00000013	addi	x0,x0,0	  x0:0x00000000
       43285000	      4327	80005bcc	0165b3b3	sltu	x7,x11,x22	 x11:0x7fff66f7 x22:0x00000005  x7=0x00000000
       43295000	      4328	80005bd0	02b46c63	bltu	x8,x11,80005c08	  x8:0x00000315 x11:0x7fff66f7
       43305000	      4329	00000000	00000013	addi	x0,x0,0	  x0:0x00000000
       43315000	      4330	80005c04	00000013	addi	x0,x0,0	  x0:0x00000000
       43325000	      4331	80005c08	41b086b3	sub	x13,x1,x27	  x1:0xffff0c00 x27:0xfffffb34 x13=0xffff10cc
       43335000	      4332	80005c0c	41750433	sub	x8,x10,x23	 x10:0x80000000 x23:0xb5242ae8  x8=0xcadbd518
       43345000	      4333	80005c10	0090d5b3	srl	x11,x1,x9	  x1:0xffff0c00  x9:0x00000001 x11=0x7fff8600
       43355000	      4334	80005c14	41ee5833	sra	x16,x28,x30	 x28:0xffff0c84 x30:0x00000001 x16=0xffff8642
       43365000	      4335	80005c18	005e0c63	beq	x28,x5,80005c30	 x28:0xffff0c84  x5:0x7fff64f7
       43375000	      4336	80005c1c	bccdfd37	lui	x26,0xbccdf	 x26=0xbccdf000
       43385000	      4337	80005c20	01932d33	slt	x26,x6,x25	  x6:0x3119008c x25:0x0016a485 x26=0x00000000
       43395000	      4338	80005c24	df63a713	slti	x14,x7,-522	  x7:0x00000000 x14=0x00000000
       43405000	      4339	80005c28	e0ad9cb7	lui	x25,0xe0ad9	 x25=0xe0ad9000
       43415000	      4340	80005c2c	011c51b3	srl	x3,x24,x17	 x24:0x80009fc4 x17:0xb402c000  x3=0x80009fc4
       43425000	      4341	80005c30	43917f93	andi	x31,x2,1081	  x2:0xffff66f7 x31=0x00000431
       43435000	      4342	80005c34	004e70b3	and	x1,x28,x4	 x28:0xffff0c84  x4:0xfffff8a8  x1=0xffff0880
       43445000	      4343	80005c38	01547263	bgeu	x8,x21,80005c3c	  x8:0xcadbd518 x21:0xffffffff
       43455000	      4344	80005c3c	ee4775b7	lui	x11,0xee477	 x11=0xee477000
       43465000	      4345	80005c40	01f0d9b3	srl	x19,x1,x31	  x1:0xffff0880 x31:0x00000431 x19=0x00007fff
       43475000	      4346	80005c44	57947337	lui	x6,0x57947	  x6=0x57947000
       43485000	      4347	80005c48	88522293	slti	x5,x4,-1915	  x4:0xfffff8a8  x5=0x00000000
       43495000	      4348	80005c4c	c7b07413	andi	x8,x0,-901	  x0:0x00000000  x8=0x00000000
       43505000	      4349	80005c50	007cda13	srli	x20,x25,0x7	 x25:0xe0ad9000 x20=0x01c15b20
       43515000	      4350	80005c54	0197b7b3	sltu	x15,x15,x25	 x15:0x000ffff0 x25:0xe0ad9000 x15=0x00000001
       43525000	      4351	80005c58	41a4db33	sra	x22,x9,x26	  x9:0x00000001 x26:0x00000000 x22=0x00000001
       43535000	      4352	80005c5c	01061193	slli	x3,x12,0x10	 x12:0xffffffff  x3=0xffff0000
       43545000	      4353	80005c60	a1a86a13	ori	x20,x16,-1510	 x16:0xffff8642 x20=0xfffffe5a
       43555000	      4354	80005c64	1882ba13	sltiu	x20,x5,392	  x5:0x00000000 x20=0x00000001
       43565000	      4355	80005c68	00756b33	or	x22,x10,x7	 x10:0x80000000  x7:0x00000000 x22=0x80000000
       43575000	      4356	80005c6c	24f4f4b7	lui	x9,0x24f4f	  x9=0x24f4f000
       43585000	      4357	80005c70	007ba033	slt	x0,x23,x7	 x23:0xb5242ae8  x7:0x00000000
       43595000	      4358	80005c74	00000013	addi	x0,x0,0	  x0:0x00000000
       43605000	      4359	80005c78	bb7b8a17	auipc	x20,0xbb7b8	 x20=0x3b7bdc74
       43615000	      4360	80005c7c	00d138b3	sltu	x17,x2,x13	  x2:0xffff66f7 x13:0xffff10cc x17=0x00000000
       43625000	      4361	80005c80	41e0d133	sra	x2,x1,x30	  x1:0xffff0880 x30:0x00000001  x2=0xffff8440
       43635000	      4362	80005c84	e421a793	slti	x15,x3,-446	  x3:0xffff0000 x15=0x00000001
       43645000	      4363	80005c88	013d9293	slli	x5,x27,0x13	 x27:0xfffffb34  x5=0xd9a00000
       43655000	      4364	80005c8c	03cb5863	bge	x22,x28,80005cbc	 x22:0x80000000 x28:0xffff0c84
       43665000	      4365	80005c90	00000013	addi	x0,x0,0	  x0:0x00000000
       43675000	      4366	80005c94	94178797	auipc	x15,0x94178	 x15=0x1417dc90
       43685000	      4367	80005c98	400bdbb3	sra	x23,x23,x0	 x23:0xb5242ae8  x0:0x00000000 x23=0xb5242ae8
       43695000	      4368	80005c9c	40d38fb3	sub	x31,x7,x13	  x7:0x00000000 x13:0xffff10cc x31=0x0000ef34
       43705000	      4369	80005ca0	2c4b74b7	lui	x9,0x2c4b7	  x9=0x2c4b7000
       43715000	      4370	80005ca4	04bd5463	bge	x26,x11,80005cec	 x26:0x00000000 x11:0xee477000
       43725000	      4371	00000000	00000013	addi	x0,x0,0	  x0:0x00000000
       43735000	      4372	80005ce8	00000013	addi	x0,x0,0	  x0:0x00000000
       43745000	      4373	80005cec	ce4e6217	auipc	x4,0xce4e6	  x4=0x4e4ebce8
       43755000	      4374	80005cf0	0cdf3813	sltiu	x16,x30,205	 x30:0x00000001 x16=0x00000001
       43765000	      4375	80005cf4	03ae5663	bge	x28,x26,80005d20	 x28:0xffff0c84 x26:0x00000000
       43775000	      4376	80005cf8	00000013	addi	x0,x0,0	  x0:0x00000000
       43785000	      4377	80005cfc	0aa26213	ori	x4,x4,170	  x4:0x4e4ebce8  x4=0x4e4ebcea
       43795000	      4378	80005d00	fba5b013	sltiu	x0,x11,-70	 x11:0xee477000
       43805000	      4379	80005d04	00ed5833	srl	x16,x26,x14	 x26:0x00000000 x14:0x00000000 x16=0x00000000
       43815000	      4380	80005d08	01bb4033	xor	x0,x22,x27	 x22:0x80000000 x27:0xfffffb34
       43825000	      4381	80005d0c	01c112b3	sll	x5,x2,x28	  x2:0xffff8440 x28:0xffff0c84  x5=0xfff84400
       43835000	      4382	80005d10	67d99137	lui	x2,0x67d99	  x2=0x67d99000
       43845000	      4383	80005d14	010d9ab3	sll	x21,x27,x16	 x27:0xfffffb34 x16:0x00000000 x21=0xfffffb34
       43855000	      4384	80005d18	05116063	bltu	x2,x17,80005d58	  x2:0x67d99000 x17:0x00000000
       43865000	      4385	80005d1c	14533f93	sltiu	x31,x6,325	  x6:0x57947000 x31=0x00000000
       43875000	      4386	80005d20	01d536b3	sltu	x13,x10,x29	 x10:0x80000000 x29:0xffff0c00 x13=0x00000001
       43885000	      4387	80005d24	f0637693	andi	x13,x6,-250	  x6:0x57947000 x13=0x57947000
       43895000	      4388	80005d28	05b74463	blt	x14,x27,80005d70	 x14:0x00000000 x27:0xfffffb34
       43905000	      4389	80005d2c	0152c233	xor	x4,x5,x21	  x5:0xfff84400 x21:0xfffffb34  x4=0x0007bf34
       43915000	      4390	80005d30	cdbbfb93	andi	x23,x23,-805	 x23:0xb5242ae8 x23=0xb52428c8
       43925000	      4391	80005d34	33d83b17	auipc	x22,0x33d83	 x22=0xb3d88d30
       43935000	      4392	80005d38	00000013	addi	x0,x0,0	  x0:0x00000000
       43945000	      4393	80005d3c	410d86b3	sub	x13,x27,x16	 x27:0xfffffb34 x16:0x00000000 x13=0xfffffb34
       43955000	      4394	80005d40	4130de33	sra	x28,x1,x19	  x1:0xffff0880 x19:0x00007fff x28=0xffffffff
       43965000	      4395	80005d44	4165d693	srai	x13,x11,0x16	 x11:0xee477000 x13=0xffffffb9
       43975000	      4396	80005d48	019727b3	slt	x15,x14,x25	 x14:0x00000000 x25:0xe0ad9000 x15=0x00000000
       43985000	      4397	80005d4c	052cf063	bgeu	x25,x18,80005d8c	 x25:0xe0ad9000 x18:0x80009f74
       43995000	      4398	00000000	00000013	addi	x0,x0,0	  x0:0x00000000
       44005000	      4399	80005d88	00000013	addi	x0,x0,0	  x0:0x00000000
       44015000	      4400	80005d8c	00f3dc93	srli	x25,x7,0xf	  x7:0x00000000 x25=0x00000000
       44025000	      4401	80005d90	7b1d4813	xori	x16,x26,1969	 x26:0x00000000 x16=0x000007b1
       44035000	      4402	80005d94	25762093	slti	x1,x12,599	 x12:0xffffffff  x1=0x00000001
       44045000	      4403	80005d98	03c68063	beq	x13,x28,80005db8	 x13:0xffffffb9 x28:0xffffffff
       44055000	      4404	80005d9c	00125093	srli	x1,x4,0x1	  x4:0x0007bf34  x1=0x0003df9a
       44065000	      4405	80005da0	018dd9b3	srl	x19,x27,x24	 x27:0xfffffb34 x24:0x80009fc4 x19=0x0fffffb3
       44075000	      4406	80005da4	e2110f93	addi	x31,x2,-479	  x2:0x67d99000 x31=0x67d98e21
       44085000	      4407	80005da8	27fde393	ori	x7,x27,639	 x27:0xfffffb34  x7=0xfffffb7f
       44095000	      4408	80005dac	00261c93	slli	x25,x12,0x2	 x12:0xffffffff x25=0xfffffffc
       44105000	      4409	80005db0	03bfc063	blt	x31,x27,80005dd0	 x31:0x67d98e21 x27:0xfffffb34
       44115000	      4410	80005db4	007bca63	blt	x23,x7,80005dc8	 x23:0xb52428c8  x7:0xfffffb7f
       44125000	      4411	00000000	00000013	addi	x0,x0,0	  x0:0x00000000
       44135000	      4412	80005dc4	00000013	addi	x0,x0,0	  x0:0x00000000
       44145000	      4413	80005dc8	017cd633	srl	x12,x25,x23	 x25:0xfffffffc x23:0xb52428c8 x12=0x00ffffff
       44155000	      4414	80005dcc	859e4193	xori	x3,x28,-1959	 x28:0xffffffff  x3=0x000007a6
       44165000	      4415	80005dd0	41d70733	sub	x14,x14,x29	 x14:0x00000000 x29:0xffff0c00 x14=0x0000f400
       44175000	      4416	80005dd4	f0b69497	auipc	x9,0xf0b69	  x9=0x70b6edd0
       44185000	      4417	80005dd8	0131e863	bltu	x3,x19,80005de8	  x3:0x000007a6 x19:0x0fffffb3
       44195000	      4418	00000000	00000013	addi	x0,x0,0	  x0:0x00000000
       44205000	      4419	80005de4	00000013	addi	x0,x0,0	  x0:0x00000000
       44215000	      4420	80005de8	014eebb3	or	x23,x29,x20	 x29:0xffff0c00 x20:0x3b7bdc74 x23=0xffffdc74
       44225000	      4421	80005dec	afa682b7	lui	x5,0xafa68	  x5=0xafa68000
       44235000	      4422	80005df0	00e6e863	bltu	x13,x14,80005e00	 x13:0xffffffb9 x14:0x0000f400
       44245000	      4423	80005df4	59362213	slti	x4,x12,1427	 x12:0x00ffffff  x4=0x00000000
       44255000	      4424	80005df8	01250633	add	x12,x10,x18	 x10:0x80000000 x18:0x80009f74 x12=0x00009f74
       44265000	      4425	80005dfc	0098c333	xor	x6,x17,x9	 x17:0x00000000  x9:0x70b6edd0  x6=0x70b6edd0
       44275000	      4426	80005e00	01cf7733	and	x14,x30,x28	 x30:0x00000001 x28:0xffffffff x14=0x00000001
       44285000	      4427	80005e04	003c5cb3	srl	x25,x24,x3	 x24:0x80009fc4  x3:0x000007a6 x25=0x0200027f
       44295000	      4428	80005e08	01f9cbb3	xor	x23,x19,x31	 x19:0x0fffffb3 x31:0x67d98e21 x23=0x68267192
       44305000	      4429	80005e0c	017d38b3	sltu	x17,x26,x23	 x26:0x00000000 x23:0x68267192 x17=0x00000001
       44315000	      4430	80005e10	8f74a413	slti	x8,x9,-1801	  x9:0x70b6edd0  x8=0x00000000
       44325000	      4431	80005e14	01a69b13	slli	x22,x13,0x1a	 x13:0xffffffb9 x22=0xe4000000
       44335000	      4432	80005e18	db598e93	addi	x29,x19,-587	 x19:0x0fffffb3 x29=0x0ffffd68
       44345000	      4433	80005e1c	01585e63	bge	x16,x21,80005e38	 x16:0x000007b1 x21:0xfffffb34
       44355000	      4434	00000000	00000013	addi	x0,x0,0	  x0:0x00000000
       44365000	      4435	80005e34	00000013	addi	x0,x0,0	  x0:0x00000000
       44375000	      4436	80005e38	4080d333	sra	x6,x1,x8	  x1:0x0003df9a  x8:0x00000000  x6=0x0003df9a
       44385000	      4437	80005e3c	00841d13	slli	x26,x8,0x8	  x8:0x00000000 x26=0x00000000
       44395000	      4438	80005e40	fab68e93	addi	x29,x13,-85	 x13:0xffffffb9 x29=0xffffff64
       44405000	      4439	80005e44	002656b3	srl	x13,x12,x2	 x12:0x00009f74  x2:0x67d99000 x13=0x00009f74
       44415000	      4440	80005e48	00c11b93	slli	x23,x2,0xc	  x2:0x67d99000 x23=0x99000000
       44425000	      4441	80005e4c	01989193	slli	x3,x17,0x19	 x17:0x00000001  x3=0x02000000
       44435000	      4442	80005e50	018b1033	sll	x0,x22,x24	 x22:0xe4000000 x24:0x80009fc4
       44445000	      4443	80005e54	03737c63	bgeu	x6,x23,80005e8c	  x6:0x0003df9a x23:0x99000000
       44455000	      4444	80005e58	014dfdb3	and	x27,x27,x20	 x27:0xfffffb34 x20:0x3b7bdc74 x27=0x3b7bd834
       44465000	      4445	80005e5c	01e3ab33	slt	x22,x7,x30	  x7:0xfffffb7f x30:0x00000001 x22=0x00000001
       44475000	      4446	80005e60	839b7413	andi	x8,x22,-1991	 x22:0x00000001  x8=0x00000001
       44485000	      4447	80005e64	00405a13	srli	x20,x0,0x4	  x0:0x00000000 x20=0x00000000
       44495000	      4448	80005e68	00cb8233	add	x4,x23,x12	 x23:0x99000000 x12:0x00009f74  x4=0x99009f74
       44505000	      4449	80005e6c	03c77863	bgeu	x14,x28,80005e9c	 x14:0x00000001 x28:0xffffffff
       44515000	      4450	80005e70	05bfd663	bge	x31,x27,80005ebc	 x31:0x67d98e21 x27:0x3b7bd834
       44525000	      4451	00000000	00000013	addi	x0,x0,0	  x0:0x00000000
       44535000	      4452	80005eb8	00000013	addi	x0,x0,0	  x0:0x00000000
       44545000	      4453	80005ebc	0018ce33	xor	x28,x17,x1	 x17:0x00000001  x1:0x0003df9a x28=0x0003df9b
       44555000	      4454	80005ec0	01b95263	bge	x18,x27,80005ec4	 x18:0x80009f74 x27:0x3b7bd834
       44565000	      4455	80005ec4	006edfb3	srl	x31,x29,x6	 x29:0xffffff64  x6:0x0003df9a x31=0x0000003f
       44575000	      4456	80005ec8	01b0cb33	xor	x22,x1,x27	  x1:0x0003df9a x27:0x3b7bd834 x22=0x3b7807ae
       44585000	      4457	80005ecc	00d8df33	srl	x30,x17,x13	 x17:0x00000001 x13:0x00009f74 x30=0x00000000
       44595000	      4458	80005ed0	0182e1b3	or	x3,x5,x24	  x5:0xafa68000 x24:0x80009fc4  x3=0xafa69fc4
       44605000	      4459	80005ed4	00546263	bltu	x8,x5,80005ed8	  x8:0x00000001  x5:0xafa68000
       44615000	      4460	00000000	00000013	addi	x0,x0,0	  x0:0x00000000
       44625000	      4461	80005ed4	00000013	addi	x0,x0,0	  x0:0x00000000
       44635000	      4462	80005ed8	d083e893	ori	x17,x7,-760	  x7:0xfffffb7f x17=0xffffff7f
       44645000	      4463	80005edc	419f8133	sub	x2,x31,x25	 x31:0x0000003f x25:0x0200027f  x2=0xfdfffdc0
       44655000	      4464	80005ee0	016263b3	or	x7,x4,x22	  x4:0x99009f74 x22:0x3b7807ae  x7=0xbb789ffe
       44665000	      4465	80005ee4	03688617	auipc	x12,0x3688	 x12=0x8368dee0
       44675000	      4466	80005ee8	01c28e63	beq	x5,x28,80005f04	  x5:0xafa68000 x28:0x0003df9b
       44685000	      4467	80005eec	01d346b3	xor	x13,x6,x29	  x6:0x0003df9a x29:0xffffff64 x13=0xfffc20fe
       44695000	      4468	80005ef0	01aad213	srli	x4,x21,0x1a	 x21:0xfffffb34  x4=0x0000003f
       44705000	      4469	80005ef4	000081b3	add	x3,x1,x0	  x1:0x0003df9a  x0:0x00000000  x3=0x0003df9a
       44715000	      4470	80005ef8	003d8433	add	x8,x27,x3	 x27:0x3b7bd834  x3:0x0003df9a  x8=0x3b7fb7ce
       44725000	      4471	80005efc	00ae2db3	slt	x27,x28,x10	 x28:0x0003df9b x10:0x80000000 x27=0x00000000
       44735000	      4472	80005f00	01f41013	slli	x0,x8,0x1f	  x8:0x3b7fb7ce
       44745000	      4473	80005f04	cfc58793	addi	x15,x11,-772	 x11:0xee477000 x15=0xee476cfc
       44755000	      4474	80005f08	7759c993	xori	x19,x19,1909	 x19:0x0fffffb3 x19=0x0ffff8c6
       44765000	      4475	80005f0c	00e51493	slli	x9,x10,0xe	 x10:0x80000000  x9=0x00000000
       44775000	      4476	80005f10	01015fb3	srl	x31,x2,x16	  x2:0xfdfffdc0 x16:0x000007b1 x31=0x00007eff
       44785000	      4477	80005f14	001daab3	slt	x21,x27,x1	 x27:0x00000000  x1:0x0003df9a x21=0x00000001
       44795000	      4478	80005f18	01f166b3	or	x13,x2,x31	  x2:0xfdfffdc0 x31:0x00007eff x13=0xfdffffff
       44805000	      4479	80005f1c	775a0a93	addi	x21,x20,1909	 x20:0x00000000 x21=0x00000775
       44815000	      4480	80005f20	00b1b9b3	sltu	x19,x3,x11	  x3:0x0003df9a x11:0xee477000 x19=0x00000001
       44825000	      4481	80005f24	7bfa6d13	ori	x26,x20,1983	 x20:0x00000000 x26=0x000007bf
       44835000	      4482	80005f28	008b7e63	bgeu	x22,x8,80005f44	 x22:0x3b7807ae  x8:0x3b7fb7ce
       44845000	      4483	80005f2c	91d41c97	auipc	x25,0x91d41	 x25=0x11d46f28
       44855000	      4484	80005f30	01db1e93	slli	x29,x22,0x1d	 x22:0x3b7807ae x29=0xc0000000
       44865000	      4485	80005f34	73642093	slti	x1,x8,1846	  x8:0x3b7fb7ce  x1=0x00000000
       44875000	      4486	80005f38	01731e93	slli	x29,x6,0x17	  x6:0x0003df9a x29=0xcd000000
       44885000	      4487	80005f3c	04ed4063	blt	x26,x14,80005f7c	 x26:0x000007bf x14:0x00000001
       44895000	      4488	80005f40	e7464017	auipc	x0,0xe7464	
       44905000	      4489	80005f44	452c8ab7	lui	x21,0x452c8	 x21=0x452c8000
       44915000	      4490	80005f48	6f613493	sltiu	x9,x2,1782	  x2:0xfdfffdc0  x9=0x00000000
       44925000	      4491	80005f4c	72ddee93	ori	x29,x27,1837	 x27:0x00000000 x29=0x0000072d
       44935000	      4492	80005f50	6ca3e313	ori	x6,x7,1738	  x7:0xbb789ffe  x6=0xbb789ffe
       44945000	      4493	80005f54	013b5ab3	srl	x21,x22,x19	 x22:0x3b7807ae x19:0x00000001 x21=0x1dbc03d7
       44955000	      4494	80005f58	9890f017	auipc	x0,0x9890f	
       44965000	      4495	80005f5c	856e4093	xori	x1,x28,-1962	 x28:0x0003df9b  x1=0xfffc27cd
       44975000	      4496	80005f60	01283733	sltu	x14,x16,x18	 x16:0x000007b1 x18:0x80009f74 x14=0x00000001
       44985000	      4497	80005f64	000425b3	slt	x11,x8,x0	  x8:0x3b7fb7ce  x0:0x00000000 x11=0x00000000
       44995000	      4498	80005f68	0237cc63	blt	x15,x3,80005fa0	 x15:0xee476cfc  x3:0x0003df9a
       45005000	      4499	00000000	00000013	addi	x0,x0,0	  x0:0x00000000
       45015000	      4500	80005f9c	00000013	addi	x0,x0,0	  x0:0x00000000
       45025000	      4501	80005fa0	00000013	addi	x0,x0,0	  x0:0x00000000
       45035000	      4502	80005fa4	00f7b8b3	sltu	x17,x15,x15	 x15:0xee476cfc x15:0xee476cfc x17=0x00000000
       45045000	      4503	80005fa8	00e24e63	blt	x4,x14,80005fc4	  x4:0x0000003f x14:0x00000001
       45055000	      4504	80005fac	027ae663	bltu	x21,x7,80005fd8	 x21:0x1dbc03d7  x7:0xbb789ffe
       45065000	      4505	00000000	00000013	addi	x0,x0,0	  x0:0x00000000
       45075000	      4506	80005fd4	00000013	addi	x0,x0,0	  x0:0x00000000
       45085000	      4507	80005fd8	00000013	addi	x0,x0,0	  x0:0x00000000
       45095000	      4508	80005fdc	00000013	addi	x0,x0,0	  x0:0x00000000
       45105000	      4509	80005fe0	40bddd33	sra	x26,x27,x11	 x27:0x00000000 x11:0x00000000 x26=0x00000000
       45115000	      4510	80005fe4	00788633	add	x12,x17,x7	 x17:0x00000000  x7:0xbb789ffe x12=0xbb789ffe
       45125000	      4511	80005fe8	407c0433	sub	x8,x24,x7	 x24:0x80009fc4  x7:0xbb789ffe  x8=0xc487ffc6
       45135000	      4512	80005fec	c03e0413	addi	x8,x28,-1021	 x28:0x0003df9b  x8=0x0003db9e
       45145000	      4513	80005ff0	41a6da13	srai	x20,x13,0x1a	 x13:0xfdffffff x20=0xffffffff
       45155000	      4514	80005ff4	cbce0097	auipc	x1,0xcbce0	  x1=0x4bce5ff0
       45165000	      4515	80005ff8	01aea633	slt	x12,x29,x26	 x29:0x0000072d x26:0x00000000 x12=0x00000000
       45175000	      4516	80005ffc	02db0e63	beq	x22,x13,80006038	 x22:0x3b7807ae x13:0xfdffffff
       45185000	      4517	80006000	407b5d93	srai	x27,x22,0x7	 x22:0x3b7807ae x27=0x0076f00f
       45195000	      4518	80006004	013cd133	srl	x2,x25,x19	 x25:0x11d46f28 x19:0x00000001  x2=0x08ea3794
       45205000	      4519	80006008	40b75593	srai	x11,x14,0xb	 x14:0x00000001 x11=0x00000000
       45215000	      4520	8000600c	026b7063	bgeu	x22,x6,8000602c	 x22:0x3b7807ae  x6:0xbb789ffe
       45225000	      4521	80006010	393a2193	slti	x3,x20,915	 x20:0xffffffff  x3=0x00000001
       45235000	      4522	80006014	00121a63	bne	x4,x1,80006028	  x4:0x0000003f  x1:0x4bce5ff0
       45245000	      4523	00000000	00000013	addi	x0,x0,0	  x0:0x00000000
       45255000	      4524	80006024	00000013	addi	x0,x0,0	  x0:0x00000000
       45265000	      4525	80006028	9e9c7e13	andi	x28,x24,-1559	 x24:0x80009fc4 x28=0x800099c0
       45275000	      4526	8000602c	40258fb3	sub	x31,x11,x2	 x11:0x00000000  x2:0x08ea3794 x31=0xf715c86c
       45285000	      4527	80006030	00e0edb3	or	x27,x1,x14	  x1:0x4bce5ff0 x14:0x00000001 x27=0x4bce5ff1
       45295000	      4528	80006034	01167863	bgeu	x12,x17,80006044	 x12:0x00000000 x17:0x00000000
       45305000	      4529	00000000	00000013	addi	x0,x0,0	  x0:0x00000000
       45315000	      4530	80006040	00000013	addi	x0,x0,0	  x0:0x00000000
       45325000	      4531	80006044	01f4ed33	or	x26,x9,x31	  x9:0x00000000 x31:0xf715c86c x26=0xf715c86c
       45335000	      4532	80006048	019a4733	xor	x14,x20,x25	 x20:0xffffffff x25:0x11d46f28 x14=0xee2b90d7
       45345000	      4533	8000604c	01b2f5b3	and	x11,x5,x27	  x5:0xafa68000 x27:0x4bce5ff1 x11=0x0b860000
       45355000	      4534	80006050	5f6b4737	lui	x14,0x5f6b4	 x14=0x5f6b4000
       45365000	      4535	80006054	00000013	addi	x0,x0,0	  x0:0x00000000
       45375000	      4536	80006058	221f3113	sltiu	x2,x30,545	 x30:0x00000000  x2=0x00000001
       45385000	      4537	8000605c	0132f863	bgeu	x5,x19,8000606c	  x5:0xafa68000 x19:0x00000001
       45395000	      4538	00000000	00000013	addi	x0,x0,0	  x0:0x00000000
       45405000	      4539	80006068	00000013	addi	x0,x0,0	  x0:0x00000000
       45415000	      4540	8000606c	006c03b3	add	x7,x24,x6	 x24:0x80009fc4  x6:0xbb789ffe  x7=0x3b793fc2
       45425000	      4541	80006070	403fd493	srai	x9,x31,0x3	 x31:0xf715c86c  x9=0xfee2b90d
       45435000	      4542	80006074	036fdc63	bge	x31,x22,800060ac	 x31:0xf715c86c x22:0x3b7807ae
       45445000	      4543	80006078	483f6c93	ori	x25,x30,1155	 x30:0x00000000 x25=0x00000483
       45455000	      4544	8000607c	5dc8cc93	xori	x25,x17,1500	 x17:0x00000000 x25=0x000005dc
       45465000	      4545	80006080	e7df4593	xori	x11,x30,-387	 x30:0x00000000 x11=0xfffffe7d
       45475000	      4546	80006084	00000013	addi	x0,x0,0	  x0:0x00000000
       45485000	      4547	80006088	02464863	blt	x12,x4,800060b8	 x12:0x00000000  x4:0x0000003f
       45495000	      4548	00000000	00000013	addi	x0,x0,0	  x0:0x00000000
       45505000	      4549	800060b4	00000013	addi	x0,x0,0	  x0:0x00000000
       45515000	      4550	800060b8	c48cc393	xori	x7,x25,-952	 x25:0x000005dc  x7=0xfffff994
       45525000	      4551	800060bc	00ff7a33	and	x20,x30,x15	 x30:0x00000000 x15:0xee476cfc x20=0x00000000
       45535000	      4552	800060c0	01f92eb3	slt	x29,x18,x31	 x18:0x80009f74 x31:0xf715c86c x29=0x00000001
       45545000	      4553	800060c4	00770263	beq	x14,x7,800060c8	 x14:0x5f6b4000  x7:0xfffff994
       45555000	      4554	800060c8	000740b3	xor	x1,x14,x0	 x14:0x5f6b4000  x0:0x00000000  x1=0x5f6b4000
       45565000	      4555	800060cc	018c0ab3	add	x21,x24,x24	 x24:0x80009fc4 x24:0x80009fc4 x21=0x00013f88
       45575000	      4556	800060d0	01731113	slli	x2,x6,0x17	  x6:0xbb789ffe  x2=0xff000000
       45585000	      4557	800060d4	408d0ab3	sub	x21,x26,x8	 x26:0xf715c86c  x8:0x0003db9e x21=0xf711ecce
       45595000	      4558	800060d8	01bd9663	bne	x27,x27,800060e4	 x27:0x4bce5ff1 x27:0x4bce5ff1
       45605000	      4559	800060dc	01490133	add	x2,x18,x20	 x18:0x80009f74 x20:0x00000000  x2=0x80009f74
       45615000	      4560	800060e0	00d67a33	and	x20,x12,x13	 x12:0x00000000 x13:0xfdffffff x20=0x00000000
       45625000	      4561	800060e4	0012e5b3	or	x11,x5,x1	  x5:0xafa68000  x1:0x5f6b4000 x11=0xffefc000
       45635000	      4562	800060e8	00964eb3	xor	x29,x12,x9	 x12:0x00000000  x9:0xfee2b90d x29=0xfee2b90d
       45645000	      4563	800060ec	015e0263	beq	x28,x21,800060f0	 x28:0x800099c0 x21:0xf711ecce
       45655000	      4564	800060f0	003e6c63	bltu	x28,x3,80006108	 x28:0x800099c0  x3:0x00000001
       45665000	      4565	800060f4	01289133	sll	x2,x17,x18	 x17:0x00000000 x18:0x80009f74  x2=0x00000000
       45675000	      4566	800060f8	01e53d33	sltu	x26,x10,x30	 x10:0x80000000 x30:0x00000000 x26=0x00000000
       45685000	      4567	800060fc	043de063	bltu	x27,x3,8000613c	 x27:0x4bce5ff1  x3:0x00000001
       45695000	      4568	80006100	8c5a6a13	ori	x20,x20,-1851	 x20:0x00000000 x20=0xfffff8c5
       45705000	      4569	80006104	03206063	bltu	x0,x18,80006124	  x0:0x00000000 x18:0x80009f74
       45715000	      4570	00000000	00000013	addi	x0,x0,0	  x0:0x00000000
       45725000	      4571	80006120	00000013	addi	x0,x0,0	  x0:0x00000000
       45735000	      4572	80006124	5ebb6193	ori	x3,x22,1515	 x22:0x3b7807ae  x3=0x3b7807ef
       45745000	      4573	80006128	41f68db3	sub	x27,x13,x31	 x13:0xfdffffff x31:0xf715c86c x27=0x06ea3793
       45755000	      4574	8000612c	01409d93	slli	x27,x1,0x14	  x1:0x5f6b4000 x27=0x00000000
       45765000	      4575	80006130	00be9b13	slli	x22,x29,0xb	 x29:0xfee2b90d x22=0x15c86800
       45775000	      4576	80006134	0175f6b3	and	x13,x11,x23	 x11:0xffefc000 x23:0x99000000 x13=0x99000000
       45785000	      4577	80006138	04515263	bge	x2,x5,8000617c	  x2:0x00000000  x5:0xafa68000
       45795000	      4578	00000000	00000013	addi	x0,x0,0	  x0:0x00000000
       45805000	      4579	80006178	00000013	addi	x0,x0,0	  x0:0x00000000
       45815000	      4580	8000617c	40c88a33	sub	x20,x17,x12	 x17:0x00000000 x12:0x00000000 x20=0x00000000
       45825000	      4581	80006180	84b8c093	xori	x1,x17,-1973	 x17:0x00000000  x1=0xfffff84b
       45835000	      4582	80006184	0197bcb3	sltu	x25,x15,x25	 x15:0xee476cfc x25:0x000005dc x25=0x00000000
       45845000	      4583	80006188	58c18393	addi	x7,x3,1420	  x3:0x3b7807ef  x7=0x3b780d7b
       45855000	      4584	8000618c	a0765837	lui	x16,0xa0765	 x16=0xa0765000
       45865000	      4585	80006190	0148ccb3	xor	x25,x17,x20	 x17:0x00000000 x20:0x00000000 x25=0x00000000
       45875000	      4586	80006194	9c5a6893	ori	x17,x20,-1595	 x20:0x00000000 x17=0xfffff9c5
       45885000	      4587	80006198	201b6f13	ori	x30,x22,513	 x22:0x15c86800 x30=0x15c86a01
       45895000	      4588	8000619c	5a9dfa13	andi	x20,x27,1449	 x27:0x00000000 x20=0x00000000
       45905000	      4589	800061a0	01c96263	bltu	x18,x28,800061a4	 x18:0x80009f74 x28:0x800099c0
       45915000	      4590	800061a4	7d33c713	xori	x14,x7,2003	  x7:0x3b780d7b x14=0x3b780aa8
       45925000	      4591	800061a8	0006d433	srl	x8,x13,x0	 x13:0x99000000  x0:0x00000000  x8=0x99000000
       45935000	      4592	800061ac	88a68313	addi	x6,x13,-1910	 x13:0x99000000  x6=0x98fff88a
       45945000	      4593	800061b0	40508633	sub	x12,x1,x5	  x1:0xfffff84b  x5:0xafa68000 x12=0x5059784b
       45955000	      4594	800061b4	00eb4433	xor	x8,x22,x14	 x22:0x15c86800 x14:0x3b780aa8  x8=0x2eb062a8
       45965000	      4595	800061b8	0042d893	srli	x17,x5,0x4	  x5:0xafa68000 x17=0x0afa6800
       45975000	      4596	800061bc	a2524613	xori	x12,x4,-1499	  x4:0x0000003f x12=0xfffffa1a
       45985000	      4597	800061c0	a7ac7713	andi	x14,x24,-1414	 x24:0x80009fc4 x14=0x80009a40
       45995000	      4598	800061c4	11182a13	slti	x20,x16,273	 x16:0xa0765000 x20=0x00000001
       46005000	      4599	800061c8	286e09b7	lui	x19,0x286e0	 x19=0x286e0000
       46015000	      4600	800061cc	8b8f0093	addi	x1,x30,-1864	 x30:0x15c86a01  x1=0x15c862b9
       46025000	      4601	800061d0	01784263	blt	x16,x23,800061d4	 x16:0xa0765000 x23:0x99000000
       46035000	      4602	800061d4	dcddd697	auipc	x13,0xdcddd	 x13=0x5cde31d0
       46045000	      4603	800061d8	fcb04d93	xori	x27,x0,-53	  x0:0x00000000 x27=0xffffffcb
       46055000	      4604	800061dc	13b86993	ori	x19,x16,315	 x16:0xa0765000 x19=0xa076513b
       46065000	      4605	800061e0	b55c0893	addi	x17,x24,-1195	 x24:0x80009fc4 x17=0x80009b19
       46075000	      4606	800061e4	00000013	addi	x0,x0,0	  x0:0x00000000
       46085000	      4607	800061e8	1d4eb897	auipc	x17,0x1d4eb	 x17=0x9d4f11e4
       46095000	      4608	800061ec	acac4437	lui	x8,0xacac4	  x8=0xacac4000
       46105000	      4609	800061f0	000e78b3	and	x17,x28,x0	 x28:0x800099c0  x0:0x00000000 x17=0x00000000
       46115000	      4610	800061f4	40798233	sub	x4,x19,x7	 x19:0xa076513b  x7:0x3b780d7b  x4=0x64fe43c0
       46125000	      4611	800061f8	413f01b3	sub	x3,x30,x19	 x30:0x15c86a01 x19:0xa076513b  x3=0x755218c6
       46135000	      4612	800061fc	4be6e893	ori	x17,x13,1214	 x13:0x5cde31d0 x17=0x5cde35fe
       46145000	      4613	80006200	08affd13	andi	x26,x31,138	 x31:0xf715c86c x26=0x00000008
       46155000	      4614	80006204	01eab433	sltu	x8,x21,x30	 x21:0xf711ecce x30:0x15c86a01  x8=0x00000000
       46165000	      4615	80006208	00ad5b93	srli	x23,x26,0xa	 x26:0x00000008 x23=0x00000000
       46175000	      4616	8000620c	c75aba13	sltiu	x20,x21,-907	 x21:0xf711ecce x20=0x00000001
       46185000	      4617	80006210	f031a693	slti	x13,x3,-253	  x3:0x755218c6 x13=0x00000000
       46195000	      4618	80006214	01f94a33	xor	x20,x18,x31	 x18:0x80009f74 x31:0xf715c86c x20=0x77155718
       46205000	      4619	80006218	002709b3	add	x19,x14,x2	 x14:0x80009a40  x2:0x00000000 x19=0x80009a40
       46215000	      4620	8000621c	00d45193	srli	x3,x8,0xd	  x8:0x00000000  x3=0x00000000
       46225000	      4621	80006220	412e0333	sub	x6,x28,x18	 x28:0x800099c0 x18:0x80009f74  x6=0xfffffa4c
       46235000	      4622	80006224	005f7333	and	x6,x30,x5	 x30:0x15c86a01  x5:0xafa68000  x6=0x05800000
       46245000	      4623	80006228	ae4cfe13	andi	x28,x25,-1308	 x25:0x00000000 x28=0x00000000
       46255000	      4624	8000622c	82a01597	auipc	x11,0x82a01	 x11=0x02a07228
       46265000	      4625	80006230	0229f863	bgeu	x19,x2,80006260	 x19:0x80009a40  x2:0x00000000
       46275000	      4626	00000000	00000013	addi	x0,x0,0	  x0:0x00000000
       46285000	      4627	8000625c	00000013	addi	x0,x0,0	  x0:0x00000000
       46295000	      4628	80006260	703cf893	andi	x17,x25,1795	 x25:0x00000000 x17=0x00000000
       46305000	      4629	80006264	0138dd13	srli	x26,x17,0x13	 x17:0x00000000 x26=0x00000000
       46315000	      4630	80006268	01b8dc93	srli	x25,x17,0x1b	 x17:0x00000000 x25=0x00000000
       46325000	      4631	8000626c	01640263	beq	x8,x22,80006270	  x8:0x00000000 x22:0x15c86800
       46335000	      4632	80006270	0103a833	slt	x16,x7,x16	  x7:0x3b780d7b x16:0xa0765000 x16=0x00000000
       46345000	      4633	80006274	6f0d6713	ori	x14,x26,1776	 x26:0x00000000 x14=0x000006f0
       46355000	      4634	80006278	00000013	addi	x0,x0,0	  x0:0x00000000
       46365000	      4635	8000627c	010c69b3	or	x19,x24,x16	 x24:0x80009fc4 x16:0x00000000 x19=0x80009fc4
       46375000	      4636	80006280	00607a63	bgeu	x0,x6,80006294	  x0:0x00000000  x6:0x05800000
       46385000	      4637	80006284	025bf063	bgeu	x23,x5,800062a4	 x23:0x00000000  x5:0xafa68000
       46395000	      4638	80006288	01e98eb3	add	x29,x19,x30	 x19:0x80009fc4 x30:0x15c86a01 x29=0x95c909c5
       46405000	      4639	8000628c	000a1f33	sll	x30,x20,x0	 x20:0x77155718  x0:0x00000000 x30=0x77155718
       46415000	      4640	80006290	80510213	addi	x4,x2,-2043	  x2:0x00000000  x4=0xfffff805
       46425000	      4641	80006294	3f2f0393	addi	x7,x30,1010	 x30:0x77155718  x7=0x77155b0a
       46435000	      4642	80006298	019853b3	srl	x7,x16,x25	 x16:0x00000000 x25:0x00000000  x7=0x00000000
       46445000	      4643	8000629c	02870e63	beq	x14,x8,800062d8	 x14:0x000006f0  x8:0x00000000
       46455000	      4644	800062a0	40efd433	sra	x8,x31,x14	 x31:0xf715c86c x14:0x000006f0  x8=0xfffff715
       46465000	      4645	800062a4	40f40ab3	sub	x21,x8,x15	  x8:0xfffff715 x15:0xee476cfc x21=0x11b88a19
       46475000	      4646	800062a8	002ceb33	or	x22,x25,x2	 x25:0x00000000  x2:0x00000000 x22=0x00000000
       46485000	      4647	800062ac	0589e263	bltu	x19,x24,800062f0	 x19:0x80009fc4 x24:0x80009fc4
       46495000	      4648	800062b0	01d50263	beq	x10,x29,800062b4	 x10:0x80000000 x29:0x95c909c5
       46505000	      4649	800062b4	01c503b3	add	x7,x10,x28	 x10:0x80000000 x28:0x00000000  x7=0x80000000
       46515000	      4650	800062b8	01c00e63	beq	x0,x28,800062d4	  x0:0x00000000 x28:0x00000000
       46525000	      4651	00000000	00000013	addi	x0,x0,0	  x0:0x00000000
       46535000	      4652	800062d0	00000013	addi	x0,x0,0	  x0:0x00000000
       46545000	      4653	800062d4	41735213	srai	x4,x6,0x17	  x6:0x05800000  x4=0x0000000b
       46555000	      4654	800062d8	0133db13	srli	x22,x7,0x13	  x7:0x80000000 x22=0x00001000
       46565000	      4655	800062dc	93f67d93	andi	x27,x12,-1729	 x12:0xfffffa1a x27=0xfffff81a
       46575000	      4656	800062e0	03b0dc63	bge	x1,x27,80006318	  x1:0x15c862b9 x27:0xfffff81a
       46585000	      4657	00000000	00000013	addi	x0,x0,0	  x0:0x00000000
       46595000	      4658	80006314	00000013	addi	x0,x0,0	  x0:0x00000000
       46605000	      4659	80006318	0130db93	srli	x23,x1,0x13	  x1:0x15c862b9 x23=0x000002b9
       46615000	      4660	8000631c	83a24293	xori	x5,x4,-1990	  x4:0x0000000b  x5=0xfffff831
       46625000	      4661	80006320	008ea833	slt	x16,x29,x8	 x29:0x95c909c5  x8:0xfffff715 x16=0x00000001
       46635000	      4662	80006324	5695b013	sltiu	x0,x11,1385	 x11:0x02a07228
       46645000	      4663	80006328	012dabb3	slt	x23,x27,x18	 x27:0xfffff81a x18:0x80009f74 x23=0x00000000
       46655000	      4664	8000632c	404e54b3	sra	x9,x28,x4	 x28:0x00000000  x4:0x0000000b  x9=0x00000000
       46665000	      4665	80006330	00f02fb3	slt	x31,x0,x15	  x0:0x00000000 x15:0xee476cfc x31=0x00000000
       46675000	      4666	80006334	02c91063	bne	x18,x12,80006354	 x18:0x80009f74 x12:0xfffffa1a
       46685000	      4667	00000000	00000013	addi	x0,x0,0	  x0:0x00000000
       46695000	      4668	80006350	00000013	addi	x0,x0,0	  x0:0x00000000
       46705000	      4669	80006354	987c3713	sltiu	x14,x24,-1657	 x24:0x80009fc4 x14=0x00000001
       46715000	      4670	80006358	26023493	sltiu	x9,x4,608	  x4:0x0000000b  x9=0x00000001
       46725000	      4671	8000635c	00e99293	slli	x5,x19,0xe	 x19:0x80009fc4  x5=0x27f10000
       46735000	      4672	80006360	050c0863	beq	x24,x16,800063b0	 x24:0x80009fc4 x16:0x00000001
       46745000	      4673	80006364	b7fb8693	addi	x13,x23,-1153	 x23:0x00000000 x13=0xfffffb7f
       46755000	      4674	80006368	04bc9463	bne	x25,x11,800063b0	 x25:0x00000000 x11:0x02a07228
       46765000	      4675	00000000	00000013	addi	x0,x0,0	  x0:0x00000000
       46775000	      4676	800063ac	00000013	addi	x0,x0,0	  x0:0x00000000
       46785000	      4677	800063b0	30d52fb7	lui	x31,0x30d52	 x31=0x30d52000
       46795000	      4678	800063b4	0173fe63	bgeu	x7,x23,800063d0	  x7:0x80000000 x23:0x00000000
       46805000	      4679	00000000	00000013	addi	x0,x0,0	  x0:0x00000000
       46815000	      4680	800063cc	00000013	addi	x0,x0,0	  x0:0x00000000
       46825000	      4681	800063d0	4db03413	sltiu	x8,x0,1243	  x0:0x00000000  x8=0x00000001
       46835000	      4682	800063d4	05835463	bge	x6,x24,8000641c	  x6:0x05800000 x24:0x80009fc4
       46845000	      4683	00000000	00000013	addi	x0,x0,0	  x0:0x00000000
       46855000	      4684	80006418	00000013	addi	x0,x0,0	  x0:0x00000000
       46865000	      4685	8000641c	000f1013	slli	x0,x30,0x0	 x30:0x77155718
       46875000	      4686	80006420	0152cc63	blt	x5,x21,80006438	  x5:0x27f10000 x21:0x11b88a19
       46885000	      4687	80006424	00b0df13	srli	x30,x1,0xb	  x1:0x15c862b9 x30=0x0002b90c
       46895000	      4688	80006428	94d0a197	auipc	x3,0x94d0a	  x3=0x14d10424
       46905000	      4689	8000642c	41c55a93	srai	x21,x10,0x1c	 x10:0x80000000 x21=0xfffffff8
       46915000	      4690	80006430	2928fc93	andi	x25,x17,658	 x17:0x00000000 x25=0x00000000
       46925000	      4691	80006434	e1624793	xori	x15,x4,-490	  x4:0x0000000b x15=0xfffffe1d
       46935000	      4692	80006438	40835793	srai	x15,x6,0x8	  x6:0x05800000 x15=0x00058000
       46945000	      4693	8000643c	c6783193	sltiu	x3,x16,-921	 x16:0x00000001  x3=0x00000001
       46955000	      4694	80006440	00000013	addi	x0,x0,0	  x0:0x00000000
       46965000	      4695	80006444	013dedb3	or	x27,x27,x19	 x27:0xfffff81a x19:0x80009fc4 x27=0xffffffde
       46975000	      4696	80006448	01f372b3	and	x5,x6,x31	  x6:0x05800000 x31:0x30d52000  x5=0x00800000
       46985000	      4697	8000644c	00e2b1b3	sltu	x3,x5,x14	  x5:0x00800000 x14:0x00000001  x3=0x00000000
       46995000	      4698	80006450	235f4613	xori	x12,x30,565	 x30:0x0002b90c x12=0x0002bb39
       47005000	      4699	80006454	04a7f063	bgeu	x15,x10,80006494	 x15:0x00058000 x10:0x80000000
       47015000	      4700	80006458	8cacb313	sltiu	x6,x25,-1846	 x25:0x00000000  x6=0x00000001
       47025000	      4701	8000645c	cc74ec93	ori	x25,x9,-825	  x9:0x00000001 x25=0xfffffcc7
       47035000	      4702	80006460	007bde13	srli	x28,x23,0x7	 x23:0x00000000 x28=0x00000000
       47045000	      4703	80006464	00f91663	bne	x18,x15,80006470	 x18:0x80009f74 x15:0x00058000
       47055000	      4704	00000000	00000013	addi	x0,x0,0	  x0:0x00000000
       47065000	      4705	8000646c	00000013	addi	x0,x0,0	  x0:0x00000000
       47075000	      4706	80006470	0503c463	blt	x7,x16,800064b8	  x7:0x80000000 x16:0x00000001
       47085000	      4707	00000000	00000013	addi	x0,x0,0	  x0:0x00000000
       47095000	      4708	800064b4	00000013	addi	x0,x0,0	  x0:0x00000000
       47105000	      4709	800064b8	00c5e033	or	x0,x11,x12	 x11:0x02a07228 x12:0x0002bb39
       47115000	      4710	800064bc	fc4b8e93	addi	x29,x23,-60	 x23:0x00000000 x29=0xffffffc4
       47125000	      4711	800064c0	dd22bf13	sltiu	x30,x5,-558	  x5:0x00800000 x30=0x00000001
       47135000	      4712	800064c4	00f4d813	srli	x16,x9,0xf	  x9:0x00000001 x16=0x00000000
       47145000	      4713	800064c8	0118b7b3	sltu	x15,x17,x17	 x17:0x00000000 x17:0x00000000 x15=0x00000000
       47155000	      4714	800064cc	00e48863	beq	x9,x14,800064dc	  x9:0x00000001 x14:0x00000001
       47165000	      4715	00000000	00000013	addi	x0,x0,0	  x0:0x00000000
       47175000	      4716	800064d8	00000013	addi	x0,x0,0	  x0:0x00000000
       47185000	      4717	800064dc	0089c4b3	xor	x9,x19,x8	 x19:0x80009fc4  x8:0x00000001  x9=0x80009fc5
       47195000	      4718	800064e0	01180ab3	add	x21,x16,x17	 x16:0x00000000 x17:0x00000000 x21=0x00000000
       47205000	      4719	800064e4	bf394893	xori	x17,x18,-1037	 x18:0x80009f74 x17=0x7fff6487
       47215000	      4720	800064e8	01555d33	srl	x26,x10,x21	 x10:0x80000000 x21:0x00000000 x26=0x80000000
       47225000	      4721	800064ec	4091d033	sra	x0,x3,x9	  x3:0x00000000  x9:0x80009fc5
       47235000	      4722	800064f0	04931063	bne	x6,x9,80006530	  x6:0x00000001  x9:0x80009fc5
       47245000	      4723	00000000	00000013	addi	x0,x0,0	  x0:0x00000000
       47255000	      4724	8000652c	00000013	addi	x0,x0,0	  x0:0x00000000
       47265000	      4725	80006530	00016263	bltu	x2,x0,80006534	  x2:0x00000000  x0:0x00000000
       47275000	      4726	80006534	db558613	addi	x12,x11,-587	 x11:0x02a07228 x12=0x02a06fdd
       47285000	      4727	80006538	010cce63	blt	x25,x16,80006554	 x25:0xfffffcc7 x16:0x00000000
       47295000	      4728	00000000	00000013	addi	x0,x0,0	  x0:0x00000000
       47305000	      4729	80006550	00000013	addi	x0,x0,0	  x0:0x00000000
       47315000	      4730	80006554	00d01e63	bne	x0,x13,80006570	  x0:0x00000000 x13:0xfffffb7f
       47325000	      4731	00000000	00000013	addi	x0,x0,0	  x0:0x00000000
       47335000	      4732	8000656c	00000013	addi	x0,x0,0	  x0:0x00000000
       47345000	      4733	80006570	419f0db3	sub	x27,x30,x25	 x30:0x00000001 x25:0xfffffcc7 x27=0x0000033a
       47355000	      4734	80006574	044ff063	bgeu	x31,x4,800065b4	 x31:0x30d52000  x4:0x0000000b
       47365000	      4735	00000000	00000013	addi	x0,x0,0	  x0:0x00000000
       47375000	      4736	800065b0	00000013	addi	x0,x0,0	  x0:0x00000000
       47385000	      4737	800065b4	04306463	bltu	x0,x3,800065fc	  x0:0x00000000  x3:0x00000000
       47395000	      4738	800065b8	360ea993	slti	x19,x29,864	 x29:0xffffffc4 x19=0x00000001
       47405000	      4739	800065bc	00d773b3	and	x7,x14,x13	 x14:0x00000001 x13:0xfffffb7f  x7=0x00000001
       47415000	      4740	800065c0	4da3c213	xori	x4,x7,1242	  x7:0x00000001  x4=0x000004db
       47425000	      4741	800065c4	03308663	beq	x1,x19,800065f0	  x1:0x15c862b9 x19:0x00000001
       47435000	      4742	800065c8	009b5393	srli	x7,x22,0x9	 x22:0x00001000  x7=0x00000008
       47445000	      4743	800065cc	01eb42b3	xor	x5,x22,x30	 x22:0x00001000 x30:0x00000001  x5=0x00001001
       47455000	      4744	800065d0	417359b3	sra	x19,x6,x23	  x6:0x00000001 x23:0x00000000 x19=0x00000001
       47465000	      4745	800065d4	01b2b033	sltu	x0,x5,x27	  x5:0x00001001 x27:0x0000033a
       47475000	      4746	800065d8	013b0d33	add	x26,x22,x19	 x22:0x00001000 x19:0x00000001 x26=0x00001001
       47485000	      4747	800065dc	013185b3	add	x11,x3,x19	  x3:0x00000000 x19:0x00000001 x11=0x00000001
       47495000	      4748	800065e0	01df6cb3	or	x25,x30,x29	 x30:0x00000001 x29:0xffffffc4 x25=0xffffffc5
       47505000	      4749	800065e4	0218fc63	bgeu	x17,x1,8000661c	 x17:0x7fff6487  x1:0x15c862b9
       47515000	      4750	00000000	00000013	addi	x0,x0,0	  x0:0x00000000
       47525000	      4751	80006618	00000013	addi	x0,x0,0	  x0:0x00000000
       47535000	      4752	8000661c	012b9633	sll	x12,x23,x18	 x23:0x00000000 x18:0x80009f74 x12=0x00000000
       47545000	      4753	80006620	cc1ca593	slti	x11,x25,-831	 x25:0xffffffc5 x11=0x00000000
       47555000	      4754	80006624	00e79c63	bne	x15,x14,8000663c	 x15:0x00000000 x14:0x00000001
       47565000	      4755	00000000	00000013	addi	x0,x0,0	  x0:0x00000000
       47575000	      4756	80006638	00000013	addi	x0,x0,0	  x0:0x00000000
       47585000	      4757	8000663c	00000013	addi	x0,x0,0	  x0:0x00000000
       47595000	      4758	80006640	a6bfb193	sltiu	x3,x31,-1429	 x31:0x30d52000  x3=0x00000001
       47605000	      4759	80006644	006d7263	bgeu	x26,x6,80006648	 x26:0x00001001  x6:0x00000001
       47615000	      4760	00000000	00000013	addi	x0,x0,0	  x0:0x00000000
       47625000	      4761	80006644	00000013	addi	x0,x0,0	  x0:0x00000000
       47635000	      4762	80006648	403a5b93	srai	x23,x20,0x3	 x20:0x77155718 x23=0x0ee2aae3
       47645000	      4763	8000664c	3d8e4693	xori	x13,x28,984	 x28:0x00000000 x13=0x000003d8
       47655000	      4764	80006650	35ce7113	andi	x2,x28,860	 x28:0x00000000  x2=0x00000000
       47665000	      4765	80006654	00000013	addi	x0,x0,0	  x0:0x00000000
       47675000	      4766	80006658	1a506793	ori	x15,x0,421	  x0:0x00000000 x15=0x000001a5
       47685000	      4767	8000665c	00565e33	srl	x28,x12,x5	 x12:0x00000000  x5:0x00001001 x28=0x00000000
       47695000	      4768	80006660	989fe013	ori	x0,x31,-1655	 x31:0x30d52000
       47705000	      4769	80006664	00d29a13	slli	x20,x5,0xd	  x5:0x00001001 x20=0x02002000
       47715000	      4770	80006668	00d17633	and	x12,x2,x13	  x2:0x00000000 x13:0x000003d8 x12=0x00000000
       47725000	      4771	8000666c	02224e63	blt	x4,x2,800066a8	  x4:0x000004db  x2:0x00000000
       47735000	      4772	80006670	0115d313	srli	x6,x11,0x11	 x11:0x00000000  x6=0x00000000
       47745000	      4773	80006674	00000013	addi	x0,x0,0	  x0:0x00000000
       47755000	      4774	80006678	40a55d13	srai	x26,x10,0xa	 x10:0x80000000 x26=0xffe00000
       47765000	      4775	8000667c	00e41863	bne	x8,x14,8000668c	  x8:0x00000001 x14:0x00000001
       47775000	      4776	80006680	40b2d393	srai	x7,x5,0xb	  x5:0x00001001  x7=0x00000002
       47785000	      4777	80006684	0b656013	ori	x0,x10,182	 x10:0x80000000
       47795000	      4778	80006688	d2106193	ori	x3,x0,-735	  x0:0x00000000  x3=0xfffffd21
       47805000	      4779	8000668c	01841493	slli	x9,x8,0x18	  x8:0x00000001  x9=0x01000000
       47815000	      4780	80006690	e03e3893	sltiu	x17,x28,-509	 x28:0x00000000 x17=0x00000001
       47825000	      4781	80006694	00000013	addi	x0,x0,0	  x0:0x00000000
       47835000	      4782	80006698	318e3037	lui	x0,0x318e3	
       47845000	      4783	8000669c	dd6139b7	lui	x19,0xdd613	 x19=0xdd613000
       47855000	      4784	800066a0	464f6b97	auipc	x23,0x464f6	 x23=0xc64fc69c
       47865000	      4785	800066a4	02c74b93	xori	x23,x14,44	 x14:0x00000001 x23=0x0000002d
       47875000	      4786	800066a8	4159dc93	srai	x25,x19,0x15	 x19:0xdd613000 x25=0xfffffeeb
       47885000	      4787	800066ac	01009e63	bne	x1,x16,800066c8	  x1:0x15c862b9 x16:0x00000000
       47895000	      4788	00000000	00000013	addi	x0,x0,0	  x0:0x00000000
       47905000	      4789	800066c4	00000013	addi	x0,x0,0	  x0:0x00000000
       47915000	      4790	800066c8	0f73fd13	andi	x26,x7,247	  x7:0x00000002 x26=0x00000002
       47925000	      4791	800066cc	5ae8e197	auipc	x3,0x5ae8e	  x3=0xdae946c8
       47935000	      4792	800066d0	41340a33	sub	x20,x8,x19	  x8:0x00000001 x19:0xdd613000 x20=0x229ed001
       47945000	      4793	800066d4	02801c63	bne	x0,x8,8000670c	  x0:0x00000000  x8:0x00000001
       47955000	      4794	00000000	00000013	addi	x0,x0,0	  x0:0x00000000
       47965000	      4795	80006708	00000013	addi	x0,x0,0	  x0:0x00000000
       47975000	      4796	8000670c	252dbb13	sltiu	x22,x27,594	 x27:0x0000033a x22=0x00000000
       47985000	      4797	80006710	00521413	slli	x8,x4,0x5	  x4:0x000004db  x8=0x00009b60
       47995000	      4798	80006714	004b6cb3	or	x25,x22,x4	 x22:0x00000000  x4:0x000004db x25=0x000004db
       48005000	      4799	80006718	05bd1663	bne	x26,x27,80006764	 x26:0x00000002 x27:0x0000033a
       48015000	      4800	00000000	00000013	addi	x0,x0,0	  x0:0x00000000
       48025000	      4801	80006760	00000013	addi	x0,x0,0	  x0:0x00000000
       48035000	      4802	80006764	00cd7633	and	x12,x26,x12	 x26:0x00000002 x12:0x00000000 x12=0x00000000
       48045000	      4803	80006768	18dcfd97	auipc	x27,0x18dcf	 x27=0x98dd5764
       48055000	      4804	8000676c	d3096617	auipc	x12,0xd3096	 x12=0x5309c768
       48065000	      4805	80006770	00ab5e63	bge	x22,x10,8000678c	 x22:0x00000000 x10:0x80000000
       48075000	      4806	00000000	00000013	addi	x0,x0,0	  x0:0x00000000
       48085000	      4807	80006788	00000013	addi	x0,x0,0	  x0:0x00000000
       48095000	      4808	8000678c	339b2193	slti	x3,x22,825	 x22:0x00000000  x3=0x00000001
       48105000	      4809	80006790	409389b3	sub	x19,x7,x9	  x7:0x00000002  x9:0x01000000 x19=0xff000002
       48115000	      4810	80006794	03d05063	bge	x0,x29,800067b4	  x0:0x00000000 x29:0xffffffc4
       48125000	      4811	00000000	00000013	addi	x0,x0,0	  x0:0x00000000
       48135000	      4812	800067b0	00000013	addi	x0,x0,0	  x0:0x00000000
       48145000	      4813	800067b4	00209a33	sll	x20,x1,x2	  x1:0x15c862b9  x2:0x00000000 x20=0x15c862b9
       48155000	      4814	800067b8	01e69613	slli	x12,x13,0x1e	 x13:0x000003d8 x12=0x00000000
       48165000	      4815	800067bc	0576f063	bgeu	x13,x23,800067fc	 x13:0x000003d8 x23:0x0000002d
       48175000	      4816	00000000	00000013	addi	x0,x0,0	  x0:0x00000000
       48185000	      4817	800067f8	00000013	addi	x0,x0,0	  x0:0x00000000
       48195000	      4818	800067fc	41b95d33	sra	x26,x18,x27	 x18:0x80009f74 x27:0x98dd5764 x26=0xf80009f7
       48205000	      4819	80006800	01b831b3	sltu	x3,x16,x27	 x16:0x00000000 x27:0x98dd5764  x3=0x00000001
       48215000	      4820	80006804	0124a7b3	slt	x15,x9,x18	  x9:0x01000000 x18:0x80009f74 x15=0x00000000
       48225000	      4821	80006808	40590333	sub	x6,x18,x5	 x18:0x80009f74  x5:0x00001001  x6=0x80008f73
       48235000	      4822	8000680c	001bb833	sltu	x16,x23,x1	 x23:0x0000002d  x1:0x15c862b9 x16=0x00000001
       48245000	      4823	80006810	02cb5863	bge	x22,x12,80006840	 x22:0x00000000 x12:0x00000000
       48255000	      4824	00000000	00000013	addi	x0,x0,0	  x0:0x00000000
       48265000	      4825	8000683c	00000013	addi	x0,x0,0	  x0:0x00000000
       48275000	      4826	80006840	012f0a63	beq	x30,x18,80006854	 x30:0x00000001 x18:0x80009f74
       48285000	      4827	80006844	40090433	sub	x8,x18,x0	 x18:0x80009f74  x0:0x00000000  x8=0x80009f74
       48295000	      4828	80006848	ac3b7f13	andi	x30,x22,-1341	 x22:0x00000000 x30=0x00000000
       48305000	      4829	8000684c	0039eb33	or	x22,x19,x3	 x19:0xff000002  x3:0x00000001 x22=0xff000003
       48315000	      4830	80006850	01486eb3	or	x29,x16,x20	 x16:0x00000001 x20:0x15c862b9 x29=0x15c862b9
       48325000	      4831	80006854	00ae3d33	sltu	x26,x28,x10	 x28:0x00000000 x10:0x80000000 x26=0x00000001
       48335000	      4832	80006858	0030af13	slti	x30,x1,3	  x1:0x15c862b9 x30=0x00000000
       48345000	      4833	8000685c	721d7313	andi	x6,x26,1825	 x26:0x00000001  x6=0x00000001
       48355000	      4834	80006860	403e0b33	sub	x22,x28,x3	 x28:0x00000000  x3:0x00000001 x22=0xffffffff
       48365000	      4835	80006864	00000013	addi	x0,x0,0	  x0:0x00000000
       48375000	      4836	80006868	01688263	beq	x17,x22,8000686c	 x17:0x00000001 x22:0xffffffff
       48385000	      4837	8000686c	01b45393	srli	x7,x8,0x1b	  x8:0x80009f74  x7=0x00000010
       48395000	      4838	80006870	04e37063	bgeu	x6,x14,800068b0	  x6:0x00000001 x14:0x00000001
       48405000	      4839	00000000	00000013	addi	x0,x0,0	  x0:0x00000000
       48415000	      4840	800068ac	00000013	addi	x0,x0,0	  x0:0x00000000
       48425000	      4841	800068b0	00000013	addi	x0,x0,0	  x0:0x00000000
       48435000	      4842	800068b4	418fda13	srai	x20,x31,0x18	 x31:0x30d52000 x20=0x00000030
       48445000	      4843	800068b8	00286863	bltu	x16,x2,800068c8	 x16:0x00000001  x2:0x00000000
       48455000	      4844	800068bc	0f50bc93	sltiu	x25,x1,245	  x1:0x15c862b9 x25=0x00000000
       48465000	      4845	800068c0	00fdddb3	srl	x27,x27,x15	 x27:0x98dd5764 x15:0x00000000 x27=0x98dd5764
       48475000	      4846	800068c4	02c2d063	bge	x5,x12,800068e4	  x5:0x00001001 x12:0x00000000
       48485000	      4847	00000000	00000013	addi	x0,x0,0	  x0:0x00000000
       48495000	      4848	800068e0	00000013	addi	x0,x0,0	  x0:0x00000000
       48505000	      4849	800068e4	ec346313	ori	x6,x8,-317	  x8:0x80009f74  x6=0xfffffff7
       48515000	      4850	800068e8	00b44c63	blt	x8,x11,80006900	  x8:0x80009f74 x11:0x00000000
       48525000	      4851	00000000	00000013	addi	x0,x0,0	  x0:0x00000000
       48535000	      4852	800068fc	00000013	addi	x0,x0,0	  x0:0x00000000
       48545000	      4853	80006900	c5667113	andi	x2,x12,-938	 x12:0x00000000  x2=0x00000000
       48555000	      4854	80006904	007abdb3	sltu	x27,x21,x7	 x21:0x00000000  x7:0x00000010 x27=0x00000001
       48565000	      4855	80006908	0532d463	bge	x5,x19,80006950	  x5:0x00001001 x19:0xff000002
       48575000	      4856	00000000	00000013	addi	x0,x0,0	  x0:0x00000000
       48585000	      4857	8000694c	00000013	addi	x0,x0,0	  x0:0x00000000
       48595000	      4858	80006950	01614263	blt	x2,x22,80006954	  x2:0x00000000 x22:0xffffffff
       48605000	      4859	80006954	2ad48193	addi	x3,x9,685	  x9:0x01000000  x3=0x010002ad
       48615000	      4860	80006958	00941313	slli	x6,x8,0x9	  x8:0x80009f74  x6=0x013ee800
       48625000	      4861	8000695c	04844863	blt	x8,x8,800069ac	  x8:0x80009f74  x8:0x80009f74
       48635000	      4862	80006960	5822b113	sltiu	x2,x5,1410	  x5:0x00001001  x2=0x00000000
       48645000	      4863	80006964	00000013	addi	x0,x0,0	  x0:0x00000000
       48655000	      4864	80006968	e1c4e393	ori	x7,x9,-484	  x9:0x01000000  x7=0xfffffe1c
       48665000	      4865	8000696c	00596263	bltu	x18,x5,80006970	 x18:0x80009f74  x5:0x00001001
       48675000	      4866	80006970	a534d3b7	lui	x7,0xa534d	  x7=0xa534d000
       48685000	      4867	80006974	00000013	addi	x0,x0,0	  x0:0x00000000
       48695000	      4868	80006978	007383b3	add	x7,x7,x7	  x7:0xa534d000  x7:0xa534d000  x7=0x4a69a000
       48705000	      4869	8000697c	f6c3e9b7	lui	x19,0xf6c3e	 x19=0xf6c3e000
       48715000	      4870	80006980	010f09b3	add	x19,x30,x16	 x30:0x00000000 x16:0x00000001 x19=0x00000001
       48725000	      4871	80006984	00fe43b3	xor	x7,x28,x15	 x28:0x00000000 x15:0x00000000  x7=0x00000000
       48735000	      4872	80006988	3f5e7e93	andi	x29,x28,1013	 x28:0x00000000 x29=0x00000000
       48745000	      4873	8000698c	007cf8b3	and	x17,x25,x7	 x25:0x00000000  x7:0x00000000 x17=0x00000000
       48755000	      4874	80006990	7fab4b93	xori	x23,x22,2042	 x22:0xffffffff x23=0xfffff805
       48765000	      4875	80006994	2674a313	slti	x6,x9,615	  x9:0x01000000  x6=0x00000000
       48775000	      4876	80006998	05574263	blt	x14,x21,800069dc	 x14:0x00000001 x21:0x00000000
       48785000	      4877	8000699c	01260a33	add	x20,x12,x18	 x12:0x00000000 x18:0x80009f74 x20=0x80009f74
       48795000	      4878	800069a0	049b5063	bge	x22,x9,800069e0	 x22:0xffffffff  x9:0x01000000
       48805000	      4879	800069a4	01d61a63	bne	x12,x29,800069b8	 x12:0x00000000 x29:0x00000000
       48815000	      4880	800069a8	414582b3	sub	x5,x11,x20	 x11:0x00000000 x20:0x80009f74  x5=0x7fff608c
       48825000	      4881	800069ac	00a27033	and	x0,x4,x10	  x4:0x000004db x10:0x80000000
       48835000	      4882	800069b0	a179fa97	auipc	x21,0xa179f	 x21=0x217a59ac
       48845000	      4883	800069b4	00956eb3	or	x29,x10,x9	 x10:0x80000000  x9:0x01000000 x29=0x81000000
       48855000	      4884	800069b8	4193d713	srai	x14,x7,0x19	  x7:0x00000000 x14=0x00000000
       48865000	      4885	800069bc	05545463	bge	x8,x21,80006a04	  x8:0x80009f74 x21:0x217a59ac
       48875000	      4886	800069c0	01319a33	sll	x20,x3,x19	  x3:0x010002ad x19:0x00000001 x20=0x0200055a
       48885000	      4887	800069c4	a973b593	sltiu	x11,x7,-1385	  x7:0x00000000 x11=0x00000001
       48895000	      4888	800069c8	41a9df13	srai	x30,x19,0x1a	 x19:0x00000001 x30=0x00000000
       48905000	      4889	800069cc	f0ad3693	sltiu	x13,x26,-246	 x26:0x00000001 x13=0x00000001
       48915000	      4890	800069d0	015becb3	or	x25,x23,x21	 x23:0xfffff805 x21:0x217a59ac x25=0xfffff9ad
       48925000	      4891	800069d4	01f3cc63	blt	x7,x31,800069ec	  x7:0x00000000 x31:0x30d52000
       48935000	      4892	00000000	00000013	addi	x0,x0,0	  x0:0x00000000
       48945000	      4893	800069e8	00000013	addi	x0,x0,0	  x0:0x00000000
       48955000	      4894	800069ec	00f70863	beq	x14,x15,800069fc	 x14:0x00000000 x15:0x00000000
       48965000	      4895	00000000	00000013	addi	x0,x0,0	  x0:0x00000000
       48975000	      4896	800069f8	00000013	addi	x0,x0,0	  x0:0x00000000
       48985000	      4897	800069fc	01c251b3	srl	x3,x4,x28	  x4:0x000004db x28:0x00000000  x3=0x000004db
       48995000	      4898	80006a00	01bba0b3	slt	x1,x23,x27	 x23:0xfffff805 x27:0x00000001  x1=0x00000001
       49005000	      4899	80006a04	e2ba3197	auipc	x3,0xe2ba3	  x3=0x62ba9a00
       49015000	      4900	80006a08	b01a8313	addi	x6,x21,-1279	 x21:0x217a59ac  x6=0x217a54ad
       49025000	      4901	80006a0c	0366e063	bltu	x13,x22,80006a2c	 x13:0x00000001 x22:0xffffffff
       49035000	      4902	00000000	00000013	addi	x0,x0,0	  x0:0x00000000
       49045000	      4903	80006a28	00000013	addi	x0,x0,0	  x0:0x00000000
       49055000	      4904	80006a2c	69097e93	andi	x29,x18,1680	 x18:0x80009f74 x29=0x00000610
       49065000	      4905	80006a30	beb13f13	sltiu	x30,x2,-1045	  x2:0x00000000 x30=0x00000001
       49075000	      4906	80006a34	007ad233	srl	x4,x21,x7	 x21:0x217a59ac  x7:0x00000000  x4=0x217a59ac
       49085000	      4907	80006a38	bd146393	ori	x7,x8,-1071	  x8:0x80009f74  x7=0xfffffff5
       49095000	      4908	80006a3c	03751c63	bne	x10,x23,80006a74	 x10:0x80000000 x23:0xfffff805
       49105000	      4909	00000000	00000013	addi	x0,x0,0	  x0:0x00000000
       49115000	      4910	80006a70	00000013	addi	x0,x0,0	  x0:0x00000000
       49125000	      4911	80006a74	74374717	auipc	x14,0x74374	 x14=0xf437aa70
       49135000	      4912	80006a78	00e80263	beq	x16,x14,80006a7c	 x16:0x00000001 x14:0xf437aa70
       49145000	      4913	80006a7c	00cb8bb3	add	x23,x23,x12	 x23:0xfffff805 x12:0x00000000 x23=0xfffff805
       49155000	      4914	80006a80	00669e93	slli	x29,x13,0x6	 x13:0x00000001 x29=0x00000040
       49165000	      4915	80006a84	006d0cb3	add	x25,x26,x6	 x26:0x00000001  x6:0x217a54ad x25=0x217a54ae
       49175000	      4916	80006a88	2c200293	addi	x5,x0,706	  x0:0x00000000  x5=0x000002c2
       49185000	      4917	80006a8c	00219bb3	sll	x23,x3,x2	  x3:0x62ba9a00  x2:0x00000000 x23=0x62ba9a00
       49195000	      4918	80006a90	40d35c93	srai	x25,x6,0xd	  x6:0x217a54ad x25=0x00010bd2
       49205000	      4919	80006a94	01b71233	sll	x4,x14,x27	 x14:0xf437aa70 x27:0x00000001  x4=0xe86f54e0
       49215000	      4920	80006a98	034e1063	bne	x28,x20,80006ab8	 x28:0x00000000 x20:0x0200055a
       49225000	      4921	00000000	00000013	addi	x0,x0,0	  x0:0x00000000
       49235000	      4922	80006ab4	00000013	addi	x0,x0,0	  x0:0x00000000
       49245000	      4923	80006ab8	02e1dc63	bge	x3,x14,80006af0	  x3:0x62ba9a00 x14:0xf437aa70
       49255000	      4924	00000000	00000013	addi	x0,x0,0	  x0:0x00000000
       49265000	      4925	80006aec	00000013	addi	x0,x0,0	  x0:0x00000000
       49275000	      4926	80006af0	950cb713	sltiu	x14,x25,-1712	 x25:0x00010bd2 x14=0x00000001
       49285000	      4927	80006af4	0379d063	bge	x19,x23,80006b14	 x19:0x00000001 x23:0x62ba9a00
       49295000	      4928	80006af8	00fd63b3	or	x7,x26,x15	 x26:0x00000001 x15:0x00000000  x7=0x00000001
       49305000	      4929	80006afc	411f5333	sra	x6,x30,x17	 x30:0x00000001 x17:0x00000000  x6=0x00000001
       49315000	      4930	80006b00	01235e93	srli	x29,x6,0x12	  x6:0x00000001 x29=0x00000000
       49325000	      4931	80006b04	016f5333	srl	x6,x30,x22	 x30:0x00000001 x22:0xffffffff  x6=0x00000000
       49335000	      4932	80006b08	01a17263	bgeu	x2,x26,80006b0c	  x2:0x00000000 x26:0x00000001
       49345000	      4933	80006b0c	0459f263	bgeu	x19,x5,80006b50	 x19:0x00000001  x5:0x000002c2
       49355000	      4934	80006b10	05db9063	bne	x23,x29,80006b50	 x23:0x62ba9a00 x29:0x00000000
       49365000	      4935	00000000	00000013	addi	x0,x0,0	  x0:0x00000000
       49375000	      4936	80006b4c	00000013	addi	x0,x0,0	  x0:0x00000000
       49385000	      4937	80006b50	f11bfa13	andi	x20,x23,-239	 x23:0x62ba9a00 x20=0x62ba9a00
       49395000	      4938	80006b54	02585e63	bge	x16,x5,80006b90	 x16:0x00000001  x5:0x000002c2
       49405000	      4939	80006b58	01f82fb3	slt	x31,x16,x31	 x16:0x00000001 x31:0x30d52000 x31=0x00000001
       49415000	      4940	80006b5c	b5ed0013	addi	x0,x26,-1186	 x26:0x00000001
       49425000	      4941	80006b60	40445ab3	sra	x21,x8,x4	  x8:0x80009f74  x4:0xe86f54e0 x21=0x80009f74
       49435000	      4942	80006b64	0024f863	bgeu	x9,x2,80006b74	  x9:0x01000000  x2:0x00000000
       49445000	      4943	00000000	00000013	addi	x0,x0,0	  x0:0x00000000
       49455000	      4944	80006b70	00000013	addi	x0,x0,0	  x0:0x00000000
       49465000	      4945	80006b74	00f15eb3	srl	x29,x2,x15	  x2:0x00000000 x15:0x00000000 x29=0x00000000
       49475000	      4946	80006b78	8de5f113	andi	x2,x11,-1826	 x11:0x00000001  x2=0x00000000
       49485000	      4947	80006b7c	0077b833	sltu	x16,x15,x7	 x15:0x00000000  x7:0x00000001 x16=0x00000001
       49495000	      4948	80006b80	009b5733	srl	x14,x22,x9	 x22:0xffffffff  x9:0x01000000 x14=0xffffffff
       49505000	      4949	80006b84	00d6d733	srl	x14,x13,x13	 x13:0x00000001 x13:0x00000001 x14=0x00000000
       49515000	      4950	80006b88	0052e463	bltu	x5,x5,80006b90	  x5:0x000002c2  x5:0x000002c2
       49525000	      4951	80006b8c	00a35693	srli	x13,x6,0xa	  x6:0x00000000 x13=0x00000000
       49535000	      4952	80006b90	011f4ab3	xor	x21,x30,x17	 x30:0x00000001 x17:0x00000000 x21=0x00000001
       49545000	      4953	80006b94	00492683	lw	x13,4(x18)	 x18:0x80009f74 x13=0x800002d4 PA:0x80009f78
       49555000	      4954	80006b98	00fda433	slt	x8,x27,x15	 x27:0x00000001 x15:0x00000000  x8=0x00000000
       49565000	      4955	80006b9c	6029ed13	ori	x26,x19,1538	 x19:0x00000001 x26=0x00000603
       49575000	      4956	80006ba0	00de5b13	srli	x22,x28,0xd	 x28:0x00000000 x22=0x00000000
       49585000	      4957	80006ba4	bc797d17	auipc	x26,0xbc797	 x26=0x3c79dba0
       49595000	      4958	80006ba8	408ed833	sra	x16,x29,x8	 x29:0x00000000  x8:0x00000000 x16=0x00000000
       49605000	      4959	80006bac	01090913	addi	x18,x18,16	 x18:0x80009f74 x18=0x80009f84
       49615000	      4960	80006bb0	00000013	addi	x0,x0,0	  x0:0x00000000
       49625000	      4961	80006bb4	01f06033	or	x0,x0,x31	  x0:0x00000000 x31:0x00000001
       49635000	      4962	80006bb8	00168093	addi	x1,x13,1	 x13:0x800002d4  x1=0x800002d5
       49645000	      4963	80006bbc	000080e7	jalr	x1,x1,0	  x1:0x800002d5  x1=0x80006bbc
       49655000	      4964	00000000	00000013	addi	x0,x0,0	  x0:0x00000000
       49665000	      4965	800002d4	00000013	addi	x0,x0,0	  x0:0x00000000
       49675000	      4966	800002d8	239a0993	addi	x19,x20,569	 x20:0x62ba9a00 x19=0x62ba9c39
       49685000	      4967	800002dc	0135c263	blt	x11,x19,800002e0	 x11:0x00000001 x19:0x62ba9c39
       49695000	      4968	00000000	00000013	addi	x0,x0,0	  x0:0x00000000
       49705000	      4969	800002dc	00000013	addi	x0,x0,0	  x0:0x00000000
       49715000	      4970	800002e0	01ddd2b3	srl	x5,x27,x29	 x27:0x00000001 x29:0x00000000  x5=0x00000001
       49725000	      4971	800002e4	00000517	auipc	x10,0x0	 x10=0x800002e0
       49735000	      4972	800002e8	00c50513	addi	x10,x10,12	 x10:0x800002e0 x10=0x800002ec
       49745000	      4973	800002ec	00050067	jalr	x0,x10,0	 x10:0x800002ec
       49755000	      4974	00000000	00000013	addi	x0,x0,0	  x0:0x00000000
       49765000	      4975	800002ec	00000013	addi	x0,x0,0	  x0:0x00000000
       49775000	      4976	800002f0	00100193	addi	x3,x0,1	  x0:0x00000000  x3=0x00000001
       49785000	      4977	800002f4	00000073	ecall	
       49795000	      4978	800002f8	38bcf593	andi	x11,x25,907	 x25:0x00010bd2 x11=0x00000382
