		Time			Cycle	PC		Insn	Decoded instruction	Register and memory contents
          65000	         5	80000004	00000293	addi	x5,x0,0	  x0:0x00000000  x5=0x00000000
          75000	         6	80000008	00000313	addi	x6,x0,0	  x0:0x00000000  x6=0x00000000
          85000	         7	8000000c	00628263	beq	x5,x6,80000010	  x5:0x00000000  x6:0x00000000
          95000	         8	00000000	00000013	addi	x0,x0,0	  x0:0x00000000
         105000	         9	8000000c	00000013	addi	x0,x0,0	  x0:0x00000000
         115000	        10	80000010	00000d17	auipc	x26,0x0	 x26=0x8000000c
         125000	        11	80000014	00cd0d13	addi	x26,x26,12	 x26:0x8000000c x26=0x80000018
         135000	        12	80000018	000d0067	jalr	x0,x26,0	 x26:0x80000018
         145000	        13	00000000	00000013	addi	x0,x0,0	  x0:0x00000000
         155000	        14	80000018	00000013	addi	x0,x0,0	  x0:0x00000000
         165000	        15	8000001c	40000937	lui	x18,0x40000	 x18=0x40000000
         175000	        16	80000020	10090913	addi	x18,x18,256	 x18:0x40000000 x18=0x40000100
         185000	        17	80000024	00000013	addi	x0,x0,0	  x0:0x00000000
         195000	        18	80000028	0000a817	auipc	x16,0xa	 x16=0x8000a024
         205000	        19	8000002c	fa080813	addi	x16,x16,-96	 x16:0x8000a024 x16=0x80009fc4
         215000	        20	80000030	00007917	auipc	x18,0x7	 x18=0x8000702c
         225000	        21	80000034	42490913	addi	x18,x18,1060	 x18:0x8000702c x18=0x80007450
         235000	        22	80000038	00196913	ori	x18,x18,1	 x18:0x80007450 x18=0x80007451
         245000	        23	8000003c	00000013	addi	x0,x0,0	  x0:0x00000000
         255000	        24	80000040	00000917	auipc	x18,0x0	 x18=0x8000003c
         265000	        25	80000044	02090913	addi	x18,x18,32	 x18:0x8000003c x18=0x8000005c
         275000	        26	80000048	00000013	addi	x0,x0,0	  x0:0x00000000
         285000	        27	8000004c	00000013	addi	x0,x0,0	  x0:0x00000000
         295000	        28	80000050	00002937	lui	x18,0x2	 x18=0x00002000
         305000	        29	80000054	80090913	addi	x18,x18,-2048	 x18:0x00002000 x18=0x00001800
         315000	        30	80000058	00000013	addi	x0,x0,0	  x0:0x00000000
         325000	        31	8000005c	00000013	addi	x0,x0,0	  x0:0x00000000
         335000	        32	80000060	00000013	addi	x0,x0,0	  x0:0x00000000
         345000	        33	80000064	f60810b7	lui	x1,0xf6081	  x1=0xf6081000
         355000	        34	80000068	c7c08093	addi	x1,x1,-900	  x1:0xf6081000  x1=0xf6080c7c
         365000	        35	8000006c	00d00113	addi	x2,x0,13	  x0:0x00000000  x2=0x0000000d
         375000	        36	80000070	f18671b7	lui	x3,0xf1867	  x3=0xf1867000
         385000	        37	80000074	aff18193	addi	x3,x3,-1281	  x3:0xf1867000  x3=0xf1866aff
         395000	        38	80000078	00e00213	addi	x4,x0,14	  x0:0x00000000  x4=0x0000000e
         405000	        39	8000007c	800002b7	lui	x5,0x80000	  x5=0x80000000
         415000	        40	80000080	6f07e337	lui	x6,0x6f07e	  x6=0x6f07e000
         425000	        41	80000084	00a30313	addi	x6,x6,10	  x6:0x6f07e000  x6=0x6f07e00a
         435000	        42	80000088	91d7d3b7	lui	x7,0x91d7d	  x7=0x91d7d000
         445000	        43	8000008c	1a938393	addi	x7,x7,425	  x7:0x91d7d000  x7=0x91d7d1a9
         455000	        44	80000090	80000437	lui	x8,0x80000	  x8=0x80000000
         465000	        45	80000094	cade34b7	lui	x9,0xcade3	  x9=0xcade3000
         475000	        46	80000098	1fe48493	addi	x9,x9,510	  x9:0xcade3000  x9=0xcade31fe
         485000	        47	8000009c	97b26537	lui	x10,0x97b26	 x10=0x97b26000
         495000	        48	800000a0	bf850513	addi	x10,x10,-1032	 x10:0x97b26000 x10=0x97b25bf8
         505000	        49	800000a4	4a56e5b7	lui	x11,0x4a56e	 x11=0x4a56e000
         515000	        50	800000a8	45a58593	addi	x11,x11,1114	 x11:0x4a56e000 x11=0x4a56e45a
         525000	        51	800000ac	80000637	lui	x12,0x80000	 x12=0x80000000
         535000	        52	800000b0	00a00693	addi	x13,x0,10	  x0:0x00000000 x13=0x0000000a
         545000	        53	800000b4	80000737	lui	x14,0x80000	 x14=0x80000000
         555000	        54	800000b8	00000793	addi	x15,x0,0	  x0:0x00000000 x15=0x00000000
         565000	        55	800000bc	800008b7	lui	x17,0x80000	 x17=0x80000000
         575000	        56	800000c0	f6cf7937	lui	x18,0xf6cf7	 x18=0xf6cf7000
         585000	        57	800000c4	14190913	addi	x18,x18,321	 x18:0xf6cf7000 x18=0xf6cf7141
         595000	        58	800000c8	800009b7	lui	x19,0x80000	 x19=0x80000000
         605000	        59	800000cc	80000a37	lui	x20,0x80000	 x20=0x80000000
         615000	        60	800000d0	80000ab7	lui	x21,0x80000	 x21=0x80000000
         625000	        61	800000d4	2ea49b37	lui	x22,0x2ea49	 x22=0x2ea49000
         635000	        62	800000d8	4ccb0b13	addi	x22,x22,1228	 x22:0x2ea49000 x22=0x2ea494cc
         645000	        63	800000dc	00000b93	addi	x23,x0,0	  x0:0x00000000 x23=0x00000000
         655000	        64	800000e0	ce65cc37	lui	x24,0xce65c	 x24=0xce65c000
         665000	        65	800000e4	2cfc0c13	addi	x24,x24,719	 x24:0xce65c000 x24=0xce65c2cf
         675000	        66	800000e8	9de24cb7	lui	x25,0x9de24	 x25=0x9de24000
         685000	        67	800000ec	685c8c93	addi	x25,x25,1669	 x25:0x9de24000 x25=0x9de24685
         695000	        68	800000f0	80000d37	lui	x26,0x80000	 x26=0x80000000
         705000	        69	800000f4	80000db7	lui	x27,0x80000	 x27=0x80000000
         715000	        70	800000f8	80000eb7	lui	x29,0x80000	 x29=0x80000000
         725000	        71	800000fc	80000f37	lui	x30,0x80000	 x30=0x80000000
         735000	        72	80000100	caf8bfb7	lui	x31,0xcaf8b	 x31=0xcaf8b000
         745000	        73	80000104	ab0f8f93	addi	x31,x31,-1360	 x31:0xcaf8b000 x31=0xcaf8aab0
         755000	        74	80000108	0000ae17	auipc	x28,0xa	 x28=0x8000a104
         765000	        75	8000010c	e80e0e13	addi	x28,x28,-384	 x28:0x8000a104 x28=0x80009f84
         775000	        76	80000110	00009e97	auipc	x29,0x9	 x29=0x8000910c
         785000	        77	80000114	dd3e8e93	addi	x29,x29,-557	 x29:0x8000910c x29=0x80008edf
         795000	        78	80000118	012931b3	sltu	x3,x18,x18	 x18:0xf6cf7141 x18:0xf6cf7141  x3=0x00000000
         805000	        79	8000011c	00010bb3	add	x23,x2,x0	  x2:0x0000000d  x0:0x00000000 x23=0x0000000d
         815000	        80	80000120	ffde9503	lh	x10,-3(x29)	 x29:0x80008edf x10=0x0000632a PA:0x80008edc
         825000	        81	80000124	012e8423	sb	x18,8(x29)	 x29:0x80008edf x18:0xf6cf7141 PA:0x80008ee7
         835000	        82	80000128	ff5ec883	lbu	x17,-11(x29)	 x29:0x80008edf x17=0x00000056 PA:0x80008ed4
         845000	        83	8000012c	ff8ec683	lbu	x13,-8(x29)	 x29:0x80008edf x13=0x00000075 PA:0x80008ed7
         855000	        84	80000130	00874ab3	xor	x21,x14,x8	 x14:0x80000000  x8:0x80000000 x21=0x00000000
         865000	        85	80000134	014e91a3	sh	x20,3(x29)	 x29:0x80008edf x20:0x80000000 PA:0x80008ee2
         875000	        86	80000138	008ec403	lbu	x8,8(x29)	 x29:0x80008edf  x8=0x00000041 PA:0x80008ee7
         885000	        87	8000013c	419ad313	srai	x6,x21,0x19	 x21:0x00000000  x6=0x00000000
         895000	        88	80000140	00ce8023	sb	x12,0(x29)	 x29:0x80008edf x12:0x80000000 PA:0x80008edf
         905000	        89	80000144	004e5c33	srl	x24,x28,x4	 x28:0x80009f84  x4:0x0000000e x24=0x00020002
         915000	        90	80000148	01dca4b3	slt	x9,x25,x29	 x25:0x9de24685 x29:0x80008edf  x9=0x00000000
         925000	        91	8000014c	ff6e8a83	lb	x21,-10(x29)	 x29:0x80008edf x21=0x00000065 PA:0x80008ed5
         935000	        92	80000150	a49a64b7	lui	x9,0xa49a6	  x9=0xa49a6000
         945000	        93	80000154	382e0313	addi	x6,x28,898	 x28:0x80009f84  x6=0x8000a306
         955000	        94	80000158	ffde8983	lb	x19,-3(x29)	 x29:0x80008edf x19=0x0000002a PA:0x80008edc
         965000	        95	8000015c	000e8723	sb	x0,14(x29)	 x29:0x80008edf  x0:0x00000000 PA:0x80008eed
         975000	        96	80000160	306ff993	andi	x19,x31,774	 x31:0xcaf8aab0 x19=0x00000200
         985000	        97	80000164	00c8a9b3	slt	x19,x17,x12	 x17:0x00000056 x12:0x80000000 x19=0x00000000
         995000	        98	80000168	abebcc93	xori	x25,x23,-1346	 x23:0x0000000d x25=0xfffffab3
        1005000	        99	8000016c	010e8123	sb	x16,2(x29)	 x29:0x80008edf x16:0x80009fc4 PA:0x80008ee1
        1015000	       100	80000170	0156c233	xor	x4,x13,x21	 x13:0x00000075 x21:0x00000065  x4=0x00000010
        1025000	       101	80000174	00cecb83	lbu	x23,12(x29)	 x29:0x80008edf x23=0x0000003b PA:0x80008eeb
        1035000	       102	80000178	00be9683	lh	x13,11(x29)	 x29:0x80008edf x13=0x00003b8d PA:0x80008eea
        1045000	       103	8000017c	ff9ea003	lw	x0,-7(x29)	 x29:0x80008edf PA:0x80008ed8
        1055000	       104	80000180	00d35533	srl	x10,x6,x13	  x6:0x8000a306 x13:0x00003b8d x10=0x00040005
        1065000	       105	80000184	01dd0db3	add	x27,x26,x29	 x26:0x80000000 x29:0x80008edf x27=0x00008edf
        1075000	       106	80000188	d8ba3b93	sltiu	x23,x20,-629	 x20:0x80000000 x23=0x00000001
        1085000	       107	8000018c	9da70d93	addi	x27,x14,-1574	 x14:0x80000000 x27=0x7ffff9da
        1095000	       108	80000190	f769f993	andi	x19,x19,-138	 x19:0x00000000 x19=0x00000000
        1105000	       109	80000194	2fd73b93	sltiu	x23,x14,765	 x14:0x80000000 x23=0x00000000
        1115000	       110	80000198	40f5bb97	auipc	x23,0x40f5b	 x23=0xc0f5b194
        1125000	       111	8000019c	01c633b3	sltu	x7,x12,x28	 x12:0x80000000 x28:0x80009f84  x7=0x00000001
        1135000	       112	800001a0	ff0ec503	lbu	x10,-16(x29)	 x29:0x80008edf x10=0x00000003 PA:0x80008ecf
        1145000	       113	800001a4	016759b3	srl	x19,x14,x22	 x14:0x80000000 x22:0x2ea494cc x19=0x00080000
        1155000	       114	800001a8	015e8123	sb	x21,2(x29)	 x29:0x80008edf x21:0x00000065 PA:0x80008ee1
        1165000	       115	800001ac	00000013	addi	x0,x0,0	  x0:0x00000000
        1175000	       116	800001b0	00494433	xor	x8,x18,x4	 x18:0xf6cf7141  x4:0x00000010  x8=0xf6cf7151
        1185000	       117	800001b4	aa831117	auipc	x2,0xaa831	  x2=0x2a8311b0
        1195000	       118	800001b8	4062dc93	srai	x25,x5,0x6	  x5:0x80000000 x25=0xfe000000
        1205000	       119	800001bc	002cf2b3	and	x5,x25,x2	 x25:0xfe000000  x2:0x2a8311b0  x5=0x2a000000
        1215000	       120	800001c0	bd186513	ori	x10,x16,-1071	 x16:0x80009fc4 x10=0xffffffd5
        1225000	       121	800001c4	40598db3	sub	x27,x19,x5	 x19:0x00080000  x5:0x2a000000 x27=0xd6080000
        1235000	       122	800001c8	ff5ec683	lbu	x13,-11(x29)	 x29:0x80008edf x13=0x00000056 PA:0x80008ed4
        1245000	       123	800001cc	00008117	auipc	x2,0x8	  x2=0x800081c8
        1255000	       124	800001d0	66010113	addi	x2,x2,1632	  x2:0x800081c8  x2=0x80008828
        1265000	       125	800001d4	d28c2cb7	lui	x25,0xd28c2	 x25=0xd28c2000
        1275000	       126	800001d8	017fa733	slt	x14,x31,x23	 x31:0xcaf8aab0 x23:0xc0f5b194 x14=0x00000000
        1285000	       127	800001dc	00ffe533	or	x10,x31,x15	 x31:0xcaf8aab0 x15:0x00000000 x10=0xcaf8aab0
        1295000	       128	800001e0	01531233	sll	x4,x6,x21	  x6:0x8000a306 x21:0x00000065  x4=0x001460c0
        1305000	       129	800001e4	12c5f493	andi	x9,x11,300	 x11:0x4a56e45a  x9=0x00000008
        1315000	       130	800001e8	00000013	addi	x0,x0,0	  x0:0x00000000
        1325000	       131	800001ec	0a815303	lhu	x6,168(x2)	  x2:0x80008828  x6=0x000040da PA:0x800088d0
        1335000	       132	800001f0	4103da33	sra	x20,x7,x16	  x7:0x00000001 x16:0x80009fc4 x20=0x00000000
        1345000	       133	800001f4	07b10003	lb	x0,123(x2)	  x2:0x80008828 PA:0x800088a3
        1355000	       134	800001f8	01184233	xor	x4,x16,x17	 x16:0x80009fc4 x17:0x00000056  x4=0x80009f92
        1365000	       135	800001fc	01a10b03	lb	x22,26(x2)	  x2:0x80008828 x22=0x0000004f PA:0x80008842
        1375000	       136	80000200	40d40fb3	sub	x31,x8,x13	  x8:0xf6cf7151 x13:0x00000056 x31=0xf6cf70fb
        1385000	       137	80000204	0fc15d83	lhu	x27,252(x2)	  x2:0x80008828 x27=0x00003afc PA:0x80008924
        1395000	       138	80000208	b978af93	slti	x31,x17,-1129	 x17:0x00000056 x31=0x00000000
        1405000	       139	8000020c	08e15183	lhu	x3,142(x2)	  x2:0x80008828  x3=0x00001754 PA:0x800088b6
        1415000	       140	80000210	0f914703	lbu	x14,249(x2)	  x2:0x80008828 x14=0x00000059 PA:0x80008921
        1425000	       141	80000214	0dc12483	lw	x9,220(x2)	  x2:0x80008828  x9=0x29c5bd40 PA:0x80008904
        1435000	       142	80000218	e7844213	xori	x4,x8,-392	  x8:0xf6cf7151  x4=0x09308f29
        1445000	       143	8000021c	01acd233	srl	x4,x25,x26	 x25:0xd28c2000 x26:0x80000000  x4=0xd28c2000
        1455000	       144	80000220	01224db3	xor	x27,x4,x18	  x4:0xd28c2000 x18:0xf6cf7141 x27=0x24435141
        1465000	       145	80000224	0f414b83	lbu	x23,244(x2)	  x2:0x80008828 x23=0x00000084 PA:0x8000891c
        1475000	       146	80000228	007b4fb3	xor	x31,x22,x7	 x22:0x0000004f  x7:0x00000001 x31=0x0000004e
        1485000	       147	8000022c	40498b33	sub	x22,x19,x4	 x19:0x00080000  x4:0xd28c2000 x22=0x2d7be000
        1495000	       148	80000230	b5716013	ori	x0,x2,-1193	  x2:0x80008828
        1505000	       149	80000234	61e20893	addi	x17,x4,1566	  x4:0xd28c2000 x17=0xd28c261e
        1515000	       150	80000238	0a5102a3	sb	x5,165(x2)	  x2:0x80008828  x5:0x2a000000 PA:0x800088cd
        1525000	       151	8000023c	0bc100a3	sb	x28,161(x2)	  x2:0x80008828 x28:0x80009f84 PA:0x800088c9
        1535000	       152	80000240	01c09393	slli	x7,x1,0x1c	  x1:0xf6080c7c  x7=0xc0000000
        1545000	       153	80000244	0bb14303	lbu	x6,187(x2)	  x2:0x80008828  x6=0x000000c7 PA:0x800088e3
        1555000	       154	80000248	05d14383	lbu	x7,93(x2)	  x2:0x80008828  x7=0x000000f5 PA:0x80008885
        1565000	       155	8000024c	ffe10b23	sb	x30,-10(x2)	  x2:0x80008828 x30:0x80000000 PA:0x8000881e
        1575000	       156	80000250	01fa5733	srl	x14,x20,x31	 x20:0x00000000 x31:0x0000004e x14=0x00000000
        1585000	       157	80000254	40195a93	srai	x21,x18,0x1	 x18:0xf6cf7141 x21=0xfb67b8a0
        1595000	       158	80000258	4027eb93	ori	x23,x15,1026	 x15:0x00000000 x23=0x00000402
        1605000	       159	8000025c	03d100a3	sb	x29,33(x2)	  x2:0x80008828 x29:0x80008edf PA:0x80008849
        1615000	       160	80000260	0f6108a3	sb	x22,241(x2)	  x2:0x80008828 x22:0x2d7be000 PA:0x80008919
        1625000	       161	80000264	00008117	auipc	x2,0x8	  x2=0x80008260
        1635000	       162	80000268	0fe10113	addi	x2,x2,254	  x2:0x80008260  x2=0x8000835e
        1645000	       163	8000026c	00941033	sll	x0,x8,x9	  x8:0xf6cf7151  x9:0x29c5bd40
        1655000	       164	80000270	f9310083	lb	x1,-109(x2)	  x2:0x8000835e  x1=0x0000003c PA:0x800082f1
        1665000	       165	80000274	935b4893	xori	x17,x22,-1739	 x22:0x2d7be000 x17=0xd2841935
        1675000	       166	80000278	004cf033	and	x0,x25,x4	 x25:0xd28c2000  x4:0xd28c2000
        1685000	       167	8000027c	003acb33	xor	x22,x21,x3	 x21:0xfb67b8a0  x3:0x00001754 x22=0xfb67aff4
        1695000	       168	80000280	00d053b3	srl	x7,x0,x13	  x0:0x00000000 x13:0x00000056  x7=0x00000000
        1705000	       169	80000284	08710a23	sb	x7,148(x2)	  x2:0x8000835e  x7:0x00000000 PA:0x800083f2
        1715000	       170	80000288	f3910583	lb	x11,-199(x2)	  x2:0x8000835e x11=0xfffffff5 PA:0x80008297
        1725000	       171	8000028c	03811b23	sh	x24,54(x2)	  x2:0x8000835e x24:0x00020002 PA:0x80008394
        1735000	       172	80000290	02e11403	lh	x8,46(x2)	  x2:0x8000835e  x8=0x00000d48 PA:0x8000838c
        1745000	       173	80000294	1b0b8713	addi	x14,x23,432	 x23:0x00000402 x14=0x000005b2
        1755000	       174	80000298	00001913	slli	x18,x0,0x0	  x0:0x00000000 x18=0x00000000
        1765000	       175	8000029c	f7611883	lh	x17,-138(x2)	  x2:0x8000835e x17=0x000079c4 PA:0x800082d4
        1775000	       176	800002a0	f0d10fa3	sb	x13,-225(x2)	  x2:0x8000835e x13:0x00000056 PA:0x8000827d
        1785000	       177	800002a4	ff710883	lb	x17,-9(x2)	  x2:0x8000835e x17=0xffffff92 PA:0x80008355
        1795000	       178	800002a8	fc12a313	slti	x6,x5,-63	  x5:0x2a000000  x6=0x00000000
        1805000	       179	800002ac	09a10ea3	sb	x26,157(x2)	  x2:0x8000835e x26:0x80000000 PA:0x800083fb
        1815000	       180	800002b0	09914583	lbu	x11,153(x2)	  x2:0x8000835e x11=0x00000006 PA:0x800083f7
        1825000	       181	00000000	00000013	addi	x0,x0,0	  x0:0x00000000
        1835000	       182	800002b4	0135d633	srl	x12,x11,x19	 x11:0x00000006 x19:0x00080000 x12=0x00000006
        1845000	       183	800002b8	00d10ca3	sb	x13,25(x2)	  x2:0x8000835e x13:0x00000056 PA:0x80008377
        1855000	       184	800002bc	01511a23	sh	x21,20(x2)	  x2:0x8000835e x21:0xfb67b8a0 PA:0x80008372
        1865000	       185	800002c0	a2a1f413	andi	x8,x3,-1494	  x3:0x00001754  x8=0x00001200
        1875000	       186	800002c4	41775613	srai	x12,x14,0x17	 x14:0x000005b2 x12=0x00000000
        1885000	       187	800002c8	fdb14683	lbu	x13,-37(x2)	  x2:0x8000835e x13=0x0000000e PA:0x80008339
        1895000	       188	00000000	00000013	addi	x0,x0,0	  x0:0x00000000
        1905000	       189	800002cc	0cd11323	sh	x13,198(x2)	  x2:0x8000835e x13:0x0000000e PA:0x80008424
        1915000	       190	800002d0	005c75b3	and	x11,x24,x5	 x24:0x00020002  x5:0x2a000000 x11=0x00000000
        1925000	       191	800002d4	01414b03	lbu	x22,20(x2)	  x2:0x8000835e x22=0x000000a0 PA:0x80008372
        1935000	       192	800002d8	40095fb3	sra	x31,x18,x0	 x18:0x00000000  x0:0x00000000 x31=0x00000000
        1945000	       193	800002dc	ff910683	lb	x13,-7(x2)	  x2:0x8000835e x13=0x00000029 PA:0x80008357
        1955000	       194	800002e0	ed6ceb97	auipc	x23,0xed6ce	 x23=0x6d6ce2dc
        1965000	       195	800002e4	0f310023	sb	x19,224(x2)	  x2:0x8000835e x19:0x00080000 PA:0x8000843e
        1975000	       196	800002e8	01d81b33	sll	x22,x16,x29	 x16:0x80009fc4 x29:0x80008edf x22=0x00000000
        1985000	       197	800002ec	05410723	sb	x20,78(x2)	  x2:0x8000835e x20:0x00000000 PA:0x800083ac
        1995000	       198	800002f0	01445913	srli	x18,x8,0x14	  x8:0x00001200 x18=0x00000000
        2005000	       199	800002f4	41588b33	sub	x22,x17,x21	 x17:0xffffff92 x21:0xfb67b8a0 x22=0x049846f2
        2015000	       200	800002f8	00981c13	slli	x24,x16,0x9	 x16:0x80009fc4 x24=0x013f8800
        2025000	       201	800002fc	f1811783	lh	x15,-232(x2)	  x2:0x8000835e x15=0x00003937 PA:0x80008276
        2035000	       202	80000300	00008117	auipc	x2,0x8	  x2=0x800082fc
        2045000	       203	80000304	1d010113	addi	x2,x2,464	  x2:0x800082fc  x2=0x800084cc
        2055000	       204	80000308	000105a3	sb	x0,11(x2)	  x2:0x800084cc  x0:0x00000000 PA:0x800084d7
        2065000	       205	8000030c	01012023	sw	x16,0(x2)	  x2:0x800084cc x16:0x80009fc4 PA:0x800084cc
        2075000	       206	80000310	ff014203	lbu	x4,-16(x2)	  x2:0x800084cc  x4=0x000000b4 PA:0x800084bc
        2085000	       207	80000314	00710883	lb	x17,7(x2)	  x2:0x800084cc x17=0x00000062 PA:0x800084d3
        2095000	       208	80000318	fff14983	lbu	x19,-1(x2)	  x2:0x800084cc x19=0x000000d6 PA:0x800084cb
        2105000	       209	8000031c	12e8b393	sltiu	x7,x17,302	 x17:0x00000062  x7=0x00000001
        2115000	       210	80000320	00559fb3	sll	x31,x11,x5	 x11:0x00000000  x5:0x2a000000 x31=0x00000000
        2125000	       211	80000324	bbc90593	addi	x11,x18,-1092	 x18:0x00000000 x11=0xfffffbbc
        2135000	       212	80000328	00e10003	lb	x0,14(x2)	  x2:0x800084cc PA:0x800084da
        2145000	       213	8000032c	003b9fb3	sll	x31,x23,x3	 x23:0x6d6ce2dc  x3:0x00001754 x31=0x2dc00000
        2155000	       214	80000330	149a6493	ori	x9,x20,329	 x20:0x00000000  x9=0x00000149
        2165000	       215	80000334	7a7d3b13	sltiu	x22,x26,1959	 x26:0x80000000 x22=0x00000000
        2175000	       216	80000338	ff110f83	lb	x31,-15(x2)	  x2:0x800084cc x31=0xffffffda PA:0x800084bd
        2185000	       217	8000033c	fe811f23	sh	x8,-2(x2)	  x2:0x800084cc  x8:0x00001200 PA:0x800084ca
        2195000	       218	80000340	00314b03	lbu	x22,3(x2)	  x2:0x800084cc x22=0x00000080 PA:0x800084cf
        2205000	       219	80000344	00810a83	lb	x21,8(x2)	  x2:0x800084cc x21=0xffffffba PA:0x800084d4
        2215000	       220	80000348	411f8db3	sub	x27,x31,x17	 x31:0xffffffda x17:0x00000062 x27=0xffffff78
        2225000	       221	8000034c	00610a03	lb	x20,6(x2)	  x2:0x800084cc x20=0x00000017 PA:0x800084d2
        2235000	       222	80000350	00c11983	lh	x19,12(x2)	  x2:0x800084cc x19=0xffff8f70 PA:0x800084d8
        2245000	       223	80000354	00015b83	lhu	x23,0(x2)	  x2:0x800084cc x23=0x00009fc4 PA:0x800084cc
        2255000	       224	80000358	008107a3	sb	x8,15(x2)	  x2:0x800084cc  x8:0x00001200 PA:0x800084db
        2265000	       225	8000035c	ff2109a3	sb	x18,-13(x2)	  x2:0x800084cc x18:0x00000000 PA:0x800084bf
        2275000	       226	80000360	fff10283	lb	x5,-1(x2)	  x2:0x800084cc  x5=0x00000012 PA:0x800084cb
        2285000	       227	80000364	ff215b03	lhu	x22,-14(x2)	  x2:0x800084cc x22=0x000000f1 PA:0x800084be
        2295000	       228	80000368	00f42333	slt	x6,x8,x15	  x8:0x00001200 x15:0x00003937  x6=0x00000001
        2305000	       229	8000036c	fe011d23	sh	x0,-6(x2)	  x2:0x800084cc  x0:0x00000000 PA:0x800084c6
        2315000	       230	80000370	fe510ba3	sb	x5,-9(x2)	  x2:0x800084cc  x5:0x00000012 PA:0x800084c3
        2325000	       231	80000374	01f12223	sw	x31,4(x2)	  x2:0x800084cc x31:0xffffffda PA:0x800084d0
        2335000	       232	80000378	00010b83	lb	x23,0(x2)	  x2:0x800084cc x23=0xffffffc4 PA:0x800084cc
        2345000	       233	8000037c	236cc893	xori	x17,x25,566	 x25:0xd28c2000 x17=0xd28c2236
        2355000	       234	80000380	fe0108a3	sb	x0,-15(x2)	  x2:0x800084cc  x0:0x00000000 PA:0x800084bd
        2365000	       235	80000384	40ae8233	sub	x4,x29,x10	 x29:0x80008edf x10:0xcaf8aab0  x4=0xb507e42f
        2375000	       236	80000388	00914003	lbu	x0,9(x2)	  x2:0x800084cc PA:0x800084d5
        2385000	       237	8000038c	00b100a3	sb	x11,1(x2)	  x2:0x800084cc x11:0xfffffbbc PA:0x800084cd
        2395000	       238	80000390	fed10aa3	sb	x13,-11(x2)	  x2:0x800084cc x13:0x00000029 PA:0x800084c1
        2405000	       239	80000394	00b61c13	slli	x24,x12,0xb	 x12:0x00000000 x24=0x00000000
        2415000	       240	80000398	00b3b633	sltu	x12,x7,x11	  x7:0x00000001 x11:0xfffffbbc x12=0x00000001
        2425000	       241	8000039c	ff314883	lbu	x17,-13(x2)	  x2:0x800084cc x17=0x00000000 PA:0x800084bf
        2435000	       242	800003a0	00815d83	lhu	x27,8(x2)	  x2:0x800084cc x27=0x00008bba PA:0x800084d4
        2445000	       243	800003a4	00008b97	auipc	x23,0x8	 x23=0x800083a0
        2455000	       244	800003a8	45ab8b93	addi	x23,x23,1114	 x23:0x800083a0 x23=0x800087fa
        2465000	       245	800003ac	415bda33	sra	x20,x23,x21	 x23:0x800087fa x21:0xffffffba x20=0xffffffe0
        2475000	       246	800003b0	00cb9003	lh	x0,12(x23)	 x23:0x800087fa PA:0x80008806
        2485000	       247	800003b4	f58baf23	sw	x24,-162(x23)	 x23:0x800087fa x24:0x00000000 PA:0x80008758
        2495000	       248	800003b8	f5ab9c23	sh	x26,-168(x23)	 x23:0x800087fa x26:0x80000000 PA:0x80008752
        2505000	       249	800003bc	00000013	addi	x0,x0,0	  x0:0x00000000
        2515000	       250	800003c0	4190d7b3	sra	x15,x1,x25	  x1:0x0000003c x25:0xd28c2000 x15=0x0000003c
        2525000	       251	800003c4	ffbb8883	lb	x17,-5(x23)	 x23:0x800087fa x17=0xffffff88 PA:0x800087f5
        2535000	       252	800003c8	00b2e6b3	or	x13,x5,x11	  x5:0x00000012 x11:0xfffffbbc x13=0xfffffbbe
        2545000	       253	800003cc	fd7bc303	lbu	x6,-41(x23)	 x23:0x800087fa  x6=0x00000004 PA:0x800087d1
        2555000	       254	800003d0	fc7bc703	lbu	x14,-57(x23)	 x23:0x800087fa x14=0x00000034 PA:0x800087c1
        2565000	       255	800003d4	4bcb7693	andi	x13,x22,1212	 x22:0x000000f1 x13=0x000000b0
        2575000	       256	800003d8	fabb8d83	lb	x27,-85(x23)	 x23:0x800087fa x27=0xfffffff2 PA:0x800087a5
        2585000	       257	800003dc	008b9223	sh	x8,4(x23)	 x23:0x800087fa  x8:0x00001200 PA:0x800087fe
        2595000	       258	800003e0	e4f8f113	andi	x2,x17,-433	 x17:0xffffff88  x2=0xfffffe08
        2605000	       259	800003e4	f1eb8383	lb	x7,-226(x23)	 x23:0x800087fa  x7=0x00000070 PA:0x80008718
        2615000	       260	800003e8	6f32da97	auipc	x21,0x6f32d	 x21=0xef32d3e4
        2625000	       261	800003ec	41b95f93	srai	x31,x18,0x1b	 x18:0x00000000 x31=0x00000000
        2635000	       262	800003f0	002b8aa3	sb	x2,21(x23)	 x23:0x800087fa  x2:0xfffffe08 PA:0x8000880f
        2645000	       263	800003f4	f50b8783	lb	x15,-176(x23)	 x23:0x800087fa x15=0x00000019 PA:0x8000874a
        2655000	       264	800003f8	8f684537	lui	x10,0x8f684	 x10=0x8f684000
        2665000	       265	800003fc	f92baf03	lw	x30,-110(x23)	 x23:0x800087fa x30=0x257195cf PA:0x8000878c
        2675000	       266	80000400	f83b8a83	lb	x21,-125(x23)	 x23:0x800087fa x21=0xffffffbf PA:0x8000877d
        2685000	       267	80000404	f7ebd283	lhu	x5,-130(x23)	 x23:0x800087fa  x5=0x0000332c PA:0x80008778
        2695000	       268	80000408	f12b8e83	lb	x29,-238(x23)	 x23:0x800087fa x29=0xfffffff5 PA:0x8000870c
        2705000	       269	8000040c	f78b9823	sh	x24,-144(x23)	 x23:0x800087fa x24:0x00000000 PA:0x8000876a
        2715000	       270	80000410	fd4b9383	lh	x7,-44(x23)	 x23:0x800087fa  x7=0xffffaddb PA:0x800087ce
        2725000	       271	80000414	f8cb8ea3	sb	x12,-99(x23)	 x23:0x800087fa x12:0x00000001 PA:0x80008797
        2735000	       272	80000418	018f60b3	or	x1,x30,x24	 x30:0x257195cf x24:0x00000000  x1=0x257195cf
        2745000	       273	8000041c	f7bb8783	lb	x15,-133(x23)	 x23:0x800087fa x15=0x0000004c PA:0x80008775
        2755000	       274	80000420	f839c393	xori	x7,x19,-125	 x19:0xffff8f70  x7=0x000070f3
        2765000	       275	80000424	fe1b82a3	sb	x1,-27(x23)	 x23:0x800087fa  x1:0x257195cf PA:0x800087df
        2775000	       276	80000428	010adab3	srl	x21,x21,x16	 x21:0xffffffbf x16:0x80009fc4 x21=0x0ffffffb
        2785000	       277	8000042c	3f38a513	slti	x10,x17,1011	 x17:0xffffff88 x10=0x00000001
        2795000	       278	80000430	01fcd3b3	srl	x7,x25,x31	 x25:0xd28c2000 x31:0x00000000  x7=0xd28c2000
        2805000	       279	80000434	f75b8683	lb	x13,-139(x23)	 x23:0x800087fa x13=0xffffffdb PA:0x8000876f
        2815000	       280	80000438	00745213	srli	x4,x8,0x7	  x8:0x00001200  x4=0x00000024
        2825000	       281	8000043c	f49bc703	lbu	x14,-183(x23)	 x23:0x800087fa x14=0x00000031 PA:0x80008743
        2835000	       282	80000440	fc5bc883	lbu	x17,-59(x23)	 x23:0x800087fa x17=0x000000b6 PA:0x800087bf
        2845000	       283	80000444	00838033	add	x0,x7,x8	  x7:0xd28c2000  x8:0x00001200
        2855000	       284	80000448	7b0c4d93	xori	x27,x24,1968	 x24:0x00000000 x27=0x000007b0
        2865000	       285	8000044c	40195893	srai	x17,x18,0x1	 x18:0x00000000 x17=0x00000000
        2875000	       286	80000450	f3ab8ba3	sb	x26,-201(x23)	 x23:0x800087fa x26:0x80000000 PA:0x80008731
        2885000	       287	80000454	00a41a33	sll	x20,x8,x10	  x8:0x00001200 x10:0x00000001 x20=0x00002400
        2895000	       288	80000458	f96b9183	lh	x3,-106(x23)	 x23:0x800087fa  x3=0x00004fc4 PA:0x80008790
        2905000	       289	8000045c	fe1b8503	lb	x10,-31(x23)	 x23:0x800087fa x10=0x00000032 PA:0x800087db
        2915000	       290	80000460	65d9f893	andi	x17,x19,1629	 x19:0xffff8f70 x17=0x00000650
        2925000	       291	80000464	41ccd733	sra	x14,x25,x28	 x25:0xd28c2000 x28:0x80009f84 x14=0xfd28c200
        2935000	       292	80000468	01fa4633	xor	x12,x20,x31	 x20:0x00002400 x31:0x00000000 x12=0x00002400
        2945000	       293	8000046c	12d50213	addi	x4,x10,301	 x10:0x00000032  x4=0x0000015f
        2955000	       294	80000470	01c3a6b3	slt	x13,x7,x28	  x7:0xd28c2000 x28:0x80009f84 x13=0x00000000
        2965000	       295	80000474	0048b4b3	sltu	x9,x17,x4	 x17:0x00000650  x4:0x0000015f  x9=0x00000000
        2975000	       296	80000478	00f137b3	sltu	x15,x2,x15	  x2:0xfffffe08 x15:0x0000004c x15=0x00000000
        2985000	       297	8000047c	f90b9683	lh	x13,-112(x23)	 x23:0x800087fa x13=0xffff9c07 PA:0x8000878a
        2995000	       298	80000480	00008b17	auipc	x22,0x8	 x22=0x8000847c
        3005000	       299	80000484	59eb0b13	addi	x22,x22,1438	 x22:0x8000847c x22=0x80008a1a
        3015000	       300	80000488	0112a7b3	slt	x15,x5,x17	  x5:0x0000332c x17:0x00000650 x15=0x00000000
        3025000	       301	8000048c	fdfb0183	lb	x3,-33(x22)	 x22:0x80008a1a  x3=0xffffffb7 PA:0x800089f9
        3035000	       302	80000490	00531a93	slli	x21,x6,0x5	  x6:0x00000004 x21=0x00000080
        3045000	       303	80000494	00acff33	and	x30,x25,x10	 x25:0xd28c2000 x10:0x00000032 x30=0x00000000
        3055000	       304	80000498	01ba5793	srli	x15,x20,0x1b	 x20:0x00002400 x15=0x00000000
        3065000	       305	8000049c	004f7bb3	and	x23,x30,x4	 x30:0x00000000  x4:0x0000015f x23=0x00000000
        3075000	       306	800004a0	00e39333	sll	x6,x7,x14	  x7:0xd28c2000 x14:0xfd28c200  x6=0xd28c2000
        3085000	       307	800004a4	f29b0703	lb	x14,-215(x22)	 x22:0x80008a1a x14=0xffffff94 PA:0x80008943
        3095000	       308	800004a8	ff6b0d83	lb	x27,-10(x22)	 x22:0x80008a1a x27=0xffffffda PA:0x80008a10
        3105000	       309	800004ac	079b0ca3	sb	x25,121(x22)	 x22:0x80008a1a x25:0xd28c2000 PA:0x80008a93
        3115000	       310	800004b0	01dc6a33	or	x20,x24,x29	 x24:0x00000000 x29:0xfffffff5 x20=0xfffffff5
        3125000	       311	800004b4	f4bb0383	lb	x7,-181(x22)	 x22:0x80008a1a  x7=0xffffff87 PA:0x80008965
        3135000	       312	800004b8	035b0683	lb	x13,53(x22)	 x22:0x80008a1a x13=0xffffffe9 PA:0x80008a4f
        3145000	       313	800004bc	2e29e693	ori	x13,x19,738	 x19:0xffff8f70 x13=0xffff8ff2
        3155000	       314	800004c0	f84b0ea3	sb	x4,-99(x22)	 x22:0x80008a1a  x4:0x0000015f PA:0x800089b7
        3165000	       315	800004c4	36fd4a13	xori	x20,x26,879	 x26:0x80000000 x20=0x8000036f
        3175000	       316	800004c8	a006c193	xori	x3,x13,-1536	 x13:0xffff8ff2  x3=0x000075f2
        3185000	       317	800004cc	00b59bb3	sll	x23,x11,x11	 x11:0xfffffbbc x11:0xfffffbbc x23=0xc0000000
        3195000	       318	800004d0	0103f433	and	x8,x7,x16	  x7:0xffffff87 x16:0x80009fc4  x8=0x80009f84
        3205000	       319	800004d4	00a67bb3	and	x23,x12,x10	 x12:0x00002400 x10:0x00000032 x23=0x00000000
        3215000	       320	800004d8	f0ab4003	lbu	x0,-246(x22)	 x22:0x80008a1a PA:0x80008924
        3225000	       321	800004dc	f07b0383	lb	x7,-249(x22)	 x22:0x80008a1a  x7=0x00000059 PA:0x80008921
        3235000	       322	00000000	00000013	addi	x0,x0,0	  x0:0x00000000
        3245000	       323	800004e0	01e38f33	add	x30,x7,x30	  x7:0x00000059 x30:0x00000000 x30=0x00000059
        3255000	       324	800004e4	088b0323	sb	x8,134(x22)	 x22:0x80008a1a  x8:0x80009f84 PA:0x80008aa0
        3265000	       325	800004e8	019b04a3	sb	x25,9(x22)	 x22:0x80008a1a x25:0xd28c2000 PA:0x80008a23
        3275000	       326	800004ec	9751df37	lui	x30,0x9751d	 x30=0x9751d000
        3285000	       327	800004f0	4048dbb3	sra	x23,x17,x4	 x17:0x00000650  x4:0x0000015f x23=0x00000000
        3295000	       328	800004f4	f96b0c23	sb	x22,-104(x22)	 x22:0x80008a1a x22:0x80008a1a PA:0x800089b2
        3305000	       329	800004f8	01159993	slli	x19,x11,0x11	 x11:0xfffffbbc x19=0xf7780000
        3315000	       330	800004fc	31680013	addi	x0,x16,790	 x16:0x80009fc4
        3325000	       331	80000500	6b5ea893	slti	x17,x29,1717	 x29:0xfffffff5 x17=0x00000001
        3335000	       332	80000504	003f2533	slt	x10,x30,x3	 x30:0x9751d000  x3:0x000075f2 x10=0x00000001
        3345000	       333	80000508	0b1b08a3	sb	x17,177(x22)	 x22:0x80008a1a x17:0x00000001 PA:0x80008acb
        3355000	       334	8000050c	00008697	auipc	x13,0x8	 x13=0x80008508
        3365000	       335	80000510	e4368693	addi	x13,x13,-445	 x13:0x80008508 x13=0x8000834b
        3375000	       336	80000514	82ee9337	lui	x6,0x82ee9	  x6=0x82ee9000
        3385000	       337	80000518	ff568883	lb	x17,-11(x13)	 x13:0x8000834b x17=0xffffffda PA:0x80008340
        3395000	       338	8000051c	ff368483	lb	x9,-13(x13)	 x13:0x8000834b  x9=0x00000061 PA:0x8000833e
        3405000	       339	80000520	00775b93	srli	x23,x14,0x7	 x14:0xffffff94 x23=0x01ffffff
        3415000	       340	80000524	012681a3	sb	x18,3(x13)	 x13:0x8000834b x18:0x00000000 PA:0x8000834e
        3425000	       341	80000528	a4166f13	ori	x30,x12,-1471	 x12:0x00002400 x30=0xfffffe41
        3435000	       342	8000052c	0140c2b3	xor	x5,x1,x20	  x1:0x257195cf x20:0x8000036f  x5=0xa57196a0
        3445000	       343	80000530	00b55b13	srli	x22,x10,0xb	 x10:0x00000001 x22=0x00000000
        3455000	       344	80000534	0046cb03	lbu	x22,4(x13)	 x13:0x8000834b x22=0x000000b6 PA:0x8000834f
        3465000	       345	80000538	0076c503	lbu	x10,7(x13)	 x13:0x8000834b x10=0x00000032 PA:0x80008352
        3475000	       346	8000053c	00e68623	sb	x14,12(x13)	 x13:0x8000834b x14:0xffffff94 PA:0x80008357
        3485000	       347	80000540	0006c103	lbu	x2,0(x13)	 x13:0x8000834b  x2=0x0000004c PA:0x8000834b
        3495000	       348	80000544	010b0fb3	add	x31,x22,x16	 x22:0x000000b6 x16:0x80009fc4 x31=0x8000a07a
        3505000	       349	80000548	014e38b3	sltu	x17,x28,x20	 x28:0x80009f84 x20:0x8000036f x17=0x00000000
        3515000	       350	8000054c	01638133	add	x2,x7,x22	  x7:0x00000059 x22:0x000000b6  x2=0x0000010f
        3525000	       351	80000550	416eb113	sltiu	x2,x29,1046	 x29:0xfffffff5  x2=0x00000000
        3535000	       352	80000554	01368423	sb	x19,8(x13)	 x13:0x8000834b x19:0xf7780000 PA:0x80008353
        3545000	       353	80000558	0076da83	lhu	x21,7(x13)	 x13:0x8000834b x21=0x00000032 PA:0x80008352
        3555000	       354	8000055c	ff268383	lb	x7,-14(x13)	 x13:0x8000834b  x7=0x00000073 PA:0x8000833d
        3565000	       355	80000560	fa236c17	auipc	x24,0xfa236	 x24=0x7a23655c
        3575000	       356	80000564	0116a6a3	sw	x17,13(x13)	 x13:0x8000834b x17:0x00000000 PA:0x80008358
        3585000	       357	80000568	01a684a3	sb	x26,9(x13)	 x13:0x8000834b x26:0x80000000 PA:0x80008354
        3595000	       358	8000056c	009695a3	sh	x9,11(x13)	 x13:0x8000834b  x9:0x00000061 PA:0x80008356
        3605000	       359	80000570	ff66cf83	lbu	x31,-10(x13)	 x13:0x8000834b x31=0x000000a1 PA:0x80008341
        3615000	       360	80000574	017a9913	slli	x18,x21,0x17	 x21:0x00000032 x18=0x19000000
        3625000	       361	80000578	00e68623	sb	x14,12(x13)	 x13:0x8000834b x14:0xffffff94 PA:0x80008357
        3635000	       362	8000057c	ff56d503	lhu	x10,-11(x13)	 x13:0x8000834b x10=0x0000a1da PA:0x80008340
        3645000	       363	80000580	00668823	sb	x6,16(x13)	 x13:0x8000834b  x6:0x82ee9000 PA:0x8000835b
        3655000	       364	80000584	01068a03	lb	x20,16(x13)	 x13:0x8000834b x20=0x00000000 PA:0x8000835b
        3665000	       365	80000588	ff569483	lh	x9,-11(x13)	 x13:0x8000834b  x9=0xffffa1da PA:0x80008340
        3675000	       366	8000058c	00009f97	auipc	x31,0x9	 x31=0x80009588
        3685000	       367	80000590	857f8f93	addi	x31,x31,-1961	 x31:0x80009588 x31=0x80008ddf
        3695000	       368	80000594	fe2fc203	lbu	x4,-30(x31)	 x31:0x80008ddf  x4=0x00000078 PA:0x80008dc1
        3705000	       369	00000000	00000013	addi	x0,x0,0	  x0:0x00000000
        3715000	       370	80000598	58b27093	andi	x1,x4,1419	  x4:0x00000078  x1=0x00000008
        3725000	       371	8000059c	039f8703	lb	x14,57(x31)	 x31:0x80008ddf x14=0xffffffc9 PA:0x80008e18
        3735000	       372	800005a0	fecfcc83	lbu	x25,-20(x31)	 x31:0x80008ddf x25=0x00000053 PA:0x80008dcb
        3745000	       373	800005a4	024f8403	lb	x8,36(x31)	 x31:0x80008ddf  x8=0x00000007 PA:0x80008e03
        3755000	       374	800005a8	af413893	sltiu	x17,x2,-1292	  x2:0x00000000 x17=0x00000001
        3765000	       375	800005ac	fdef88a3	sb	x30,-47(x31)	 x31:0x80008ddf x30:0xfffffe41 PA:0x80008db0
        3775000	       376	800005b0	00d53033	sltu	x0,x10,x13	 x10:0x0000a1da x13:0x8000834b
        3785000	       377	800005b4	016e5413	srli	x8,x28,0x16	 x28:0x80009f84  x8=0x00000200
        3795000	       378	800005b8	71cea013	slti	x0,x29,1820	 x29:0xfffffff5
        3805000	       379	800005bc	002c89b3	add	x19,x25,x2	 x25:0x00000053  x2:0x00000000 x19=0x00000053
        3815000	       380	800005c0	ff0faca3	sw	x16,-7(x31)	 x31:0x80008ddf x16:0x80009fc4 PA:0x80008dd8
        3825000	       381	800005c4	02efc583	lbu	x11,46(x31)	 x31:0x80008ddf x11=0x000000fa PA:0x80008e0d
        3835000	       382	800005c8	01578ab3	add	x21,x15,x21	 x15:0x00000000 x21:0x00000032 x21=0x00000032
        3845000	       383	800005cc	ff9f91a3	sh	x25,-29(x31)	 x31:0x80008ddf x25:0x00000053 PA:0x80008dc2
        3855000	       384	800005d0	ffff8823	sb	x31,-16(x31)	 x31:0x80008ddf x31:0x80008ddf PA:0x80008dcf
        3865000	       385	800005d4	407bdcb3	sra	x25,x23,x7	 x23:0x01ffffff  x7:0x00000073 x25=0x0000003f
        3875000	       386	800005d8	b7f4be97	auipc	x29,0xb7f4b	 x29=0x37f4b5d4
        3885000	       387	800005dc	01ffd203	lhu	x4,31(x31)	 x31:0x80008ddf  x4=0x000094f2 PA:0x80008dfe
        3895000	       388	800005e0	ff6f8d83	lb	x27,-10(x31)	 x31:0x80008ddf x27=0xffffffec PA:0x80008dd5
        3905000	       389	800005e4	ffaf8283	lb	x5,-6(x31)	 x31:0x80008ddf  x5=0xffffff9f PA:0x80008dd9
        3915000	       390	800005e8	01471313	slli	x6,x14,0x14	 x14:0xffffffc9  x6=0xfc900000
        3925000	       391	800005ec	4070da13	srai	x20,x1,0x7	  x1:0x00000008 x20=0x00000000
        3935000	       392	800005f0	02df80a3	sb	x13,33(x31)	 x31:0x80008ddf x13:0x8000834b PA:0x80008e00
        3945000	       393	800005f4	010fc783	lbu	x15,16(x31)	 x31:0x80008ddf x15=0x00000038 PA:0x80008def
        3955000	       394	800005f8	415a0f33	sub	x30,x20,x21	 x20:0x00000000 x21:0x00000032 x30=0xffffffce
        3965000	       395	800005fc	039f8823	sb	x25,48(x31)	 x31:0x80008ddf x25:0x0000003f PA:0x80008e0f
        3975000	       396	80000600	018c5213	srli	x4,x24,0x18	 x24:0x7a23655c  x4=0x0000007a
        3985000	       397	80000604	00000013	addi	x0,x0,0	  x0:0x00000000
        3995000	       398	80000608	03ef8083	lb	x1,62(x31)	 x31:0x80008ddf  x1=0x0000006b PA:0x80008e1d
        4005000	       399	8000060c	008ef2b3	and	x5,x29,x8	 x29:0x37f4b5d4  x8:0x00000200  x5=0x00000000
        4015000	       400	80000610	015f9883	lh	x17,21(x31)	 x31:0x80008ddf x17=0xffff995f PA:0x80008df4
        4025000	       401	80000614	025fc003	lbu	x0,37(x31)	 x31:0x80008ddf PA:0x80008e04
        4035000	       402	80000618	005fac03	lw	x24,5(x31)	 x31:0x80008ddf x24=0xd91f1686 PA:0x80008de4
        4045000	       403	8000061c	fcef8703	lb	x14,-50(x31)	 x31:0x80008ddf x14=0x0000002a PA:0x80008dad
        4055000	       404	80000620	fdcfc703	lbu	x14,-36(x31)	 x31:0x80008ddf x14=0x00000099 PA:0x80008dbb
        4065000	       405	80000624	00000013	addi	x0,x0,0	  x0:0x00000000
        4075000	       406	80000628	fe4f8423	sb	x4,-24(x31)	 x31:0x80008ddf  x4:0x0000007a PA:0x80008dc7
        4085000	       407	8000062c	ff2fa2a3	sw	x18,-27(x31)	 x31:0x80008ddf x18:0x19000000 PA:0x80008dc4
        4095000	       408	80000630	ffffcb03	lbu	x22,-1(x31)	 x31:0x80008ddf x22=0x000000ba PA:0x80008dde
        4105000	       409	80000634	e41aed93	ori	x27,x21,-447	 x21:0x00000032 x27=0xfffffe73
        4115000	       410	80000638	fe2fc303	lbu	x6,-30(x31)	 x31:0x80008ddf  x6=0x00000078 PA:0x80008dc1
        4125000	       411	8000063c	039f8083	lb	x1,57(x31)	 x31:0x80008ddf  x1=0xffffffc9 PA:0x80008e18
        4135000	       412	80000640	40c30cb3	sub	x25,x6,x12	  x6:0x00000078 x12:0x00002400 x25=0xffffdc78
        4145000	       413	80000644	ca50b313	sltiu	x6,x1,-859	  x1:0xffffffc9  x6=0x00000000
        4155000	       414	80000648	40add4b3	sra	x9,x27,x10	 x27:0xfffffe73 x10:0x0000a1da  x9=0xffffffff
        4165000	       415	8000064c	002d4633	xor	x12,x26,x2	 x26:0x80000000  x2:0x00000000 x12=0x80000000
        4175000	       416	80000650	4e3ee613	ori	x12,x29,1251	 x29:0x37f4b5d4 x12=0x37f4b5f7
        4185000	       417	80000654	02dcda63	bge	x25,x13,80000688	 x25:0xffffdc78 x13:0x8000834b
        4195000	       418	00000000	00000013	addi	x0,x0,0	  x0:0x00000000
        4205000	       419	80000684	00000013	addi	x0,x0,0	  x0:0x00000000
        4215000	       420	80000688	2654cc93	xori	x25,x9,613	  x9:0xffffffff x25=0xfffffd9a
        4225000	       421	8000068c	ac8d7a13	andi	x20,x26,-1336	 x26:0x80000000 x20=0x80000000
        4235000	       422	80000690	8a9ab713	sltiu	x14,x21,-1879	 x21:0x00000032 x14=0x00000001
        4245000	       423	80000694	09dc4613	xori	x12,x24,157	 x24:0xd91f1686 x12=0xd91f161b
        4255000	       424	80000698	668bbb93	sltiu	x23,x23,1640	 x23:0x01ffffff x23=0x00000000
        4265000	       425	8000069c	437c6993	ori	x19,x24,1079	 x24:0xd91f1686 x19=0xd91f16b7
        4275000	       426	800006a0	04c35263	bge	x6,x12,800006e4	  x6:0x00000000 x12:0xd91f161b
        4285000	       427	00000000	00000013	addi	x0,x0,0	  x0:0x00000000
        4295000	       428	800006e0	00000013	addi	x0,x0,0	  x0:0x00000000
        4305000	       429	800006e4	0026c3b3	xor	x7,x13,x2	 x13:0x8000834b  x2:0x00000000  x7=0x8000834b
        4315000	       430	800006e8	05efc463	blt	x31,x30,80000730	 x31:0x80008ddf x30:0xffffffce
        4325000	       431	00000000	00000013	addi	x0,x0,0	  x0:0x00000000
        4335000	       432	8000072c	00000013	addi	x0,x0,0	  x0:0x00000000
        4345000	       433	80000730	05fc9063	bne	x25,x31,80000770	 x25:0xfffffd9a x31:0x80008ddf
        4355000	       434	00000000	00000013	addi	x0,x0,0	  x0:0x00000000
        4365000	       435	8000076c	00000013	addi	x0,x0,0	  x0:0x00000000
        4375000	       436	80000770	01f781b3	add	x3,x15,x31	 x15:0x00000038 x31:0x80008ddf  x3=0x80008e17
        4385000	       437	80000774	002905b3	add	x11,x18,x2	 x18:0x19000000  x2:0x00000000 x11=0x19000000
        4395000	       438	80000778	007497b3	sll	x15,x9,x7	  x9:0xffffffff  x7:0x8000834b x15=0xfffff800
        4405000	       439	8000077c	0074a933	slt	x18,x9,x7	  x9:0xffffffff  x7:0x8000834b x18=0x00000000
        4415000	       440	80000780	4081d293	srai	x5,x3,0x8	  x3:0x80008e17  x5=0xff80008e
        4425000	       441	80000784	00c5cbb3	xor	x23,x11,x12	 x11:0x19000000 x12:0xd91f161b x23=0xc01f161b
        4435000	       442	80000788	008fcf33	xor	x30,x31,x8	 x31:0x80008ddf  x8:0x00000200 x30=0x80008fdf
        4445000	       443	8000078c	6adce313	ori	x6,x25,1709	 x25:0xfffffd9a  x6=0xffffffbf
        4455000	       444	80000790	415682b3	sub	x5,x13,x21	 x13:0x8000834b x21:0x00000032  x5=0x80008319
        4465000	       445	80000794	01691713	slli	x14,x18,0x16	 x18:0x00000000 x14=0x00000000
        4475000	       446	80000798	01befe63	bgeu	x29,x27,800007b4	 x29:0x37f4b5d4 x27:0xfffffe73
        4485000	       447	8000079c	0025d093	srli	x1,x11,0x2	 x11:0x19000000  x1=0x06400000
        4495000	       448	800007a0	0020b0b3	sltu	x1,x1,x2	  x1:0x06400000  x2:0x00000000  x1=0x00000000
        4505000	       449	800007a4	8e18f097	auipc	x1,0x8e18f	  x1=0x0e18f7a0
        4515000	       450	800007a8	4b9d1eb7	lui	x29,0x4b9d1	 x29=0x4b9d1000
        4525000	       451	800007ac	00a01cb3	sll	x25,x0,x10	  x0:0x00000000 x10:0x0000a1da x25=0x00000000
        4535000	       452	800007b0	02096663	bltu	x18,x0,800007dc	 x18:0x00000000  x0:0x00000000
        4545000	       453	800007b4	11658213	addi	x4,x11,278	 x11:0x19000000  x4=0x19000116
        4555000	       454	800007b8	01eb0433	add	x8,x22,x30	 x22:0x000000ba x30:0x80008fdf  x8=0x80009099
        4565000	       455	800007bc	41776037	lui	x0,0x41776	
        4575000	       456	800007c0	0005e663	bltu	x11,x0,800007cc	 x11:0x19000000  x0:0x00000000
        4585000	       457	800007c4	05420263	beq	x4,x20,80000808	  x4:0x19000116 x20:0x80000000
        4595000	       458	800007c8	00416e63	bltu	x2,x4,800007e4	  x2:0x00000000  x4:0x19000116
        4605000	       459	00000000	00000013	addi	x0,x0,0	  x0:0x00000000
        4615000	       460	800007e0	00000013	addi	x0,x0,0	  x0:0x00000000
        4625000	       461	800007e4	5c91f537	lui	x10,0x5c91f	 x10=0x5c91f000
        4635000	       462	800007e8	37623197	auipc	x3,0x37623	  x3=0xb76237e4
        4645000	       463	800007ec	03eb0663	beq	x22,x30,80000818	 x22:0x000000ba x30:0x80008fdf
        4655000	       464	800007f0	019a1493	slli	x9,x20,0x19	 x20:0x80000000  x9=0x00000000
        4665000	       465	800007f4	03a00463	beq	x0,x26,8000081c	  x0:0x00000000 x26:0x80000000
        4675000	       466	800007f8	02025263	bge	x4,x0,8000081c	  x4:0x19000116  x0:0x00000000
        4685000	       467	00000000	00000013	addi	x0,x0,0	  x0:0x00000000
        4695000	       468	80000818	00000013	addi	x0,x0,0	  x0:0x00000000
        4705000	       469	8000081c	40cb83b3	sub	x7,x23,x12	 x23:0xc01f161b x12:0xd91f161b  x7=0xe7000000
        4715000	       470	80000820	01930533	add	x10,x6,x25	  x6:0xffffffbf x25:0x00000000 x10=0xffffffbf
        4725000	       471	80000824	0540c463	blt	x1,x20,8000086c	  x1:0x0e18f7a0 x20:0x80000000
        4735000	       472	80000828	4031deb3	sra	x29,x3,x3	  x3:0xb76237e4  x3:0xb76237e4 x29=0xfb76237e
        4745000	       473	8000082c	02d8dc63	bge	x17,x13,80000864	 x17:0xffff995f x13:0x8000834b
        4755000	       474	00000000	00000013	addi	x0,x0,0	  x0:0x00000000
        4765000	       475	80000860	00000013	addi	x0,x0,0	  x0:0x00000000
        4775000	       476	80000864	eda13893	sltiu	x17,x2,-294	  x2:0x00000000 x17=0x00000001
        4785000	       477	80000868	02c86e63	bltu	x16,x12,800008a4	 x16:0x80009fc4 x12:0xd91f161b
        4795000	       478	00000000	00000013	addi	x0,x0,0	  x0:0x00000000
        4805000	       479	800008a0	00000013	addi	x0,x0,0	  x0:0x00000000
        4815000	       480	800008a4	00000013	addi	x0,x0,0	  x0:0x00000000
        4825000	       481	800008a8	40e403b3	sub	x7,x8,x14	  x8:0x80009099 x14:0x00000000  x7=0x80009099
        4835000	       482	800008ac	007b0333	add	x6,x22,x7	 x22:0x000000ba  x7:0x80009099  x6=0x80009153
        4845000	       483	800008b0	01bdcdb3	xor	x27,x27,x27	 x27:0xfffffe73 x27:0xfffffe73 x27=0x00000000
        4855000	       484	800008b4	02847713	andi	x14,x8,40	  x8:0x80009099 x14=0x00000008
        4865000	       485	800008b8	005b2f33	slt	x30,x22,x5	 x22:0x000000ba  x5:0x80008319 x30=0x00000000
        4875000	       486	800008bc	f5e17517	auipc	x10,0xf5e17	 x10=0x75e178b8
        4885000	       487	800008c0	00eb02b3	add	x5,x22,x14	 x22:0x000000ba x14:0x00000008  x5=0x000000c2
        4895000	       488	800008c4	0343ea63	bltu	x7,x20,800008f8	  x7:0x80009099 x20:0x80000000
        4905000	       489	800008c8	00e8de63	bge	x17,x14,800008e4	 x17:0x00000001 x14:0x00000008
        4915000	       490	800008cc	bec2aeb7	lui	x29,0xbec2a	 x29=0xbec2a000
        4925000	       491	800008d0	00e39493	slli	x9,x7,0xe	  x7:0x80009099  x9=0x24264000
        4935000	       492	800008d4	00f25133	srl	x2,x4,x15	  x4:0x19000116 x15:0xfffff800  x2=0x19000116
        4945000	       493	800008d8	008020b3	slt	x1,x0,x8	  x0:0x00000000  x8:0x80009099  x1=0x00000000
        4955000	       494	800008dc	415c56b3	sra	x13,x24,x21	 x24:0xd91f1686 x21:0x00000032 x13=0xfffff647
        4965000	       495	800008e0	41a407b3	sub	x15,x8,x26	  x8:0x80009099 x26:0x80000000 x15=0x00009099
        4975000	       496	800008e4	000092b3	sll	x5,x1,x0	  x1:0x00000000  x0:0x00000000  x5=0x00000000
        4985000	       497	800008e8	8fb91017	auipc	x0,0x8fb91	
        4995000	       498	800008ec	8e444713	xori	x14,x8,-1820	  x8:0x80009099 x14=0x7fff687d
        5005000	       499	800008f0	bb41b897	auipc	x17,0xbb41b	 x17=0x3b41b8ec
        5015000	       500	800008f4	3fc8ca13	xori	x20,x17,1020	 x17:0x3b41b8ec x20=0x3b41bb10
        5025000	       501	800008f8	77cd3ab7	lui	x21,0x77cd3	 x21=0x77cd3000
        5035000	       502	800008fc	41d100b3	sub	x1,x2,x29	  x2:0x19000116 x29:0xbec2a000  x1=0x5a3d6116
        5045000	       503	80000900	ef764493	xori	x9,x12,-265	 x12:0xd91f161b  x9=0x26e0e8ec
        5055000	       504	80000904	00c984b3	add	x9,x19,x12	 x19:0xd91f16b7 x12:0xd91f161b  x9=0xb23e2cd2
        5065000	       505	80000908	d5489fb7	lui	x31,0xd5489	 x31=0xd5489000
        5075000	       506	8000090c	00ab17b3	sll	x15,x22,x10	 x22:0x000000ba x10:0x75e178b8 x15=0xba000000
        5085000	       507	80000910	40cf5eb3	sra	x29,x30,x12	 x30:0x00000000 x12:0xd91f161b x29=0x00000000
        5095000	       508	80000914	0054fcb3	and	x25,x9,x5	  x9:0xb23e2cd2  x5:0x00000000 x25=0x00000000
        5105000	       509	80000918	aaf859b7	lui	x19,0xaaf85	 x19=0xaaf85000
        5115000	       510	8000091c	00bb8233	add	x4,x23,x11	 x23:0xc01f161b x11:0x19000000  x4=0xd91f161b
        5125000	       511	80000920	018d22b3	slt	x5,x26,x24	 x26:0x80000000 x24:0xd91f1686  x5=0x00000001
        5135000	       512	80000924	009aaf33	slt	x30,x21,x9	 x21:0x77cd3000  x9:0xb23e2cd2 x30=0x00000000
        5145000	       513	80000928	be6c60b7	lui	x1,0xbe6c6	  x1=0xbe6c6000
        5155000	       514	8000092c	03a3c663	blt	x7,x26,80000958	  x7:0x80009099 x26:0x80000000
        5165000	       515	80000930	00d21433	sll	x8,x4,x13	  x4:0xd91f161b x13:0xfffff647  x8=0x8f8b0d80
        5175000	       516	80000934	00288433	add	x8,x17,x2	 x17:0x3b41b8ec  x2:0x19000116  x8=0x5441ba02
        5185000	       517	80000938	8b2dc497	auipc	x9,0x8b2dc	  x9=0x0b2dc934
        5195000	       518	8000093c	0171ee63	bltu	x3,x23,80000958	  x3:0xb76237e4 x23:0xc01f161b
        5205000	       519	00000000	00000013	addi	x0,x0,0	  x0:0x00000000
        5215000	       520	80000954	00000013	addi	x0,x0,0	  x0:0x00000000
        5225000	       521	80000958	040ce063	bltu	x25,x0,80000998	 x25:0x00000000  x0:0x00000000
        5235000	       522	8000095c	799a5517	auipc	x10,0x799a5	 x10=0xf99a5958
        5245000	       523	80000960	420fff93	andi	x31,x31,1056	 x31:0xd5489000 x31=0x00000000
        5255000	       524	80000964	53c1a0b7	lui	x1,0x53c1a	  x1=0x53c1a000
        5265000	       525	80000968	01069113	slli	x2,x13,0x10	 x13:0xfffff647  x2=0xf6470000
        5275000	       526	8000096c	6e168093	addi	x1,x13,1761	 x13:0xfffff647  x1=0xfffffd28
        5285000	       527	80000970	05a67063	bgeu	x12,x26,800009b0	 x12:0xd91f161b x26:0x80000000
        5295000	       528	00000000	00000013	addi	x0,x0,0	  x0:0x00000000
        5305000	       529	800009ac	00000013	addi	x0,x0,0	  x0:0x00000000
        5315000	       530	800009b0	415e5c33	sra	x24,x28,x21	 x28:0x80009f84 x21:0x77cd3000 x24=0x80009f84
        5325000	       531	800009b4	05cf4063	blt	x30,x28,800009f4	 x30:0x00000000 x28:0x80009f84
        5335000	       532	800009b8	00920c63	beq	x4,x9,800009d0	  x4:0xd91f161b  x9:0x0b2dc934
        5345000	       533	800009bc	3e77e113	ori	x2,x15,999	 x15:0xba000000  x2=0xba0003e7
        5355000	       534	800009c0	014ecbb3	xor	x23,x29,x20	 x29:0x00000000 x20:0x3b41bb10 x23=0x3b41bb10
        5365000	       535	800009c4	94d3cf13	xori	x30,x7,-1715	  x7:0x80009099 x30=0x7fff69d4
        5375000	       536	800009c8	402ddc13	srai	x24,x27,0x2	 x27:0x00000000 x24=0x00000000
        5385000	       537	800009cc	410d8233	sub	x4,x27,x16	 x27:0x00000000 x16:0x80009fc4  x4=0x7fff603c
        5395000	       538	800009d0	01521613	slli	x12,x4,0x15	  x4:0x7fff603c x12=0x07800000
        5405000	       539	800009d4	1422c913	xori	x18,x5,322	  x5:0x00000001 x18=0x00000143
        5415000	       540	800009d8	01c8fe63	bgeu	x17,x28,800009f4	 x17:0x3b41b8ec x28:0x80009f84
        5425000	       541	800009dc	40e55c33	sra	x24,x10,x14	 x10:0xf99a5958 x14:0x7fff687d x24=0xffffffff
        5435000	       542	800009e0	41b65313	srai	x6,x12,0x1b	 x12:0x07800000  x6=0x00000000
        5445000	       543	800009e4	00266b33	or	x22,x12,x2	 x12:0x07800000  x2:0xba0003e7 x22=0xbf8003e7
        5455000	       544	800009e8	0130d513	srli	x10,x1,0x13	  x1:0xfffffd28 x10=0x00001fff
        5465000	       545	800009ec	002fe333	or	x6,x31,x2	 x31:0x00000000  x2:0xba0003e7  x6=0xba0003e7
        5475000	       546	800009f0	410c05b3	sub	x11,x24,x16	 x24:0xffffffff x16:0x80009fc4 x11=0x7fff603b
        5485000	       547	800009f4	0144da63	bge	x9,x20,80000a08	  x9:0x0b2dc934 x20:0x3b41bb10
        5495000	       548	800009f8	93ec8a93	addi	x21,x25,-1730	 x25:0x00000000 x21=0xfffff93e
        5505000	       549	800009fc	6644df17	auipc	x30,0x6644d	 x30=0xe644d9f8
        5515000	       550	80000a00	00000013	addi	x0,x0,0	  x0:0x00000000
        5525000	       551	80000a04	09270237	lui	x4,0x9270	  x4=0x09270000
        5535000	       552	80000a08	f8c08393	addi	x7,x1,-116	  x1:0xfffffd28  x7=0xfffffcb4
        5545000	       553	80000a0c	026b1463	bne	x22,x6,80000a34	 x22:0xbf8003e7  x6:0xba0003e7
        5555000	       554	00000000	00000013	addi	x0,x0,0	  x0:0x00000000
        5565000	       555	80000a30	00000013	addi	x0,x0,0	  x0:0x00000000
        5575000	       556	80000a34	77966f17	auipc	x30,0x77966	 x30=0xf7966a30
        5585000	       557	80000a38	00d507b3	add	x15,x10,x13	 x10:0x00001fff x13:0xfffff647 x15=0x00001646
        5595000	       558	80000a3c	01c65993	srli	x19,x12,0x1c	 x12:0x07800000 x19=0x00000000
        5605000	       559	80000a40	03946463	bltu	x8,x25,80000a68	  x8:0x5441ba02 x25:0x00000000
        5615000	       560	80000a44	9a150713	addi	x14,x10,-1631	 x10:0x00001fff x14=0x000019a0
        5625000	       561	80000a48	b04a8d93	addi	x27,x21,-1276	 x21:0xfffff93e x27=0xfffff442
        5635000	       562	80000a4c	41cd5b13	srai	x22,x26,0x1c	 x26:0x80000000 x22=0xfffffff8
        5645000	       563	80000a50	c6c34793	xori	x15,x6,-916	  x6:0xba0003e7 x15=0x45ffff8b
        5655000	       564	80000a54	01e805b3	add	x11,x16,x30	 x16:0x80009fc4 x30:0xf7966a30 x11=0x779709f4
        5665000	       565	80000a58	78081117	auipc	x2,0x78081	  x2=0xf8081a54
        5675000	       566	80000a5c	00c5fe63	bgeu	x11,x12,80000a78	 x11:0x779709f4 x12:0x07800000
        5685000	       567	00000000	00000013	addi	x0,x0,0	  x0:0x00000000
        5695000	       568	80000a74	00000013	addi	x0,x0,0	  x0:0x00000000
        5705000	       569	80000a78	e87e0137	lui	x2,0xe87e0	  x2=0xe87e0000
        5715000	       570	80000a7c	05798063	beq	x19,x23,80000abc	 x19:0x00000000 x23:0x3b41bb10
        5725000	       571	80000a80	40160bb3	sub	x23,x12,x1	 x12:0x07800000  x1:0xfffffd28 x23=0x078002d8
        5735000	       572	80000a84	01581ab3	sll	x21,x16,x21	 x16:0x80009fc4 x21:0xfffff93e x21=0x00000000
        5745000	       573	80000a88	00e06e63	bltu	x0,x14,80000aa4	  x0:0x00000000 x14:0x000019a0
        5755000	       574	00000000	00000013	addi	x0,x0,0	  x0:0x00000000
        5765000	       575	80000aa0	00000013	addi	x0,x0,0	  x0:0x00000000
        5775000	       576	80000aa4	41635b13	srai	x22,x6,0x16	  x6:0xba0003e7 x22=0xfffffee8
        5785000	       577	80000aa8	bf5fe0b7	lui	x1,0xbf5fe	  x1=0xbf5fe000
        5795000	       578	80000aac	419bd013	srai	x0,x23,0x19	 x23:0x078002d8
        5805000	       579	80000ab0	8a79bf37	lui	x30,0x8a79b	 x30=0x8a79b000
        5815000	       580	80000ab4	034cc463	blt	x25,x20,80000adc	 x25:0x00000000 x20:0x3b41bb10
        5825000	       581	00000000	00000013	addi	x0,x0,0	  x0:0x00000000
        5835000	       582	80000ad8	00000013	addi	x0,x0,0	  x0:0x00000000
        5845000	       583	80000adc	003251b3	srl	x3,x4,x3	  x4:0x09270000  x3:0xb76237e4  x3=0x00927000
        5855000	       584	80000ae0	00000013	addi	x0,x0,0	  x0:0x00000000
        5865000	       585	80000ae4	4074d793	srai	x15,x9,0x7	  x9:0x0b2dc934 x15=0x00165b92
        5875000	       586	80000ae8	01b84c63	blt	x16,x27,80000b00	 x16:0x80009fc4 x27:0xfffff442
        5885000	       587	00000000	00000013	addi	x0,x0,0	  x0:0x00000000
        5895000	       588	80000afc	00000013	addi	x0,x0,0	  x0:0x00000000
        5905000	       589	80000b00	6c60c7b7	lui	x15,0x6c60c	 x15=0x6c60c000
        5915000	       590	80000b04	412050b3	sra	x1,x0,x18	  x0:0x00000000 x18:0x00000143  x1=0x00000000
        5925000	       591	80000b08	03b5e663	bltu	x11,x27,80000b34	 x11:0x779709f4 x27:0xfffff442
        5935000	       592	00000000	00000013	addi	x0,x0,0	  x0:0x00000000
        5945000	       593	80000b30	00000013	addi	x0,x0,0	  x0:0x00000000
        5955000	       594	80000b34	011b1493	slli	x9,x22,0x11	 x22:0xfffffee8  x9=0xfdd00000
        5965000	       595	80000b38	001e5c93	srli	x25,x28,0x1	 x28:0x80009f84 x25=0x40004fc2
        5975000	       596	80000b3c	1723ac13	slti	x24,x7,370	  x7:0xfffffcb4 x24=0x00000001
        5985000	       597	80000b40	00e8a633	slt	x12,x17,x14	 x17:0x3b41b8ec x14:0x000019a0 x12=0x00000000
        5995000	       598	80000b44	eed92413	slti	x8,x18,-275	 x18:0x00000143  x8=0x00000000
        6005000	       599	80000b48	41eb54b3	sra	x9,x22,x30	 x22:0xfffffee8 x30:0x8a79b000  x9=0xfffffee8
        6015000	       600	80000b4c	00b49493	slli	x9,x9,0xb	  x9:0xfffffee8  x9=0xfff74000
        6025000	       601	80000b50	01ff5593	srli	x11,x30,0x1f	 x30:0x8a79b000 x11=0x00000001
        6035000	       602	80000b54	c93429b7	lui	x19,0xc9342	 x19=0xc9342000
        6045000	       603	80000b58	022cc463	blt	x25,x2,80000b80	 x25:0x40004fc2  x2:0xe87e0000
        6055000	       604	80000b5c	a078f993	andi	x19,x17,-1529	 x17:0x3b41b8ec x19=0x3b41b804
        6065000	       605	80000b60	01fc7333	and	x6,x24,x31	 x24:0x00000001 x31:0x00000000  x6=0x00000000
        6075000	       606	80000b64	410456b3	sra	x13,x8,x16	  x8:0x00000000 x16:0x80009fc4 x13=0x00000000
        6085000	       607	80000b68	0119fc63	bgeu	x19,x17,80000b80	 x19:0x3b41b804 x17:0x3b41b8ec
        6095000	       608	80000b6c	5569e013	ori	x0,x19,1366	 x19:0x3b41b804
        6105000	       609	80000b70	00de5cb3	srl	x25,x28,x13	 x28:0x80009f84 x13:0x00000000 x25=0x80009f84
        6115000	       610	80000b74	006d6463	bltu	x26,x6,80000b7c	 x26:0x80000000  x6:0x00000000
        6125000	       611	80000b78	013e0863	beq	x28,x19,80000b88	 x28:0x80009f84 x19:0x3b41b804
        6135000	       612	80000b7c	daae7313	andi	x6,x28,-598	 x28:0x80009f84  x6=0x80009d80
        6145000	       613	80000b80	01ea00b3	add	x1,x20,x30	 x20:0x3b41bb10 x30:0x8a79b000  x1=0xc5bb6b10
        6155000	       614	80000b84	50514293	xori	x5,x2,1285	  x2:0xe87e0000  x5=0xe87e0505
        6165000	       615	80000b88	e78f8393	addi	x7,x31,-392	 x31:0x00000000  x7=0xfffffe78
        6175000	       616	80000b8c	045a1063	bne	x20,x5,80000bcc	 x20:0x3b41bb10  x5:0xe87e0505
        6185000	       617	00000000	00000013	addi	x0,x0,0	  x0:0x00000000
        6195000	       618	80000bc8	00000013	addi	x0,x0,0	  x0:0x00000000
        6205000	       619	80000bcc	00085f13	srli	x30,x16,0x0	 x16:0x80009fc4 x30=0x80009fc4
        6215000	       620	80000bd0	8ee88393	addi	x7,x17,-1810	 x17:0x3b41b8ec  x7=0x3b41b1da
        6225000	       621	80000bd4	41ca8433	sub	x8,x21,x28	 x21:0x00000000 x28:0x80009f84  x8=0x7fff607c
        6235000	       622	80000bd8	aa1528b7	lui	x17,0xaa152	 x17=0xaa152000
        6245000	       623	80000bdc	d0d50d93	addi	x27,x10,-755	 x10:0x00001fff x27=0x00001d0c
        6255000	       624	80000be0	00000013	addi	x0,x0,0	  x0:0x00000000
        6265000	       625	80000be4	a38de497	auipc	x9,0xa38de	  x9=0x238debe0
        6275000	       626	80000be8	04c05063	bge	x0,x12,80000c28	  x0:0x00000000 x12:0x00000000
        6285000	       627	00000000	00000013	addi	x0,x0,0	  x0:0x00000000
        6295000	       628	80000c24	00000013	addi	x0,x0,0	  x0:0x00000000
        6305000	       629	80000c28	014938b3	sltu	x17,x18,x20	 x18:0x00000143 x20:0x3b41bb10 x17=0x00000001
        6315000	       630	80000c2c	019b58b3	srl	x17,x22,x25	 x22:0xfffffee8 x25:0x80009f84 x17=0x0fffffee
        6325000	       631	80000c30	02046263	bltu	x8,x0,80000c54	  x8:0x7fff607c  x0:0x00000000
        6335000	       632	80000c34	016c1db3	sll	x27,x24,x22	 x24:0x00000001 x22:0xfffffee8 x27=0x00000100
        6345000	       633	80000c38	00fb5b93	srli	x23,x22,0xf	 x22:0xfffffee8 x23=0x0001ffff
        6355000	       634	80000c3c	003186b3	add	x13,x3,x3	  x3:0x00927000  x3:0x00927000 x13=0x0124e000
        6365000	       635	80000c40	012ebc13	sltiu	x24,x29,18	 x29:0x00000000 x24=0x00000001
        6375000	       636	80000c44	40345ab3	sra	x21,x8,x3	  x8:0x7fff607c  x3:0x00927000 x21=0x7fff607c
        6385000	       637	80000c48	00ef05b3	add	x11,x30,x14	 x30:0x80009fc4 x14:0x000019a0 x11=0x8000b964
        6395000	       638	80000c4c	01293433	sltu	x8,x18,x18	 x18:0x00000143 x18:0x00000143  x8=0x00000000
        6405000	       639	80000c50	00000013	addi	x0,x0,0	  x0:0x00000000
        6415000	       640	80000c54	011790b3	sll	x1,x15,x17	 x15:0x6c60c000 x17:0x0fffffee  x1=0x30000000
        6425000	       641	80000c58	01207433	and	x8,x0,x18	  x0:0x00000000 x18:0x00000143  x8=0x00000000
        6435000	       642	80000c5c	1ef37593	andi	x11,x6,495	  x6:0x80009d80 x11=0x00000180
        6445000	       643	80000c60	54494493	xori	x9,x18,1348	 x18:0x00000143  x9=0x00000407
        6455000	       644	80000c64	8eefef13	ori	x30,x31,-1810	 x31:0x00000000 x30=0xfffff8ee
        6465000	       645	80000c68	0040c4b3	xor	x9,x1,x4	  x1:0x30000000  x4:0x09270000  x9=0x39270000
        6475000	       646	80000c6c	0561f063	bgeu	x3,x22,80000cac	  x3:0x00927000 x22:0xfffffee8
        6485000	       647	80000c70	04449263	bne	x9,x4,80000cb4	  x9:0x39270000  x4:0x09270000
        6495000	       648	00000000	00000013	addi	x0,x0,0	  x0:0x00000000
        6505000	       649	80000cb0	00000013	addi	x0,x0,0	  x0:0x00000000
        6515000	       650	80000cb4	ee508113	addi	x2,x1,-283	  x1:0x30000000  x2=0x2ffffee5
        6525000	       651	80000cb8	015b52b3	srl	x5,x22,x21	 x22:0xfffffee8 x21:0x7fff607c  x5=0x0000000f
        6535000	       652	80000cbc	046ed463	bge	x29,x6,80000d04	 x29:0x00000000  x6:0x80009d80
        6545000	       653	00000000	00000013	addi	x0,x0,0	  x0:0x00000000
        6555000	       654	80000d00	00000013	addi	x0,x0,0	  x0:0x00000000
        6565000	       655	80000d04	410f07b3	sub	x15,x30,x16	 x30:0xfffff8ee x16:0x80009fc4 x15=0x7fff592a
        6575000	       656	80000d08	c074cd93	xori	x27,x9,-1017	  x9:0x39270000 x27=0xc6d8fc07
        6585000	       657	80000d0c	402cd233	sra	x4,x25,x2	 x25:0x80009f84  x2:0x2ffffee5  x4=0xfc0004fc
        6595000	       658	80000d10	41660b33	sub	x22,x12,x22	 x12:0x00000000 x22:0xfffffee8 x22=0x00000118
        6605000	       659	80000d14	03759c63	bne	x11,x23,80000d4c	 x11:0x00000180 x23:0x0001ffff
        6615000	       660	00000000	00000013	addi	x0,x0,0	  x0:0x00000000
        6625000	       661	80000d48	00000013	addi	x0,x0,0	  x0:0x00000000
        6635000	       662	80000d4c	402d5633	sra	x12,x26,x2	 x26:0x80000000  x2:0x2ffffee5 x12=0xfc000000
        6645000	       663	80000d50	0165ce63	blt	x11,x22,80000d6c	 x11:0x00000180 x22:0x00000118
        6655000	       664	80000d54	4a060413	addi	x8,x12,1184	 x12:0xfc000000  x8=0xfc0004a0
        6665000	       665	80000d58	0086dab3	srl	x21,x13,x8	 x13:0x0124e000  x8:0xfc0004a0 x21=0x0124e000
        6675000	       666	80000d5c	41d284b3	sub	x9,x5,x29	  x5:0x0000000f x29:0x00000000  x9=0x0000000f
        6685000	       667	80000d60	00565a63	bge	x12,x5,80000d74	 x12:0xfc000000  x5:0x0000000f
        6695000	       668	80000d64	00c3d933	srl	x18,x7,x12	  x7:0x3b41b1da x12:0xfc000000 x18=0x3b41b1da
        6705000	       669	80000d68	0295ea63	bltu	x11,x9,80000d9c	 x11:0x00000180  x9:0x0000000f
        6715000	       670	80000d6c	5dd8ca93	xori	x21,x17,1501	 x17:0x0fffffee x21=0x0ffffa33
        6725000	       671	80000d70	4096d613	srai	x12,x13,0x9	 x13:0x0124e000 x12=0x00009270
        6735000	       672	80000d74	0145c4b3	xor	x9,x11,x20	 x11:0x00000180 x20:0x3b41bb10  x9=0x3b41ba90
        6745000	       673	80000d78	000b9463	bne	x23,x0,80000d80	 x23:0x0001ffff  x0:0x00000000
        6755000	       674	00000000	00000013	addi	x0,x0,0	  x0:0x00000000
        6765000	       675	80000d7c	00000013	addi	x0,x0,0	  x0:0x00000000
        6775000	       676	80000d80	002f5693	srli	x13,x30,0x2	 x30:0xfffff8ee x13=0x3ffffe3b
        6785000	       677	80000d84	13737913	andi	x18,x6,311	  x6:0x80009d80 x18=0x00000100
        6795000	       678	80000d88	4cbc3517	auipc	x10,0x4cbc3	 x10=0xccbc3d84
        6805000	       679	80000d8c	01bb8033	add	x0,x23,x27	 x23:0x0001ffff x27:0xc6d8fc07
        6815000	       680	80000d90	010f7e63	bgeu	x30,x16,80000dac	 x30:0xfffff8ee x16:0x80009fc4
        6825000	       681	00000000	00000013	addi	x0,x0,0	  x0:0x00000000
        6835000	       682	80000da8	00000013	addi	x0,x0,0	  x0:0x00000000
        6845000	       683	80000dac	018098b3	sll	x17,x1,x24	  x1:0x30000000 x24:0x00000001 x17=0x60000000
        6855000	       684	80000db0	009b6f33	or	x30,x22,x9	 x22:0x00000118  x9:0x3b41ba90 x30=0x3b41bb98
        6865000	       685	80000db4	0089d013	srli	x0,x19,0x8	 x19:0x3b41b804
        6875000	       686	80000db8	01315713	srli	x14,x2,0x13	  x2:0x2ffffee5 x14=0x000005ff
        6885000	       687	80000dbc	40e50db3	sub	x27,x10,x14	 x10:0xccbc3d84 x14:0x000005ff x27=0xccbc3785
        6895000	       688	80000dc0	00a29133	sll	x2,x5,x10	  x5:0x0000000f x10:0xccbc3d84  x2=0x000000f0
        6905000	       689	80000dc4	02e9d263	bge	x19,x14,80000de8	 x19:0x3b41b804 x14:0x000005ff
        6915000	       690	00000000	00000013	addi	x0,x0,0	  x0:0x00000000
        6925000	       691	80000de4	00000013	addi	x0,x0,0	  x0:0x00000000
        6935000	       692	80000de8	01ff85b3	add	x11,x31,x31	 x31:0x00000000 x31:0x00000000 x11=0x00000000
        6945000	       693	80000dec	0fdbe663	bltu	x23,x29,80000ed8	 x23:0x0001ffff x29:0x00000000
        6955000	       694	80000df0	003175b3	and	x11,x2,x3	  x2:0x000000f0  x3:0x00927000 x11=0x00000000
        6965000	       695	80000df4	9d1f0893	addi	x17,x30,-1583	 x30:0x3b41bb98 x17=0x3b41b569
        6975000	       696	80000df8	00d21593	slli	x11,x4,0xd	  x4:0xfc0004fc x11=0x009f8000
        6985000	       697	80000dfc	00007117	auipc	x2,0x7	  x2=0x80007df8
        6995000	       698	80000e00	3ec10113	addi	x2,x2,1004	  x2:0x80007df8  x2=0x800081e4
        7005000	       699	80000e04	5d3a0213	addi	x4,x20,1491	 x20:0x3b41bb10  x4=0x3b41c0e3
        7015000	       700	80000e08	41a8dfb3	sra	x31,x17,x26	 x17:0x3b41b569 x26:0x80000000 x31=0x3b41b569
        7025000	       701	80000e0c	fef10583	lb	x11,-17(x2)	  x2:0x800081e4 x11=0x0000005a PA:0x800081d3
        7035000	       702	80000e10	bd0e0097	auipc	x1,0xbd0e0	  x1=0x3d0e0e0c
        7045000	       703	80000e14	00304a33	xor	x20,x0,x3	  x0:0x00000000  x3:0x00927000 x20=0x00927000
        7055000	       704	80000e18	ffb14283	lbu	x5,-5(x2)	  x2:0x800081e4  x5=0x00000013 PA:0x800081df
        7065000	       705	80000e1c	00000013	addi	x0,x0,0	  x0:0x00000000
        7075000	       706	80000e20	fd714b03	lbu	x22,-41(x2)	  x2:0x800081e4 x22=0x000000fa PA:0x800081bb
        7085000	       707	80000e24	003c2b33	slt	x22,x24,x3	 x24:0x00000001  x3:0x00927000 x22=0x00000001
        7095000	       708	80000e28	00000013	addi	x0,x0,0	  x0:0x00000000
        7105000	       709	80000e2c	2ab6f793	andi	x15,x13,683	 x13:0x3ffffe3b x15=0x0000022b
        7115000	       710	80000e30	fe510603	lb	x12,-27(x2)	  x2:0x800081e4 x12=0xffffff96 PA:0x800081c9
        7125000	       711	80000e34	fb658197	auipc	x3,0xfb658	  x3=0x7b658e30
        7135000	       712	80000e38	00fccf33	xor	x30,x25,x15	 x25:0x80009f84 x15:0x0000022b x30=0x80009daf
        7145000	       713	80000e3c	fc110683	lb	x13,-63(x2)	  x2:0x800081e4 x13=0xffffffc2 PA:0x800081a5
        7155000	       714	00000000	00000013	addi	x0,x0,0	  x0:0x00000000
        7165000	       715	80000e40	02d14883	lbu	x17,45(x2)	  x2:0x800081e4 x17=0x00000067 PA:0x80008211
        7175000	       716	80000e44	40408b33	sub	x22,x1,x4	  x1:0x3d0e0e0c  x4:0x3b41c0e3 x22=0x01cc4d29
        7185000	       717	80000e48	03615f03	lhu	x30,54(x2)	  x2:0x800081e4 x30=0x0000c37f PA:0x8000821a
        7195000	       718	80000e4c	ff312623	sw	x19,-20(x2)	  x2:0x800081e4 x19:0x3b41b804 PA:0x800081d0
        7205000	       719	80000e50	001e0db3	add	x27,x28,x1	 x28:0x80009f84  x1:0x3d0e0e0c x27=0xbd0ead90
        7215000	       720	80000e54	00000013	addi	x0,x0,0	  x0:0x00000000
        7225000	       721	80000e58	00ff77b3	and	x15,x30,x15	 x30:0x0000c37f x15:0x0000022b x15=0x0000022b
        7235000	       722	80000e5c	4085dc33	sra	x24,x11,x8	 x11:0x0000005a  x8:0xfc0004a0 x24=0x0000005a
        7245000	       723	80000e60	00db0f33	add	x30,x22,x13	 x22:0x01cc4d29 x13:0xffffffc2 x30=0x01cc4ceb
        7255000	       724	80000e64	03e10a83	lb	x21,62(x2)	  x2:0x800081e4 x21=0x00000012 PA:0x80008222
        7265000	       725	80000e68	a32eef13	ori	x30,x29,-1486	 x29:0x00000000 x30=0xfffffa32
        7275000	       726	80000e6c	b1087413	andi	x8,x16,-1264	 x16:0x80009fc4  x8=0x80009b00
        7285000	       727	80000e70	00a63433	sltu	x8,x12,x10	 x12:0xffffff96 x10:0xccbc3d84  x8=0x00000000
        7295000	       728	80000e74	0191f2b3	and	x5,x3,x25	  x3:0x7b658e30 x25:0x80009f84  x5=0x00008e00
        7305000	       729	80000e78	e63d0493	addi	x9,x26,-413	 x26:0x80000000  x9=0x7ffffe63
        7315000	       730	80000e7c	cb4e4a13	xori	x20,x28,-844	 x28:0x80009f84 x20=0x7fff6330
        7325000	       731	80000e80	00fec5b3	xor	x11,x29,x15	 x29:0x00000000 x15:0x0000022b x11=0x0000022b
        7335000	       732	80000e84	ffa10523	sb	x26,-22(x2)	  x2:0x800081e4 x26:0x80000000 PA:0x800081ce
        7345000	       733	80000e88	02710203	lb	x4,39(x2)	  x2:0x800081e4  x4=0x0000004b PA:0x8000820b
        7355000	       734	80000e8c	00000013	addi	x0,x0,0	  x0:0x00000000
        7365000	       735	80000e90	5bc4bf37	lui	x30,0x5bc4b	 x30=0x5bc4b000
        7375000	       736	80000e94	007105a3	sb	x7,11(x2)	  x2:0x800081e4  x7:0x3b41b1da PA:0x800081ef
        7385000	       737	80000e98	27e57a13	andi	x20,x10,638	 x10:0xccbc3d84 x20=0x00000004
        7395000	       738	80000e9c	00ab8ab3	add	x21,x23,x10	 x23:0x0001ffff x10:0xccbc3d84 x21=0xccbe3d83
        7405000	       739	80000ea0	dccbb713	sltiu	x14,x23,-564	 x23:0x0001ffff x14=0x00000001
        7415000	       740	80000ea4	ffd14e83	lbu	x29,-3(x2)	  x2:0x800081e4 x29=0x00000072 PA:0x800081e1
        7425000	       741	80000ea8	65020c93	addi	x25,x4,1616	  x4:0x0000004b x25=0x0000069b
        7435000	       742	80000eac	040de063	bltu	x27,x0,80000eec	 x27:0xbd0ead90  x0:0x00000000
        7445000	       743	80000eb0	00641e63	bne	x8,x6,80000ecc	  x8:0x00000000  x6:0x80009d80
        7455000	       744	00000000	00000013	addi	x0,x0,0	  x0:0x00000000
        7465000	       745	80000ec8	00000013	addi	x0,x0,0	  x0:0x00000000
        7475000	       746	80000ecc	01982eb3	slt	x29,x16,x25	 x16:0x80009fc4 x25:0x0000069b x29=0x00000001
        7485000	       747	80000ed0	4861cd93	xori	x27,x3,1158	  x3:0x7b658e30 x27=0x7b658ab6
        7495000	       748	80000ed4	c792b313	sltiu	x6,x5,-903	  x5:0x00008e00  x6=0x00000001
        7505000	       749	80000ed8	05466063	bltu	x12,x20,80000f18	 x12:0xffffff96 x20:0x00000004
        7515000	       750	80000edc	01ad7e63	bgeu	x26,x26,80000ef8	 x26:0x80000000 x26:0x80000000
        7525000	       751	00000000	00000013	addi	x0,x0,0	  x0:0x00000000
        7535000	       752	80000ef4	00000013	addi	x0,x0,0	  x0:0x00000000
        7545000	       753	80000ef8	00431263	bne	x6,x4,80000efc	  x6:0x00000001  x4:0x0000004b
        7555000	       754	00000000	00000013	addi	x0,x0,0	  x0:0x00000000
        7565000	       755	80000ef8	00000013	addi	x0,x0,0	  x0:0x00000000
        7575000	       756	80000efc	011a9713	slli	x14,x21,0x11	 x21:0xccbe3d83 x14=0x7b060000
        7585000	       757	80000f00	00000013	addi	x0,x0,0	  x0:0x00000000
        7595000	       758	80000f04	41510db3	sub	x27,x2,x21	  x2:0x800081e4 x21:0xccbe3d83 x27=0xb3424461
        7605000	       759	80000f08	012d2633	slt	x12,x26,x18	 x26:0x80000000 x18:0x00000100 x12=0x00000001
        7615000	       760	80000f0c	410ddb93	srai	x23,x27,0x10	 x27:0xb3424461 x23=0xffffb342
        7625000	       761	80000f10	012b0b33	add	x22,x22,x18	 x22:0x01cc4d29 x18:0x00000100 x22=0x01cc4e29
        7635000	       762	80000f14	87078b93	addi	x23,x15,-1936	 x15:0x0000022b x23=0xfffffa9b
        7645000	       763	80000f18	41a18fb3	sub	x31,x3,x26	  x3:0x7b658e30 x26:0x80000000 x31=0xfb658e30
        7655000	       764	80000f1c	bdb6cc13	xori	x24,x13,-1061	 x13:0xffffffc2 x24=0x00000419
        7665000	       765	80000f20	0194d463	bge	x9,x25,80000f28	  x9:0x7ffffe63 x25:0x0000069b
        7675000	       766	00000000	00000013	addi	x0,x0,0	  x0:0x00000000
        7685000	       767	80000f24	00000013	addi	x0,x0,0	  x0:0x00000000
        7695000	       768	80000f28	01e1f6b3	and	x13,x3,x30	  x3:0x7b658e30 x30:0x5bc4b000 x13=0x5b448000
        7705000	       769	80000f2c	72f2b793	sltiu	x15,x5,1839	  x5:0x00008e00 x15=0x00000000
        7715000	       770	80000f30	c4dde993	ori	x19,x27,-947	 x27:0xb3424461 x19=0xfffffc6d
        7725000	       771	80000f34	01629433	sll	x8,x5,x22	  x5:0x00008e00 x22:0x01cc4e29  x8=0x011c0000
        7735000	       772	80000f38	00297cb3	and	x25,x18,x2	 x18:0x00000100  x2:0x800081e4 x25=0x00000100
        7745000	       773	80000f3c	40df80b3	sub	x1,x31,x13	 x31:0xfb658e30 x13:0x5b448000  x1=0xa0210e30
        7755000	       774	80000f40	28a43413	sltiu	x8,x8,650	  x8:0x011c0000  x8=0x00000000
        7765000	       775	80000f44	f5eb3713	sltiu	x14,x22,-162	 x22:0x01cc4e29 x14=0x00000001
        7775000	       776	80000f48	df86f313	andi	x6,x13,-520	 x13:0x5b448000  x6=0x5b448000
        7785000	       777	80000f4c	414401b3	sub	x3,x8,x20	  x8:0x00000000 x20:0x00000004  x3=0xfffffffc
        7795000	       778	80000f50	0027f6b3	and	x13,x15,x2	 x15:0x00000000  x2:0x800081e4 x13=0x00000000
        7805000	       779	80000f54	73752313	slti	x6,x10,1847	 x10:0xccbc3d84  x6=0x00000001
        7815000	       780	80000f58	00f05113	srli	x2,x0,0xf	  x0:0x00000000  x2=0x00000000
        7825000	       781	80000f5c	5447e893	ori	x17,x15,1348	 x15:0x00000000 x17=0x00000544
        7835000	       782	80000f60	900fa337	lui	x6,0x900fa	  x6=0x900fa000
        7845000	       783	80000f64	002b18b3	sll	x17,x22,x2	 x22:0x01cc4e29  x2:0x00000000 x17=0x01cc4e29
        7855000	       784	80000f68	d37b0037	lui	x0,0xd37b0	
        7865000	       785	80000f6c	015d5fb3	srl	x31,x26,x21	 x26:0x80000000 x21:0xccbe3d83 x31=0x10000000
        7875000	       786	80000f70	408e04b3	sub	x9,x28,x8	 x28:0x80009f84  x8:0x00000000  x9=0x80009f84
        7885000	       787	80000f74	004c38b3	sltu	x17,x24,x4	 x24:0x00000419  x4:0x0000004b x17=0x00000000
        7895000	       788	80000f78	00007117	auipc	x2,0x7	  x2=0x80007f74
        7905000	       789	80000f7c	2e710113	addi	x2,x2,743	  x2:0x80007f74  x2=0x8000825b
        7915000	       790	80000f80	ff810f03	lb	x30,-8(x2)	  x2:0x8000825b x30=0x00000025 PA:0x80008253
        7925000	       791	00000000	00000013	addi	x0,x0,0	  x0:0x00000000
        7935000	       792	80000f84	fde48c13	addi	x24,x9,-34	  x9:0x80009f84 x24=0x80009f62
        7945000	       793	80000f88	ff610783	lb	x15,-10(x2)	  x2:0x8000825b x15=0x0000002a PA:0x80008251
        7955000	       794	80000f8c	fff11a03	lh	x20,-1(x2)	  x2:0x8000825b x20=0x00006da7 PA:0x8000825a
        7965000	       795	80000f90	ff310823	sb	x19,-16(x2)	  x2:0x8000825b x19:0xfffffc6d PA:0x8000824b
        7975000	       796	80000f94	00c10623	sb	x12,12(x2)	  x2:0x8000825b x12:0x00000001 PA:0x80008267
        7985000	       797	80000f98	00515183	lhu	x3,5(x2)	  x2:0x8000825b  x3=0x0000cb98 PA:0x80008260
        7995000	       798	80000f9c	00000013	addi	x0,x0,0	  x0:0x00000000
        8005000	       799	80000fa0	ff410a23	sb	x20,-12(x2)	  x2:0x8000825b x20:0x00006da7 PA:0x8000824f
        8015000	       800	80000fa4	00b14603	lbu	x12,11(x2)	  x2:0x8000825b x12=0x00000022 PA:0x80008266
        8025000	       801	80000fa8	01110023	sb	x17,0(x2)	  x2:0x8000825b x17:0x00000000 PA:0x8000825b
        8035000	       802	80000fac	ff912883	lw	x17,-7(x2)	  x2:0x8000825b x17=0xe49d9dd5 PA:0x80008254
        8045000	       803	80000fb0	fe810f23	sb	x8,-2(x2)	  x2:0x8000825b  x8:0x00000000 PA:0x80008259
        8055000	       804	80000fb4	00210083	lb	x1,2(x2)	  x2:0x8000825b  x1=0xffffffa1 PA:0x8000825d
        8065000	       805	80000fb8	00511683	lh	x13,5(x2)	  x2:0x8000825b x13=0xffffcb98 PA:0x80008260
        8075000	       806	80000fbc	0a33edb7	lui	x27,0xa33e	 x27=0x0a33e000
        8085000	       807	80000fc0	00710523	sb	x7,10(x2)	  x2:0x8000825b  x7:0x3b41b1da PA:0x80008265
        8095000	       808	80000fc4	00000013	addi	x0,x0,0	  x0:0x00000000
        8105000	       809	80000fc8	6ab8bc93	sltiu	x25,x17,1707	 x17:0xe49d9dd5 x25=0x00000000
        8115000	       810	80000fcc	00410283	lb	x5,4(x2)	  x2:0x8000825b  x5=0xffffffda PA:0x8000825f
        8125000	       811	80000fd0	dc414193	xori	x3,x2,-572	  x2:0x8000825b  x3=0x7fff7f9f
        8135000	       812	80000fd4	01be4fb3	xor	x31,x28,x27	 x28:0x80009f84 x27:0x0a33e000 x31=0x8a337f84
        8145000	       813	80000fd8	ffe10483	lb	x9,-2(x2)	  x2:0x8000825b  x9=0x00000000 PA:0x80008259
        8155000	       814	80000fdc	00d14e83	lbu	x29,13(x2)	  x2:0x8000825b x29=0x000000d7 PA:0x80008268
        8165000	       815	80000fe0	00414503	lbu	x10,4(x2)	  x2:0x8000825b x10=0x000000da PA:0x8000825f
        8175000	       816	80000fe4	00000013	addi	x0,x0,0	  x0:0x00000000
        8185000	       817	80000fe8	41e753b3	sra	x7,x14,x30	 x14:0x00000001 x30:0x00000025  x7=0x00000000
        8195000	       818	80000fec	008f1cb3	sll	x25,x30,x8	 x30:0x00000025  x8:0x00000000 x25=0x00000025
        8205000	       819	80000ff0	12cc7d93	andi	x27,x24,300	 x24:0x80009f62 x27=0x00000120
        8215000	       820	80000ff4	00a10c83	lb	x25,10(x2)	  x2:0x8000825b x25=0xffffffda PA:0x80008265
        8225000	       821	80000ff8	00f15283	lhu	x5,15(x2)	  x2:0x8000825b  x5=0x00002cff PA:0x8000826a
        8235000	       822	80000ffc	01e99233	sll	x4,x19,x30	 x19:0xfffffc6d x30:0x00000025  x4=0xffff8da0
        8245000	       823	80001000	fec10da3	sb	x12,-5(x2)	  x2:0x8000825b x12:0x00000022 PA:0x80008256
        8255000	       824	80001004	afa88213	addi	x4,x17,-1286	 x17:0xe49d9dd5  x4=0xe49d98cf
        8265000	       825	80001008	00614703	lbu	x14,6(x2)	  x2:0x8000825b x14=0x000000cb PA:0x80008261
        8275000	       826	8000100c	413804b3	sub	x9,x16,x19	 x16:0x80009fc4 x19:0xfffffc6d  x9=0x8000a357
        8285000	       827	80001010	019dd2b3	srl	x5,x27,x25	 x27:0x00000120 x25:0xffffffda  x5=0x00000000
        8295000	       828	80001014	00014683	lbu	x13,0(x2)	  x2:0x8000825b x13=0x00000000 PA:0x8000825b
        8305000	       829	80001018	01f792b3	sll	x5,x15,x31	 x15:0x0000002a x31:0x8a337f84  x5=0x000002a0
        8315000	       830	8000101c	2b486793	ori	x15,x16,692	 x16:0x80009fc4 x15=0x80009ff4
        8325000	       831	80001020	03fb0e63	beq	x22,x31,8000105c	 x22:0x01cc4e29 x31:0x8a337f84
        8335000	       832	80001024	00dc63b3	or	x7,x24,x13	 x24:0x80009f62 x13:0x00000000  x7=0x80009f62
        8345000	       833	80001028	a0b0c797	auipc	x15,0xa0b0c	 x15=0x20b0d024
        8355000	       834	8000102c	b54ecb17	auipc	x22,0xb54ec	 x22=0x354ed028
        8365000	       835	80001030	40a38533	sub	x10,x7,x10	  x7:0x80009f62 x10:0x000000da x10=0x80009e88
        8375000	       836	80001034	01352933	slt	x18,x10,x19	 x10:0x80009e88 x19:0xfffffc6d x18=0x00000001
        8385000	       837	80001038	014b0e63	beq	x22,x20,80001054	 x22:0x354ed028 x20:0x00006da7
        8395000	       838	8000103c	1196c417	auipc	x8,0x1196c	  x8=0x9196d038
        8405000	       839	80001040	03fe0463	beq	x28,x31,80001068	 x28:0x80009f84 x31:0x8a337f84
        8415000	       840	80001044	039e4c63	blt	x28,x25,8000107c	 x28:0x80009f84 x25:0xffffffda
        8425000	       841	00000000	00000013	addi	x0,x0,0	  x0:0x00000000
        8435000	       842	80001078	00000013	addi	x0,x0,0	  x0:0x00000000
        8445000	       843	8000107c	044dc063	blt	x27,x4,800010bc	 x27:0x00000120  x4:0xe49d98cf
        8455000	       844	80001080	6a027893	andi	x17,x4,1696	  x4:0xe49d98cf x17=0x00000080
        8465000	       845	80001084	007fdc63	bge	x31,x7,8000109c	 x31:0x8a337f84  x7:0x80009f62
        8475000	       846	00000000	00000013	addi	x0,x0,0	  x0:0x00000000
        8485000	       847	80001098	00000013	addi	x0,x0,0	  x0:0x00000000
        8495000	       848	8000109c	00dd1ab3	sll	x21,x26,x13	 x26:0x80000000 x13:0x00000000 x21=0x80000000
        8505000	       849	800010a0	01812633	slt	x12,x2,x24	  x2:0x8000825b x24:0x80009f62 x12=0x00000001
        8515000	       850	800010a4	01537ab3	and	x21,x6,x21	  x6:0x900fa000 x21:0x80000000 x21=0x80000000
        8525000	       851	800010a8	8177f213	andi	x4,x15,-2025	 x15:0x20b0d024  x4=0x20b0d004
        8535000	       852	800010ac	004a4733	xor	x14,x20,x4	 x20:0x00006da7  x4:0x20b0d004 x14=0x20b0bda3
        8545000	       853	800010b0	602d2693	slti	x13,x26,1538	 x26:0x80000000 x13=0x00000001
        8555000	       854	800010b4	00000013	addi	x0,x0,0	  x0:0x00000000
        8565000	       855	800010b8	03fbd663	bge	x23,x31,800010e4	 x23:0xfffffa9b x31:0x8a337f84
        8575000	       856	00000000	00000013	addi	x0,x0,0	  x0:0x00000000
        8585000	       857	800010e0	00000013	addi	x0,x0,0	  x0:0x00000000
        8595000	       858	800010e4	01ae4133	xor	x2,x28,x26	 x28:0x80009f84 x26:0x80000000  x2=0x00009f84
        8605000	       859	800010e8	00c1f4b3	and	x9,x3,x12	  x3:0x7fff7f9f x12:0x00000001  x9=0x00000001
        8615000	       860	800010ec	72764797	auipc	x15,0x72764	 x15=0xf27650e8
        8625000	       861	800010f0	01b18533	add	x10,x3,x27	  x3:0x7fff7f9f x27:0x00000120 x10=0x7fff80bf
        8635000	       862	800010f4	40485693	srai	x13,x16,0x4	 x16:0x80009fc4 x13=0xf80009fc
        8645000	       863	800010f8	b6206013	ori	x0,x0,-1182	  x0:0x00000000
        8655000	       864	800010fc	58230393	addi	x7,x6,1410	  x6:0x900fa000  x7=0x900fa582
        8665000	       865	80001100	0104da63	bge	x9,x16,80001114	  x9:0x00000001 x16:0x80009fc4
        8675000	       866	00000000	00000013	addi	x0,x0,0	  x0:0x00000000
        8685000	       867	80001110	00000013	addi	x0,x0,0	  x0:0x00000000
        8695000	       868	80001114	216f7e93	andi	x29,x30,534	 x30:0x00000025 x29=0x00000004
        8705000	       869	80001118	04075263	bge	x14,x0,8000115c	 x14:0x20b0bda3  x0:0x00000000
        8715000	       870	00000000	00000013	addi	x0,x0,0	  x0:0x00000000
        8725000	       871	80001158	00000013	addi	x0,x0,0	  x0:0x00000000
        8735000	       872	8000115c	044c7263	bgeu	x24,x4,800011a0	 x24:0x80009f62  x4:0x20b0d004
        8745000	       873	00000000	00000013	addi	x0,x0,0	  x0:0x00000000
        8755000	       874	8000119c	00000013	addi	x0,x0,0	  x0:0x00000000
        8765000	       875	800011a0	0541e263	bltu	x3,x20,800011e4	  x3:0x7fff7f9f x20:0x00006da7
        8775000	       876	800011a4	fbf6ca93	xori	x21,x13,-65	 x13:0xf80009fc x21=0x07fff643
        8785000	       877	800011a8	016e9db3	sll	x27,x29,x22	 x29:0x00000004 x22:0x354ed028 x27=0x00000400
        8795000	       878	800011ac	b7c8fe93	andi	x29,x17,-1156	 x17:0x00000080 x29=0x00000000
        8805000	       879	800011b0	a6e70f93	addi	x31,x14,-1426	 x14:0x20b0bda3 x31=0x20b0b811
        8815000	       880	800011b4	d2bfabb7	lui	x23,0xd2bfa	 x23=0xd2bfa000
        8825000	       881	800011b8	1fe72b93	slti	x23,x14,510	 x14:0x20b0bda3 x23=0x00000000
        8835000	       882	800011bc	ff3ee193	ori	x3,x29,-13	 x29:0x00000000  x3=0xfffffff3
        8845000	       883	800011c0	00000013	addi	x0,x0,0	  x0:0x00000000
        8855000	       884	800011c4	017d3933	sltu	x18,x26,x23	 x26:0x80000000 x23:0x00000000 x18=0x00000000
        8865000	       885	800011c8	03b85463	bge	x16,x27,800011f0	 x16:0x80009fc4 x27:0x00000400
        8875000	       886	800011cc	b1a28893	addi	x17,x5,-1254	  x5:0x000002a0 x17=0xfffffdba
        8885000	       887	800011d0	00e9c133	xor	x2,x19,x14	 x19:0xfffffc6d x14:0x20b0bda3  x2=0xdf4f41ce
        8895000	       888	800011d4	8bb7a693	slti	x13,x15,-1861	 x15:0xf27650e8 x13=0x00000001
        8905000	       889	800011d8	656c67b7	lui	x15,0x656c6	 x15=0x656c6000
        8915000	       890	800011dc	d0294d93	xori	x27,x18,-766	 x18:0x00000000 x27=0xfffffd02
        8925000	       891	800011e0	015772b3	and	x5,x14,x21	 x14:0x20b0bda3 x21:0x07fff643  x5=0x00b0b403
        8935000	       892	800011e4	fc24f213	andi	x4,x9,-62	  x9:0x00000001  x4=0x00000000
        8945000	       893	800011e8	0194e463	bltu	x9,x25,800011f0	  x9:0x00000001 x25:0xffffffda
        8955000	       894	00000000	00000013	addi	x0,x0,0	  x0:0x00000000
        8965000	       895	800011ec	00000013	addi	x0,x0,0	  x0:0x00000000
        8975000	       896	800011f0	000a1f93	slli	x31,x20,0x0	 x20:0x00006da7 x31=0x00006da7
        8985000	       897	800011f4	00000013	addi	x0,x0,0	  x0:0x00000000
        8995000	       898	800011f8	b35c7b93	andi	x23,x24,-1227	 x24:0x80009f62 x23=0x80009b20
        9005000	       899	800011fc	01a01793	slli	x15,x0,0x1a	  x0:0x00000000 x15=0x00000000
        9015000	       900	80001200	27043913	sltiu	x18,x8,624	  x8:0x9196d038 x18=0x00000000
        9025000	       901	80001204	00000013	addi	x0,x0,0	  x0:0x00000000
        9035000	       902	80001208	21f72a93	slti	x21,x14,543	 x14:0x20b0bda3 x21=0x00000000
        9045000	       903	8000120c	f6b56293	ori	x5,x10,-149	 x10:0x7fff80bf  x5=0xffffffff
        9055000	       904	80001210	9c66ea13	ori	x20,x13,-1594	 x13:0x00000001 x20=0xfffff9c7
        9065000	       905	80001214	004585b3	add	x11,x11,x4	 x11:0x0000022b  x4:0x00000000 x11=0x0000022b
        9075000	       906	80001218	41fc0cb3	sub	x25,x24,x31	 x24:0x80009f62 x31:0x00006da7 x25=0x800031bb
        9085000	       907	8000121c	005924b3	slt	x9,x18,x5	 x18:0x00000000  x5:0xffffffff  x9=0x00000000
        9095000	       908	80001220	006efe63	bgeu	x29,x6,8000123c	 x29:0x00000000  x6:0x900fa000
        9105000	       909	80001224	4156d433	sra	x8,x13,x21	 x13:0x00000001 x21:0x00000000  x8=0x00000001
        9115000	       910	80001228	01e322b3	slt	x5,x6,x30	  x6:0x900fa000 x30:0x00000025  x5=0x00000001
        9125000	       911	8000122c	01c55693	srli	x13,x10,0x1c	 x10:0x7fff80bf x13=0x00000007
        9135000	       912	80001230	4138db93	srai	x23,x17,0x13	 x17:0xfffffdba x23=0xffffffff
        9145000	       913	80001234	0113b7b3	sltu	x15,x7,x17	  x7:0x900fa582 x17:0xfffffdba x15=0x00000001
        9155000	       914	80001238	00000013	addi	x0,x0,0	  x0:0x00000000
        9165000	       915	8000123c	00a6f4b3	and	x9,x13,x10	 x13:0x00000007 x10:0x7fff80bf  x9=0x00000007
        9175000	       916	80001240	5a253713	sltiu	x14,x10,1442	 x10:0x7fff80bf x14=0x00000000
        9185000	       917	80001244	003e3133	sltu	x2,x28,x3	 x28:0x80009f84  x3:0xfffffff3  x2=0x00000001
        9195000	       918	80001248	00330b33	add	x22,x6,x3	  x6:0x900fa000  x3:0xfffffff3 x22=0x900f9ff3
        9205000	       919	8000124c	01804e63	blt	x0,x24,80001268	  x0:0x00000000 x24:0x80009f62
        9215000	       920	80001250	019a02b3	add	x5,x20,x25	 x20:0xfffff9c7 x25:0x800031bb  x5=0x80002b82
        9225000	       921	80001254	76003693	sltiu	x13,x0,1888	  x0:0x00000000 x13=0x00000001
        9235000	       922	80001258	055d7063	bgeu	x26,x21,80001298	 x26:0x80000000 x21:0x00000000
        9245000	       923	00000000	00000013	addi	x0,x0,0	  x0:0x00000000
        9255000	       924	80001294	00000013	addi	x0,x0,0	  x0:0x00000000
        9265000	       925	80001298	00f7ec63	bltu	x15,x15,800012b0	 x15:0x00000001 x15:0x00000001
        9275000	       926	8000129c	01537cb3	and	x25,x6,x21	  x6:0x900fa000 x21:0x00000000 x25=0x00000000
        9285000	       927	800012a0	04610263	beq	x2,x6,800012e4	  x2:0x00000001  x6:0x900fa000
        9295000	       928	800012a4	01e75e63	bge	x14,x30,800012c0	 x14:0x00000000 x30:0x00000025
        9305000	       929	800012a8	00000013	addi	x0,x0,0	  x0:0x00000000
        9315000	       930	800012ac	b8e5bc13	sltiu	x24,x11,-1138	 x11:0x0000022b x24=0x00000001
        9325000	       931	800012b0	032df663	bgeu	x27,x18,800012dc	 x27:0xfffffd02 x18:0x00000000
        9335000	       932	00000000	00000013	addi	x0,x0,0	  x0:0x00000000
        9345000	       933	800012d8	00000013	addi	x0,x0,0	  x0:0x00000000
        9355000	       934	800012dc	014c92b3	sll	x5,x25,x20	 x25:0x00000000 x20:0xfffff9c7  x5=0x00000000
        9365000	       935	800012e0	f5bd4013	xori	x0,x26,-165	 x26:0x80000000
        9375000	       936	800012e4	000f6933	or	x18,x30,x0	 x30:0x00000025  x0:0x00000000 x18=0x00000025
        9385000	       937	800012e8	017dc633	xor	x12,x27,x23	 x27:0xfffffd02 x23:0xffffffff x12=0x000002fd
        9395000	       938	800012ec	41c7d7b3	sra	x15,x15,x28	 x15:0x00000001 x28:0x80009f84 x15=0x00000000
        9405000	       939	800012f0	408b5633	sra	x12,x22,x8	 x22:0x900f9ff3  x8:0x00000001 x12=0xc807cff9
        9415000	       940	800012f4	015cefb3	or	x31,x25,x21	 x25:0x00000000 x21:0x00000000 x31=0x00000000
        9425000	       941	800012f8	00ae1bb3	sll	x23,x28,x10	 x28:0x80009f84 x10:0x7fff80bf x23=0x00000000
        9435000	       942	800012fc	01a306b3	add	x13,x6,x26	  x6:0x900fa000 x26:0x80000000 x13=0x100fa000
        9445000	       943	80001300	c10dc617	auipc	x12,0xc10dc	 x12=0x410dd2fc
        9455000	       944	80001304	01b56263	bltu	x10,x27,80001308	 x10:0x7fff80bf x27:0xfffffd02
        9465000	       945	00000000	00000013	addi	x0,x0,0	  x0:0x00000000
        9475000	       946	80001304	00000013	addi	x0,x0,0	  x0:0x00000000
        9485000	       947	80001308	00fe4e63	blt	x28,x15,80001324	 x28:0x80009f84 x15:0x00000000
        9495000	       948	00000000	00000013	addi	x0,x0,0	  x0:0x00000000
        9505000	       949	80001320	00000013	addi	x0,x0,0	  x0:0x00000000
        9515000	       950	80001324	00ca13b3	sll	x7,x20,x12	 x20:0xfffff9c7 x12:0x410dd2fc  x7=0x70000000
        9525000	       951	80001328	0108a5b3	slt	x11,x17,x16	 x17:0xfffffdba x16:0x80009fc4 x11=0x00000000
        9535000	       952	8000132c	4181d233	sra	x4,x3,x24	  x3:0xfffffff3 x24:0x00000001  x4=0xfffffff9
        9545000	       953	80001330	0062bdb3	sltu	x27,x5,x6	  x5:0x00000000  x6:0x900fa000 x27=0x00000001
        9555000	       954	80001334	00001417	auipc	x8,0x1	  x8=0x80002330
        9565000	       955	80001338	6e440413	addi	x8,x8,1764	  x8:0x80002330  x8=0x80002a14
        9575000	       956	8000133c	00ab0793	addi	x15,x22,10	 x22:0x900f9ff3 x15=0x900f9ffd
        9585000	       957	80001340	026dad93	slti	x27,x27,38	 x27:0x00000001 x27=0x00000001
        9595000	       958	80001344	0156c1b3	xor	x3,x13,x21	 x13:0x100fa000 x21:0x00000000  x3=0x100fa000
        9605000	       959	80001348	d3b40413	addi	x8,x8,-709	  x8:0x80002a14  x8=0x8000274f
        9615000	       960	8000134c	4122d533	sra	x10,x5,x18	  x5:0x00000000 x18:0x00000025 x10=0x00000000
        9625000	       961	80001350	01c969b3	or	x19,x18,x28	 x18:0x00000025 x28:0x80009f84 x19=0x80009fa5
        9635000	       962	80001354	011f0463	beq	x30,x17,8000135c	 x30:0x00000025 x17:0xfffffdba
        9645000	       963	80001358	cd3c7513	andi	x10,x24,-813	 x24:0x00000001 x10=0x00000001
        9655000	       964	8000135c	2c540a67	jalr	x20,x8,709	  x8:0x8000274f x20=0x8000135c
        9665000	       965	00000000	00000013	addi	x0,x0,0	  x0:0x00000000
        9675000	       966	80002a14	00000013	addi	x0,x0,0	  x0:0x00000000
        9685000	       967	80002a18	01bef663	bgeu	x29,x27,80002a24	 x29:0x00000000 x27:0x00000001
        9695000	       968	80002a1c	01aee633	or	x12,x29,x26	 x29:0x00000000 x26:0x80000000 x12=0x80000000
        9705000	       969	80002a20	002042b3	xor	x5,x0,x2	  x0:0x00000000  x2:0x00000001  x5=0x00000001
        9715000	       970	80002a24	fc0e0e13	addi	x28,x28,-64	 x28:0x80009f84 x28=0x80009f44
        9725000	       971	80002a28	4142d133	sra	x2,x5,x20	  x5:0x00000001 x20:0x8000135c  x2=0x00000000
        9735000	       972	80002a2c	00b6bc33	sltu	x24,x13,x11	 x13:0x100fa000 x11:0x00000000 x24=0x00000000
        9745000	       973	80002a30	01195bb3	srl	x23,x18,x17	 x18:0x00000025 x17:0xfffffdba x23=0x00000000
        9755000	       974	80002a34	01465233	srl	x4,x12,x20	 x12:0x80000000 x20:0x8000135c  x4=0x00000008
        9765000	       975	80002a38	40db50b3	sra	x1,x22,x13	 x22:0x900f9ff3 x13:0x100fa000  x1=0x900f9ff3
        9775000	       976	80002a3c	0071d593	srli	x11,x3,0x7	  x3:0x100fa000 x11=0x00201f40
        9785000	       977	80002a40	014e2223	sw	x20,4(x28)	 x28:0x80009f44 x20:0x8000135c PA:0x80009f48
        9795000	       978	80002a44	0044f733	and	x14,x9,x4	  x9:0x00000007  x4:0x00000008 x14=0x00000000
        9805000	       979	80002a48	a48a8113	addi	x2,x21,-1464	 x21:0x00000000  x2=0xfffffa48
        9815000	       980	80002a4c	00f96c33	or	x24,x18,x15	 x18:0x00000025 x15:0x900f9ffd x24=0x900f9ffd
        9825000	       981	80002a50	b5358993	addi	x19,x11,-1197	 x11:0x00201f40 x19=0x00201a93
        9835000	       982	80002a54	75f8fc93	andi	x25,x17,1887	 x17:0xfffffdba x25=0x0000051a
        9845000	       983	80002a58	012c2733	slt	x14,x24,x18	 x24:0x900f9ffd x18:0x00000025 x14=0x00000001
        9855000	       984	80002a5c	01eeb433	sltu	x8,x29,x30	 x29:0x00000000 x30:0x00000025  x8=0x00000001
        9865000	       985	80002a60	005bd7b3	srl	x15,x23,x5	 x23:0x00000000  x5:0x00000001 x15=0x00000000
        9875000	       986	80002a64	00b05393	srli	x7,x0,0xb	  x0:0x00000000  x7=0x00000000
        9885000	       987	80002a68	b7cffa6f	jal	x20,80002a68	 x20=0x80002a68
        9895000	       988	00000000	00000013	addi	x0,x0,0	  x0:0x00000000
        9905000	       989	80001de0	00000013	addi	x0,x0,0	  x0:0x00000000
        9915000	       990	80001de4	01607663	bgeu	x0,x22,80001df0	  x0:0x00000000 x22:0x900f9ff3
        9925000	       991	80001de8	2d713893	sltiu	x17,x2,727	  x2:0xfffffa48 x17=0x00000000
        9935000	       992	80001dec	015fdd93	srli	x27,x31,0x15	 x31:0x00000000 x27=0x00000000
        9945000	       993	80001df0	fece0e13	addi	x28,x28,-20	 x28:0x80009f44 x28=0x80009f30
        9955000	       994	80001df4	014e2223	sw	x20,4(x28)	 x28:0x80009f30 x20:0x80002a68 PA:0x80009f34
        9965000	       995	80001df8	00000013	addi	x0,x0,0	  x0:0x00000000
        9975000	       996	80001dfc	013c5693	srli	x13,x24,0x13	 x24:0x900f9ffd x13=0x00001201
        9985000	       997	80001e00	00004417	auipc	x8,0x4	  x8=0x80005dfc
        9995000	       998	80001e04	e9440413	addi	x8,x8,-364	  x8:0x80005dfc  x8=0x80005c90
       10005000	       999	80001e08	c0e40413	addi	x8,x8,-1010	  x8:0x80005c90  x8=0x8000589e
       10015000	      1000	80001e0c	41535733	sra	x14,x6,x21	  x6:0x900fa000 x21:0x00000000 x14=0x900fa000
       10025000	      1001	80001e10	00ca42b3	xor	x5,x20,x12	 x20:0x80002a68 x12:0x80000000  x5=0x00002a68
       10035000	      1002	80001e14	01442a33	slt	x20,x8,x20	  x8:0x8000589e x20:0x80002a68 x20=0x00000000
       10045000	      1003	80001e18	011dc863	blt	x27,x17,80001e28	 x27:0x00000000 x17:0x00000000
       10055000	      1004	80001e1c	014b1913	slli	x18,x22,0x14	 x22:0x900f9ff3 x18=0xff300000
       10065000	      1005	80001e20	0063d193	srli	x3,x7,0x6	  x7:0x00000000  x3=0x00000000
       10075000	      1006	80001e24	001135b3	sltu	x11,x2,x1	  x2:0xfffffa48  x1:0x900f9ff3 x11=0x00000000
       10085000	      1007	80001e28	3f340a67	jalr	x20,x8,1011	  x8:0x8000589e x20=0x80001e28
       10095000	      1008	00000000	00000013	addi	x0,x0,0	  x0:0x00000000
       10105000	      1009	80005c90	00000013	addi	x0,x0,0	  x0:0x00000000
       10115000	      1010	80005c94	012244b3	xor	x9,x4,x18	  x4:0x00000008 x18:0xff300000  x9=0xff300008
       10125000	      1011	80005c98	0033c4b3	xor	x9,x7,x3	  x7:0x00000000  x3:0x00000000  x9=0x00000000
       10135000	      1012	80005c9c	17c94113	xori	x2,x18,380	 x18:0xff300000  x2=0xff30017c
       10145000	      1013	80005ca0	01399663	bne	x19,x19,80005cac	 x19:0x00201a93 x19:0x00201a93
       10155000	      1014	80005ca4	82d93713	sltiu	x14,x18,-2003	 x18:0xff300000 x14=0x00000001
       10165000	      1015	80005ca8	20412f37	lui	x30,0x20412	 x30=0x20412000
       10175000	      1016	80005cac	fe0e0e13	addi	x28,x28,-32	 x28:0x80009f30 x28=0x80009f10
       10185000	      1017	80005cb0	014e2223	sw	x20,4(x28)	 x28:0x80009f10 x20:0x80001e28 PA:0x80009f14
       10195000	      1018	80005cb4	bfb1e713	ori	x14,x3,-1029	  x3:0x00000000 x14=0xfffffbfb
       10205000	      1019	80005cb8	01c94f33	xor	x30,x18,x28	 x18:0xff300000 x28:0x80009f10 x30=0x7f309f10
       10215000	      1020	80005cbc	e444bb93	sltiu	x23,x9,-444	  x9:0x00000000 x23=0x00000001
       10225000	      1021	80005cc0	00000013	addi	x0,x0,0	  x0:0x00000000
       10235000	      1022	80005cc4	016b8db3	add	x27,x23,x22	 x23:0x00000001 x22:0x900f9ff3 x27=0x900f9ff4
       10245000	      1023	80005cc8	291fa893	slti	x17,x31,657	 x31:0x00000000 x17=0x00000001
       10255000	      1024	80005ccc	7b968a13	addi	x20,x13,1977	 x13:0x00001201 x20=0x000019ba
       10265000	      1025	80005cd0	00702533	slt	x10,x0,x7	  x0:0x00000000  x7:0x00000000 x10=0x00000000
       10275000	      1026	80005cd4	00499113	slli	x2,x19,0x4	 x19:0x00201a93  x2=0x0201a930
       10285000	      1027	80005cd8	30a6e713	ori	x14,x13,778	 x13:0x00001201 x14=0x0000130b
       10295000	      1028	80005cdc	012e1033	sll	x0,x28,x18	 x28:0x80009f10 x18:0xff300000
       10305000	      1029	80005ce0	208c6213	ori	x4,x24,520	 x24:0x900f9ffd  x4=0x900f9ffd
       10315000	      1030	80005ce4	f926dc97	auipc	x25,0xf926d	 x25=0x79272ce0
       10325000	      1031	80005ce8	016691b3	sll	x3,x13,x22	 x13:0x00001201 x22:0x900f9ff3  x3=0x90080000
       10335000	      1032	80005cec	8589b613	sltiu	x12,x19,-1960	 x19:0x00201a93 x12=0x00000001
       10345000	      1033	80005cf0	01a51a63	bne	x10,x26,80005d04	 x10:0x00000000 x26:0x80000000
       10355000	      1034	00000000	00000013	addi	x0,x0,0	  x0:0x00000000
       10365000	      1035	80005d00	00000013	addi	x0,x0,0	  x0:0x00000000
       10375000	      1036	80005d04	f6075637	lui	x12,0xf6075	 x12=0xf6075000
       10385000	      1037	80005d08	97474213	xori	x4,x14,-1676	 x14:0x0000130b  x4=0xffffea7f
       10395000	      1038	80005d0c	4332c413	xori	x8,x5,1075	  x5:0x00002a68  x8=0x00002e5b
       10405000	      1039	80005d10	00f1fdb3	and	x27,x3,x15	  x3:0x90080000 x15:0x00000000 x27=0x00000000
       10415000	      1040	80005d14	408d5f33	sra	x30,x26,x8	 x26:0x80000000  x8:0x00002e5b x30=0xfffffff0
       10425000	      1041	80005d18	00a11193	slli	x3,x2,0xa	  x2:0x0201a930  x3=0x06a4c000
       10435000	      1042	80005d1c	005c7933	and	x18,x24,x5	 x24:0x900f9ffd  x5:0x00002a68 x18=0x00000a68
       10445000	      1043	80005d20	013ae233	or	x4,x21,x19	 x21:0x00000000 x19:0x00201a93  x4=0x00201a93
       10455000	      1044	80005d24	004e2a03	lw	x20,4(x28)	 x28:0x80009f10 x20=0x80001e28 PA:0x80009f14
       10465000	      1045	80005d28	020e0e13	addi	x28,x28,32	 x28:0x80009f10 x28=0x80009f30
       10475000	      1046	80005d2c	00481cb3	sll	x25,x16,x4	 x16:0x80009fc4  x4:0x00201a93 x25=0xfe200000
       10485000	      1047	80005d30	4183dc13	srai	x24,x7,0x18	  x7:0x00000000 x24=0x00000000
       10495000	      1048	80005d34	000a0093	addi	x1,x20,0	 x20:0x80001e28  x1=0x80001e28
       10505000	      1049	80005d38	000080e7	jalr	x1,x1,0	  x1:0x80001e28  x1=0x80005d38
       10515000	      1050	00000000	00000013	addi	x0,x0,0	  x0:0x00000000
       10525000	      1051	80001e28	00000013	addi	x0,x0,0	  x0:0x00000000
       10535000	      1052	80001e2c	01df17b3	sll	x15,x30,x29	 x30:0xfffffff0 x29:0x00000000 x15=0xfffffff0
       10545000	      1053	80001e30	a6575b37	lui	x22,0xa6575	 x22=0xa6575000
       10555000	      1054	80001e34	00598ab3	add	x21,x19,x5	 x19:0x00201a93  x5:0x00002a68 x21=0x002044fb
       10565000	      1055	80001e38	02c8e063	bltu	x17,x12,80001e58	 x17:0x00000001 x12:0xf6075000
       10575000	      1056	00000000	00000013	addi	x0,x0,0	  x0:0x00000000
       10585000	      1057	80001e54	00000013	addi	x0,x0,0	  x0:0x00000000
       10595000	      1058	80001e58	33c04a6f	jal	x20,80001e58	 x20=0x80001e58
       10605000	      1059	00000000	00000013	addi	x0,x0,0	  x0:0x00000000
       10615000	      1060	80006190	00000013	addi	x0,x0,0	  x0:0x00000000
       10625000	      1061	80006194	419cd393	srai	x7,x25,0x19	 x25:0xfe200000  x7=0xffffffff
       10635000	      1062	80006198	0192b033	sltu	x0,x5,x25	  x5:0x00002a68 x25:0xfe200000
       10645000	      1063	8000619c	018b6263	bltu	x22,x24,800061a0	 x22:0xa6575000 x24:0x00000000
       10655000	      1064	800061a0	ff8e0e13	addi	x28,x28,-8	 x28:0x80009f30 x28=0x80009f28
       10665000	      1065	800061a4	a9665cb7	lui	x25,0xa9665	 x25=0xa9665000
       10675000	      1066	800061a8	014a9593	slli	x11,x21,0x14	 x21:0x002044fb x11=0x4fb00000
       10685000	      1067	800061ac	0084fb33	and	x22,x9,x8	  x9:0x00000000  x8:0x00002e5b x22=0x00000000
       10695000	      1068	800061b0	2a10b717	auipc	x14,0x2a10b	 x14=0xaa1111ac
       10705000	      1069	800061b4	014e2223	sw	x20,4(x28)	 x28:0x80009f28 x20:0x80001e58 PA:0x80009f2c
       10715000	      1070	800061b8	b6482697	auipc	x13,0xb6482	 x13=0x364881b4
       10725000	      1071	800061bc	011ff3b3	and	x7,x31,x17	 x31:0x00000000 x17:0x00000001  x7=0x00000000
       10735000	      1072	800061c0	c371f713	andi	x14,x3,-969	  x3:0x06a4c000 x14=0x06a4c000
       10745000	      1073	800061c4	00002797	auipc	x15,0x2	 x15=0x800081c0
       10755000	      1074	800061c8	34d78793	addi	x15,x15,845	 x15:0x800081c0 x15=0x8000850d
       10765000	      1075	800061cc	68b5c993	xori	x19,x11,1675	 x11:0x4fb00000 x19=0x4fb0068b
       10775000	      1076	800061d0	01d81333	sll	x6,x16,x29	 x16:0x80009fc4 x29:0x00000000  x6=0x80009fc4
       10785000	      1077	800061d4	03078183	lb	x3,48(x15)	 x15:0x8000850d  x3=0x00000050 PA:0x8000853d
       10795000	      1078	800061d8	00d0ebb3	or	x23,x1,x13	  x1:0x80005d38 x13:0x364881b4 x23=0xb648ddbc
       10805000	      1079	800061dc	9ace6893	ori	x17,x28,-1620	 x28:0x80009f28 x17=0xffffffac
       10815000	      1080	800061e0	57c37093	andi	x1,x6,1404	  x6:0x80009fc4  x1=0x00000544
       10825000	      1081	800061e4	ff17db03	lhu	x22,-15(x15)	 x15:0x8000850d x22=0x000071d8 PA:0x800084fe
       10835000	      1082	800061e8	019cdc33	srl	x24,x25,x25	 x25:0xa9665000 x25:0xa9665000 x24=0xa9665000
       10845000	      1083	800061ec	802d0713	addi	x14,x26,-2046	 x26:0x80000000 x14=0x7ffff802
       10855000	      1084	800061f0	6d932c93	slti	x25,x6,1753	  x6:0x80009fc4 x25=0x00000001
       10865000	      1085	800061f4	006ca8b3	slt	x17,x25,x6	 x25:0x00000001  x6:0x80009fc4 x17=0x00000000
       10875000	      1086	800061f8	59872613	slti	x12,x14,1432	 x14:0x7ffff802 x12=0x00000000
       10885000	      1087	800061fc	00470c13	addi	x24,x14,4	 x14:0x7ffff802 x24=0x7ffff806
       10895000	      1088	80006200	009139b3	sltu	x19,x2,x9	  x2:0x0201a930  x9:0x00000000 x19=0x00000000
       10905000	      1089	80006204	ffa78c23	sb	x26,-8(x15)	 x15:0x8000850d x26:0x80000000 PA:0x80008505
       10915000	      1090	80006208	00000013	addi	x0,x0,0	  x0:0x00000000
       10925000	      1091	8000620c	b6070313	addi	x6,x14,-1184	 x14:0x7ffff802  x6=0x7ffff362
       10935000	      1092	80006210	3449b413	sltiu	x8,x19,836	 x19:0x00000000  x8=0x00000001
       10945000	      1093	80006214	0003b6b3	sltu	x13,x7,x0	  x7:0x00000000  x0:0x00000000 x13=0x00000000
       10955000	      1094	80006218	39082e97	auipc	x29,0x39082	 x29=0xb9088214
       10965000	      1095	8000621c	00000013	addi	x0,x0,0	  x0:0x00000000
       10975000	      1096	80006220	ffe7cf03	lbu	x30,-2(x15)	 x15:0x8000850d x30=0x000000a6 PA:0x8000850b
       10985000	      1097	80006224	ff978c03	lb	x24,-7(x15)	 x15:0x8000850d x24=0xffffffda PA:0x80008506
       10995000	      1098	80006228	0277d503	lhu	x10,39(x15)	 x15:0x8000850d x10=0x00005ad1 PA:0x80008534
       11005000	      1099	8000622c	89ab4b13	xori	x22,x22,-1894	 x22:0x000071d8 x22=0xffff8942
       11015000	      1100	80006230	4037dbb3	sra	x23,x15,x3	 x15:0x8000850d  x3:0x00000050 x23=0xffff8000
       11025000	      1101	80006234	fe07afa3	sw	x0,-1(x15)	 x15:0x8000850d  x0:0x00000000 PA:0x8000850c
       11035000	      1102	80006238	90a38397	auipc	x7,0x90a38	  x7=0x10a3e234
       11045000	      1103	8000623c	0027c903	lbu	x18,2(x15)	 x15:0x8000850d x18=0x00000000 PA:0x8000850f
       11055000	      1104	80006240	0177ce83	lbu	x29,23(x15)	 x15:0x8000850d x29=0x000000b8 PA:0x80008524
       11065000	      1105	80006244	00a23433	sltu	x8,x4,x10	  x4:0x00201a93 x10:0x00005ad1  x8=0x00000000
       11075000	      1106	80006248	02f78483	lb	x9,47(x15)	 x15:0x8000850d  x9=0x00000043 PA:0x8000853c
       11085000	      1107	8000624c	fd27c483	lbu	x9,-46(x15)	 x15:0x8000850d  x9=0x000000af PA:0x800084df
       11095000	      1108	80006250	00bf1eb3	sll	x29,x30,x11	 x30:0x000000a6 x11:0x4fb00000 x29=0x000000a6
       11105000	      1109	80006254	fdf78b03	lb	x22,-33(x15)	 x15:0x8000850d x22=0x00000028 PA:0x800084ec
       11115000	      1110	80006258	e5736113	ori	x2,x6,-425	  x6:0x7ffff362  x2=0xffffff77
       11125000	      1111	8000625c	02c16c63	bltu	x2,x12,80006294	  x2:0xffffff77 x12:0x00000000
       11135000	      1112	80006260	01d71013	slli	x0,x14,0x1d	 x14:0x7ffff802
       11145000	      1113	80006264	001b0c63	beq	x22,x1,8000627c	 x22:0x00000028  x1:0x00000544
       11155000	      1114	80006268	525bf993	andi	x19,x23,1317	 x23:0xffff8000 x19=0x00000000
       11165000	      1115	8000626c	00000013	addi	x0,x0,0	  x0:0x00000000
       11175000	      1116	80006270	087aa793	slti	x15,x21,135	 x21:0x002044fb x15=0x00000000
       11185000	      1117	80006274	10f8d463	bge	x17,x15,8000637c	 x17:0x00000000 x15:0x00000000
       11195000	      1118	00000000	00000013	addi	x0,x0,0	  x0:0x00000000
       11205000	      1119	80006378	00000013	addi	x0,x0,0	  x0:0x00000000
       11215000	      1120	8000637c	0198a4b3	slt	x9,x17,x25	 x17:0x00000000 x25:0x00000001  x9=0x00000001
       11225000	      1121	80006380	000ab9b3	sltu	x19,x21,x0	 x21:0x002044fb  x0:0x00000000 x19=0x00000000
       11235000	      1122	80006384	400a80b3	sub	x1,x21,x0	 x21:0x002044fb  x0:0x00000000  x1=0x002044fb
       11245000	      1123	80006388	05e97663	bgeu	x18,x30,800063d4	 x18:0x00000000 x30:0x000000a6
       11255000	      1124	8000638c	927ff413	andi	x8,x31,-1753	 x31:0x00000000  x8=0x00000000
       11265000	      1125	80006390	018ed413	srli	x8,x29,0x18	 x29:0x000000a6  x8=0x00000000
       11275000	      1126	80006394	009290b3	sll	x1,x5,x9	  x5:0x00002a68  x9:0x00000001  x1=0x000054d0
       11285000	      1127	80006398	8d927f13	andi	x30,x4,-1831	  x4:0x00201a93 x30=0x00201891
       11295000	      1128	8000639c	cb803f17	auipc	x30,0xcb803	 x30=0x4b809398
       11305000	      1129	800063a0	05ce5663	bge	x28,x28,800063ec	 x28:0x80009f28 x28:0x80009f28
       11315000	      1130	00000000	00000013	addi	x0,x0,0	  x0:0x00000000
       11325000	      1131	800063e8	00000013	addi	x0,x0,0	  x0:0x00000000
       11335000	      1132	800063ec	12648913	addi	x18,x9,294	  x9:0x00000001 x18=0x00000127
       11345000	      1133	800063f0	02b15a63	bge	x2,x11,80006424	  x2:0xffffff77 x11:0x4fb00000
       11355000	      1134	800063f4	01db9193	slli	x3,x23,0x1d	 x23:0xffff8000  x3=0x00000000
       11365000	      1135	800063f8	04acf663	bgeu	x25,x10,80006444	 x25:0x00000001 x10:0x00005ad1
       11375000	      1136	800063fc	2860f513	andi	x10,x1,646	  x1:0x000054d0 x10=0x00000080
       11385000	      1137	80006400	014983b3	add	x7,x19,x20	 x19:0x00000000 x20:0x80001e58  x7=0x80001e58
       11395000	      1138	80006404	27d2b213	sltiu	x4,x5,637	  x5:0x00002a68  x4=0x00000000
       11405000	      1139	80006408	01d82fb3	slt	x31,x16,x29	 x16:0x80009fc4 x29:0x000000a6 x31=0x00000001
       11415000	      1140	8000640c	00d7bcb3	sltu	x25,x15,x13	 x15:0x00000000 x13:0x00000000 x25=0x00000000
       11425000	      1141	80006410	40d05b13	srai	x22,x0,0xd	  x0:0x00000000 x22=0x00000000
       11435000	      1142	80006414	06237693	andi	x13,x6,98	  x6:0x7ffff362 x13=0x00000062
       11445000	      1143	80006418	673fb613	sltiu	x12,x31,1651	 x31:0x00000001 x12=0x00000001
       11455000	      1144	8000641c	46ea3013	sltiu	x0,x20,1134	 x20:0x80001e58
       11465000	      1145	80006420	06b08c13	addi	x24,x1,107	  x1:0x000054d0 x24=0x0000553b
       11475000	      1146	80006424	dde00b13	addi	x22,x0,-546	  x0:0x00000000 x22=0xfffffdde
       11485000	      1147	80006428	0122d8b3	srl	x17,x5,x18	  x5:0x00002a68 x18:0x00000127 x17=0x00000054
       11495000	      1148	8000642c	003cfeb3	and	x29,x25,x3	 x25:0x00000000  x3:0x00000000 x29=0x00000000
       11505000	      1149	80006430	a0c8e993	ori	x19,x17,-1524	 x17:0x00000054 x19=0xfffffa5c
       11515000	      1150	80006434	00000013	addi	x0,x0,0	  x0:0x00000000
       11525000	      1151	80006438	0f02c413	xori	x8,x5,240	  x5:0x00002a68  x8=0x00002a98
       11535000	      1152	8000643c	00000013	addi	x0,x0,0	  x0:0x00000000
       11545000	      1153	80006440	01e42eb3	slt	x29,x8,x30	  x8:0x00002a98 x30:0x4b809398 x29=0x00000001
       11555000	      1154	80006444	010a9663	bne	x21,x16,80006450	 x21:0x002044fb x16:0x80009fc4
       11565000	      1155	00000000	00000013	addi	x0,x0,0	  x0:0x00000000
       11575000	      1156	8000644c	00000013	addi	x0,x0,0	  x0:0x00000000
       11585000	      1157	80006450	01afa1b3	slt	x3,x31,x26	 x31:0x00000001 x26:0x80000000  x3=0x00000000
       11595000	      1158	80006454	03b30c13	addi	x24,x6,59	  x6:0x7ffff362 x24=0x7ffff39d
       11605000	      1159	80006458	00e55913	srli	x18,x10,0xe	 x10:0x00000080 x18=0x00000000
       11615000	      1160	8000645c	e5344513	xori	x10,x8,-429	  x8:0x00002a98 x10=0xffffd4cb
       11625000	      1161	80006460	32222093	slti	x1,x4,802	  x4:0x00000000  x1=0x00000001
       11635000	      1162	80006464	00a21713	slli	x14,x4,0xa	  x4:0x00000000 x14=0x00000000
       11645000	      1163	80006468	bb09ba97	auipc	x21,0xbb09b	 x21=0x3b0a1464
       11655000	      1164	8000646c	14ef0193	addi	x3,x30,334	 x30:0x4b809398  x3=0x4b8094e6
       11665000	      1165	80006470	4091d713	srai	x14,x3,0x9	  x3:0x4b8094e6 x14=0x0025c04a
       11675000	      1166	80006474	e530d3b7	lui	x7,0xe530d	  x7=0xe530d000
       11685000	      1167	80006478	01a1f663	bgeu	x3,x26,80006484	  x3:0x4b8094e6 x26:0x80000000
       11695000	      1168	8000647c	00dc5033	srl	x0,x24,x13	 x24:0x7ffff39d x13:0x00000062
       11705000	      1169	80006480	00000013	addi	x0,x0,0	  x0:0x00000000
       11715000	      1170	80006484	00af5463	bge	x30,x10,8000648c	 x30:0x4b809398 x10:0xffffd4cb
       11725000	      1171	00000000	00000013	addi	x0,x0,0	  x0:0x00000000
       11735000	      1172	80006488	00000013	addi	x0,x0,0	  x0:0x00000000
       11745000	      1173	8000648c	01596933	or	x18,x18,x21	 x18:0x00000000 x21:0x3b0a1464 x18=0x3b0a1464
       11755000	      1174	80006490	02a11e63	bne	x2,x10,800064cc	  x2:0xffffff77 x10:0xffffd4cb
       11765000	      1175	00000000	00000013	addi	x0,x0,0	  x0:0x00000000
       11775000	      1176	800064c8	00000013	addi	x0,x0,0	  x0:0x00000000
       11785000	      1177	800064cc	f4258c93	addi	x25,x11,-190	 x11:0x4fb00000 x25=0x4fafff42
       11795000	      1178	800064d0	00945b93	srli	x23,x8,0x9	  x8:0x00002a98 x23=0x00000015
       11805000	      1179	800064d4	01468cb3	add	x25,x13,x20	 x13:0x00000062 x20:0x80001e58 x25=0x80001eba
       11815000	      1180	800064d8	00d55013	srli	x0,x10,0xd	 x10:0xffffd4cb
       11825000	      1181	800064dc	eaad6f93	ori	x31,x26,-342	 x26:0x80000000 x31=0xfffffeaa
       11835000	      1182	800064e0	019521b3	slt	x3,x10,x25	 x10:0xffffd4cb x25:0x80001eba  x3=0x00000000
       11845000	      1183	800064e4	04470063	beq	x14,x4,80006524	 x14:0x0025c04a  x4:0x00000000
       11855000	      1184	800064e8	72726593	ori	x11,x4,1831	  x4:0x00000000 x11=0x00000727
       11865000	      1185	800064ec	008d5933	srl	x18,x26,x8	 x26:0x80000000  x8:0x00002a98 x18=0x00000080
       11875000	      1186	800064f0	01cb9ab3	sll	x21,x23,x28	 x23:0x00000015 x28:0x80009f28 x21=0x00001500
       11885000	      1187	800064f4	00b61863	bne	x12,x11,80006504	 x12:0x00000001 x11:0x00000727
       11895000	      1188	00000000	00000013	addi	x0,x0,0	  x0:0x00000000
       11905000	      1189	80006500	00000013	addi	x0,x0,0	  x0:0x00000000
       11915000	      1190	80006504	401007b3	sub	x15,x0,x1	  x0:0x00000000  x1:0x00000001 x15=0xffffffff
       11925000	      1191	80006508	41e4d3b3	sra	x7,x9,x30	  x9:0x00000001 x30:0x4b809398  x7=0x00000000
       11935000	      1192	8000650c	40b95c13	srai	x24,x18,0xb	 x18:0x00000080 x24=0x00000000
       11945000	      1193	80006510	02d5d463	bge	x11,x13,80006538	 x11:0x00000727 x13:0x00000062
       11955000	      1194	00000000	00000013	addi	x0,x0,0	  x0:0x00000000
       11965000	      1195	80006534	00000013	addi	x0,x0,0	  x0:0x00000000
       11975000	      1196	80006538	00812a33	slt	x20,x2,x8	  x2:0xffffff77  x8:0x00002a98 x20=0x00000001
       11985000	      1197	8000653c	92064737	lui	x14,0x92064	 x14=0x92064000
       11995000	      1198	80006540	01b557b3	srl	x15,x10,x27	 x10:0xffffd4cb x27:0x00000000 x15=0xffffd4cb
       12005000	      1199	80006544	004246b3	xor	x13,x4,x4	  x4:0x00000000  x4:0x00000000 x13=0x00000000
       12015000	      1200	80006548	04639863	bne	x7,x6,80006598	  x7:0x00000000  x6:0x7ffff362
       12025000	      1201	00000000	00000013	addi	x0,x0,0	  x0:0x00000000
       12035000	      1202	80006594	00000013	addi	x0,x0,0	  x0:0x00000000
       12045000	      1203	80006598	01c040b3	xor	x1,x0,x28	  x0:0x00000000 x28:0x80009f28  x1=0x80009f28
       12055000	      1204	8000659c	02dd0263	beq	x26,x13,800065c0	 x26:0x80000000 x13:0x00000000
       12065000	      1205	800065a0	fbae7113	andi	x2,x28,-70	 x28:0x80009f28  x2=0x80009f28
       12075000	      1206	800065a4	02701463	bne	x0,x7,800065cc	  x0:0x00000000  x7:0x00000000
       12085000	      1207	800065a8	01c0f9b3	and	x19,x1,x28	  x1:0x80009f28 x28:0x80009f28 x19=0x80009f28
       12095000	      1208	800065ac	20eacfb7	lui	x31,0x20eac	 x31=0x20eac000
       12105000	      1209	800065b0	416285b3	sub	x11,x5,x22	  x5:0x00002a68 x22:0xfffffdde x11=0x00002c8a
       12115000	      1210	800065b4	7fe26b13	ori	x22,x4,2046	  x4:0x00000000 x22=0x000007fe
       12125000	      1211	800065b8	00364863	blt	x12,x3,800065c8	 x12:0x00000001  x3:0x00000000
       12135000	      1212	800065bc	00574533	xor	x10,x14,x5	 x14:0x92064000  x5:0x00002a68 x10=0x92066a68
       12145000	      1213	800065c0	01601233	sll	x4,x0,x22	  x0:0x00000000 x22:0x000007fe  x4=0x00000000
       12155000	      1214	800065c4	0098e663	bltu	x17,x9,800065d0	 x17:0x00000054  x9:0x00000001
       12165000	      1215	800065c8	00995c63	bge	x18,x9,800065e0	 x18:0x00000080  x9:0x00000001
       12175000	      1216	00000000	00000013	addi	x0,x0,0	  x0:0x00000000
       12185000	      1217	800065dc	00000013	addi	x0,x0,0	  x0:0x00000000
       12195000	      1218	800065e0	c0e96913	ori	x18,x18,-1010	 x18:0x00000080 x18=0xfffffc8e
       12205000	      1219	800065e4	01795433	srl	x8,x18,x23	 x18:0xfffffc8e x23:0x00000015  x8=0x000007ff
       12215000	      1220	800065e8	1ea68d93	addi	x27,x13,490	 x13:0x00000000 x27=0x000001ea
       12225000	      1221	800065ec	04032c13	slti	x24,x6,64	  x6:0x7ffff362 x24=0x00000000
       12235000	      1222	800065f0	01b81393	slli	x7,x16,0x1b	 x16:0x80009fc4  x7=0x20000000
       12245000	      1223	800065f4	03344863	blt	x8,x19,80006624	  x8:0x000007ff x19:0x80009f28
       12255000	      1224	800065f8	0186d1b3	srl	x3,x13,x24	 x13:0x00000000 x24:0x00000000  x3=0x00000000
       12265000	      1225	800065fc	01fbecb3	or	x25,x23,x31	 x23:0x00000015 x31:0x20eac000 x25=0x20eac015
       12275000	      1226	80006600	00083333	sltu	x6,x16,x0	 x16:0x80009fc4  x0:0x00000000  x6=0x00000000
       12285000	      1227	80006604	00ffcf33	xor	x30,x31,x15	 x31:0x20eac000 x15:0xffffd4cb x30=0xdf1514cb
       12295000	      1228	80006608	016fd3b3	srl	x7,x31,x22	 x31:0x20eac000 x22:0x000007fe  x7=0x00000000
       12305000	      1229	8000660c	0180c933	xor	x18,x1,x24	  x1:0x80009f28 x24:0x00000000 x18=0x80009f28
       12315000	      1230	80006610	01c91413	slli	x8,x18,0x1c	 x18:0x80009f28  x8=0x80000000
       12325000	      1231	80006614	a8167c93	andi	x25,x12,-1407	 x12:0x00000001 x25=0x00000001
       12335000	      1232	80006618	00000013	addi	x0,x0,0	  x0:0x00000000
       12345000	      1233	8000661c	f20ffa6f	jal	x20,8000661c	 x20=0x8000661c
       12355000	      1234	00000000	00000013	addi	x0,x0,0	  x0:0x00000000
       12365000	      1235	80005d38	00000013	addi	x0,x0,0	  x0:0x00000000
       12375000	      1236	80005d3c	01116c33	or	x24,x2,x17	  x2:0x80009f28 x17:0x00000054 x24=0x80009f7c
       12385000	      1237	80005d40	0054cfb3	xor	x31,x9,x5	  x9:0x00000001  x5:0x00002a68 x31=0x00002a69
       12395000	      1238	80005d44	00b99913	slli	x18,x19,0xb	 x19:0x80009f28 x18=0x04f94000
       12405000	      1239	80005d48	40858fb3	sub	x31,x11,x8	 x11:0x00002c8a  x8:0x80000000 x31=0x80002c8a
       12415000	      1240	80005d4c	918e8413	addi	x8,x29,-1768	 x29:0x00000001  x8=0xfffff919
       12425000	      1241	80005d50	7339f793	andi	x15,x19,1843	 x19:0x80009f28 x15=0x00000720
       12435000	      1242	80005d54	fd0e0e13	addi	x28,x28,-48	 x28:0x80009f28 x28=0x80009ef8
       12445000	      1243	80005d58	29573013	sltiu	x0,x14,661	 x14:0x92064000
       12455000	      1244	80005d5c	016476b3	and	x13,x8,x22	  x8:0xfffff919 x22:0x000007fe x13=0x00000118
       12465000	      1245	80005d60	014e2223	sw	x20,4(x28)	 x28:0x80009ef8 x20:0x8000661c PA:0x80009efc
       12475000	      1246	80005d64	00000013	addi	x0,x0,0	  x0:0x00000000
       12485000	      1247	80005d68	016680b3	add	x1,x13,x22	 x13:0x00000118 x22:0x000007fe  x1=0x00000916
       12495000	      1248	80005d6c	00000013	addi	x0,x0,0	  x0:0x00000000
       12505000	      1249	80005d70	ffffc217	auipc	x4,0xffffc	  x4=0x80001d6c
       12515000	      1250	80005d74	28420213	addi	x4,x4,644	  x4:0x80001d6c  x4=0x80001ff0
       12525000	      1251	80005d78	0007a133	slt	x2,x15,x0	 x15:0x00000720  x0:0x00000000  x2=0x00000000
       12535000	      1252	80005d7c	01891db3	sll	x27,x18,x24	 x18:0x04f94000 x24:0x80009f7c x27=0x00000000
       12545000	      1253	80005d80	70ef8f93	addi	x31,x31,1806	 x31:0x80002c8a x31=0x80003398
       12555000	      1254	80005d84	daee8513	addi	x10,x29,-594	 x29:0x00000001 x10=0xfffffdaf
       12565000	      1255	80005d88	4067d293	srai	x5,x15,0x6	 x15:0x00000720  x5=0x0000001c
       12575000	      1256	80005d8c	c5b20213	addi	x4,x4,-933	  x4:0x80001ff0  x4=0x80001c4b
       12585000	      1257	80005d90	006bd463	bge	x23,x6,80005d98	 x23:0x00000015  x6:0x00000000
       12595000	      1258	00000000	00000013	addi	x0,x0,0	  x0:0x00000000
       12605000	      1259	80005d94	00000013	addi	x0,x0,0	  x0:0x00000000
       12615000	      1260	80005d98	3a520a67	jalr	x20,x4,933	  x4:0x80001c4b x20=0x80005d98
       12625000	      1261	00000000	00000013	addi	x0,x0,0	  x0:0x00000000
       12635000	      1262	80001ff0	00000013	addi	x0,x0,0	  x0:0x00000000
       12645000	      1263	80001ff4	00c47033	and	x0,x8,x12	  x8:0xfffff919 x12:0x00000001
       12655000	      1264	80001ff8	fc0e0e13	addi	x28,x28,-64	 x28:0x80009ef8 x28=0x80009eb8
       12665000	      1265	80001ffc	018ff333	and	x6,x31,x24	 x31:0x80003398 x24:0x80009f7c  x6=0x80001318
       12675000	      1266	80002000	22db8413	addi	x8,x23,557	 x23:0x00000015  x8=0x00000242
       12685000	      1267	80002004	014e2223	sw	x20,4(x28)	 x28:0x80009eb8 x20:0x80005d98 PA:0x80009ebc
       12695000	      1268	80002008	4194d693	srai	x13,x9,0x19	  x9:0x00000001 x13=0x00000000
       12705000	      1269	8000200c	00007b17	auipc	x22,0x7	 x22=0x80009008
       12715000	      1270	80002010	92fb0b13	addi	x22,x22,-1745	 x22:0x80009008 x22=0x80008937
       12725000	      1271	80002014	019db3b3	sltu	x7,x27,x25	 x27:0x00000000 x25:0x00000001  x7=0x00000001
       12735000	      1272	80002018	01077fb3	and	x31,x14,x16	 x14:0x92064000 x16:0x80009fc4 x31=0x80000000
       12745000	      1273	8000201c	00dae3b3	or	x7,x21,x13	 x21:0x00001500 x13:0x00000000  x7=0x00001500
       12755000	      1274	80002020	a047c493	xori	x9,x15,-1532	 x15:0x00000720  x9=0xfffffd24
       12765000	      1275	80002024	014f69b3	or	x19,x30,x20	 x30:0xdf1514cb x20:0x80005d98 x19=0xdf155ddb
       12775000	      1276	80002028	6de97613	andi	x12,x18,1758	 x18:0x04f94000 x12=0x00000000
       12785000	      1277	8000202c	69878513	addi	x10,x15,1688	 x15:0x00000720 x10=0x00000db8
       12795000	      1278	80002030	ff1b0e83	lb	x29,-15(x22)	 x22:0x80008937 x29=0x00000009 PA:0x80008928
       12805000	      1279	80002034	00000013	addi	x0,x0,0	  x0:0x00000000
       12815000	      1280	80002038	013b06a3	sb	x19,13(x22)	 x22:0x80008937 x19:0xdf155ddb PA:0x80008944
       12825000	      1281	8000203c	000b4103	lbu	x2,0(x22)	 x22:0x80008937  x2=0x0000009e PA:0x80008937
       12835000	      1282	80002040	006500b3	add	x1,x10,x6	 x10:0x00000db8  x6:0x80001318  x1=0x800020d0
       12845000	      1283	80002044	ff3b0f03	lb	x30,-13(x22)	 x22:0x80008937 x30=0xffffff99 PA:0x8000892a
       12855000	      1284	80002048	4161df93	srai	x31,x3,0x16	  x3:0x00000000 x31=0x00000000
       12865000	      1285	8000204c	ff1b0483	lb	x9,-15(x22)	 x22:0x80008937  x9=0x00000009 PA:0x80008928
       12875000	      1286	80002050	01de1a93	slli	x21,x28,0x1d	 x28:0x80009eb8 x21=0x00000000
       12885000	      1287	80002054	f7782037	lui	x0,0xf7782	
       12895000	      1288	80002058	4109d093	srai	x1,x19,0x10	 x19:0xdf155ddb  x1=0xffffdf15
       12905000	      1289	8000205c	ffeb4a83	lbu	x21,-2(x22)	 x22:0x80008937 x21=0x00000009 PA:0x80008935
       12915000	      1290	80002060	8df9ac97	auipc	x25,0x8df9a	 x25=0x0df9c05c
       12925000	      1291	80002064	001c8933	add	x18,x25,x1	 x25:0x0df9c05c  x1:0xffffdf15 x18=0x0df99f71
       12935000	      1292	80002068	41085293	srai	x5,x16,0x10	 x16:0x80009fc4  x5=0xffff8000
       12945000	      1293	8000206c	000153b3	srl	x7,x2,x0	  x2:0x0000009e  x0:0x00000000  x7=0x0000009e
       12955000	      1294	80002070	00fb0c83	lb	x25,15(x22)	 x22:0x80008937 x25=0xffffff90 PA:0x80008946
       12965000	      1295	80002074	000b01a3	sb	x0,3(x22)	 x22:0x80008937  x0:0x00000000 PA:0x8000893a
       12975000	      1296	80002078	ffbb1683	lh	x13,-5(x22)	 x22:0x80008937 x13=0x0000708e PA:0x80008932
       12985000	      1297	8000207c	01beb9b3	sltu	x19,x29,x27	 x29:0x00000009 x27:0x00000000 x19=0x00000000
       12995000	      1298	80002080	41adde93	srai	x29,x27,0x1a	 x27:0x00000000 x29=0x00000000
       13005000	      1299	80002084	2a6eb3b7	lui	x7,0x2a6eb	  x7=0x2a6eb000
       13015000	      1300	80002088	00000013	addi	x0,x0,0	  x0:0x00000000
       13025000	      1301	8000208c	01ce0033	add	x0,x28,x28	 x28:0x80009eb8 x28:0x80009eb8
       13035000	      1302	80002090	005b2a83	lw	x21,5(x22)	 x22:0x80008937 x21=0x308c4f76 PA:0x8000893c
       13045000	      1303	80002094	01bb14a3	sh	x27,9(x22)	 x22:0x80008937 x27:0x00000000 PA:0x80008940
       13055000	      1304	80002098	9195f097	auipc	x1,0x9195f	  x1=0x11961094
       13065000	      1305	8000209c	dab76713	ori	x14,x14,-597	 x14:0x92064000 x14=0xfffffdab
       13075000	      1306	800020a0	eb85aa93	slti	x21,x11,-328	 x11:0x00002c8a x21=0x00000000
       13085000	      1307	800020a4	00cb4003	lbu	x0,12(x22)	 x22:0x80008937 PA:0x80008943
       13095000	      1308	800020a8	090a1917	auipc	x18,0x90a1	 x18=0x890a30a4
       13105000	      1309	800020ac	006c91b3	sll	x3,x25,x6	 x25:0xffffff90  x6:0x80001318  x3=0x90000000
       13115000	      1310	800020b0	005b0403	lb	x8,5(x22)	 x22:0x80008937  x8=0x00000076 PA:0x8000893c
       13125000	      1311	800020b4	00006117	auipc	x2,0x6	  x2=0x800080b0
       13135000	      1312	800020b8	7a410113	addi	x2,x2,1956	  x2:0x800080b0  x2=0x80008854
       13145000	      1313	800020bc	41ba5a33	sra	x20,x20,x27	 x20:0x80005d98 x27:0x00000000 x20=0x80005d98
       13155000	      1314	800020c0	72492a93	slti	x21,x18,1828	 x18:0x890a30a4 x21=0x00000001
       13165000	      1315	800020c4	01bfa3b3	slt	x7,x31,x27	 x31:0x00000000 x27:0x00000000  x7=0x00000000
       13175000	      1316	800020c8	40f95c13	srai	x24,x18,0xf	 x18:0x890a30a4 x24=0xffff1214
       13185000	      1317	800020cc	18ceedb7	lui	x27,0x18cee	 x27=0x18cee000
       13195000	      1318	800020d0	414283b3	sub	x7,x5,x20	  x5:0xffff8000 x20:0x80005d98  x7=0x7fff2268
       13205000	      1319	800020d4	0d5101a3	sb	x21,195(x2)	  x2:0x80008854 x21:0x00000001 PA:0x80008917
       13215000	      1320	800020d8	41dd8033	sub	x0,x27,x29	 x27:0x18cee000 x29:0x00000000
       13225000	      1321	800020dc	1a804c93	xori	x25,x0,424	  x0:0x00000000 x25=0x000001a8
       13235000	      1322	800020e0	006f5933	srl	x18,x30,x6	 x30:0xffffff99  x6:0x80001318 x18=0x000000ff
       13245000	      1323	800020e4	fe6c2393	slti	x7,x24,-26	 x24:0xffff1214  x7=0x00000001
       13255000	      1324	800020e8	fff14f03	lbu	x30,-1(x2)	  x2:0x80008854 x30=0x00000093 PA:0x80008853
       13265000	      1325	800020ec	0cc101a3	sb	x12,195(x2)	  x2:0x80008854 x12:0x00000000 PA:0x80008917
       13275000	      1326	800020f0	4167d013	srai	x0,x15,0x16	 x15:0x00000720
       13285000	      1327	800020f4	0d510b83	lb	x23,213(x2)	  x2:0x80008854 x23=0x00000021 PA:0x80008929
       13295000	      1328	800020f8	0122fcb3	and	x25,x5,x18	  x5:0xffff8000 x18:0x000000ff x25=0x00000000
       13305000	      1329	800020fc	419954b3	sra	x9,x18,x25	 x18:0x000000ff x25:0x00000000  x9=0x000000ff
       13315000	      1330	80002100	03e12623	sw	x30,44(x2)	  x2:0x80008854 x30:0x00000093 PA:0x80008880
       13325000	      1331	80002104	a9d0a193	slti	x3,x1,-1379	  x1:0x11961094  x3=0x00000000
       13335000	      1332	80002108	0001e633	or	x12,x3,x0	  x3:0x00000000  x0:0x00000000 x12=0x00000000
       13345000	      1333	8000210c	984139b7	lui	x19,0x98413	 x19=0x98413000
       13355000	      1334	80002110	01ff5b93	srli	x23,x30,0x1f	 x30:0x00000093 x23=0x00000000
       13365000	      1335	80002114	00e10703	lb	x14,14(x2)	  x2:0x80008854 x14=0x0000005f PA:0x80008862
       13375000	      1336	80002118	f7144293	xori	x5,x8,-143	  x8:0x00000076  x5=0xffffff07
       13385000	      1337	8000211c	ff314883	lbu	x17,-13(x2)	  x2:0x80008854 x17=0x00000054 PA:0x80008847
       13395000	      1338	00000000	00000013	addi	x0,x0,0	  x0:0x00000000
       13405000	      1339	80002120	1b1cbd93	sltiu	x27,x25,433	 x25:0x00000000 x27=0x00000001
       13415000	      1340	80002124	40a65b33	sra	x22,x12,x10	 x12:0x00000000 x10:0x00000db8 x22=0x00000000
       13425000	      1341	80002128	08a10b03	lb	x22,138(x2)	  x2:0x80008854 x22=0x0000002b PA:0x800088de
       13435000	      1342	8000212c	00d14f83	lbu	x31,13(x2)	  x2:0x80008854 x31=0x00000090 PA:0x80008861
       13445000	      1343	80002130	09310883	lb	x17,147(x2)	  x2:0x80008854 x17=0xffffff9c PA:0x800088e7
       13455000	      1344	80002134	00006e97	auipc	x29,0x6	 x29=0x80008130
       13465000	      1345	80002138	0f5e8e93	addi	x29,x29,245	 x29:0x80008130 x29=0x80008225
       13475000	      1346	8000213c	00cecb03	lbu	x22,12(x29)	 x29:0x80008225 x22=0x00000040 PA:0x80008231
       13485000	      1347	80002140	ff2e8a03	lb	x20,-14(x29)	 x29:0x80008225 x20=0xffffffeb PA:0x80008217
       13495000	      1348	00000000	00000013	addi	x0,x0,0	  x0:0x00000000
       13505000	      1349	80002144	00ca6cb3	or	x25,x20,x12	 x20:0xffffffeb x12:0x00000000 x25=0xffffffeb
       13515000	      1350	80002148	005ed303	lhu	x6,5(x29)	 x29:0x80008225  x6=0x000041f1 PA:0x8000822a
       13525000	      1351	8000214c	ff7ec503	lbu	x10,-9(x29)	 x29:0x80008225 x10=0x00000041 PA:0x8000821c
       13535000	      1352	80002150	000ec503	lbu	x10,0(x29)	 x29:0x80008225 x10=0x00000037 PA:0x80008225
       13545000	      1353	80002154	ffdec403	lbu	x8,-3(x29)	 x29:0x80008225  x8=0x00000012 PA:0x80008222
       13555000	      1354	80002158	015e63b3	or	x7,x28,x21	 x28:0x80009eb8 x21:0x00000001  x7=0x80009eb9
       13565000	      1355	8000215c	00fec083	lbu	x1,15(x29)	 x29:0x80008225  x1=0x000000a2 PA:0x80008234
       13575000	      1356	80002160	d65def13	ori	x30,x27,-667	 x27:0x00000001 x30=0xfffffd65
       13585000	      1357	80002164	00dedd83	lhu	x27,13(x29)	 x29:0x80008225 x27=0x0000a226 PA:0x80008232
       13595000	      1358	80002168	008e80a3	sb	x8,1(x29)	 x29:0x80008225  x8:0x00000012 PA:0x80008226
       13605000	      1359	8000216c	00be8223	sb	x11,4(x29)	 x29:0x80008225 x11:0x00002c8a PA:0x80008229
       13615000	      1360	80002170	ffeec383	lbu	x7,-2(x29)	 x29:0x80008225  x7=0x0000000d PA:0x80008223
       13625000	      1361	80002174	01a797b3	sll	x15,x15,x26	 x15:0x00000720 x26:0x80000000 x15=0x00000720
       13635000	      1362	80002178	01515c93	srli	x25,x2,0x15	  x2:0x80008854 x25=0x00000400
       13645000	      1363	8000217c	948e7c93	andi	x25,x28,-1720	 x28:0x80009eb8 x25=0x80009808
       13655000	      1364	80002180	41eed5b3	sra	x11,x29,x30	 x29:0x80008225 x30:0xfffffd65 x11=0xfc000411
       13665000	      1365	80002184	011cd9b3	srl	x19,x25,x17	 x25:0x80009808 x17:0xffffff9c x19=0x00000008
       13675000	      1366	80002188	fe6e8c23	sb	x6,-8(x29)	 x29:0x80008225  x6:0x000041f1 PA:0x8000821d
       13685000	      1367	8000218c	ff7e8703	lb	x14,-9(x29)	 x29:0x80008225 x14=0x00000041 PA:0x8000821c
       13695000	      1368	80002190	fffecd83	lbu	x27,-1(x29)	 x29:0x80008225 x27=0x000000fe PA:0x80008224
       13705000	      1369	80002194	00ce8183	lb	x3,12(x29)	 x29:0x80008225  x3=0x00000040 PA:0x80008231
       13715000	      1370	80002198	7f858693	addi	x13,x11,2040	 x11:0xfc000411 x13=0xfc000c09
       13725000	      1371	8000219c	001ed483	lhu	x9,1(x29)	 x29:0x80008225  x9=0x00007a12 PA:0x80008226
       13735000	      1372	800021a0	00ff1bb3	sll	x23,x30,x15	 x30:0xfffffd65 x15:0x00000720 x23=0xfffffd65
       13745000	      1373	800021a4	01764933	xor	x18,x12,x23	 x12:0x00000000 x23:0xfffffd65 x18=0xfffffd65
       13755000	      1374	800021a8	007e8a83	lb	x21,7(x29)	 x29:0x80008225 x21=0xffffff8b PA:0x8000822c
       13765000	      1375	800021ac	003e8303	lb	x6,3(x29)	 x29:0x80008225  x6=0x0000001b PA:0x80008228
       13775000	      1376	800021b0	fefe9ea3	sh	x15,-3(x29)	 x29:0x80008225 x15:0x00000720 PA:0x80008222
       13785000	      1377	800021b4	039f4063	blt	x30,x25,800021d4	 x30:0xfffffd65 x25:0x80009808
       13795000	      1378	800021b8	af6ef393	andi	x7,x29,-1290	 x29:0x80008225  x7=0x80008224
       13805000	      1379	800021bc	01788633	add	x12,x17,x23	 x17:0xffffff9c x23:0xfffffd65 x12=0xfffffd01
       13815000	      1380	800021c0	00ba8933	add	x18,x21,x11	 x21:0xffffff8b x11:0xfc000411 x18=0xfc00039c
       13825000	      1381	800021c4	01001e93	slli	x29,x0,0x10	  x0:0x00000000 x29=0x00000000
       13835000	      1382	800021c8	283f3413	sltiu	x8,x30,643	 x30:0xfffffd65  x8=0x00000000
       13845000	      1383	800021cc	7c6a2a13	slti	x20,x20,1990	 x20:0xffffffeb x20=0x00000001
       13855000	      1384	800021d0	40f58eb3	sub	x29,x11,x15	 x11:0xfc000411 x15:0x00000720 x29=0xfbfffcf1
       13865000	      1385	800021d4	d4f5ad93	slti	x27,x11,-689	 x11:0xfc000411 x27=0x00000001
       13875000	      1386	800021d8	ddc28717	auipc	x14,0xddc28	 x14=0x5dc2a1d4
       13885000	      1387	800021dc	003d6c33	or	x24,x26,x3	 x26:0x80000000  x3:0x00000040 x24=0x80000040
       13895000	      1388	800021e0	c3ec8f93	addi	x31,x25,-962	 x25:0x80009808 x31=0x80009446
       13905000	      1389	800021e4	74d18293	addi	x5,x3,1869	  x3:0x00000040  x5=0x0000078d
       13915000	      1390	800021e8	01385893	srli	x17,x16,0x13	 x16:0x80009fc4 x17=0x00001000
       13925000	      1391	800021ec	40b35333	sra	x6,x6,x11	  x6:0x0000001b x11:0xfc000411  x6=0x00000000
       13935000	      1392	800021f0	01108733	add	x14,x1,x17	  x1:0x000000a2 x17:0x00001000 x14=0x000010a2
       13945000	      1393	800021f4	0b176463	bltu	x14,x17,8000229c	 x14:0x000010a2 x17:0x00001000
       13955000	      1394	800021f8	21553513	sltiu	x10,x10,533	 x10:0x00000037 x10=0x00000001
       13965000	      1395	800021fc	77bd8a13	addi	x20,x27,1915	 x27:0x00000001 x20=0x0000077c
       13975000	      1396	80002200	6265cb13	xori	x22,x11,1574	 x11:0xfc000411 x22=0xfc000237
       13985000	      1397	80002204	00007117	auipc	x2,0x7	  x2=0x80009200
       13995000	      1398	80002208	c6610113	addi	x2,x2,-922	  x2:0x80009200  x2=0x80008e66
       14005000	      1399	8000220c	f3ca3a93	sltiu	x21,x20,-196	 x20:0x0000077c x21=0x00000001
       14015000	      1400	80002210	00210ea3	sb	x2,29(x2)	  x2:0x80008e66  x2:0x80008e66 PA:0x80008e83
       14025000	      1401	80002214	09811083	lh	x1,152(x2)	  x2:0x80008e66  x1=0xffffa33c PA:0x80008efe
       14035000	      1402	80002218	f1010603	lb	x12,-240(x2)	  x2:0x80008e66 x12=0x00000066 PA:0x80008d76
       14045000	      1403	8000221c	0016d3b3	srl	x7,x13,x1	 x13:0xfc000c09  x1:0xffffa33c  x7=0x0000000f
       14055000	      1404	80002220	5b2bbb13	sltiu	x22,x23,1458	 x23:0xfffffd65 x22=0x00000000
       14065000	      1405	80002224	a4366c93	ori	x25,x12,-1469	 x12:0x00000066 x25=0xfffffa67
       14075000	      1406	80002228	0f014483	lbu	x9,240(x2)	  x2:0x80008e66  x9=0x00000026 PA:0x80008f56
       14085000	      1407	8000222c	f1510a03	lb	x20,-235(x2)	  x2:0x80008e66 x20=0xffffff8f PA:0x80008d7b
       14095000	      1408	80002230	00160b33	add	x22,x12,x1	 x12:0x00000066  x1:0xffffa33c x22=0xffffa3a2
       14105000	      1409	80002234	01270bb3	add	x23,x14,x18	 x14:0x000010a2 x18:0xfc00039c x23=0xfc00143e
       14115000	      1410	80002238	0b811c83	lh	x25,184(x2)	  x2:0x80008e66 x25=0x00000d2e PA:0x80008f1e
       14125000	      1411	00000000	00000013	addi	x0,x0,0	  x0:0x00000000
       14135000	      1412	8000223c	07910f03	lb	x30,121(x2)	  x2:0x80008e66 x30=0x00000000 PA:0x80008edf
       14145000	      1413	80002240	05310883	lb	x17,83(x2)	  x2:0x80008e66 x17=0x00000029 PA:0x80008eb9
       14155000	      1414	80002244	0077dc93	srli	x25,x15,0x7	 x15:0x00000720 x25=0x0000000e
       14165000	      1415	80002248	fb910023	sb	x25,-96(x2)	  x2:0x80008e66 x25:0x0000000e PA:0x80008e06
       14175000	      1416	8000224c	404e5693	srai	x13,x28,0x4	 x28:0x80009eb8 x13=0xf80009eb
       14185000	      1417	80002250	76da2f93	slti	x31,x20,1901	 x20:0xffffff8f x31=0x00000001
       14195000	      1418	80002254	41f18ab3	sub	x21,x3,x31	  x3:0x00000040 x31:0x00000001 x21=0x0000003f
       14205000	      1419	80002258	0057ab33	slt	x22,x15,x5	 x15:0x00000720  x5:0x0000078d x22=0x00000001
       14215000	      1420	8000225c	a2356513	ori	x10,x10,-1501	 x10:0x00000001 x10=0xfffffa23
       14225000	      1421	80002260	006b2ab3	slt	x21,x22,x6	 x22:0x00000001  x6:0x00000000 x21=0x00000000
       14235000	      1422	80002264	09010fa3	sb	x16,159(x2)	  x2:0x80008e66 x16:0x80009fc4 PA:0x80008f05
       14245000	      1423	80002268	02694663	blt	x18,x6,80002294	 x18:0xfc00039c  x6:0x00000000
       14255000	      1424	00000000	00000013	addi	x0,x0,0	  x0:0x00000000
       14265000	      1425	80002290	00000013	addi	x0,x0,0	  x0:0x00000000
       14275000	      1426	80002294	f1cb2293	slti	x5,x22,-228	 x22:0x00000001  x5=0x00000000
       14285000	      1427	80002298	0125a533	slt	x10,x11,x18	 x11:0xfc000411 x18:0xfc00039c x10=0x00000000
       14295000	      1428	8000229c	f2188a93	addi	x21,x17,-223	 x17:0x00000029 x21=0xffffff4a
       14305000	      1429	800022a0	00edeb33	or	x22,x27,x14	 x27:0x00000001 x14:0x000010a2 x22=0x000010a3
       14315000	      1430	800022a4	00330663	beq	x6,x3,800022b0	  x6:0x00000000  x3:0x00000040
       14325000	      1431	800022a8	019c20b3	slt	x1,x24,x25	 x24:0x80000040 x25:0x0000000e  x1=0x00000001
       14335000	      1432	800022ac	00be49b3	xor	x19,x28,x11	 x28:0x80009eb8 x11:0xfc000411 x19=0x7c009aa9
       14345000	      1433	800022b0	0124f5b3	and	x11,x9,x18	  x9:0x00000026 x18:0xfc00039c x11=0x00000004
       14355000	      1434	800022b4	41ac5c33	sra	x24,x24,x26	 x24:0x80000040 x26:0x80000000 x24=0x80000040
       14365000	      1435	800022b8	00000013	addi	x0,x0,0	  x0:0x00000000
       14375000	      1436	800022bc	4009d893	srai	x17,x19,0x0	 x19:0x7c009aa9 x17=0x7c009aa9
       14385000	      1437	800022c0	ad7cec37	lui	x24,0xad7ce	 x24=0xad7ce000
       14395000	      1438	800022c4	419b50b3	sra	x1,x22,x25	 x22:0x000010a3 x25:0x0000000e  x1=0x00000000
       14405000	      1439	800022c8	02865c63	bge	x12,x8,80002300	 x12:0x00000066  x8:0x00000000
       14415000	      1440	00000000	00000013	addi	x0,x0,0	  x0:0x00000000
       14425000	      1441	800022fc	00000013	addi	x0,x0,0	  x0:0x00000000
       14435000	      1442	80002300	0075fcb3	and	x25,x11,x7	 x11:0x00000004  x7:0x0000000f x25=0x00000004
       14445000	      1443	80002304	00c3e463	bltu	x7,x12,8000230c	  x7:0x0000000f x12:0x00000066
       14455000	      1444	00000000	00000013	addi	x0,x0,0	  x0:0x00000000
       14465000	      1445	80002308	00000013	addi	x0,x0,0	  x0:0x00000000
       14475000	      1446	8000230c	ea389537	lui	x10,0xea389	 x10=0xea389000
       14485000	      1447	80002310	0397ce63	blt	x15,x25,8000234c	 x15:0x00000720 x25:0x00000004
       14495000	      1448	80002314	002351b3	srl	x3,x6,x2	  x6:0x00000000  x2:0x80008e66  x3=0x00000000
       14505000	      1449	80002318	59a3b413	sltiu	x8,x7,1434	  x7:0x0000000f  x8=0x00000001
       14515000	      1450	8000231c	00000013	addi	x0,x0,0	  x0:0x00000000
       14525000	      1451	80002320	5a94c0b7	lui	x1,0x5a94c	  x1=0x5a94c000
       14535000	      1452	80002324	00000013	addi	x0,x0,0	  x0:0x00000000
       14545000	      1453	80002328	374c4693	xori	x13,x24,884	 x24:0xad7ce000 x13=0xad7ce374
       14555000	      1454	8000232c	40f4de93	srai	x29,x9,0xf	  x9:0x00000026 x29=0x00000000
       14565000	      1455	80002330	41598b33	sub	x22,x19,x21	 x19:0x7c009aa9 x21:0xffffff4a x22=0x7c009b5f
       14575000	      1456	80002334	0094b233	sltu	x4,x9,x9	  x9:0x00000026  x9:0x00000026  x4=0x00000000
       14585000	      1457	80002338	01017c33	and	x24,x2,x16	  x2:0x80008e66 x16:0x80009fc4 x24=0x80008e44
       14595000	      1458	8000233c	05ca7693	andi	x13,x20,92	 x20:0xffffff8f x13=0x0000000c
       14605000	      1459	80002340	01e1c663	blt	x3,x30,8000234c	  x3:0x00000000 x30:0x00000000
       14615000	      1460	80002344	012dd593	srli	x11,x27,0x12	 x27:0x00000001 x11=0x00000000
       14625000	      1461	80002348	04b2c593	xori	x11,x5,75	  x5:0x00000000 x11=0x0000004b
       14635000	      1462	8000234c	a2dc0197	auipc	x3,0xa2dc0	  x3=0x22dc2348
       14645000	      1463	80002350	07d05a97	auipc	x21,0x7d05	 x21=0x87d0734c
       14655000	      1464	80002354	41b05933	sra	x18,x0,x27	  x0:0x00000000 x27:0x00000001 x18=0x00000000
       14665000	      1465	80002358	a8ac8437	lui	x8,0xa8ac8	  x8=0xa8ac8000
       14675000	      1466	8000235c	de018013	addi	x0,x3,-544	  x3:0x22dc2348
       14685000	      1467	80002360	005b15b3	sll	x11,x22,x5	 x22:0x7c009b5f  x5:0x00000000 x11=0x7c009b5f
       14695000	      1468	80002364	009e4eb3	xor	x29,x28,x9	 x28:0x80009eb8  x9:0x00000026 x29=0x80009e9e
       14705000	      1469	80002368	012538b3	sltu	x17,x10,x18	 x10:0xea389000 x18:0x00000000 x17=0x00000000
       14715000	      1470	8000236c	a3992613	slti	x12,x18,-1479	 x18:0x00000000 x12=0x00000000
       14725000	      1471	80002370	e8f20593	addi	x11,x4,-369	  x4:0x00000000 x11=0xfffffe8f
       14735000	      1472	80002374	018320b3	slt	x1,x6,x24	  x6:0x00000000 x24:0x80008e44  x1=0x00000000
       14745000	      1473	80002378	00d702b3	add	x5,x14,x13	 x14:0x000010a2 x13:0x0000000c  x5=0x000010ae
       14755000	      1474	8000237c	001f9293	slli	x5,x31,0x1	 x31:0x00000001  x5=0x00000002
       14765000	      1475	80002380	03a05c63	bge	x0,x26,800023b8	  x0:0x00000000 x26:0x80000000
       14775000	      1476	00000000	00000013	addi	x0,x0,0	  x0:0x00000000
       14785000	      1477	800023b4	00000013	addi	x0,x0,0	  x0:0x00000000
       14795000	      1478	800023b8	014ab2b3	sltu	x5,x21,x20	 x21:0x87d0734c x20:0xffffff8f  x5=0x00000001
       14805000	      1479	800023bc	012ef333	and	x6,x29,x18	 x29:0x80009e9e x18:0x00000000  x6=0x00000000
       14815000	      1480	800023c0	030e7463	bgeu	x28,x16,800023e8	 x28:0x80009eb8 x16:0x80009fc4
       14825000	      1481	800023c4	0130c463	blt	x1,x19,800023cc	  x1:0x00000000 x19:0x7c009aa9
       14835000	      1482	00000000	00000013	addi	x0,x0,0	  x0:0x00000000
       14845000	      1483	800023c8	00000013	addi	x0,x0,0	  x0:0x00000000
       14855000	      1484	800023cc	04461663	bne	x12,x4,80002418	 x12:0x00000000  x4:0x00000000
       14865000	      1485	800023d0	014aca63	blt	x21,x20,800023e4	 x21:0x87d0734c x20:0xffffff8f
       14875000	      1486	00000000	00000013	addi	x0,x0,0	  x0:0x00000000
       14885000	      1487	800023e0	00000013	addi	x0,x0,0	  x0:0x00000000
       14895000	      1488	800023e4	03625263	bge	x4,x22,80002408	  x4:0x00000000 x22:0x7c009b5f
       14905000	      1489	800023e8	05d77613	andi	x12,x14,93	 x14:0x000010a2 x12=0x00000000
       14915000	      1490	800023ec	6dccc093	xori	x1,x25,1756	 x25:0x00000004  x1=0x000006d8
       14925000	      1491	800023f0	1d995497	auipc	x9,0x1d995	  x9=0x9d9973ec
       14935000	      1492	800023f4	01a3acb3	slt	x25,x7,x26	  x7:0x0000000f x26:0x80000000 x25=0x00000000
       14945000	      1493	800023f8	22804693	xori	x13,x0,552	  x0:0x00000000 x13=0x00000228
       14955000	      1494	800023fc	41610bb3	sub	x23,x2,x22	  x2:0x80008e66 x22:0x7c009b5f x23=0x03fff307
       14965000	      1495	80002400	40b0d513	srai	x10,x1,0xb	  x1:0x000006d8 x10=0x00000000
       14975000	      1496	80002404	10ee2b13	slti	x22,x28,270	 x28:0x80009eb8 x22=0x00000001
       14985000	      1497	80002408	b1972c37	lui	x24,0xb1972	 x24=0xb1972000
       14995000	      1498	8000240c	01be0e63	beq	x28,x27,80002428	 x28:0x80009eb8 x27:0x00000001
       15005000	      1499	80002410	40f185b3	sub	x11,x3,x15	  x3:0x22dc2348 x15:0x00000720 x11=0x22dc1c28
       15015000	      1500	80002414	00000013	addi	x0,x0,0	  x0:0x00000000
       15025000	      1501	80002418	403e8f13	addi	x30,x29,1027	 x29:0x80009e9e x30=0x8000a2a1
       15035000	      1502	8000241c	00991a93	slli	x21,x18,0x9	 x18:0x00000000 x21=0x00000000
       15045000	      1503	80002420	05a16263	bltu	x2,x26,80002464	  x2:0x80008e66 x26:0x80000000
       15055000	      1504	80002424	40abdfb3	sra	x31,x23,x10	 x23:0x03fff307 x10:0x00000000 x31=0x03fff307
       15065000	      1505	80002428	d0c8ae93	slti	x29,x17,-756	 x17:0x00000000 x29=0x00000000
       15075000	      1506	8000242c	add72413	slti	x8,x14,-1315	 x14:0x000010a2  x8=0x00000000
       15085000	      1507	80002430	018602b3	add	x5,x12,x24	 x12:0x00000000 x24:0xb1972000  x5=0xb1972000
       15095000	      1508	80002434	dce82b93	slti	x23,x16,-562	 x16:0x80009fc4 x23=0x00000001
       15105000	      1509	80002438	4174da33	sra	x20,x9,x23	  x9:0x9d9973ec x23:0x00000001 x20=0xceccb9f6
       15115000	      1510	8000243c	40fadb93	srai	x23,x21,0xf	 x21:0x00000000 x23=0x00000000
       15125000	      1511	80002440	003833b3	sltu	x7,x16,x3	 x16:0x80009fc4  x3:0x22dc2348  x7=0x00000000
       15135000	      1512	80002444	08b6a693	slti	x13,x13,139	 x13:0x00000228 x13=0x00000000
       15145000	      1513	80002448	d6698393	addi	x7,x19,-666	 x19:0x7c009aa9  x7=0x7c00980f
       15155000	      1514	8000244c	00057863	bgeu	x10,x0,8000245c	 x10:0x00000000  x0:0x00000000
       15165000	      1515	00000000	00000013	addi	x0,x0,0	  x0:0x00000000
       15175000	      1516	80002458	00000013	addi	x0,x0,0	  x0:0x00000000
       15185000	      1517	8000245c	d1858893	addi	x17,x11,-744	 x11:0x22dc1c28 x17=0x22dc1940
       15195000	      1518	80002460	63cfa413	slti	x8,x31,1596	 x31:0x03fff307  x8=0x00000000
       15205000	      1519	80002464	01209393	slli	x7,x1,0x12	  x1:0x000006d8  x7=0x1b600000
       15215000	      1520	80002468	0456d863	bge	x13,x5,800024b8	 x13:0x00000000  x5:0xb1972000
       15225000	      1521	00000000	00000013	addi	x0,x0,0	  x0:0x00000000
       15235000	      1522	800024b4	00000013	addi	x0,x0,0	  x0:0x00000000
       15245000	      1523	800024b8	01641513	slli	x10,x8,0x16	  x8:0x00000000 x10=0x00000000
       15255000	      1524	800024bc	41b2d133	sra	x2,x5,x27	  x5:0xb1972000 x27:0x00000001  x2=0xd8cb9000
       15265000	      1525	800024c0	017e4ab3	xor	x21,x28,x23	 x28:0x80009eb8 x23:0x00000000 x21=0x80009eb8
       15275000	      1526	800024c4	01eb8eb3	add	x29,x23,x30	 x23:0x00000000 x30:0x8000a2a1 x29=0x8000a2a1
       15285000	      1527	800024c8	01106233	or	x4,x0,x17	  x0:0x00000000 x17:0x22dc1940  x4=0x22dc1940
       15295000	      1528	800024cc	00220ab3	add	x21,x4,x2	  x4:0x22dc1940  x2:0xd8cb9000 x21=0xfba7a940
       15305000	      1529	800024d0	02f16c63	bltu	x2,x15,80002508	  x2:0xd8cb9000 x15:0x00000720
       15315000	      1530	800024d4	0336d263	bge	x13,x19,800024f8	 x13:0x00000000 x19:0x7c009aa9
       15325000	      1531	800024d8	000b4463	blt	x22,x0,800024e0	 x22:0x00000001  x0:0x00000000
       15335000	      1532	800024dc	0100e533	or	x10,x1,x16	  x1:0x000006d8 x16:0x80009fc4 x10=0x80009fdc
       15345000	      1533	800024e0	01ea4133	xor	x2,x20,x30	 x20:0xceccb9f6 x30:0x8000a2a1  x2=0x4ecc1b57
       15355000	      1534	800024e4	cf75f937	lui	x18,0xcf75f	 x18=0xcf75f000
       15365000	      1535	800024e8	01c15613	srli	x12,x2,0x1c	  x2:0x4ecc1b57 x12=0x00000004
       15375000	      1536	800024ec	c5f6f393	andi	x7,x13,-929	 x13:0x00000000  x7=0x00000000
       15385000	      1537	800024f0	01a9a433	slt	x8,x19,x26	 x19:0x7c009aa9 x26:0x80000000  x8=0x00000000
       15395000	      1538	800024f4	40ba00b3	sub	x1,x20,x11	 x20:0xceccb9f6 x11:0x22dc1c28  x1=0xabf09dce
       15405000	      1539	800024f8	015ad6b3	srl	x13,x21,x21	 x21:0xfba7a940 x21:0xfba7a940 x13=0xfba7a940
       15415000	      1540	800024fc	83536093	ori	x1,x6,-1995	  x6:0x00000000  x1=0xfffff835
       15425000	      1541	80002500	7c426613	ori	x12,x4,1988	  x4:0x22dc1940 x12=0x22dc1fc4
       15435000	      1542	80002504	fba4c993	xori	x19,x9,-70	  x9:0x9d9973ec x19=0x62668c56
       15445000	      1543	80002508	1dee3393	sltiu	x7,x28,478	 x28:0x80009eb8  x7=0x00000000
       15455000	      1544	8000250c	0034f863	bgeu	x9,x3,8000251c	  x9:0x9d9973ec  x3:0x22dc2348
       15465000	      1545	00000000	00000013	addi	x0,x0,0	  x0:0x00000000
       15475000	      1546	80002518	00000013	addi	x0,x0,0	  x0:0x00000000
       15485000	      1547	8000251c	05cac263	blt	x21,x28,80002560	 x21:0xfba7a940 x28:0x80009eb8
       15495000	      1548	80002520	f1dcfa93	andi	x21,x25,-227	 x25:0x00000000 x21=0x00000000
       15505000	      1549	80002524	01d89693	slli	x13,x17,0x1d	 x17:0x22dc1940 x13=0x00000000
       15515000	      1550	80002528	39b70a13	addi	x20,x14,923	 x14:0x000010a2 x20=0x0000143d
       15525000	      1551	8000252c	00134333	xor	x6,x6,x1	  x6:0x00000000  x1:0xfffff835  x6=0xfffff835
       15535000	      1552	80002530	01d49313	slli	x6,x9,0x1d	  x9:0x9d9973ec  x6=0x80000000
       15545000	      1553	80002534	0099dc33	srl	x24,x19,x9	 x19:0x62668c56  x9:0x9d9973ec x24=0x00062668
       15555000	      1554	80002538	41ac5c13	srai	x24,x24,0x1a	 x24:0x00062668 x24=0x00000000
       15565000	      1555	8000253c	10320713	addi	x14,x4,259	  x4:0x22dc1940 x14=0x22dc1a43
       15575000	      1556	80002540	00000013	addi	x0,x0,0	  x0:0x00000000
       15585000	      1557	80002544	002ed733	srl	x14,x29,x2	 x29:0x8000a2a1  x2:0x4ecc1b57 x14=0x00000100
       15595000	      1558	80002548	05cf1863	bne	x30,x28,80002598	 x30:0x8000a2a1 x28:0x80009eb8
       15605000	      1559	00000000	00000013	addi	x0,x0,0	  x0:0x00000000
       15615000	      1560	80002594	00000013	addi	x0,x0,0	  x0:0x00000000
       15625000	      1561	80002598	02ead463	bge	x21,x14,800025c0	 x21:0x00000000 x14:0x00000100
       15635000	      1562	8000259c	ea116193	ori	x3,x2,-351	  x2:0x4ecc1b57  x3=0xfffffff7
       15645000	      1563	800025a0	01458eb3	add	x29,x11,x20	 x11:0x22dc1c28 x20:0x0000143d x29=0x22dc3065
       15655000	      1564	800025a4	0f19a093	slti	x1,x19,241	 x19:0x62668c56  x1=0x00000000
       15665000	      1565	800025a8	a9918793	addi	x15,x3,-1383	  x3:0xfffffff7 x15=0xfffffa90
       15675000	      1566	800025ac	027b1063	bne	x22,x7,800025cc	 x22:0x00000001  x7:0x00000000
       15685000	      1567	00000000	00000013	addi	x0,x0,0	  x0:0x00000000
       15695000	      1568	800025c8	00000013	addi	x0,x0,0	  x0:0x00000000
       15705000	      1569	800025cc	d9590f13	addi	x30,x18,-619	 x18:0xcf75f000 x30=0xcf75ed95
       15715000	      1570	800025d0	01746863	bltu	x8,x23,800025e0	  x8:0x00000000 x23:0x00000000
       15725000	      1571	800025d4	01b97db3	and	x27,x18,x27	 x18:0xcf75f000 x27:0x00000001 x27=0x00000000
       15735000	      1572	800025d8	40795cb3	sra	x25,x18,x7	 x18:0xcf75f000  x7:0x00000000 x25=0xcf75f000
       15745000	      1573	800025dc	007cec63	bltu	x25,x7,800025f4	 x25:0xcf75f000  x7:0x00000000
       15755000	      1574	800025e0	0003df33	srl	x30,x7,x0	  x7:0x00000000  x0:0x00000000 x30=0x00000000
       15765000	      1575	800025e4	01d2b0b3	sltu	x1,x5,x29	  x5:0xb1972000 x29:0x22dc3065  x1=0x00000000
       15775000	      1576	800025e8	00f76033	or	x0,x14,x15	 x14:0x00000100 x15:0xfffffa90
       15785000	      1577	800025ec	001d9133	sll	x2,x27,x1	 x27:0x00000000  x1:0x00000000  x2=0x00000000
       15795000	      1578	800025f0	e8a2a193	slti	x3,x5,-374	  x5:0xb1972000  x3=0x00000001
       15805000	      1579	800025f4	042b9463	bne	x23,x2,8000263c	 x23:0x00000000  x2:0x00000000
       15815000	      1580	800025f8	02b4ce63	blt	x9,x11,80002634	  x9:0x9d9973ec x11:0x22dc1c28
       15825000	      1581	00000000	00000013	addi	x0,x0,0	  x0:0x00000000
       15835000	      1582	80002630	00000013	addi	x0,x0,0	  x0:0x00000000
       15845000	      1583	80002634	0083efb3	or	x31,x7,x8	  x7:0x00000000  x8:0x00000000 x31=0x00000000
       15855000	      1584	80002638	03411663	bne	x2,x20,80002664	  x2:0x00000000 x20:0x0000143d
       15865000	      1585	00000000	00000013	addi	x0,x0,0	  x0:0x00000000
       15875000	      1586	80002660	00000013	addi	x0,x0,0	  x0:0x00000000
       15885000	      1587	80002664	4023da13	srai	x20,x7,0x2	  x7:0x00000000 x20=0x00000000
       15895000	      1588	80002668	47e90893	addi	x17,x18,1150	 x18:0xcf75f000 x17=0xcf75f47e
       15905000	      1589	8000266c	03e34663	blt	x6,x30,80002698	  x6:0x80000000 x30:0x00000000
       15915000	      1590	00000000	00000013	addi	x0,x0,0	  x0:0x00000000
       15925000	      1591	80002694	00000013	addi	x0,x0,0	  x0:0x00000000
       15935000	      1592	80002698	0100ceb3	xor	x29,x1,x16	  x1:0x00000000 x16:0x80009fc4 x29=0x80009fc4
       15945000	      1593	8000269c	05a60463	beq	x12,x26,800026e4	 x12:0x22dc1fc4 x26:0x80000000
       15955000	      1594	800026a0	01bce663	bltu	x25,x27,800026ac	 x25:0xcf75f000 x27:0x00000000
       15965000	      1595	800026a4	003b4863	blt	x22,x3,800026b4	 x22:0x00000001  x3:0x00000001
       15975000	      1596	800026a8	41c05a13	srai	x20,x0,0x1c	  x0:0x00000000 x20=0x00000000
       15985000	      1597	800026ac	01330c33	add	x24,x6,x19	  x6:0x80000000 x19:0x62668c56 x24=0xe2668c56
       15995000	      1598	800026b0	0179a8b3	slt	x17,x19,x23	 x19:0x62668c56 x23:0x00000000 x17=0x00000000
       16005000	      1599	800026b4	8d4a4937	lui	x18,0x8d4a4	 x18=0x8d4a4000
       16015000	      1600	800026b8	b778cf17	auipc	x30,0xb778c	 x30=0x3778e6b4
       16025000	      1601	800026bc	001b2b33	slt	x22,x22,x1	 x22:0x00000001  x1:0x00000000 x22=0x00000000
       16035000	      1602	800026c0	063cec13	ori	x24,x25,99	 x25:0xcf75f000 x24=0xcf75f063
       16045000	      1603	800026c4	e76f7193	andi	x3,x30,-394	 x30:0x3778e6b4  x3=0x3778e634
       16055000	      1604	800026c8	41975793	srai	x15,x14,0x19	 x14:0x00000100 x15=0x00000000
       16065000	      1605	800026cc	e89b2613	slti	x12,x22,-375	 x22:0x00000000 x12=0x00000000
       16075000	      1606	800026d0	047d7263	bgeu	x26,x7,80002714	 x26:0x80000000  x7:0x00000000
       16085000	      1607	00000000	00000013	addi	x0,x0,0	  x0:0x00000000
       16095000	      1608	80002710	00000013	addi	x0,x0,0	  x0:0x00000000
       16105000	      1609	80002714	86beac13	slti	x24,x29,-1941	 x29:0x80009fc4 x24=0x00000001
       16115000	      1610	80002718	00000013	addi	x0,x0,0	  x0:0x00000000
       16125000	      1611	8000271c	04219463	bne	x3,x2,80002764	  x3:0x3778e634  x2:0x00000000
       16135000	      1612	00000000	00000013	addi	x0,x0,0	  x0:0x00000000
       16145000	      1613	80002760	00000013	addi	x0,x0,0	  x0:0x00000000
       16155000	      1614	80002764	01beeab3	or	x21,x29,x27	 x29:0x80009fc4 x27:0x00000000 x21=0x80009fc4
       16165000	      1615	80002768	77a88113	addi	x2,x17,1914	 x17:0x00000000  x2=0x0000077a
       16175000	      1616	8000276c	02dc4263	blt	x24,x13,80002790	 x24:0x00000001 x13:0x00000000
       16185000	      1617	80002770	01ff5663	bge	x30,x31,8000277c	 x30:0x3778e6b4 x31:0x00000000
       16195000	      1618	00000000	00000013	addi	x0,x0,0	  x0:0x00000000
       16205000	      1619	80002778	00000013	addi	x0,x0,0	  x0:0x00000000
       16215000	      1620	8000277c	0001a033	slt	x0,x3,x0	  x3:0x3778e634  x0:0x00000000
       16225000	      1621	80002780	59ce3393	sltiu	x7,x28,1436	 x28:0x80009eb8  x7=0x00000000
       16235000	      1622	80002784	037a7263	bgeu	x20,x23,800027a8	 x20:0x00000000 x23:0x00000000
       16245000	      1623	00000000	00000013	addi	x0,x0,0	  x0:0x00000000
       16255000	      1624	800027a4	00000013	addi	x0,x0,0	  x0:0x00000000
       16265000	      1625	800027a8	566fb713	sltiu	x14,x31,1382	 x31:0x00000000 x14=0x00000001
       16275000	      1626	800027ac	012b53b3	srl	x7,x22,x18	 x22:0x00000000 x18:0x8d4a4000  x7=0x00000000
       16285000	      1627	800027b0	006b9a33	sll	x20,x23,x6	 x23:0x00000000  x6:0x80000000 x20=0x00000000
       16295000	      1628	800027b4	004a4733	xor	x14,x20,x4	 x20:0x00000000  x4:0x22dc1940 x14=0x22dc1940
       16305000	      1629	800027b8	5343eb37	lui	x22,0x5343e	 x22=0x5343e000
       16315000	      1630	800027bc	0151b5b3	sltu	x11,x3,x21	  x3:0x3778e634 x21:0x80009fc4 x11=0x00000001
       16325000	      1631	800027c0	0066c863	blt	x13,x6,800027d0	 x13:0x00000000  x6:0x80000000
       16335000	      1632	800027c4	00c5e933	or	x18,x11,x12	 x11:0x00000001 x12:0x00000000 x18=0x00000001
       16345000	      1633	800027c8	02608663	beq	x1,x6,800027f4	  x1:0x00000000  x6:0x80000000
       16355000	      1634	800027cc	01581ab3	sll	x21,x16,x21	 x16:0x80009fc4 x21:0x80009fc4 x21=0x0009fc40
       16365000	      1635	800027d0	00938fb3	add	x31,x7,x9	  x7:0x00000000  x9:0x9d9973ec x31=0x9d9973ec
       16375000	      1636	800027d4	26b38713	addi	x14,x7,619	  x7:0x00000000 x14=0x0000026b
       16385000	      1637	800027d8	00000013	addi	x0,x0,0	  x0:0x00000000
       16395000	      1638	800027dc	01439c33	sll	x24,x7,x20	  x7:0x00000000 x20:0x00000000 x24=0x00000000
       16405000	      1639	800027e0	4038d793	srai	x15,x17,0x3	 x17:0x00000000 x15=0x00000000
       16415000	      1640	800027e4	012e75b3	and	x11,x28,x18	 x28:0x80009eb8 x18:0x00000001 x11=0x00000000
       16425000	      1641	800027e8	0140b033	sltu	x0,x1,x20	  x1:0x00000000 x20:0x00000000
       16435000	      1642	800027ec	0203fc63	bgeu	x7,x0,80002824	  x7:0x00000000  x0:0x00000000
       16445000	      1643	00000000	00000013	addi	x0,x0,0	  x0:0x00000000
       16455000	      1644	80002820	00000013	addi	x0,x0,0	  x0:0x00000000
       16465000	      1645	80002824	84898913	addi	x18,x19,-1976	 x19:0x62668c56 x18=0x6266849e
       16475000	      1646	80002828	2a834a13	xori	x20,x6,680	  x6:0x80000000 x20=0x800002a8
       16485000	      1647	8000282c	03bbdc63	bge	x23,x27,80002864	 x23:0x00000000 x27:0x00000000
       16495000	      1648	00000000	00000013	addi	x0,x0,0	  x0:0x00000000
       16505000	      1649	80002860	00000013	addi	x0,x0,0	  x0:0x00000000
       16515000	      1650	80002864	00c37bb3	and	x23,x6,x12	  x6:0x80000000 x12:0x00000000 x23=0x00000000
       16525000	      1651	80002868	41ed5c33	sra	x24,x26,x30	 x26:0x80000000 x30:0x3778e6b4 x24=0xfffff800
       16535000	      1652	8000286c	000cc733	xor	x14,x25,x0	 x25:0xcf75f000  x0:0x00000000 x14=0xcf75f000
       16545000	      1653	80002870	41aedbb3	sra	x23,x29,x26	 x29:0x80009fc4 x26:0x80000000 x23=0x80009fc4
       16555000	      1654	80002874	018e7c63	bgeu	x28,x24,8000288c	 x28:0x80009eb8 x24:0xfffff800
       16565000	      1655	80002878	793eb113	sltiu	x2,x29,1939	 x29:0x80009fc4  x2=0x00000000
       16575000	      1656	8000287c	02524063	blt	x4,x5,8000289c	  x4:0x22dc1940  x5:0xb1972000
       16585000	      1657	80002880	00cbb7b3	sltu	x15,x23,x12	 x23:0x80009fc4 x12:0x00000000 x15=0x00000000
       16595000	      1658	80002884	c6b0b913	sltiu	x18,x1,-917	  x1:0x00000000 x18=0x00000001
       16605000	      1659	80002888	007a7b33	and	x22,x20,x7	 x20:0x800002a8  x7:0x00000000 x22=0x00000000
       16615000	      1660	8000288c	04161663	bne	x12,x1,800028d8	 x12:0x00000000  x1:0x00000000
       16625000	      1661	80002890	84827693	andi	x13,x4,-1976	  x4:0x22dc1940 x13=0x22dc1840
       16635000	      1662	80002894	40368fb3	sub	x31,x13,x3	 x13:0x22dc1840  x3:0x3778e634 x31=0xeb63320c
       16645000	      1663	80002898	048e9863	bne	x29,x8,800028e8	 x29:0x80009fc4  x8:0x00000000
       16655000	      1664	00000000	00000013	addi	x0,x0,0	  x0:0x00000000
       16665000	      1665	800028e4	00000013	addi	x0,x0,0	  x0:0x00000000
       16675000	      1666	800028e8	41fa0c33	sub	x24,x20,x31	 x20:0x800002a8 x31:0xeb63320c x24=0x949cd09c
       16685000	      1667	800028ec	00c55bb3	srl	x23,x10,x12	 x10:0x80009fdc x12:0x00000000 x23=0x80009fdc
       16695000	      1668	800028f0	006c1eb3	sll	x29,x24,x6	 x24:0x949cd09c  x6:0x80000000 x29=0x949cd09c
       16705000	      1669	800028f4	00290f33	add	x30,x18,x2	 x18:0x00000001  x2:0x00000000 x30=0x00000001
       16715000	      1670	800028f8	007c9a13	slli	x20,x25,0x7	 x25:0xcf75f000 x20=0xbaf80000
       16725000	      1671	800028fc	00000013	addi	x0,x0,0	  x0:0x00000000
       16735000	      1672	80002900	00671993	slli	x19,x14,0x6	 x14:0xcf75f000 x19=0xdd7c0000
       16745000	      1673	80002904	40d68fb3	sub	x31,x13,x13	 x13:0x22dc1840 x13:0x22dc1840 x31=0x00000000
       16755000	      1674	80002908	013e6633	or	x12,x28,x19	 x28:0x80009eb8 x19:0xdd7c0000 x12=0xdd7c9eb8
       16765000	      1675	8000290c	00ea1213	slli	x4,x20,0xe	 x20:0xbaf80000  x4=0x00000000
       16775000	      1676	80002910	f8303337	lui	x6,0xf8303	  x6=0xf8303000
       16785000	      1677	80002914	01c50c63	beq	x10,x28,8000292c	 x10:0x80009fdc x28:0x80009eb8
       16795000	      1678	80002918	00c59cb3	sll	x25,x11,x12	 x11:0x00000000 x12:0xdd7c9eb8 x25=0x00000000
       16805000	      1679	8000291c	00000013	addi	x0,x0,0	  x0:0x00000000
       16815000	      1680	80002920	023fee63	bltu	x31,x3,8000295c	 x31:0x00000000  x3:0x3778e634
       16825000	      1681	00000000	00000013	addi	x0,x0,0	  x0:0x00000000
       16835000	      1682	80002958	00000013	addi	x0,x0,0	  x0:0x00000000
       16845000	      1683	8000295c	01c306b3	add	x13,x6,x28	  x6:0xf8303000 x28:0x80009eb8 x13=0x7830ceb8
       16855000	      1684	80002960	b3554993	xori	x19,x10,-1227	 x10:0x80009fdc x19=0x7fff64e9
       16865000	      1685	80002964	0025ca63	blt	x11,x2,80002978	 x11:0x00000000  x2:0x00000000
       16875000	      1686	80002968	41c25993	srai	x19,x4,0x1c	  x4:0x00000000 x19=0x00000000
       16885000	      1687	8000296c	005c1933	sll	x18,x24,x5	 x24:0x949cd09c  x5:0xb1972000 x18=0x949cd09c
       16895000	      1688	80002970	00cf3f33	sltu	x30,x30,x12	 x30:0x00000001 x12:0xdd7c9eb8 x30=0x00000001
       16905000	      1689	80002974	41360233	sub	x4,x12,x19	 x12:0xdd7c9eb8 x19:0x00000000  x4=0xdd7c9eb8
       16915000	      1690	80002978	0150cf33	xor	x30,x1,x21	  x1:0x00000000 x21:0x0009fc40 x30=0x0009fc40
       16925000	      1691	8000297c	00bb38b3	sltu	x17,x22,x11	 x22:0x00000000 x11:0x00000000 x17=0x00000000
       16935000	      1692	80002980	f94afb93	andi	x23,x21,-108	 x21:0x0009fc40 x23=0x0009fc00
       16945000	      1693	80002984	00c965b3	or	x11,x18,x12	 x18:0x949cd09c x12:0xdd7c9eb8 x11=0xddfcdebc
       16955000	      1694	80002988	40ca5f13	srai	x30,x20,0xc	 x20:0xbaf80000 x30=0xfffbaf80
       16965000	      1695	8000298c	14850093	addi	x1,x10,328	 x10:0x80009fdc  x1=0x8000a124
       16975000	      1696	80002990	5a2b5a97	auipc	x21,0x5a2b5	 x21=0xda2b798c
       16985000	      1697	80002994	64ab4213	xori	x4,x22,1610	 x22:0x00000000  x4=0x0000064a
       16995000	      1698	80002998	1a7bf213	andi	x4,x23,423	 x23:0x0009fc00  x4=0x00000000
       17005000	      1699	8000299c	01d1e933	or	x18,x3,x29	  x3:0x3778e634 x29:0x949cd09c x18=0xb7fcf6bc
       17015000	      1700	800029a0	01056e63	bltu	x10,x16,800029bc	 x10:0x80009fdc x16:0x80009fc4
       17025000	      1701	800029a4	88ac7993	andi	x19,x24,-1910	 x24:0x949cd09c x19=0x949cd088
       17035000	      1702	800029a8	01877db3	and	x27,x14,x24	 x14:0xcf75f000 x24:0x949cd09c x27=0x8414d000
       17045000	      1703	800029ac	2b526e97	auipc	x29,0x2b526	 x29=0xab5289a8
       17055000	      1704	800029b0	01d11bb3	sll	x23,x2,x29	  x2:0x00000000 x29:0xab5289a8 x23=0x00000000
       17065000	      1705	800029b4	5dc6b493	sltiu	x9,x13,1500	 x13:0x7830ceb8  x9=0x00000000
       17075000	      1706	800029b8	01695863	bge	x18,x22,800029c8	 x18:0xb7fcf6bc x22:0x00000000
       17085000	      1707	800029bc	41ded713	srai	x14,x29,0x1d	 x29:0xab5289a8 x14=0xfffffffd
       17095000	      1708	800029c0	01b49393	slli	x7,x9,0x1b	  x9:0x00000000  x7=0x00000000
       17105000	      1709	800029c4	03819863	bne	x3,x24,800029f4	  x3:0x3778e634 x24:0x949cd09c
       17115000	      1710	00000000	00000013	addi	x0,x0,0	  x0:0x00000000
       17125000	      1711	800029f0	00000013	addi	x0,x0,0	  x0:0x00000000
       17135000	      1712	800029f4	6186d537	lui	x10,0x6186d	 x10=0x6186d000
       17145000	      1713	800029f8	a02d0397	auipc	x7,0xa02d0	  x7=0x202d29f4
       17155000	      1714	800029fc	004e2a03	lw	x20,4(x28)	 x28:0x80009eb8 x20=0x80005d98 PA:0x80009ebc
       17165000	      1715	80002a00	e0429437	lui	x8,0xe0429	  x8=0xe0429000
       17175000	      1716	80002a04	006a4633	xor	x12,x20,x6	 x20:0x80005d98  x6:0xf8303000 x12=0x78306d98
       17185000	      1717	80002a08	040e0e13	addi	x28,x28,64	 x28:0x80009eb8 x28=0x80009ef8
       17195000	      1718	80002a0c	412b5133	sra	x2,x22,x18	 x22:0x00000000 x18:0xb7fcf6bc  x2=0x00000000
       17205000	      1719	80002a10	000a0f13	addi	x30,x20,0	 x20:0x80005d98 x30=0x80005d98
       17215000	      1720	80002a14	000f0f67	jalr	x30,x30,0	 x30:0x80005d98 x30=0x80002a14
       17225000	      1721	00000000	00000013	addi	x0,x0,0	  x0:0x00000000
       17235000	      1722	80005d98	00000013	addi	x0,x0,0	  x0:0x00000000
       17245000	      1723	80005d9c	00003517	auipc	x10,0x3	 x10=0x80008d98
       17255000	      1724	80005da0	f5250513	addi	x10,x10,-174	 x10:0x80008d98 x10=0x80008cea
       17265000	      1725	80005da4	02d54c03	lbu	x24,45(x10)	 x10:0x80008cea x24=0x00000003 PA:0x80008d17
       17275000	      1726	80005da8	feb54f83	lbu	x31,-21(x10)	 x10:0x80008cea x31=0x000000ce PA:0x80008cd5
       17285000	      1727	80005dac	01950d23	sb	x25,26(x10)	 x10:0x80008cea x25:0x00000000 PA:0x80008d04
       17295000	      1728	80005db0	fd7508a3	sb	x23,-47(x10)	 x10:0x80008cea x23:0x00000000 PA:0x80008cbb
       17305000	      1729	80005db4	fd954e83	lbu	x29,-39(x10)	 x10:0x80008cea x29=0x0000005d PA:0x80008cc3
       17315000	      1730	80005db8	01f9a4b3	slt	x9,x19,x31	 x19:0x949cd088 x31:0x000000ce  x9=0x00000001
       17325000	      1731	80005dbc	9f952993	slti	x19,x10,-1543	 x10:0x80008cea x19=0x00000001
       17335000	      1732	80005dc0	fc750203	lb	x4,-57(x10)	 x10:0x80008cea  x4=0x00000048 PA:0x80008cb1
       17345000	      1733	80005dc4	fdf50783	lb	x15,-33(x10)	 x10:0x80008cea x15=0xffffff85 PA:0x80008cc9
       17355000	      1734	80005dc8	00734133	xor	x2,x6,x7	  x6:0xf8303000  x7:0x202d29f4  x2=0xd81d19f4
       17365000	      1735	80005dcc	410d5593	srai	x11,x26,0x10	 x26:0x80000000 x11=0xffff8000
       17375000	      1736	80005dd0	fea54083	lbu	x1,-22(x10)	 x10:0x80008cea  x1=0x00000086 PA:0x80008cd4
       17385000	      1737	80005dd4	fd754103	lbu	x2,-41(x10)	 x10:0x80008cea  x2=0x000000da PA:0x80008cc1
       17395000	      1738	80005dd8	7ba7b3b7	lui	x7,0x7ba7b	  x7=0x7ba7b000
       17405000	      1739	80005ddc	01154d83	lbu	x27,17(x10)	 x10:0x80008cea x27=0x0000009b PA:0x80008cfb
       17415000	      1740	00000000	00000013	addi	x0,x0,0	  x0:0x00000000
       17425000	      1741	80005de0	fdb50783	lb	x15,-37(x10)	 x10:0x80008cea x15=0x00000012 PA:0x80008cc5
       17435000	      1742	80005de4	fde52923	sw	x30,-46(x10)	 x10:0x80008cea x30:0x80002a14 PA:0x80008cbc
       17445000	      1743	80005de8	437c4d93	xori	x27,x24,1079	 x24:0x00000003 x27=0x00000434
       17455000	      1744	80005dec	00a69eb3	sll	x29,x13,x10	 x13:0x7830ceb8 x10:0x80008cea x29=0xc33ae000
       17465000	      1745	80005df0	01d54183	lbu	x3,29(x10)	 x10:0x80008cea  x3=0x00000026 PA:0x80008d07
       17475000	      1746	80005df4	fc154b83	lbu	x23,-63(x10)	 x10:0x80008cea x23=0x000000ba PA:0x80008cab
       17485000	      1747	80005df8	dab8e113	ori	x2,x17,-597	 x17:0x00000000  x2=0xfffffdab
       17495000	      1748	80005dfc	00f21293	slli	x5,x4,0xf	  x4:0x00000048  x5=0x00240000
       17505000	      1749	80005e00	ffc51703	lh	x14,-4(x10)	 x10:0x80008cea x14=0xffffdc42 PA:0x80008ce6
       17515000	      1750	80005e04	41255eb3	sra	x29,x10,x18	 x10:0x80008cea x18:0xb7fcf6bc x29=0xfffffff8
       17525000	      1751	80005e08	fe5506a3	sb	x5,-19(x10)	 x10:0x80008cea  x5:0x00240000 PA:0x80008cd7
       17535000	      1752	80005e0c	018aa633	slt	x12,x21,x24	 x21:0xda2b798c x24:0x00000003 x12=0x00000001
       17545000	      1753	80005e10	fe251e23	sh	x2,-4(x10)	 x10:0x80008cea  x2:0xfffffdab PA:0x80008ce6
       17555000	      1754	80005e14	fc354383	lbu	x7,-61(x10)	 x10:0x80008cea  x7=0x00000034 PA:0x80008cad
       17565000	      1755	80005e18	00000013	addi	x0,x0,0	  x0:0x00000000
       17575000	      1756	80005e1c	3f0bfa13	andi	x20,x23,1008	 x23:0x000000ba x20=0x000000b0
       17585000	      1757	80005e20	00c306b3	add	x13,x6,x12	  x6:0xf8303000 x12:0x00000001 x13=0xf8303001
       17595000	      1758	80005e24	feb500a3	sb	x11,-31(x10)	 x10:0x80008cea x11:0xffff8000 PA:0x80008ccb
       17605000	      1759	80005e28	01054703	lbu	x14,16(x10)	 x10:0x80008cea x14=0x00000092 PA:0x80008cfa
       17615000	      1760	80005e2c	01054683	lbu	x13,16(x10)	 x10:0x80008cea x13=0x00000092 PA:0x80008cfa
       17625000	      1761	80005e30	01329713	slli	x14,x5,0x13	  x5:0x00240000 x14=0x00000000
       17635000	      1762	80005e34	40cc5893	srai	x17,x24,0xc	 x24:0x00000003 x17=0x00000000
       17645000	      1763	80005e38	41ea0a33	sub	x20,x20,x30	 x20:0x000000b0 x30:0x80002a14 x20=0x7fffd69c
       17655000	      1764	80005e3c	00fcd693	srli	x13,x25,0xf	 x25:0x00000000 x13=0x00000000
       17665000	      1765	80005e40	01f08fb3	add	x31,x1,x31	  x1:0x00000086 x31:0x000000ce x31=0x00000154
       17675000	      1766	80005e44	001104b3	add	x9,x2,x1	  x2:0xfffffdab  x1:0x00000086  x9=0xfffffe31
       17685000	      1767	80005e48	0327e663	bltu	x15,x18,80005e74	 x15:0x00000012 x18:0xb7fcf6bc
       17695000	      1768	00000000	00000013	addi	x0,x0,0	  x0:0x00000000
       17705000	      1769	80005e70	00000013	addi	x0,x0,0	  x0:0x00000000
       17715000	      1770	80005e74	40998933	sub	x18,x19,x9	 x19:0x00000001  x9:0xfffffe31 x18=0x000001d0
       17725000	      1771	80005e78	00cebf33	sltu	x30,x29,x12	 x29:0xfffffff8 x12:0x00000001 x30=0x00000000
       17735000	      1772	80005e7c	00000013	addi	x0,x0,0	  x0:0x00000000
       17745000	      1773	80005e80	41f55333	sra	x6,x10,x31	 x10:0x80008cea x31:0x00000154  x6=0xfffff800
       17755000	      1774	80005e84	013ac9b3	xor	x19,x21,x19	 x21:0xda2b798c x19:0x00000001 x19=0xda2b798d
       17765000	      1775	80005e88	00771933	sll	x18,x14,x7	 x14:0x00000000  x7:0x00000034 x18=0x00000000
       17775000	      1776	80005e8c	01bd7533	and	x10,x26,x27	 x26:0x80000000 x27:0x00000434 x10=0x00000000
       17785000	      1777	80005e90	00958bb3	add	x23,x11,x9	 x11:0xffff8000  x9:0xfffffe31 x23=0xffff7e31
       17795000	      1778	80005e94	016830b3	sltu	x1,x16,x22	 x16:0x80009fc4 x22:0x00000000  x1=0x00000000
       17805000	      1779	80005e98	41c5d7b3	sra	x15,x11,x28	 x11:0xffff8000 x28:0x80009ef8 x15=0xffffffff
       17815000	      1780	80005e9c	01501c63	bne	x0,x21,80005eb4	  x0:0x00000000 x21:0xda2b798c
       17825000	      1781	00000000	00000013	addi	x0,x0,0	  x0:0x00000000
       17835000	      1782	80005eb0	00000013	addi	x0,x0,0	  x0:0x00000000
       17845000	      1783	80005eb4	0021c5b3	xor	x11,x3,x2	  x3:0x00000026  x2:0xfffffdab x11=0xfffffd8d
       17855000	      1784	80005eb8	014fec33	or	x24,x31,x20	 x31:0x00000154 x20:0x7fffd69c x24=0x7fffd7dc
       17865000	      1785	80005ebc	30086437	lui	x8,0x30086	  x8=0x30086000
       17875000	      1786	80005ec0	b4180713	addi	x14,x16,-1215	 x16:0x80009fc4 x14=0x80009b05
       17885000	      1787	80005ec4	01b9d613	srli	x12,x19,0x1b	 x19:0xda2b798d x12=0x0000001b
       17895000	      1788	80005ec8	019c11b3	sll	x3,x24,x25	 x24:0x7fffd7dc x25:0x00000000  x3=0x7fffd7dc
       17905000	      1789	80005ecc	012d6333	or	x6,x26,x18	 x26:0x80000000 x18:0x00000000  x6=0x80000000
       17915000	      1790	80005ed0	00007863	bgeu	x0,x0,80005ee0	  x0:0x00000000  x0:0x00000000
       17925000	      1791	00000000	00000013	addi	x0,x0,0	  x0:0x00000000
       17935000	      1792	80005edc	00000013	addi	x0,x0,0	  x0:0x00000000
       17945000	      1793	80005ee0	03b8ce63	blt	x17,x27,80005f1c	 x17:0x00000000 x27:0x00000434
       17955000	      1794	00000000	00000013	addi	x0,x0,0	  x0:0x00000000
       17965000	      1795	80005f18	00000013	addi	x0,x0,0	  x0:0x00000000
       17975000	      1796	80005f1c	005961b3	or	x3,x18,x5	 x18:0x00000000  x5:0x00240000  x3=0x00240000
       17985000	      1797	80005f20	4021da93	srai	x21,x3,0x2	  x3:0x00240000 x21=0x00090000
       17995000	      1798	80005f24	de907a93	andi	x21,x0,-535	  x0:0x00000000 x21=0x00000000
       18005000	      1799	80005f28	0149f863	bgeu	x19,x20,80005f38	 x19:0xda2b798d x20:0x7fffd69c
       18015000	      1800	00000000	00000013	addi	x0,x0,0	  x0:0x00000000
       18025000	      1801	80005f34	00000013	addi	x0,x0,0	  x0:0x00000000
       18035000	      1802	80005f38	01460eb3	add	x29,x12,x20	 x12:0x0000001b x20:0x7fffd69c x29=0x7fffd6b7
       18045000	      1803	80005f3c	031aea63	bltu	x21,x17,80005f70	 x21:0x00000000 x17:0x00000000
       18055000	      1804	80005f40	048bc463	blt	x23,x8,80005f88	 x23:0xffff7e31  x8:0x30086000
       18065000	      1805	00000000	00000013	addi	x0,x0,0	  x0:0x00000000
       18075000	      1806	80005f84	00000013	addi	x0,x0,0	  x0:0x00000000
       18085000	      1807	80005f88	00f072b3	and	x5,x0,x15	  x0:0x00000000 x15:0xffffffff  x5=0x00000000
       18095000	      1808	80005f8c	054e1663	bne	x28,x20,80005fd8	 x28:0x80009ef8 x20:0x7fffd69c
       18105000	      1809	00000000	00000013	addi	x0,x0,0	  x0:0x00000000
       18115000	      1810	80005fd4	00000013	addi	x0,x0,0	  x0:0x00000000
       18125000	      1811	80005fd8	5a26f337	lui	x6,0x5a26f	  x6=0x5a26f000
       18135000	      1812	80005fdc	40035c33	sra	x24,x6,x0	  x6:0x5a26f000  x0:0x00000000 x24=0x5a26f000
       18145000	      1813	80005fe0	00c94633	xor	x12,x18,x12	 x18:0x00000000 x12:0x0000001b x12=0x0000001b
       18155000	      1814	80005fe4	4002d233	sra	x4,x5,x0	  x5:0x00000000  x0:0x00000000  x4=0x00000000
       18165000	      1815	80005fe8	62bdf417	auipc	x8,0x62bdf	  x8=0xe2be4fe4
       18175000	      1816	80005fec	07bb5c17	auipc	x24,0x7bb5	 x24=0x87bbafe8
       18185000	      1817	80005ff0	013b2433	slt	x8,x22,x19	 x22:0x00000000 x19:0xda2b798d  x8=0x00000000
       18195000	      1818	80005ff4	00814533	xor	x10,x2,x8	  x2:0xfffffdab  x8:0x00000000 x10=0xfffffdab
       18205000	      1819	80005ff8	eaa12093	slti	x1,x2,-342	  x2:0xfffffdab  x1=0x00000001
       18215000	      1820	80005ffc	05389263	bne	x17,x19,80006040	 x17:0x00000000 x19:0xda2b798d
       18225000	      1821	00000000	00000013	addi	x0,x0,0	  x0:0x00000000
       18235000	      1822	8000603c	00000013	addi	x0,x0,0	  x0:0x00000000
       18245000	      1823	80006040	02b14063	blt	x2,x11,80006060	  x2:0xfffffdab x11:0xfffffd8d
       18255000	      1824	80006044	0156aa33	slt	x20,x13,x21	 x13:0x00000000 x21:0x00000000 x20=0x00000000
       18265000	      1825	80006048	665b4313	xori	x6,x22,1637	 x22:0x00000000  x6=0x00000665
       18275000	      1826	8000604c	1cc9e593	ori	x11,x19,460	 x19:0xda2b798d x11=0xda2b79cd
       18285000	      1827	80006050	022d5663	bge	x26,x2,8000607c	 x26:0x80000000  x2:0xfffffdab
       18295000	      1828	80006054	8d834997	auipc	x19,0x8d834	 x19=0x0d83a050
       18305000	      1829	80006058	01320733	add	x14,x4,x19	  x4:0x00000000 x19:0x0d83a050 x14=0x0d83a050
       18315000	      1830	8000605c	00f92c33	slt	x24,x18,x15	 x18:0x00000000 x15:0xffffffff x24=0x00000000
       18325000	      1831	80006060	00000013	addi	x0,x0,0	  x0:0x00000000
       18335000	      1832	80006064	0190d2b3	srl	x5,x1,x25	  x1:0x00000001 x25:0x00000000  x5=0x00000001
       18345000	      1833	80006068	0536e263	bltu	x13,x19,800060ac	 x13:0x00000000 x19:0x0d83a050
       18355000	      1834	00000000	00000013	addi	x0,x0,0	  x0:0x00000000
       18365000	      1835	800060a8	00000013	addi	x0,x0,0	  x0:0x00000000
       18375000	      1836	800060ac	40290bb3	sub	x23,x18,x2	 x18:0x00000000  x2:0xfffffdab x23=0x00000255
       18385000	      1837	800060b0	00000013	addi	x0,x0,0	  x0:0x00000000
       18395000	      1838	800060b4	00000013	addi	x0,x0,0	  x0:0x00000000
       18405000	      1839	800060b8	ee570f97	auipc	x31,0xee570	 x31=0x6e5760b4
       18415000	      1840	800060bc	02bf8a63	beq	x31,x11,800060f0	 x31:0x6e5760b4 x11:0xda2b79cd
       18425000	      1841	800060c0	418dd133	sra	x2,x27,x24	 x27:0x00000434 x24:0x00000000  x2=0x00000434
       18435000	      1842	800060c4	63465fb7	lui	x31,0x63465	 x31=0x63465000
       18445000	      1843	800060c8	00780733	add	x14,x16,x7	 x16:0x80009fc4  x7:0x00000034 x14=0x80009ff8
       18455000	      1844	800060cc	191a7193	andi	x3,x20,401	 x20:0x00000000  x3=0x00000000
       18465000	      1845	800060d0	416beb13	ori	x22,x23,1046	 x23:0x00000255 x22=0x00000657
       18475000	      1846	800060d4	006e9493	slli	x9,x29,0x6	 x29:0x7fffd6b7  x9=0xfff5adc0
       18485000	      1847	800060d8	00f2d033	srl	x0,x5,x15	  x5:0x00000001 x15:0xffffffff
       18495000	      1848	800060dc	33004913	xori	x18,x0,816	  x0:0x00000000 x18=0x00000330
       18505000	      1849	800060e0	015264b3	or	x9,x4,x21	  x4:0x00000000 x21:0x00000000  x9=0x00000000
       18515000	      1850	800060e4	1b336b13	ori	x22,x6,435	  x6:0x00000665 x22=0x000007f7
       18525000	      1851	800060e8	001d4463	blt	x26,x1,800060f0	 x26:0x80000000  x1:0x00000001
       18535000	      1852	00000000	00000013	addi	x0,x0,0	  x0:0x00000000
       18545000	      1853	800060ec	00000013	addi	x0,x0,0	  x0:0x00000000
       18555000	      1854	800060f0	01e14863	blt	x2,x30,80006100	  x2:0x00000434 x30:0x00000000
       18565000	      1855	800060f4	363eba93	sltiu	x21,x29,867	 x29:0x7fffd6b7 x21=0x00000000
       18575000	      1856	800060f8	019ca1b3	slt	x3,x25,x25	 x25:0x00000000 x25:0x00000000  x3=0x00000000
       18585000	      1857	800060fc	02964263	blt	x12,x9,80006120	 x12:0x0000001b  x9:0x00000000
       18595000	      1858	80006100	fcda2593	slti	x11,x20,-51	 x20:0x00000000 x11=0x00000000
       18605000	      1859	80006104	01f3de93	srli	x29,x7,0x1f	  x7:0x00000034 x29=0x00000000
       18615000	      1860	80006108	fa9dfb17	auipc	x22,0xfa9df	 x22=0x7a9e5104
       18625000	      1861	8000610c	41e3d4b3	sra	x9,x7,x30	  x7:0x00000034 x30:0x00000000  x9=0x00000034
       18635000	      1862	80006110	41a18db3	sub	x27,x3,x26	  x3:0x00000000 x26:0x80000000 x27=0x80000000
       18645000	      1863	80006114	02c7cc63	blt	x15,x12,8000614c	 x15:0xffffffff x12:0x0000001b
       18655000	      1864	00000000	00000013	addi	x0,x0,0	  x0:0x00000000
       18665000	      1865	80006148	00000013	addi	x0,x0,0	  x0:0x00000000
       18675000	      1866	8000614c	412dde93	srai	x29,x27,0x12	 x27:0x80000000 x29=0xffffe000
       18685000	      1867	80006150	91bc2c13	slti	x24,x24,-1765	 x24:0x00000000 x24=0x00000000
       18695000	      1868	80006154	00981663	bne	x16,x9,80006160	 x16:0x80009fc4  x9:0x00000034
       18705000	      1869	00000000	00000013	addi	x0,x0,0	  x0:0x00000000
       18715000	      1870	8000615c	00000013	addi	x0,x0,0	  x0:0x00000000
       18725000	      1871	80006160	407d0eb3	sub	x29,x26,x7	 x26:0x80000000  x7:0x00000034 x29=0x7fffffcc
       18735000	      1872	80006164	004e2a03	lw	x20,4(x28)	 x28:0x80009ef8 x20=0x8000661c PA:0x80009efc
       18745000	      1873	80006168	01b11033	sll	x0,x2,x27	  x2:0x00000434 x27:0x80000000
       18755000	      1874	8000616c	011c1993	slli	x19,x24,0x11	 x24:0x00000000 x19=0x00000000
       18765000	      1875	80006170	030e0e13	addi	x28,x28,48	 x28:0x80009ef8 x28=0x80009f28
       18775000	      1876	80006174	419381b3	sub	x3,x7,x25	  x7:0x00000034 x25:0x00000000  x3=0x00000034
       18785000	      1877	80006178	000d8533	add	x10,x27,x0	 x27:0x80000000  x0:0x00000000 x10=0x80000000
       18795000	      1878	8000617c	0066c8b3	xor	x17,x13,x6	 x13:0x00000000  x6:0x00000665 x17=0x00000665
       18805000	      1879	80006180	0118f933	and	x18,x17,x17	 x17:0x00000665 x17:0x00000665 x18=0x00000665
       18815000	      1880	80006184	0188b5b3	sltu	x11,x17,x24	 x17:0x00000665 x24:0x00000000 x11=0x00000000
       18825000	      1881	80006188	a77274b7	lui	x9,0xa7727	  x9=0xa7727000
       18835000	      1882	8000618c	001a0113	addi	x2,x20,1	 x20:0x8000661c  x2=0x8000661d
       18845000	      1883	80006190	00010167	jalr	x2,x2,0	  x2:0x8000661d  x2=0x80006190
       18855000	      1884	00000000	00000013	addi	x0,x0,0	  x0:0x00000000
       18865000	      1885	8000661c	00000013	addi	x0,x0,0	  x0:0x00000000
       18875000	      1886	80006620	c3f97a17	auipc	x20,0xc3f97	 x20=0x43f9d61c
       18885000	      1887	80006624	005b71b3	and	x3,x22,x5	 x22:0x7a9e5104  x5:0x00000001  x3=0x00000000
       18895000	      1888	80006628	1721b513	sltiu	x10,x3,370	  x3:0x00000000 x10=0x00000001
       18905000	      1889	8000662c	00a06233	or	x4,x0,x10	  x0:0x00000000 x10:0x00000001  x4=0x00000001
       18915000	      1890	80006630	015f7c33	and	x24,x30,x21	 x30:0x00000000 x21:0x00000000 x24=0x00000000
       18925000	      1891	80006634	00639a13	slli	x20,x7,0x6	  x7:0x00000034 x20=0x00000d00
       18935000	      1892	80006638	21d3fdb7	lui	x27,0x21d3f	 x27=0x21d3f000
       18945000	      1893	8000663c	00050c33	add	x24,x10,x0	 x10:0x00000001  x0:0x00000000 x24=0x00000001
       18955000	      1894	80006640	03aedc63	bge	x29,x26,80006678	 x29:0x7fffffcc x26:0x80000000
       18965000	      1895	00000000	00000013	addi	x0,x0,0	  x0:0x00000000
       18975000	      1896	80006674	00000013	addi	x0,x0,0	  x0:0x00000000
       18985000	      1897	80006678	005606b3	add	x13,x12,x5	 x12:0x0000001b  x5:0x00000001 x13=0x0000001c
       18995000	      1898	8000667c	0338ca63	blt	x17,x19,800066b0	 x17:0x00000665 x19:0x00000000
       19005000	      1899	80006680	003e3333	sltu	x6,x28,x3	 x28:0x80009f28  x3:0x00000000  x6=0x00000000
       19015000	      1900	80006684	01721333	sll	x6,x4,x23	  x4:0x00000001 x23:0x00000255  x6=0x00200000
       19025000	      1901	80006688	822ff413	andi	x8,x31,-2014	 x31:0x63465000  x8=0x63465000
       19035000	      1902	8000668c	04935663	bge	x6,x9,800066d8	  x6:0x00200000  x9:0xa7727000
       19045000	      1903	00000000	00000013	addi	x0,x0,0	  x0:0x00000000
       19055000	      1904	800066d4	00000013	addi	x0,x0,0	  x0:0x00000000
       19065000	      1905	800066d8	04f4d663	bge	x9,x15,80006724	  x9:0xa7727000 x15:0xffffffff
       19075000	      1906	800066dc	40fed613	srai	x12,x29,0xf	 x29:0x7fffffcc x12=0x0000ffff
       19085000	      1907	800066e0	4d513c37	lui	x24,0x4d513	 x24=0x4d513000
       19095000	      1908	800066e4	9227fc97	auipc	x25,0x9227f	 x25=0x122856e0
       19105000	      1909	800066e8	00a91f33	sll	x30,x18,x10	 x18:0x00000665 x10:0x00000001 x30=0x00000cca
       19115000	      1910	800066ec	02f68663	beq	x13,x15,80006718	 x13:0x0000001c x15:0xffffffff
       19125000	      1911	800066f0	017e5db3	srl	x27,x28,x23	 x28:0x80009f28 x23:0x00000255 x27=0x00000400
       19135000	      1912	800066f4	01ebda63	bge	x23,x30,80006708	 x23:0x00000255 x30:0x00000cca
       19145000	      1913	800066f8	019c8cb3	add	x25,x25,x25	 x25:0x122856e0 x25:0x122856e0 x25=0x2450adc0
       19155000	      1914	800066fc	02ed1863	bne	x26,x14,8000672c	 x26:0x80000000 x14:0x80009ff8
       19165000	      1915	00000000	00000013	addi	x0,x0,0	  x0:0x00000000
       19175000	      1916	80006728	00000013	addi	x0,x0,0	  x0:0x00000000
       19185000	      1917	8000672c	01336cb3	or	x25,x6,x19	  x6:0x00200000 x19:0x00000000 x25=0x00200000
       19195000	      1918	80006730	00000013	addi	x0,x0,0	  x0:0x00000000
       19205000	      1919	80006734	1c4f2493	slti	x9,x30,452	 x30:0x00000cca  x9=0x00000000
       19215000	      1920	80006738	01d2c3b3	xor	x7,x5,x29	  x5:0x00000001 x29:0x7fffffcc  x7=0x7fffffcd
       19225000	      1921	8000673c	01d01033	sll	x0,x0,x29	  x0:0x00000000 x29:0x7fffffcc
       19235000	      1922	80006740	00f0fc63	bgeu	x1,x15,80006758	  x1:0x00000001 x15:0xffffffff
       19245000	      1923	80006744	004ccc63	blt	x25,x4,8000675c	 x25:0x00200000  x4:0x00000001
       19255000	      1924	80006748	04135863	bge	x6,x1,80006798	  x6:0x00200000  x1:0x00000001
       19265000	      1925	00000000	00000013	addi	x0,x0,0	  x0:0x00000000
       19275000	      1926	80006794	00000013	addi	x0,x0,0	  x0:0x00000000
       19285000	      1927	80006798	01410e63	beq	x2,x20,800067b4	  x2:0x80006190 x20:0x00000d00
       19295000	      1928	8000679c	020a6863	bltu	x20,x0,800067cc	 x20:0x00000d00  x0:0x00000000
       19305000	      1929	800067a0	015473b3	and	x7,x8,x21	  x8:0x63465000 x21:0x00000000  x7=0x00000000
       19315000	      1930	800067a4	04157663	bgeu	x10,x1,800067f0	 x10:0x00000001  x1:0x00000001
       19325000	      1931	00000000	00000013	addi	x0,x0,0	  x0:0x00000000
       19335000	      1932	800067ec	00000013	addi	x0,x0,0	  x0:0x00000000
       19345000	      1933	800067f0	cad8a493	slti	x9,x17,-851	 x17:0x00000665  x9=0x00000000
       19355000	      1934	800067f4	e0a17013	andi	x0,x2,-502	  x2:0x80006190
       19365000	      1935	800067f8	40f30ab3	sub	x21,x6,x15	  x6:0x00200000 x15:0xffffffff x21=0x00200001
       19375000	      1936	800067fc	01e5ba33	sltu	x20,x11,x30	 x11:0x00000000 x30:0x00000cca x20=0x00000001
       19385000	      1937	80006800	25a1ca93	xori	x21,x3,602	  x3:0x00000000 x21=0x0000025a
       19395000	      1938	80006804	018ce233	or	x4,x25,x24	 x25:0x00200000 x24:0x4d513000  x4=0x4d713000
       19405000	      1939	80006808	cc4a8237	lui	x4,0xcc4a8	  x4=0xcc4a8000
       19415000	      1940	8000680c	9f900397	auipc	x7,0x9f900	  x7=0x1f906808
       19425000	      1941	80006810	05ee7663	bgeu	x28,x30,8000685c	 x28:0x80009f28 x30:0x00000cca
       19435000	      1942	00000000	00000013	addi	x0,x0,0	  x0:0x00000000
       19445000	      1943	80006858	00000013	addi	x0,x0,0	  x0:0x00000000
       19455000	      1944	8000685c	031cee63	bltu	x25,x17,80006898	 x25:0x00200000 x17:0x00000665
       19465000	      1945	80006860	3e9e0313	addi	x6,x28,1001	 x28:0x80009f28  x6=0x8000a311
       19475000	      1946	80006864	006f5293	srli	x5,x30,0x6	 x30:0x00000cca  x5=0x00000033
       19485000	      1947	80006868	00b45c93	srli	x25,x8,0xb	  x8:0x63465000 x25=0x000c68ca
       19495000	      1948	8000686c	001181b3	add	x3,x3,x1	  x3:0x00000000  x1:0x00000001  x3=0x00000001
       19505000	      1949	80006870	010af9b3	and	x19,x21,x16	 x21:0x0000025a x16:0x80009fc4 x19=0x00000240
       19515000	      1950	80006874	40240f33	sub	x30,x8,x2	  x8:0x63465000  x2:0x80006190 x30=0xe345ee70
       19525000	      1951	80006878	01a835b3	sltu	x11,x16,x26	 x16:0x80009fc4 x26:0x80000000 x11=0x00000000
       19535000	      1952	8000687c	01099db3	sll	x27,x19,x16	 x19:0x00000240 x16:0x80009fc4 x27=0x00002400
       19545000	      1953	80006880	c597ec93	ori	x25,x15,-935	 x15:0xffffffff x25=0xffffffff
       19555000	      1954	80006884	9fcffa6f	jal	x20,80006884	 x20=0x80006884
       19565000	      1955	00000000	00000013	addi	x0,x0,0	  x0:0x00000000
       19575000	      1956	80005a7c	00000013	addi	x0,x0,0	  x0:0x00000000
       19585000	      1957	80005a80	fc0e0e13	addi	x28,x28,-64	 x28:0x80009f28 x28=0x80009ee8
       19595000	      1958	80005a84	00e11613	slli	x12,x2,0xe	  x2:0x80006190 x12=0x18640000
       19605000	      1959	80005a88	014e2223	sw	x20,4(x28)	 x28:0x80009ee8 x20:0x80006884 PA:0x80009eec
       19615000	      1960	80005a8c	01dd9db3	sll	x27,x27,x29	 x27:0x00002400 x29:0x7fffffcc x27=0x02400000
       19625000	      1961	80005a90	00f628b3	slt	x17,x12,x15	 x12:0x18640000 x15:0xffffffff x17=0x00000000
       19635000	      1962	80005a94	00000397	auipc	x7,0x0	  x7=0x80005a90
       19645000	      1963	80005a98	0d038393	addi	x7,x7,208	  x7:0x80005a90  x7=0x80005b60
       19655000	      1964	80005a9c	0c438393	addi	x7,x7,196	  x7:0x80005b60  x7=0x80005c24
       19665000	      1965	80005aa0	01eb9133	sll	x2,x23,x30	 x23:0x00000255 x30:0xe345ee70  x2=0x02550000
       19675000	      1966	80005aa4	32388e93	addi	x29,x17,803	 x17:0x00000000 x29=0x00000323
       19685000	      1967	80005aa8	00000013	addi	x0,x0,0	  x0:0x00000000
       19695000	      1968	80005aac	01190233	add	x4,x18,x17	 x18:0x00000665 x17:0x00000000  x4=0x00000665
       19705000	      1969	80005ab0	07a58597	auipc	x11,0x7a58	 x11=0x87a5daac
       19715000	      1970	80005ab4	015a7a63	bgeu	x20,x21,80005ac8	 x20:0x80006884 x21:0x0000025a
       19725000	      1971	00000000	00000013	addi	x0,x0,0	  x0:0x00000000
       19735000	      1972	80005ac4	00000013	addi	x0,x0,0	  x0:0x00000000
       19745000	      1973	80005ac8	f3d38a67	jalr	x20,x7,-195	  x7:0x80005c24 x20=0x80005ac8
       19755000	      1974	00000000	00000013	addi	x0,x0,0	  x0:0x00000000
       19765000	      1975	80005b60	00000013	addi	x0,x0,0	  x0:0x00000000
       19775000	      1976	80005b64	00000013	addi	x0,x0,0	  x0:0x00000000
       19785000	      1977	80005b68	ff4e0e13	addi	x28,x28,-12	 x28:0x80009ee8 x28=0x80009edc
       19795000	      1978	80005b6c	00000013	addi	x0,x0,0	  x0:0x00000000
       19805000	      1979	80005b70	00982ab3	slt	x21,x16,x9	 x16:0x80009fc4  x9:0x00000000 x21=0x00000001
       19815000	      1980	80005b74	41b1d693	srai	x13,x3,0x1b	  x3:0x00000001 x13=0x00000000
       19825000	      1981	80005b78	00000013	addi	x0,x0,0	  x0:0x00000000
       19835000	      1982	80005b7c	01fc94b3	sll	x9,x25,x31	 x25:0xffffffff x31:0x63465000  x9=0xffffffff
       19845000	      1983	80005b80	014e2223	sw	x20,4(x28)	 x28:0x80009edc x20:0x80005ac8 PA:0x80009ee0
       19855000	      1984	80005b84	013fd0b3	srl	x1,x31,x19	 x31:0x63465000 x19:0x00000240  x1=0x63465000
       19865000	      1985	80005b88	54c0fe93	andi	x29,x1,1356	  x1:0x63465000 x29=0x00000000
       19875000	      1986	80005b8c	ac610e93	addi	x29,x2,-1338	  x2:0x02550000 x29=0x0254fac6
       19885000	      1987	80005b90	012c5f13	srli	x30,x24,0x12	 x24:0x4d513000 x30=0x00001354
       19895000	      1988	80005b94	40ec8b33	sub	x22,x25,x14	 x25:0xffffffff x14:0x80009ff8 x22=0x7fff6007
       19905000	      1989	80005b98	01a16fb3	or	x31,x2,x26	  x2:0x02550000 x26:0x80000000 x31=0x82550000
       19915000	      1990	80005b9c	0242d063	bge	x5,x4,80005bbc	  x5:0x00000033  x4:0x00000665
       19925000	      1991	80005ba0	4e3ab013	sltiu	x0,x21,1251	 x21:0x00000001
       19935000	      1992	80005ba4	73a6e517	auipc	x10,0x73a6e	 x10=0xf3a73ba0
       19945000	      1993	80005ba8	59cbea93	ori	x21,x23,1436	 x23:0x00000255 x21=0x000007dd
       19955000	      1994	80005bac	ea4ac293	xori	x5,x21,-348	 x21:0x000007dd  x5=0xfffff979
       19965000	      1995	80005bb0	62f18493	addi	x9,x3,1583	  x3:0x00000001  x9=0x00000630
       19975000	      1996	80005bb4	a0807213	andi	x4,x0,-1528	  x0:0x00000000  x4=0x00000000
       19985000	      1997	80005bb8	00999193	slli	x3,x19,0x9	 x19:0x00000240  x3=0x00048000
       19995000	      1998	80005bbc	f7cfda6f	jal	x20,80005bbc	 x20=0x80005bbc
       20005000	      1999	00000000	00000013	addi	x0,x0,0	  x0:0x00000000
       20015000	      2000	80003334	00000013	addi	x0,x0,0	  x0:0x00000000
       20025000	      2001	80003338	009f9263	bne	x31,x9,8000333c	 x31:0x82550000  x9:0x00000630
       20035000	      2002	00000000	00000013	addi	x0,x0,0	  x0:0x00000000
       20045000	      2003	80003338	00000013	addi	x0,x0,0	  x0:0x00000000
       20055000	      2004	8000333c	fece0e13	addi	x28,x28,-20	 x28:0x80009edc x28=0x80009ec8
       20065000	      2005	80003340	00f3c733	xor	x14,x7,x15	  x7:0x80005c24 x15:0xffffffff x14=0x7fffa3db
       20075000	      2006	80003344	00514c33	xor	x24,x2,x5	  x2:0x02550000  x5:0xfffff979 x24=0xfdaaf979
       20085000	      2007	80003348	08fac537	lui	x10,0x8fac	 x10=0x08fac000
       20095000	      2008	8000334c	010c10b3	sll	x1,x24,x16	 x24:0xfdaaf979 x16:0x80009fc4  x1=0xdaaf9790
       20105000	      2009	80003350	014e2223	sw	x20,4(x28)	 x28:0x80009ec8 x20:0x80005bbc PA:0x80009ecc
       20115000	      2010	80003354	40b681b3	sub	x3,x13,x11	 x13:0x00000000 x11:0x87a5daac  x3=0x785a2554
       20125000	      2011	80003358	00005117	auipc	x2,0x5	  x2=0x80008354
       20135000	      2012	8000335c	24510113	addi	x2,x2,581	  x2:0x80008354  x2=0x80008599
       20145000	      2013	80003360	01fffdb3	and	x27,x31,x31	 x31:0x82550000 x31:0x82550000 x27=0x82550000
       20155000	      2014	80003364	000b2433	slt	x8,x22,x0	 x22:0x7fff6007  x0:0x00000000  x8=0x00000000
       20165000	      2015	80003368	0028acb3	slt	x25,x17,x2	 x17:0x00000000  x2:0x80008599 x25=0x00000000
       20175000	      2016	8000336c	00fa9c13	slli	x24,x21,0xf	 x21:0x000007dd x24=0x03ee8000
       20185000	      2017	80003370	ff810f03	lb	x30,-8(x2)	  x2:0x80008599 x30=0xffffff96 PA:0x80008591
       20195000	      2018	80003374	41fcdfb3	sra	x31,x25,x31	 x25:0x00000000 x31:0x82550000 x31=0x00000000
       20205000	      2019	80003378	03414703	lbu	x14,52(x2)	  x2:0x80008599 x14=0x00000084 PA:0x800085cd
       20215000	      2020	8000337c	010d9493	slli	x9,x27,0x10	 x27:0x82550000  x9=0x00000000
       20225000	      2021	80003380	04014a03	lbu	x20,64(x2)	  x2:0x80008599 x20=0x00000035 PA:0x800085d9
       20235000	      2022	80003384	cbcbcfb7	lui	x31,0xcbcbc	 x31=0xcbcbc000
       20245000	      2023	80003388	fcc10183	lb	x3,-52(x2)	  x2:0x80008599  x3=0x00000028 PA:0x80008565
       20255000	      2024	8000338c	012106a3	sb	x18,13(x2)	  x2:0x80008599 x18:0x00000665 PA:0x800085a6
       20265000	      2025	80003390	ff810823	sb	x24,-16(x2)	  x2:0x80008599 x24:0x03ee8000 PA:0x80008589
       20275000	      2026	80003394	41405233	sra	x4,x0,x20	  x0:0x00000000 x20:0x00000035  x4=0x00000000
       20285000	      2027	80003398	02111883	lh	x17,33(x2)	  x2:0x80008599 x17=0x0000694c PA:0x800085ba
       20295000	      2028	00000000	00000013	addi	x0,x0,0	  x0:0x00000000
       20305000	      2029	8000339c	ff110523	sb	x17,-22(x2)	  x2:0x80008599 x17:0x0000694c PA:0x80008583
       20315000	      2030	800033a0	017b87b3	add	x15,x23,x23	 x23:0x00000255 x23:0x00000255 x15=0x000004aa
       20325000	      2031	800033a4	00b05d93	srli	x27,x0,0xb	  x0:0x00000000 x27=0x00000000
       20335000	      2032	800033a8	01510fb3	add	x31,x2,x21	  x2:0x80008599 x21:0x000007dd x31=0x80008d76
       20345000	      2033	800033ac	00669493	slli	x9,x13,0x6	 x13:0x00000000  x9=0x00000000
       20355000	      2034	800033b0	013a59b3	srl	x19,x20,x19	 x20:0x00000035 x19:0x00000240 x19=0x00000035
       20365000	      2035	800033b4	fc712da3	sw	x7,-37(x2)	  x2:0x80008599  x7:0x80005c24 PA:0x80008574
       20375000	      2036	800033b8	03e10a23	sb	x30,52(x2)	  x2:0x80008599 x30:0xffffff96 PA:0x800085cd
       20385000	      2037	800033bc	00af9cb3	sll	x25,x31,x10	 x31:0x80008d76 x10:0x08fac000 x25=0x80008d76
       20395000	      2038	800033c0	4156deb3	sra	x29,x13,x21	 x13:0x00000000 x21:0x000007dd x29=0x00000000
       20405000	      2039	800033c4	d6a0bf13	sltiu	x30,x1,-662	  x1:0xdaaf9790 x30=0x00000001
       20415000	      2040	800033c8	00410383	lb	x7,4(x2)	  x2:0x80008599  x7=0x0000001a PA:0x8000859d
       20425000	      2041	800033cc	fd210203	lb	x4,-46(x2)	  x2:0x80008599  x4=0xffffff85 PA:0x8000856b
       20435000	      2042	800033d0	2d8cef13	ori	x30,x25,728	 x25:0x80008d76 x30=0x80008ffe
       20445000	      2043	800033d4	ff214b03	lbu	x22,-14(x2)	  x2:0x80008599 x22=0x00000034 PA:0x8000858b
       20455000	      2044	800033d8	fef104a3	sb	x15,-23(x2)	  x2:0x80008599 x15:0x000004aa PA:0x80008582
       20465000	      2045	800033dc	00006997	auipc	x19,0x6	 x19=0x800093d8
       20475000	      2046	800033e0	99398993	addi	x19,x19,-1645	 x19:0x800093d8 x19=0x80008d6b
       20485000	      2047	800033e4	008567b3	or	x15,x10,x8	 x10:0x08fac000  x8:0x00000000 x15=0x08fac000
       20495000	      2048	800033e8	40665f93	srai	x31,x12,0x6	 x12:0x18640000 x31=0x00619000
       20505000	      2049	800033ec	4541b593	sltiu	x11,x3,1108	  x3:0x00000028 x11=0x00000001
       20515000	      2050	800033f0	ab598603	lb	x12,-1355(x19)	 x19:0x80008d6b x12=0x00000031 PA:0x80008820
       20525000	      2051	800033f4	36a53093	sltiu	x1,x10,874	 x10:0x08fac000  x1=0x00000000
       20535000	      2052	800033f8	db229097	auipc	x1,0xdb229	  x1=0x5b22c3f4
       20545000	      2053	800033fc	00e86b33	or	x22,x16,x14	 x16:0x80009fc4 x14:0x00000084 x22=0x80009fc4
       20555000	      2054	80003400	dda98a03	lb	x20,-550(x19)	 x19:0x80008d6b x20=0x0000006c PA:0x80008b45
       20565000	      2055	80003404	7b25bb93	sltiu	x23,x11,1970	 x11:0x00000001 x23=0x00000001
       20575000	      2056	80003408	1be984a3	sb	x30,425(x19)	 x19:0x80008d6b x30:0x80008ffe PA:0x80008f14
       20585000	      2057	8000340c	2599db83	lhu	x23,601(x19)	 x19:0x80008d6b x23=0x0000b36d PA:0x80008fc4
       20595000	      2058	80003410	9288c213	xori	x4,x17,-1752	 x17:0x0000694c  x4=0xffff9064
       20605000	      2059	80003414	01495393	srli	x7,x18,0x14	 x18:0x00000665  x7=0x00000000
       20615000	      2060	80003418	5eaf9737	lui	x14,0x5eaf9	 x14=0x5eaf9000
       20625000	      2061	8000341c	002c6db3	or	x27,x24,x2	 x24:0x03ee8000  x2:0x80008599 x27=0x83ee8599
       20635000	      2062	80003420	f6b98b83	lb	x23,-149(x19)	 x19:0x80008d6b x23=0xffffffbe PA:0x80008cd6
       20645000	      2063	80003424	c01f0f13	addi	x30,x30,-1023	 x30:0x80008ffe x30=0x80008bff
       20655000	      2064	80003428	41f6d4b3	sra	x9,x13,x31	 x13:0x00000000 x31:0x00619000  x9=0x00000000
       20665000	      2065	8000342c	01351633	sll	x12,x10,x19	 x10:0x08fac000 x19:0x80008d6b x12=0xd6000000
       20675000	      2066	80003430	013c1db3	sll	x27,x24,x19	 x24:0x03ee8000 x19:0x80008d6b x27=0x74000000
       20685000	      2067	80003434	fb29cc83	lbu	x25,-78(x19)	 x19:0x80008d6b x25=0x00000078 PA:0x80008d1d
       20695000	      2068	80003438	01076f33	or	x30,x14,x16	 x14:0x5eaf9000 x16:0x80009fc4 x30=0xdeaf9fc4
       20705000	      2069	8000343c	ed799f83	lh	x31,-297(x19)	 x19:0x80008d6b x31=0xffffd8af PA:0x80008c42
       20715000	      2070	80003440	0ce9c903	lbu	x18,206(x19)	 x19:0x80008d6b x18=0x0000009f PA:0x80008e39
       20725000	      2071	80003444	408d0133	sub	x2,x26,x8	 x26:0x80000000  x8:0x00000000  x2=0x80000000
       20735000	      2072	80003448	b6399083	lh	x1,-1181(x19)	 x19:0x80008d6b  x1=0x00003a2f PA:0x800088ce
       20745000	      2073	8000344c	009d80b3	add	x1,x27,x9	 x27:0x74000000  x9:0x00000000  x1=0x74000000
       20755000	      2074	80003450	f8998923	sb	x9,-110(x19)	 x19:0x80008d6b  x9:0x00000000 PA:0x80008cfd
       20765000	      2075	80003454	1a96ed93	ori	x27,x13,425	 x13:0x00000000 x27=0x000001a9
       20775000	      2076	80003458	de89cb83	lbu	x23,-536(x19)	 x19:0x80008d6b x23=0x0000000a PA:0x80008b53
       20785000	      2077	8000345c	e60ca537	lui	x10,0xe60ca	 x10=0xe60ca000
       20795000	      2078	80003460	01d01e93	slli	x29,x0,0x1d	  x0:0x00000000 x29=0x00000000
       20805000	      2079	80003464	b9598a83	lb	x21,-1131(x19)	 x19:0x80008d6b x21=0x00000018 PA:0x80008900
       20815000	      2080	80003468	00000013	addi	x0,x0,0	  x0:0x00000000
       20825000	      2081	8000346c	01bf0db3	add	x27,x30,x27	 x30:0xdeaf9fc4 x27:0x000001a9 x27=0xdeafa16d
       20835000	      2082	80003470	aa474313	xori	x6,x14,-1372	 x14:0x5eaf9000  x6=0xa1506aa4
       20845000	      2083	80003474	011e6433	or	x8,x28,x17	 x28:0x80009ec8 x17:0x0000694c  x8=0x8000ffcc
       20855000	      2084	80003478	de89c903	lbu	x18,-536(x19)	 x19:0x80008d6b x18=0x0000000a PA:0x80008b53
       20865000	      2085	8000347c	20399503	lh	x10,515(x19)	 x19:0x80008d6b x10=0x00006d4f PA:0x80008f6e
       20875000	      2086	80003480	b319a283	lw	x5,-1231(x19)	 x19:0x80008d6b  x5=0x3e1e6553 PA:0x8000889c
       20885000	      2087	80003484	00005117	auipc	x2,0x5	  x2=0x80008480
       20895000	      2088	80003488	5fc10113	addi	x2,x2,1532	  x2:0x80008480  x2=0x80008a7c
       20905000	      2089	8000348c	e015f493	andi	x9,x11,-511	 x11:0x00000001  x9=0x00000001
       20915000	      2090	80003490	f0914483	lbu	x9,-247(x2)	  x2:0x80008a7c  x9=0x00000079 PA:0x80008985
       20925000	      2091	80003494	fb6105a3	sb	x22,-85(x2)	  x2:0x80008a7c x22:0x80009fc4 PA:0x80008a27
       20935000	      2092	80003498	ff8101a3	sb	x24,-29(x2)	  x2:0x80008a7c x24:0x03ee8000 PA:0x80008a5f
       20945000	      2093	8000349c	01bd91b3	sll	x3,x27,x27	 x27:0xdeafa16d x27:0xdeafa16d  x3=0xf42da000
       20955000	      2094	800034a0	40925933	sra	x18,x4,x9	  x4:0xffff9064  x9:0x00000079 x18=0xffffffff
       20965000	      2095	800034a4	ca664093	xori	x1,x12,-858	 x12:0xd6000000  x1=0x29fffca6
       20975000	      2096	800034a8	0184a0b3	slt	x1,x9,x24	  x9:0x00000079 x24:0x03ee8000  x1=0x00000001
       20985000	      2097	800034ac	00b7d933	srl	x18,x15,x11	 x15:0x08fac000 x11:0x00000001 x18=0x047d6000
       20995000	      2098	800034b0	d6cbb297	auipc	x5,0xd6cbb	  x5=0x56cbe4ac
       21005000	      2099	800034b4	f8910983	lb	x19,-119(x2)	  x2:0x80008a7c x19=0xffffff88 PA:0x80008a05
       21015000	      2100	800034b8	07710a83	lb	x21,119(x2)	  x2:0x80008a7c x21=0xffffff95 PA:0x80008af3
       21025000	      2101	800034bc	00239c93	slli	x25,x7,0x2	  x7:0x00000000 x25=0x00000000
       21035000	      2102	800034c0	5c9c30b7	lui	x1,0x5c9c3	  x1=0x5c9c3000
       21045000	      2103	800034c4	0db10703	lb	x14,219(x2)	  x2:0x80008a7c x14=0xffffffa5 PA:0x80008b57
       21055000	      2104	800034c8	659a8d93	addi	x27,x21,1625	 x21:0xffffff95 x27=0x000005ee
       21065000	      2105	800034cc	00617ab3	and	x21,x2,x6	  x2:0x80008a7c  x6:0xa1506aa4 x21=0x80000a24
       21075000	      2106	800034d0	07c10ca3	sb	x28,121(x2)	  x2:0x80008a7c x28:0x80009ec8 PA:0x80008af5
       21085000	      2107	800034d4	f0914503	lbu	x10,-247(x2)	  x2:0x80008a7c x10=0x00000079 PA:0x80008985
       21095000	      2108	800034d8	0da15983	lhu	x19,218(x2)	  x2:0x80008a7c x19=0x0000a5c2 PA:0x80008b56
       21105000	      2109	800034dc	0a410603	lb	x12,164(x2)	  x2:0x80008a7c x12=0xffffff94 PA:0x80008b20
       21115000	      2110	800034e0	07f14003	lbu	x0,127(x2)	  x2:0x80008a7c PA:0x80008afb
       21125000	      2111	800034e4	018f1593	slli	x11,x30,0x18	 x30:0xdeaf9fc4 x11=0xc4000000
       21135000	      2112	800034e8	f5310403	lb	x8,-173(x2)	  x2:0x80008a7c  x8=0x00000057 PA:0x800089cf
       21145000	      2113	800034ec	0b012203	lw	x4,176(x2)	  x2:0x80008a7c  x4=0xde219cbd PA:0x80008b2c
       21155000	      2114	800034f0	01ad7433	and	x8,x26,x26	 x26:0x80000000 x26:0x80000000  x8=0x80000000
       21165000	      2115	800034f4	726ec413	xori	x8,x29,1830	 x29:0x00000000  x8=0x00000726
       21175000	      2116	800034f8	f4f14c83	lbu	x25,-177(x2)	  x2:0x80008a7c x25=0x00000037 PA:0x800089cb
       21185000	      2117	800034fc	06511c23	sh	x5,120(x2)	  x2:0x80008a7c  x5:0x56cbe4ac PA:0x80008af4
       21195000	      2118	80003500	fc910303	lb	x6,-55(x2)	  x2:0x80008a7c  x6=0x00000044 PA:0x80008a45
       21205000	      2119	80003504	09c14283	lbu	x5,156(x2)	  x2:0x80008a7c  x5=0x00000017 PA:0x80008b18
       21215000	      2120	80003508	0ef14203	lbu	x4,239(x2)	  x2:0x80008a7c  x4=0x000000db PA:0x80008b6b
       21225000	      2121	8000350c	2afc13b7	lui	x7,0x2afc1	  x7=0x2afc1000
       21235000	      2122	80003510	014b4db3	xor	x27,x22,x20	 x22:0x80009fc4 x20:0x0000006c x27=0x80009fa8
       21245000	      2123	80003514	fa410503	lb	x10,-92(x2)	  x2:0x80008a7c x10=0xffffffc7 PA:0x80008a20
       21255000	      2124	80003518	01bc61b3	or	x3,x24,x27	 x24:0x03ee8000 x27:0x80009fa8  x3=0x83ee9fa8
       21265000	      2125	8000351c	400a54b3	sra	x9,x20,x0	 x20:0x0000006c  x0:0x00000000  x9=0x0000006c
       21275000	      2126	80003520	fe914983	lbu	x19,-23(x2)	  x2:0x80008a7c x19=0x00000096 PA:0x80008a65
       21285000	      2127	80003524	f5d10e83	lb	x29,-163(x2)	  x2:0x80008a7c x29=0x00000033 PA:0x800089d9
       21295000	      2128	80003528	0045cc33	xor	x24,x11,x4	 x11:0xc4000000  x4:0x000000db x24=0xc40000db
       21305000	      2129	8000352c	f6f105a3	sb	x15,-149(x2)	  x2:0x80008a7c x15:0x08fac000 PA:0x800089e7
       21315000	      2130	80003530	006c7513	andi	x10,x24,6	 x24:0xc40000db x10=0x00000002
       21325000	      2131	80003534	0c015c03	lhu	x24,192(x2)	  x2:0x80008a7c x24=0x0000ca95 PA:0x80008b3c
       21335000	      2132	80003538	5d507d93	andi	x27,x0,1493	  x0:0x00000000 x27=0x00000000
       21345000	      2133	8000353c	0cf14883	lbu	x17,207(x2)	  x2:0x80008a7c x17=0x000000c8 PA:0x80008b4b
       21355000	      2134	80003540	00005117	auipc	x2,0x5	  x2=0x8000853c
       21365000	      2135	80003544	19310113	addi	x2,x2,403	  x2:0x8000853c  x2=0x800086cf
       21375000	      2136	80003548	415dd333	sra	x6,x27,x21	 x27:0x00000000 x21:0x80000a24  x6=0x00000000
       21385000	      2137	8000354c	0026bb33	sltu	x22,x13,x2	 x13:0x00000000  x2:0x800086cf x22=0x00000001
       21395000	      2138	80003550	00f769b3	or	x19,x14,x15	 x14:0xffffffa5 x15:0x08fac000 x19=0xffffffa5
       21405000	      2139	80003554	28028f93	addi	x31,x5,640	  x5:0x00000017 x31=0x00000297
       21415000	      2140	80003558	0105e5b3	or	x11,x11,x16	 x11:0xc4000000 x16:0x80009fc4 x11=0xc4009fc4
       21425000	      2141	8000355c	00611f13	slli	x30,x2,0x6	  x2:0x800086cf x30=0x0021b3c0
       21435000	      2142	80003560	f6683693	sltiu	x13,x16,-154	 x16:0x80009fc4 x13=0x00000001
       21445000	      2143	80003564	402cd233	sra	x4,x25,x2	 x25:0x00000037  x2:0x800086cf  x4=0x00000000
       21455000	      2144	80003568	c4a14b83	lbu	x23,-950(x2)	  x2:0x800086cf x23=0x0000007b PA:0x80008319
       21465000	      2145	8000356c	fc311403	lh	x8,-61(x2)	  x2:0x800086cf  x8=0x00003ee2 PA:0x80008692
       21475000	      2146	80003570	017224b3	slt	x9,x4,x23	  x4:0x00000000 x23:0x0000007b  x9=0x00000001
       21485000	      2147	80003574	00ca50b3	srl	x1,x20,x12	 x20:0x0000006c x12:0xffffff94  x1=0x00000000
       21495000	      2148	80003578	0199a9b3	slt	x19,x19,x25	 x19:0xffffffa5 x25:0x00000037 x19=0x00000001
       21505000	      2149	8000357c	f3214a03	lbu	x20,-206(x2)	  x2:0x800086cf x20=0x0000007a PA:0x80008601
       21515000	      2150	80003580	b91112a3	sh	x17,-1147(x2)	  x2:0x800086cf x17:0x000000c8 PA:0x80008254
       21525000	      2151	80003584	fcf10703	lb	x14,-49(x2)	  x2:0x800086cf x14=0x0000006f PA:0x8000869e
       21535000	      2152	00000000	00000013	addi	x0,x0,0	  x0:0x00000000
       21545000	      2153	80003588	7ce4d717	auipc	x14,0x7ce4d	 x14=0xfce50584
       21555000	      2154	8000358c	0de118a3	sh	x30,209(x2)	  x2:0x800086cf x30:0x0021b3c0 PA:0x800087a0
       21565000	      2155	80003590	d6010203	lb	x4,-672(x2)	  x2:0x800086cf  x4=0x0000007d PA:0x8000842f
       21575000	      2156	80003594	c7d102a3	sb	x29,-923(x2)	  x2:0x800086cf x29:0x00000033 PA:0x80008334
       21585000	      2157	80003598	d3910003	lb	x0,-711(x2)	  x2:0x800086cf PA:0x80008408
       21595000	      2158	8000359c	01e7d5b3	srl	x11,x15,x30	 x15:0x08fac000 x30:0x0021b3c0 x11=0x08fac000
       21605000	      2159	800035a0	d02128a3	sw	x2,-751(x2)	  x2:0x800086cf  x2:0x800086cf PA:0x800083e0
       21615000	      2160	800035a4	010dedb3	or	x27,x27,x16	 x27:0x00000000 x16:0x80009fc4 x27=0x80009fc4
       21625000	      2161	800035a8	aa310c23	sb	x3,-1352(x2)	  x2:0x800086cf  x3:0x83ee9fa8 PA:0x80008187
       21635000	      2162	800035ac	df910683	lb	x13,-519(x2)	  x2:0x800086cf x13=0x0000001c PA:0x800084c8
       21645000	      2163	800035b0	0091a633	slt	x12,x3,x9	  x3:0x83ee9fa8  x9:0x00000001 x12=0x00000001
       21655000	      2164	800035b4	00b8f233	and	x4,x17,x11	 x17:0x000000c8 x11:0x08fac000  x4=0x00000000
       21665000	      2165	800035b8	00000013	addi	x0,x0,0	  x0:0x00000000
       21675000	      2166	800035bc	9f0d5a37	lui	x20,0x9f0d5	 x20=0x9f0d5000
       21685000	      2167	800035c0	b3c14983	lbu	x19,-1220(x2)	  x2:0x800086cf x19=0x0000004b PA:0x8000820b
       21695000	      2168	800035c4	a77110a3	sh	x23,-1439(x2)	  x2:0x800086cf x23:0x0000007b PA:0x80008130
       21705000	      2169	800035c8	03b10783	lb	x15,59(x2)	  x2:0x800086cf x15=0x00000065 PA:0x8000870a
       21715000	      2170	800035cc	efd11d83	lh	x27,-259(x2)	  x2:0x800086cf x27=0xffff9608 PA:0x800085cc
       21725000	      2171	800035d0	c9124313	xori	x6,x4,-879	  x4:0x00000000  x6=0xfffffc91
       21735000	      2172	800035d4	01519e93	slli	x29,x3,0x15	  x3:0x83ee9fa8 x29=0xf5000000
       21745000	      2173	800035d8	017e0a33	add	x20,x28,x23	 x28:0x80009ec8 x23:0x0000007b x20=0x80009f43
       21755000	      2174	800035dc	f5b14f83	lbu	x31,-165(x2)	  x2:0x800086cf x31=0x0000003a PA:0x8000862a
       21765000	      2175	800035e0	4bc46693	ori	x13,x8,1212	  x8:0x00003ee2 x13=0x00003efe
       21775000	      2176	800035e4	003e1fb3	sll	x31,x28,x3	 x28:0x80009ec8  x3:0x83ee9fa8 x31=0x009ec800
       21785000	      2177	800035e8	98334e93	xori	x29,x6,-1661	  x6:0xfffffc91 x29=0x00000512
       21795000	      2178	800035ec	0b510023	sb	x21,160(x2)	  x2:0x800086cf x21:0x80000a24 PA:0x8000876f
       21805000	      2179	800035f0	00510923	sb	x5,18(x2)	  x2:0x800086cf  x5:0x00000017 PA:0x800086e1
       21815000	      2180	800035f4	01df9e93	slli	x29,x31,0x1d	 x31:0x009ec800 x29=0x00000000
       21825000	      2181	800035f8	01fe1eb3	sll	x29,x28,x31	 x28:0x80009ec8 x31:0x009ec800 x29=0x80009ec8
       21835000	      2182	800035fc	0182a333	slt	x6,x5,x24	  x5:0x00000017 x24:0x0000ca95  x6=0x00000001
       21845000	      2183	80003600	402a07b3	sub	x15,x20,x2	 x20:0x80009f43  x2:0x800086cf x15=0x00001874
       21855000	      2184	80003604	b0715903	lhu	x18,-1273(x2)	  x2:0x800086cf x18=0x0000ac3f PA:0x800081d6
       21865000	      2185	80003608	01335593	srli	x11,x6,0x13	  x6:0x00000001 x11=0x00000000
       21875000	      2186	8000360c	00a10c83	lb	x25,10(x2)	  x2:0x800086cf x25=0xffffff8b PA:0x800086d9
       21885000	      2187	80003610	00005497	auipc	x9,0x5	  x9=0x8000860c
       21895000	      2188	80003614	08348493	addi	x9,x9,131	  x9:0x8000860c  x9=0x8000868f
       21905000	      2189	80003618	bd84cd83	lbu	x27,-1064(x9)	  x9:0x8000868f x27=0x00000001 PA:0x80008267
       21915000	      2190	8000361c	e9648623	sb	x22,-372(x9)	  x9:0x8000868f x22:0x00000001 PA:0x8000851b
       21925000	      2191	80003620	0905fcb7	lui	x25,0x905f	 x25=0x0905f000
       21935000	      2192	80003624	cfe48c03	lb	x24,-770(x9)	  x9:0x8000868f x24=0x0000000d PA:0x8000838d
       21945000	      2193	80003628	012a3933	sltu	x18,x20,x18	 x20:0x80009f43 x18:0x0000ac3f x18=0x00000000
       21955000	      2194	8000362c	f6c48f23	sb	x12,-130(x9)	  x9:0x8000868f x12:0x00000001 PA:0x8000860d
       21965000	      2195	80003630	a7b49083	lh	x1,-1413(x9)	  x9:0x8000868f  x1=0x00000f6b PA:0x8000810a
       21975000	      2196	80003634	0136c433	xor	x8,x13,x19	 x13:0x00003efe x19:0x0000004b  x8=0x00003eb5
       21985000	      2197	80003638	ccb4dd83	lhu	x27,-821(x9)	  x9:0x8000868f x27=0x00000000 PA:0x8000835a
       21995000	      2198	8000363c	0d448aa3	sb	x20,213(x9)	  x9:0x8000868f x20:0x80009f43 PA:0x80008764
       22005000	      2199	80003640	019698b3	sll	x17,x13,x25	 x13:0x00003efe x25:0x0905f000 x17=0x00003efe
       22015000	      2200	80003644	00502eb3	slt	x29,x0,x5	  x0:0x00000000  x5:0x00000017 x29=0x00000001
       22025000	      2201	80003648	2a46feb7	lui	x29,0x2a46f	 x29=0x2a46f000
       22035000	      2202	8000364c	00cd5533	srl	x10,x26,x12	 x26:0x80000000 x12:0x00000001 x10=0x40000000
       22045000	      2203	80003650	0132a2b3	slt	x5,x5,x19	  x5:0x00000017 x19:0x0000004b  x5=0x00000001
       22055000	      2204	80003654	c284c403	lbu	x8,-984(x9)	  x9:0x8000868f  x8=0x00000042 PA:0x800082b7
       22065000	      2205	80003658	18248203	lb	x4,386(x9)	  x9:0x8000868f  x4=0x0000002a PA:0x80008811
       22075000	      2206	8000365c	3c85b413	sltiu	x8,x11,968	 x11:0x00000000  x8=0x00000001
       22085000	      2207	80003660	d1948123	sb	x25,-766(x9)	  x9:0x8000868f x25:0x0905f000 PA:0x80008391
       22095000	      2208	80003664	d154aca3	sw	x21,-743(x9)	  x9:0x8000868f x21:0x80000a24 PA:0x800083a8
       22105000	      2209	80003668	00d41313	slli	x6,x8,0xd	  x8:0x00000001  x6=0x00002000
       22115000	      2210	8000366c	fd147e97	auipc	x29,0xfd147	 x29=0x7d14a668
       22125000	      2211	80003670	09248b83	lb	x23,146(x9)	  x9:0x8000868f x23=0x00000018 PA:0x80008721
       22135000	      2212	80003674	67f2bc37	lui	x24,0x67f2b	 x24=0x67f2b000
       22145000	      2213	80003678	ed949083	lh	x1,-295(x9)	  x9:0x8000868f  x1=0xfffff846 PA:0x80008568
       22155000	      2214	8000367c	abc482a3	sb	x28,-1371(x9)	  x9:0x8000868f x28:0x80009ec8 PA:0x80008134
       22165000	      2215	80003680	ada4cc83	lbu	x25,-1318(x9)	  x9:0x8000868f x25=0x0000005a PA:0x80008169
       22175000	      2216	80003684	b2e4c383	lbu	x7,-1234(x9)	  x9:0x8000868f  x7=0x000000cd PA:0x800081bd
       22185000	      2217	80003688	b9248b03	lb	x22,-1134(x9)	  x9:0x8000868f x22=0xffffff8b PA:0x80008221
       22195000	      2218	8000368c	a7148b83	lb	x23,-1423(x9)	  x9:0x8000868f x23=0x00000019 PA:0x80008100
       22205000	      2219	80003690	00005117	auipc	x2,0x5	  x2=0x8000868c
       22215000	      2220	80003694	61e10113	addi	x2,x2,1566	  x2:0x8000868c  x2=0x80008caa
       22225000	      2221	80003698	01e62733	slt	x14,x12,x30	 x12:0x00000001 x30:0x0021b3c0 x14=0x00000001
       22235000	      2222	8000369c	a67bc893	xori	x17,x23,-1433	 x23:0x00000019 x17=0xfffffa7e
       22245000	      2223	800036a0	00408533	add	x10,x1,x4	  x1:0xfffff846  x4:0x0000002a x10=0xfffff870
       22255000	      2224	800036a4	006ff7b3	and	x15,x31,x6	 x31:0x009ec800  x6:0x00002000 x15=0x00000000
       22265000	      2225	800036a8	00ca1493	slli	x9,x20,0xc	 x20:0x80009f43  x9=0x09f43000
       22275000	      2226	800036ac	00714503	lbu	x10,7(x2)	  x2:0x80008caa x10=0x00000048 PA:0x80008cb1
       22285000	      2227	800036b0	876fa417	auipc	x8,0x876fa	  x8=0x076fd6ac
       22295000	      2228	800036b4	ff911923	sh	x25,-14(x2)	  x2:0x80008caa x25:0x0000005a PA:0x80008c9c
       22305000	      2229	800036b8	004e1413	slli	x8,x28,0x4	 x28:0x80009ec8  x8=0x0009ec80
       22315000	      2230	800036bc	ffd10823	sb	x29,-16(x2)	  x2:0x80008caa x29:0x7d14a668 PA:0x80008c9a
       22325000	      2231	800036c0	fe211d23	sh	x2,-6(x2)	  x2:0x80008caa  x2:0x80008caa PA:0x80008ca4
       22335000	      2232	800036c4	01d107a3	sb	x29,15(x2)	  x2:0x80008caa x29:0x7d14a668 PA:0x80008cb9
       22345000	      2233	800036c8	fe010f23	sb	x0,-2(x2)	  x2:0x80008caa  x0:0x00000000 PA:0x80008ca8
       22355000	      2234	800036cc	ff910483	lb	x9,-7(x2)	  x2:0x80008caa  x9=0x00000033 PA:0x80008ca3
       22365000	      2235	800036d0	ff910a03	lb	x20,-7(x2)	  x2:0x80008caa x20=0x00000033 PA:0x80008ca3
       22375000	      2236	800036d4	85e583b7	lui	x7,0x85e58	  x7=0x85e58000
       22385000	      2237	800036d8	01fdc0b3	xor	x1,x27,x31	 x27:0x00000000 x31:0x009ec800  x1=0x009ec800
       22395000	      2238	800036dc	01325b93	srli	x23,x4,0x13	  x4:0x0000002a x23=0x00000000
       22405000	      2239	800036e0	42f16a13	ori	x20,x2,1071	  x2:0x80008caa x20=0x80008caf
       22415000	      2240	800036e4	ff914383	lbu	x7,-7(x2)	  x2:0x80008caa  x7=0x00000033 PA:0x80008ca3
       22425000	      2241	800036e8	012b9413	slli	x8,x23,0x12	 x23:0x00000000  x8=0x00000000
       22435000	      2242	800036ec	40825ab3	sra	x21,x4,x8	  x4:0x0000002a  x8:0x00000000 x21=0x0000002a
       22445000	      2243	800036f0	01af6db3	or	x27,x30,x26	 x30:0x0021b3c0 x26:0x80000000 x27=0x8021b3c0
       22455000	      2244	800036f4	ff811903	lh	x18,-8(x2)	  x2:0x80008caa x18=0x000033bc PA:0x80008ca2
       22465000	      2245	800036f8	41905913	srai	x18,x0,0x19	  x0:0x00000000 x18=0x00000000
       22475000	      2246	800036fc	00d22cb3	slt	x25,x4,x13	  x4:0x0000002a x13:0x00003efe x25=0x00000001
       22485000	      2247	80003700	ff811403	lh	x8,-8(x2)	  x2:0x80008caa  x8=0x000033bc PA:0x80008ca2
       22495000	      2248	80003704	407c5413	srai	x8,x24,0x7	 x24:0x67f2b000  x8=0x00cfe560
       22505000	      2249	80003708	40a4db13	srai	x22,x9,0xa	  x9:0x00000033 x22=0x00000000
       22515000	      2250	8000370c	00110583	lb	x11,1(x2)	  x2:0x80008caa x11=0xffffffba PA:0x80008cab
       22525000	      2251	80003710	418457b3	sra	x15,x8,x24	  x8:0x00cfe560 x24:0x67f2b000 x15=0x00cfe560
       22535000	      2252	80003714	00000013	addi	x0,x0,0	  x0:0x00000000
       22545000	      2253	80003718	ed478c97	auipc	x25,0xed478	 x25=0x6d47b714
       22555000	      2254	8000371c	00000013	addi	x0,x0,0	  x0:0x00000000
       22565000	      2255	80003720	01810623	sb	x24,12(x2)	  x2:0x80008caa x24:0x67f2b000 PA:0x80008cb6
       22575000	      2256	80003724	00005117	auipc	x2,0x5	  x2=0x80008720
       22585000	      2257	80003728	29010113	addi	x2,x2,656	  x2:0x80008720  x2=0x800089b0
       22595000	      2258	8000372c	00585b13	srli	x22,x16,0x5	 x16:0x80009fc4 x22=0x040004fe
       22605000	      2259	80003730	ff015f03	lhu	x30,-16(x2)	  x2:0x800089b0 x30=0x0000b8d2 PA:0x800089a0
       22615000	      2260	80003734	fe711b23	sh	x7,-10(x2)	  x2:0x800089b0  x7:0x00000033 PA:0x800089a6
       22625000	      2261	80003738	004106a3	sb	x4,13(x2)	  x2:0x800089b0  x4:0x0000002a PA:0x800089bd
       22635000	      2262	8000373c	014b90b3	sll	x1,x23,x20	 x23:0x00000000 x20:0x80008caf  x1=0x00000000
       22645000	      2263	80003740	00514b03	lbu	x22,5(x2)	  x2:0x800089b0 x22=0x0000000d PA:0x800089b5
       22655000	      2264	80003744	00e445b3	xor	x11,x8,x14	  x8:0x00cfe560 x14:0x00000001 x11=0x00cfe561
       22665000	      2265	80003748	4173d0b3	sra	x1,x7,x23	  x7:0x00000033 x23:0x00000000  x1=0x00000033
       22675000	      2266	8000374c	3a908a13	addi	x20,x1,937	  x1:0x00000033 x20=0x000003dc
       22685000	      2267	80003750	014c5193	srli	x3,x24,0x14	 x24:0x67f2b000  x3=0x0000067f
       22695000	      2268	80003754	d0ed5797	auipc	x15,0xd0ed5	 x15=0x50ed8750
       22705000	      2269	80003758	9fc17513	andi	x10,x2,-1540	  x2:0x800089b0 x10=0x800089b0
       22715000	      2270	8000375c	00a14483	lbu	x9,10(x2)	  x2:0x800089b0  x9=0x000000e0 PA:0x800089ba
       22725000	      2271	80003760	40e6df13	srai	x30,x13,0xe	 x13:0x00003efe x30=0x00000000
       22735000	      2272	80003764	ff215a83	lhu	x21,-14(x2)	  x2:0x800089b0 x21=0x00007554 PA:0x800089a2
       22745000	      2273	80003768	01b75593	srli	x11,x14,0x1b	 x14:0x00000001 x11=0x00000000
       22755000	      2274	8000376c	b272a293	slti	x5,x5,-1241	  x5:0x00000001  x5=0x00000000
       22765000	      2275	80003770	ff310da3	sb	x19,-5(x2)	  x2:0x800089b0 x19:0x0000004b PA:0x800089ab
       22775000	      2276	80003774	01ca3c33	sltu	x24,x20,x28	 x20:0x000003dc x28:0x80009ec8 x24=0x00000001
       22785000	      2277	80003778	ffb10ba3	sb	x27,-9(x2)	  x2:0x800089b0 x27:0x8021b3c0 PA:0x800089a7
       22795000	      2278	8000377c	ff615503	lhu	x10,-10(x2)	  x2:0x800089b0 x10=0x0000c033 PA:0x800089a6
       22805000	      2279	80003780	ff110583	lb	x11,-15(x2)	  x2:0x800089b0 x11=0xffffffb8 PA:0x800089a1
       22815000	      2280	80003784	00e15c03	lhu	x24,14(x2)	  x2:0x800089b0 x24=0x0000119d PA:0x800089be
       22825000	      2281	80003788	004249b3	xor	x19,x4,x4	  x4:0x0000002a  x4:0x0000002a x19=0x00000000
       22835000	      2282	8000378c	00fb2ab3	slt	x21,x22,x15	 x22:0x0000000d x15:0x50ed8750 x21=0x00000001
       22845000	      2283	80003790	00332f33	slt	x30,x6,x3	  x6:0x00002000  x3:0x0000067f x30=0x00000000
       22855000	      2284	80003794	ffc12823	sw	x28,-16(x2)	  x2:0x800089b0 x28:0x80009ec8 PA:0x800089a0
       22865000	      2285	80003798	01411423	sh	x20,8(x2)	  x2:0x800089b0 x20:0x000003dc PA:0x800089b8
       22875000	      2286	8000379c	fff10f03	lb	x30,-1(x2)	  x2:0x800089b0 x30=0x00000013 PA:0x800089af
       22885000	      2287	800037a0	41070333	sub	x6,x14,x16	 x14:0x00000001 x16:0x80009fc4  x6=0x7fff603d
       22895000	      2288	800037a4	01aaec33	or	x24,x21,x26	 x21:0x00000001 x26:0x80000000 x24=0x80000001
       22905000	      2289	800037a8	00b14083	lbu	x1,11(x2)	  x2:0x800089b0  x1=0x00000064 PA:0x800089bb
       22915000	      2290	800037ac	00005297	auipc	x5,0x5	  x5=0x800087a8
       22925000	      2291	800037b0	ecb28293	addi	x5,x5,-309	  x5:0x800087a8  x5=0x80008673
       22935000	      2292	800037b4	00a28d83	lb	x27,10(x5)	  x5:0x80008673 x27=0x00000045 PA:0x8000867d
       22945000	      2293	800037b8	fe82cc83	lbu	x25,-24(x5)	  x5:0x80008673 x25=0x000000f7 PA:0x8000865b
       22955000	      2294	800037bc	00d1f233	and	x4,x3,x13	  x3:0x0000067f x13:0x00003efe  x4=0x0000067e
       22965000	      2295	800037c0	dfdb0493	addi	x9,x22,-515	 x22:0x0000000d  x9=0xfffffe0a
       22975000	      2296	800037c4	ffc28123	sb	x28,-30(x5)	  x5:0x80008673 x28:0x80009ec8 PA:0x80008655
       22985000	      2297	800037c8	004df033	and	x0,x27,x4	 x27:0x00000045  x4:0x0000067e
       22995000	      2298	800037cc	ffb2d483	lhu	x9,-5(x5)	  x5:0x80008673  x9=0x0000055d PA:0x8000866e
       23005000	      2299	800037d0	03e2cc83	lbu	x25,62(x5)	  x5:0x80008673 x25=0x00000098 PA:0x800086b1
       23015000	      2300	800037d4	01cb3133	sltu	x2,x22,x28	 x22:0x0000000d x28:0x80009ec8  x2=0x00000001
       23025000	      2301	800037d8	ffa28c03	lb	x24,-6(x5)	  x5:0x80008673 x24=0x00000041 PA:0x8000866d
       23035000	      2302	00000000	00000013	addi	x0,x0,0	  x0:0x00000000
       23045000	      2303	800037dc	fd828f83	lb	x31,-40(x5)	  x5:0x80008673 x31=0x0000004c PA:0x8000864b
       23055000	      2304	800037e0	fd32db03	lhu	x22,-45(x5)	  x5:0x80008673 x22=0x0000687b PA:0x80008646
       23065000	      2305	800037e4	00428623	sb	x4,12(x5)	  x5:0x80008673  x4:0x0000067e PA:0x8000867f
       23075000	      2306	800037e8	02428d83	lb	x27,36(x5)	  x5:0x80008673 x27=0xffffffec PA:0x80008697
       23085000	      2307	800037ec	af343a13	sltiu	x20,x8,-1293	  x8:0x00cfe560 x20=0x00000001
       23095000	      2308	800037f0	013668b3	or	x17,x12,x19	 x12:0x00000001 x19:0x00000000 x17=0x00000001
       23105000	      2309	800037f4	fe7283a3	sb	x7,-25(x5)	  x5:0x80008673  x7:0x00000033 PA:0x8000865a
       23115000	      2310	800037f8	fc62a4a3	sw	x6,-55(x5)	  x5:0x80008673  x6:0x7fff603d PA:0x8000863c
       23125000	      2311	800037fc	ffd2aaa3	sw	x29,-11(x5)	  x5:0x80008673 x29:0x7d14a668 PA:0x80008668
       23135000	      2312	80003800	fe328b23	sb	x3,-10(x5)	  x5:0x80008673  x3:0x0000067f PA:0x80008669
       23145000	      2313	80003804	fff29b83	lh	x23,-1(x5)	  x5:0x80008673 x23=0x00003ae4 PA:0x80008672
       23155000	      2314	80003808	40cd5c93	srai	x25,x26,0xc	 x26:0x80000000 x25=0xfff80000
       23165000	      2315	8000380c	a3550737	lui	x14,0xa3550	 x14=0xa3550000
       23175000	      2316	80003810	01b28d83	lb	x27,27(x5)	  x5:0x80008673 x27=0xffffffee PA:0x8000868e
       23185000	      2317	80003814	01e7eeb3	or	x29,x15,x30	 x15:0x50ed8750 x30:0x00000013 x29=0x50ed8753
       23195000	      2318	80003818	fd128b83	lb	x23,-47(x5)	  x5:0x80008673 x23=0x00000021 PA:0x80008644
       23205000	      2319	8000381c	9df29117	auipc	x2,0x9df29	  x2=0x1df2c818
       23215000	      2320	80003820	4ece0393	addi	x7,x28,1260	 x28:0x80009ec8  x7=0x8000a3b4
       23225000	      2321	80003824	03228223	sb	x18,36(x5)	  x5:0x80008673 x18:0x00000000 PA:0x80008697
       23235000	      2322	80003828	02129fa3	sh	x1,63(x5)	  x5:0x80008673  x1:0x00000064 PA:0x800086b2
       23245000	      2323	8000382c	0181d213	srli	x4,x3,0x18	  x3:0x0000067f  x4=0x00000000
       23255000	      2324	80003830	fcf2c703	lbu	x14,-49(x5)	  x5:0x80008673 x14=0x00000027 PA:0x80008642
       23265000	      2325	80003834	fc4297a3	sh	x4,-49(x5)	  x5:0x80008673  x4:0x00000000 PA:0x80008642
       23275000	      2326	80003838	fd228c23	sb	x18,-40(x5)	  x5:0x80008673 x18:0x00000000 PA:0x8000864b
       23285000	      2327	8000383c	000973b3	and	x7,x18,x0	 x18:0x00000000  x0:0x00000000  x7=0x00000000
       23295000	      2328	80003840	feb28f23	sb	x11,-2(x5)	  x5:0x80008673 x11:0xffffffb8 PA:0x80008671
       23305000	      2329	80003844	ffa28703	lb	x14,-6(x5)	  x5:0x80008673 x14=0x00000041 PA:0x8000866d
       23315000	      2330	80003848	007b1613	slli	x12,x22,0x7	 x22:0x0000687b x12=0x00343d80
       23325000	      2331	8000384c	ffd28b03	lb	x22,-3(x5)	  x5:0x80008673 x22=0x0000003a PA:0x80008670
       23335000	      2332	80003850	00005697	auipc	x13,0x5	 x13=0x8000884c
       23345000	      2333	80003854	90068693	addi	x13,x13,-1792	 x13:0x8000884c x13=0x8000814c
       23355000	      2334	80003858	00469903	lh	x18,4(x13)	 x13:0x8000814c x18=0x0000108c PA:0x80008150
       23365000	      2335	8000385c	3b6e7993	andi	x19,x28,950	 x28:0x80009ec8 x19=0x00000280
       23375000	      2336	80003860	0016c783	lbu	x15,1(x13)	 x13:0x8000814c x15=0x000000fd PA:0x8000814d
       23385000	      2337	80003864	3c040593	addi	x11,x8,960	  x8:0x00cfe560 x11=0x00cfe920
       23395000	      2338	80003868	00000013	addi	x0,x0,0	  x0:0x00000000
       23405000	      2339	8000386c	00a69323	sh	x10,6(x13)	 x13:0x8000814c x10:0x0000c033 PA:0x80008152
       23415000	      2340	80003870	d3e42f97	auipc	x31,0xd3e42	 x31=0x53e4586c
       23425000	      2341	80003874	ff968a83	lb	x21,-7(x13)	 x13:0x8000814c x21=0xffffffc3 PA:0x80008145
       23435000	      2342	80003878	62b23993	sltiu	x19,x4,1579	  x4:0x00000000 x19=0x00000001
       23445000	      2343	8000387c	00168583	lb	x11,1(x13)	 x13:0x8000814c x11=0xfffffffd PA:0x8000814d
       23455000	      2344	80003880	00a68b03	lb	x22,10(x13)	 x13:0x8000814c x22=0x0000005f PA:0x80008156
       23465000	      2345	80003884	75dc6993	ori	x19,x24,1885	 x24:0x00000041 x19=0x0000075d
       23475000	      2346	80003888	0106ce83	lbu	x29,16(x13)	 x13:0x8000814c x29=0x000000d7 PA:0x8000815c
       23485000	      2347	8000388c	01068f03	lb	x30,16(x13)	 x13:0x8000814c x30=0xffffffd7 PA:0x8000815c
       23495000	      2348	80003890	fe968aa3	sb	x9,-11(x13)	 x13:0x8000814c  x9:0x0000055d PA:0x80008141
       23505000	      2349	80003894	ffb6c183	lbu	x3,-5(x13)	 x13:0x8000814c  x3=0x0000008e PA:0x80008147
       23515000	      2350	80003898	410c5fb3	sra	x31,x24,x16	 x24:0x00000041 x16:0x80009fc4 x31=0x00000004
       23525000	      2351	8000389c	0056c703	lbu	x14,5(x13)	 x13:0x8000814c x14=0x00000010 PA:0x80008151
       23535000	      2352	800038a0	012ec5b3	xor	x11,x29,x18	 x29:0x000000d7 x18:0x0000108c x11=0x0000105b
       23545000	      2353	800038a4	e345af13	slti	x30,x11,-460	 x11:0x0000105b x30=0x00000000
       23555000	      2354	800038a8	88178993	addi	x19,x15,-1919	 x15:0x000000fd x19=0xfffff97e
       23565000	      2355	800038ac	ff768603	lb	x12,-9(x13)	 x13:0x8000814c x12=0x00000011 PA:0x80008143
       23575000	      2356	800038b0	01937bb3	and	x23,x6,x25	  x6:0x7fff603d x25:0xfff80000 x23=0x7ff80000
       23585000	      2357	800038b4	0026c403	lbu	x8,2(x13)	 x13:0x8000814c  x8=0x000000a6 PA:0x8000814e
       23595000	      2358	00000000	00000013	addi	x0,x0,0	  x0:0x00000000
       23605000	      2359	800038b8	9f741b97	auipc	x23,0x9f741	 x23=0x1f7448b4
       23615000	      2360	800038bc	ff06c103	lbu	x2,-16(x13)	 x13:0x8000814c  x2=0x00000043 PA:0x8000813c
       23625000	      2361	800038c0	00005117	auipc	x2,0x5	  x2=0x800088bc
       23635000	      2362	800038c4	cae10113	addi	x2,x2,-850	  x2:0x800088bc  x2=0x8000856a
       23645000	      2363	800038c8	009986b3	add	x13,x19,x9	 x19:0xfffff97e  x9:0x0000055d x13=0xfffffedb
       23655000	      2364	800038cc	01c11523	sh	x28,10(x2)	  x2:0x8000856a x28:0x80009ec8 PA:0x80008574
       23665000	      2365	800038d0	00814283	lbu	x5,8(x2)	  x2:0x8000856a  x5=0x00000093 PA:0x80008572
       23675000	      2366	800038d4	644de493	ori	x9,x27,1604	 x27:0xffffffee  x9=0xffffffee
       23685000	      2367	800038d8	40485c93	srai	x25,x16,0x4	 x16:0x80009fc4 x25=0xf80009fc
       23695000	      2368	800038dc	fd714203	lbu	x4,-41(x2)	  x2:0x8000856a  x4=0x00000000 PA:0x80008541
       23705000	      2369	800038e0	00075a33	srl	x20,x14,x0	 x14:0x00000010  x0:0x00000000 x20=0x00000010
       23715000	      2370	800038e4	01cbe8b3	or	x17,x23,x28	 x23:0x1f7448b4 x28:0x80009ec8 x17=0x9f74defc
       23725000	      2371	800038e8	fc710503	lb	x10,-57(x2)	  x2:0x8000856a x10=0xffffffe6 PA:0x80008531
       23735000	      2372	800038ec	fc810523	sb	x8,-54(x2)	  x2:0x8000856a  x8:0x000000a6 PA:0x80008534
       23745000	      2373	800038f0	ff212b03	lw	x22,-14(x2)	  x2:0x8000856a x22=0x962d4a81 PA:0x8000855c
       23755000	      2374	800038f4	fe410a83	lb	x21,-28(x2)	  x2:0x8000856a x21=0xffffff80 PA:0x8000854e
       23765000	      2375	800038f8	009d8cb3	add	x25,x27,x9	 x27:0xffffffee  x9:0xffffffee x25=0xffffffdc
       23775000	      2376	800038fc	fd612b83	lw	x23,-42(x2)	  x2:0x8000856a x23=0xd16a0031 PA:0x80008540
       23785000	      2377	80003900	4150d193	srai	x3,x1,0x15	  x1:0x00000064  x3=0x00000000
       23795000	      2378	80003904	01a17033	and	x0,x2,x26	  x2:0x8000856a x26:0x80000000
       23805000	      2379	80003908	67e5c013	xori	x0,x11,1662	 x11:0x0000105b
       23815000	      2380	8000390c	03714203	lbu	x4,55(x2)	  x2:0x8000856a  x4=0x000000fb PA:0x800085a1
       23825000	      2381	80003910	007de1b3	or	x3,x27,x7	 x27:0xffffffee  x7:0x00000000  x3=0xffffffee
       23835000	      2382	80003914	fd410003	lb	x0,-44(x2)	  x2:0x8000856a PA:0x8000853e
       23845000	      2383	80003918	ff014503	lbu	x10,-16(x2)	  x2:0x8000856a x10=0x0000002f PA:0x8000855a
       23855000	      2384	8000391c	ff3104a3	sb	x19,-23(x2)	  x2:0x8000856a x19:0xfffff97e PA:0x80008553
       23865000	      2385	80003920	00000013	addi	x0,x0,0	  x0:0x00000000
       23875000	      2386	80003924	03c15883	lhu	x17,60(x2)	  x2:0x8000856a x17=0x00008965 PA:0x800085a6
       23885000	      2387	80003928	fc615203	lhu	x4,-58(x2)	  x2:0x8000856a  x4=0x0000e6c1 PA:0x80008530
       23895000	      2388	8000392c	4194d0b3	sra	x1,x9,x25	  x9:0xffffffee x25:0xffffffdc  x1=0xffffffff
       23905000	      2389	80003930	fe210603	lb	x12,-30(x2)	  x2:0x8000856a x12=0xffffffa8 PA:0x8000854c
       23915000	      2390	80003934	ff211503	lh	x10,-14(x2)	  x2:0x8000856a x10=0x00004a81 PA:0x8000855c
       23925000	      2391	00000000	00000013	addi	x0,x0,0	  x0:0x00000000
       23935000	      2392	80003938	fca11123	sh	x10,-62(x2)	  x2:0x8000856a x10:0x00004a81 PA:0x8000852c
       23945000	      2393	8000393c	00510083	lb	x1,5(x2)	  x2:0x8000856a  x1=0x00000005 PA:0x8000856f
       23955000	      2394	00000000	00000013	addi	x0,x0,0	  x0:0x00000000
       23965000	      2395	80003940	a21feb13	ori	x22,x31,-1503	 x31:0x00000004 x22=0xfffffa25
       23975000	      2396	80003944	02910303	lb	x6,41(x2)	  x2:0x8000856a  x6=0xffffffd2 PA:0x80008593
       23985000	      2397	80003948	00714303	lbu	x6,7(x2)	  x2:0x8000856a  x6=0x0000000f PA:0x80008571
       23995000	      2398	8000394c	fdf10a03	lb	x20,-33(x2)	  x2:0x8000856a x20=0xffffffa7 PA:0x80008549
       24005000	      2399	80003950	01b23733	sltu	x14,x4,x27	  x4:0x0000e6c1 x27:0xffffffee x14=0x00000001
       24015000	      2400	80003954	0c21b9b7	lui	x19,0xc21b	 x19=0x0c21b000
       24025000	      2401	80003958	fd514503	lbu	x10,-43(x2)	  x2:0x8000856a x10=0x00000006 PA:0x8000853f
       24035000	      2402	8000395c	fc612083	lw	x1,-58(x2)	  x2:0x8000856a  x1=0xa110e6c1 PA:0x80008530
       24045000	      2403	80003960	017710b3	sll	x1,x14,x23	 x14:0x00000001 x23:0xd16a0031  x1=0x00020000
       24055000	      2404	80003964	fe011c03	lh	x24,-32(x2)	  x2:0x8000856a x24=0xffffd996 PA:0x8000854a
       24065000	      2405	80003968	01210a23	sb	x18,20(x2)	  x2:0x8000856a x18:0x0000108c PA:0x8000857e
       24075000	      2406	8000396c	3d8ff593	andi	x11,x31,984	 x31:0x00000004 x11=0x00000000
       24085000	      2407	80003970	fd210923	sb	x18,-46(x2)	  x2:0x8000856a x18:0x0000108c PA:0x8000853c
       24095000	      2408	80003974	00056033	or	x0,x10,x0	 x10:0x00000006  x0:0x00000000
       24105000	      2409	80003978	00c61233	sll	x4,x12,x12	 x12:0xffffffa8 x12:0xffffffa8  x4=0xffffa800
       24115000	      2410	8000397c	009fba33	sltu	x20,x31,x9	 x31:0x00000004  x9:0xffffffee x20=0x00000001
       24125000	      2411	80003980	8c16cb13	xori	x22,x13,-1855	 x13:0xfffffedb x22=0x0000061a
       24135000	      2412	80003984	fca104a3	sb	x10,-55(x2)	  x2:0x8000856a x10:0x00000006 PA:0x80008533
       24145000	      2413	80003988	ff215883	lhu	x17,-14(x2)	  x2:0x8000856a x17=0x00004a81 PA:0x8000855c
       24155000	      2414	8000398c	03512b23	sw	x21,54(x2)	  x2:0x8000856a x21:0xffffff80 PA:0x800085a0
       24165000	      2415	80003990	00005917	auipc	x18,0x5	 x18=0x8000898c
       24175000	      2416	80003994	3f490913	addi	x18,x18,1012	 x18:0x8000898c x18=0x80008d80
       24185000	      2417	80003998	010547b3	xor	x15,x10,x16	 x10:0x00000006 x16:0x80009fc4 x15=0x80009fc2
       24195000	      2418	8000399c	00294083	lbu	x1,2(x18)	 x18:0x80008d80  x1=0x0000001b PA:0x80008d82
       24205000	      2419	800039a0	00790603	lb	x12,7(x18)	 x18:0x80008d80 x12=0x00000014 PA:0x80008d87
       24215000	      2420	800039a4	ffc91e83	lh	x29,-4(x18)	 x18:0x80008d80 x29=0xffffd8d8 PA:0x80008d7c
       24225000	      2421	800039a8	00f90d83	lb	x27,15(x18)	 x18:0x80008d80 x27=0xffffffc3 PA:0x80008d8f
       24235000	      2422	800039ac	ff794003	lbu	x0,-9(x18)	 x18:0x80008d80 PA:0x80008d77
       24245000	      2423	800039b0	00000013	addi	x0,x0,0	  x0:0x00000000
       24255000	      2424	800039b4	00a95e83	lhu	x29,10(x18)	 x18:0x80008d80 x29=0x0000ab96 PA:0x80008d8a
       24265000	      2425	800039b8	00694883	lbu	x17,6(x18)	 x18:0x80008d80 x17=0x00000023 PA:0x80008d86
       24275000	      2426	800039bc	fe1909a3	sb	x1,-13(x18)	 x18:0x80008d80  x1:0x0000001b PA:0x80008d73
       24285000	      2427	800039c0	790cc2b7	lui	x5,0x790cc	  x5=0x790cc000
       24295000	      2428	800039c4	ffd94603	lbu	x12,-3(x18)	 x18:0x80008d80 x12=0x000000d8 PA:0x80008d7d
       24305000	      2429	800039c8	00000013	addi	x0,x0,0	  x0:0x00000000
       24315000	      2430	800039cc	ff690a83	lb	x21,-10(x18)	 x18:0x80008d80 x21=0x00000066 PA:0x80008d76
       24325000	      2431	800039d0	7a3ee297	auipc	x5,0x7a3ee	  x5=0xfa3f19cc
       24335000	      2432	800039d4	00000013	addi	x0,x0,0	  x0:0x00000000
       24345000	      2433	800039d8	00290103	lb	x2,2(x18)	 x18:0x80008d80  x2=0x0000001b PA:0x80008d82
       24355000	      2434	800039dc	ff190b03	lb	x22,-15(x18)	 x18:0x80008d80 x22=0xffffffd7 PA:0x80008d71
       24365000	      2435	800039e0	ff790b83	lb	x23,-9(x18)	 x18:0x80008d80 x23=0x00000024 PA:0x80008d77
       24375000	      2436	800039e4	ffc90b83	lb	x23,-4(x18)	 x18:0x80008d80 x23=0xffffffd8 PA:0x80008d7c
       24385000	      2437	800039e8	fe891823	sh	x8,-16(x18)	 x18:0x80008d80  x8:0x000000a6 PA:0x80008d70
       24395000	      2438	800039ec	00590983	lb	x19,5(x18)	 x18:0x80008d80 x19=0xffffff93 PA:0x80008d85
       24405000	      2439	800039f0	019905a3	sb	x25,11(x18)	 x18:0x80008d80 x25:0xffffffdc PA:0x80008d8b
       24415000	      2440	800039f4	01aa94b3	sll	x9,x21,x26	 x21:0x00000066 x26:0x80000000  x9=0x00000066
       24425000	      2441	800039f8	00692023	sw	x6,0(x18)	 x18:0x80008d80  x6:0x0000000f PA:0x80008d80
       24435000	      2442	800039fc	ffa90583	lb	x11,-6(x18)	 x18:0x80008d80 x11=0xffffff83 PA:0x80008d7a
       24445000	      2443	00000000	00000013	addi	x0,x0,0	  x0:0x00000000
       24455000	      2444	80003a00	feb92823	sw	x11,-16(x18)	 x18:0x80008d80 x11:0xffffff83 PA:0x80008d70
       24465000	      2445	80003a04	19530093	addi	x1,x6,405	  x6:0x0000000f  x1=0x000001a4
       24475000	      2446	80003a08	00229f93	slli	x31,x5,0x2	  x5:0xfa3f19cc x31=0xe8fc6730
       24485000	      2447	80003a0c	00000013	addi	x0,x0,0	  x0:0x00000000
       24495000	      2448	80003a10	ed91e093	ori	x1,x3,-295	  x3:0xffffffee  x1=0xffffffff
       24505000	      2449	80003a14	01c90823	sb	x28,16(x18)	 x18:0x80008d80 x28:0x80009ec8 PA:0x80008d90
       24515000	      2450	80003a18	ff091d23	sh	x16,-6(x18)	 x18:0x80008d80 x16:0x80009fc4 PA:0x80008d7a
       24525000	      2451	80003a1c	ff194b03	lbu	x22,-15(x18)	 x18:0x80008d80 x22=0x000000ff PA:0x80008d71
       24535000	      2452	80003a20	06d33c93	sltiu	x25,x6,109	  x6:0x0000000f x25=0x00000001
       24545000	      2453	80003a24	e97e4513	xori	x10,x28,-361	 x28:0x80009ec8 x10=0x7fff605f
       24555000	      2454	80003a28	017dc263	blt	x27,x23,80003a2c	 x27:0xffffffc3 x23:0xffffffd8
       24565000	      2455	00000000	00000013	addi	x0,x0,0	  x0:0x00000000
       24575000	      2456	80003a28	00000013	addi	x0,x0,0	  x0:0x00000000
       24585000	      2457	80003a2c	02806463	bltu	x0,x8,80003a54	  x0:0x00000000  x8:0x000000a6
       24595000	      2458	00000000	00000013	addi	x0,x0,0	  x0:0x00000000
       24605000	      2459	80003a50	00000013	addi	x0,x0,0	  x0:0x00000000
       24615000	      2460	80003a54	006a89b3	add	x19,x21,x6	 x21:0x00000066  x6:0x0000000f x19=0x00000075
       24625000	      2461	80003a58	034f0063	beq	x30,x20,80003a78	 x30:0x00000000 x20:0x00000001
       24635000	      2462	80003a5c	04dfe063	bltu	x31,x13,80003a9c	 x31:0xe8fc6730 x13:0xfffffedb
       24645000	      2463	00000000	00000013	addi	x0,x0,0	  x0:0x00000000
       24655000	      2464	80003a98	00000013	addi	x0,x0,0	  x0:0x00000000
       24665000	      2465	80003a9c	000613b3	sll	x7,x12,x0	 x12:0x000000d8  x0:0x00000000  x7=0x000000d8
       24675000	      2466	80003aa0	b91dbc13	sltiu	x24,x27,-1135	 x27:0xffffffc3 x24=0x00000000
       24685000	      2467	80003aa4	41fc5db3	sra	x27,x24,x31	 x24:0x00000000 x31:0xe8fc6730 x27=0x00000000
       24695000	      2468	80003aa8	01213933	sltu	x18,x2,x18	  x2:0x0000001b x18:0x80008d80 x18=0x00000001
       24705000	      2469	80003aac	00000013	addi	x0,x0,0	  x0:0x00000000
       24715000	      2470	80003ab0	01f4aeb3	slt	x29,x9,x31	  x9:0x00000066 x31:0xe8fc6730 x29=0x00000000
       24725000	      2471	80003ab4	00d21133	sll	x2,x4,x13	  x4:0xffffa800 x13:0xfffffedb  x2=0x00000000
       24735000	      2472	80003ab8	00505993	srli	x19,x0,0x5	  x0:0x00000000 x19=0x00000000
       24745000	      2473	80003abc	0114d863	bge	x9,x17,80003acc	  x9:0x00000066 x17:0x00000023
       24755000	      2474	00000000	00000013	addi	x0,x0,0	  x0:0x00000000
       24765000	      2475	80003ac8	00000013	addi	x0,x0,0	  x0:0x00000000
       24775000	      2476	80003acc	52b4a797	auipc	x15,0x52b4a	 x15=0xd2b4dac8
       24785000	      2477	80003ad0	0062ab33	slt	x22,x5,x6	  x5:0xfa3f19cc  x6:0x0000000f x22=0x00000001
       24795000	      2478	80003ad4	0162f133	and	x2,x5,x22	  x5:0xfa3f19cc x22:0x00000001  x2=0x00000000
       24805000	      2479	80003ad8	3a928b93	addi	x23,x5,937	  x5:0xfa3f19cc x23=0xfa3f1d75
       24815000	      2480	80003adc	0082e663	bltu	x5,x8,80003ae8	  x5:0xfa3f19cc  x8:0x000000a6
       24825000	      2481	80003ae0	018afbb3	and	x23,x21,x24	 x21:0x00000066 x24:0x00000000 x23=0x00000000
       24835000	      2482	80003ae4	0cf632b7	lui	x5,0xcf63	  x5=0x0cf63000
       24845000	      2483	80003ae8	413fd933	sra	x18,x31,x19	 x31:0xe8fc6730 x19:0x00000000 x18=0xe8fc6730
       24855000	      2484	80003aec	a3fb3593	sltiu	x11,x22,-1473	 x22:0x00000001 x11=0x00000001
       24865000	      2485	80003af0	71abff13	andi	x30,x23,1818	 x23:0x00000000 x30=0x00000000
       24875000	      2486	80003af4	024dee63	bltu	x27,x4,80003b30	 x27:0x00000000  x4:0xffffa800
       24885000	      2487	00000000	00000013	addi	x0,x0,0	  x0:0x00000000
       24895000	      2488	80003b2c	00000013	addi	x0,x0,0	  x0:0x00000000
       24905000	      2489	80003b30	7b82d097	auipc	x1,0x7b82d	  x1=0xfb830b2c
       24915000	      2490	80003b34	02581e63	bne	x16,x5,80003b70	 x16:0x80009fc4  x5:0x0cf63000
       24925000	      2491	00000000	00000013	addi	x0,x0,0	  x0:0x00000000
       24935000	      2492	80003b6c	00000013	addi	x0,x0,0	  x0:0x00000000
       24945000	      2493	80003b70	011520b3	slt	x1,x10,x17	 x10:0x7fff605f x17:0x00000023  x1=0x00000000
       24955000	      2494	80003b74	01e270b3	and	x1,x4,x30	  x4:0xffffa800 x30:0x00000000  x1=0x00000000
       24965000	      2495	80003b78	04ec4663	blt	x24,x14,80003bc4	 x24:0x00000000 x14:0x00000001
       24975000	      2496	00000000	00000013	addi	x0,x0,0	  x0:0x00000000
       24985000	      2497	80003bc0	00000013	addi	x0,x0,0	  x0:0x00000000
       24995000	      2498	80003bc4	406c51b3	sra	x3,x24,x6	 x24:0x00000000  x6:0x0000000f  x3=0x00000000
       25005000	      2499	80003bc8	00bfa933	slt	x18,x31,x11	 x31:0xe8fc6730 x11:0x00000001 x18=0x00000001
       25015000	      2500	80003bcc	41495c33	sra	x24,x18,x20	 x18:0x00000001 x20:0x00000001 x24=0x00000000
       25025000	      2501	80003bd0	0194cab3	xor	x21,x9,x25	  x9:0x00000066 x25:0x00000001 x21=0x00000067
       25035000	      2502	80003bd4	dcef0b93	addi	x23,x30,-562	 x30:0x00000000 x23=0xfffffdce
       25045000	      2503	80003bd8	414bd933	sra	x18,x23,x20	 x23:0xfffffdce x20:0x00000001 x18=0xfffffee7
       25055000	      2504	80003bdc	3f682593	slti	x11,x16,1014	 x16:0x80009fc4 x11=0x00000001
       25065000	      2505	80003be0	0118f933	and	x18,x17,x17	 x17:0x00000023 x17:0x00000023 x18=0x00000023
       25075000	      2506	80003be4	01985493	srli	x9,x16,0x19	 x16:0x80009fc4  x9=0x00000040
       25085000	      2507	80003be8	41ffdc13	srai	x24,x31,0x1f	 x31:0xe8fc6730 x24=0xffffffff
       25095000	      2508	80003bec	00dc7f33	and	x30,x24,x13	 x24:0xffffffff x13:0xfffffedb x30=0xfffffedb
       25105000	      2509	80003bf0	00a50a63	beq	x10,x10,80003c04	 x10:0x7fff605f x10:0x7fff605f
       25115000	      2510	00000000	00000013	addi	x0,x0,0	  x0:0x00000000
       25125000	      2511	80003c00	00000013	addi	x0,x0,0	  x0:0x00000000
       25135000	      2512	80003c04	01f97863	bgeu	x18,x31,80003c14	 x18:0x00000023 x31:0xe8fc6730
       25145000	      2513	80003c08	00d74233	xor	x4,x14,x13	 x14:0x00000001 x13:0xfffffedb  x4=0xfffffeda
       25155000	      2514	80003c0c	0299d063	bge	x19,x9,80003c2c	 x19:0x00000000  x9:0x00000040
       25165000	      2515	80003c10	03988863	beq	x17,x25,80003c40	 x17:0x00000023 x25:0x00000001
       25175000	      2516	80003c14	00f34863	blt	x6,x15,80003c24	  x6:0x0000000f x15:0xd2b4dac8
       25185000	      2517	80003c18	dfda6b93	ori	x23,x20,-515	 x20:0x00000001 x23=0xfffffdfd
       25195000	      2518	80003c1c	adc03c93	sltiu	x25,x0,-1316	  x0:0x00000000 x25=0x00000001
       25205000	      2519	80003c20	01dc43b3	xor	x7,x24,x29	 x24:0xffffffff x29:0x00000000  x7=0xffffffff
       25215000	      2520	80003c24	01399033	sll	x0,x19,x19	 x19:0x00000000 x19:0x00000000
       25225000	      2521	80003c28	41a75613	srai	x12,x14,0x1a	 x14:0x00000001 x12=0x00000000
       25235000	      2522	80003c2c	40ccd2b3	sra	x5,x25,x12	 x25:0x00000001 x12:0x00000000  x5=0x00000001
       25245000	      2523	80003c30	01d646b3	xor	x13,x12,x29	 x12:0x00000000 x29:0x00000000 x13=0x00000000
       25255000	      2524	80003c34	60692e93	slti	x29,x18,1542	 x18:0x00000023 x29=0x00000001
       25265000	      2525	80003c38	40f85b13	srai	x22,x16,0xf	 x16:0x80009fc4 x22=0xffff0001
       25275000	      2526	80003c3c	bd1513b7	lui	x7,0xbd151	  x7=0xbd151000
       25285000	      2527	80003c40	04261663	bne	x12,x2,80003c8c	 x12:0x00000000  x2:0x00000000
       25295000	      2528	80003c44	000c7533	and	x10,x24,x0	 x24:0xffffffff  x0:0x00000000 x10=0x00000000
       25305000	      2529	80003c48	000e0e63	beq	x28,x0,80003c64	 x28:0x80009ec8  x0:0x00000000
       25315000	      2530	80003c4c	24d77917	auipc	x18,0x24d77	 x18=0xa4d7ac48
       25325000	      2531	80003c50	67964393	xori	x7,x12,1657	 x12:0x00000000  x7=0x00000679
       25335000	      2532	80003c54	983d8793	addi	x15,x27,-1661	 x27:0x00000000 x15=0xfffff983
       25345000	      2533	80003c58	98e1deb7	lui	x29,0x98e1d	 x29=0x98e1d000
       25355000	      2534	80003c5c	77933993	sltiu	x19,x6,1913	  x6:0x0000000f x19=0x00000001
       25365000	      2535	80003c60	0082f933	and	x18,x5,x8	  x5:0x00000001  x8:0x000000a6 x18=0x00000000
       25375000	      2536	80003c64	0183f1b3	and	x3,x7,x24	  x7:0x00000679 x24:0xffffffff  x3=0x00000679
       25385000	      2537	80003c68	052d4063	blt	x26,x18,80003ca8	 x26:0x80000000 x18:0x00000000
       25395000	      2538	00000000	00000013	addi	x0,x0,0	  x0:0x00000000
       25405000	      2539	80003ca4	00000013	addi	x0,x0,0	  x0:0x00000000
       25415000	      2540	80003ca8	0168e733	or	x14,x17,x22	 x17:0x00000023 x22:0xffff0001 x14=0xffff0023
       25425000	      2541	80003cac	00509b13	slli	x22,x1,0x5	  x1:0x00000000 x22=0x00000000
       25435000	      2542	80003cb0	005352b3	srl	x5,x6,x5	  x6:0x0000000f  x5:0x00000001  x5=0x00000007
       25445000	      2543	80003cb4	016c1a33	sll	x20,x24,x22	 x24:0xffffffff x22:0x00000000 x20=0xffffffff
       25455000	      2544	80003cb8	000f16b3	sll	x13,x30,x0	 x30:0xfffffedb  x0:0x00000000 x13=0xfffffedb
       25465000	      2545	80003cbc	4153d713	srai	x14,x7,0x15	  x7:0x00000679 x14=0x00000000
       25475000	      2546	80003cc0	408b00b3	sub	x1,x22,x8	 x22:0x00000000  x8:0x000000a6  x1=0xffffff5a
       25485000	      2547	80003cc4	000f7863	bgeu	x30,x0,80003cd4	 x30:0xfffffedb  x0:0x00000000
       25495000	      2548	00000000	00000013	addi	x0,x0,0	  x0:0x00000000
       25505000	      2549	80003cd0	00000013	addi	x0,x0,0	  x0:0x00000000
       25515000	      2550	80003cd4	02197863	bgeu	x18,x1,80003d04	 x18:0x00000000  x1:0xffffff5a
       25525000	      2551	80003cd8	41cb03b3	sub	x7,x22,x28	 x22:0x00000000 x28:0x80009ec8  x7=0x7fff6138
       25535000	      2552	80003cdc	00b25513	srli	x10,x4,0xb	  x4:0xfffffeda x10=0x001fffff
       25545000	      2553	80003ce0	00e570b3	and	x1,x10,x14	 x10:0x001fffff x14:0x00000000  x1=0x00000000
       25555000	      2554	80003ce4	518da993	slti	x19,x27,1304	 x27:0x00000000 x19=0x00000001
       25565000	      2555	80003ce8	01c20133	add	x2,x4,x28	  x4:0xfffffeda x28:0x80009ec8  x2=0x80009da2
       25575000	      2556	80003cec	00360bb3	add	x23,x12,x3	 x12:0x00000000  x3:0x00000679 x23=0x00000679
       25585000	      2557	80003cf0	5117f313	andi	x6,x15,1297	 x15:0xfffff983  x6=0x00000101
       25595000	      2558	80003cf4	00aa5533	srl	x10,x20,x10	 x20:0xffffffff x10:0x001fffff x10=0x00000001
       25605000	      2559	80003cf8	02eae463	bltu	x21,x14,80003d20	 x21:0x00000067 x14:0x00000000
       25615000	      2560	80003cfc	7cf88893	addi	x17,x17,1999	 x17:0x00000023 x17=0x000007f2
       25625000	      2561	80003d00	82153b93	sltiu	x23,x10,-2015	 x10:0x00000001 x23=0x00000001
       25635000	      2562	80003d04	00aef263	bgeu	x29,x10,80003d08	 x29:0x98e1d000 x10:0x00000001
       25645000	      2563	00000000	00000013	addi	x0,x0,0	  x0:0x00000000
       25655000	      2564	80003d04	00000013	addi	x0,x0,0	  x0:0x00000000
       25665000	      2565	80003d08	027c8263	beq	x25,x7,80003d2c	 x25:0x00000001  x7:0x7fff6138
       25675000	      2566	80003d0c	41bed633	sra	x12,x29,x27	 x29:0x98e1d000 x27:0x00000000 x12=0x98e1d000
       25685000	      2567	80003d10	694f1297	auipc	x5,0x694f1	  x5=0xe94f4d0c
       25695000	      2568	80003d14	00e12933	slt	x18,x2,x14	  x2:0x80009da2 x14:0x00000000 x18=0x00000001
       25705000	      2569	80003d18	d4e9f493	andi	x9,x19,-690	 x19:0x00000001  x9=0x00000000
       25715000	      2570	80003d1c	016487b3	add	x15,x9,x22	  x9:0x00000000 x22:0x00000000 x15=0x00000000
       25725000	      2571	80003d20	03c66a63	bltu	x12,x28,80003d54	 x12:0x98e1d000 x28:0x80009ec8
       25735000	      2572	80003d24	00000013	addi	x0,x0,0	  x0:0x00000000
       25745000	      2573	80003d28	00520533	add	x10,x4,x5	  x4:0xfffffeda  x5:0xe94f4d0c x10=0xe94f4be6
       25755000	      2574	80003d2c	223c7d93	andi	x27,x24,547	 x24:0xffffffff x27=0x00000223
       25765000	      2575	80003d30	004ce8b3	or	x17,x25,x4	 x25:0x00000001  x4:0xfffffeda x17=0xfffffedb
       25775000	      2576	80003d34	53813e93	sltiu	x29,x2,1336	  x2:0x80009da2 x29=0x00000000
       25785000	      2577	80003d38	00000013	addi	x0,x0,0	  x0:0x00000000
       25795000	      2578	80003d3c	2c6ae013	ori	x0,x21,710	 x21:0x00000067
       25805000	      2579	80003d40	01f892b3	sll	x5,x17,x31	 x17:0xfffffedb x31:0xe8fc6730  x5=0xfedb0000
       25815000	      2580	80003d44	019f8a63	beq	x31,x25,80003d58	 x31:0xe8fc6730 x25:0x00000001
       25825000	      2581	80003d48	018ffa33	and	x20,x31,x24	 x31:0xe8fc6730 x24:0xffffffff x20=0xe8fc6730
       25835000	      2582	80003d4c	01948033	add	x0,x9,x25	  x9:0x00000000 x25:0x00000001
       25845000	      2583	80003d50	01291333	sll	x6,x18,x18	 x18:0x00000001 x18:0x00000001  x6=0x00000002
       25855000	      2584	80003d54	401601b3	sub	x3,x12,x1	 x12:0x98e1d000  x1:0x00000000  x3=0x98e1d000
       25865000	      2585	80003d58	77266513	ori	x10,x12,1906	 x12:0x98e1d000 x10=0x98e1d772
       25875000	      2586	80003d5c	0163eeb3	or	x29,x7,x22	  x7:0x7fff6138 x22:0x00000000 x29=0x7fff6138
       25885000	      2587	80003d60	016fefb3	or	x31,x31,x22	 x31:0xe8fc6730 x22:0x00000000 x31=0xe8fc6730
       25895000	      2588	80003d64	01342c33	slt	x24,x8,x19	  x8:0x000000a6 x19:0x00000001 x24=0x00000000
       25905000	      2589	80003d68	005ae7b3	or	x15,x21,x5	 x21:0x00000067  x5:0xfedb0000 x15=0xfedb0067
       25915000	      2590	80003d6c	01fa9db3	sll	x27,x21,x31	 x21:0x00000067 x31:0xe8fc6730 x27=0x00670000
       25925000	      2591	80003d70	04a20063	beq	x4,x10,80003db0	  x4:0xfffffeda x10:0x98e1d772
       25935000	      2592	80003d74	02128063	beq	x5,x1,80003d94	  x5:0xfedb0000  x1:0x00000000
       25945000	      2593	80003d78	012a18b3	sll	x17,x20,x18	 x20:0xe8fc6730 x18:0x00000001 x17=0xd1f8ce60
       25955000	      2594	80003d7c	57b80693	addi	x13,x16,1403	 x16:0x80009fc4 x13=0x8000a53f
       25965000	      2595	80003d80	be7bcc13	xori	x24,x23,-1049	 x23:0x00000001 x24=0xfffffbe6
       25975000	      2596	80003d84	400a5b33	sra	x22,x20,x0	 x20:0xe8fc6730  x0:0x00000000 x22=0xe8fc6730
       25985000	      2597	80003d88	00000013	addi	x0,x0,0	  x0:0x00000000
       25995000	      2598	80003d8c	03da0e63	beq	x20,x29,80003dc8	 x20:0xe8fc6730 x29:0x7fff6138
       26005000	      2599	80003d90	fbaab513	sltiu	x10,x21,-70	 x21:0x00000067 x10=0x00000001
       26015000	      2600	80003d94	4117d413	srai	x8,x15,0x11	 x15:0xfedb0067  x8=0xffffff6d
       26025000	      2601	80003d98	f8f08f93	addi	x31,x1,-113	  x1:0x00000000 x31=0xffffff8f
       26035000	      2602	80003d9c	40bd0c33	sub	x24,x26,x11	 x26:0x80000000 x11:0x00000001 x24=0x7fffffff
       26045000	      2603	80003da0	010886b3	add	x13,x17,x16	 x17:0xd1f8ce60 x16:0x80009fc4 x13=0x51f96e24
       26055000	      2604	80003da4	04ca0063	beq	x20,x12,80003de4	 x20:0xe8fc6730 x12:0x98e1d000
       26065000	      2605	80003da8	bd1172b7	lui	x5,0xbd117	  x5=0xbd117000
       26075000	      2606	80003dac	0660ff93	andi	x31,x1,102	  x1:0x00000000 x31=0x00000000
       26085000	      2607	80003db0	aea7b413	sltiu	x8,x15,-1302	 x15:0xfedb0067  x8=0x00000001
       26095000	      2608	80003db4	011291b3	sll	x3,x5,x17	  x5:0xbd117000 x17:0xd1f8ce60  x3=0xbd117000
       26105000	      2609	80003db8	03374e63	blt	x14,x19,80003df4	 x14:0x00000000 x19:0x00000001
       26115000	      2610	00000000	00000013	addi	x0,x0,0	  x0:0x00000000
       26125000	      2611	80003df0	00000013	addi	x0,x0,0	  x0:0x00000000
       26135000	      2612	80003df4	006a67b3	or	x15,x20,x6	 x20:0xe8fc6730  x6:0x00000002 x15=0xe8fc6732
       26145000	      2613	80003df8	78ceea13	ori	x20,x29,1932	 x29:0x7fff6138 x20=0x7fff67bc
       26155000	      2614	80003dfc	d5320c13	addi	x24,x4,-685	  x4:0xfffffeda x24=0xfffffc2d
       26165000	      2615	80003e00	e4eb0197	auipc	x3,0xe4eb0	  x3=0x64eb3dfc
       26175000	      2616	80003e04	057e9263	bne	x29,x23,80003e48	 x29:0x7fff6138 x23:0x00000001
       26185000	      2617	00000000	00000013	addi	x0,x0,0	  x0:0x00000000
       26195000	      2618	80003e44	00000013	addi	x0,x0,0	  x0:0x00000000
       26205000	      2619	80003e48	0158d9b3	srl	x19,x17,x21	 x17:0xd1f8ce60 x21:0x00000067 x19=0x01a3f19c
       26215000	      2620	80003e4c	001c2133	slt	x2,x24,x1	 x24:0xfffffc2d  x1:0x00000000  x2=0x00000001
       26225000	      2621	80003e50	41600933	sub	x18,x0,x22	  x0:0x00000000 x22:0xe8fc6730 x18=0x170398d0
       26235000	      2622	80003e54	cc01c993	xori	x19,x3,-832	  x3:0x64eb3dfc x19=0x9b14c13c
       26245000	      2623	80003e58	00bd1e63	bne	x26,x11,80003e74	 x26:0x80000000 x11:0x00000001
       26255000	      2624	00000000	00000013	addi	x0,x0,0	  x0:0x00000000
       26265000	      2625	80003e70	00000013	addi	x0,x0,0	  x0:0x00000000
       26275000	      2626	80003e74	00a313b3	sll	x7,x6,x10	  x6:0x00000002 x10:0x00000001  x7=0x00000004
       26285000	      2627	80003e78	0141d113	srli	x2,x3,0x14	  x3:0x64eb3dfc  x2=0x0000064e
       26295000	      2628	80003e7c	01dbeb33	or	x22,x23,x29	 x23:0x00000001 x29:0x7fff6138 x22=0x7fff6139
       26305000	      2629	80003e80	00df94b3	sll	x9,x31,x13	 x31:0x00000000 x13:0x51f96e24  x9=0x00000000
       26315000	      2630	80003e84	010674b3	and	x9,x12,x16	 x12:0x98e1d000 x16:0x80009fc4  x9=0x80009000
       26325000	      2631	80003e88	4d59fe93	andi	x29,x19,1237	 x19:0x9b14c13c x29=0x00000014
       26335000	      2632	80003e8c	2657e513	ori	x10,x15,613	 x15:0xe8fc6732 x10=0xe8fc6777
       26345000	      2633	80003e90	01f6e5b3	or	x11,x13,x31	 x13:0x51f96e24 x31:0x00000000 x11=0x51f96e24
       26355000	      2634	80003e94	bc278593	addi	x11,x15,-1086	 x15:0xe8fc6732 x11=0xe8fc62f4
       26365000	      2635	80003e98	02690e63	beq	x18,x6,80003ed4	 x18:0x170398d0  x6:0x00000002
       26375000	      2636	80003e9c	0488f063	bgeu	x17,x8,80003edc	 x17:0xd1f8ce60  x8:0x00000001
       26385000	      2637	00000000	00000013	addi	x0,x0,0	  x0:0x00000000
       26395000	      2638	80003ed8	00000013	addi	x0,x0,0	  x0:0x00000000
       26405000	      2639	80003edc	01bed993	srli	x19,x29,0x1b	 x29:0x00000014 x19=0x00000000
       26415000	      2640	80003ee0	40d65793	srai	x15,x12,0xd	 x12:0x98e1d000 x15=0xfffcc70e
       26425000	      2641	80003ee4	042f7863	bgeu	x30,x2,80003f34	 x30:0xfffffedb  x2:0x0000064e
       26435000	      2642	00000000	00000013	addi	x0,x0,0	  x0:0x00000000
       26445000	      2643	80003f30	00000013	addi	x0,x0,0	  x0:0x00000000
       26455000	      2644	80003f34	674ef213	andi	x4,x29,1652	 x29:0x00000014  x4=0x00000014
       26465000	      2645	80003f38	40185913	srai	x18,x16,0x1	 x16:0x80009fc4 x18=0xc0004fe2
       26475000	      2646	80003f3c	037b5263	bge	x22,x23,80003f60	 x22:0x7fff6139 x23:0x00000001
       26485000	      2647	00000000	00000013	addi	x0,x0,0	  x0:0x00000000
       26495000	      2648	80003f5c	00000013	addi	x0,x0,0	  x0:0x00000000
       26505000	      2649	80003f60	00621893	slli	x17,x4,0x6	  x4:0x00000014 x17=0x00000500
       26515000	      2650	80003f64	e0f65cb7	lui	x25,0xe0f65	 x25=0xe0f65000
       26525000	      2651	80003f68	03648063	beq	x9,x22,80003f88	  x9:0x80009000 x22:0x7fff6139
       26535000	      2652	80003f6c	01804c63	blt	x0,x24,80003f84	  x0:0x00000000 x24:0xfffffc2d
       26545000	      2653	80003f70	40010f33	sub	x30,x2,x0	  x2:0x0000064e  x0:0x00000000 x30=0x0000064e
       26555000	      2654	80003f74	01349e93	slli	x29,x9,0x13	  x9:0x80009000 x29=0x80000000
       26565000	      2655	80003f78	403c3113	sltiu	x2,x24,1027	 x24:0xfffffc2d  x2=0x00000000
       26575000	      2656	80003f7c	0032e0b3	or	x1,x5,x3	  x5:0xbd117000  x3:0x64eb3dfc  x1=0xfdfb7dfc
       26585000	      2657	80003f80	00ada8b3	slt	x17,x27,x10	 x27:0x00670000 x10:0xe8fc6777 x17=0x00000000
       26595000	      2658	80003f84	002d8f33	add	x30,x27,x2	 x27:0x00670000  x2:0x00000000 x30=0x00670000
       26605000	      2659	80003f88	00aea9b3	slt	x19,x29,x10	 x29:0x80000000 x10:0xe8fc6777 x19=0x00000001
       26615000	      2660	80003f8c	01676863	bltu	x14,x22,80003f9c	 x14:0x00000000 x22:0x7fff6139
       26625000	      2661	00000000	00000013	addi	x0,x0,0	  x0:0x00000000
       26635000	      2662	80003f98	00000013	addi	x0,x0,0	  x0:0x00000000
       26645000	      2663	80003f9c	00000013	addi	x0,x0,0	  x0:0x00000000
       26655000	      2664	80003fa0	b643ef93	ori	x31,x7,-1180	  x7:0x00000004 x31=0xfffffb64
       26665000	      2665	80003fa4	04478663	beq	x15,x4,80003ff0	 x15:0xfffcc70e  x4:0x00000014
       26675000	      2666	80003fa8	fad3e593	ori	x11,x7,-83	  x7:0x00000004 x11=0xffffffad
       26685000	      2667	80003fac	efb14b13	xori	x22,x2,-261	  x2:0x00000000 x22=0xfffffefb
       26695000	      2668	80003fb0	4ba1c793	xori	x15,x3,1210	  x3:0x64eb3dfc x15=0x64eb3946
       26705000	      2669	80003fb4	0124f9b3	and	x19,x9,x18	  x9:0x80009000 x18:0xc0004fe2 x19=0x80000000
       26715000	      2670	80003fb8	00000013	addi	x0,x0,0	  x0:0x00000000
       26725000	      2671	80003fbc	01a0fa33	and	x20,x1,x26	  x1:0xfdfb7dfc x26:0x80000000 x20=0x80000000
       26735000	      2672	80003fc0	d933a4b7	lui	x9,0xd933a	  x9=0xd933a000
       26745000	      2673	80003fc4	d45fff93	andi	x31,x31,-699	 x31:0xfffffb64 x31=0xfffff944
       26755000	      2674	80003fc8	0043dc13	srli	x24,x7,0x4	  x7:0x00000004 x24=0x00000000
       26765000	      2675	80003fcc	04c60063	beq	x12,x12,8000400c	 x12:0x98e1d000 x12:0x98e1d000
       26775000	      2676	00000000	00000013	addi	x0,x0,0	  x0:0x00000000
       26785000	      2677	80004008	00000013	addi	x0,x0,0	  x0:0x00000000
       26795000	      2678	8000400c	05407063	bgeu	x0,x20,8000404c	  x0:0x00000000 x20:0x80000000
       26805000	      2679	80004010	00256c33	or	x24,x10,x2	 x10:0xe8fc6777  x2:0x00000000 x24=0xe8fc6777
       26815000	      2680	80004014	02ffee63	bltu	x31,x15,80004050	 x31:0xfffff944 x15:0x64eb3946
       26825000	      2681	80004018	a985a193	slti	x3,x11,-1384	 x11:0xffffffad  x3=0x00000000
       26835000	      2682	8000401c	e609e697	auipc	x13,0xe609e	 x13=0x660a2018
       26845000	      2683	80004020	ff116913	ori	x18,x2,-15	  x2:0x00000000 x18=0xfffffff1
       26855000	      2684	80004024	40a25233	sra	x4,x4,x10	  x4:0x00000014 x10:0xe8fc6777  x4=0x00000000
       26865000	      2685	80004028	33405a37	lui	x20,0x33405	 x20=0x33405000
       26875000	      2686	8000402c	046c7063	bgeu	x24,x6,8000406c	 x24:0xe8fc6777  x6:0x00000002
       26885000	      2687	00000000	00000013	addi	x0,x0,0	  x0:0x00000000
       26895000	      2688	80004068	00000013	addi	x0,x0,0	  x0:0x00000000
       26905000	      2689	8000406c	007a77b3	and	x15,x20,x7	 x20:0x33405000  x7:0x00000004 x15=0x00000000
       26915000	      2690	80004070	41a57717	auipc	x14,0x41a57	 x14=0xc1a5b06c
       26925000	      2691	80004074	7044e093	ori	x1,x9,1796	  x9:0xd933a000  x1=0xd933a704
       26935000	      2692	80004078	0599c063	blt	x19,x25,800040b8	 x19:0x80000000 x25:0xe0f65000
       26945000	      2693	00000000	00000013	addi	x0,x0,0	  x0:0x00000000
       26955000	      2694	800040b4	00000013	addi	x0,x0,0	  x0:0x00000000
       26965000	      2695	800040b8	002e3933	sltu	x18,x28,x2	 x28:0x80009ec8  x2:0x00000000 x18=0x00000000
       26975000	      2696	800040bc	00fcc7b3	xor	x15,x25,x15	 x25:0xe0f65000 x15:0x00000000 x15=0xe0f65000
       26985000	      2697	800040c0	00fff863	bgeu	x31,x15,800040d0	 x31:0xfffff944 x15:0xe0f65000
       26995000	      2698	00000000	00000013	addi	x0,x0,0	  x0:0x00000000
       27005000	      2699	800040cc	00000013	addi	x0,x0,0	  x0:0x00000000
       27015000	      2700	800040d0	00a842b3	xor	x5,x16,x10	 x16:0x80009fc4 x10:0xe8fc6777  x5=0x68fcf8b3
       27025000	      2701	800040d4	cc4e6fb7	lui	x31,0xcc4e6	 x31=0xcc4e6000
       27035000	      2702	800040d8	f423dc37	lui	x24,0xf423d	 x24=0xf423d000
       27045000	      2703	800040dc	00dad663	bge	x21,x13,800040e8	 x21:0x00000067 x13:0x660a2018
       27055000	      2704	800040e0	a13dfcb7	lui	x25,0xa13df	 x25=0xa13df000
       27065000	      2705	800040e4	00a2dc33	srl	x24,x5,x10	  x5:0x68fcf8b3 x10:0xe8fc6777 x24=0x000000d1
       27075000	      2706	800040e8	4020dfb3	sra	x31,x1,x2	  x1:0xd933a704  x2:0x00000000 x31=0xd933a704
       27085000	      2707	800040ec	011ddfb3	srl	x31,x27,x17	 x27:0x00670000 x17:0x00000000 x31=0x00670000
       27095000	      2708	800040f0	ccbb11b7	lui	x3,0xccbb1	  x3=0xccbb1000
       27105000	      2709	800040f4	00e64b33	xor	x22,x12,x14	 x12:0x98e1d000 x14:0xc1a5b06c x22=0x5944606c
       27115000	      2710	800040f8	1dccb913	sltiu	x18,x25,476	 x25:0xa13df000 x18=0x00000000
       27125000	      2711	800040fc	bc88f293	andi	x5,x17,-1080	 x17:0x00000000  x5=0x00000000
       27135000	      2712	80004100	00000013	addi	x0,x0,0	  x0:0x00000000
       27145000	      2713	80004104	f1d18917	auipc	x18,0xf1d18	 x18=0x71d1c100
       27155000	      2714	80004108	7de78513	addi	x10,x15,2014	 x15:0xe0f65000 x10=0xe0f657de
       27165000	      2715	8000410c	0189d713	srli	x14,x19,0x18	 x19:0x80000000 x14=0x00000080
       27175000	      2716	80004110	021a4863	blt	x20,x1,80004140	 x20:0x33405000  x1:0xd933a704
       27185000	      2717	80004114	2b240e97	auipc	x29,0x2b240	 x29=0xab244110
       27195000	      2718	80004118	00000013	addi	x0,x0,0	  x0:0x00000000
       27205000	      2719	8000411c	5a842f93	slti	x31,x8,1448	  x8:0x00000001 x31=0x00000001
       27215000	      2720	80004120	4061d293	srai	x5,x3,0x6	  x3:0xccbb1000  x5=0xff32ec40
       27225000	      2721	80004124	00071cb3	sll	x25,x14,x0	 x14:0x00000080  x0:0x00000000 x25=0x00000080
       27235000	      2722	80004128	b0e57213	andi	x4,x10,-1266	 x10:0xe0f657de  x4=0xe0f6530e
       27245000	      2723	8000412c	4c3671b7	lui	x3,0x4c367	  x3=0x4c367000
       27255000	      2724	80004130	69b74293	xori	x5,x14,1691	 x14:0x00000080  x5=0x0000061b
       27265000	      2725	80004134	40178233	sub	x4,x15,x1	 x15:0xe0f65000  x1:0xd933a704  x4=0x07c2a8fc
       27275000	      2726	80004138	01498263	beq	x19,x20,8000413c	 x19:0x80000000 x20:0x33405000
       27285000	      2727	8000413c	012d53b3	srl	x7,x26,x18	 x26:0x80000000 x18:0x71d1c100  x7=0x80000000
       27295000	      2728	80004140	41905f13	srai	x30,x0,0x19	  x0:0x00000000 x30=0x00000000
       27305000	      2729	80004144	418a5193	srai	x3,x20,0x18	 x20:0x33405000  x3=0x00000033
       27315000	      2730	80004148	03c96e63	bltu	x18,x28,80004184	 x18:0x71d1c100 x28:0x80009ec8
       27325000	      2731	00000000	00000013	addi	x0,x0,0	  x0:0x00000000
       27335000	      2732	80004180	00000013	addi	x0,x0,0	  x0:0x00000000
       27345000	      2733	80004184	05cf1263	bne	x30,x28,800041c8	 x30:0x00000000 x28:0x80009ec8
       27355000	      2734	00000000	00000013	addi	x0,x0,0	  x0:0x00000000
       27365000	      2735	800041c4	00000013	addi	x0,x0,0	  x0:0x00000000
       27375000	      2736	800041c8	1073d663	bge	x7,x7,800042d4	  x7:0x80000000  x7:0x80000000
       27385000	      2737	00000000	00000013	addi	x0,x0,0	  x0:0x00000000
       27395000	      2738	800042d0	00000013	addi	x0,x0,0	  x0:0x00000000
       27405000	      2739	800042d4	00e051b3	srl	x3,x0,x14	  x0:0x00000000 x14:0x00000080  x3=0x00000000
       27415000	      2740	800042d8	79fc6a97	auipc	x21,0x79fc6	 x21=0xf9fca2d4
       27425000	      2741	800042dc	05661063	bne	x12,x22,8000431c	 x12:0x98e1d000 x22:0x5944606c
       27435000	      2742	00000000	00000013	addi	x0,x0,0	  x0:0x00000000
       27445000	      2743	80004318	00000013	addi	x0,x0,0	  x0:0x00000000
       27455000	      2744	8000431c	db4da093	slti	x1,x27,-588	 x27:0x00670000  x1=0x00000000
       27465000	      2745	80004320	406453b3	sra	x7,x8,x6	  x8:0x00000001  x6:0x00000002  x7=0x00000000
       27475000	      2746	80004324	00f73033	sltu	x0,x14,x15	 x14:0x00000080 x15:0xe0f65000
       27485000	      2747	80004328	005c85b3	add	x11,x25,x5	 x25:0x00000080  x5:0x0000061b x11=0x0000069b
       27495000	      2748	8000432c	41b30f33	sub	x30,x6,x27	  x6:0x00000002 x27:0x00670000 x30=0xff990002
       27505000	      2749	80004330	00bab0b3	sltu	x1,x21,x11	 x21:0xf9fca2d4 x11:0x0000069b  x1=0x00000000
       27515000	      2750	80004334	01ce2033	slt	x0,x28,x28	 x28:0x80009ec8 x28:0x80009ec8
       27525000	      2751	80004338	febe7713	andi	x14,x28,-21	 x28:0x80009ec8 x14=0x80009ec8
       27535000	      2752	8000433c	e4f5f993	andi	x19,x11,-433	 x11:0x0000069b x19=0x0000060b
       27545000	      2753	80004340	01a2ea33	or	x20,x5,x26	  x5:0x0000061b x26:0x80000000 x20=0x8000061b
       27555000	      2754	80004344	001bc6b3	xor	x13,x23,x1	 x23:0x00000001  x1:0x00000000 x13=0x00000001
       27565000	      2755	80004348	01ab69b3	or	x19,x22,x26	 x22:0x5944606c x26:0x80000000 x19=0xd944606c
       27575000	      2756	8000434c	75ad4e93	xori	x29,x26,1882	 x26:0x80000000 x29=0x8000075a
       27585000	      2757	80004350	a01854b7	lui	x9,0xa0185	  x9=0xa0185000
       27595000	      2758	80004354	03ae1463	bne	x28,x26,8000437c	 x28:0x80009ec8 x26:0x80000000
       27605000	      2759	00000000	00000013	addi	x0,x0,0	  x0:0x00000000
       27615000	      2760	80004378	00000013	addi	x0,x0,0	  x0:0x00000000
       27625000	      2761	8000437c	03910e63	beq	x2,x25,800043b8	  x2:0x00000000 x25:0x00000080
       27635000	      2762	80004380	02f98b93	addi	x23,x19,47	 x19:0xd944606c x23=0xd944609b
       27645000	      2763	80004384	41278a33	sub	x20,x15,x18	 x15:0xe0f65000 x18:0x71d1c100 x20=0x6f248f00
       27655000	      2764	80004388	00659b13	slli	x22,x11,0x6	 x11:0x0000069b x22=0x0001a6c0
       27665000	      2765	8000438c	a8664b93	xori	x23,x12,-1402	 x12:0x98e1d000 x23=0x671e2a86
       27675000	      2766	80004390	058fe263	bltu	x31,x24,800043d4	 x31:0x00000001 x24:0x000000d1
       27685000	      2767	00000000	00000013	addi	x0,x0,0	  x0:0x00000000
       27695000	      2768	800043d0	00000013	addi	x0,x0,0	  x0:0x00000000
       27705000	      2769	800043d4	411259b3	sra	x19,x4,x17	  x4:0x07c2a8fc x17:0x00000000 x19=0x07c2a8fc
       27715000	      2770	800043d8	00310233	add	x4,x2,x3	  x2:0x00000000  x3:0x00000000  x4=0x00000000
       27725000	      2771	800043dc	879be613	ori	x12,x23,-1927	 x23:0x671e2a86 x12=0xfffffaff
       27735000	      2772	800043e0	05176063	bltu	x14,x17,80004420	 x14:0x80009ec8 x17:0x00000000
       27745000	      2773	800043e4	d3a32f17	auipc	x30,0xd3a32	 x30=0x53a363e0
       27755000	      2774	800043e8	df7a8013	addi	x0,x21,-521	 x21:0xf9fca2d4
       27765000	      2775	800043ec	005340b3	xor	x1,x6,x5	  x6:0x00000002  x5:0x0000061b  x1=0x00000619
       27775000	      2776	800043f0	00be9613	slli	x12,x29,0xb	 x29:0x8000075a x12=0x003ad000
       27785000	      2777	800043f4	00f0af33	slt	x30,x1,x15	  x1:0x00000619 x15:0xe0f65000 x30=0x00000000
       27795000	      2778	800043f8	016693b3	sll	x7,x13,x22	 x13:0x00000001 x22:0x0001a6c0  x7=0x00000001
       27805000	      2779	800043fc	80694c13	xori	x24,x18,-2042	 x18:0x71d1c100 x24=0x8e2e3906
       27815000	      2780	80004400	0176d7b3	srl	x15,x13,x23	 x13:0x00000001 x23:0x671e2a86 x15=0x00000000
       27825000	      2781	80004404	40fa52b3	sra	x5,x20,x15	 x20:0x6f248f00 x15:0x00000000  x5=0x6f248f00
       27835000	      2782	80004408	010b78b3	and	x17,x22,x16	 x22:0x0001a6c0 x16:0x80009fc4 x17=0x000086c0
       27845000	      2783	8000440c	416b8033	sub	x0,x23,x22	 x23:0x671e2a86 x22:0x0001a6c0
       27855000	      2784	80004410	00c8d713	srli	x14,x17,0xc	 x17:0x000086c0 x14=0x00000008
       27865000	      2785	80004414	01956c33	or	x24,x10,x25	 x10:0xe0f657de x25:0x00000080 x24=0xe0f657de
       27875000	      2786	80004418	009663b3	or	x7,x12,x9	 x12:0x003ad000  x9:0xa0185000  x7=0xa03ad000
       27885000	      2787	8000441c	00000013	addi	x0,x0,0	  x0:0x00000000
       27895000	      2788	80004420	00da7a33	and	x20,x20,x13	 x20:0x6f248f00 x13:0x00000001 x20=0x00000000
       27905000	      2789	80004424	0189f133	and	x2,x19,x24	 x19:0x07c2a8fc x24:0xe0f657de  x2=0x00c200dc
       27915000	      2790	80004428	4020dc93	srai	x25,x1,0x2	  x1:0x00000619 x25=0x00000186
       27925000	      2791	8000442c	02cffa63	bgeu	x31,x12,80004460	 x31:0x00000001 x12:0x003ad000
       27935000	      2792	80004430	03d9fe63	bgeu	x19,x29,8000446c	 x19:0x07c2a8fc x29:0x8000075a
       27945000	      2793	80004434	00a05d93	srli	x27,x0,0xa	  x0:0x00000000 x27=0x00000000
       27955000	      2794	80004438	15a47c93	andi	x25,x8,346	  x8:0x00000001 x25=0x00000000
       27965000	      2795	8000443c	00000013	addi	x0,x0,0	  x0:0x00000000
       27975000	      2796	80004440	cfad6513	ori	x10,x26,-774	 x26:0x80000000 x10=0xfffffcfa
       27985000	      2797	80004444	001f1663	bne	x30,x1,80004450	 x30:0x00000000  x1:0x00000619
       27995000	      2798	00000000	00000013	addi	x0,x0,0	  x0:0x00000000
       28005000	      2799	8000444c	00000013	addi	x0,x0,0	  x0:0x00000000
       28015000	      2800	80004450	010de263	bltu	x27,x16,80004454	 x27:0x00000000 x16:0x80009fc4
       28025000	      2801	00000000	00000013	addi	x0,x0,0	  x0:0x00000000
       28035000	      2802	80004450	00000013	addi	x0,x0,0	  x0:0x00000000
       28045000	      2803	80004454	d0373593	sltiu	x11,x14,-765	 x14:0x00000008 x11=0x00000001
       28055000	      2804	80004458	27880a13	addi	x20,x16,632	 x16:0x80009fc4 x20=0x8000a23c
       28065000	      2805	8000445c	00000013	addi	x0,x0,0	  x0:0x00000000
       28075000	      2806	80004460	016b2c33	slt	x24,x22,x22	 x22:0x0001a6c0 x22:0x0001a6c0 x24=0x00000000
       28085000	      2807	80004464	008ae733	or	x14,x21,x8	 x21:0xf9fca2d4  x8:0x00000001 x14=0xf9fca2d5
       28095000	      2808	80004468	ee83a713	slti	x14,x7,-280	  x7:0xa03ad000 x14=0x00000001
       28105000	      2809	8000446c	4168d2b3	sra	x5,x17,x22	 x17:0x000086c0 x22:0x0001a6c0  x5=0x000086c0
       28115000	      2810	80004470	04ca4063	blt	x20,x12,800044b0	 x20:0x8000a23c x12:0x003ad000
       28125000	      2811	00000000	00000013	addi	x0,x0,0	  x0:0x00000000
       28135000	      2812	800044ac	00000013	addi	x0,x0,0	  x0:0x00000000
       28145000	      2813	800044b0	00ee79b3	and	x19,x28,x14	 x28:0x80009ec8 x14:0x00000001 x19=0x00000000
       28155000	      2814	800044b4	0386ee63	bltu	x13,x24,800044f0	 x13:0x00000001 x24:0x00000000
       28165000	      2815	800044b8	0175b533	sltu	x10,x11,x23	 x11:0x00000001 x23:0x671e2a86 x10=0x00000001
       28175000	      2816	800044bc	6f17b193	sltiu	x3,x15,1777	 x15:0x00000000  x3=0x00000001
       28185000	      2817	800044c0	131df693	andi	x13,x27,305	 x27:0x00000000 x13=0x00000000
       28195000	      2818	800044c4	281b2913	slti	x18,x22,641	 x22:0x0001a6c0 x18=0x00000000
       28205000	      2819	800044c8	765f0493	addi	x9,x30,1893	 x30:0x00000000  x9=0x00000765
       28215000	      2820	800044cc	00745933	srl	x18,x8,x7	  x8:0x00000001  x7:0xa03ad000 x18=0x00000001
       28225000	      2821	800044d0	01ea8233	add	x4,x21,x30	 x21:0xf9fca2d4 x30:0x00000000  x4=0xf9fca2d4
       28235000	      2822	800044d4	005e85b3	add	x11,x29,x5	 x29:0x8000075a  x5:0x000086c0 x11=0x80008e1a
       28245000	      2823	800044d8	070f0213	addi	x4,x30,112	 x30:0x00000000  x4=0x00000070
       28255000	      2824	800044dc	4101dc93	srai	x25,x3,0x10	  x3:0x00000001 x25=0x00000000
       28265000	      2825	800044e0	51db0893	addi	x17,x22,1309	 x22:0x0001a6c0 x17=0x0001abdd
       28275000	      2826	800044e4	600d6637	lui	x12,0x600d6	 x12=0x600d6000
       28285000	      2827	800044e8	00901793	slli	x15,x0,0x9	  x0:0x00000000 x15=0x00000000
       28295000	      2828	800044ec	00b3fa33	and	x20,x7,x11	  x7:0xa03ad000 x11:0x80008e1a x20=0x80008000
       28305000	      2829	800044f0	01197cb3	and	x25,x18,x17	 x18:0x00000001 x17:0x0001abdd x25=0x00000001
       28315000	      2830	800044f4	8dfbb913	sltiu	x18,x23,-1825	 x23:0x671e2a86 x18=0x00000001
       28325000	      2831	800044f8	0182dc33	srl	x24,x5,x24	  x5:0x000086c0 x24:0x00000000 x24=0x000086c0
       28335000	      2832	800044fc	a1697413	andi	x8,x18,-1514	 x18:0x00000001  x8=0x00000000
       28345000	      2833	80004500	41f38a33	sub	x20,x7,x31	  x7:0xa03ad000 x31:0x00000001 x20=0xa03acfff
       28355000	      2834	80004504	021fc063	blt	x31,x1,80004524	 x31:0x00000001  x1:0x00000619
       28365000	      2835	00000000	00000013	addi	x0,x0,0	  x0:0x00000000
       28375000	      2836	80004520	00000013	addi	x0,x0,0	  x0:0x00000000
       28385000	      2837	80004524	e1e1ad93	slti	x27,x3,-482	  x3:0x00000001 x27=0x00000000
       28395000	      2838	80004528	004de2b3	or	x5,x27,x4	 x27:0x00000000  x4:0x00000070  x5=0x00000070
       28405000	      2839	8000452c	02030063	beq	x6,x0,8000454c	  x6:0x00000002  x0:0x00000000
       28415000	      2840	80004530	354e0337	lui	x6,0x354e0	  x6=0x354e0000
       28425000	      2841	80004534	00815333	srl	x6,x2,x8	  x2:0x00c200dc  x8:0x00000000  x6=0x00c200dc
       28435000	      2842	80004538	411a5db3	sra	x27,x20,x17	 x20:0xa03acfff x17:0x0001abdd x27=0xfffffffd
       28445000	      2843	8000453c	014acc63	blt	x21,x20,80004554	 x21:0xf9fca2d4 x20:0xa03acfff
       28455000	      2844	80004540	41625fb3	sra	x31,x4,x22	  x4:0x00000070 x22:0x0001a6c0 x31=0x00000070
       28465000	      2845	80004544	75492213	slti	x4,x18,1876	 x18:0x00000001  x4=0x00000001
       28475000	      2846	80004548	02a2ea63	bltu	x5,x10,8000457c	  x5:0x00000070 x10:0x00000001
       28485000	      2847	8000454c	40295933	sra	x18,x18,x2	 x18:0x00000001  x2:0x00c200dc x18=0x00000000
       28495000	      2848	80004550	00778133	add	x2,x15,x7	 x15:0x00000000  x7:0xa03ad000  x2=0xa03ad000
       28505000	      2849	80004554	b43c7d97	auipc	x27,0xb43c7	 x27=0x343cb550
       28515000	      2850	80004558	008a6c33	or	x24,x20,x8	 x20:0xa03acfff  x8:0x00000000 x24=0xa03acfff
       28525000	      2851	8000455c	0585c663	blt	x11,x24,800045a8	 x11:0x80008e1a x24:0xa03acfff
       28535000	      2852	00000000	00000013	addi	x0,x0,0	  x0:0x00000000
       28545000	      2853	800045a4	00000013	addi	x0,x0,0	  x0:0x00000000
       28555000	      2854	800045a8	005f3033	sltu	x0,x30,x5	 x30:0x00000000  x5:0x00000070
       28565000	      2855	800045ac	01cd9433	sll	x8,x27,x28	 x27:0x343cb550 x28:0x80009ec8  x8=0x3cb55000
       28575000	      2856	800045b0	02f07e63	bgeu	x0,x15,800045ec	  x0:0x00000000 x15:0x00000000
       28585000	      2857	00000000	00000013	addi	x0,x0,0	  x0:0x00000000
       28595000	      2858	800045e8	00000013	addi	x0,x0,0	  x0:0x00000000
       28605000	      2859	800045ec	6d738713	addi	x14,x7,1751	  x7:0xa03ad000 x14=0xa03ad6d7
       28615000	      2860	800045f0	01b333b3	sltu	x7,x6,x27	  x6:0x00c200dc x27:0x343cb550  x7=0x00000001
       28625000	      2861	800045f4	04676063	bltu	x14,x6,80004634	 x14:0xa03ad6d7  x6:0x00c200dc
       28635000	      2862	800045f8	02229063	bne	x5,x2,80004618	  x5:0x00000070  x2:0xa03ad000
       28645000	      2863	00000000	00000013	addi	x0,x0,0	  x0:0x00000000
       28655000	      2864	80004614	00000013	addi	x0,x0,0	  x0:0x00000000
       28665000	      2865	80004618	02cbd063	bge	x23,x12,80004638	 x23:0x671e2a86 x12:0x600d6000
       28675000	      2866	00000000	00000013	addi	x0,x0,0	  x0:0x00000000
       28685000	      2867	80004634	00000013	addi	x0,x0,0	  x0:0x00000000
       28695000	      2868	80004638	002f6933	or	x18,x30,x2	 x30:0x00000000  x2:0xa03ad000 x18=0xa03ad000
       28705000	      2869	8000463c	405d5513	srai	x10,x26,0x5	 x26:0x80000000 x10=0xfc000000
       28715000	      2870	80004640	0016aa33	slt	x20,x13,x1	 x13:0x00000000  x1:0x00000619 x20=0x00000001
       28725000	      2871	80004644	018184b3	add	x9,x3,x24	  x3:0x00000001 x24:0xa03acfff  x9=0xa03ad000
       28735000	      2872	80004648	007c6eb3	or	x29,x24,x7	 x24:0xa03acfff  x7:0x00000001 x29=0xa03acfff
       28745000	      2873	8000464c	c6c63313	sltiu	x6,x12,-916	 x12:0x600d6000  x6=0x00000001
       28755000	      2874	80004650	0071f533	and	x10,x3,x7	  x3:0x00000001  x7:0x00000001 x10=0x00000001
       28765000	      2875	80004654	018c6a63	bltu	x24,x24,80004668	 x24:0xa03acfff x24:0xa03acfff
       28775000	      2876	80004658	b2989a97	auipc	x21,0xb2989	 x21=0x3298d654
       28785000	      2877	8000465c	00bf9233	sll	x4,x31,x11	 x31:0x00000070 x11:0x80008e1a  x4=0xc0000000
       28795000	      2878	80004660	f9987197	auipc	x3,0xf9987	  x3=0x7998b65c
       28805000	      2879	80004664	3b32f413	andi	x8,x5,947	  x5:0x00000070  x8=0x00000030
       28815000	      2880	80004668	d9853f13	sltiu	x30,x10,-616	 x10:0x00000001 x30=0x00000001
       28825000	      2881	8000466c	010f1393	slli	x7,x30,0x10	 x30:0x00000001  x7=0x00010000
       28835000	      2882	80004670	017800b3	add	x1,x16,x23	 x16:0x80009fc4 x23:0x671e2a86  x1=0xe71eca4a
       28845000	      2883	80004674	36913013	sltiu	x0,x2,873	  x2:0xa03ad000
       28855000	      2884	80004678	00f47863	bgeu	x8,x15,80004688	  x8:0x00000030 x15:0x00000000
       28865000	      2885	00000000	00000013	addi	x0,x0,0	  x0:0x00000000
       28875000	      2886	80004684	00000013	addi	x0,x0,0	  x0:0x00000000
       28885000	      2887	80004688	2e7b6f93	ori	x31,x22,743	 x22:0x0001a6c0 x31=0x0001a6e7
       28895000	      2888	8000468c	0193c4b3	xor	x9,x7,x25	  x7:0x00010000 x25:0x00000001  x9=0x00010001
       28905000	      2889	80004690	004599b3	sll	x19,x11,x4	 x11:0x80008e1a  x4:0xc0000000 x19=0x80008e1a
       28915000	      2890	80004694	015c1633	sll	x12,x24,x21	 x24:0xa03acfff x21:0x3298d654 x12=0xfff00000
       28925000	      2891	80004698	40055093	srai	x1,x10,0x0	 x10:0x00000001  x1=0x00000001
       28935000	      2892	8000469c	6b780393	addi	x7,x16,1719	 x16:0x80009fc4  x7=0x8000a67b
       28945000	      2893	800046a0	01db8e63	beq	x23,x29,800046bc	 x23:0x671e2a86 x29:0xa03acfff
       28955000	      2894	800046a4	0023a933	slt	x18,x7,x2	  x7:0x8000a67b  x2:0xa03ad000 x18=0x00000001
       28965000	      2895	800046a8	0085a633	slt	x12,x11,x8	 x11:0x80008e1a  x8:0x00000030 x12=0x00000001
       28975000	      2896	800046ac	00000013	addi	x0,x0,0	  x0:0x00000000
       28985000	      2897	800046b0	02680463	beq	x16,x6,800046d8	 x16:0x80009fc4  x6:0x00000001
       28995000	      2898	800046b4	0034afb3	slt	x31,x9,x3	  x9:0x00010001  x3:0x7998b65c x31=0x00000001
       29005000	      2899	800046b8	e5eb5f17	auipc	x30,0xe5eb5	 x30=0x65eb96b4
       29015000	      2900	800046bc	1eaab3b7	lui	x7,0x1eaab	  x7=0x1eaab000
       29025000	      2901	800046c0	003554b3	srl	x9,x10,x3	 x10:0x00000001  x3:0x7998b65c  x9=0x00000000
       29035000	      2902	800046c4	59d93113	sltiu	x2,x18,1437	 x18:0x00000001  x2=0x00000001
       29045000	      2903	800046c8	02b64263	blt	x12,x11,800046ec	 x12:0x00000001 x11:0x80008e1a
       29055000	      2904	800046cc	00a7da33	srl	x20,x15,x10	 x15:0x00000000 x10:0x00000001 x20=0x00000000
       29065000	      2905	800046d0	40d20533	sub	x10,x4,x13	  x4:0xc0000000 x13:0x00000000 x10=0xc0000000
       29075000	      2906	800046d4	c8dc8997	auipc	x19,0xc8dc8	 x19=0x48dcc6d0
       29085000	      2907	800046d8	de653f93	sltiu	x31,x10,-538	 x10:0xc0000000 x31=0x00000001
       29095000	      2908	800046dc	01be8863	beq	x29,x27,800046ec	 x29:0xa03acfff x27:0x343cb550
       29105000	      2909	800046e0	0f7a6517	auipc	x10,0xf7a6	 x10=0x8f7aa6dc
       29115000	      2910	800046e4	418e85b3	sub	x11,x29,x24	 x29:0xa03acfff x24:0xa03acfff x11=0x00000000
       29125000	      2911	800046e8	37407b93	andi	x23,x0,884	  x0:0x00000000 x23=0x00000000
       29135000	      2912	800046ec	01618c63	beq	x3,x22,80004704	  x3:0x7998b65c x22:0x0001a6c0
       29145000	      2913	800046f0	0046dc33	srl	x24,x13,x4	 x13:0x00000000  x4:0xc0000000 x24=0x00000000
       29155000	      2914	800046f4	017fe7b3	or	x15,x31,x23	 x31:0x00000001 x23:0x00000000 x15=0x00000001
       29165000	      2915	800046f8	1e7ab193	sltiu	x3,x21,487	 x21:0x3298d654  x3=0x00000000
       29175000	      2916	800046fc	04a3d663	bge	x7,x10,80004748	  x7:0x1eaab000 x10:0x8f7aa6dc
       29185000	      2917	00000000	00000013	addi	x0,x0,0	  x0:0x00000000
       29195000	      2918	80004744	00000013	addi	x0,x0,0	  x0:0x00000000
       29205000	      2919	80004748	012495b3	sll	x11,x9,x18	  x9:0x00000000 x18:0x00000001 x11=0x00000000
       29215000	      2920	8000474c	2ea77193	andi	x3,x14,746	 x14:0xa03ad6d7  x3=0x000002c2
       29225000	      2921	80004750	406ada93	srai	x21,x21,0x6	 x21:0x3298d654 x21=0x00ca6359
       29235000	      2922	80004754	9c12c097	auipc	x1,0x9c12c	  x1=0x1c130750
       29245000	      2923	80004758	6050c193	xori	x3,x1,1541	  x1:0x1c130750  x3=0x1c130155
       29255000	      2924	8000475c	397bf013	andi	x0,x23,919	 x23:0x00000000
       29265000	      2925	80004760	03277e63	bgeu	x14,x18,8000479c	 x14:0xa03ad6d7 x18:0x00000001
       29275000	      2926	00000000	00000013	addi	x0,x0,0	  x0:0x00000000
       29285000	      2927	80004798	00000013	addi	x0,x0,0	  x0:0x00000000
       29295000	      2928	8000479c	00a455b3	srl	x11,x8,x10	  x8:0x00000030 x10:0x8f7aa6dc x11=0x00000000
       29305000	      2929	800047a0	0074c8b3	xor	x17,x9,x7	  x9:0x00000000  x7:0x1eaab000 x17=0x1eaab000
       29315000	      2930	800047a4	01e69233	sll	x4,x13,x30	 x13:0x00000000 x30:0x65eb96b4  x4=0x00000000
       29325000	      2931	800047a8	01a2c033	xor	x0,x5,x26	  x5:0x00000070 x26:0x80000000
       29335000	      2932	800047ac	00000013	addi	x0,x0,0	  x0:0x00000000
       29345000	      2933	800047b0	009654b3	srl	x9,x12,x9	 x12:0x00000001  x9:0x00000000  x9=0x00000001
       29355000	      2934	800047b4	00000013	addi	x0,x0,0	  x0:0x00000000
       29365000	      2935	800047b8	00004117	auipc	x2,0x4	  x2=0x800087b4
       29375000	      2936	800047bc	9a310113	addi	x2,x2,-1629	  x2:0x800087b4  x2=0x80008157
       29385000	      2937	800047c0	69546213	ori	x4,x8,1685	  x8:0x00000030  x4=0x000006b5
       29395000	      2938	800047c4	ffa10f23	sb	x26,-2(x2)	  x2:0x80008157 x26:0x80000000 PA:0x80008155
       29405000	      2939	800047c8	fcc14083	lbu	x1,-52(x2)	  x2:0x80008157  x1=0x00000062 PA:0x80008123
       29415000	      2940	800047cc	01e83633	sltu	x12,x16,x30	 x16:0x80009fc4 x30:0x65eb96b4 x12=0x00000000
       29425000	      2941	800047d0	331af693	andi	x13,x21,817	 x21:0x00ca6359 x13=0x00000311
       29435000	      2942	800047d4	f3a10ca3	sb	x26,-199(x2)	  x2:0x80008157 x26:0x80000000 PA:0x80008090
       29445000	      2943	800047d8	41375613	srai	x12,x14,0x13	 x14:0xa03ad6d7 x12=0xfffff407
       29455000	      2944	800047dc	f0910003	lb	x0,-247(x2)	  x2:0x80008157 PA:0x80008060
       29465000	      2945	800047e0	3e924293	xori	x5,x4,1001	  x4:0x000006b5  x5=0x0000055c
       29475000	      2946	800047e4	d5c28e93	addi	x29,x5,-676	  x5:0x0000055c x29=0x000002b8
       29485000	      2947	800047e8	f89103a3	sb	x9,-121(x2)	  x2:0x80008157  x9:0x00000001 PA:0x800080de
       29495000	      2948	800047ec	01ec4033	xor	x0,x24,x30	 x24:0x00000000 x30:0x65eb96b4
       29505000	      2949	800047f0	016093b3	sll	x7,x1,x22	  x1:0x00000062 x22:0x0001a6c0  x7=0x00000062
       29515000	      2950	800047f4	008d7a33	and	x20,x26,x8	 x26:0x80000000  x8:0x00000030 x20=0x00000000
       29525000	      2951	800047f8	01715583	lhu	x11,23(x2)	  x2:0x80008157 x11=0x000078b3 PA:0x8000816e
       29535000	      2952	800047fc	41ecd493	srai	x9,x25,0x1e	 x25:0x00000001  x9=0x00000000
       29545000	      2953	80004800	0066f5b3	and	x11,x13,x6	 x13:0x00000311  x6:0x00000001 x11=0x00000001
       29555000	      2954	80004804	7f002d93	slti	x27,x0,2032	  x0:0x00000000 x27=0x00000001
       29565000	      2955	80004808	01c526b3	slt	x13,x10,x28	 x10:0x8f7aa6dc x28:0x80009ec8 x13=0x00000000
       29575000	      2956	8000480c	41825b93	srai	x23,x4,0x18	  x4:0x000006b5 x23=0x00000000
       29585000	      2957	80004810	b376f493	andi	x9,x13,-1225	 x13:0x00000000  x9=0x00000000
       29595000	      2958	80004814	419bd533	sra	x10,x23,x25	 x23:0x00000000 x25:0x00000001 x10=0x00000000
       29605000	      2959	80004818	1ddf4013	xori	x0,x30,477	 x30:0x65eb96b4
       29615000	      2960	8000481c	c4093d97	auipc	x27,0xc4093	 x27=0x44097818
       29625000	      2961	80004820	7a767013	andi	x0,x12,1959	 x12:0xfffff407
       29635000	      2962	80004824	000ee533	or	x10,x29,x0	 x29:0x000002b8  x0:0x00000000 x10=0x000002b8
       29645000	      2963	80004828	019e9a93	slli	x21,x29,0x19	 x29:0x000002b8 x21=0x70000000
       29655000	      2964	8000482c	1312c493	xori	x9,x5,305	  x5:0x0000055c  x9=0x0000046d
       29665000	      2965	80004830	01cd46b3	xor	x13,x26,x28	 x26:0x80000000 x28:0x80009ec8 x13=0x00009ec8
       29675000	      2966	80004834	01ee9b93	slli	x23,x29,0x1e	 x29:0x000002b8 x23=0x00000000
       29685000	      2967	80004838	f4a10683	lb	x13,-182(x2)	  x2:0x80008157 x13=0x0000002a PA:0x800080a1
       29695000	      2968	8000483c	f5a119a3	sh	x26,-173(x2)	  x2:0x80008157 x26:0x80000000 PA:0x800080aa
       29705000	      2969	80004840	03e14283	lbu	x5,62(x2)	  x2:0x80008157  x5=0x00000019 PA:0x80008195
       29715000	      2970	80004844	ff014083	lbu	x1,-16(x2)	  x2:0x80008157  x1=0x0000008e PA:0x80008147
       29725000	      2971	80004848	915cb213	sltiu	x4,x25,-1771	 x25:0x00000001  x4=0x00000001
       29735000	      2972	8000484c	f5c10623	sb	x28,-180(x2)	  x2:0x80008157 x28:0x80009ec8 PA:0x800080a3
       29745000	      2973	80004850	7a967d93	andi	x27,x12,1961	 x12:0xfffff407 x27=0x00000401
       29755000	      2974	80004854	0ca14303	lbu	x6,202(x2)	  x2:0x80008157  x6=0x0000008b PA:0x80008221
       29765000	      2975	80004858	01210e83	lb	x29,18(x2)	  x2:0x80008157 x29=0x0000005a PA:0x80008169
       29775000	      2976	8000485c	0248c063	blt	x17,x4,8000487c	 x17:0x1eaab000  x4:0x00000001
       29785000	      2977	80004860	04f37663	bgeu	x6,x15,800048ac	  x6:0x0000008b x15:0x00000001
       29795000	      2978	00000000	00000013	addi	x0,x0,0	  x0:0x00000000
       29805000	      2979	800048a8	00000013	addi	x0,x0,0	  x0:0x00000000
       29815000	      2980	800048ac	006b17b3	sll	x15,x22,x6	 x22:0x0001a6c0  x6:0x0000008b x15=0x0d360000
       29825000	      2981	800048b0	41888b33	sub	x22,x17,x24	 x17:0x1eaab000 x24:0x00000000 x22=0x1eaab000
       29835000	      2982	800048b4	00db5263	bge	x22,x13,800048b8	 x22:0x1eaab000 x13:0x0000002a
       29845000	      2983	00000000	00000013	addi	x0,x0,0	  x0:0x00000000
       29855000	      2984	800048b4	00000013	addi	x0,x0,0	  x0:0x00000000
       29865000	      2985	800048b8	01d38eb3	add	x29,x7,x29	  x7:0x00000062 x29:0x0000005a x29=0x000000bc
       29875000	      2986	800048bc	05c96863	bltu	x18,x28,8000490c	 x18:0x00000001 x28:0x80009ec8
       29885000	      2987	00000000	00000013	addi	x0,x0,0	  x0:0x00000000
       29895000	      2988	80004908	00000013	addi	x0,x0,0	  x0:0x00000000
       29905000	      2989	8000490c	47777793	andi	x15,x14,1143	 x14:0xa03ad6d7 x15=0x00000457
       29915000	      2990	80004910	015b07b3	add	x15,x22,x21	 x22:0x1eaab000 x21:0x70000000 x15=0x8eaab000
       29925000	      2991	80004914	f3897093	andi	x1,x18,-200	 x18:0x00000001  x1=0x00000000
       29935000	      2992	80004918	01bb78b3	and	x17,x22,x27	 x22:0x1eaab000 x27:0x00000401 x17=0x00000000
       29945000	      2993	8000491c	03b46863	bltu	x8,x27,8000494c	  x8:0x00000030 x27:0x00000401
       29955000	      2994	00000000	00000013	addi	x0,x0,0	  x0:0x00000000
       29965000	      2995	80004948	00000013	addi	x0,x0,0	  x0:0x00000000
       29975000	      2996	8000494c	013e4a33	xor	x20,x28,x19	 x28:0x80009ec8 x19:0x48dcc6d0 x20=0xc8dc5818
       29985000	      2997	80004950	51ec6313	ori	x6,x24,1310	 x24:0x00000000  x6=0x0000051e
       29995000	      2998	80004954	01540263	beq	x8,x21,80004958	  x8:0x00000030 x21:0x70000000
       30005000	      2999	80004958	016d9663	bne	x27,x22,80004964	 x27:0x00000401 x22:0x1eaab000
       30015000	      3000	00000000	00000013	addi	x0,x0,0	  x0:0x00000000
       30025000	      3001	80004960	00000013	addi	x0,x0,0	  x0:0x00000000
       30035000	      3002	80004964	d56d98b7	lui	x17,0xd56d9	 x17=0xd56d9000
       30045000	      3003	80004968	02a38063	beq	x7,x10,80004988	  x7:0x00000062 x10:0x000002b8
       30055000	      3004	8000496c	01b95f93	srli	x31,x18,0x1b	 x18:0x00000001 x31=0x00000000
       30065000	      3005	80004970	01095b93	srli	x23,x18,0x10	 x18:0x00000001 x23=0x00000000
       30075000	      3006	80004974	01ef8bb3	add	x23,x31,x30	 x31:0x00000000 x30:0x65eb96b4 x23=0x65eb96b4
       30085000	      3007	80004978	01b99eb3	sll	x29,x19,x27	 x19:0x48dcc6d0 x27:0x00000401 x29=0x91b98da0
       30095000	      3008	8000497c	00211193	slli	x3,x2,0x2	  x2:0x80008157  x3=0x0002055c
       30105000	      3009	80004980	c979f613	andi	x12,x19,-873	 x19:0x48dcc6d0 x12=0x48dcc490
       30115000	      3010	80004984	009d4863	blt	x26,x9,80004994	 x26:0x80000000  x9:0x0000046d
       30125000	      3011	00000000	00000013	addi	x0,x0,0	  x0:0x00000000
       30135000	      3012	80004990	00000013	addi	x0,x0,0	  x0:0x00000000
       30145000	      3013	80004994	01985333	srl	x6,x16,x25	 x16:0x80009fc4 x25:0x00000001  x6=0x40004fe2
       30155000	      3014	80004998	c46d3493	sltiu	x9,x26,-954	 x26:0x80000000  x9=0x00000001
       30165000	      3015	8000499c	00000013	addi	x0,x0,0	  x0:0x00000000
       30175000	      3016	800049a0	00a75c13	srli	x24,x14,0xa	 x14:0xa03ad6d7 x24=0x00280eb5
       30185000	      3017	800049a4	00a7f2b3	and	x5,x15,x10	 x15:0x8eaab000 x10:0x000002b8  x5=0x00000000
       30195000	      3018	800049a8	01c36e63	bltu	x6,x28,800049c4	  x6:0x40004fe2 x28:0x80009ec8
       30205000	      3019	00000000	00000013	addi	x0,x0,0	  x0:0x00000000
       30215000	      3020	800049c0	00000013	addi	x0,x0,0	  x0:0x00000000
       30225000	      3021	800049c4	00851713	slli	x14,x10,0x8	 x10:0x000002b8 x14=0x0002b800
       30235000	      3022	800049c8	c3628a93	addi	x21,x5,-970	  x5:0x00000000 x21=0xfffffc36
       30245000	      3023	800049cc	00fdc633	xor	x12,x27,x15	 x27:0x00000401 x15:0x8eaab000 x12=0x8eaab401
       30255000	      3024	800049d0	0037c733	xor	x14,x15,x3	 x15:0x8eaab000  x3:0x0002055c x14=0x8ea8b55c
       30265000	      3025	800049d4	40e25eb3	sra	x29,x4,x14	  x4:0x00000001 x14:0x8ea8b55c x29=0x00000000
       30275000	      3026	800049d8	10f0e913	ori	x18,x1,271	  x1:0x00000000 x18=0x0000010f
       30285000	      3027	800049dc	016a1933	sll	x18,x20,x22	 x20:0xc8dc5818 x22:0x1eaab000 x18=0xc8dc5818
       30295000	      3028	800049e0	2d2fdf97	auipc	x31,0x2d2fd	 x31=0xad3019dc
       30305000	      3029	800049e4	30bb3a97	auipc	x21,0x30bb3	 x21=0xb0bb79e0
       30315000	      3030	800049e8	0014c633	xor	x12,x9,x1	  x9:0x00000001  x1:0x00000000 x12=0x00000001
       30325000	      3031	800049ec	1908b793	sltiu	x15,x17,400	 x17:0xd56d9000 x15=0x00000000
       30335000	      3032	800049f0	bbeb44b7	lui	x9,0xbbeb4	  x9=0xbbeb4000
       30345000	      3033	800049f4	72a2a193	slti	x3,x5,1834	  x5:0x00000000  x3=0x00000001
       30355000	      3034	800049f8	971b6b13	ori	x22,x22,-1679	 x22:0x1eaab000 x22=0xfffff971
       30365000	      3035	800049fc	00358863	beq	x11,x3,80004a0c	 x11:0x00000001  x3:0x00000001
       30375000	      3036	00000000	00000013	addi	x0,x0,0	  x0:0x00000000
       30385000	      3037	80004a08	00000013	addi	x0,x0,0	  x0:0x00000000
       30395000	      3038	80004a0c	41ec5493	srai	x9,x24,0x1e	 x24:0x00280eb5  x9=0x00000000
       30405000	      3039	80004a10	01c6fbb3	and	x23,x13,x28	 x13:0x0000002a x28:0x80009ec8 x23=0x00000008
       30415000	      3040	80004a14	03cf6a63	bltu	x30,x28,80004a48	 x30:0x65eb96b4 x28:0x80009ec8
       30425000	      3041	00000000	00000013	addi	x0,x0,0	  x0:0x00000000
       30435000	      3042	80004a44	00000013	addi	x0,x0,0	  x0:0x00000000
       30445000	      3043	80004a48	906a6313	ori	x6,x20,-1786	 x20:0xc8dc5818  x6=0xfffff91e
       30455000	      3044	80004a4c	0160b7b3	sltu	x15,x1,x22	  x1:0x00000000 x22:0xfffff971 x15=0x00000001
       30465000	      3045	80004a50	83522513	slti	x10,x4,-1995	  x4:0x00000001 x10=0x00000000
       30475000	      3046	80004a54	0542e263	bltu	x5,x20,80004a98	  x5:0x00000000 x20:0xc8dc5818
       30485000	      3047	00000000	00000013	addi	x0,x0,0	  x0:0x00000000
       30495000	      3048	80004a94	00000013	addi	x0,x0,0	  x0:0x00000000
       30505000	      3049	80004a98	01caf7b3	and	x15,x21,x28	 x21:0xb0bb79e0 x28:0x80009ec8 x15=0x800018c0
       30515000	      3050	80004a9c	34e02db7	lui	x27,0x34e02	 x27=0x34e02000
       30525000	      3051	80004aa0	009aeab3	or	x21,x21,x9	 x21:0xb0bb79e0  x9:0x00000000 x21=0xb0bb79e0
       30535000	      3052	80004aa4	998b6a93	ori	x21,x22,-1640	 x22:0xfffff971 x21=0xfffff9f9
       30545000	      3053	80004aa8	01df5693	srli	x13,x30,0x1d	 x30:0x65eb96b4 x13=0x00000003
       30555000	      3054	80004aac	00000013	addi	x0,x0,0	  x0:0x00000000
       30565000	      3055	80004ab0	00000013	addi	x0,x0,0	  x0:0x00000000
       30575000	      3056	80004ab4	00000013	addi	x0,x0,0	  x0:0x00000000
       30585000	      3057	80004ab8	03a1c063	blt	x3,x26,80004ad8	  x3:0x00000001 x26:0x80000000
       30595000	      3058	80004abc	41cb5db3	sra	x27,x22,x28	 x22:0xfffff971 x28:0x80009ec8 x27=0xfffffff9
       30605000	      3059	80004ac0	01cc3033	sltu	x0,x24,x28	 x24:0x00280eb5 x28:0x80009ec8
       30615000	      3060	80004ac4	009e4e63	blt	x28,x9,80004ae0	 x28:0x80009ec8  x9:0x00000000
       30625000	      3061	00000000	00000013	addi	x0,x0,0	  x0:0x00000000
       30635000	      3062	80004adc	00000013	addi	x0,x0,0	  x0:0x00000000
       30645000	      3063	80004ae0	8015a313	slti	x6,x11,-2047	 x11:0x00000001  x6=0x00000000
       30655000	      3064	80004ae4	40c75413	srai	x8,x14,0xc	 x14:0x8ea8b55c  x8=0xfff8ea8b
       30665000	      3065	80004ae8	00000013	addi	x0,x0,0	  x0:0x00000000
       30675000	      3066	80004aec	01548233	add	x4,x9,x21	  x9:0x00000000 x21:0xfffff9f9  x4=0xfffff9f9
       30685000	      3067	80004af0	0038e4b3	or	x9,x17,x3	 x17:0xd56d9000  x3:0x00000001  x9=0xd56d9001
       30695000	      3068	80004af4	00b8b733	sltu	x14,x17,x11	 x17:0xd56d9000 x11:0x00000001 x14=0x00000000
       30705000	      3069	80004af8	0164f3b3	and	x7,x9,x22	  x9:0xd56d9001 x22:0xfffff971  x7=0xd56d9001
       30715000	      3070	80004afc	7e70b9b7	lui	x19,0x7e70b	 x19=0x7e70b000
       30725000	      3071	80004b00	00baa533	slt	x10,x21,x11	 x21:0xfffff9f9 x11:0x00000001 x10=0x00000001
       30735000	      3072	80004b04	00b61993	slli	x19,x12,0xb	 x12:0x00000001 x19=0x00000800
       30745000	      3073	80004b08	ec604db7	lui	x27,0xec604	 x27=0xec604000
       30755000	      3074	80004b0c	c20a7193	andi	x3,x20,-992	 x20:0xc8dc5818  x3=0xc8dc5800
       30765000	      3075	80004b10	00ebdb13	srli	x22,x23,0xe	 x23:0x00000008 x22=0x00000000
       30775000	      3076	80004b14	00e6d313	srli	x6,x13,0xe	 x13:0x00000003  x6=0x00000000
       30785000	      3077	80004b18	38242e93	slti	x29,x8,898	  x8:0xfff8ea8b x29=0x00000001
       30795000	      3078	80004b1c	006e6f33	or	x30,x28,x6	 x28:0x80009ec8  x6:0x00000000 x30=0x80009ec8
       30805000	      3079	80004b20	0158d413	srli	x8,x17,0x15	 x17:0xd56d9000  x8=0x000006ab
       30815000	      3080	80004b24	01acf6b3	and	x13,x25,x26	 x25:0x00000001 x26:0x80000000 x13=0x00000000
       30825000	      3081	80004b28	04537063	bgeu	x6,x5,80004b68	  x6:0x00000000  x5:0x00000000
       30835000	      3082	00000000	00000013	addi	x0,x0,0	  x0:0x00000000
       30845000	      3083	80004b64	00000013	addi	x0,x0,0	  x0:0x00000000
       30855000	      3084	80004b68	22592893	slti	x17,x18,549	 x18:0xc8dc5818 x17=0x00000001
       30865000	      3085	80004b6c	00000013	addi	x0,x0,0	  x0:0x00000000
       30875000	      3086	80004b70	01ab1f93	slli	x31,x22,0x1a	 x22:0x00000000 x31=0x00000000
       30885000	      3087	80004b74	0153d493	srli	x9,x7,0x15	  x7:0xd56d9001  x9=0x000006ab
       30895000	      3088	80004b78	00a868b3	or	x17,x16,x10	 x16:0x80009fc4 x10:0x00000001 x17=0x80009fc5
       30905000	      3089	80004b7c	0075e4b3	or	x9,x11,x7	 x11:0x00000001  x7:0xd56d9001  x9=0xd56d9001
       30915000	      3090	80004b80	03909e63	bne	x1,x25,80004bbc	  x1:0x00000000 x25:0x00000001
       30925000	      3091	00000000	00000013	addi	x0,x0,0	  x0:0x00000000
       30935000	      3092	80004bb8	00000013	addi	x0,x0,0	  x0:0x00000000
       30945000	      3093	80004bbc	01952a33	slt	x20,x10,x25	 x10:0x00000001 x25:0x00000001 x20=0x00000000
       30955000	      3094	80004bc0	7a778f13	addi	x30,x15,1959	 x15:0x800018c0 x30=0x80002067
       30965000	      3095	80004bc4	00d091b3	sll	x3,x1,x13	  x1:0x00000000 x13:0x00000000  x3=0x00000000
       30975000	      3096	80004bc8	0001e863	bltu	x3,x0,80004bd8	  x3:0x00000000  x0:0x00000000
       30985000	      3097	80004bcc	48c73213	sltiu	x4,x14,1164	 x14:0x00000000  x4=0x00000001
       30995000	      3098	80004bd0	f6fa7093	andi	x1,x20,-145	 x20:0x00000000  x1=0x00000000
       31005000	      3099	80004bd4	97f5b597	auipc	x11,0x97f5b	 x11=0x17f5fbd0
       31015000	      3100	80004bd8	017c9413	slli	x8,x25,0x17	 x25:0x00000001  x8=0x00800000
       31025000	      3101	80004bdc	86b7c113	xori	x2,x15,-1941	 x15:0x800018c0  x2=0x7fffe0ab
       31035000	      3102	80004be0	05878663	beq	x15,x24,80004c2c	 x15:0x800018c0 x24:0x00280eb5
       31045000	      3103	80004be4	01881bb3	sll	x23,x16,x24	 x16:0x80009fc4 x24:0x00280eb5 x23=0xf8800000
       31055000	      3104	80004be8	00fcfc33	and	x24,x25,x15	 x25:0x00000001 x15:0x800018c0 x24=0x00000000
       31065000	      3105	80004bec	0011dc33	srl	x24,x3,x1	  x3:0x00000000  x1:0x00000000 x24=0x00000000
       31075000	      3106	80004bf0	03776e63	bltu	x14,x23,80004c2c	 x14:0x00000000 x23:0xf8800000
       31085000	      3107	00000000	00000013	addi	x0,x0,0	  x0:0x00000000
       31095000	      3108	80004c28	00000013	addi	x0,x0,0	  x0:0x00000000
       31105000	      3109	80004c2c	00a77263	bgeu	x14,x10,80004c30	 x14:0x00000000 x10:0x00000001
       31115000	      3110	80004c30	01d9aeb3	slt	x29,x19,x29	 x19:0x00000800 x29:0x00000001 x29=0x00000000
       31125000	      3111	80004c34	01675a33	srl	x20,x14,x22	 x14:0x00000000 x22:0x00000000 x20=0x00000000
       31135000	      3112	80004c38	0012a7b3	slt	x15,x5,x1	  x5:0x00000000  x1:0x00000000 x15=0x00000000
       31145000	      3113	80004c3c	05cc6063	bltu	x24,x28,80004c7c	 x24:0x00000000 x28:0x80009ec8
       31155000	      3114	00000000	00000013	addi	x0,x0,0	  x0:0x00000000
       31165000	      3115	80004c78	00000013	addi	x0,x0,0	  x0:0x00000000
       31175000	      3116	80004c7c	7245e413	ori	x8,x11,1828	 x11:0x17f5fbd0  x8=0x17f5fff4
       31185000	      3117	80004c80	409bdb13	srai	x22,x23,0x9	 x23:0xf8800000 x22=0xfffc4000
       31195000	      3118	80004c84	005a7fb3	and	x31,x20,x5	 x20:0x00000000  x5:0x00000000 x31=0x00000000
       31205000	      3119	80004c88	00a968b3	or	x17,x18,x10	 x18:0xc8dc5818 x10:0x00000001 x17=0xc8dc5819
       31215000	      3120	80004c8c	0172ea33	or	x20,x5,x23	  x5:0x00000000 x23:0xf8800000 x20=0xf8800000
       31225000	      3121	80004c90	53cf5437	lui	x8,0x53cf5	  x8=0x53cf5000
       31235000	      3122	80004c94	53218f17	auipc	x30,0x53218	 x30=0xd321cc90
       31245000	      3123	80004c98	02c2f063	bgeu	x5,x12,80004cb8	  x5:0x00000000 x12:0x00000001
       31255000	      3124	80004c9c	41c38933	sub	x18,x7,x28	  x7:0xd56d9001 x28:0x80009ec8 x18=0x556cf139
       31265000	      3125	80004ca0	79a36193	ori	x3,x6,1946	  x6:0x00000000  x3=0x0000079a
       31275000	      3126	80004ca4	17cfe293	ori	x5,x31,380	 x31:0x00000000  x5=0x0000017c
       31285000	      3127	80004ca8	0188a633	slt	x12,x17,x24	 x17:0xc8dc5819 x24:0x00000000 x12=0x00000001
       31295000	      3128	80004cac	2e768213	addi	x4,x13,743	 x13:0x00000000  x4=0x000002e7
       31305000	      3129	80004cb0	d7a6be93	sltiu	x29,x13,-646	 x13:0x00000000 x29=0x00000001
       31315000	      3130	80004cb4	01077933	and	x18,x14,x16	 x14:0x00000000 x16:0x80009fc4 x18=0x00000000
       31325000	      3131	80004cb8	01e9fdb3	and	x27,x19,x30	 x19:0x00000800 x30:0xd321cc90 x27=0x00000800
       31335000	      3132	80004cbc	62c24013	xori	x0,x4,1580	  x4:0x000002e7
       31345000	      3133	80004cc0	00e44ab3	xor	x21,x8,x14	  x8:0x53cf5000 x14:0x00000000 x21=0x53cf5000
       31355000	      3134	80004cc4	00760533	add	x10,x12,x7	 x12:0x00000001  x7:0xd56d9001 x10=0xd56d9002
       31365000	      3135	80004cc8	00000013	addi	x0,x0,0	  x0:0x00000000
       31375000	      3136	80004ccc	32775797	auipc	x15,0x32775	 x15=0xb2779cc8
       31385000	      3137	80004cd0	01624c33	xor	x24,x4,x22	  x4:0x000002e7 x22:0xfffc4000 x24=0xfffc42e7
       31395000	      3138	80004cd4	015321b3	slt	x3,x6,x21	  x6:0x00000000 x21:0x53cf5000  x3=0x00000001
       31405000	      3139	80004cd8	00728863	beq	x5,x7,80004ce8	  x5:0x0000017c  x7:0xd56d9001
       31415000	      3140	80004cdc	01861fb3	sll	x31,x12,x24	 x12:0x00000001 x24:0xfffc42e7 x31=0x00000080
       31425000	      3141	80004ce0	009701b3	add	x3,x14,x9	 x14:0x00000000  x9:0xd56d9001  x3=0xd56d9001
       31435000	      3142	80004ce4	40ce5713	srai	x14,x28,0xc	 x28:0x80009ec8 x14=0xfff80009
       31445000	      3143	80004ce8	01e8c3b3	xor	x7,x17,x30	 x17:0xc8dc5819 x30:0xd321cc90  x7=0x1bfd9489
       31455000	      3144	80004cec	00e68233	add	x4,x13,x14	 x13:0x00000000 x14:0xfff80009  x4=0xfff80009
       31465000	      3145	80004cf0	0112af33	slt	x30,x5,x17	  x5:0x0000017c x17:0xc8dc5819 x30=0x00000000
       31475000	      3146	80004cf4	88038393	addi	x7,x7,-1920	  x7:0x1bfd9489  x7=0x1bfd8d09
       31485000	      3147	80004cf8	01c09213	slli	x4,x1,0x1c	  x1:0x00000000  x4=0x00000000
       31495000	      3148	80004cfc	05740263	beq	x8,x23,80004d40	  x8:0x53cf5000 x23:0xf8800000
       31505000	      3149	80004d00	007a4ab3	xor	x21,x20,x7	 x20:0xf8800000  x7:0x1bfd8d09 x21=0xe37d8d09
       31515000	      3150	80004d04	03d09863	bne	x1,x29,80004d34	  x1:0x00000000 x29:0x00000001
       31525000	      3151	00000000	00000013	addi	x0,x0,0	  x0:0x00000000
       31535000	      3152	80004d30	00000013	addi	x0,x0,0	  x0:0x00000000
       31545000	      3153	80004d34	3b778417	auipc	x8,0x3b778	  x8=0xbb77cd30
       31555000	      3154	80004d38	00827eb3	and	x29,x4,x8	  x4:0x00000000  x8:0xbb77cd30 x29=0x00000000
       31565000	      3155	80004d3c	10a07413	andi	x8,x0,266	  x0:0x00000000  x8=0x00000000
       31575000	      3156	80004d40	c365fe93	andi	x29,x11,-970	 x11:0x17f5fbd0 x29=0x17f5f810
       31585000	      3157	80004d44	40cf5a93	srai	x21,x30,0xc	 x30:0x00000000 x21=0x00000000
       31595000	      3158	80004d48	e5c5a293	slti	x5,x11,-420	 x11:0x17f5fbd0  x5=0x00000000
       31605000	      3159	80004d4c	0109f133	and	x2,x19,x16	 x19:0x00000800 x16:0x80009fc4  x2=0x00000800
       31615000	      3160	80004d50	01338c33	add	x24,x7,x19	  x7:0x1bfd8d09 x19:0x00000800 x24=0x1bfd9509
       31625000	      3161	80004d54	00284433	xor	x8,x16,x2	 x16:0x80009fc4  x2:0x00000800  x8=0x800097c4
       31635000	      3162	80004d58	01bd6ab3	or	x21,x26,x27	 x26:0x80000000 x27:0x00000800 x21=0x80000800
       31645000	      3163	80004d5c	00003717	auipc	x14,0x3	 x14=0x80007d58
       31655000	      3164	80004d60	78770713	addi	x14,x14,1927	 x14:0x80007d58 x14=0x800084df
       31665000	      3165	80004d64	01deba33	sltu	x20,x29,x29	 x29:0x17f5f810 x29:0x17f5f810 x20=0x00000000
       31675000	      3166	80004d68	00324633	xor	x12,x4,x3	  x4:0x00000000  x3:0xd56d9001 x12=0xd56d9001
       31685000	      3167	80004d6c	00a713a3	sh	x10,7(x14)	 x14:0x800084df x10:0xd56d9002 PA:0x800084e6
       31695000	      3168	80004d70	00971083	lh	x1,9(x14)	 x14:0x800084df  x1=0xffffaedf PA:0x800084e8
       31705000	      3169	80004d74	ff9719a3	sh	x25,-13(x14)	 x14:0x800084df x25:0x00000001 PA:0x800084d2
       31715000	      3170	80004d78	00e74a03	lbu	x20,14(x14)	 x14:0x800084df x20=0x00000045 PA:0x800084ed
       31725000	      3171	80004d7c	86a47c93	andi	x25,x8,-1942	  x8:0x800097c4 x25=0x80009040
       31735000	      3172	80004d80	414c5333	sra	x6,x24,x20	 x24:0x1bfd9509 x20:0x00000045  x6=0x00dfeca8
       31745000	      3173	80004d84	ffd75083	lhu	x1,-3(x14)	 x14:0x800084df  x1=0x0000ea29 PA:0x800084dc
       31755000	      3174	80004d88	405d8f33	sub	x30,x27,x5	 x27:0x00000800  x5:0x00000000 x30=0x00000800
       31765000	      3175	80004d8c	01bf6333	or	x6,x30,x27	 x30:0x00000800 x27:0x00000800  x6=0x00000800
       31775000	      3176	80004d90	00775f03	lhu	x30,7(x14)	 x14:0x800084df x30=0x00009002 PA:0x800084e6
       31785000	      3177	80004d94	fef70f23	sb	x15,-2(x14)	 x14:0x800084df x15:0xb2779cc8 PA:0x800084dd
       31795000	      3178	80004d98	ffd72783	lw	x15,-3(x14)	 x14:0x800084df x15=0xaff9c829 PA:0x800084dc
       31805000	      3179	80004d9c	41745ab3	sra	x21,x8,x23	  x8:0x800097c4 x23:0xf8800000 x21=0x800097c4
       31815000	      3180	80004da0	00000013	addi	x0,x0,0	  x0:0x00000000
       31825000	      3181	80004da4	ff270a83	lb	x21,-14(x14)	 x14:0x800084df x21=0xffffffff PA:0x800084d1
       31835000	      3182	80004da8	00ef6433	or	x8,x30,x14	 x30:0x00009002 x14:0x800084df  x8=0x800094df
       31845000	      3183	80004dac	ff474403	lbu	x8,-12(x14)	 x14:0x800084df  x8=0x00000000 PA:0x800084d3
       31855000	      3184	80004db0	f7f07237	lui	x4,0xf7f07	  x4=0xf7f07000
       31865000	      3185	80004db4	ffa70203	lb	x4,-6(x14)	 x14:0x800084df  x4=0xffffff8f PA:0x800084d9
       31875000	      3186	80004db8	01491313	slli	x6,x18,0x14	 x18:0x00000000  x6=0x00000000
       31885000	      3187	80004dbc	64701b97	auipc	x23,0x64701	 x23=0xe4705db8
       31895000	      3188	80004dc0	01550133	add	x2,x10,x21	 x10:0xd56d9002 x21:0xffffffff  x2=0xd56d9001
       31905000	      3189	80004dc4	01af2333	slt	x6,x30,x26	 x30:0x00009002 x26:0x80000000  x6=0x00000000
       31915000	      3190	80004dc8	010305b3	add	x11,x6,x16	  x6:0x00000000 x16:0x80009fc4 x11=0x80009fc4
       31925000	      3191	80004dcc	4ca23313	sltiu	x6,x4,1226	  x4:0xffffff8f  x6=0x00000000
       31935000	      3192	80004dd0	fafb6893	ori	x17,x22,-81	 x22:0xfffc4000 x17=0xffffffaf
       31945000	      3193	80004dd4	4a9ea213	slti	x4,x29,1193	 x29:0x17f5f810  x4=0x00000000
       31955000	      3194	80004dd8	ff771c03	lh	x24,-9(x14)	 x14:0x800084df x24=0x000000d3 PA:0x800084d6
       31965000	      3195	80004ddc	000b1b93	slli	x23,x22,0x0	 x22:0xfffc4000 x23=0xfffc4000
       31975000	      3196	80004de0	00470183	lb	x3,4(x14)	 x14:0x800084df  x3=0xffffff9a PA:0x800084e3
       31985000	      3197	80004de4	006e60b3	or	x1,x28,x6	 x28:0x80009ec8  x6:0x00000000  x1=0x80009ec8
       31995000	      3198	80004de8	0130d293	srli	x5,x1,0x13	  x1:0x80009ec8  x5=0x00001000
       32005000	      3199	80004dec	ff172f03	lw	x30,-15(x14)	 x14:0x800084df x30=0x0001ffda PA:0x800084d0
       32015000	      3200	80004df0	04e31663	bne	x6,x14,80004e3c	  x6:0x00000000 x14:0x800084df
       32025000	      3201	00000000	00000013	addi	x0,x0,0	  x0:0x00000000
       32035000	      3202	80004e38	00000013	addi	x0,x0,0	  x0:0x00000000
       32045000	      3203	80004e3c	9c203893	sltiu	x17,x0,-1598	  x0:0x00000000 x17=0x00000001
       32055000	      3204	80004e40	2179aa13	slti	x20,x19,535	 x19:0x00000800 x20=0x00000000
       32065000	      3205	80004e44	d3e84f13	xori	x30,x16,-706	 x16:0x80009fc4 x30=0x7fff62fa
       32075000	      3206	80004e48	41195793	srai	x15,x18,0x11	 x18:0x00000000 x15=0x00000000
       32085000	      3207	80004e4c	002641b3	xor	x3,x12,x2	 x12:0xd56d9001  x2:0xd56d9001  x3=0x00000000
       32095000	      3208	80004e50	01cb2233	slt	x4,x22,x28	 x22:0xfffc4000 x28:0x80009ec8  x4=0x00000000
       32105000	      3209	80004e54	01e35313	srli	x6,x6,0x1e	  x6:0x00000000  x6=0x00000000
       32115000	      3210	80004e58	00b1bdb3	sltu	x27,x3,x11	  x3:0x00000000 x11:0x80009fc4 x27=0x00000001
       32125000	      3211	80004e5c	406f8933	sub	x18,x31,x6	 x31:0x00000080  x6:0x00000000 x18=0x00000080
       32135000	      3212	80004e60	00133c33	sltu	x24,x6,x1	  x6:0x00000000  x1:0x80009ec8 x24=0x00000001
       32145000	      3213	80004e64	005b1713	slli	x14,x22,0x5	 x22:0xfffc4000 x14=0xff880000
       32155000	      3214	80004e68	f65c3b93	sltiu	x23,x24,-155	 x24:0x00000001 x23=0x00000001
       32165000	      3215	80004e6c	01055d93	srli	x27,x10,0x10	 x10:0xd56d9002 x27=0x0000d56d
       32175000	      3216	80004e70	04c4fe93	andi	x29,x9,76	  x9:0xd56d9001 x29=0x00000000
       32185000	      3217	80004e74	78204393	xori	x7,x0,1922	  x0:0x00000000  x7=0x00000782
       32195000	      3218	80004e78	98413a13	sltiu	x20,x2,-1660	  x2:0xd56d9001 x20=0x00000001
       32205000	      3219	80004e7c	2249b437	lui	x8,0x2249b	  x8=0x2249b000
       32215000	      3220	80004e80	01555a13	srli	x20,x10,0x15	 x10:0xd56d9002 x20=0x000006ab
       32225000	      3221	80004e84	41f7df13	srai	x30,x15,0x1f	 x15:0x00000000 x30=0x00000000
       32235000	      3222	80004e88	01aacab3	xor	x21,x21,x26	 x21:0xffffffff x26:0x80000000 x21=0x7fffffff
       32245000	      3223	80004e8c	0234ea63	bltu	x9,x3,80004ec0	  x9:0xd56d9001  x3:0x00000000
       32255000	      3224	80004e90	5323ba13	sltiu	x20,x7,1330	  x7:0x00000782 x20=0x00000000
       32265000	      3225	80004e94	00efaab3	slt	x21,x31,x14	 x31:0x00000080 x14:0xff880000 x21=0x00000000
       32275000	      3226	80004e98	01a07263	bgeu	x0,x26,80004e9c	  x0:0x00000000 x26:0x80000000
       32285000	      3227	80004e9c	03244063	blt	x8,x18,80004ebc	  x8:0x2249b000 x18:0x00000080
       32295000	      3228	80004ea0	00179513	slli	x10,x15,0x1	 x15:0x00000000 x10=0x00000000
       32305000	      3229	80004ea4	0140cdb3	xor	x27,x1,x20	  x1:0x80009ec8 x20:0x00000000 x27=0x80009ec8
       32315000	      3230	80004ea8	00f6c2b3	xor	x5,x13,x15	 x13:0x00000000 x15:0x00000000  x5=0x00000000
       32325000	      3231	80004eac	016c8263	beq	x25,x22,80004eb0	 x25:0x80009040 x22:0xfffc4000
       32335000	      3232	80004eb0	03b09063	bne	x1,x27,80004ed0	  x1:0x80009ec8 x27:0x80009ec8
       32345000	      3233	80004eb4	046d8063	beq	x27,x6,80004ef4	 x27:0x80009ec8  x6:0x00000000
       32355000	      3234	80004eb8	b689e593	ori	x11,x19,-1176	 x19:0x00000800 x11=0xfffffb68
       32365000	      3235	80004ebc	02ad7e63	bgeu	x26,x10,80004ef8	 x26:0x80000000 x10:0x00000000
       32375000	      3236	00000000	00000013	addi	x0,x0,0	  x0:0x00000000
       32385000	      3237	80004ef4	00000013	addi	x0,x0,0	  x0:0x00000000
       32395000	      3238	80004ef8	01729493	slli	x9,x5,0x17	  x5:0x00000000  x9=0x00000000
       32405000	      3239	80004efc	04a48063	beq	x9,x10,80004f3c	  x9:0x00000000 x10:0x00000000
       32415000	      3240	00000000	00000013	addi	x0,x0,0	  x0:0x00000000
       32425000	      3241	80004f38	00000013	addi	x0,x0,0	  x0:0x00000000
       32435000	      3242	80004f3c	002095b3	sll	x11,x1,x2	  x1:0x80009ec8  x2:0xd56d9001 x11=0x00013d90
       32445000	      3243	80004f40	00000013	addi	x0,x0,0	  x0:0x00000000
       32455000	      3244	80004f44	47d6cc13	xori	x24,x13,1149	 x13:0x00000000 x24=0x0000047d
       32465000	      3245	80004f48	015a5a63	bge	x20,x21,80004f5c	 x20:0x00000000 x21:0x00000000
       32475000	      3246	00000000	00000013	addi	x0,x0,0	  x0:0x00000000
       32485000	      3247	80004f58	00000013	addi	x0,x0,0	  x0:0x00000000
       32495000	      3248	80004f5c	b2e23a93	sltiu	x21,x4,-1234	  x4:0x00000000 x21=0x00000001
       32505000	      3249	80004f60	018867b3	or	x15,x16,x24	 x16:0x80009fc4 x24:0x0000047d x15=0x80009ffd
       32515000	      3250	80004f64	018174b3	and	x9,x2,x24	  x2:0xd56d9001 x24:0x0000047d  x9=0x00000001
       32525000	      3251	80004f68	01ad93b3	sll	x7,x27,x26	 x27:0x80009ec8 x26:0x80000000  x7=0x80009ec8
       32535000	      3252	80004f6c	cf6efe93	andi	x29,x29,-778	 x29:0x00000000 x29=0x00000000
       32545000	      3253	80004f70	b1ee7493	andi	x9,x28,-1250	 x28:0x80009ec8  x9=0x80009a08
       32555000	      3254	80004f74	0344d263	bge	x9,x20,80004f98	  x9:0x80009a08 x20:0x00000000
       32565000	      3255	80004f78	01973cb3	sltu	x25,x14,x25	 x14:0xff880000 x25:0x80009040 x25=0x00000000
       32575000	      3256	80004f7c	00005663	bge	x0,x0,80004f88	  x0:0x00000000  x0:0x00000000
       32585000	      3257	00000000	00000013	addi	x0,x0,0	  x0:0x00000000
       32595000	      3258	80004f84	00000013	addi	x0,x0,0	  x0:0x00000000
       32605000	      3259	80004f88	00000013	addi	x0,x0,0	  x0:0x00000000
       32615000	      3260	80004f8c	9bc60693	addi	x13,x12,-1604	 x12:0xd56d9001 x13=0xd56d89bd
       32625000	      3261	80004f90	02398063	beq	x19,x3,80004fb0	 x19:0x00000800  x3:0x00000000
       32635000	      3262	80004f94	012e06b3	add	x13,x28,x18	 x28:0x80009ec8 x18:0x00000080 x13=0x80009f48
       32645000	      3263	80004f98	04b31663	bne	x6,x11,80004fe4	  x6:0x00000000 x11:0x00013d90
       32655000	      3264	00000000	00000013	addi	x0,x0,0	  x0:0x00000000
       32665000	      3265	80004fe0	00000013	addi	x0,x0,0	  x0:0x00000000
       32675000	      3266	80004fe4	cc0d3f93	sltiu	x31,x26,-832	 x26:0x80000000 x31=0x00000001
       32685000	      3267	80004fe8	6488a1b7	lui	x3,0x6488a	  x3=0x6488a000
       32695000	      3268	80004fec	015c26b3	slt	x13,x24,x21	 x24:0x0000047d x21:0x00000001 x13=0x00000000
       32705000	      3269	80004ff0	5da65297	auipc	x5,0x5da65	  x5=0xdda69fec
       32715000	      3270	80004ff4	01601b93	slli	x23,x0,0x16	  x0:0x00000000 x23=0x00000000
       32725000	      3271	80004ff8	b4030513	addi	x10,x6,-1216	  x6:0x00000000 x10=0xfffffb40
       32735000	      3272	80004ffc	01a67f33	and	x30,x12,x26	 x12:0xd56d9001 x26:0x80000000 x30=0x80000000
       32745000	      3273	80005000	004d1493	slli	x9,x26,0x4	 x26:0x80000000  x9=0x00000000
       32755000	      3274	80005004	41d3d193	srai	x3,x7,0x1d	  x7:0x80009ec8  x3=0xfffffffc
       32765000	      3275	80005008	00951663	bne	x10,x9,80005014	 x10:0xfffffb40  x9:0x00000000
       32775000	      3276	00000000	00000013	addi	x0,x0,0	  x0:0x00000000
       32785000	      3277	80005010	00000013	addi	x0,x0,0	  x0:0x00000000
       32795000	      3278	80005014	41010033	sub	x0,x2,x16	  x2:0xd56d9001 x16:0x80009fc4
       32805000	      3279	80005018	00447433	and	x8,x8,x4	  x8:0x2249b000  x4:0x00000000  x8=0x00000000
       32815000	      3280	8000501c	0144c263	blt	x9,x20,80005020	  x9:0x00000000 x20:0x00000000
       32825000	      3281	80005020	00801933	sll	x18,x0,x8	  x0:0x00000000  x8:0x00000000 x18=0x00000000
       32835000	      3282	80005024	00d86663	bltu	x16,x13,80005030	 x16:0x80009fc4 x13:0x00000000
       32845000	      3283	80005028	40d3d993	srai	x19,x7,0xd	  x7:0x80009ec8 x19=0xfffc0004
       32855000	      3284	8000502c	02585e63	bge	x16,x5,80005068	 x16:0x80009fc4  x5:0xdda69fec
       32865000	      3285	80005030	41698633	sub	x12,x19,x22	 x19:0xfffc0004 x22:0xfffc4000 x12=0xffffc004
       32875000	      3286	80005034	002de0b3	or	x1,x27,x2	 x27:0x80009ec8  x2:0xd56d9001  x1=0xd56d9ec9
       32885000	      3287	80005038	40340a33	sub	x20,x8,x3	  x8:0x00000000  x3:0xfffffffc x20=0x00000004
       32895000	      3288	8000503c	15527d93	andi	x27,x4,341	  x4:0x00000000 x27=0x00000000
       32905000	      3289	80005040	c8c1e917	auipc	x18,0xc8c1e	 x18=0x48c2303c
       32915000	      3290	80005044	00000013	addi	x0,x0,0	  x0:0x00000000
       32925000	      3291	80005048	017575b3	and	x11,x10,x23	 x10:0xfffffb40 x23:0x00000000 x11=0x00000000
       32935000	      3292	8000504c	40f6d593	srai	x11,x13,0xf	 x13:0x00000000 x11=0x00000000
       32945000	      3293	80005050	9c452c13	slti	x24,x10,-1596	 x10:0xfffffb40 x24=0x00000000
       32955000	      3294	80005054	00d45193	srli	x3,x8,0xd	  x8:0x00000000  x3=0x00000000
       32965000	      3295	80005058	caa8c793	xori	x15,x17,-854	 x17:0x00000001 x15=0xfffffcab
       32975000	      3296	8000505c	407504b3	sub	x9,x10,x7	 x10:0xfffffb40  x7:0x80009ec8  x9=0x7fff5c78
       32985000	      3297	80005060	019f0433	add	x8,x30,x25	 x30:0x80000000 x25:0x00000000  x8=0x80000000
       32995000	      3298	80005064	94cb7593	andi	x11,x22,-1716	 x22:0xfffc4000 x11=0xfffc4000
       33005000	      3299	80005068	043fe063	bltu	x31,x3,800050a8	 x31:0x00000001  x3:0x00000000
       33015000	      3300	8000506c	419102b3	sub	x5,x2,x25	  x2:0xd56d9001 x25:0x00000000  x5=0xd56d9001
       33025000	      3301	80005070	005c5513	srli	x10,x24,0x5	 x24:0x00000000 x10=0x00000000
       33035000	      3302	80005074	3a3a9d97	auipc	x27,0x3a3a9	 x27=0xba3ae070
       33045000	      3303	80005078	407ed893	srai	x17,x29,0x7	 x29:0x00000000 x17=0x00000000
       33055000	      3304	8000507c	acd50613	addi	x12,x10,-1331	 x10:0x00000000 x12=0xfffffacd
       33065000	      3305	80005080	01de9313	slli	x6,x29,0x1d	 x29:0x00000000  x6=0x00000000
       33075000	      3306	80005084	d8f0e213	ori	x4,x1,-625	  x1:0xd56d9ec9  x4=0xffffffcf
       33085000	      3307	80005088	01400033	add	x0,x0,x20	  x0:0x00000000 x20:0x00000004
       33095000	      3308	8000508c	00717233	and	x4,x2,x7	  x2:0xd56d9001  x7:0x80009ec8  x4=0x80009000
       33105000	      3309	80005090	02c6c063	blt	x13,x12,800050b0	 x13:0x00000000 x12:0xfffffacd
       33115000	      3310	80005094	7b05c513	xori	x10,x11,1968	 x11:0xfffc4000 x10=0xfffc47b0
       33125000	      3311	80005098	03431063	bne	x6,x20,800050b8	  x6:0x00000000 x20:0x00000004
       33135000	      3312	00000000	00000013	addi	x0,x0,0	  x0:0x00000000
       33145000	      3313	800050b4	00000013	addi	x0,x0,0	  x0:0x00000000
       33155000	      3314	800050b8	0127a633	slt	x12,x15,x18	 x15:0xfffffcab x18:0x48c2303c x12=0x00000001
       33165000	      3315	800050bc	f471e893	ori	x17,x3,-185	  x3:0x00000000 x17=0xffffff47
       33175000	      3316	800050c0	00acb033	sltu	x0,x25,x10	 x25:0x00000000 x10:0xfffc47b0
       33185000	      3317	800050c4	00aafc63	bgeu	x21,x10,800050dc	 x21:0x00000001 x10:0xfffc47b0
       33195000	      3318	800050c8	03c96e63	bltu	x18,x28,80005104	 x18:0x48c2303c x28:0x80009ec8
       33205000	      3319	00000000	00000013	addi	x0,x0,0	  x0:0x00000000
       33215000	      3320	80005100	00000013	addi	x0,x0,0	  x0:0x00000000
       33225000	      3321	80005104	002af5b3	and	x11,x21,x2	 x21:0x00000001  x2:0xd56d9001 x11=0x00000001
       33235000	      3322	80005108	019d5ab3	srl	x21,x26,x25	 x26:0x80000000 x25:0x00000000 x21=0x80000000
       33245000	      3323	8000510c	040b7863	bgeu	x22,x0,8000515c	 x22:0xfffc4000  x0:0x00000000
       33255000	      3324	00000000	00000013	addi	x0,x0,0	  x0:0x00000000
       33265000	      3325	80005158	00000013	addi	x0,x0,0	  x0:0x00000000
       33275000	      3326	8000515c	01dee863	bltu	x29,x29,8000516c	 x29:0x00000000 x29:0x00000000
       33285000	      3327	80005160	58598313	addi	x6,x19,1413	 x19:0xfffc0004  x6=0xfffc0589
       33295000	      3328	80005164	fe69c8b7	lui	x17,0xfe69c	 x17=0xfe69c000
       33305000	      3329	80005168	9c0ec997	auipc	x19,0x9c0ec	 x19=0x1c0f1164
       33315000	      3330	8000516c	74a6f513	andi	x10,x13,1866	 x13:0x00000000 x10=0x00000000
       33325000	      3331	80005170	05454663	blt	x10,x20,800051bc	 x10:0x00000000 x20:0x00000004
       33335000	      3332	00000000	00000013	addi	x0,x0,0	  x0:0x00000000
       33345000	      3333	800051b8	00000013	addi	x0,x0,0	  x0:0x00000000
       33355000	      3334	800051bc	18c3ef93	ori	x31,x7,396	  x7:0x80009ec8 x31=0x80009fcc
       33365000	      3335	800051c0	04037063	bgeu	x6,x0,80005200	  x6:0xfffc0589  x0:0x00000000
       33375000	      3336	00000000	00000013	addi	x0,x0,0	  x0:0x00000000
       33385000	      3337	800051fc	00000013	addi	x0,x0,0	  x0:0x00000000
       33395000	      3338	80005200	00b51893	slli	x17,x10,0xb	 x10:0x00000000 x17=0x00000000
       33405000	      3339	80005204	00000013	addi	x0,x0,0	  x0:0x00000000
       33415000	      3340	80005208	0339de63	bge	x19,x19,80005244	 x19:0x1c0f1164 x19:0x1c0f1164
       33425000	      3341	00000000	00000013	addi	x0,x0,0	  x0:0x00000000
       33435000	      3342	80005240	00000013	addi	x0,x0,0	  x0:0x00000000
       33445000	      3343	80005244	9ead0913	addi	x18,x26,-1558	 x26:0x80000000 x18=0x7ffff9ea
       33455000	      3344	80005248	0025c3b3	xor	x7,x11,x2	 x11:0x00000001  x2:0xd56d9001  x7=0xd56d9000
       33465000	      3345	8000524c	00a99013	slli	x0,x19,0xa	 x19:0x1c0f1164
       33475000	      3346	80005250	4c729c37	lui	x24,0x4c729	 x24=0x4c729000
       33485000	      3347	80005254	41b209b3	sub	x19,x4,x27	  x4:0x80009000 x27:0xba3ae070 x19=0xc5c5af90
       33495000	      3348	80005258	01bcbab3	sltu	x21,x25,x27	 x25:0x00000000 x27:0xba3ae070 x21=0x00000001
       33505000	      3349	8000525c	013c9c13	slli	x24,x25,0x13	 x25:0x00000000 x24=0x00000000
       33515000	      3350	80005260	0411e263	bltu	x3,x1,800052a4	  x3:0x00000000  x1:0xd56d9ec9
       33525000	      3351	00000000	00000013	addi	x0,x0,0	  x0:0x00000000
       33535000	      3352	800052a0	00000013	addi	x0,x0,0	  x0:0x00000000
       33545000	      3353	800052a4	034e4e63	blt	x28,x20,800052e0	 x28:0x80009ec8 x20:0x00000004
       33555000	      3354	00000000	00000013	addi	x0,x0,0	  x0:0x00000000
       33565000	      3355	800052dc	00000013	addi	x0,x0,0	  x0:0x00000000
       33575000	      3356	800052e0	0091fc33	and	x24,x3,x9	  x3:0x00000000  x9:0x7fff5c78 x24=0x00000000
       33585000	      3357	800052e4	0016b333	sltu	x6,x13,x1	 x13:0x00000000  x1:0xd56d9ec9  x6=0x00000001
       33595000	      3358	800052e8	40b986b3	sub	x13,x19,x11	 x19:0xc5c5af90 x11:0x00000001 x13=0xc5c5af8f
       33605000	      3359	800052ec	02dd0263	beq	x26,x13,80005310	 x26:0x80000000 x13:0xc5c5af8f
       33615000	      3360	800052f0	00389a13	slli	x20,x17,0x3	 x17:0x00000000 x20=0x00000000
       33625000	      3361	800052f4	6d820093	addi	x1,x4,1752	  x4:0x80009000  x1=0x800096d8
       33635000	      3362	800052f8	02914863	blt	x2,x9,80005328	  x2:0xd56d9001  x9:0x7fff5c78
       33645000	      3363	00000000	00000013	addi	x0,x0,0	  x0:0x00000000
       33655000	      3364	80005324	00000013	addi	x0,x0,0	  x0:0x00000000
       33665000	      3365	80005328	01ae8663	beq	x29,x26,80005334	 x29:0x00000000 x26:0x80000000
       33675000	      3366	8000532c	c1927413	andi	x8,x4,-999	  x4:0x80009000  x8=0x80009000
       33685000	      3367	80005330	62718f93	addi	x31,x3,1575	  x3:0x00000000 x31=0x00000627
       33695000	      3368	80005334	01578663	beq	x15,x21,80005340	 x15:0xfffffcab x21:0x00000001
       33705000	      3369	80005338	0046d733	srl	x14,x13,x4	 x13:0xc5c5af8f  x4:0x80009000 x14=0xc5c5af8f
       33715000	      3370	8000533c	01c62793	slti	x15,x12,28	 x12:0x00000001 x15=0x00000001
       33725000	      3371	80005340	04ac8663	beq	x25,x10,8000538c	 x25:0x00000000 x10:0x00000000
       33735000	      3372	00000000	00000013	addi	x0,x0,0	  x0:0x00000000
       33745000	      3373	80005388	00000013	addi	x0,x0,0	  x0:0x00000000
       33755000	      3374	8000538c	ee22a713	slti	x14,x5,-286	  x5:0xd56d9001 x14=0x00000001
       33765000	      3375	80005390	01a25913	srli	x18,x4,0x1a	  x4:0x80009000 x18=0x00000020
       33775000	      3376	80005394	018e5293	srli	x5,x28,0x18	 x28:0x80009ec8  x5=0x00000080
       33785000	      3377	80005398	406d5cb3	sra	x25,x26,x6	 x26:0x80000000  x6:0x00000001 x25=0xc0000000
       33795000	      3378	8000539c	79d7cb17	auipc	x22,0x79d7c	 x22=0xf9d81398
       33805000	      3379	800053a0	004cc3b3	xor	x7,x25,x4	 x25:0xc0000000  x4:0x80009000  x7=0x40009000
       33815000	      3380	800053a4	41905b33	sra	x22,x0,x25	  x0:0x00000000 x25:0xc0000000 x22=0x00000000
       33825000	      3381	800053a8	e734ee93	ori	x29,x9,-397	  x9:0x7fff5c78 x29=0xfffffe7b
       33835000	      3382	800053ac	01ed9193	slli	x3,x27,0x1e	 x27:0xba3ae070  x3=0x00000000
       33845000	      3383	800053b0	00a94333	xor	x6,x18,x10	 x18:0x00000020 x10:0x00000000  x6=0x00000020
       33855000	      3384	800053b4	00000013	addi	x0,x0,0	  x0:0x00000000
       33865000	      3385	800053b8	02366e63	bltu	x12,x3,800053f4	 x12:0x00000001  x3:0x00000000
       33875000	      3386	800053bc	0137a1b3	slt	x3,x15,x19	 x15:0x00000001 x19:0xc5c5af90  x3=0x00000000
       33885000	      3387	800053c0	014cf863	bgeu	x25,x20,800053d0	 x25:0xc0000000 x20:0x00000000
       33895000	      3388	00000000	00000013	addi	x0,x0,0	  x0:0x00000000
       33905000	      3389	800053cc	00000013	addi	x0,x0,0	  x0:0x00000000
       33915000	      3390	800053d0	012973b3	and	x7,x18,x18	 x18:0x00000020 x18:0x00000020  x7=0x00000020
       33925000	      3391	800053d4	02805263	bge	x0,x8,800053f8	  x0:0x00000000  x8:0x80009000
       33935000	      3392	00000000	00000013	addi	x0,x0,0	  x0:0x00000000
       33945000	      3393	800053f4	00000013	addi	x0,x0,0	  x0:0x00000000
       33955000	      3394	800053f8	7bf26e93	ori	x29,x4,1983	  x4:0x80009000 x29=0x800097bf
       33965000	      3395	800053fc	174f5597	auipc	x11,0x174f5	 x11=0x974fa3f8
       33975000	      3396	80005400	01fdb6b3	sltu	x13,x27,x31	 x27:0xba3ae070 x31:0x00000627 x13=0x00000000
       33985000	      3397	80005404	00000013	addi	x0,x0,0	  x0:0x00000000
       33995000	      3398	80005408	08b1f613	andi	x12,x3,139	  x3:0x00000000 x12=0x00000000
       34005000	      3399	8000540c	030edc63	bge	x29,x16,80005444	 x29:0x800097bf x16:0x80009fc4
       34015000	      3400	80005410	009334b3	sltu	x9,x6,x9	  x6:0x00000020  x9:0x7fff5c78  x9=0x00000001
       34025000	      3401	80005414	017341b3	xor	x3,x6,x23	  x6:0x00000020 x23:0x00000000  x3=0x00000020
       34035000	      3402	80005418	1fb26613	ori	x12,x4,507	  x4:0x80009000 x12=0x800091fb
       34045000	      3403	8000541c	0352c797	auipc	x15,0x352c	 x15=0x83531418
       34055000	      3404	80005420	000a9b93	slli	x23,x21,0x0	 x21:0x00000001 x23=0x00000001
       34065000	      3405	80005424	9a46a893	slti	x17,x13,-1628	 x13:0x00000000 x17=0x00000000
       34075000	      3406	80005428	00745263	bge	x8,x7,8000542c	  x8:0x80009000  x7:0x00000020
       34085000	      3407	8000542c	01227663	bgeu	x4,x18,80005438	  x4:0x80009000 x18:0x00000020
       34095000	      3408	00000000	00000013	addi	x0,x0,0	  x0:0x00000000
       34105000	      3409	80005434	00000013	addi	x0,x0,0	  x0:0x00000000
       34115000	      3410	80005438	00bebeb3	sltu	x29,x29,x11	 x29:0x800097bf x11:0x974fa3f8 x29=0x00000001
       34125000	      3411	8000543c	4146dfb3	sra	x31,x13,x20	 x13:0x00000000 x20:0x00000000 x31=0x00000000
       34135000	      3412	80005440	00000013	addi	x0,x0,0	  x0:0x00000000
       34145000	      3413	80005444	00c374b3	and	x9,x6,x12	  x6:0x00000020 x12:0x800091fb  x9=0x00000020
       34155000	      3414	80005448	f6af5497	auipc	x9,0xf6af5	  x9=0x76afa444
       34165000	      3415	8000544c	04b97663	bgeu	x18,x11,80005498	 x18:0x00000020 x11:0x974fa3f8
       34175000	      3416	80005450	6cdb49b7	lui	x19,0x6cdb4	 x19=0x6cdb4000
       34185000	      3417	80005454	c1928013	addi	x0,x5,-999	  x5:0x00000080
       34195000	      3418	80005458	04ca1863	bne	x20,x12,800054a8	 x20:0x00000000 x12:0x800091fb
       34205000	      3419	00000000	00000013	addi	x0,x0,0	  x0:0x00000000
       34215000	      3420	800054a4	00000013	addi	x0,x0,0	  x0:0x00000000
       34225000	      3421	800054a8	02071463	bne	x14,x0,800054d0	 x14:0x00000001  x0:0x00000000
       34235000	      3422	00000000	00000013	addi	x0,x0,0	  x0:0x00000000
       34245000	      3423	800054cc	00000013	addi	x0,x0,0	  x0:0x00000000
       34255000	      3424	800054d0	00000013	addi	x0,x0,0	  x0:0x00000000
       34265000	      3425	800054d4	02ca0063	beq	x20,x12,800054f4	 x20:0x00000000 x12:0x800091fb
       34275000	      3426	800054d8	41fbd2b3	sra	x5,x23,x31	 x23:0x00000001 x31:0x00000000  x5=0x00000001
       34285000	      3427	800054dc	04041063	bne	x8,x0,8000551c	  x8:0x80009000  x0:0x00000000
       34295000	      3428	00000000	00000013	addi	x0,x0,0	  x0:0x00000000
       34305000	      3429	80005518	00000013	addi	x0,x0,0	  x0:0x00000000
       34315000	      3430	8000551c	016091b3	sll	x3,x1,x22	  x1:0x800096d8 x22:0x00000000  x3=0x800096d8
       34325000	      3431	80005520	30e2c737	lui	x14,0x30e2c	 x14=0x30e2c000
       34335000	      3432	80005524	00e09eb3	sll	x29,x1,x14	  x1:0x800096d8 x14:0x30e2c000 x29=0x800096d8
       34345000	      3433	80005528	01d00a63	beq	x0,x29,8000553c	  x0:0x00000000 x29:0x800096d8
       34355000	      3434	8000552c	22660013	addi	x0,x12,550	 x12:0x800091fb
       34365000	      3435	80005530	204a23b7	lui	x7,0x204a2	  x7=0x204a2000
       34375000	      3436	80005534	01ec0133	add	x2,x24,x30	 x24:0x00000000 x30:0x80000000  x2=0x80000000
       34385000	      3437	80005538	0060a333	slt	x6,x1,x6	  x1:0x800096d8  x6:0x00000020  x6=0x00000001
       34395000	      3438	8000553c	00000013	addi	x0,x0,0	  x0:0x00000000
       34405000	      3439	80005540	41b95fb3	sra	x31,x18,x27	 x18:0x00000020 x27:0xba3ae070 x31=0x00000000
       34415000	      3440	80005544	f95be013	ori	x0,x23,-107	 x23:0x00000001
       34425000	      3441	80005548	cbc66a13	ori	x20,x12,-836	 x12:0x800091fb x20=0xfffffdff
       34435000	      3442	8000554c	00000013	addi	x0,x0,0	  x0:0x00000000
       34445000	      3443	80005550	01130233	add	x4,x6,x17	  x6:0x00000001 x17:0x00000000  x4=0x00000001
       34455000	      3444	80005554	b7a46913	ori	x18,x8,-1158	  x8:0x80009000 x18=0xfffffb7a
       34465000	      3445	80005558	2bf30213	addi	x4,x6,703	  x6:0x00000001  x4=0x000002c0
       34475000	      3446	8000555c	40b55d93	srai	x27,x10,0xb	 x10:0x00000000 x27=0x00000000
       34485000	      3447	80005560	1e2df993	andi	x19,x27,482	 x27:0x00000000 x19=0x00000000
       34495000	      3448	80005564	c424c013	xori	x0,x9,-958	  x9:0x76afa444
       34505000	      3449	80005568	a22b8d97	auipc	x27,0xa22b8	 x27=0x222bd564
       34515000	      3450	8000556c	01974533	xor	x10,x14,x25	 x14:0x30e2c000 x25:0xc0000000 x10=0xf0e2c000
       34525000	      3451	80005570	404550b3	sra	x1,x10,x4	 x10:0xf0e2c000  x4:0x000002c0  x1=0xf0e2c000
       34535000	      3452	80005574	4931af93	slti	x31,x3,1171	  x3:0x800096d8 x31=0x00000001
       34545000	      3453	80005578	40aa5233	sra	x4,x20,x10	 x20:0xfffffdff x10:0xf0e2c000  x4=0xfffffdff
       34555000	      3454	8000557c	00869b93	slli	x23,x13,0x8	 x13:0x00000000 x23=0x00000000
       34565000	      3455	80005580	059cc063	blt	x25,x25,800055c0	 x25:0xc0000000 x25:0xc0000000
       34575000	      3456	80005584	0196a5b3	slt	x11,x13,x25	 x13:0x00000000 x25:0xc0000000 x11=0x00000000
       34585000	      3457	80005588	0341d063	bge	x3,x20,800055a8	  x3:0x800096d8 x20:0xfffffdff
       34595000	      3458	8000558c	40cedfb3	sra	x31,x29,x12	 x29:0x800096d8 x12:0x800091fb x31=0xfffffff0
       34605000	      3459	80005590	01805633	srl	x12,x0,x24	  x0:0x00000000 x24:0x00000000 x12=0x00000000
       34615000	      3460	80005594	c27a7393	andi	x7,x20,-985	 x20:0xfffffdff  x7=0xfffffc27
       34625000	      3461	80005598	d4be6613	ori	x12,x28,-693	 x28:0x80009ec8 x12=0xffffffcb
       34635000	      3462	8000559c	41d38f33	sub	x30,x7,x29	  x7:0xfffffc27 x29:0x800096d8 x30=0x7fff654f
       34645000	      3463	800055a0	01221393	slli	x7,x4,0x12	  x4:0xfffffdff  x7=0xf7fc0000
       34655000	      3464	800055a4	010402b3	add	x5,x8,x16	  x8:0x80009000 x16:0x80009fc4  x5=0x00012fc4
       34665000	      3465	800055a8	006a7863	bgeu	x20,x6,800055b8	 x20:0xfffffdff  x6:0x00000001
       34675000	      3466	00000000	00000013	addi	x0,x0,0	  x0:0x00000000
       34685000	      3467	800055b4	00000013	addi	x0,x0,0	  x0:0x00000000
       34695000	      3468	800055b8	00000013	addi	x0,x0,0	  x0:0x00000000
       34705000	      3469	800055bc	903e6117	auipc	x2,0x903e6	  x2=0x103eb5b8
       34715000	      3470	800055c0	014f2533	slt	x10,x30,x20	 x30:0x7fff654f x20:0xfffffdff x10=0x00000000
       34725000	      3471	800055c4	001871b3	and	x3,x16,x1	 x16:0x80009fc4  x1:0xf0e2c000  x3=0x80008000
       34735000	      3472	800055c8	00df4c33	xor	x24,x30,x13	 x30:0x7fff654f x13:0x00000000 x24=0x7fff654f
       34745000	      3473	800055cc	00aba533	slt	x10,x23,x10	 x23:0x00000000 x10:0x00000000 x10=0x00000000
       34755000	      3474	800055d0	e4a1f313	andi	x6,x3,-438	  x3:0x80008000  x6=0x80008000
       34765000	      3475	800055d4	b6b0d217	auipc	x4,0xb6b0d	  x4=0x36b125d0
       34775000	      3476	800055d8	00000013	addi	x0,x0,0	  x0:0x00000000
       34785000	      3477	800055dc	407a8ab3	sub	x21,x21,x7	 x21:0x00000001  x7:0xf7fc0000 x21=0x08040001
       34795000	      3478	800055e0	025b0c63	beq	x22,x5,80005618	 x22:0x00000000  x5:0x00012fc4
       34805000	      3479	800055e4	0083cfb3	xor	x31,x7,x8	  x7:0xf7fc0000  x8:0x80009000 x31=0x77fc9000
       34815000	      3480	800055e8	7c08ce93	xori	x29,x17,1984	 x17:0x00000000 x29=0x000007c0
       34825000	      3481	800055ec	00000013	addi	x0,x0,0	  x0:0x00000000
       34835000	      3482	800055f0	00998933	add	x18,x19,x9	 x19:0x00000000  x9:0x76afa444 x18=0x76afa444
       34845000	      3483	800055f4	1d75f193	andi	x3,x11,471	 x11:0x00000000  x3=0x00000000
       34855000	      3484	800055f8	00715913	srli	x18,x2,0x7	  x2:0x103eb5b8 x18=0x00207d6b
       34865000	      3485	800055fc	00245033	srl	x0,x8,x2	  x8:0x80009000  x2:0x103eb5b8
       34875000	      3486	80005600	e43a4b93	xori	x23,x20,-445	 x20:0xfffffdff x23=0x000003bc
       34885000	      3487	80005604	9d8d3197	auipc	x3,0x9d8d3	  x3=0x1d8d8600
       34895000	      3488	80005608	002f19b3	sll	x19,x30,x2	 x30:0x7fff654f  x2:0x103eb5b8 x19=0x4f000000
       34905000	      3489	8000560c	40bd5a13	srai	x20,x26,0xb	 x26:0x80000000 x20=0xfff00000
       34915000	      3490	80005610	7fa09fb7	lui	x31,0x7fa09	 x31=0x7fa09000
       34925000	      3491	80005614	4068d993	srai	x19,x17,0x6	 x17:0x00000000 x19=0x00000000
       34935000	      3492	80005618	003117b3	sll	x15,x2,x3	  x2:0x103eb5b8  x3:0x1d8d8600 x15=0x103eb5b8
       34945000	      3493	8000561c	40735093	srai	x1,x6,0x7	  x6:0x80008000  x1=0xff000100
       34955000	      3494	80005620	02440463	beq	x8,x4,80005648	  x8:0x80009000  x4:0x36b125d0
       34965000	      3495	80005624	93f0a593	slti	x11,x1,-1729	  x1:0xff000100 x11=0x00000001
       34975000	      3496	80005628	041e0393	addi	x7,x28,65	 x28:0x80009ec8  x7=0x80009f09
       34985000	      3497	8000562c	00a6e663	bltu	x13,x10,80005638	 x13:0x00000000 x10:0x00000000
       34995000	      3498	80005630	01f7e863	bltu	x15,x31,80005640	 x15:0x103eb5b8 x31:0x7fa09000
       35005000	      3499	00000000	00000013	addi	x0,x0,0	  x0:0x00000000
       35015000	      3500	8000563c	00000013	addi	x0,x0,0	  x0:0x00000000
       35025000	      3501	80005640	00f65033	srl	x0,x12,x15	 x12:0xffffffcb x15:0x103eb5b8
       35035000	      3502	80005644	004c0233	add	x4,x24,x4	 x24:0x7fff654f  x4:0x36b125d0  x4=0xb6b08b1f
       35045000	      3503	80005648	054bd663	bge	x23,x20,80005694	 x23:0x000003bc x20:0xfff00000
       35055000	      3504	00000000	00000013	addi	x0,x0,0	  x0:0x00000000
       35065000	      3505	80005690	00000013	addi	x0,x0,0	  x0:0x00000000
       35075000	      3506	80005694	270df193	andi	x3,x27,624	 x27:0x222bd564  x3=0x00000060
       35085000	      3507	80005698	01249ab3	sll	x21,x9,x18	  x9:0x76afa444 x18:0x00207d6b x21=0x7d222000
       35095000	      3508	8000569c	012c19b3	sll	x19,x24,x18	 x24:0x7fff654f x18:0x00207d6b x19=0xfb2a7800
       35105000	      3509	800056a0	408c5913	srai	x18,x24,0x8	 x24:0x7fff654f x18=0x007fff65
       35115000	      3510	800056a4	9848e293	ori	x5,x17,-1660	 x17:0x00000000  x5=0xfffff984
       35125000	      3511	800056a8	01c3dc13	srli	x24,x7,0x1c	  x7:0x80009f09 x24=0x00000008
       35135000	      3512	800056ac	00deec33	or	x24,x29,x13	 x29:0x000007c0 x13:0x00000000 x24=0x000007c0
       35145000	      3513	800056b0	00fa1f33	sll	x30,x20,x15	 x20:0xfff00000 x15:0x103eb5b8 x30=0x00000000
       35155000	      3514	800056b4	03237e63	bgeu	x6,x18,800056f0	  x6:0x80008000 x18:0x007fff65
       35165000	      3515	00000000	00000013	addi	x0,x0,0	  x0:0x00000000
       35175000	      3516	800056ec	00000013	addi	x0,x0,0	  x0:0x00000000
       35185000	      3517	800056f0	01257263	bgeu	x10,x18,800056f4	 x10:0x00000000 x18:0x007fff65
       35195000	      3518	800056f4	011b0663	beq	x22,x17,80005700	 x22:0x00000000 x17:0x00000000
       35205000	      3519	00000000	00000013	addi	x0,x0,0	  x0:0x00000000
       35215000	      3520	800056fc	00000013	addi	x0,x0,0	  x0:0x00000000
       35225000	      3521	80005700	a8cc4893	xori	x17,x24,-1396	 x24:0x000007c0 x17=0xfffffd4c
       35235000	      3522	80005704	00c3c4b3	xor	x9,x7,x12	  x7:0x80009f09 x12:0xffffffcb  x9=0x7fff60c2
       35245000	      3523	80005708	2b13ca97	auipc	x21,0x2b13c	 x21=0xab141704
       35255000	      3524	8000570c	1d3bb617	auipc	x12,0x1d3bb	 x12=0x9d3c0708
       35265000	      3525	80005710	0043fdb3	and	x27,x7,x4	  x7:0x80009f09  x4:0xb6b08b1f x27=0x80008b09
       35275000	      3526	80005714	01cccab3	xor	x21,x25,x28	 x25:0xc0000000 x28:0x80009ec8 x21=0x40009ec8
       35285000	      3527	80005718	00000013	addi	x0,x0,0	  x0:0x00000000
       35295000	      3528	8000571c	0070cc33	xor	x24,x1,x7	  x1:0xff000100  x7:0x80009f09 x24=0x7f009e09
       35305000	      3529	80005720	00d2df13	srli	x30,x5,0xd	  x5:0xfffff984 x30=0x0007ffff
       35315000	      3530	80005724	010d6e63	bltu	x26,x16,80005740	 x26:0x80000000 x16:0x80009fc4
       35325000	      3531	00000000	00000013	addi	x0,x0,0	  x0:0x00000000
       35335000	      3532	8000573c	00000013	addi	x0,x0,0	  x0:0x00000000
       35345000	      3533	80005740	764c4393	xori	x7,x24,1892	 x24:0x7f009e09  x7=0x7f00996d
       35355000	      3534	80005744	41335db3	sra	x27,x6,x19	  x6:0x80008000 x19:0xfb2a7800 x27=0x80008000
       35365000	      3535	80005748	415c55b3	sra	x11,x24,x21	 x24:0x7f009e09 x21:0x40009ec8 x11=0x007f009e
       35375000	      3536	8000574c	d8d3e913	ori	x18,x7,-627	  x7:0x7f00996d x18=0xfffffded
       35385000	      3537	80005750	0165b3b3	sltu	x7,x11,x22	 x11:0x007f009e x22:0x00000000  x7=0x00000000
       35395000	      3538	80005754	016af263	bgeu	x21,x22,80005758	 x21:0x40009ec8 x22:0x00000000
       35405000	      3539	00000000	00000013	addi	x0,x0,0	  x0:0x00000000
       35415000	      3540	80005754	00000013	addi	x0,x0,0	  x0:0x00000000
       35425000	      3541	80005758	2d3da013	slti	x0,x27,723	 x27:0x80008000
       35435000	      3542	8000575c	0179c863	blt	x19,x23,8000576c	 x19:0xfb2a7800 x23:0x000003bc
       35445000	      3543	00000000	00000013	addi	x0,x0,0	  x0:0x00000000
       35455000	      3544	80005768	00000013	addi	x0,x0,0	  x0:0x00000000
       35465000	      3545	8000576c	008c5393	srli	x7,x24,0x8	 x24:0x7f009e09  x7=0x007f009e
       35475000	      3546	80005770	017e6a33	or	x20,x28,x23	 x28:0x80009ec8 x23:0x000003bc x20=0x80009ffc
       35485000	      3547	80005774	00cfd393	srli	x7,x31,0xc	 x31:0x7fa09000  x7=0x0007fa09
       35495000	      3548	80005778	40825013	srai	x0,x4,0x8	  x4:0xb6b08b1f
       35505000	      3549	8000577c	00000013	addi	x0,x0,0	  x0:0x00000000
       35515000	      3550	80005780	026ff863	bgeu	x31,x6,800057b0	 x31:0x7fa09000  x6:0x80008000
       35525000	      3551	80005784	40025513	srai	x10,x4,0x0	  x4:0xb6b08b1f x10=0xb6b08b1f
       35535000	      3552	80005788	0da45f97	auipc	x31,0xda45	 x31=0x8da4a784
       35545000	      3553	8000578c	023ac263	blt	x21,x3,800057b0	 x21:0x40009ec8  x3:0x00000060
       35555000	      3554	80005790	002e5c63	bge	x28,x2,800057a8	 x28:0x80009ec8  x2:0x103eb5b8
       35565000	      3555	80005794	40bb5113	srai	x2,x22,0xb	 x22:0x00000000  x2=0x00000000
       35575000	      3556	80005798	4018d093	srai	x1,x17,0x1	 x17:0xfffffd4c  x1=0xfffffea6
       35585000	      3557	8000579c	01265f13	srli	x30,x12,0x12	 x12:0x9d3c0708 x30=0x0000274f
       35595000	      3558	800057a0	00119193	slli	x3,x3,0x1	  x3:0x00000060  x3=0x000000c0
       35605000	      3559	800057a4	e2d3bb13	sltiu	x22,x7,-467	  x7:0x0007fa09 x22=0x00000001
       35615000	      3560	800057a8	0132f333	and	x6,x5,x19	  x5:0xfffff984 x19:0xfb2a7800  x6=0xfb2a7800
       35625000	      3561	800057ac	e0ed6013	ori	x0,x26,-498	 x26:0x80000000
       35635000	      3562	800057b0	013fde93	srli	x29,x31,0x13	 x31:0x8da4a784 x29=0x000011b4
       35645000	      3563	800057b4	027c0063	beq	x24,x7,800057d4	 x24:0x7f009e09  x7:0x0007fa09
       35655000	      3564	800057b8	05d58063	beq	x11,x29,800057f8	 x11:0x007f009e x29:0x000011b4
       35665000	      3565	800057bc	022bf063	bgeu	x23,x2,800057dc	 x23:0x000003bc  x2:0x00000000
       35675000	      3566	00000000	00000013	addi	x0,x0,0	  x0:0x00000000
       35685000	      3567	800057d8	00000013	addi	x0,x0,0	  x0:0x00000000
       35695000	      3568	800057dc	01fc9e93	slli	x29,x25,0x1f	 x25:0xc0000000 x29=0x00000000
       35705000	      3569	800057e0	04730663	beq	x6,x7,8000582c	  x6:0xfb2a7800  x7:0x0007fa09
       35715000	      3570	800057e4	00326663	bltu	x4,x3,800057f0	  x4:0xb6b08b1f  x3:0x000000c0
       35725000	      3571	800057e8	00fbd8b3	srl	x17,x23,x15	 x23:0x000003bc x15:0x103eb5b8 x17=0x00000000
       35735000	      3572	800057ec	011ce663	bltu	x25,x17,800057f8	 x25:0xc0000000 x17:0x00000000
       35745000	      3573	800057f0	22995db7	lui	x27,0x22995	 x27=0x22995000
       35755000	      3574	800057f4	41885033	sra	x0,x16,x24	 x16:0x80009fc4 x24:0x7f009e09
       35765000	      3575	800057f8	0171f9b3	and	x19,x3,x23	  x3:0x000000c0 x23:0x000003bc x19=0x00000080
       35775000	      3576	800057fc	0038b933	sltu	x18,x17,x3	 x17:0x00000000  x3:0x000000c0 x18=0x00000001
       35785000	      3577	80005800	63db6513	ori	x10,x22,1597	 x22:0x00000001 x10=0x0000063d
       35795000	      3578	80005804	003ff433	and	x8,x31,x3	 x31:0x8da4a784  x3:0x000000c0  x8=0x00000080
       35805000	      3579	80005808	fe86a313	slti	x6,x13,-24	 x13:0x00000000  x6=0x00000000
       35815000	      3580	8000580c	1687e993	ori	x19,x15,360	 x15:0x103eb5b8 x19=0x103eb5f8
       35825000	      3581	80005810	000571b3	and	x3,x10,x0	 x10:0x0000063d  x0:0x00000000  x3=0x00000000
       35835000	      3582	80005814	b53c7c93	andi	x25,x24,-1197	 x24:0x7f009e09 x25=0x7f009a01
       35845000	      3583	80005818	0e34ec13	ori	x24,x9,227	  x9:0x7fff60c2 x24=0x7fff60e3
       35855000	      3584	8000581c	01e51113	slli	x2,x10,0x1e	 x10:0x0000063d  x2=0x40000000
       35865000	      3585	80005820	402e8233	sub	x4,x29,x2	 x29:0x00000000  x2:0x40000000  x4=0xc0000000
       35875000	      3586	80005824	01b155b3	srl	x11,x2,x27	  x2:0x40000000 x27:0x22995000 x11=0x40000000
       35885000	      3587	80005828	1ac77017	auipc	x0,0x1ac77	
       35895000	      3588	8000582c	18171737	lui	x14,0x18171	 x14=0x18171000
       35905000	      3589	80005830	00265193	srli	x3,x12,0x2	 x12:0x9d3c0708  x3=0x274f01c2
       35915000	      3590	80005834	41815fb3	sra	x31,x2,x24	  x2:0x40000000 x24:0x7fff60e3 x31=0x08000000
       35925000	      3591	80005838	012e8c63	beq	x29,x18,80005850	 x29:0x00000000 x18:0x00000001
       35935000	      3592	8000583c	04826263	bltu	x4,x8,80005880	  x4:0xc0000000  x8:0x00000080
       35945000	      3593	80005840	033dc263	blt	x27,x19,80005864	 x27:0x22995000 x19:0x103eb5f8
       35955000	      3594	80005844	005b1713	slli	x14,x22,0x5	 x22:0x00000001 x14=0x00000020
       35965000	      3595	80005848	02a75e63	bge	x14,x10,80005884	 x14:0x00000020 x10:0x0000063d
       35975000	      3596	8000584c	9df6b293	sltiu	x5,x13,-1569	 x13:0x00000000  x5=0x00000001
       35985000	      3597	80005850	00000013	addi	x0,x0,0	  x0:0x00000000
       35995000	      3598	80005854	1051f113	andi	x2,x3,261	  x3:0x274f01c2  x2=0x00000100
       36005000	      3599	80005858	2121dd97	auipc	x27,0x2121d	 x27=0xa1222854
       36015000	      3600	8000585c	00000013	addi	x0,x0,0	  x0:0x00000000
       36025000	      3601	80005860	017a9613	slli	x12,x21,0x17	 x21:0x40009ec8 x12=0x64000000
       36035000	      3602	80005864	0368cc97	auipc	x25,0x368c	 x25=0x83691860
       36045000	      3603	80005868	01a64c93	xori	x25,x12,26	 x12:0x64000000 x25=0x6400001a
       36055000	      3604	8000586c	7f5fae93	slti	x29,x31,2037	 x31:0x08000000 x29=0x00000000
       36065000	      3605	80005870	104d0263	beq	x26,x4,80005974	 x26:0x80000000  x4:0xc0000000
       36075000	      3606	80005874	c3db8917	auipc	x18,0xc3db8	 x18=0x43dbd870
       36085000	      3607	80005878	41ebd2b3	sra	x5,x23,x30	 x23:0x000003bc x30:0x0000274f  x5=0x00000000
       36095000	      3608	8000587c	f85f6f13	ori	x30,x30,-123	 x30:0x0000274f x30=0xffffffcf
       36105000	      3609	80005880	00a02433	slt	x8,x0,x10	  x0:0x00000000 x10:0x0000063d  x8=0x00000001
       36115000	      3610	80005884	01906c33	or	x24,x0,x25	  x0:0x00000000 x25:0x6400001a x24=0x6400001a
       36125000	      3611	80005888	0041e7b3	or	x15,x3,x4	  x3:0x274f01c2  x4:0xc0000000 x15=0xe74f01c2
       36135000	      3612	8000588c	00185393	srli	x7,x16,0x1	 x16:0x80009fc4  x7=0x40004fe2
       36145000	      3613	80005890	403b5713	srai	x14,x22,0x3	 x22:0x00000001 x14=0x00000000
       36155000	      3614	80005894	1137e263	bltu	x15,x19,80005998	 x15:0xe74f01c2 x19:0x103eb5f8
       36165000	      3615	80005898	56d69997	auipc	x19,0x56d69	 x19=0xd6d6e894
       36175000	      3616	8000589c	0e750e63	beq	x10,x7,80005998	 x10:0x0000063d  x7:0x40004fe2
       36185000	      3617	800058a0	0f2d1263	bne	x26,x18,80005984	 x26:0x80000000 x18:0x43dbd870
       36195000	      3618	00000000	00000013	addi	x0,x0,0	  x0:0x00000000
       36205000	      3619	80005980	00000013	addi	x0,x0,0	  x0:0x00000000
       36215000	      3620	80005984	861f6713	ori	x14,x30,-1951	 x30:0xffffffcf x14=0xffffffef
       36225000	      3621	80005988	01185313	srli	x6,x16,0x11	 x16:0x80009fc4  x6=0x00004000
       36235000	      3622	8000598c	4ce52513	slti	x10,x10,1230	 x10:0x0000063d x10=0x00000000
       36245000	      3623	80005990	009a7b33	and	x22,x20,x9	 x20:0x80009ffc  x9:0x7fff60c2 x22=0x000000c0
       36255000	      3624	80005994	0469e063	bltu	x19,x6,800059d4	 x19:0xd6d6e894  x6:0x00004000
       36265000	      3625	80005998	03cd8863	beq	x27,x28,800059c8	 x27:0xa1222854 x28:0x80009ec8
       36275000	      3626	8000599c	033b5a63	bge	x22,x19,800059d0	 x22:0x000000c0 x19:0xd6d6e894
       36285000	      3627	00000000	00000013	addi	x0,x0,0	  x0:0x00000000
       36295000	      3628	800059cc	00000013	addi	x0,x0,0	  x0:0x00000000
       36305000	      3629	800059d0	01211533	sll	x10,x2,x18	  x2:0x00000100 x18:0x43dbd870 x10=0x01000000
       36315000	      3630	800059d4	0067b6b3	sltu	x13,x15,x6	 x15:0xe74f01c2  x6:0x00004000 x13=0x00000000
       36325000	      3631	800059d8	01e1d993	srli	x19,x3,0x1e	  x3:0x274f01c2 x19=0x00000000
       36335000	      3632	800059dc	a6dca593	slti	x11,x25,-1427	 x25:0x6400001a x11=0x00000000
       36345000	      3633	800059e0	8a12e213	ori	x4,x5,-1887	  x5:0x00000000  x4=0xfffff8a1
       36355000	      3634	800059e4	00551393	slli	x7,x10,0x5	 x10:0x01000000  x7=0x20000000
       36365000	      3635	800059e8	0205e463	bltu	x11,x0,80005a10	 x11:0x00000000  x0:0x00000000
       36375000	      3636	800059ec	01fce4b3	or	x9,x25,x31	 x25:0x6400001a x31:0x08000000  x9=0x6c00001a
       36385000	      3637	800059f0	014f8bb3	add	x23,x31,x20	 x31:0x08000000 x20:0x80009ffc x23=0x88009ffc
       36395000	      3638	800059f4	cf0425b7	lui	x11,0xcf042	 x11=0xcf042000
       36405000	      3639	800059f8	04e97663	bgeu	x18,x14,80005a44	 x18:0x43dbd870 x14:0xffffffef
       36415000	      3640	800059fc	019cd733	srl	x14,x25,x25	 x25:0x6400001a x25:0x6400001a x14=0x00000019
       36425000	      3641	80005a00	030b4063	blt	x22,x16,80005a20	 x22:0x000000c0 x16:0x80009fc4
       36435000	      3642	80005a04	01f67333	and	x6,x12,x31	 x12:0x64000000 x31:0x08000000  x6=0x00000000
       36445000	      3643	80005a08	01a836b3	sltu	x13,x16,x26	 x16:0x80009fc4 x26:0x80000000 x13=0x00000000
       36455000	      3644	80005a0c	2e2f63b7	lui	x7,0x2e2f6	  x7=0x2e2f6000
       36465000	      3645	80005a10	efba60b7	lui	x1,0xefba6	  x1=0xefba6000
       36475000	      3646	80005a14	00801e93	slli	x29,x0,0x8	  x0:0x00000000 x29=0x00000000
       36485000	      3647	80005a18	6cb40697	auipc	x13,0x6cb40	 x13=0xecb45a14
       36495000	      3648	80005a1c	173f4193	xori	x3,x30,371	 x30:0xffffffcf  x3=0xfffffebc
       36505000	      3649	80005a20	0133a2b3	slt	x5,x7,x19	  x7:0x2e2f6000 x19:0x00000000  x5=0x00000000
       36515000	      3650	80005a24	402a0b33	sub	x22,x20,x2	 x20:0x80009ffc  x2:0x00000100 x22=0x80009efc
       36525000	      3651	80005a28	00000013	addi	x0,x0,0	  x0:0x00000000
       36535000	      3652	80005a2c	01733733	sltu	x14,x6,x23	  x6:0x00000000 x23:0x88009ffc x14=0x00000001
       36545000	      3653	80005a30	6d797f93	andi	x31,x18,1751	 x18:0x43dbd870 x31=0x00000050
       36555000	      3654	80005a34	016b78b3	and	x17,x22,x22	 x22:0x80009efc x22:0x80009efc x17=0x80009efc
       36565000	      3655	80005a38	b5e5c137	lui	x2,0xb5e5c	  x2=0xb5e5c000
       36575000	      3656	80005a3c	00d91633	sll	x12,x18,x13	 x18:0x43dbd870 x13:0xecb45a14 x12=0x87000000
       36585000	      3657	80005a40	d86f0513	addi	x10,x30,-634	 x30:0xffffffcf x10=0xfffffd55
       36595000	      3658	80005a44	00d5d533	srl	x10,x11,x13	 x11:0xcf042000 x13:0xecb45a14 x10=0x00000cf0
       36605000	      3659	80005a48	4064d213	srai	x4,x9,0x6	  x9:0x6c00001a  x4=0x01b00000
       36615000	      3660	80005a4c	b919f993	andi	x19,x19,-1135	 x19:0x00000000 x19=0x00000000
       36625000	      3661	80005a50	0133ddb3	srl	x27,x7,x19	  x7:0x2e2f6000 x19:0x00000000 x27=0x2e2f6000
       36635000	      3662	80005a54	01c2c8b3	xor	x17,x5,x28	  x5:0x00000000 x28:0x80009ec8 x17=0x80009ec8
       36645000	      3663	80005a58	01b1b7b3	sltu	x15,x3,x27	  x3:0xfffffebc x27:0x2e2f6000 x15=0x00000000
       36655000	      3664	80005a5c	31192517	auipc	x10,0x31192	 x10=0xb1197a58
       36665000	      3665	80005a60	004e2a03	lw	x20,4(x28)	 x28:0x80009ec8 x20=0x80005bbc PA:0x80009ecc
       36675000	      3666	80005a64	041ba993	slti	x19,x23,65	 x23:0x88009ffc x19=0x00000001
       36685000	      3667	80005a68	014e0e13	addi	x28,x28,20	 x28:0x80009ec8 x28=0x80009edc
       36695000	      3668	80005a6c	037d62b7	lui	x5,0x37d6	  x5=0x037d6000
       36705000	      3669	80005a70	5b81ebb7	lui	x23,0x5b81e	 x23=0x5b81e000
       36715000	      3670	80005a74	00000013	addi	x0,x0,0	  x0:0x00000000
       36725000	      3671	80005a78	001a0913	addi	x18,x20,1	 x20:0x80005bbc x18=0x80005bbd
       36735000	      3672	80005a7c	00090967	jalr	x18,x18,0	 x18:0x80005bbd x18=0x80005a7c
       36745000	      3673	00000000	00000013	addi	x0,x0,0	  x0:0x00000000
       36755000	      3674	80005bbc	00000013	addi	x0,x0,0	  x0:0x00000000
       36765000	      3675	80005bc0	01c4e933	or	x18,x9,x28	  x9:0x6c00001a x28:0x80009edc x18=0xec009ede
       36775000	      3676	80005bc4	01115633	srl	x12,x2,x17	  x2:0xb5e5c000 x17:0x80009ec8 x12=0x00b5e5c0
       36785000	      3677	80005bc8	00000013	addi	x0,x0,0	  x0:0x00000000
       36795000	      3678	80005bcc	0040f033	and	x0,x1,x4	  x1:0xefba6000  x4:0x01b00000
       36805000	      3679	80005bd0	677a3213	sltiu	x4,x20,1655	 x20:0x80005bbc  x4=0x00000000
       36815000	      3680	80005bd4	0046e433	or	x8,x13,x4	 x13:0xecb45a14  x4:0x00000000  x8=0xecb45a14
       36825000	      3681	80005bd8	01f9c7b3	xor	x15,x19,x31	 x19:0x00000001 x31:0x00000050 x15=0x00000051
       36835000	      3682	80005bdc	8ccfca6f	jal	x20,80005bdc	 x20=0x80005bdc
       36845000	      3683	00000000	00000013	addi	x0,x0,0	  x0:0x00000000
       36855000	      3684	80001ca4	00000013	addi	x0,x0,0	  x0:0x00000000
       36865000	      3685	80001ca8	3c817293	andi	x5,x2,968	  x2:0xb5e5c000  x5=0x00000000
       36875000	      3686	80001cac	01b27133	and	x2,x4,x27	  x4:0x00000000 x27:0x2e2f6000  x2=0x00000000
       36885000	      3687	80001cb0	fe0e0e13	addi	x28,x28,-32	 x28:0x80009edc x28=0x80009ebc
       36895000	      3688	80001cb4	010e6fb3	or	x31,x28,x16	 x28:0x80009ebc x16:0x80009fc4 x31=0x80009ffc
       36905000	      3689	80001cb8	014e2223	sw	x20,4(x28)	 x28:0x80009ebc x20:0x80005bdc PA:0x80009ec0
       36915000	      3690	80001cbc	415550b3	sra	x1,x10,x21	 x10:0xb1197a58 x21:0x40009ec8  x1=0xffb1197a
       36925000	      3691	80001cc0	015d85b3	add	x11,x27,x21	 x27:0x2e2f6000 x21:0x40009ec8 x11=0x6e2ffec8
       36935000	      3692	80001cc4	092ea513	slti	x10,x29,146	 x29:0x00000000 x10=0x00000001
       36945000	      3693	80001cc8	01d5ac33	slt	x24,x11,x29	 x11:0x6e2ffec8 x29:0x00000000 x24=0x00000000
       36955000	      3694	80001ccc	c33da893	slti	x17,x27,-973	 x27:0x2e2f6000 x17=0x00000000
       36965000	      3695	80001cd0	cd3c7193	andi	x3,x24,-813	 x24:0x00000000  x3=0x00000000
       36975000	      3696	80001cd4	053a5863	bge	x20,x19,80001d24	 x20:0x80005bdc x19:0x00000001
       36985000	      3697	80001cd8	016753b3	srl	x7,x14,x22	 x14:0x00000001 x22:0x80009efc  x7=0x00000000
       36995000	      3698	80001cdc	b7972b13	slti	x22,x14,-1159	 x14:0x00000001 x22=0x00000000
       37005000	      3699	80001ce0	41cd0eb3	sub	x29,x26,x28	 x26:0x80000000 x28:0x80009ebc x29=0xffff6144
       37015000	      3700	80001ce4	03ef0663	beq	x30,x30,80001d10	 x30:0xffffffcf x30:0xffffffcf
       37025000	      3701	00000000	00000013	addi	x0,x0,0	  x0:0x00000000
       37035000	      3702	80001d0c	00000013	addi	x0,x0,0	  x0:0x00000000
       37045000	      3703	80001d10	4c463d93	sltiu	x27,x12,1220	 x12:0x00b5e5c0 x27=0x00000000
       37055000	      3704	80001d14	04d57863	bgeu	x10,x13,80001d64	 x10:0x00000001 x13:0xecb45a14
       37065000	      3705	80001d18	00dc0a33	add	x20,x24,x13	 x24:0x00000000 x13:0xecb45a14 x20=0xecb45a14
       37075000	      3706	80001d1c	670e7d93	andi	x27,x28,1648	 x28:0x80009ebc x27=0x00000630
       37085000	      3707	80001d20	00f180b3	add	x1,x3,x15	  x3:0x00000000 x15:0x00000051  x1=0x00000051
       37095000	      3708	80001d24	a970d317	auipc	x6,0xa970d	  x6=0x2970ed20
       37105000	      3709	80001d28	019a58b3	srl	x17,x20,x25	 x20:0xecb45a14 x25:0x6400001a x17=0x0000003b
       37115000	      3710	80001d2c	01f41ab3	sll	x21,x8,x31	  x8:0xecb45a14 x31:0x80009ffc x21=0x40000000
       37125000	      3711	80001d30	5e33e713	ori	x14,x7,1507	  x7:0x00000000 x14=0x000005e3
       37135000	      3712	80001d34	003a4333	xor	x6,x20,x3	 x20:0xecb45a14  x3:0x00000000  x6=0xecb45a14
       37145000	      3713	80001d38	058d6863	bltu	x26,x24,80001d88	 x26:0x80000000 x24:0x00000000
       37155000	      3714	80001d3c	40e05293	srai	x5,x0,0xe	  x0:0x00000000  x5=0x00000000
       37165000	      3715	80001d40	01ddb633	sltu	x12,x27,x29	 x27:0x00000630 x29:0xffff6144 x12=0x00000001
       37175000	      3716	80001d44	01e0ea63	bltu	x1,x30,80001d58	  x1:0x00000051 x30:0xffffffcf
       37185000	      3717	00000000	00000013	addi	x0,x0,0	  x0:0x00000000
       37195000	      3718	80001d54	00000013	addi	x0,x0,0	  x0:0x00000000
       37205000	      3719	80001d58	00d2e533	or	x10,x5,x13	  x5:0x00000000 x13:0xecb45a14 x10=0xecb45a14
       37215000	      3720	80001d5c	004f5e93	srli	x29,x30,0x4	 x30:0xffffffcf x29=0x0ffffffc
       37225000	      3721	80001d60	6a79bb13	sltiu	x22,x19,1703	 x19:0x00000001 x22=0x00000001
       37235000	      3722	80001d64	05c1c063	blt	x3,x28,80001da4	  x3:0x00000000 x28:0x80009ebc
       37245000	      3723	80001d68	0575e263	bltu	x11,x23,80001dac	 x11:0x6e2ffec8 x23:0x5b81e000
       37255000	      3724	80001d6c	032f9063	bne	x31,x18,80001d8c	 x31:0x80009ffc x18:0xec009ede
       37265000	      3725	00000000	00000013	addi	x0,x0,0	  x0:0x00000000
       37275000	      3726	80001d88	00000013	addi	x0,x0,0	  x0:0x00000000
       37285000	      3727	80001d8c	b56cad93	slti	x27,x25,-1194	 x25:0x6400001a x27=0x00000000
       37295000	      3728	80001d90	02cb4a63	blt	x22,x12,80001dc4	 x22:0x00000001 x12:0x00000001
       37305000	      3729	80001d94	41a15613	srai	x12,x2,0x1a	  x2:0x00000000 x12=0x00000000
       37315000	      3730	80001d98	0042ceb3	xor	x29,x5,x4	  x5:0x00000000  x4:0x00000000 x29=0x00000000
       37325000	      3731	80001d9c	40645c93	srai	x25,x8,0x6	  x8:0xecb45a14 x25=0xffb2d168
       37335000	      3732	80001da0	3e752713	slti	x14,x10,999	 x10:0xecb45a14 x14=0x00000001
       37345000	      3733	80001da4	008c2933	slt	x18,x24,x8	 x24:0x00000000  x8:0xecb45a14 x18=0x00000000
       37355000	      3734	80001da8	00000013	addi	x0,x0,0	  x0:0x00000000
       37365000	      3735	80001dac	1ed2b313	sltiu	x6,x5,493	  x5:0x00000000  x6=0x00000001
       37375000	      3736	80001db0	01341a13	slli	x20,x8,0x13	  x8:0xecb45a14 x20=0xd0a00000
       37385000	      3737	80001db4	2aedc213	xori	x4,x27,686	 x27:0x00000000  x4=0x000002ae
       37395000	      3738	80001db8	0173cfb3	xor	x31,x7,x23	  x7:0x00000000 x23:0x5b81e000 x31=0x5b81e000
       37405000	      3739	80001dbc	e042b193	sltiu	x3,x5,-508	  x5:0x00000000  x3=0x00000001
       37415000	      3740	80001dc0	027a1c17	auipc	x24,0x27a1	 x24=0x827a2dbc
       37425000	      3741	80001dc4	9f9cf893	andi	x17,x25,-1543	 x25:0xffb2d168 x17=0xffb2d168
       37435000	      3742	80001dc8	410d84b3	sub	x9,x27,x16	 x27:0x00000000 x16:0x80009fc4  x9=0x7fff603c
       37445000	      3743	80001dcc	004e2a03	lw	x20,4(x28)	 x28:0x80009ebc x20=0x80005bdc PA:0x80009ec0
       37455000	      3744	80001dd0	009726b3	slt	x13,x14,x9	 x14:0x00000001  x9:0x7fff603c x13=0x00000001
       37465000	      3745	80001dd4	020e0e13	addi	x28,x28,32	 x28:0x80009ebc x28=0x80009edc
       37475000	      3746	80001dd8	7792a893	slti	x17,x5,1913	  x5:0x00000000 x17=0x00000001
       37485000	      3747	80001ddc	000a0413	addi	x8,x20,0	 x20:0x80005bdc  x8=0x80005bdc
       37495000	      3748	80001de0	00040467	jalr	x8,x8,0	  x8:0x80005bdc  x8=0x80001de0
       37505000	      3749	00000000	00000013	addi	x0,x0,0	  x0:0x00000000
       37515000	      3750	80005bdc	00000013	addi	x0,x0,0	  x0:0x00000000
       37525000	      3751	80005be0	538cc893	xori	x17,x25,1336	 x25:0xffb2d168 x17=0xffb2d450
       37535000	      3752	80005be4	01175b13	srli	x22,x14,0x11	 x14:0x00000001 x22=0x00000000
       37545000	      3753	80005be8	00121893	slli	x17,x4,0x1	  x4:0x000002ae x17=0x0000055c
       37555000	      3754	80005bec	01730033	add	x0,x6,x23	  x6:0x00000001 x23:0x5b81e000
       37565000	      3755	80005bf0	004b5cb3	srl	x25,x22,x4	 x22:0x00000000  x4:0x000002ae x25=0x00000000
       37575000	      3756	80005bf4	03c14263	blt	x2,x28,80005c18	  x2:0x00000000 x28:0x80009edc
       37585000	      3757	80005bf8	019f3a33	sltu	x20,x30,x25	 x30:0xffffffcf x25:0x00000000 x20=0x00000000
       37595000	      3758	80005bfc	5cfc2693	slti	x13,x24,1487	 x24:0x827a2dbc x13=0x00000001
       37605000	      3759	80005c00	037a8e63	beq	x21,x23,80005c3c	 x21:0x40000000 x23:0x5b81e000
       37615000	      3760	80005c04	01c532b3	sltu	x5,x10,x28	 x10:0xecb45a14 x28:0x80009edc  x5=0x00000000
       37625000	      3761	80005c08	03414c63	blt	x2,x20,80005c40	  x2:0x00000000 x20:0x00000000
       37635000	      3762	80005c0c	0149d463	bge	x19,x20,80005c14	 x19:0x00000001 x20:0x00000000
       37645000	      3763	00000000	00000013	addi	x0,x0,0	  x0:0x00000000
       37655000	      3764	80005c10	00000013	addi	x0,x0,0	  x0:0x00000000
       37665000	      3765	80005c14	03bef063	bgeu	x29,x27,80005c34	 x29:0x00000000 x27:0x00000000
       37675000	      3766	00000000	00000013	addi	x0,x0,0	  x0:0x00000000
       37685000	      3767	80005c30	00000013	addi	x0,x0,0	  x0:0x00000000
       37695000	      3768	80005c34	00a94bb3	xor	x23,x18,x10	 x18:0x00000000 x10:0xecb45a14 x23=0xecb45a14
       37705000	      3769	80005c38	6a31f3b7	lui	x7,0x6a31f	  x7=0x6a31f000
       37715000	      3770	80005c3c	03bdf063	bgeu	x27,x27,80005c5c	 x27:0x00000000 x27:0x00000000
       37725000	      3771	00000000	00000013	addi	x0,x0,0	  x0:0x00000000
       37735000	      3772	80005c58	00000013	addi	x0,x0,0	  x0:0x00000000
       37745000	      3773	80005c5c	0112c433	xor	x8,x5,x17	  x5:0x00000000 x17:0x0000055c  x8=0x0000055c
       37755000	      3774	80005c60	011d1693	slli	x13,x26,0x11	 x26:0x80000000 x13=0x00000000
       37765000	      3775	80005c64	011dbf33	sltu	x30,x27,x17	 x27:0x00000000 x17:0x0000055c x30=0x00000001
       37775000	      3776	80005c68	004e2a03	lw	x20,4(x28)	 x28:0x80009edc x20=0x80005ac8 PA:0x80009ee0
       37785000	      3777	80005c6c	b8f4cc93	xori	x25,x9,-1137	  x9:0x7fff603c x25=0x80009bb3
       37795000	      3778	80005c70	00b15e93	srli	x29,x2,0xb	  x2:0x00000000 x29=0x00000000
       37805000	      3779	80005c74	00ce0e13	addi	x28,x28,12	 x28:0x80009edc x28=0x80009ee8
       37815000	      3780	80005c78	1c057713	andi	x14,x10,448	 x10:0xecb45a14 x14=0x00000000
       37825000	      3781	80005c7c	01901733	sll	x14,x0,x25	  x0:0x00000000 x25:0x80009bb3 x14=0x00000000
       37835000	      3782	80005c80	0163f933	and	x18,x7,x22	  x7:0x6a31f000 x22:0x00000000 x18=0x00000000
       37845000	      3783	80005c84	b3199937	lui	x18,0xb3199	 x18=0xb3199000
       37855000	      3784	80005c88	015441b3	xor	x3,x8,x21	  x8:0x0000055c x21:0x40000000  x3=0x4000055c
       37865000	      3785	80005c8c	000a0313	addi	x6,x20,0	 x20:0x80005ac8  x6=0x80005ac8
       37875000	      3786	80005c90	00030367	jalr	x6,x6,0	  x6:0x80005ac8  x6=0x80005c90
       37885000	      3787	00000000	00000013	addi	x0,x0,0	  x0:0x00000000
       37895000	      3788	80005ac8	00000013	addi	x0,x0,0	  x0:0x00000000
       37905000	      3789	80005acc	00abdbb3	srl	x23,x23,x10	 x23:0xecb45a14 x10:0xecb45a14 x23=0x00000ecb
       37915000	      3790	80005ad0	6de8b413	sltiu	x8,x17,1758	 x17:0x0000055c  x8=0x00000001
       37925000	      3791	80005ad4	016d3c33	sltu	x24,x26,x22	 x26:0x80000000 x22:0x00000000 x24=0x00000000
       37935000	      3792	80005ad8	40d0d433	sra	x8,x1,x13	  x1:0x00000051 x13:0x00000000  x8=0x00000051
       37945000	      3793	80005adc	00dd7633	and	x12,x26,x13	 x26:0x80000000 x13:0x00000000 x12=0x00000000
       37955000	      3794	80005ae0	00639693	slli	x13,x7,0x6	  x7:0x6a31f000 x13=0x8c7c0000
       37965000	      3795	80005ae4	040b6463	bltu	x22,x0,80005b2c	 x22:0x00000000  x0:0x00000000
       37975000	      3796	80005ae8	01e9c033	xor	x0,x19,x30	 x19:0x00000001 x30:0x00000001
       37985000	      3797	80005aec	01f8d9b3	srl	x19,x17,x31	 x17:0x0000055c x31:0x5b81e000 x19=0x0000055c
       37995000	      3798	80005af0	01bad633	srl	x12,x21,x27	 x21:0x40000000 x27:0x00000000 x12=0x40000000
       38005000	      3799	80005af4	a1b00f13	addi	x30,x0,-1509	  x0:0x00000000 x30=0xfffffa1b
       38015000	      3800	80005af8	670641b7	lui	x3,0x67064	  x3=0x67064000
       38025000	      3801	80005afc	f46aa593	slti	x11,x21,-186	 x21:0x40000000 x11=0x00000000
       38035000	      3802	80005b00	00b58933	add	x18,x11,x11	 x11:0x00000000 x11:0x00000000 x18=0x00000000
       38045000	      3803	80005b04	41a9d393	srai	x7,x19,0x1a	 x19:0x0000055c  x7=0x00000000
       38055000	      3804	80005b08	014ec4b3	xor	x9,x29,x20	 x29:0x00000000 x20:0x80005ac8  x9=0x80005ac8
       38065000	      3805	80005b0c	0156fa63	bgeu	x13,x21,80005b20	 x13:0x8c7c0000 x21:0x40000000
       38075000	      3806	00000000	00000013	addi	x0,x0,0	  x0:0x00000000
       38085000	      3807	80005b1c	00000013	addi	x0,x0,0	  x0:0x00000000
       38095000	      3808	80005b20	40e78a33	sub	x20,x15,x14	 x15:0x00000051 x14:0x00000000 x20=0x00000051
       38105000	      3809	80005b24	00000013	addi	x0,x0,0	  x0:0x00000000
       38115000	      3810	80005b28	00bfff33	and	x30,x31,x11	 x31:0x5b81e000 x11:0x00000000 x30=0x00000000
       38125000	      3811	80005b2c	00f3bdb3	sltu	x27,x7,x15	  x7:0x00000000 x15:0x00000051 x27=0x00000001
       38135000	      3812	80005b30	bbb1a493	slti	x9,x3,-1093	  x3:0x67064000  x9=0x00000000
       38145000	      3813	80005b34	01179313	slli	x6,x15,0x11	 x15:0x00000051  x6=0x00a20000
       38155000	      3814	80005b38	4d097193	andi	x3,x18,1232	 x18:0x00000000  x3=0x00000000
       38165000	      3815	80005b3c	004e2a03	lw	x20,4(x28)	 x28:0x80009ee8 x20=0x80006884 PA:0x80009eec
       38175000	      3816	80005b40	41cf87b3	sub	x15,x31,x28	 x31:0x5b81e000 x28:0x80009ee8 x15=0xdb814118
       38185000	      3817	80005b44	41ddd713	srai	x14,x27,0x1d	 x27:0x00000001 x14=0x00000000
       38195000	      3818	80005b48	000a7033	and	x0,x20,x0	 x20:0x80006884  x0:0x00000000
       38205000	      3819	80005b4c	040e0e13	addi	x28,x28,64	 x28:0x80009ee8 x28=0x80009f28
       38215000	      3820	80005b50	d6379e97	auipc	x29,0xd6379	 x29=0x5637eb4c
       38225000	      3821	80005b54	7cd3bc97	auipc	x25,0x7cd3b	 x25=0xfcd40b50
       38235000	      3822	80005b58	01e47113	andi	x2,x8,30	  x8:0x00000051  x2=0x00000010
       38245000	      3823	80005b5c	001a0493	addi	x9,x20,1	 x20:0x80006884  x9=0x80006885
       38255000	      3824	80005b60	000484e7	jalr	x9,x9,0	  x9:0x80006885  x9=0x80005b60
       38265000	      3825	00000000	00000013	addi	x0,x0,0	  x0:0x00000000
       38275000	      3826	80006884	00000013	addi	x0,x0,0	  x0:0x00000000
       38285000	      3827	80006888	fb017e93	andi	x29,x2,-80	  x2:0x00000010 x29=0x00000010
       38295000	      3828	8000688c	015bc863	blt	x23,x21,8000689c	 x23:0x00000ecb x21:0x40000000
       38305000	      3829	00000000	00000013	addi	x0,x0,0	  x0:0x00000000
       38315000	      3830	80006898	00000013	addi	x0,x0,0	  x0:0x00000000
       38325000	      3831	8000689c	b7f44713	xori	x14,x8,-1153	  x8:0x00000051 x14=0xfffffb2e
       38335000	      3832	800068a0	00a3dd93	srli	x27,x7,0xa	  x7:0x00000000 x27=0x00000000
       38345000	      3833	800068a4	d78179b7	lui	x19,0xd7817	 x19=0xd7817000
       38355000	      3834	800068a8	bb45b613	sltiu	x12,x11,-1100	 x11:0x00000000 x12=0x00000001
       38365000	      3835	800068ac	05898863	beq	x19,x24,800068fc	 x19:0xd7817000 x24:0x00000000
       38375000	      3836	800068b0	d771f293	andi	x5,x3,-649	  x3:0x00000000  x5=0x00000000
       38385000	      3837	800068b4	04d67063	bgeu	x12,x13,800068f4	 x12:0x00000001 x13:0x8c7c0000
       38395000	      3838	800068b8	003f90b3	sll	x1,x31,x3	 x31:0x5b81e000  x3:0x00000000  x1=0x5b81e000
       38405000	      3839	800068bc	014bd693	srli	x13,x23,0x14	 x23:0x00000ecb x13=0x00000000
       38415000	      3840	800068c0	59d0bc93	sltiu	x25,x1,1437	  x1:0x5b81e000 x25=0x00000000
       38425000	      3841	800068c4	0166d8b3	srl	x17,x13,x22	 x13:0x00000000 x22:0x00000000 x17=0x00000000
       38435000	      3842	800068c8	017c6933	or	x18,x24,x23	 x24:0x00000000 x23:0x00000ecb x18=0x00000ecb
       38445000	      3843	800068cc	01e70933	add	x18,x14,x30	 x14:0xfffffb2e x30:0x00000000 x18=0xfffffb2e
       38455000	      3844	800068d0	03c5f063	bgeu	x11,x28,800068f0	 x11:0x00000000 x28:0x80009f28
       38465000	      3845	800068d4	e3fdd717	auipc	x14,0xe3fdd	 x14=0x63fe38d0
       38475000	      3846	800068d8	002e8233	add	x4,x29,x2	 x29:0x00000010  x2:0x00000010  x4=0x00000020
       38485000	      3847	800068dc	03a41463	bne	x8,x26,80006904	  x8:0x00000051 x26:0x80000000
       38495000	      3848	00000000	00000013	addi	x0,x0,0	  x0:0x00000000
       38505000	      3849	80006900	00000013	addi	x0,x0,0	  x0:0x00000000
       38515000	      3850	80006904	03d7d663	bge	x15,x29,80006930	 x15:0xdb814118 x29:0x00000010
       38525000	      3851	80006908	02445a63	bge	x8,x4,8000693c	  x8:0x00000051  x4:0x00000020
       38535000	      3852	00000000	00000013	addi	x0,x0,0	  x0:0x00000000
       38545000	      3853	80006938	00000013	addi	x0,x0,0	  x0:0x00000000
       38555000	      3854	8000693c	0b631c63	bne	x6,x22,800069f4	  x6:0x00a20000 x22:0x00000000
       38565000	      3855	00000000	00000013	addi	x0,x0,0	  x0:0x00000000
       38575000	      3856	800069f0	00000013	addi	x0,x0,0	  x0:0x00000000
       38585000	      3857	800069f4	01481693	slli	x13,x16,0x14	 x16:0x80009fc4 x13=0xfc400000
       38595000	      3858	800069f8	43912313	slti	x6,x2,1081	  x2:0x00000010  x6=0x00000001
       38605000	      3859	800069fc	02527263	bgeu	x4,x5,80006a20	  x4:0x00000020  x5:0x00000000
       38615000	      3860	00000000	00000013	addi	x0,x0,0	  x0:0x00000000
       38625000	      3861	80006a1c	00000013	addi	x0,x0,0	  x0:0x00000000
       38635000	      3862	80006a20	00ebcf33	xor	x30,x23,x14	 x23:0x00000ecb x14:0x63fe38d0 x30=0x63fe361b
       38645000	      3863	80006a24	40d7df13	srai	x30,x15,0xd	 x15:0xdb814118 x30=0xfffedc0a
       38655000	      3864	80006a28	00ddd233	srl	x4,x27,x13	 x27:0x00000000 x13:0xfc400000  x4=0x00000000
       38665000	      3865	80006a2c	00405933	srl	x18,x0,x4	  x0:0x00000000  x4:0x00000000 x18=0x00000000
       38675000	      3866	80006a30	017537b3	sltu	x15,x10,x23	 x10:0xecb45a14 x23:0x00000ecb x15=0x00000000
       38685000	      3867	80006a34	41f20a33	sub	x20,x4,x31	  x4:0x00000000 x31:0x5b81e000 x20=0xa47e2000
       38695000	      3868	80006a38	01ae43b3	xor	x7,x28,x26	 x28:0x80009f28 x26:0x80000000  x7=0x00009f28
       38705000	      3869	80006a3c	0165c333	xor	x6,x11,x22	 x11:0x00000000 x22:0x00000000  x6=0x00000000
       38715000	      3870	80006a40	01db70b3	and	x1,x22,x29	 x22:0x00000000 x29:0x00000010  x1=0x00000000
       38725000	      3871	80006a44	41525013	srai	x0,x4,0x15	  x4:0x00000000
       38735000	      3872	80006a48	0109fc63	bgeu	x19,x16,80006a60	 x19:0xd7817000 x16:0x80009fc4
       38745000	      3873	00000000	00000013	addi	x0,x0,0	  x0:0x00000000
       38755000	      3874	80006a5c	00000013	addi	x0,x0,0	  x0:0x00000000
       38765000	      3875	80006a60	41f85013	srai	x0,x16,0x1f	 x16:0x80009fc4
       38775000	      3876	80006a64	014c70b3	and	x1,x24,x20	 x24:0x00000000 x20:0xa47e2000  x1=0x00000000
       38785000	      3877	80006a68	011106b3	add	x13,x2,x17	  x2:0x00000010 x17:0x00000000 x13=0x00000010
       38795000	      3878	80006a6c	40c887b3	sub	x15,x17,x12	 x17:0x00000000 x12:0x00000001 x15=0xffffffff
       38805000	      3879	80006a70	01545a33	srl	x20,x8,x21	  x8:0x00000051 x21:0x40000000 x20=0x00000051
       38815000	      3880	80006a74	00d81393	slli	x7,x16,0xd	 x16:0x80009fc4  x7=0x13f88000
       38825000	      3881	80006a78	41c25533	sra	x10,x4,x28	  x4:0x00000000 x28:0x80009f28 x10=0x00000000
       38835000	      3882	80006a7c	0114e133	or	x2,x9,x17	  x9:0x80005b60 x17:0x00000000  x2=0x80005b60
       38845000	      3883	80006a80	008d0c63	beq	x26,x8,80006a98	 x26:0x80000000  x8:0x00000051
       38855000	      3884	80006a84	0142b6b3	sltu	x13,x5,x20	  x5:0x00000000 x20:0x00000051 x13=0x00000001
       38865000	      3885	80006a88	40f65c33	sra	x24,x12,x15	 x12:0x00000001 x15:0xffffffff x24=0x00000000
       38875000	      3886	80006a8c	01bec5b3	xor	x11,x29,x27	 x29:0x00000010 x27:0x00000000 x11=0x00000010
       38885000	      3887	80006a90	410e8033	sub	x0,x29,x16	 x29:0x00000010 x16:0x80009fc4
       38895000	      3888	80006a94	031d0463	beq	x26,x17,80006abc	 x26:0x80000000 x17:0x00000000
       38905000	      3889	80006a98	88597e93	andi	x29,x18,-1915	 x18:0x00000000 x29=0x00000000
       38915000	      3890	80006a9c	005c9863	bne	x25,x5,80006aac	 x25:0x00000000  x5:0x00000000
       38925000	      3891	80006aa0	408682b3	sub	x5,x13,x8	 x13:0x00000001  x8:0x00000051  x5=0xffffffb0
       38935000	      3892	80006aa4	00531bb3	sll	x23,x6,x5	  x6:0x00000000  x5:0xffffffb0 x23=0x00000000
       38945000	      3893	80006aa8	b9a6f413	andi	x8,x13,-1126	 x13:0x00000001  x8=0x00000000
       38955000	      3894	80006aac	f3b6e793	ori	x15,x13,-197	 x13:0x00000001 x15=0xffffff3b
       38965000	      3895	80006ab0	01f24663	blt	x4,x31,80006abc	  x4:0x00000000 x31:0x5b81e000
       38975000	      3896	00000000	00000013	addi	x0,x0,0	  x0:0x00000000
       38985000	      3897	80006ab8	00000013	addi	x0,x0,0	  x0:0x00000000
       38995000	      3898	80006abc	00000013	addi	x0,x0,0	  x0:0x00000000
       39005000	      3899	80006ac0	0048a8b3	slt	x17,x17,x4	 x17:0x00000000  x4:0x00000000 x17=0x00000000
       39015000	      3900	80006ac4	4033d513	srai	x10,x7,0x3	  x7:0x13f88000 x10=0x027f1000
       39025000	      3901	80006ac8	3e134913	xori	x18,x6,993	  x6:0x00000000 x18=0x000003e1
       39035000	      3902	80006acc	004e2a03	lw	x20,4(x28)	 x28:0x80009f28 x20=0x80001e58 PA:0x80009f2c
       39045000	      3903	80006ad0	00829c93	slli	x25,x5,0x8	  x5:0xffffffb0 x25=0xffffb000
       39055000	      3904	80006ad4	008e0e13	addi	x28,x28,8	 x28:0x80009f28 x28=0x80009f30
       39065000	      3905	80006ad8	41e586b3	sub	x13,x11,x30	 x11:0x00000010 x30:0xfffedc0a x13=0x00012406
       39075000	      3906	80006adc	001a0893	addi	x17,x20,1	 x20:0x80001e58 x17=0x80001e59
       39085000	      3907	80006ae0	000888e7	jalr	x17,x17,0	 x17:0x80001e59 x17=0x80006ae0
       39095000	      3908	00000000	00000013	addi	x0,x0,0	  x0:0x00000000
       39105000	      3909	80001e58	00000013	addi	x0,x0,0	  x0:0x00000000
       39115000	      3910	80001e5c	40630333	sub	x6,x6,x6	  x6:0x00000000  x6:0x00000000  x6=0x00000000
       39125000	      3911	80001e60	0400e663	bltu	x1,x0,80001eac	  x1:0x00000000  x0:0x00000000
       39135000	      3912	80001e64	01cf9a63	bne	x31,x28,80001e78	 x31:0x5b81e000 x28:0x80009f30
       39145000	      3913	00000000	00000013	addi	x0,x0,0	  x0:0x00000000
       39155000	      3914	80001e74	00000013	addi	x0,x0,0	  x0:0x00000000
       39165000	      3915	80001e78	014ddfb3	srl	x31,x27,x20	 x27:0x00000000 x20:0x80001e58 x31=0x00000000
       39175000	      3916	80001e7c	5004f113	andi	x2,x9,1280	  x9:0x80005b60  x2=0x00000100
       39185000	      3917	80001e80	41385a93	srai	x21,x16,0x13	 x16:0x80009fc4 x21=0xfffff000
       39195000	      3918	80001e84	936fb793	sltiu	x15,x31,-1738	 x31:0x00000000 x15=0x00000001
       39205000	      3919	80001e88	00000013	addi	x0,x0,0	  x0:0x00000000
       39215000	      3920	80001e8c	d407d0b7	lui	x1,0xd407d	  x1=0xd407d000
       39225000	      3921	80001e90	001e7863	bgeu	x28,x1,80001ea0	 x28:0x80009f30  x1:0xd407d000
       39235000	      3922	80001e94	014077b3	and	x15,x0,x20	  x0:0x00000000 x20:0x80001e58 x15=0x00000000
       39245000	      3923	80001e98	00096863	bltu	x18,x0,80001ea8	 x18:0x000003e1  x0:0x00000000
       39255000	      3924	80001e9c	9cf30b93	addi	x23,x6,-1585	  x6:0x00000000 x23=0xfffff9cf
       39265000	      3925	80001ea0	0395de63	bge	x11,x25,80001edc	 x11:0x00000010 x25:0xffffb000
       39275000	      3926	00000000	00000013	addi	x0,x0,0	  x0:0x00000000
       39285000	      3927	80001ed8	00000013	addi	x0,x0,0	  x0:0x00000000
       39295000	      3928	80001edc	bfe16893	ori	x17,x2,-1026	  x2:0x00000100 x17=0xfffffbfe
       39305000	      3929	80001ee0	faf1c437	lui	x8,0xfaf1c	  x8=0xfaf1c000
       39315000	      3930	80001ee4	957d3a13	sltiu	x20,x26,-1705	 x26:0x80000000 x20=0x00000001
       39325000	      3931	80001ee8	029b7c63	bgeu	x22,x9,80001f20	 x22:0x00000000  x9:0x80005b60
       39335000	      3932	80001eec	36930c13	addi	x24,x6,873	  x6:0x00000000 x24=0x00000369
       39345000	      3933	80001ef0	032e5a63	bge	x28,x18,80001f24	 x28:0x80009f30 x18:0x000003e1
       39355000	      3934	80001ef4	00748463	beq	x9,x7,80001efc	  x9:0x80005b60  x7:0x13f88000
       39365000	      3935	80001ef8	00f31c13	slli	x24,x6,0xf	  x6:0x00000000 x24=0x00000000
       39375000	      3936	80001efc	0151c663	blt	x3,x21,80001f08	  x3:0x00000000 x21:0xfffff000
       39385000	      3937	80001f00	de6103b7	lui	x7,0xde610	  x7=0xde610000
       39395000	      3938	80001f04	05598263	beq	x19,x21,80001f48	 x19:0xd7817000 x21:0xfffff000
       39405000	      3939	80001f08	01c725b3	slt	x11,x14,x28	 x14:0x63fe38d0 x28:0x80009f30 x11=0x00000000
       39415000	      3940	80001f0c	015c1913	slli	x18,x24,0x15	 x24:0x00000000 x18=0x00000000
       39425000	      3941	80001f10	72ad4293	xori	x5,x26,1834	 x26:0x80000000  x5=0x8000072a
       39435000	      3942	80001f14	00000013	addi	x0,x0,0	  x0:0x00000000
       39445000	      3943	80001f18	009d5263	bge	x26,x9,80001f1c	 x26:0x80000000  x9:0x80005b60
       39455000	      3944	80001f1c	01f0feb3	and	x29,x1,x31	  x1:0xd407d000 x31:0x00000000 x29=0x00000000
       39465000	      3945	80001f20	016396b3	sll	x13,x7,x22	  x7:0xde610000 x22:0x00000000 x13=0xde610000
       39475000	      3946	80001f24	62529a97	auipc	x21,0x62529	 x21=0xe252af20
       39485000	      3947	80001f28	01277bb3	and	x23,x14,x18	 x14:0x63fe38d0 x18:0x00000000 x23=0x00000000
       39495000	      3948	80001f2c	403d5513	srai	x10,x26,0x3	 x26:0x80000000 x10=0xf0000000
       39505000	      3949	80001f30	00c54133	xor	x2,x10,x12	 x10:0xf0000000 x12:0x00000001  x2=0xf0000001
       39515000	      3950	80001f34	00129533	sll	x10,x5,x1	  x5:0x8000072a  x1:0xd407d000 x10=0x8000072a
       39525000	      3951	80001f38	0290fa63	bgeu	x1,x9,80001f6c	  x1:0xd407d000  x9:0x80005b60
       39535000	      3952	00000000	00000013	addi	x0,x0,0	  x0:0x00000000
       39545000	      3953	80001f68	00000013	addi	x0,x0,0	  x0:0x00000000
       39555000	      3954	80001f6c	01bbcdb3	xor	x27,x23,x27	 x23:0x00000000 x27:0x00000000 x27=0x00000000
       39565000	      3955	80001f70	0386e463	bltu	x13,x24,80001f98	 x13:0xde610000 x24:0x00000000
       39575000	      3956	80001f74	401fd2b3	sra	x5,x31,x1	 x31:0x00000000  x1:0xd407d000  x5=0x00000000
       39585000	      3957	80001f78	018608b3	add	x17,x12,x24	 x12:0x00000001 x24:0x00000000 x17=0x00000001
       39595000	      3958	80001f7c	009fd433	srl	x8,x31,x9	 x31:0x00000000  x9:0x80005b60  x8=0x00000000
       39605000	      3959	80001f80	0114e3b3	or	x7,x9,x17	  x9:0x80005b60 x17:0x00000001  x7=0x80005b61
       39615000	      3960	80001f84	2d5db113	sltiu	x2,x27,725	 x27:0x00000000  x2=0x00000001
       39625000	      3961	80001f88	00b269b3	or	x19,x4,x11	  x4:0x00000000 x11:0x00000000 x19=0x00000000
       39635000	      3962	80001f8c	033b8463	beq	x23,x19,80001fb4	 x23:0x00000000 x19:0x00000000
       39645000	      3963	00000000	00000013	addi	x0,x0,0	  x0:0x00000000
       39655000	      3964	80001fb0	00000013	addi	x0,x0,0	  x0:0x00000000
       39665000	      3965	80001fb4	00b31663	bne	x6,x11,80001fc0	  x6:0x00000000 x11:0x00000000
       39675000	      3966	80001fb8	010c9ab3	sll	x21,x25,x16	 x25:0xffffb000 x16:0x80009fc4 x21=0xfffb0000
       39685000	      3967	80001fbc	be64ea13	ori	x20,x9,-1050	  x9:0x80005b60 x20=0xfffffbe6
       39695000	      3968	80001fc0	00085c93	srli	x25,x16,0x0	 x16:0x80009fc4 x25=0x80009fc4
       39705000	      3969	80001fc4	37e3ac93	slti	x25,x7,894	  x7:0x80005b61 x25=0x00000001
       39715000	      3970	80001fc8	403ed213	srai	x4,x29,0x3	 x29:0x00000000  x4=0x00000000
       39725000	      3971	80001fcc	01205013	srli	x0,x0,0x12	  x0:0x00000000
       39735000	      3972	80001fd0	013e4033	xor	x0,x28,x19	 x28:0x80009f30 x19:0x00000000
       39745000	      3973	80001fd4	446d7017	auipc	x0,0x446d7	
       39755000	      3974	80001fd8	01b53133	sltu	x2,x10,x27	 x10:0x8000072a x27:0x00000000  x2=0x00000000
       39765000	      3975	80001fdc	004e2a03	lw	x20,4(x28)	 x28:0x80009f30 x20=0x80002a68 PA:0x80009f34
       39775000	      3976	00000000	00000013	addi	x0,x0,0	  x0:0x00000000
       39785000	      3977	80001fe0	014e0e13	addi	x28,x28,20	 x28:0x80009f30 x28=0x80009f44
       39795000	      3978	80001fe4	0052dc13	srli	x24,x5,0x5	  x5:0x00000000 x24=0x00000000
       39805000	      3979	80001fe8	01d9dbb3	srl	x23,x19,x29	 x19:0x00000000 x29:0x00000000 x23=0x00000000
       39815000	      3980	80001fec	001a0893	addi	x17,x20,1	 x20:0x80002a68 x17=0x80002a69
       39825000	      3981	80001ff0	000888e7	jalr	x17,x17,0	 x17:0x80002a69 x17=0x80001ff0
       39835000	      3982	00000000	00000013	addi	x0,x0,0	  x0:0x00000000
       39845000	      3983	80002a68	00000013	addi	x0,x0,0	  x0:0x00000000
       39855000	      3984	80002a6c	00006497	auipc	x9,0x6	  x9=0x80008a68
       39865000	      3985	80002a70	02648493	addi	x9,x9,38	  x9:0x80008a68  x9=0x80008a8e
       39875000	      3986	80002a74	543be793	ori	x15,x23,1347	 x23:0x00000000 x15=0x00000543
       39885000	      3987	80002a78	04a57293	andi	x5,x10,74	 x10:0x8000072a  x5=0x0000000a
       39895000	      3988	80002a7c	209ec693	xori	x13,x29,521	 x29:0x00000000 x13=0x00000209
       39905000	      3989	80002a80	00caa933	slt	x18,x21,x12	 x21:0xfffb0000 x12:0x00000001 x18=0x00000001
       39915000	      3990	80002a84	0374cc03	lbu	x24,55(x9)	  x9:0x80008a8e x24=0x000000d4 PA:0x80008ac5
       39925000	      3991	80002a88	02b4c603	lbu	x12,43(x9)	  x9:0x80008a8e x12=0x000000c7 PA:0x80008ab9
       39935000	      3992	80002a8c	fce4c283	lbu	x5,-50(x9)	  x9:0x80008a8e  x5=0x00000046 PA:0x80008a5c
       39945000	      3993	80002a90	5a936393	ori	x7,x6,1449	  x6:0x00000000  x7=0x000005a9
       39955000	      3994	80002a94	00948103	lb	x2,9(x9)	  x9:0x80008a8e  x2=0xffffff82 PA:0x80008a97
       39965000	      3995	80002a98	00631933	sll	x18,x6,x6	  x6:0x00000000  x6:0x00000000 x18=0x00000000
       39975000	      3996	80002a9c	fe94c783	lbu	x15,-23(x9)	  x9:0x80008a8e x15=0x00000025 PA:0x80008a77
       39985000	      3997	80002aa0	01750eb3	add	x29,x10,x23	 x10:0x8000072a x23:0x00000000 x29=0x8000072a
       39995000	      3998	80002aa4	00571eb3	sll	x29,x14,x5	 x14:0x63fe38d0  x5:0x00000046 x29=0xff8e3400
       40005000	      3999	80002aa8	00509033	sll	x0,x1,x5	  x1:0xd407d000  x5:0x00000046
       40015000	      4000	80002aac	fdd48783	lb	x15,-35(x9)	  x9:0x80008a8e x15=0x0000007a PA:0x80008a6b
       40025000	      4001	80002ab0	01548583	lb	x11,21(x9)	  x9:0x80008a8e x11=0x00000011 PA:0x80008aa3
       40035000	      4002	80002ab4	01c48da3	sb	x28,27(x9)	  x9:0x80008a8e x28:0x80009f44 PA:0x80008aa9
       40045000	      4003	80002ab8	003c2733	slt	x14,x24,x3	 x24:0x000000d4  x3:0x00000000 x14=0x00000000
       40055000	      4004	80002abc	00faf533	and	x10,x21,x15	 x21:0xfffb0000 x15:0x0000007a x10=0x00000000
       40065000	      4005	80002ac0	0154c783	lbu	x15,21(x9)	  x9:0x80008a8e x15=0x00000011 PA:0x80008aa3
       40075000	      4006	80002ac4	46657f37	lui	x30,0x46657	 x30=0x46657000
       40085000	      4007	80002ac8	01161cb3	sll	x25,x12,x17	 x12:0x000000c7 x17:0x80001ff0 x25=0x00c70000
       40095000	      4008	80002acc	fc44c703	lbu	x14,-60(x9)	  x9:0x80008a8e x14=0x000000c1 PA:0x80008a52
       40105000	      4009	00000000	00000013	addi	x0,x0,0	  x0:0x00000000
       40115000	      4010	80002ad0	00e4c233	xor	x4,x9,x14	  x9:0x80008a8e x14:0x000000c1  x4=0x80008a4f
       40125000	      4011	80002ad4	fcd48503	lb	x10,-51(x9)	  x9:0x80008a8e x10=0xffffffa4 PA:0x80008a5b
       40135000	      4012	80002ad8	01166c33	or	x24,x12,x17	 x12:0x000000c7 x17:0x80001ff0 x24=0x80001ff7
       40145000	      4013	80002adc	40750733	sub	x14,x10,x7	 x10:0xffffffa4  x7:0x000005a9 x14=0xfffff9fb
       40155000	      4014	80002ae0	00bfffb3	and	x31,x31,x11	 x31:0x00000000 x11:0x00000011 x31=0x00000000
       40165000	      4015	80002ae4	e61fa893	slti	x17,x31,-415	 x31:0x00000000 x17=0x00000000
       40175000	      4016	80002ae8	bb670713	addi	x14,x14,-1098	 x14:0xfffff9fb x14=0xfffff5b1
       40185000	      4017	80002aec	ff64ab03	lw	x22,-10(x9)	  x9:0x80008a8e x22=0x039589c6 PA:0x80008a84
       40195000	      4018	80002af0	fd04c703	lbu	x14,-48(x9)	  x9:0x80008a8e x14=0x0000006f PA:0x80008a5e
       40205000	      4019	80002af4	036489a3	sb	x22,51(x9)	  x9:0x80008a8e x22:0x039589c6 PA:0x80008ac1
       40215000	      4020	80002af8	b6160593	addi	x11,x12,-1183	 x12:0x000000c7 x11=0xfffffc28
       40225000	      4021	80002afc	0364a983	lw	x19,54(x9)	  x9:0x80008a8e x19=0x188ed4f2 PA:0x80008ac4
       40235000	      4022	80002b00	00697633	and	x12,x18,x6	 x18:0x00000000  x6:0x00000000 x12=0x00000000
       40245000	      4023	80002b04	9c04fb13	andi	x22,x9,-1600	  x9:0x80008a8e x22=0x80008880
       40255000	      4024	80002b08	05e66593	ori	x11,x12,94	 x12:0x00000000 x11=0x0000005e
       40265000	      4025	80002b0c	fd649103	lh	x2,-42(x9)	  x9:0x80008a8e  x2=0xffff961c PA:0x80008a64
       40275000	      4026	80002b10	36f36293	ori	x5,x6,879	  x6:0x00000000  x5=0x0000036f
       40285000	      4027	80002b14	fdb49723	sh	x27,-50(x9)	  x9:0x80008a8e x27:0x00000000 PA:0x80008a5c
       40295000	      4028	80002b18	00000013	addi	x0,x0,0	  x0:0x00000000
       40305000	      4029	80002b1c	fe54ca83	lbu	x21,-27(x9)	  x9:0x80008a8e x21=0x00000048 PA:0x80008a73
       40315000	      4030	80002b20	7b960c93	addi	x25,x12,1977	 x12:0x00000000 x25=0x000007b9
       40325000	      4031	80002b24	0194cf83	lbu	x31,25(x9)	  x9:0x80008a8e x31=0x00000066 PA:0x80008aa7
       40335000	      4032	80002b28	03a49c03	lh	x24,58(x9)	  x9:0x80008a8e x24=0x00007dd0 PA:0x80008ac8
       40345000	      4033	80002b2c	fda4af83	lw	x31,-38(x9)	  x9:0x80008a8e x31=0x7a77316c PA:0x80008a68
       40355000	      4034	80002b30	0014a633	slt	x12,x9,x1	  x9:0x80008a8e  x1:0xd407d000 x12=0x00000001
       40365000	      4035	80002b34	fd448a83	lb	x21,-44(x9)	  x9:0x80008a8e x21=0xffffffa5 PA:0x80008a62
       40375000	      4036	80002b38	0028b733	sltu	x14,x17,x2	 x17:0x00000000  x2:0xffff961c x14=0x00000001
       40385000	      4037	80002b3c	00b485a3	sb	x11,11(x9)	  x9:0x80008a8e x11:0x0000005e PA:0x80008a99
       40395000	      4038	80002b40	01d870b3	and	x1,x16,x29	 x16:0x80009fc4 x29:0xff8e3400  x1=0x80001400
       40405000	      4039	80002b44	fe248da3	sb	x2,-5(x9)	  x9:0x80008a8e  x2:0xffff961c PA:0x80008a89
       40415000	      4040	80002b48	0324c003	lbu	x0,50(x9)	  x9:0x80008a8e PA:0x80008ac0
       40425000	      4041	80002b4c	fe54a723	sw	x5,-18(x9)	  x9:0x80008a8e  x5:0x0000036f PA:0x80008a7c
       40435000	      4042	80002b50	020483a3	sb	x0,39(x9)	  x9:0x80008a8e  x0:0x00000000 PA:0x80008ab5
       40445000	      4043	80002b54	00005417	auipc	x8,0x5	  x8=0x80007b50
       40455000	      4044	80002b58	7de40413	addi	x8,x8,2014	  x8:0x80007b50  x8=0x8000832e
       40465000	      4045	80002b5c	750cf713	andi	x14,x25,1872	 x25:0x000007b9 x14=0x00000710
       40475000	      4046	80002b60	d0e73b93	sltiu	x23,x14,-754	 x14:0x00000710 x23=0x00000001
       40485000	      4047	80002b64	20c41e23	sh	x12,540(x8)	  x8:0x8000832e x12:0x00000001 PA:0x8000854a
       40495000	      4048	80002b68	a83fb913	sltiu	x18,x31,-1405	 x31:0x7a77316c x18=0x00000001
       40505000	      4049	80002b6c	eb441c03	lh	x24,-332(x8)	  x8:0x8000832e x24=0x0000192a PA:0x800081e2
       40515000	      4050	80002b70	01f94633	xor	x12,x18,x31	 x18:0x00000001 x31:0x7a77316c x12=0x7a77316d
       40525000	      4051	80002b74	1d840c83	lb	x25,472(x8)	  x8:0x8000832e x25=0xffffffda PA:0x80008506
       40535000	      4052	80002b78	008b09b3	add	x19,x22,x8	 x22:0x80008880  x8:0x8000832e x19=0x00010bae
       40545000	      4053	80002b7c	41e7d013	srai	x0,x15,0x1e	 x15:0x00000011
       40555000	      4054	80002b80	e3fc2193	slti	x3,x24,-449	 x24:0x0000192a  x3=0x00000000
       40565000	      4055	80002b84	feaf9517	auipc	x10,0xfeaf9	 x10=0x7eafbb80
       40575000	      4056	80002b88	58eee913	ori	x18,x29,1422	 x29:0xff8e3400 x18=0xff8e358e
       40585000	      4057	80002b8c	00000013	addi	x0,x0,0	  x0:0x00000000
       40595000	      4058	80002b90	d5744d83	lbu	x27,-681(x8)	  x8:0x8000832e x27=0x0000002a PA:0x80008085
       40605000	      4059	80002b94	405c5b33	sra	x22,x24,x5	 x24:0x0000192a  x5:0x0000036f x22=0x00000000
       40615000	      4060	80002b98	1e67b397	auipc	x7,0x1e67b	  x7=0x9e67db94
       40625000	      4061	80002b9c	3e644483	lbu	x9,998(x8)	  x8:0x8000832e  x9=0x0000006c PA:0x80008714
       40635000	      4062	80002ba0	07b40883	lb	x17,123(x8)	  x8:0x8000832e x17=0x0000000a PA:0x800083a9
       40645000	      4063	80002ba4	dce40823	sb	x14,-560(x8)	  x8:0x8000832e x14:0x00000710 PA:0x800080fe
       40655000	      4064	80002ba8	cf3f2093	slti	x1,x30,-781	 x30:0x46657000  x1=0x00000000
       40665000	      4065	80002bac	e9e402a3	sb	x30,-379(x8)	  x8:0x8000832e x30:0x46657000 PA:0x800081b3
       40675000	      4066	80002bb0	4e740b03	lb	x22,1255(x8)	  x8:0x8000832e x22=0xffffffe2 PA:0x80008815
       40685000	      4067	80002bb4	37841003	lh	x0,888(x8)	  x8:0x8000832e PA:0x800086a6
       40695000	      4068	80002bb8	016e0333	add	x6,x28,x22	 x28:0x80009f44 x22:0xffffffe2  x6=0x80009f26
       40705000	      4069	80002bbc	307404a3	sb	x7,777(x8)	  x8:0x8000832e  x7:0x9e67db94 PA:0x80008637
       40715000	      4070	80002bc0	e4340083	lb	x1,-445(x8)	  x8:0x8000832e  x1=0x00000028 PA:0x80008171
       40725000	      4071	80002bc4	01ba9313	slli	x6,x21,0x1b	 x21:0xffffffa5  x6=0x28000000
       40735000	      4072	80002bc8	31440323	sb	x20,774(x8)	  x8:0x8000832e x20:0x80002a68 PA:0x80008634
       40745000	      4073	80002bcc	55903b13	sltiu	x22,x0,1369	  x0:0x00000000 x22=0x00000001
       40755000	      4074	80002bd0	0194e5b3	or	x11,x9,x25	  x9:0x0000006c x25:0xffffffda x11=0xfffffffe
       40765000	      4075	80002bd4	9bdd1f97	auipc	x31,0x9bdd1	 x31=0x1bdd3bd0
       40775000	      4076	80002bd8	40340303	lb	x6,1027(x8)	  x8:0x8000832e  x6=0x00000000 PA:0x80008731
       40785000	      4077	80002bdc	00005117	auipc	x2,0x5	  x2=0x80007bd8
       40795000	      4078	80002be0	56b10113	addi	x2,x2,1387	  x2:0x80007bd8  x2=0x80008143
       40805000	      4079	80002be4	ffe10c23	sb	x30,-8(x2)	  x2:0x80008143 x30:0x46657000 PA:0x8000813b
       40815000	      4080	80002be8	ffd12b83	lw	x23,-3(x2)	  x2:0x80008143 x23=0x11ba5d91 PA:0x80008140
       40825000	      4081	80002bec	00f15c03	lhu	x24,15(x2)	  x2:0x80008143 x24=0x0000c033 PA:0x80008152
       40835000	      4082	80002bf0	ffd14483	lbu	x9,-3(x2)	  x2:0x80008143  x9=0x00000091 PA:0x80008140
       40845000	      4083	80002bf4	0053fb33	and	x22,x7,x5	  x7:0x9e67db94  x5:0x0000036f x22=0x00000304
       40855000	      4084	80002bf8	01010b03	lb	x22,16(x2)	  x2:0x80008143 x22=0xffffffc0 PA:0x80008153
       40865000	      4085	80002bfc	012a1033	sll	x0,x20,x18	 x20:0x80002a68 x18:0xff8e358e
       40875000	      4086	80002c00	ffa14383	lbu	x7,-6(x2)	  x2:0x80008143  x7=0x000000f9 PA:0x8000813d
       40885000	      4087	80002c04	46d07a93	andi	x21,x0,1133	  x0:0x00000000 x21=0x00000000
       40895000	      4088	80002c08	418f53b3	sra	x7,x30,x24	 x30:0x46657000 x24:0x0000c033  x7=0x000008cc
       40905000	      4089	80002c0c	00214b83	lbu	x23,2(x2)	  x2:0x80008143 x23=0x000000c3 PA:0x80008145
       40915000	      4090	80002c10	00f11083	lh	x1,15(x2)	  x2:0x80008143  x1=0xffffc033 PA:0x80008152
       40925000	      4091	80002c14	00914283	lbu	x5,9(x2)	  x2:0x80008143  x5=0x00000043 PA:0x8000814c
       40935000	      4092	80002c18	001107a3	sb	x1,15(x2)	  x2:0x80008143  x1:0xffffc033 PA:0x80008152
       40945000	      4093	80002c1c	bbe63393	sltiu	x7,x12,-1090	 x12:0x7a77316d  x7=0x00000001
       40955000	      4094	80002c20	00f11b03	lh	x22,15(x2)	  x2:0x80008143 x22=0xffffc033 PA:0x80008152
       40965000	      4095	80002c24	ff314983	lbu	x19,-13(x2)	  x2:0x80008143 x19=0x00000081 PA:0x80008136
       40975000	      4096	80002c28	ffc14c03	lbu	x24,-4(x2)	  x2:0x80008143 x24=0x000000c1 PA:0x8000813f
       40985000	      4097	80002c2c	00e14283	lbu	x5,14(x2)	  x2:0x80008143  x5=0x00000010 PA:0x80008151
       40995000	      4098	80002c30	00214a03	lbu	x20,2(x2)	  x2:0x80008143 x20=0x000000c3 PA:0x80008145
       41005000	      4099	80002c34	00ce5193	srli	x3,x28,0xc	 x28:0x80009f44  x3=0x00080009
       41015000	      4100	80002c38	ff510f83	lb	x31,-11(x2)	  x2:0x80008143 x31=0xfffffffd PA:0x80008138
       41025000	      4101	80002c3c	ff911303	lh	x6,-7(x2)	  x2:0x80008143  x6=0xfffff943 PA:0x8000813c
       41035000	      4102	80002c40	00410123	sb	x4,2(x2)	  x2:0x80008143  x4:0x80008a4f PA:0x80008145
       41045000	      4103	80002c44	00b14583	lbu	x11,11(x2)	  x2:0x80008143 x11=0x000000a6 PA:0x8000814e
       41055000	      4104	80002c48	00c14703	lbu	x14,12(x2)	  x2:0x80008143 x14=0x0000007c PA:0x8000814f
       41065000	      4105	80002c4c	00d11483	lh	x9,13(x2)	  x2:0x80008143  x9=0x0000108c PA:0x80008150
       41075000	      4106	80002c50	c0d83993	sltiu	x19,x16,-1011	 x16:0x80009fc4 x19=0x00000001
       41085000	      4107	80002c54	00614583	lbu	x11,6(x2)	  x2:0x80008143 x11=0x0000005c PA:0x80008149
       41095000	      4108	80002c58	013124a3	sw	x19,9(x2)	  x2:0x80008143 x19:0x00000001 PA:0x8000814c
       41105000	      4109	80002c5c	001efbb3	and	x23,x29,x1	 x29:0xff8e3400  x1:0xffffc033 x23=0xff8e0000
       41115000	      4110	80002c60	00114383	lbu	x7,1(x2)	  x2:0x80008143  x7=0x000000f6 PA:0x80008144
       41125000	      4111	80002c64	ffa10923	sb	x26,-14(x2)	  x2:0x80008143 x26:0x80000000 PA:0x80008135
       41135000	      4112	80002c68	00314f83	lbu	x31,3(x2)	  x2:0x80008143 x31=0x000000ce PA:0x80008146
       41145000	      4113	80002c6c	ff910e23	sb	x25,-4(x2)	  x2:0x80008143 x25:0xffffffda PA:0x8000813f
       41155000	      4114	80002c70	01376733	or	x14,x14,x19	 x14:0x0000007c x19:0x00000001 x14=0x0000007d
       41165000	      4115	80002c74	18b14b13	xori	x22,x2,395	  x2:0x80008143 x22=0x800080c8
       41175000	      4116	80002c78	00ce9f33	sll	x30,x29,x12	 x29:0xff8e3400 x12:0x7a77316d x30=0xc6800000
       41185000	      4117	80002c7c	00514383	lbu	x7,5(x2)	  x2:0x80008143  x7=0x00000046 PA:0x80008148
       41195000	      4118	80002c80	fe610ca3	sb	x6,-7(x2)	  x2:0x80008143  x6:0xfffff943 PA:0x8000813c
       41205000	      4119	80002c84	002b8bb3	add	x23,x23,x2	 x23:0xff8e0000  x2:0x80008143 x23=0x7f8e8143
       41215000	      4120	80002c88	0074f233	and	x4,x9,x7	  x9:0x0000108c  x7:0x00000046  x4=0x00000004
       41225000	      4121	80002c8c	00b2e333	or	x6,x5,x11	  x5:0x00000010 x11:0x0000005c  x6=0x0000005c
       41235000	      4122	80002c90	4081d413	srai	x8,x3,0x8	  x3:0x00080009  x8=0x00000800
       41245000	      4123	80002c94	00fb5f93	srli	x31,x22,0xf	 x22:0x800080c8 x31=0x00010001
       41255000	      4124	80002c98	00190133	add	x2,x18,x1	 x18:0xff8e358e  x1:0xffffc033  x2=0xff8df5c1
       41265000	      4125	80002c9c	01c71263	bne	x14,x28,80002ca0	 x14:0x0000007d x28:0x80009f44
       41275000	      4126	00000000	00000013	addi	x0,x0,0	  x0:0x00000000
       41285000	      4127	80002c9c	00000013	addi	x0,x0,0	  x0:0x00000000
       41295000	      4128	80002ca0	4070d533	sra	x10,x1,x7	  x1:0xffffc033  x7:0x00000046 x10=0xffffff00
       41305000	      4129	80002ca4	0074c0b3	xor	x1,x9,x7	  x9:0x0000108c  x7:0x00000046  x1=0x000010ca
       41315000	      4130	80002ca8	00ebe9b3	or	x19,x23,x14	 x23:0x7f8e8143 x14:0x0000007d x19=0x7f8e817f
       41325000	      4131	80002cac	01fb1b93	slli	x23,x22,0x1f	 x22:0x800080c8 x23=0x00000000
       41335000	      4132	80002cb0	00000013	addi	x0,x0,0	  x0:0x00000000
       41345000	      4133	80002cb4	02095663	bge	x18,x0,80002ce0	 x18:0xff8e358e  x0:0x00000000
       41355000	      4134	80002cb8	024e4c63	blt	x28,x4,80002cf0	 x28:0x80009f44  x4:0x00000004
       41365000	      4135	00000000	00000013	addi	x0,x0,0	  x0:0x00000000
       41375000	      4136	80002cec	00000013	addi	x0,x0,0	  x0:0x00000000
       41385000	      4137	80002cf0	01509693	slli	x13,x1,0x15	  x1:0x000010ca x13=0x19400000
       41395000	      4138	80002cf4	b6b0e197	auipc	x3,0xb6b0e	  x3=0x36b10cf0
       41405000	      4139	80002cf8	129fa713	slti	x14,x31,297	 x31:0x00010001 x14=0x00000000
       41415000	      4140	80002cfc	40e65ab3	sra	x21,x12,x14	 x12:0x7a77316d x14:0x00000000 x21=0x7a77316d
       41425000	      4141	80002d00	05938863	beq	x7,x25,80002d50	  x7:0x00000046 x25:0xffffffda
       41435000	      4142	80002d04	415a5b33	sra	x22,x20,x21	 x20:0x000000c3 x21:0x7a77316d x22=0x00000000
       41445000	      4143	80002d08	01a3b133	sltu	x2,x7,x26	  x7:0x00000046 x26:0x80000000  x2=0x00000001
       41455000	      4144	80002d0c	00fd5eb3	srl	x29,x26,x15	 x26:0x80000000 x15:0x00000011 x29=0x00004000
       41465000	      4145	80002d10	f95a4e93	xori	x29,x20,-107	 x20:0x000000c3 x29=0xffffff56
       41475000	      4146	80002d14	40355c33	sra	x24,x10,x3	 x10:0xffffff00  x3:0x36b10cf0 x24=0xffffffff
       41485000	      4147	80002d18	01921fb3	sll	x31,x4,x25	  x4:0x00000004 x25:0xffffffda x31=0x10000000
       41495000	      4148	80002d1c	4045dab3	sra	x21,x11,x4	 x11:0x0000005c  x4:0x00000004 x21=0x00000005
       41505000	      4149	80002d20	0047db13	srli	x22,x15,0x4	 x15:0x00000011 x22=0x00000001
       41515000	      4150	80002d24	004739b3	sltu	x19,x14,x4	 x14:0x00000000  x4:0x00000004 x19=0x00000001
       41525000	      4151	80002d28	03286a63	bltu	x16,x18,80002d5c	 x16:0x80009fc4 x18:0xff8e358e
       41535000	      4152	00000000	00000013	addi	x0,x0,0	  x0:0x00000000
       41545000	      4153	80002d58	00000013	addi	x0,x0,0	  x0:0x00000000
       41555000	      4154	80002d5c	012388b3	add	x17,x7,x18	  x7:0x00000046 x18:0xff8e358e x17=0xff8e35d4
       41565000	      4155	80002d60	02a5ea63	bltu	x11,x10,80002d94	 x11:0x0000005c x10:0xffffff00
       41575000	      4156	00000000	00000013	addi	x0,x0,0	  x0:0x00000000
       41585000	      4157	80002d90	00000013	addi	x0,x0,0	  x0:0x00000000
       41595000	      4158	80002d94	0180c863	blt	x1,x24,80002da4	  x1:0x000010ca x24:0xffffffff
       41605000	      4159	80002d98	00000013	addi	x0,x0,0	  x0:0x00000000
       41615000	      4160	80002d9c	0087ca63	blt	x15,x8,80002db0	 x15:0x00000011  x8:0x00000800
       41625000	      4161	00000000	00000013	addi	x0,x0,0	  x0:0x00000000
       41635000	      4162	80002dac	00000013	addi	x0,x0,0	  x0:0x00000000
       41645000	      4163	80002db0	03fbc863	blt	x23,x31,80002de0	 x23:0x00000000 x31:0x10000000
       41655000	      4164	00000000	00000013	addi	x0,x0,0	  x0:0x00000000
       41665000	      4165	80002ddc	00000013	addi	x0,x0,0	  x0:0x00000000
       41675000	      4166	80002de0	01f94e63	blt	x18,x31,80002dfc	 x18:0xff8e358e x31:0x10000000
       41685000	      4167	00000000	00000013	addi	x0,x0,0	  x0:0x00000000
       41695000	      4168	80002df8	00000013	addi	x0,x0,0	  x0:0x00000000
       41705000	      4169	80002dfc	0025edb3	or	x27,x11,x2	 x11:0x0000005c  x2:0x00000001 x27=0x0000005d
       41715000	      4170	80002e00	660b1e97	auipc	x29,0x660b1	 x29=0xe60b3dfc
       41725000	      4171	80002e04	011ec133	xor	x2,x29,x17	 x29:0xe60b3dfc x17:0xff8e35d4  x2=0x19850828
       41735000	      4172	80002e08	01231613	slli	x12,x6,0x12	  x6:0x0000005c x12=0x01700000
       41745000	      4173	80002e0c	01f4d013	srli	x0,x9,0x1f	  x9:0x0000108c
       41755000	      4174	80002e10	0100b433	sltu	x8,x1,x16	  x1:0x000010ca x16:0x80009fc4  x8=0x00000001
       41765000	      4175	80002e14	a60fa693	slti	x13,x31,-1440	 x31:0x10000000 x13=0x00000000
       41775000	      4176	80002e18	01019eb3	sll	x29,x3,x16	  x3:0x36b10cf0 x16:0x80009fc4 x29=0x6b10cf00
       41785000	      4177	80002e1c	68accb97	auipc	x23,0x68acc	 x23=0xe8acee18
       41795000	      4178	80002e20	0088c7b3	xor	x15,x17,x8	 x17:0xff8e35d4  x8:0x00000001 x15=0xff8e35d5
       41805000	      4179	80002e24	017bfa63	bgeu	x23,x23,80002e38	 x23:0xe8acee18 x23:0xe8acee18
       41815000	      4180	00000000	00000013	addi	x0,x0,0	  x0:0x00000000
       41825000	      4181	80002e34	00000013	addi	x0,x0,0	  x0:0x00000000
       41835000	      4182	80002e38	06790a13	addi	x20,x18,103	 x18:0xff8e358e x20=0xff8e35f5
       41845000	      4183	80002e3c	004c3ab3	sltu	x21,x24,x4	 x24:0xffffffff  x4:0x00000004 x21=0x00000000
       41855000	      4184	80002e40	02f3d663	bge	x7,x15,80002e6c	  x7:0x00000046 x15:0xff8e35d5
       41865000	      4185	00000000	00000013	addi	x0,x0,0	  x0:0x00000000
       41875000	      4186	80002e68	00000013	addi	x0,x0,0	  x0:0x00000000
       41885000	      4187	80002e6c	00a7f433	and	x8,x15,x10	 x15:0xff8e35d5 x10:0xffffff00  x8=0xff8e3500
       41895000	      4188	80002e70	05cce063	bltu	x25,x28,80002eb0	 x25:0xffffffda x28:0x80009f44
       41905000	      4189	80002e74	01102db3	slt	x27,x0,x17	  x0:0x00000000 x17:0xff8e35d4 x27=0x00000000
       41915000	      4190	80002e78	00000013	addi	x0,x0,0	  x0:0x00000000
       41925000	      4191	80002e7c	05ec1063	bne	x24,x30,80002ebc	 x24:0xffffffff x30:0xc6800000
       41935000	      4192	00000000	00000013	addi	x0,x0,0	  x0:0x00000000
       41945000	      4193	80002eb8	00000013	addi	x0,x0,0	  x0:0x00000000
       41955000	      4194	80002ebc	00159c33	sll	x24,x11,x1	 x11:0x0000005c  x1:0x000010ca x24=0x00017000
       41965000	      4195	80002ec0	3244b613	sltiu	x12,x9,804	  x9:0x0000108c x12=0x00000000
       41975000	      4196	80002ec4	4003d2b3	sra	x5,x7,x0	  x7:0x00000046  x0:0x00000000  x5=0x00000046
       41985000	      4197	80002ec8	0055d933	srl	x18,x11,x5	 x11:0x0000005c  x5:0x00000046 x18=0x00000001
       41995000	      4198	80002ecc	40f6db33	sra	x22,x13,x15	 x13:0x00000000 x15:0xff8e35d5 x22=0x00000000
       42005000	      4199	80002ed0	2a2c7213	andi	x4,x24,674	 x24:0x00017000  x4=0x00000000
       42015000	      4200	80002ed4	02956a63	bltu	x10,x9,80002f08	 x10:0xffffff00  x9:0x0000108c
       42025000	      4201	80002ed8	03a8ec63	bltu	x17,x26,80002f10	 x17:0xff8e35d4 x26:0x80000000
       42035000	      4202	80002edc	00e902b3	add	x5,x18,x14	 x18:0x00000001 x14:0x00000000  x5=0x00000001
       42045000	      4203	80002ee0	7d4bb893	sltiu	x17,x23,2004	 x23:0xe8acee18 x17=0x00000000
       42055000	      4204	80002ee4	039ed663	bge	x29,x25,80002f10	 x29:0x6b10cf00 x25:0xffffffda
       42065000	      4205	00000000	00000013	addi	x0,x0,0	  x0:0x00000000
       42075000	      4206	80002f0c	00000013	addi	x0,x0,0	  x0:0x00000000
       42085000	      4207	80002f10	b2fe9537	lui	x10,0xb2fe9	 x10=0xb2fe9000
       42095000	      4208	80002f14	003ea333	slt	x6,x29,x3	 x29:0x6b10cf00  x3:0x36b10cf0  x6=0x00000000
       42105000	      4209	80002f18	fcd60093	addi	x1,x12,-51	 x12:0x00000000  x1=0xffffffcd
       42115000	      4210	80002f1c	00000013	addi	x0,x0,0	  x0:0x00000000
       42125000	      4211	80002f20	00e8b333	sltu	x6,x17,x14	 x17:0x00000000 x14:0x00000000  x6=0x00000000
       42135000	      4212	80002f24	bcbdbe97	auipc	x29,0xbcbdb	 x29=0x3cbddf20
       42145000	      4213	80002f28	ce625897	auipc	x17,0xce625	 x17=0x4e627f24
       42155000	      4214	80002f2c	03f95c63	bge	x18,x31,80002f64	 x18:0x00000001 x31:0x10000000
       42165000	      4215	80002f30	023b7013	andi	x0,x22,35	 x22:0x00000000
       42175000	      4216	80002f34	030a6663	bltu	x20,x16,80002f60	 x20:0xff8e35f5 x16:0x80009fc4
       42185000	      4217	80002f38	00da5393	srli	x7,x20,0xd	 x20:0xff8e35f5  x7=0x0007fc71
       42195000	      4218	80002f3c	0079bdb3	sltu	x27,x19,x7	 x19:0x00000001  x7:0x0007fc71 x27=0x00000001
       42205000	      4219	80002f40	40c35893	srai	x17,x6,0xc	  x6:0x00000000 x17=0x00000000
       42215000	      4220	80002f44	48956113	ori	x2,x10,1161	 x10:0xb2fe9000  x2=0xb2fe9489
       42225000	      4221	80002f48	00f0db93	srli	x23,x1,0xf	  x1:0xffffffcd x23=0x0001ffff
       42235000	      4222	80002f4c	013c9f13	slli	x30,x25,0x13	 x25:0xffffffda x30=0xfed00000
       42245000	      4223	80002f50	4f038493	addi	x9,x7,1264	  x7:0x0007fc71  x9=0x00080161
       42255000	      4224	80002f54	f47efc93	andi	x25,x29,-185	 x29:0x3cbddf20 x25=0x3cbddf00
       42265000	      4225	80002f58	0318c063	blt	x17,x17,80002f78	 x17:0x00000000 x17:0x00000000
       42275000	      4226	80002f5c	ecbefeb7	lui	x29,0xecbef	 x29=0xecbef000
       42285000	      4227	80002f60	41275013	srai	x0,x14,0x12	 x14:0x00000000
       42295000	      4228	80002f64	9f3e8a93	addi	x21,x29,-1549	 x29:0xecbef000 x21=0xecbee9f3
       42305000	      4229	80002f68	00c3b293	sltiu	x5,x7,12	  x7:0x0007fc71  x5=0x00000000
       42315000	      4230	80002f6c	3956d5b7	lui	x11,0x3956d	 x11=0x3956d000
       42325000	      4231	80002f70	05d41063	bne	x8,x29,80002fb0	  x8:0xff8e3500 x29:0xecbef000
       42335000	      4232	00000000	00000013	addi	x0,x0,0	  x0:0x00000000
       42345000	      4233	80002fac	00000013	addi	x0,x0,0	  x0:0x00000000
       42355000	      4234	80002fb0	00000013	addi	x0,x0,0	  x0:0x00000000
       42365000	      4235	80002fb4	000708b3	add	x17,x14,x0	 x14:0x00000000  x0:0x00000000 x17=0x00000000
       42375000	      4236	80002fb8	93926c93	ori	x25,x4,-1735	  x4:0x00000000 x25=0xfffff939
       42385000	      4237	80002fbc	010728b3	slt	x17,x14,x16	 x14:0x00000000 x16:0x80009fc4 x17=0x00000000
       42395000	      4238	80002fc0	01451293	slli	x5,x10,0x14	 x10:0xb2fe9000  x5=0x00000000
       42405000	      4239	80002fc4	012062b3	or	x5,x0,x18	  x0:0x00000000 x18:0x00000001  x5=0x00000001
       42415000	      4240	80002fc8	ec6b3913	sltiu	x18,x22,-314	 x22:0x00000000 x18=0x00000001
       42425000	      4241	80002fcc	9f715cb7	lui	x25,0x9f715	 x25=0x9f715000
       42435000	      4242	80002fd0	62274213	xori	x4,x14,1570	 x14:0x00000000  x4=0x00000622
       42445000	      4243	80002fd4	41e18633	sub	x12,x3,x30	  x3:0x36b10cf0 x30:0xfed00000 x12=0x37e10cf0
       42455000	      4244	80002fd8	00164a63	blt	x12,x1,80002fec	 x12:0x37e10cf0  x1:0xffffffcd
       42465000	      4245	80002fdc	3e2b35b7	lui	x11,0x3e2b3	 x11=0x3e2b3000
       42475000	      4246	80002fe0	01e4d733	srl	x14,x9,x30	  x9:0x00080161 x30:0xfed00000 x14=0x00080161
       42485000	      4247	80002fe4	00000013	addi	x0,x0,0	  x0:0x00000000
       42495000	      4248	80002fe8	69af3093	sltiu	x1,x30,1690	 x30:0xfed00000  x1=0x00000000
       42505000	      4249	80002fec	df9fea6f	jal	x20,80002fec	 x20=0x80002fec
       42515000	      4250	00000000	00000013	addi	x0,x0,0	  x0:0x00000000
       42525000	      4251	80001de0	00000013	addi	x0,x0,0	  x0:0x00000000
       42535000	      4252	80001de4	01607663	bgeu	x0,x22,80001df0	  x0:0x00000000 x22:0x00000000
       42545000	      4253	00000000	00000013	addi	x0,x0,0	  x0:0x00000000
       42555000	      4254	80001dec	00000013	addi	x0,x0,0	  x0:0x00000000
       42565000	      4255	80001df0	fece0e13	addi	x28,x28,-20	 x28:0x80009f44 x28=0x80009f30
       42575000	      4256	80001df4	014e2223	sw	x20,4(x28)	 x28:0x80009f30 x20:0x80002fec PA:0x80009f34
       42585000	      4257	80001df8	00000013	addi	x0,x0,0	  x0:0x00000000
       42595000	      4258	80001dfc	013c5693	srli	x13,x24,0x13	 x24:0x00017000 x13=0x00000000
       42605000	      4259	80001e00	00004417	auipc	x8,0x4	  x8=0x80005dfc
       42615000	      4260	80001e04	e9440413	addi	x8,x8,-364	  x8:0x80005dfc  x8=0x80005c90
       42625000	      4261	80001e08	c0e40413	addi	x8,x8,-1010	  x8:0x80005c90  x8=0x8000589e
       42635000	      4262	80001e0c	41535733	sra	x14,x6,x21	  x6:0x00000000 x21:0xecbee9f3 x14=0x00000000
       42645000	      4263	80001e10	00ca42b3	xor	x5,x20,x12	 x20:0x80002fec x12:0x37e10cf0  x5=0xb7e1231c
       42655000	      4264	80001e14	01442a33	slt	x20,x8,x20	  x8:0x8000589e x20:0x80002fec x20=0x00000000
       42665000	      4265	80001e18	011dc863	blt	x27,x17,80001e28	 x27:0x00000001 x17:0x00000000
       42675000	      4266	80001e1c	014b1913	slli	x18,x22,0x14	 x22:0x00000000 x18=0x00000000
       42685000	      4267	80001e20	0063d193	srli	x3,x7,0x6	  x7:0x0007fc71  x3=0x00001ff1
       42695000	      4268	80001e24	001135b3	sltu	x11,x2,x1	  x2:0xb2fe9489  x1:0x00000000 x11=0x00000000
       42705000	      4269	80001e28	3f340a67	jalr	x20,x8,1011	  x8:0x8000589e x20=0x80001e28
       42715000	      4270	00000000	00000013	addi	x0,x0,0	  x0:0x00000000
       42725000	      4271	80005c90	00000013	addi	x0,x0,0	  x0:0x00000000
       42735000	      4272	80005c94	012244b3	xor	x9,x4,x18	  x4:0x00000622 x18:0x00000000  x9=0x00000622
       42745000	      4273	80005c98	0033c4b3	xor	x9,x7,x3	  x7:0x0007fc71  x3:0x00001ff1  x9=0x0007e380
       42755000	      4274	80005c9c	17c94113	xori	x2,x18,380	 x18:0x00000000  x2=0x0000017c
       42765000	      4275	80005ca0	01399663	bne	x19,x19,80005cac	 x19:0x00000001 x19:0x00000001
       42775000	      4276	80005ca4	82d93713	sltiu	x14,x18,-2003	 x18:0x00000000 x14=0x00000001
       42785000	      4277	80005ca8	20412f37	lui	x30,0x20412	 x30=0x20412000
       42795000	      4278	80005cac	fe0e0e13	addi	x28,x28,-32	 x28:0x80009f30 x28=0x80009f10
       42805000	      4279	80005cb0	014e2223	sw	x20,4(x28)	 x28:0x80009f10 x20:0x80001e28 PA:0x80009f14
       42815000	      4280	80005cb4	bfb1e713	ori	x14,x3,-1029	  x3:0x00001ff1 x14=0xfffffffb
       42825000	      4281	80005cb8	01c94f33	xor	x30,x18,x28	 x18:0x00000000 x28:0x80009f10 x30=0x80009f10
       42835000	      4282	80005cbc	e444bb93	sltiu	x23,x9,-444	  x9:0x0007e380 x23=0x00000001
       42845000	      4283	80005cc0	00000013	addi	x0,x0,0	  x0:0x00000000
       42855000	      4284	80005cc4	016b8db3	add	x27,x23,x22	 x23:0x00000001 x22:0x00000000 x27=0x00000001
       42865000	      4285	80005cc8	291fa893	slti	x17,x31,657	 x31:0x10000000 x17=0x00000000
       42875000	      4286	80005ccc	7b968a13	addi	x20,x13,1977	 x13:0x00000000 x20=0x000007b9
       42885000	      4287	80005cd0	00702533	slt	x10,x0,x7	  x0:0x00000000  x7:0x0007fc71 x10=0x00000001
       42895000	      4288	80005cd4	00499113	slli	x2,x19,0x4	 x19:0x00000001  x2=0x00000010
       42905000	      4289	80005cd8	30a6e713	ori	x14,x13,778	 x13:0x00000000 x14=0x0000030a
       42915000	      4290	80005cdc	012e1033	sll	x0,x28,x18	 x28:0x80009f10 x18:0x00000000
       42925000	      4291	80005ce0	208c6213	ori	x4,x24,520	 x24:0x00017000  x4=0x00017208
       42935000	      4292	80005ce4	f926dc97	auipc	x25,0xf926d	 x25=0x79272ce0
       42945000	      4293	80005ce8	016691b3	sll	x3,x13,x22	 x13:0x00000000 x22:0x00000000  x3=0x00000000
       42955000	      4294	80005cec	8589b613	sltiu	x12,x19,-1960	 x19:0x00000001 x12=0x00000001
       42965000	      4295	80005cf0	01a51a63	bne	x10,x26,80005d04	 x10:0x00000001 x26:0x80000000
       42975000	      4296	00000000	00000013	addi	x0,x0,0	  x0:0x00000000
       42985000	      4297	80005d00	00000013	addi	x0,x0,0	  x0:0x00000000
       42995000	      4298	80005d04	f6075637	lui	x12,0xf6075	 x12=0xf6075000
       43005000	      4299	80005d08	97474213	xori	x4,x14,-1676	 x14:0x0000030a  x4=0xfffffa7e
       43015000	      4300	80005d0c	4332c413	xori	x8,x5,1075	  x5:0xb7e1231c  x8=0xb7e1272f
       43025000	      4301	80005d10	00f1fdb3	and	x27,x3,x15	  x3:0x00000000 x15:0xff8e35d5 x27=0x00000000
       43035000	      4302	80005d14	408d5f33	sra	x30,x26,x8	 x26:0x80000000  x8:0xb7e1272f x30=0xffff0000
       43045000	      4303	80005d18	00a11193	slli	x3,x2,0xa	  x2:0x00000010  x3=0x00004000
       43055000	      4304	80005d1c	005c7933	and	x18,x24,x5	 x24:0x00017000  x5:0xb7e1231c x18=0x00012000
       43065000	      4305	80005d20	013ae233	or	x4,x21,x19	 x21:0xecbee9f3 x19:0x00000001  x4=0xecbee9f3
       43075000	      4306	80005d24	004e2a03	lw	x20,4(x28)	 x28:0x80009f10 x20=0x80001e28 PA:0x80009f14
       43085000	      4307	80005d28	020e0e13	addi	x28,x28,32	 x28:0x80009f10 x28=0x80009f30
       43095000	      4308	80005d2c	00481cb3	sll	x25,x16,x4	 x16:0x80009fc4  x4:0xecbee9f3 x25=0xfe200000
       43105000	      4309	80005d30	4183dc13	srai	x24,x7,0x18	  x7:0x0007fc71 x24=0x00000000
       43115000	      4310	80005d34	000a0093	addi	x1,x20,0	 x20:0x80001e28  x1=0x80001e28
       43125000	      4311	80005d38	000080e7	jalr	x1,x1,0	  x1:0x80001e28  x1=0x80005d38
       43135000	      4312	00000000	00000013	addi	x0,x0,0	  x0:0x00000000
       43145000	      4313	80001e28	00000013	addi	x0,x0,0	  x0:0x00000000
       43155000	      4314	80001e2c	01df17b3	sll	x15,x30,x29	 x30:0xffff0000 x29:0xecbef000 x15=0xffff0000
       43165000	      4315	80001e30	a6575b37	lui	x22,0xa6575	 x22=0xa6575000
       43175000	      4316	80001e34	00598ab3	add	x21,x19,x5	 x19:0x00000001  x5:0xb7e1231c x21=0xb7e1231d
       43185000	      4317	80001e38	02c8e063	bltu	x17,x12,80001e58	 x17:0x00000000 x12:0xf6075000
       43195000	      4318	00000000	00000013	addi	x0,x0,0	  x0:0x00000000
       43205000	      4319	80001e54	00000013	addi	x0,x0,0	  x0:0x00000000
       43215000	      4320	80001e58	33c04a6f	jal	x20,80001e58	 x20=0x80001e58
       43225000	      4321	00000000	00000013	addi	x0,x0,0	  x0:0x00000000
       43235000	      4322	80006190	00000013	addi	x0,x0,0	  x0:0x00000000
       43245000	      4323	80006194	419cd393	srai	x7,x25,0x19	 x25:0xfe200000  x7=0xffffffff
       43255000	      4324	80006198	0192b033	sltu	x0,x5,x25	  x5:0xb7e1231c x25:0xfe200000
       43265000	      4325	8000619c	018b6263	bltu	x22,x24,800061a0	 x22:0xa6575000 x24:0x00000000
       43275000	      4326	800061a0	ff8e0e13	addi	x28,x28,-8	 x28:0x80009f30 x28=0x80009f28
       43285000	      4327	800061a4	a9665cb7	lui	x25,0xa9665	 x25=0xa9665000
       43295000	      4328	800061a8	014a9593	slli	x11,x21,0x14	 x21:0xb7e1231d x11=0x31d00000
       43305000	      4329	800061ac	0084fb33	and	x22,x9,x8	  x9:0x0007e380  x8:0xb7e1272f x22=0x00012300
       43315000	      4330	800061b0	2a10b717	auipc	x14,0x2a10b	 x14=0xaa1111ac
       43325000	      4331	800061b4	014e2223	sw	x20,4(x28)	 x28:0x80009f28 x20:0x80001e58 PA:0x80009f2c
       43335000	      4332	800061b8	b6482697	auipc	x13,0xb6482	 x13=0x364881b4
       43345000	      4333	800061bc	011ff3b3	and	x7,x31,x17	 x31:0x10000000 x17:0x00000000  x7=0x00000000
       43355000	      4334	800061c0	c371f713	andi	x14,x3,-969	  x3:0x00004000 x14=0x00004000
       43365000	      4335	800061c4	00002797	auipc	x15,0x2	 x15=0x800081c0
       43375000	      4336	800061c8	34d78793	addi	x15,x15,845	 x15:0x800081c0 x15=0x8000850d
       43385000	      4337	800061cc	68b5c993	xori	x19,x11,1675	 x11:0x31d00000 x19=0x31d0068b
       43395000	      4338	800061d0	01d81333	sll	x6,x16,x29	 x16:0x80009fc4 x29:0xecbef000  x6=0x80009fc4
       43405000	      4339	800061d4	03078183	lb	x3,48(x15)	 x15:0x8000850d  x3=0x00000050 PA:0x8000853d
       43415000	      4340	800061d8	00d0ebb3	or	x23,x1,x13	  x1:0x80005d38 x13:0x364881b4 x23=0xb648ddbc
       43425000	      4341	800061dc	9ace6893	ori	x17,x28,-1620	 x28:0x80009f28 x17=0xffffffac
       43435000	      4342	800061e0	57c37093	andi	x1,x6,1404	  x6:0x80009fc4  x1=0x00000544
       43445000	      4343	800061e4	ff17db03	lhu	x22,-15(x15)	 x15:0x8000850d x22=0x000071d8 PA:0x800084fe
       43455000	      4344	800061e8	019cdc33	srl	x24,x25,x25	 x25:0xa9665000 x25:0xa9665000 x24=0xa9665000
       43465000	      4345	800061ec	802d0713	addi	x14,x26,-2046	 x26:0x80000000 x14=0x7ffff802
       43475000	      4346	800061f0	6d932c93	slti	x25,x6,1753	  x6:0x80009fc4 x25=0x00000001
       43485000	      4347	800061f4	006ca8b3	slt	x17,x25,x6	 x25:0x00000001  x6:0x80009fc4 x17=0x00000000
       43495000	      4348	800061f8	59872613	slti	x12,x14,1432	 x14:0x7ffff802 x12=0x00000000
       43505000	      4349	800061fc	00470c13	addi	x24,x14,4	 x14:0x7ffff802 x24=0x7ffff806
       43515000	      4350	80006200	009139b3	sltu	x19,x2,x9	  x2:0x00000010  x9:0x0007e380 x19=0x00000001
       43525000	      4351	80006204	ffa78c23	sb	x26,-8(x15)	 x15:0x8000850d x26:0x80000000 PA:0x80008505
       43535000	      4352	80006208	00000013	addi	x0,x0,0	  x0:0x00000000
       43545000	      4353	8000620c	b6070313	addi	x6,x14,-1184	 x14:0x7ffff802  x6=0x7ffff362
       43555000	      4354	80006210	3449b413	sltiu	x8,x19,836	 x19:0x00000001  x8=0x00000001
       43565000	      4355	80006214	0003b6b3	sltu	x13,x7,x0	  x7:0x00000000  x0:0x00000000 x13=0x00000000
       43575000	      4356	80006218	39082e97	auipc	x29,0x39082	 x29=0xb9088214
       43585000	      4357	8000621c	00000013	addi	x0,x0,0	  x0:0x00000000
       43595000	      4358	80006220	ffe7cf03	lbu	x30,-2(x15)	 x15:0x8000850d x30=0x000000a6 PA:0x8000850b
       43605000	      4359	80006224	ff978c03	lb	x24,-7(x15)	 x15:0x8000850d x24=0xffffffda PA:0x80008506
       43615000	      4360	80006228	0277d503	lhu	x10,39(x15)	 x15:0x8000850d x10=0x00005aa6 PA:0x80008534
       43625000	      4361	8000622c	89ab4b13	xori	x22,x22,-1894	 x22:0x000071d8 x22=0xffff8942
       43635000	      4362	80006230	4037dbb3	sra	x23,x15,x3	 x15:0x8000850d  x3:0x00000050 x23=0xffff8000
       43645000	      4363	80006234	fe07afa3	sw	x0,-1(x15)	 x15:0x8000850d  x0:0x00000000 PA:0x8000850c
       43655000	      4364	80006238	90a38397	auipc	x7,0x90a38	  x7=0x10a3e234
       43665000	      4365	8000623c	0027c903	lbu	x18,2(x15)	 x15:0x8000850d x18=0x00000000 PA:0x8000850f
       43675000	      4366	80006240	0177ce83	lbu	x29,23(x15)	 x15:0x8000850d x29=0x000000b8 PA:0x80008524
       43685000	      4367	80006244	00a23433	sltu	x8,x4,x10	  x4:0xecbee9f3 x10:0x00005aa6  x8=0x00000000
       43695000	      4368	80006248	02f78483	lb	x9,47(x15)	 x15:0x8000850d  x9=0xffffff8c PA:0x8000853c
       43705000	      4369	8000624c	fd27c483	lbu	x9,-46(x15)	 x15:0x8000850d  x9=0x000000af PA:0x800084df
       43715000	      4370	80006250	00bf1eb3	sll	x29,x30,x11	 x30:0x000000a6 x11:0x31d00000 x29=0x000000a6
       43725000	      4371	80006254	fdf78b03	lb	x22,-33(x15)	 x15:0x8000850d x22=0x00000028 PA:0x800084ec
       43735000	      4372	80006258	e5736113	ori	x2,x6,-425	  x6:0x7ffff362  x2=0xffffff77
       43745000	      4373	8000625c	02c16c63	bltu	x2,x12,80006294	  x2:0xffffff77 x12:0x00000000
       43755000	      4374	80006260	01d71013	slli	x0,x14,0x1d	 x14:0x7ffff802
       43765000	      4375	80006264	001b0c63	beq	x22,x1,8000627c	 x22:0x00000028  x1:0x00000544
       43775000	      4376	80006268	525bf993	andi	x19,x23,1317	 x23:0xffff8000 x19=0x00000000
       43785000	      4377	8000626c	00000013	addi	x0,x0,0	  x0:0x00000000
       43795000	      4378	80006270	087aa793	slti	x15,x21,135	 x21:0xb7e1231d x15=0x00000001
       43805000	      4379	80006274	10f8d463	bge	x17,x15,8000637c	 x17:0x00000000 x15:0x00000001
       43815000	      4380	80006278	01932b33	slt	x22,x6,x25	  x6:0x7ffff362 x25:0x00000001 x22=0x00000000
       43825000	      4381	8000627c	d1ecc113	xori	x2,x25,-738	 x25:0x00000001  x2=0xfffffd1f
       43835000	      4382	80006280	7bb4b313	sltiu	x6,x9,1979	  x9:0x000000af  x6=0x00000001
       43845000	      4383	80006284	00cd1fb3	sll	x31,x26,x12	 x26:0x80000000 x12:0x00000000 x31=0x80000000
       43855000	      4384	80006288	01c95a93	srli	x21,x18,0x1c	 x18:0x00000000 x21=0x00000000
       43865000	      4385	8000628c	009bcdb3	xor	x27,x23,x9	 x23:0xffff8000  x9:0x000000af x27=0xffff80af
       43875000	      4386	80006290	40f2d4b3	sra	x9,x5,x15	  x5:0xb7e1231c x15:0x00000001  x9=0xdbf0918e
       43885000	      4387	80006294	00000013	addi	x0,x0,0	  x0:0x00000000
       43895000	      4388	80006298	00003e97	auipc	x29,0x3	 x29=0x80009294
       43905000	      4389	8000629c	a4fe8e93	addi	x29,x29,-1457	 x29:0x80009294 x29=0x80008ce3
       43915000	      4390	800062a0	014ce733	or	x14,x25,x20	 x25:0x00000001 x20:0x80001e58 x14=0x80001e59
       43925000	      4391	800062a4	004f62b3	or	x5,x30,x4	 x30:0x000000a6  x4:0xecbee9f3  x5=0xecbee9f7
       43935000	      4392	800062a8	d07ec083	lbu	x1,-761(x29)	 x29:0x80008ce3  x1=0x0000002f PA:0x800089ea
       43945000	      4393	800062ac	0149fab3	and	x21,x19,x20	 x19:0x00000000 x20:0x80001e58 x21=0x00000000
       43955000	      4394	800062b0	01edd593	srli	x11,x27,0x1e	 x27:0xffff80af x11=0x00000003
       43965000	      4395	800062b4	01571f13	slli	x30,x14,0x15	 x14:0x80001e59 x30=0xcb200000
       43975000	      4396	800062b8	c6ce8d23	sb	x12,-902(x29)	 x29:0x80008ce3 x12:0x00000000 PA:0x8000895d
       43985000	      4397	800062bc	40b901b3	sub	x3,x18,x11	 x18:0x00000000 x11:0x00000003  x3=0xfffffffd
       43995000	      4398	800062c0	e9dedc83	lhu	x25,-355(x29)	 x29:0x80008ce3 x25=0x0000a3f1 PA:0x80008b80
       44005000	      4399	800062c4	ca3e8d23	sb	x3,-838(x29)	 x29:0x80008ce3  x3:0xfffffffd PA:0x8000899d
       44015000	      4400	800062c8	00000013	addi	x0,x0,0	  x0:0x00000000
       44025000	      4401	800062cc	b315bc13	sltiu	x24,x11,-1231	 x11:0x00000003 x24=0x00000001
       44035000	      4402	800062d0	41f481b3	sub	x3,x9,x31	  x9:0xdbf0918e x31:0x80000000  x3=0x5bf0918e
       44045000	      4403	800062d4	019cffb3	and	x31,x25,x25	 x25:0x0000a3f1 x25:0x0000a3f1 x31=0x0000a3f1
       44055000	      4404	800062d8	01a19893	slli	x17,x3,0x1a	  x3:0x5bf0918e x17=0x38000000
       44065000	      4405	800062dc	cd4e8183	lb	x3,-812(x29)	 x29:0x80008ce3  x3=0x0000005f PA:0x800089b7
       44075000	      4406	800062e0	00f2d613	srli	x12,x5,0xf	  x5:0xecbee9f7 x12=0x0001d97d
       44085000	      4407	800062e4	41c28fb3	sub	x31,x5,x28	  x5:0xecbee9f7 x28:0x80009f28 x31=0x6cbe4acf
       44095000	      4408	800062e8	170ec483	lbu	x9,368(x29)	 x29:0x80008ce3  x9=0x00000060 PA:0x80008e53
       44105000	      4409	800062ec	94860a93	addi	x21,x12,-1720	 x12:0x0001d97d x21=0x0001d2c5
       44115000	      4410	800062f0	f5bec483	lbu	x9,-165(x29)	 x29:0x80008ce3  x9=0x0000005c PA:0x80008c3e
       44125000	      4411	800062f4	2bcec303	lbu	x6,700(x29)	 x29:0x80008ce3  x6=0x00000043 PA:0x80008f9f
       44135000	      4412	800062f8	5fcdb513	sltiu	x10,x27,1532	 x27:0xffff80af x10=0x00000000
       44145000	      4413	800062fc	b44ec283	lbu	x5,-1212(x29)	 x29:0x80008ce3  x5=0x00000096 PA:0x80008827
       44155000	      4414	80006300	1b5ea683	lw	x13,437(x29)	 x29:0x80008ce3 x13=0x71d31335 PA:0x80008e98
       44165000	      4415	80006304	e7ce8e23	sb	x28,-388(x29)	 x29:0x80008ce3 x28:0x80009f28 PA:0x80008b5f
       44175000	      4416	80006308	0ffed783	lhu	x15,255(x29)	 x29:0x80008ce3 x15=0x000023ce PA:0x80008de2
       44185000	      4417	8000630c	542a3413	sltiu	x8,x20,1346	 x20:0x80001e58  x8=0x00000000
       44195000	      4418	80006310	17aec603	lbu	x12,378(x29)	 x29:0x80008ce3 x12=0x0000000e PA:0x80008e5d
       44205000	      4419	80006314	e2eecc83	lbu	x25,-466(x29)	 x29:0x80008ce3 x25=0x00000015 PA:0x80008b11
       44215000	      4420	80006318	408adf13	srai	x30,x21,0x8	 x21:0x0001d2c5 x30=0x000001d2
       44225000	      4421	8000631c	13ae8a23	sb	x26,308(x29)	 x29:0x80008ce3 x26:0x80000000 PA:0x80008e17
       44235000	      4422	80006320	fd8e8e23	sb	x24,-36(x29)	 x29:0x80008ce3 x24:0x00000001 PA:0x80008cbf
       44245000	      4423	80006324	fc3e9f83	lh	x31,-61(x29)	 x29:0x80008ce3 x31=0xffffffda PA:0x80008ca6
       44255000	      4424	80006328	01499b93	slli	x23,x19,0x14	 x19:0x00000000 x23=0x00000000
       44265000	      4425	8000632c	b92e8883	lb	x17,-1134(x29)	 x29:0x80008ce3 x17=0x00000028 PA:0x80008875
       44275000	      4426	80006330	d18e3013	sltiu	x0,x28,-744	 x28:0x80009f28
       44285000	      4427	80006334	2b6e8623	sb	x22,684(x29)	 x29:0x80008ce3 x22:0x00000000 PA:0x80008f8f
       44295000	      4428	80006338	007e66b3	or	x13,x28,x7	 x28:0x80009f28  x7:0x10a3e234 x13=0x90a3ff3c
       44305000	      4429	8000633c	1d004613	xori	x12,x0,464	  x0:0x00000000 x12=0x000001d0
       44315000	      4430	80006340	00d900b3	add	x1,x18,x13	 x18:0x00000000 x13:0x90a3ff3c  x1=0x90a3ff3c
       44325000	      4431	80006344	0dbc0c93	addi	x25,x24,219	 x24:0x00000001 x25=0x000000dc
       44335000	      4432	80006348	f18ecb03	lbu	x22,-232(x29)	 x29:0x80008ce3 x22=0x0000004f PA:0x80008bfb
       44345000	      4433	8000634c	24552993	slti	x19,x10,581	 x10:0x00000000 x19=0x00000001
       44355000	      4434	80006350	3f047a93	andi	x21,x8,1008	  x8:0x00000000 x21=0x00000000
       44365000	      4435	80006354	cd4e8b03	lb	x22,-812(x29)	 x29:0x80008ce3 x22=0x0000005f PA:0x800089b7
       44375000	      4436	80006358	179ec083	lbu	x1,377(x29)	 x29:0x80008ce3  x1=0x0000000b PA:0x80008e5c
       44385000	      4437	8000635c	008d8433	add	x8,x27,x8	 x27:0xffff80af  x8:0x00000000  x8=0xffff80af
       44395000	      4438	80006360	f24e8283	lb	x5,-220(x29)	 x29:0x80008ce3  x5=0x00000033 PA:0x80008c07
       44405000	      4439	80006364	f1ded503	lhu	x10,-227(x29)	 x29:0x80008ce3 x10=0x00002320 PA:0x80008c00
       44415000	      4440	80006368	bfdea183	lw	x3,-1027(x29)	 x29:0x80008ce3  x3=0xc71d6da2 PA:0x800088e0
       44425000	      4441	8000636c	de7e8523	sb	x7,-534(x29)	 x29:0x80008ce3  x7:0x10a3e234 PA:0x80008acd
       44435000	      4442	80006370	67861fb7	lui	x31,0x67861	 x31=0x67861000
       44445000	      4443	80006374	0c0e8983	lb	x19,192(x29)	 x29:0x80008ce3 x19=0x00000065 PA:0x80008da3
       44455000	      4444	80006378	d5fec303	lbu	x6,-673(x29)	 x29:0x80008ce3  x6=0x000000a7 PA:0x80008a42
       44465000	      4445	8000637c	0198a4b3	slt	x9,x17,x25	 x17:0x00000028 x25:0x000000dc  x9=0x00000001
       44475000	      4446	80006380	000ab9b3	sltu	x19,x21,x0	 x21:0x00000000  x0:0x00000000 x19=0x00000000
       44485000	      4447	80006384	400a80b3	sub	x1,x21,x0	 x21:0x00000000  x0:0x00000000  x1=0x00000000
       44495000	      4448	80006388	05e97663	bgeu	x18,x30,800063d4	 x18:0x00000000 x30:0x000001d2
       44505000	      4449	8000638c	927ff413	andi	x8,x31,-1753	 x31:0x67861000  x8=0x67861000
       44515000	      4450	80006390	018ed413	srli	x8,x29,0x18	 x29:0x80008ce3  x8=0x00000080
       44525000	      4451	80006394	009290b3	sll	x1,x5,x9	  x5:0x00000033  x9:0x00000001  x1=0x00000066
       44535000	      4452	80006398	8d927f13	andi	x30,x4,-1831	  x4:0xecbee9f3 x30=0xecbee8d1
       44545000	      4453	8000639c	cb803f17	auipc	x30,0xcb803	 x30=0x4b809398
       44555000	      4454	800063a0	05ce5663	bge	x28,x28,800063ec	 x28:0x80009f28 x28:0x80009f28
       44565000	      4455	00000000	00000013	addi	x0,x0,0	  x0:0x00000000
       44575000	      4456	800063e8	00000013	addi	x0,x0,0	  x0:0x00000000
       44585000	      4457	800063ec	12648913	addi	x18,x9,294	  x9:0x00000001 x18=0x00000127
       44595000	      4458	800063f0	02b15a63	bge	x2,x11,80006424	  x2:0xfffffd1f x11:0x00000003
       44605000	      4459	800063f4	01db9193	slli	x3,x23,0x1d	 x23:0x00000000  x3=0x00000000
       44615000	      4460	800063f8	04acf663	bgeu	x25,x10,80006444	 x25:0x000000dc x10:0x00002320
       44625000	      4461	800063fc	2860f513	andi	x10,x1,646	  x1:0x00000066 x10=0x00000006
       44635000	      4462	80006400	014983b3	add	x7,x19,x20	 x19:0x00000000 x20:0x80001e58  x7=0x80001e58
       44645000	      4463	80006404	27d2b213	sltiu	x4,x5,637	  x5:0x00000033  x4=0x00000001
       44655000	      4464	80006408	01d82fb3	slt	x31,x16,x29	 x16:0x80009fc4 x29:0x80008ce3 x31=0x00000000
       44665000	      4465	8000640c	00d7bcb3	sltu	x25,x15,x13	 x15:0x000023ce x13:0x90a3ff3c x25=0x00000001
       44675000	      4466	80006410	40d05b13	srai	x22,x0,0xd	  x0:0x00000000 x22=0x00000000
       44685000	      4467	80006414	06237693	andi	x13,x6,98	  x6:0x000000a7 x13=0x00000022
       44695000	      4468	80006418	673fb613	sltiu	x12,x31,1651	 x31:0x00000000 x12=0x00000001
       44705000	      4469	8000641c	46ea3013	sltiu	x0,x20,1134	 x20:0x80001e58
       44715000	      4470	80006420	06b08c13	addi	x24,x1,107	  x1:0x00000066 x24=0x000000d1
       44725000	      4471	80006424	dde00b13	addi	x22,x0,-546	  x0:0x00000000 x22=0xfffffdde
       44735000	      4472	80006428	0122d8b3	srl	x17,x5,x18	  x5:0x00000033 x18:0x00000127 x17=0x00000000
       44745000	      4473	8000642c	003cfeb3	and	x29,x25,x3	 x25:0x00000001  x3:0x00000000 x29=0x00000000
       44755000	      4474	80006430	a0c8e993	ori	x19,x17,-1524	 x17:0x00000000 x19=0xfffffa0c
       44765000	      4475	80006434	00000013	addi	x0,x0,0	  x0:0x00000000
       44775000	      4476	80006438	0f02c413	xori	x8,x5,240	  x5:0x00000033  x8=0x000000c3
       44785000	      4477	8000643c	00000013	addi	x0,x0,0	  x0:0x00000000
       44795000	      4478	80006440	01e42eb3	slt	x29,x8,x30	  x8:0x000000c3 x30:0x4b809398 x29=0x00000001
       44805000	      4479	80006444	010a9663	bne	x21,x16,80006450	 x21:0x00000000 x16:0x80009fc4
       44815000	      4480	00000000	00000013	addi	x0,x0,0	  x0:0x00000000
       44825000	      4481	8000644c	00000013	addi	x0,x0,0	  x0:0x00000000
       44835000	      4482	80006450	01afa1b3	slt	x3,x31,x26	 x31:0x00000000 x26:0x80000000  x3=0x00000000
       44845000	      4483	80006454	03b30c13	addi	x24,x6,59	  x6:0x000000a7 x24=0x000000e2
       44855000	      4484	80006458	00e55913	srli	x18,x10,0xe	 x10:0x00000006 x18=0x00000000
       44865000	      4485	8000645c	e5344513	xori	x10,x8,-429	  x8:0x000000c3 x10=0xfffffe90
       44875000	      4486	80006460	32222093	slti	x1,x4,802	  x4:0x00000001  x1=0x00000001
       44885000	      4487	80006464	00a21713	slli	x14,x4,0xa	  x4:0x00000001 x14=0x00000400
       44895000	      4488	80006468	bb09ba97	auipc	x21,0xbb09b	 x21=0x3b0a1464
       44905000	      4489	8000646c	14ef0193	addi	x3,x30,334	 x30:0x4b809398  x3=0x4b8094e6
       44915000	      4490	80006470	4091d713	srai	x14,x3,0x9	  x3:0x4b8094e6 x14=0x0025c04a
       44925000	      4491	80006474	e530d3b7	lui	x7,0xe530d	  x7=0xe530d000
       44935000	      4492	80006478	01a1f663	bgeu	x3,x26,80006484	  x3:0x4b8094e6 x26:0x80000000
       44945000	      4493	8000647c	00dc5033	srl	x0,x24,x13	 x24:0x000000e2 x13:0x00000022
       44955000	      4494	80006480	00000013	addi	x0,x0,0	  x0:0x00000000
       44965000	      4495	80006484	00af5463	bge	x30,x10,8000648c	 x30:0x4b809398 x10:0xfffffe90
       44975000	      4496	00000000	00000013	addi	x0,x0,0	  x0:0x00000000
       44985000	      4497	80006488	00000013	addi	x0,x0,0	  x0:0x00000000
       44995000	      4498	8000648c	01596933	or	x18,x18,x21	 x18:0x00000000 x21:0x3b0a1464 x18=0x3b0a1464
       45005000	      4499	80006490	02a11e63	bne	x2,x10,800064cc	  x2:0xfffffd1f x10:0xfffffe90
       45015000	      4500	00000000	00000013	addi	x0,x0,0	  x0:0x00000000
       45025000	      4501	800064c8	00000013	addi	x0,x0,0	  x0:0x00000000
       45035000	      4502	800064cc	f4258c93	addi	x25,x11,-190	 x11:0x00000003 x25=0xffffff45
       45045000	      4503	800064d0	00945b93	srli	x23,x8,0x9	  x8:0x000000c3 x23=0x00000000
       45055000	      4504	800064d4	01468cb3	add	x25,x13,x20	 x13:0x00000022 x20:0x80001e58 x25=0x80001e7a
       45065000	      4505	800064d8	00d55013	srli	x0,x10,0xd	 x10:0xfffffe90
       45075000	      4506	800064dc	eaad6f93	ori	x31,x26,-342	 x26:0x80000000 x31=0xfffffeaa
       45085000	      4507	800064e0	019521b3	slt	x3,x10,x25	 x10:0xfffffe90 x25:0x80001e7a  x3=0x00000000
       45095000	      4508	800064e4	04470063	beq	x14,x4,80006524	 x14:0x0025c04a  x4:0x00000001
       45105000	      4509	800064e8	72726593	ori	x11,x4,1831	  x4:0x00000001 x11=0x00000727
       45115000	      4510	800064ec	008d5933	srl	x18,x26,x8	 x26:0x80000000  x8:0x000000c3 x18=0x10000000
       45125000	      4511	800064f0	01cb9ab3	sll	x21,x23,x28	 x23:0x00000000 x28:0x80009f28 x21=0x00000000
       45135000	      4512	800064f4	00b61863	bne	x12,x11,80006504	 x12:0x00000001 x11:0x00000727
       45145000	      4513	00000000	00000013	addi	x0,x0,0	  x0:0x00000000
       45155000	      4514	80006500	00000013	addi	x0,x0,0	  x0:0x00000000
       45165000	      4515	80006504	401007b3	sub	x15,x0,x1	  x0:0x00000000  x1:0x00000001 x15=0xffffffff
       45175000	      4516	80006508	41e4d3b3	sra	x7,x9,x30	  x9:0x00000001 x30:0x4b809398  x7=0x00000000
       45185000	      4517	8000650c	40b95c13	srai	x24,x18,0xb	 x18:0x10000000 x24=0x00020000
       45195000	      4518	80006510	02d5d463	bge	x11,x13,80006538	 x11:0x00000727 x13:0x00000022
       45205000	      4519	00000000	00000013	addi	x0,x0,0	  x0:0x00000000
       45215000	      4520	80006534	00000013	addi	x0,x0,0	  x0:0x00000000
       45225000	      4521	80006538	00812a33	slt	x20,x2,x8	  x2:0xfffffd1f  x8:0x000000c3 x20=0x00000001
       45235000	      4522	8000653c	92064737	lui	x14,0x92064	 x14=0x92064000
       45245000	      4523	80006540	01b557b3	srl	x15,x10,x27	 x10:0xfffffe90 x27:0xffff80af x15=0x0001ffff
       45255000	      4524	80006544	004246b3	xor	x13,x4,x4	  x4:0x00000001  x4:0x00000001 x13=0x00000000
       45265000	      4525	80006548	04639863	bne	x7,x6,80006598	  x7:0x00000000  x6:0x000000a7
       45275000	      4526	00000000	00000013	addi	x0,x0,0	  x0:0x00000000
       45285000	      4527	80006594	00000013	addi	x0,x0,0	  x0:0x00000000
       45295000	      4528	80006598	01c040b3	xor	x1,x0,x28	  x0:0x00000000 x28:0x80009f28  x1=0x80009f28
       45305000	      4529	8000659c	02dd0263	beq	x26,x13,800065c0	 x26:0x80000000 x13:0x00000000
       45315000	      4530	800065a0	fbae7113	andi	x2,x28,-70	 x28:0x80009f28  x2=0x80009f28
       45325000	      4531	800065a4	02701463	bne	x0,x7,800065cc	  x0:0x00000000  x7:0x00000000
       45335000	      4532	800065a8	01c0f9b3	and	x19,x1,x28	  x1:0x80009f28 x28:0x80009f28 x19=0x80009f28
       45345000	      4533	800065ac	20eacfb7	lui	x31,0x20eac	 x31=0x20eac000
       45355000	      4534	800065b0	416285b3	sub	x11,x5,x22	  x5:0x00000033 x22:0xfffffdde x11=0x00000255
       45365000	      4535	800065b4	7fe26b13	ori	x22,x4,2046	  x4:0x00000001 x22=0x000007ff
       45375000	      4536	800065b8	00364863	blt	x12,x3,800065c8	 x12:0x00000001  x3:0x00000000
       45385000	      4537	800065bc	00574533	xor	x10,x14,x5	 x14:0x92064000  x5:0x00000033 x10=0x92064033
       45395000	      4538	800065c0	01601233	sll	x4,x0,x22	  x0:0x00000000 x22:0x000007ff  x4=0x00000000
       45405000	      4539	800065c4	0098e663	bltu	x17,x9,800065d0	 x17:0x00000000  x9:0x00000001
       45415000	      4540	00000000	00000013	addi	x0,x0,0	  x0:0x00000000
       45425000	      4541	800065cc	00000013	addi	x0,x0,0	  x0:0x00000000
       45435000	      4542	800065d0	00000013	addi	x0,x0,0	  x0:0x00000000
       45445000	      4543	800065d4	00617e63	bgeu	x2,x6,800065f0	  x2:0x80009f28  x6:0x000000a7
       45455000	      4544	00000000	00000013	addi	x0,x0,0	  x0:0x00000000
       45465000	      4545	800065ec	00000013	addi	x0,x0,0	  x0:0x00000000
       45475000	      4546	800065f0	01b81393	slli	x7,x16,0x1b	 x16:0x80009fc4  x7=0x20000000
       45485000	      4547	800065f4	03344863	blt	x8,x19,80006624	  x8:0x000000c3 x19:0x80009f28
       45495000	      4548	800065f8	0186d1b3	srl	x3,x13,x24	 x13:0x00000000 x24:0x00020000  x3=0x00000000
       45505000	      4549	800065fc	01fbecb3	or	x25,x23,x31	 x23:0x00000000 x31:0x20eac000 x25=0x20eac000
       45515000	      4550	80006600	00083333	sltu	x6,x16,x0	 x16:0x80009fc4  x0:0x00000000  x6=0x00000000
       45525000	      4551	80006604	00ffcf33	xor	x30,x31,x15	 x31:0x20eac000 x15:0x0001ffff x30=0x20eb3fff
       45535000	      4552	80006608	016fd3b3	srl	x7,x31,x22	 x31:0x20eac000 x22:0x000007ff  x7=0x00000000
       45545000	      4553	8000660c	0180c933	xor	x18,x1,x24	  x1:0x80009f28 x24:0x00020000 x18=0x80029f28
       45555000	      4554	80006610	01c91413	slli	x8,x18,0x1c	 x18:0x80029f28  x8=0x80000000
       45565000	      4555	80006614	a8167c93	andi	x25,x12,-1407	 x12:0x00000001 x25=0x00000001
       45575000	      4556	80006618	00000013	addi	x0,x0,0	  x0:0x00000000
       45585000	      4557	8000661c	f20ffa6f	jal	x20,8000661c	 x20=0x8000661c
       45595000	      4558	00000000	00000013	addi	x0,x0,0	  x0:0x00000000
       45605000	      4559	80005d38	00000013	addi	x0,x0,0	  x0:0x00000000
       45615000	      4560	80005d3c	01116c33	or	x24,x2,x17	  x2:0x80009f28 x17:0x00000000 x24=0x80009f28
       45625000	      4561	80005d40	0054cfb3	xor	x31,x9,x5	  x9:0x00000001  x5:0x00000033 x31=0x00000032
       45635000	      4562	80005d44	00b99913	slli	x18,x19,0xb	 x19:0x80009f28 x18=0x04f94000
       45645000	      4563	80005d48	40858fb3	sub	x31,x11,x8	 x11:0x00000255  x8:0x80000000 x31=0x80000255
       45655000	      4564	80005d4c	918e8413	addi	x8,x29,-1768	 x29:0x00000001  x8=0xfffff919
       45665000	      4565	80005d50	7339f793	andi	x15,x19,1843	 x19:0x80009f28 x15=0x00000720
       45675000	      4566	80005d54	fd0e0e13	addi	x28,x28,-48	 x28:0x80009f28 x28=0x80009ef8
       45685000	      4567	80005d58	29573013	sltiu	x0,x14,661	 x14:0x92064000
       45695000	      4568	80005d5c	016476b3	and	x13,x8,x22	  x8:0xfffff919 x22:0x000007ff x13=0x00000119
       45705000	      4569	80005d60	014e2223	sw	x20,4(x28)	 x28:0x80009ef8 x20:0x8000661c PA:0x80009efc
       45715000	      4570	80005d64	00000013	addi	x0,x0,0	  x0:0x00000000
       45725000	      4571	80005d68	016680b3	add	x1,x13,x22	 x13:0x00000119 x22:0x000007ff  x1=0x00000918
       45735000	      4572	80005d6c	00000013	addi	x0,x0,0	  x0:0x00000000
       45745000	      4573	80005d70	ffffc217	auipc	x4,0xffffc	  x4=0x80001d6c
       45755000	      4574	80005d74	28420213	addi	x4,x4,644	  x4:0x80001d6c  x4=0x80001ff0
       45765000	      4575	80005d78	0007a133	slt	x2,x15,x0	 x15:0x00000720  x0:0x00000000  x2=0x00000000
       45775000	      4576	80005d7c	01891db3	sll	x27,x18,x24	 x18:0x04f94000 x24:0x80009f28 x27=0xf9400000
       45785000	      4577	80005d80	70ef8f93	addi	x31,x31,1806	 x31:0x80000255 x31=0x80000963
       45795000	      4578	80005d84	daee8513	addi	x10,x29,-594	 x29:0x00000001 x10=0xfffffdaf
       45805000	      4579	80005d88	4067d293	srai	x5,x15,0x6	 x15:0x00000720  x5=0x0000001c
       45815000	      4580	80005d8c	c5b20213	addi	x4,x4,-933	  x4:0x80001ff0  x4=0x80001c4b
       45825000	      4581	80005d90	006bd463	bge	x23,x6,80005d98	 x23:0x00000000  x6:0x00000000
       45835000	      4582	00000000	00000013	addi	x0,x0,0	  x0:0x00000000
       45845000	      4583	80005d94	00000013	addi	x0,x0,0	  x0:0x00000000
       45855000	      4584	80005d98	3a520a67	jalr	x20,x4,933	  x4:0x80001c4b x20=0x80005d98
       45865000	      4585	00000000	00000013	addi	x0,x0,0	  x0:0x00000000
       45875000	      4586	80001ff0	00000013	addi	x0,x0,0	  x0:0x00000000
       45885000	      4587	80001ff4	00c47033	and	x0,x8,x12	  x8:0xfffff919 x12:0x00000001
       45895000	      4588	80001ff8	fc0e0e13	addi	x28,x28,-64	 x28:0x80009ef8 x28=0x80009eb8
       45905000	      4589	80001ffc	018ff333	and	x6,x31,x24	 x31:0x80000963 x24:0x80009f28  x6=0x80000920
       45915000	      4590	80002000	22db8413	addi	x8,x23,557	 x23:0x00000000  x8=0x0000022d
       45925000	      4591	80002004	014e2223	sw	x20,4(x28)	 x28:0x80009eb8 x20:0x80005d98 PA:0x80009ebc
       45935000	      4592	80002008	4194d693	srai	x13,x9,0x19	  x9:0x00000001 x13=0x00000000
       45945000	      4593	8000200c	00007b17	auipc	x22,0x7	 x22=0x80009008
       45955000	      4594	80002010	92fb0b13	addi	x22,x22,-1745	 x22:0x80009008 x22=0x80008937
       45965000	      4595	80002014	019db3b3	sltu	x7,x27,x25	 x27:0xf9400000 x25:0x00000001  x7=0x00000000
       45975000	      4596	80002018	01077fb3	and	x31,x14,x16	 x14:0x92064000 x16:0x80009fc4 x31=0x80000000
       45985000	      4597	8000201c	00dae3b3	or	x7,x21,x13	 x21:0x00000000 x13:0x00000000  x7=0x00000000
       45995000	      4598	80002020	a047c493	xori	x9,x15,-1532	 x15:0x00000720  x9=0xfffffd24
       46005000	      4599	80002024	014f69b3	or	x19,x30,x20	 x30:0x20eb3fff x20:0x80005d98 x19=0xa0eb7fff
       46015000	      4600	80002028	6de97613	andi	x12,x18,1758	 x18:0x04f94000 x12=0x00000000
       46025000	      4601	8000202c	69878513	addi	x10,x15,1688	 x15:0x00000720 x10=0x00000db8
       46035000	      4602	80002030	ff1b0e83	lb	x29,-15(x22)	 x22:0x80008937 x29=0x00000009 PA:0x80008928
       46045000	      4603	80002034	00000013	addi	x0,x0,0	  x0:0x00000000
       46055000	      4604	80002038	013b06a3	sb	x19,13(x22)	 x22:0x80008937 x19:0xa0eb7fff PA:0x80008944
       46065000	      4605	8000203c	000b4103	lbu	x2,0(x22)	 x22:0x80008937  x2=0x0000009e PA:0x80008937
       46075000	      4606	80002040	006500b3	add	x1,x10,x6	 x10:0x00000db8  x6:0x80000920  x1=0x800016d8
       46085000	      4607	80002044	ff3b0f03	lb	x30,-13(x22)	 x22:0x80008937 x30=0xffffff99 PA:0x8000892a
       46095000	      4608	80002048	4161df93	srai	x31,x3,0x16	  x3:0x00000000 x31=0x00000000
       46105000	      4609	8000204c	ff1b0483	lb	x9,-15(x22)	 x22:0x80008937  x9=0x00000009 PA:0x80008928
       46115000	      4610	80002050	01de1a93	slli	x21,x28,0x1d	 x28:0x80009eb8 x21=0x00000000
       46125000	      4611	80002054	f7782037	lui	x0,0xf7782	
       46135000	      4612	80002058	4109d093	srai	x1,x19,0x10	 x19:0xa0eb7fff  x1=0xffffa0eb
       46145000	      4613	8000205c	ffeb4a83	lbu	x21,-2(x22)	 x22:0x80008937 x21=0x00000009 PA:0x80008935
       46155000	      4614	80002060	8df9ac97	auipc	x25,0x8df9a	 x25=0x0df9c05c
       46165000	      4615	80002064	001c8933	add	x18,x25,x1	 x25:0x0df9c05c  x1:0xffffa0eb x18=0x0df96147
       46175000	      4616	80002068	41085293	srai	x5,x16,0x10	 x16:0x80009fc4  x5=0xffff8000
       46185000	      4617	8000206c	000153b3	srl	x7,x2,x0	  x2:0x0000009e  x0:0x00000000  x7=0x0000009e
       46195000	      4618	80002070	00fb0c83	lb	x25,15(x22)	 x22:0x80008937 x25=0xffffff90 PA:0x80008946
       46205000	      4619	80002074	000b01a3	sb	x0,3(x22)	 x22:0x80008937  x0:0x00000000 PA:0x8000893a
       46215000	      4620	80002078	ffbb1683	lh	x13,-5(x22)	 x22:0x80008937 x13=0x0000708e PA:0x80008932
       46225000	      4621	8000207c	01beb9b3	sltu	x19,x29,x27	 x29:0x00000009 x27:0xf9400000 x19=0x00000001
       46235000	      4622	80002080	41adde93	srai	x29,x27,0x1a	 x27:0xf9400000 x29=0xfffffffe
       46245000	      4623	80002084	2a6eb3b7	lui	x7,0x2a6eb	  x7=0x2a6eb000
       46255000	      4624	80002088	00000013	addi	x0,x0,0	  x0:0x00000000
       46265000	      4625	8000208c	01ce0033	add	x0,x28,x28	 x28:0x80009eb8 x28:0x80009eb8
       46275000	      4626	80002090	005b2a83	lw	x21,5(x22)	 x22:0x80008937 x21=0x308c4f76 PA:0x8000893c
       46285000	      4627	80002094	01bb14a3	sh	x27,9(x22)	 x22:0x80008937 x27:0xf9400000 PA:0x80008940
       46295000	      4628	80002098	9195f097	auipc	x1,0x9195f	  x1=0x11961094
       46305000	      4629	8000209c	dab76713	ori	x14,x14,-597	 x14:0x92064000 x14=0xfffffdab
       46315000	      4630	800020a0	eb85aa93	slti	x21,x11,-328	 x11:0x00000255 x21=0x00000000
       46325000	      4631	800020a4	00cb4003	lbu	x0,12(x22)	 x22:0x80008937 PA:0x80008943
       46335000	      4632	800020a8	090a1917	auipc	x18,0x90a1	 x18=0x890a30a4
       46345000	      4633	800020ac	006c91b3	sll	x3,x25,x6	 x25:0xffffff90  x6:0x80000920  x3=0xffffff90
       46355000	      4634	800020b0	005b0403	lb	x8,5(x22)	 x22:0x80008937  x8=0x00000076 PA:0x8000893c
       46365000	      4635	800020b4	00006117	auipc	x2,0x6	  x2=0x800080b0
       46375000	      4636	800020b8	7a410113	addi	x2,x2,1956	  x2:0x800080b0  x2=0x80008854
       46385000	      4637	800020bc	41ba5a33	sra	x20,x20,x27	 x20:0x80005d98 x27:0xf9400000 x20=0x80005d98
       46395000	      4638	800020c0	72492a93	slti	x21,x18,1828	 x18:0x890a30a4 x21=0x00000001
       46405000	      4639	800020c4	01bfa3b3	slt	x7,x31,x27	 x31:0x00000000 x27:0xf9400000  x7=0x00000000
       46415000	      4640	800020c8	40f95c13	srai	x24,x18,0xf	 x18:0x890a30a4 x24=0xffff1214
       46425000	      4641	800020cc	18ceedb7	lui	x27,0x18cee	 x27=0x18cee000
       46435000	      4642	800020d0	414283b3	sub	x7,x5,x20	  x5:0xffff8000 x20:0x80005d98  x7=0x7fff2268
       46445000	      4643	800020d4	0d5101a3	sb	x21,195(x2)	  x2:0x80008854 x21:0x00000001 PA:0x80008917
       46455000	      4644	800020d8	41dd8033	sub	x0,x27,x29	 x27:0x18cee000 x29:0xfffffffe
       46465000	      4645	800020dc	1a804c93	xori	x25,x0,424	  x0:0x00000000 x25=0x000001a8
       46475000	      4646	800020e0	006f5933	srl	x18,x30,x6	 x30:0xffffff99  x6:0x80000920 x18=0xffffff99
       46485000	      4647	800020e4	fe6c2393	slti	x7,x24,-26	 x24:0xffff1214  x7=0x00000001
       46495000	      4648	800020e8	fff14f03	lbu	x30,-1(x2)	  x2:0x80008854 x30=0x00000093 PA:0x80008853
       46505000	      4649	800020ec	0cc101a3	sb	x12,195(x2)	  x2:0x80008854 x12:0x00000000 PA:0x80008917
       46515000	      4650	800020f0	4167d013	srai	x0,x15,0x16	 x15:0x00000720
       46525000	      4651	800020f4	0d510b83	lb	x23,213(x2)	  x2:0x80008854 x23=0x00000021 PA:0x80008929
       46535000	      4652	800020f8	0122fcb3	and	x25,x5,x18	  x5:0xffff8000 x18:0xffffff99 x25=0xffff8000
       46545000	      4653	800020fc	419954b3	sra	x9,x18,x25	 x18:0xffffff99 x25:0xffff8000  x9=0xffffff99
       46555000	      4654	80002100	03e12623	sw	x30,44(x2)	  x2:0x80008854 x30:0x00000093 PA:0x80008880
       46565000	      4655	80002104	a9d0a193	slti	x3,x1,-1379	  x1:0x11961094  x3=0x00000000
       46575000	      4656	80002108	0001e633	or	x12,x3,x0	  x3:0x00000000  x0:0x00000000 x12=0x00000000
       46585000	      4657	8000210c	984139b7	lui	x19,0x98413	 x19=0x98413000
       46595000	      4658	80002110	01ff5b93	srli	x23,x30,0x1f	 x30:0x00000093 x23=0x00000000
       46605000	      4659	80002114	00e10703	lb	x14,14(x2)	  x2:0x80008854 x14=0x0000005f PA:0x80008862
       46615000	      4660	80002118	f7144293	xori	x5,x8,-143	  x8:0x00000076  x5=0xffffff07
       46625000	      4661	8000211c	ff314883	lbu	x17,-13(x2)	  x2:0x80008854 x17=0x00000054 PA:0x80008847
       46635000	      4662	00000000	00000013	addi	x0,x0,0	  x0:0x00000000
       46645000	      4663	80002120	1b1cbd93	sltiu	x27,x25,433	 x25:0xffff8000 x27=0x00000000
       46655000	      4664	80002124	40a65b33	sra	x22,x12,x10	 x12:0x00000000 x10:0x00000db8 x22=0x00000000
       46665000	      4665	80002128	08a10b03	lb	x22,138(x2)	  x2:0x80008854 x22=0x0000002b PA:0x800088de
       46675000	      4666	8000212c	00d14f83	lbu	x31,13(x2)	  x2:0x80008854 x31=0x00000090 PA:0x80008861
       46685000	      4667	80002130	09310883	lb	x17,147(x2)	  x2:0x80008854 x17=0xffffff9c PA:0x800088e7
       46695000	      4668	80002134	00006e97	auipc	x29,0x6	 x29=0x80008130
       46705000	      4669	80002138	0f5e8e93	addi	x29,x29,245	 x29:0x80008130 x29=0x80008225
       46715000	      4670	8000213c	00cecb03	lbu	x22,12(x29)	 x29:0x80008225 x22=0x00000040 PA:0x80008231
       46725000	      4671	80002140	ff2e8a03	lb	x20,-14(x29)	 x29:0x80008225 x20=0xffffffeb PA:0x80008217
       46735000	      4672	00000000	00000013	addi	x0,x0,0	  x0:0x00000000
       46745000	      4673	80002144	00ca6cb3	or	x25,x20,x12	 x20:0xffffffeb x12:0x00000000 x25=0xffffffeb
       46755000	      4674	80002148	005ed303	lhu	x6,5(x29)	 x29:0x80008225  x6=0x000041f1 PA:0x8000822a
       46765000	      4675	8000214c	ff7ec503	lbu	x10,-9(x29)	 x29:0x80008225 x10=0x00000041 PA:0x8000821c
       46775000	      4676	80002150	000ec503	lbu	x10,0(x29)	 x29:0x80008225 x10=0x00000037 PA:0x80008225
       46785000	      4677	80002154	ffdec403	lbu	x8,-3(x29)	 x29:0x80008225  x8=0x00000020 PA:0x80008222
       46795000	      4678	80002158	015e63b3	or	x7,x28,x21	 x28:0x80009eb8 x21:0x00000001  x7=0x80009eb9
       46805000	      4679	8000215c	00fec083	lbu	x1,15(x29)	 x29:0x80008225  x1=0x000000a2 PA:0x80008234
       46815000	      4680	80002160	d65def13	ori	x30,x27,-667	 x27:0x00000000 x30=0xfffffd65
       46825000	      4681	80002164	00dedd83	lhu	x27,13(x29)	 x29:0x80008225 x27=0x0000a226 PA:0x80008232
       46835000	      4682	80002168	008e80a3	sb	x8,1(x29)	 x29:0x80008225  x8:0x00000020 PA:0x80008226
       46845000	      4683	8000216c	00be8223	sb	x11,4(x29)	 x29:0x80008225 x11:0x00000255 PA:0x80008229
       46855000	      4684	80002170	ffeec383	lbu	x7,-2(x29)	 x29:0x80008225  x7=0x00000007 PA:0x80008223
       46865000	      4685	80002174	01a797b3	sll	x15,x15,x26	 x15:0x00000720 x26:0x80000000 x15=0x00000720
       46875000	      4686	80002178	01515c93	srli	x25,x2,0x15	  x2:0x80008854 x25=0x00000400
       46885000	      4687	8000217c	948e7c93	andi	x25,x28,-1720	 x28:0x80009eb8 x25=0x80009808
       46895000	      4688	80002180	41eed5b3	sra	x11,x29,x30	 x29:0x80008225 x30:0xfffffd65 x11=0xfc000411
       46905000	      4689	80002184	011cd9b3	srl	x19,x25,x17	 x25:0x80009808 x17:0xffffff9c x19=0x00000008
       46915000	      4690	80002188	fe6e8c23	sb	x6,-8(x29)	 x29:0x80008225  x6:0x000041f1 PA:0x8000821d
       46925000	      4691	8000218c	ff7e8703	lb	x14,-9(x29)	 x29:0x80008225 x14=0x00000041 PA:0x8000821c
       46935000	      4692	80002190	fffecd83	lbu	x27,-1(x29)	 x29:0x80008225 x27=0x000000fe PA:0x80008224
       46945000	      4693	80002194	00ce8183	lb	x3,12(x29)	 x29:0x80008225  x3=0x00000040 PA:0x80008231
       46955000	      4694	80002198	7f858693	addi	x13,x11,2040	 x11:0xfc000411 x13=0xfc000c09
       46965000	      4695	8000219c	001ed483	lhu	x9,1(x29)	 x29:0x80008225  x9=0x00007a20 PA:0x80008226
       46975000	      4696	800021a0	00ff1bb3	sll	x23,x30,x15	 x30:0xfffffd65 x15:0x00000720 x23=0xfffffd65
       46985000	      4697	800021a4	01764933	xor	x18,x12,x23	 x12:0x00000000 x23:0xfffffd65 x18=0xfffffd65
       46995000	      4698	800021a8	007e8a83	lb	x21,7(x29)	 x29:0x80008225 x21=0xffffff8b PA:0x8000822c
       47005000	      4699	800021ac	003e8303	lb	x6,3(x29)	 x29:0x80008225  x6=0x0000001b PA:0x80008228
       47015000	      4700	800021b0	fefe9ea3	sh	x15,-3(x29)	 x29:0x80008225 x15:0x00000720 PA:0x80008222
       47025000	      4701	800021b4	039f4063	blt	x30,x25,800021d4	 x30:0xfffffd65 x25:0x80009808
       47035000	      4702	800021b8	af6ef393	andi	x7,x29,-1290	 x29:0x80008225  x7=0x80008224
       47045000	      4703	800021bc	01788633	add	x12,x17,x23	 x17:0xffffff9c x23:0xfffffd65 x12=0xfffffd01
       47055000	      4704	800021c0	00ba8933	add	x18,x21,x11	 x21:0xffffff8b x11:0xfc000411 x18=0xfc00039c
       47065000	      4705	800021c4	01001e93	slli	x29,x0,0x10	  x0:0x00000000 x29=0x00000000
       47075000	      4706	800021c8	283f3413	sltiu	x8,x30,643	 x30:0xfffffd65  x8=0x00000000
       47085000	      4707	800021cc	7c6a2a13	slti	x20,x20,1990	 x20:0xffffffeb x20=0x00000001
       47095000	      4708	800021d0	40f58eb3	sub	x29,x11,x15	 x11:0xfc000411 x15:0x00000720 x29=0xfbfffcf1
       47105000	      4709	800021d4	d4f5ad93	slti	x27,x11,-689	 x11:0xfc000411 x27=0x00000001
       47115000	      4710	800021d8	ddc28717	auipc	x14,0xddc28	 x14=0x5dc2a1d4
       47125000	      4711	800021dc	003d6c33	or	x24,x26,x3	 x26:0x80000000  x3:0x00000040 x24=0x80000040
       47135000	      4712	800021e0	c3ec8f93	addi	x31,x25,-962	 x25:0x80009808 x31=0x80009446
       47145000	      4713	800021e4	74d18293	addi	x5,x3,1869	  x3:0x00000040  x5=0x0000078d
       47155000	      4714	800021e8	01385893	srli	x17,x16,0x13	 x16:0x80009fc4 x17=0x00001000
       47165000	      4715	800021ec	40b35333	sra	x6,x6,x11	  x6:0x0000001b x11:0xfc000411  x6=0x00000000
       47175000	      4716	800021f0	01108733	add	x14,x1,x17	  x1:0x000000a2 x17:0x00001000 x14=0x000010a2
       47185000	      4717	800021f4	0b176463	bltu	x14,x17,8000229c	 x14:0x000010a2 x17:0x00001000
       47195000	      4718	800021f8	21553513	sltiu	x10,x10,533	 x10:0x00000037 x10=0x00000001
       47205000	      4719	800021fc	77bd8a13	addi	x20,x27,1915	 x27:0x00000001 x20=0x0000077c
       47215000	      4720	80002200	6265cb13	xori	x22,x11,1574	 x11:0xfc000411 x22=0xfc000237
       47225000	      4721	80002204	00007117	auipc	x2,0x7	  x2=0x80009200
       47235000	      4722	80002208	c6610113	addi	x2,x2,-922	  x2:0x80009200  x2=0x80008e66
       47245000	      4723	8000220c	f3ca3a93	sltiu	x21,x20,-196	 x20:0x0000077c x21=0x00000001
       47255000	      4724	80002210	00210ea3	sb	x2,29(x2)	  x2:0x80008e66  x2:0x80008e66 PA:0x80008e83
       47265000	      4725	80002214	09811083	lh	x1,152(x2)	  x2:0x80008e66  x1=0xffffa33c PA:0x80008efe
       47275000	      4726	80002218	f1010603	lb	x12,-240(x2)	  x2:0x80008e66 x12=0x00000066 PA:0x80008d76
       47285000	      4727	8000221c	0016d3b3	srl	x7,x13,x1	 x13:0xfc000c09  x1:0xffffa33c  x7=0x0000000f
       47295000	      4728	80002220	5b2bbb13	sltiu	x22,x23,1458	 x23:0xfffffd65 x22=0x00000000
       47305000	      4729	80002224	a4366c93	ori	x25,x12,-1469	 x12:0x00000066 x25=0xfffffa67
       47315000	      4730	80002228	0f014483	lbu	x9,240(x2)	  x2:0x80008e66  x9=0x00000026 PA:0x80008f56
       47325000	      4731	8000222c	f1510a03	lb	x20,-235(x2)	  x2:0x80008e66 x20=0xffffff9f PA:0x80008d7b
       47335000	      4732	80002230	00160b33	add	x22,x12,x1	 x12:0x00000066  x1:0xffffa33c x22=0xffffa3a2
       47345000	      4733	80002234	01270bb3	add	x23,x14,x18	 x14:0x000010a2 x18:0xfc00039c x23=0xfc00143e
       47355000	      4734	80002238	0b811c83	lh	x25,184(x2)	  x2:0x80008e66 x25=0x00000d2e PA:0x80008f1e
       47365000	      4735	00000000	00000013	addi	x0,x0,0	  x0:0x00000000
       47375000	      4736	8000223c	07910f03	lb	x30,121(x2)	  x2:0x80008e66 x30=0x00000000 PA:0x80008edf
       47385000	      4737	80002240	05310883	lb	x17,83(x2)	  x2:0x80008e66 x17=0x00000029 PA:0x80008eb9
       47395000	      4738	80002244	0077dc93	srli	x25,x15,0x7	 x15:0x00000720 x25=0x0000000e
       47405000	      4739	80002248	fb910023	sb	x25,-96(x2)	  x2:0x80008e66 x25:0x0000000e PA:0x80008e06
       47415000	      4740	8000224c	404e5693	srai	x13,x28,0x4	 x28:0x80009eb8 x13=0xf80009eb
       47425000	      4741	80002250	76da2f93	slti	x31,x20,1901	 x20:0xffffff9f x31=0x00000001
       47435000	      4742	80002254	41f18ab3	sub	x21,x3,x31	  x3:0x00000040 x31:0x00000001 x21=0x0000003f
       47445000	      4743	80002258	0057ab33	slt	x22,x15,x5	 x15:0x00000720  x5:0x0000078d x22=0x00000001
       47455000	      4744	8000225c	a2356513	ori	x10,x10,-1501	 x10:0x00000001 x10=0xfffffa23
       47465000	      4745	80002260	006b2ab3	slt	x21,x22,x6	 x22:0x00000001  x6:0x00000000 x21=0x00000000
       47475000	      4746	80002264	09010fa3	sb	x16,159(x2)	  x2:0x80008e66 x16:0x80009fc4 PA:0x80008f05
       47485000	      4747	80002268	02694663	blt	x18,x6,80002294	 x18:0xfc00039c  x6:0x00000000
       47495000	      4748	00000000	00000013	addi	x0,x0,0	  x0:0x00000000
       47505000	      4749	80002290	00000013	addi	x0,x0,0	  x0:0x00000000
       47515000	      4750	80002294	f1cb2293	slti	x5,x22,-228	 x22:0x00000001  x5=0x00000000
       47525000	      4751	80002298	0125a533	slt	x10,x11,x18	 x11:0xfc000411 x18:0xfc00039c x10=0x00000000
       47535000	      4752	8000229c	f2188a93	addi	x21,x17,-223	 x17:0x00000029 x21=0xffffff4a
       47545000	      4753	800022a0	00edeb33	or	x22,x27,x14	 x27:0x00000001 x14:0x000010a2 x22=0x000010a3
       47555000	      4754	800022a4	00330663	beq	x6,x3,800022b0	  x6:0x00000000  x3:0x00000040
       47565000	      4755	800022a8	019c20b3	slt	x1,x24,x25	 x24:0x80000040 x25:0x0000000e  x1=0x00000001
       47575000	      4756	800022ac	00be49b3	xor	x19,x28,x11	 x28:0x80009eb8 x11:0xfc000411 x19=0x7c009aa9
       47585000	      4757	800022b0	0124f5b3	and	x11,x9,x18	  x9:0x00000026 x18:0xfc00039c x11=0x00000004
       47595000	      4758	800022b4	41ac5c33	sra	x24,x24,x26	 x24:0x80000040 x26:0x80000000 x24=0x80000040
       47605000	      4759	800022b8	00000013	addi	x0,x0,0	  x0:0x00000000
       47615000	      4760	800022bc	4009d893	srai	x17,x19,0x0	 x19:0x7c009aa9 x17=0x7c009aa9
       47625000	      4761	800022c0	ad7cec37	lui	x24,0xad7ce	 x24=0xad7ce000
       47635000	      4762	800022c4	419b50b3	sra	x1,x22,x25	 x22:0x000010a3 x25:0x0000000e  x1=0x00000000
       47645000	      4763	800022c8	02865c63	bge	x12,x8,80002300	 x12:0x00000066  x8:0x00000000
       47655000	      4764	00000000	00000013	addi	x0,x0,0	  x0:0x00000000
       47665000	      4765	800022fc	00000013	addi	x0,x0,0	  x0:0x00000000
       47675000	      4766	80002300	0075fcb3	and	x25,x11,x7	 x11:0x00000004  x7:0x0000000f x25=0x00000004
       47685000	      4767	80002304	00c3e463	bltu	x7,x12,8000230c	  x7:0x0000000f x12:0x00000066
       47695000	      4768	00000000	00000013	addi	x0,x0,0	  x0:0x00000000
       47705000	      4769	80002308	00000013	addi	x0,x0,0	  x0:0x00000000
       47715000	      4770	8000230c	ea389537	lui	x10,0xea389	 x10=0xea389000
       47725000	      4771	80002310	0397ce63	blt	x15,x25,8000234c	 x15:0x00000720 x25:0x00000004
       47735000	      4772	80002314	002351b3	srl	x3,x6,x2	  x6:0x00000000  x2:0x80008e66  x3=0x00000000
       47745000	      4773	80002318	59a3b413	sltiu	x8,x7,1434	  x7:0x0000000f  x8=0x00000001
       47755000	      4774	8000231c	00000013	addi	x0,x0,0	  x0:0x00000000
       47765000	      4775	80002320	5a94c0b7	lui	x1,0x5a94c	  x1=0x5a94c000
       47775000	      4776	80002324	00000013	addi	x0,x0,0	  x0:0x00000000
       47785000	      4777	80002328	374c4693	xori	x13,x24,884	 x24:0xad7ce000 x13=0xad7ce374
       47795000	      4778	8000232c	40f4de93	srai	x29,x9,0xf	  x9:0x00000026 x29=0x00000000
       47805000	      4779	80002330	41598b33	sub	x22,x19,x21	 x19:0x7c009aa9 x21:0xffffff4a x22=0x7c009b5f
       47815000	      4780	80002334	0094b233	sltu	x4,x9,x9	  x9:0x00000026  x9:0x00000026  x4=0x00000000
       47825000	      4781	80002338	01017c33	and	x24,x2,x16	  x2:0x80008e66 x16:0x80009fc4 x24=0x80008e44
       47835000	      4782	8000233c	05ca7693	andi	x13,x20,92	 x20:0xffffff9f x13=0x0000001c
       47845000	      4783	80002340	01e1c663	blt	x3,x30,8000234c	  x3:0x00000000 x30:0x00000000
       47855000	      4784	80002344	012dd593	srli	x11,x27,0x12	 x27:0x00000001 x11=0x00000000
       47865000	      4785	80002348	04b2c593	xori	x11,x5,75	  x5:0x00000000 x11=0x0000004b
       47875000	      4786	8000234c	a2dc0197	auipc	x3,0xa2dc0	  x3=0x22dc2348
       47885000	      4787	80002350	07d05a97	auipc	x21,0x7d05	 x21=0x87d0734c
       47895000	      4788	80002354	41b05933	sra	x18,x0,x27	  x0:0x00000000 x27:0x00000001 x18=0x00000000
       47905000	      4789	80002358	a8ac8437	lui	x8,0xa8ac8	  x8=0xa8ac8000
       47915000	      4790	8000235c	de018013	addi	x0,x3,-544	  x3:0x22dc2348
       47925000	      4791	80002360	005b15b3	sll	x11,x22,x5	 x22:0x7c009b5f  x5:0x00000000 x11=0x7c009b5f
       47935000	      4792	80002364	009e4eb3	xor	x29,x28,x9	 x28:0x80009eb8  x9:0x00000026 x29=0x80009e9e
       47945000	      4793	80002368	012538b3	sltu	x17,x10,x18	 x10:0xea389000 x18:0x00000000 x17=0x00000000
       47955000	      4794	8000236c	a3992613	slti	x12,x18,-1479	 x18:0x00000000 x12=0x00000000
       47965000	      4795	80002370	e8f20593	addi	x11,x4,-369	  x4:0x00000000 x11=0xfffffe8f
       47975000	      4796	80002374	018320b3	slt	x1,x6,x24	  x6:0x00000000 x24:0x80008e44  x1=0x00000000
       47985000	      4797	80002378	00d702b3	add	x5,x14,x13	 x14:0x000010a2 x13:0x0000001c  x5=0x000010be
       47995000	      4798	8000237c	001f9293	slli	x5,x31,0x1	 x31:0x00000001  x5=0x00000002
       48005000	      4799	80002380	03a05c63	bge	x0,x26,800023b8	  x0:0x00000000 x26:0x80000000
       48015000	      4800	00000000	00000013	addi	x0,x0,0	  x0:0x00000000
       48025000	      4801	800023b4	00000013	addi	x0,x0,0	  x0:0x00000000
       48035000	      4802	800023b8	014ab2b3	sltu	x5,x21,x20	 x21:0x87d0734c x20:0xffffff9f  x5=0x00000001
       48045000	      4803	800023bc	012ef333	and	x6,x29,x18	 x29:0x80009e9e x18:0x00000000  x6=0x00000000
       48055000	      4804	800023c0	030e7463	bgeu	x28,x16,800023e8	 x28:0x80009eb8 x16:0x80009fc4
       48065000	      4805	800023c4	0130c463	blt	x1,x19,800023cc	  x1:0x00000000 x19:0x7c009aa9
       48075000	      4806	00000000	00000013	addi	x0,x0,0	  x0:0x00000000
       48085000	      4807	800023c8	00000013	addi	x0,x0,0	  x0:0x00000000
       48095000	      4808	800023cc	04461663	bne	x12,x4,80002418	 x12:0x00000000  x4:0x00000000
       48105000	      4809	800023d0	014aca63	blt	x21,x20,800023e4	 x21:0x87d0734c x20:0xffffff9f
       48115000	      4810	00000000	00000013	addi	x0,x0,0	  x0:0x00000000
       48125000	      4811	800023e0	00000013	addi	x0,x0,0	  x0:0x00000000
       48135000	      4812	800023e4	03625263	bge	x4,x22,80002408	  x4:0x00000000 x22:0x7c009b5f
       48145000	      4813	800023e8	05d77613	andi	x12,x14,93	 x14:0x000010a2 x12=0x00000000
       48155000	      4814	800023ec	6dccc093	xori	x1,x25,1756	 x25:0x00000004  x1=0x000006d8
       48165000	      4815	800023f0	1d995497	auipc	x9,0x1d995	  x9=0x9d9973ec
       48175000	      4816	800023f4	01a3acb3	slt	x25,x7,x26	  x7:0x0000000f x26:0x80000000 x25=0x00000000
       48185000	      4817	800023f8	22804693	xori	x13,x0,552	  x0:0x00000000 x13=0x00000228
       48195000	      4818	800023fc	41610bb3	sub	x23,x2,x22	  x2:0x80008e66 x22:0x7c009b5f x23=0x03fff307
       48205000	      4819	80002400	40b0d513	srai	x10,x1,0xb	  x1:0x000006d8 x10=0x00000000
       48215000	      4820	80002404	10ee2b13	slti	x22,x28,270	 x28:0x80009eb8 x22=0x00000001
       48225000	      4821	80002408	b1972c37	lui	x24,0xb1972	 x24=0xb1972000
       48235000	      4822	8000240c	01be0e63	beq	x28,x27,80002428	 x28:0x80009eb8 x27:0x00000001
       48245000	      4823	80002410	40f185b3	sub	x11,x3,x15	  x3:0x22dc2348 x15:0x00000720 x11=0x22dc1c28
       48255000	      4824	80002414	00000013	addi	x0,x0,0	  x0:0x00000000
       48265000	      4825	80002418	403e8f13	addi	x30,x29,1027	 x29:0x80009e9e x30=0x8000a2a1
       48275000	      4826	8000241c	00991a93	slli	x21,x18,0x9	 x18:0x00000000 x21=0x00000000
       48285000	      4827	80002420	05a16263	bltu	x2,x26,80002464	  x2:0x80008e66 x26:0x80000000
       48295000	      4828	80002424	40abdfb3	sra	x31,x23,x10	 x23:0x03fff307 x10:0x00000000 x31=0x03fff307
       48305000	      4829	80002428	d0c8ae93	slti	x29,x17,-756	 x17:0x00000000 x29=0x00000000
       48315000	      4830	8000242c	add72413	slti	x8,x14,-1315	 x14:0x000010a2  x8=0x00000000
       48325000	      4831	80002430	018602b3	add	x5,x12,x24	 x12:0x00000000 x24:0xb1972000  x5=0xb1972000
       48335000	      4832	80002434	dce82b93	slti	x23,x16,-562	 x16:0x80009fc4 x23=0x00000001
       48345000	      4833	80002438	4174da33	sra	x20,x9,x23	  x9:0x9d9973ec x23:0x00000001 x20=0xceccb9f6
       48355000	      4834	8000243c	40fadb93	srai	x23,x21,0xf	 x21:0x00000000 x23=0x00000000
       48365000	      4835	80002440	003833b3	sltu	x7,x16,x3	 x16:0x80009fc4  x3:0x22dc2348  x7=0x00000000
       48375000	      4836	80002444	08b6a693	slti	x13,x13,139	 x13:0x00000228 x13=0x00000000
       48385000	      4837	80002448	d6698393	addi	x7,x19,-666	 x19:0x7c009aa9  x7=0x7c00980f
       48395000	      4838	8000244c	00057863	bgeu	x10,x0,8000245c	 x10:0x00000000  x0:0x00000000
       48405000	      4839	00000000	00000013	addi	x0,x0,0	  x0:0x00000000
       48415000	      4840	80002458	00000013	addi	x0,x0,0	  x0:0x00000000
       48425000	      4841	8000245c	d1858893	addi	x17,x11,-744	 x11:0x22dc1c28 x17=0x22dc1940
       48435000	      4842	80002460	63cfa413	slti	x8,x31,1596	 x31:0x03fff307  x8=0x00000000
       48445000	      4843	80002464	01209393	slli	x7,x1,0x12	  x1:0x000006d8  x7=0x1b600000
       48455000	      4844	80002468	0456d863	bge	x13,x5,800024b8	 x13:0x00000000  x5:0xb1972000
       48465000	      4845	00000000	00000013	addi	x0,x0,0	  x0:0x00000000
       48475000	      4846	800024b4	00000013	addi	x0,x0,0	  x0:0x00000000
       48485000	      4847	800024b8	01641513	slli	x10,x8,0x16	  x8:0x00000000 x10=0x00000000
       48495000	      4848	800024bc	41b2d133	sra	x2,x5,x27	  x5:0xb1972000 x27:0x00000001  x2=0xd8cb9000
       48505000	      4849	800024c0	017e4ab3	xor	x21,x28,x23	 x28:0x80009eb8 x23:0x00000000 x21=0x80009eb8
       48515000	      4850	800024c4	01eb8eb3	add	x29,x23,x30	 x23:0x00000000 x30:0x8000a2a1 x29=0x8000a2a1
       48525000	      4851	800024c8	01106233	or	x4,x0,x17	  x0:0x00000000 x17:0x22dc1940  x4=0x22dc1940
       48535000	      4852	800024cc	00220ab3	add	x21,x4,x2	  x4:0x22dc1940  x2:0xd8cb9000 x21=0xfba7a940
       48545000	      4853	800024d0	02f16c63	bltu	x2,x15,80002508	  x2:0xd8cb9000 x15:0x00000720
       48555000	      4854	800024d4	0336d263	bge	x13,x19,800024f8	 x13:0x00000000 x19:0x7c009aa9
       48565000	      4855	800024d8	000b4463	blt	x22,x0,800024e0	 x22:0x00000001  x0:0x00000000
       48575000	      4856	800024dc	0100e533	or	x10,x1,x16	  x1:0x000006d8 x16:0x80009fc4 x10=0x80009fdc
       48585000	      4857	800024e0	01ea4133	xor	x2,x20,x30	 x20:0xceccb9f6 x30:0x8000a2a1  x2=0x4ecc1b57
       48595000	      4858	800024e4	cf75f937	lui	x18,0xcf75f	 x18=0xcf75f000
       48605000	      4859	800024e8	01c15613	srli	x12,x2,0x1c	  x2:0x4ecc1b57 x12=0x00000004
       48615000	      4860	800024ec	c5f6f393	andi	x7,x13,-929	 x13:0x00000000  x7=0x00000000
       48625000	      4861	800024f0	01a9a433	slt	x8,x19,x26	 x19:0x7c009aa9 x26:0x80000000  x8=0x00000000
       48635000	      4862	800024f4	40ba00b3	sub	x1,x20,x11	 x20:0xceccb9f6 x11:0x22dc1c28  x1=0xabf09dce
       48645000	      4863	800024f8	015ad6b3	srl	x13,x21,x21	 x21:0xfba7a940 x21:0xfba7a940 x13=0xfba7a940
       48655000	      4864	800024fc	83536093	ori	x1,x6,-1995	  x6:0x00000000  x1=0xfffff835
       48665000	      4865	80002500	7c426613	ori	x12,x4,1988	  x4:0x22dc1940 x12=0x22dc1fc4
       48675000	      4866	80002504	fba4c993	xori	x19,x9,-70	  x9:0x9d9973ec x19=0x62668c56
       48685000	      4867	80002508	1dee3393	sltiu	x7,x28,478	 x28:0x80009eb8  x7=0x00000000
       48695000	      4868	8000250c	0034f863	bgeu	x9,x3,8000251c	  x9:0x9d9973ec  x3:0x22dc2348
       48705000	      4869	00000000	00000013	addi	x0,x0,0	  x0:0x00000000
       48715000	      4870	80002518	00000013	addi	x0,x0,0	  x0:0x00000000
       48725000	      4871	8000251c	05cac263	blt	x21,x28,80002560	 x21:0xfba7a940 x28:0x80009eb8
       48735000	      4872	80002520	f1dcfa93	andi	x21,x25,-227	 x25:0x00000000 x21=0x00000000
       48745000	      4873	80002524	01d89693	slli	x13,x17,0x1d	 x17:0x22dc1940 x13=0x00000000
       48755000	      4874	80002528	39b70a13	addi	x20,x14,923	 x14:0x000010a2 x20=0x0000143d
       48765000	      4875	8000252c	00134333	xor	x6,x6,x1	  x6:0x00000000  x1:0xfffff835  x6=0xfffff835
       48775000	      4876	80002530	01d49313	slli	x6,x9,0x1d	  x9:0x9d9973ec  x6=0x80000000
       48785000	      4877	80002534	0099dc33	srl	x24,x19,x9	 x19:0x62668c56  x9:0x9d9973ec x24=0x00062668
       48795000	      4878	80002538	41ac5c13	srai	x24,x24,0x1a	 x24:0x00062668 x24=0x00000000
       48805000	      4879	8000253c	10320713	addi	x14,x4,259	  x4:0x22dc1940 x14=0x22dc1a43
       48815000	      4880	80002540	00000013	addi	x0,x0,0	  x0:0x00000000
       48825000	      4881	80002544	002ed733	srl	x14,x29,x2	 x29:0x8000a2a1  x2:0x4ecc1b57 x14=0x00000100
       48835000	      4882	80002548	05cf1863	bne	x30,x28,80002598	 x30:0x8000a2a1 x28:0x80009eb8
       48845000	      4883	00000000	00000013	addi	x0,x0,0	  x0:0x00000000
       48855000	      4884	80002594	00000013	addi	x0,x0,0	  x0:0x00000000
       48865000	      4885	80002598	02ead463	bge	x21,x14,800025c0	 x21:0x00000000 x14:0x00000100
       48875000	      4886	8000259c	ea116193	ori	x3,x2,-351	  x2:0x4ecc1b57  x3=0xfffffff7
       48885000	      4887	800025a0	01458eb3	add	x29,x11,x20	 x11:0x22dc1c28 x20:0x0000143d x29=0x22dc3065
       48895000	      4888	800025a4	0f19a093	slti	x1,x19,241	 x19:0x62668c56  x1=0x00000000
       48905000	      4889	800025a8	a9918793	addi	x15,x3,-1383	  x3:0xfffffff7 x15=0xfffffa90
       48915000	      4890	800025ac	027b1063	bne	x22,x7,800025cc	 x22:0x00000001  x7:0x00000000
       48925000	      4891	00000000	00000013	addi	x0,x0,0	  x0:0x00000000
       48935000	      4892	800025c8	00000013	addi	x0,x0,0	  x0:0x00000000
       48945000	      4893	800025cc	d9590f13	addi	x30,x18,-619	 x18:0xcf75f000 x30=0xcf75ed95
       48955000	      4894	800025d0	01746863	bltu	x8,x23,800025e0	  x8:0x00000000 x23:0x00000000
       48965000	      4895	800025d4	01b97db3	and	x27,x18,x27	 x18:0xcf75f000 x27:0x00000001 x27=0x00000000
       48975000	      4896	800025d8	40795cb3	sra	x25,x18,x7	 x18:0xcf75f000  x7:0x00000000 x25=0xcf75f000
       48985000	      4897	800025dc	007cec63	bltu	x25,x7,800025f4	 x25:0xcf75f000  x7:0x00000000
       48995000	      4898	800025e0	0003df33	srl	x30,x7,x0	  x7:0x00000000  x0:0x00000000 x30=0x00000000
       49005000	      4899	800025e4	01d2b0b3	sltu	x1,x5,x29	  x5:0xb1972000 x29:0x22dc3065  x1=0x00000000
       49015000	      4900	800025e8	00f76033	or	x0,x14,x15	 x14:0x00000100 x15:0xfffffa90
       49025000	      4901	800025ec	001d9133	sll	x2,x27,x1	 x27:0x00000000  x1:0x00000000  x2=0x00000000
       49035000	      4902	800025f0	e8a2a193	slti	x3,x5,-374	  x5:0xb1972000  x3=0x00000001
       49045000	      4903	800025f4	042b9463	bne	x23,x2,8000263c	 x23:0x00000000  x2:0x00000000
       49055000	      4904	800025f8	02b4ce63	blt	x9,x11,80002634	  x9:0x9d9973ec x11:0x22dc1c28
       49065000	      4905	00000000	00000013	addi	x0,x0,0	  x0:0x00000000
       49075000	      4906	80002630	00000013	addi	x0,x0,0	  x0:0x00000000
       49085000	      4907	80002634	0083efb3	or	x31,x7,x8	  x7:0x00000000  x8:0x00000000 x31=0x00000000
       49095000	      4908	80002638	03411663	bne	x2,x20,80002664	  x2:0x00000000 x20:0x0000143d
       49105000	      4909	00000000	00000013	addi	x0,x0,0	  x0:0x00000000
       49115000	      4910	80002660	00000013	addi	x0,x0,0	  x0:0x00000000
       49125000	      4911	80002664	4023da13	srai	x20,x7,0x2	  x7:0x00000000 x20=0x00000000
       49135000	      4912	80002668	47e90893	addi	x17,x18,1150	 x18:0xcf75f000 x17=0xcf75f47e
       49145000	      4913	8000266c	03e34663	blt	x6,x30,80002698	  x6:0x80000000 x30:0x00000000
       49155000	      4914	00000000	00000013	addi	x0,x0,0	  x0:0x00000000
       49165000	      4915	80002694	00000013	addi	x0,x0,0	  x0:0x00000000
       49175000	      4916	80002698	0100ceb3	xor	x29,x1,x16	  x1:0x00000000 x16:0x80009fc4 x29=0x80009fc4
       49185000	      4917	8000269c	05a60463	beq	x12,x26,800026e4	 x12:0x22dc1fc4 x26:0x80000000
       49195000	      4918	800026a0	01bce663	bltu	x25,x27,800026ac	 x25:0xcf75f000 x27:0x00000000
       49205000	      4919	800026a4	003b4863	blt	x22,x3,800026b4	 x22:0x00000001  x3:0x00000001
       49215000	      4920	800026a8	41c05a13	srai	x20,x0,0x1c	  x0:0x00000000 x20=0x00000000
       49225000	      4921	800026ac	01330c33	add	x24,x6,x19	  x6:0x80000000 x19:0x62668c56 x24=0xe2668c56
       49235000	      4922	800026b0	0179a8b3	slt	x17,x19,x23	 x19:0x62668c56 x23:0x00000000 x17=0x00000000
       49245000	      4923	800026b4	8d4a4937	lui	x18,0x8d4a4	 x18=0x8d4a4000
       49255000	      4924	800026b8	b778cf17	auipc	x30,0xb778c	 x30=0x3778e6b4
       49265000	      4925	800026bc	001b2b33	slt	x22,x22,x1	 x22:0x00000001  x1:0x00000000 x22=0x00000000
       49275000	      4926	800026c0	063cec13	ori	x24,x25,99	 x25:0xcf75f000 x24=0xcf75f063
       49285000	      4927	800026c4	e76f7193	andi	x3,x30,-394	 x30:0x3778e6b4  x3=0x3778e634
       49295000	      4928	800026c8	41975793	srai	x15,x14,0x19	 x14:0x00000100 x15=0x00000000
       49305000	      4929	800026cc	e89b2613	slti	x12,x22,-375	 x22:0x00000000 x12=0x00000000
       49315000	      4930	800026d0	047d7263	bgeu	x26,x7,80002714	 x26:0x80000000  x7:0x00000000
       49325000	      4931	00000000	00000013	addi	x0,x0,0	  x0:0x00000000
       49335000	      4932	80002710	00000013	addi	x0,x0,0	  x0:0x00000000
       49345000	      4933	80002714	86beac13	slti	x24,x29,-1941	 x29:0x80009fc4 x24=0x00000001
       49355000	      4934	80002718	00000013	addi	x0,x0,0	  x0:0x00000000
       49365000	      4935	8000271c	04219463	bne	x3,x2,80002764	  x3:0x3778e634  x2:0x00000000
       49375000	      4936	00000000	00000013	addi	x0,x0,0	  x0:0x00000000
       49385000	      4937	80002760	00000013	addi	x0,x0,0	  x0:0x00000000
       49395000	      4938	80002764	01beeab3	or	x21,x29,x27	 x29:0x80009fc4 x27:0x00000000 x21=0x80009fc4
       49405000	      4939	80002768	77a88113	addi	x2,x17,1914	 x17:0x00000000  x2=0x0000077a
       49415000	      4940	8000276c	02dc4263	blt	x24,x13,80002790	 x24:0x00000001 x13:0x00000000
       49425000	      4941	80002770	01ff5663	bge	x30,x31,8000277c	 x30:0x3778e6b4 x31:0x00000000
       49435000	      4942	00000000	00000013	addi	x0,x0,0	  x0:0x00000000
       49445000	      4943	80002778	00000013	addi	x0,x0,0	  x0:0x00000000
       49455000	      4944	8000277c	0001a033	slt	x0,x3,x0	  x3:0x3778e634  x0:0x00000000
       49465000	      4945	80002780	59ce3393	sltiu	x7,x28,1436	 x28:0x80009eb8  x7=0x00000000
       49475000	      4946	80002784	037a7263	bgeu	x20,x23,800027a8	 x20:0x00000000 x23:0x00000000
       49485000	      4947	00000000	00000013	addi	x0,x0,0	  x0:0x00000000
       49495000	      4948	800027a4	00000013	addi	x0,x0,0	  x0:0x00000000
       49505000	      4949	800027a8	566fb713	sltiu	x14,x31,1382	 x31:0x00000000 x14=0x00000001
       49515000	      4950	800027ac	012b53b3	srl	x7,x22,x18	 x22:0x00000000 x18:0x8d4a4000  x7=0x00000000
       49525000	      4951	800027b0	006b9a33	sll	x20,x23,x6	 x23:0x00000000  x6:0x80000000 x20=0x00000000
       49535000	      4952	800027b4	004a4733	xor	x14,x20,x4	 x20:0x00000000  x4:0x22dc1940 x14=0x22dc1940
       49545000	      4953	800027b8	5343eb37	lui	x22,0x5343e	 x22=0x5343e000
       49555000	      4954	800027bc	0151b5b3	sltu	x11,x3,x21	  x3:0x3778e634 x21:0x80009fc4 x11=0x00000001
       49565000	      4955	800027c0	0066c863	blt	x13,x6,800027d0	 x13:0x00000000  x6:0x80000000
       49575000	      4956	800027c4	00c5e933	or	x18,x11,x12	 x11:0x00000001 x12:0x00000000 x18=0x00000001
       49585000	      4957	800027c8	02608663	beq	x1,x6,800027f4	  x1:0x00000000  x6:0x80000000
       49595000	      4958	800027cc	01581ab3	sll	x21,x16,x21	 x16:0x80009fc4 x21:0x80009fc4 x21=0x0009fc40
       49605000	      4959	800027d0	00938fb3	add	x31,x7,x9	  x7:0x00000000  x9:0x9d9973ec x31=0x9d9973ec
       49615000	      4960	800027d4	26b38713	addi	x14,x7,619	  x7:0x00000000 x14=0x0000026b
       49625000	      4961	800027d8	00000013	addi	x0,x0,0	  x0:0x00000000
       49635000	      4962	800027dc	01439c33	sll	x24,x7,x20	  x7:0x00000000 x20:0x00000000 x24=0x00000000
       49645000	      4963	800027e0	4038d793	srai	x15,x17,0x3	 x17:0x00000000 x15=0x00000000
       49655000	      4964	800027e4	012e75b3	and	x11,x28,x18	 x28:0x80009eb8 x18:0x00000001 x11=0x00000000
       49665000	      4965	800027e8	0140b033	sltu	x0,x1,x20	  x1:0x00000000 x20:0x00000000
       49675000	      4966	800027ec	0203fc63	bgeu	x7,x0,80002824	  x7:0x00000000  x0:0x00000000
       49685000	      4967	00000000	00000013	addi	x0,x0,0	  x0:0x00000000
       49695000	      4968	80002820	00000013	addi	x0,x0,0	  x0:0x00000000
       49705000	      4969	80002824	84898913	addi	x18,x19,-1976	 x19:0x62668c56 x18=0x6266849e
       49715000	      4970	80002828	2a834a13	xori	x20,x6,680	  x6:0x80000000 x20=0x800002a8
       49725000	      4971	8000282c	03bbdc63	bge	x23,x27,80002864	 x23:0x00000000 x27:0x00000000
       49735000	      4972	00000000	00000013	addi	x0,x0,0	  x0:0x00000000
       49745000	      4973	80002860	00000013	addi	x0,x0,0	  x0:0x00000000
       49755000	      4974	80002864	00c37bb3	and	x23,x6,x12	  x6:0x80000000 x12:0x00000000 x23=0x00000000
       49765000	      4975	80002868	41ed5c33	sra	x24,x26,x30	 x26:0x80000000 x30:0x3778e6b4 x24=0xfffff800
       49775000	      4976	8000286c	000cc733	xor	x14,x25,x0	 x25:0xcf75f000  x0:0x00000000 x14=0xcf75f000
       49785000	      4977	80002870	41aedbb3	sra	x23,x29,x26	 x29:0x80009fc4 x26:0x80000000 x23=0x80009fc4
       49795000	      4978	80002874	018e7c63	bgeu	x28,x24,8000288c	 x28:0x80009eb8 x24:0xfffff800
       49805000	      4979	80002878	793eb113	sltiu	x2,x29,1939	 x29:0x80009fc4  x2=0x00000000
       49815000	      4980	8000287c	02524063	blt	x4,x5,8000289c	  x4:0x22dc1940  x5:0xb1972000
       49825000	      4981	80002880	00cbb7b3	sltu	x15,x23,x12	 x23:0x80009fc4 x12:0x00000000 x15=0x00000000
       49835000	      4982	80002884	c6b0b913	sltiu	x18,x1,-917	  x1:0x00000000 x18=0x00000001
       49845000	      4983	80002888	007a7b33	and	x22,x20,x7	 x20:0x800002a8  x7:0x00000000 x22=0x00000000
       49855000	      4984	8000288c	04161663	bne	x12,x1,800028d8	 x12:0x00000000  x1:0x00000000
       49865000	      4985	80002890	84827693	andi	x13,x4,-1976	  x4:0x22dc1940 x13=0x22dc1840
       49875000	      4986	80002894	40368fb3	sub	x31,x13,x3	 x13:0x22dc1840  x3:0x3778e634 x31=0xeb63320c
       49885000	      4987	80002898	048e9863	bne	x29,x8,800028e8	 x29:0x80009fc4  x8:0x00000000
       49895000	      4988	00000000	00000013	addi	x0,x0,0	  x0:0x00000000
       49905000	      4989	800028e4	00000013	addi	x0,x0,0	  x0:0x00000000
       49915000	      4990	800028e8	41fa0c33	sub	x24,x20,x31	 x20:0x800002a8 x31:0xeb63320c x24=0x949cd09c
       49925000	      4991	800028ec	00c55bb3	srl	x23,x10,x12	 x10:0x80009fdc x12:0x00000000 x23=0x80009fdc
       49935000	      4992	800028f0	006c1eb3	sll	x29,x24,x6	 x24:0x949cd09c  x6:0x80000000 x29=0x949cd09c
       49945000	      4993	800028f4	00290f33	add	x30,x18,x2	 x18:0x00000001  x2:0x00000000 x30=0x00000001
       49955000	      4994	800028f8	007c9a13	slli	x20,x25,0x7	 x25:0xcf75f000 x20=0xbaf80000
       49965000	      4995	800028fc	00000013	addi	x0,x0,0	  x0:0x00000000
       49975000	      4996	80002900	00671993	slli	x19,x14,0x6	 x14:0xcf75f000 x19=0xdd7c0000
       49985000	      4997	80002904	40d68fb3	sub	x31,x13,x13	 x13:0x22dc1840 x13:0x22dc1840 x31=0x00000000
       49995000	      4998	80002908	013e6633	or	x12,x28,x19	 x28:0x80009eb8 x19:0xdd7c0000 x12=0xdd7c9eb8
       50005000	      4999	8000290c	00ea1213	slli	x4,x20,0xe	 x20:0xbaf80000  x4=0x00000000
       50015000	      5000	80002910	f8303337	lui	x6,0xf8303	  x6=0xf8303000
       50025000	      5001	80002914	01c50c63	beq	x10,x28,8000292c	 x10:0x80009fdc x28:0x80009eb8
       50035000	      5002	80002918	00c59cb3	sll	x25,x11,x12	 x11:0x00000000 x12:0xdd7c9eb8 x25=0x00000000
       50045000	      5003	8000291c	00000013	addi	x0,x0,0	  x0:0x00000000
       50055000	      5004	80002920	023fee63	bltu	x31,x3,8000295c	 x31:0x00000000  x3:0x3778e634
       50065000	      5005	00000000	00000013	addi	x0,x0,0	  x0:0x00000000
       50075000	      5006	80002958	00000013	addi	x0,x0,0	  x0:0x00000000
       50085000	      5007	8000295c	01c306b3	add	x13,x6,x28	  x6:0xf8303000 x28:0x80009eb8 x13=0x7830ceb8
       50095000	      5008	80002960	b3554993	xori	x19,x10,-1227	 x10:0x80009fdc x19=0x7fff64e9
       50105000	      5009	80002964	0025ca63	blt	x11,x2,80002978	 x11:0x00000000  x2:0x00000000
       50115000	      5010	80002968	41c25993	srai	x19,x4,0x1c	  x4:0x00000000 x19=0x00000000
       50125000	      5011	8000296c	005c1933	sll	x18,x24,x5	 x24:0x949cd09c  x5:0xb1972000 x18=0x949cd09c
       50135000	      5012	80002970	00cf3f33	sltu	x30,x30,x12	 x30:0x00000001 x12:0xdd7c9eb8 x30=0x00000001
       50145000	      5013	80002974	41360233	sub	x4,x12,x19	 x12:0xdd7c9eb8 x19:0x00000000  x4=0xdd7c9eb8
       50155000	      5014	80002978	0150cf33	xor	x30,x1,x21	  x1:0x00000000 x21:0x0009fc40 x30=0x0009fc40
       50165000	      5015	8000297c	00bb38b3	sltu	x17,x22,x11	 x22:0x00000000 x11:0x00000000 x17=0x00000000
       50175000	      5016	80002980	f94afb93	andi	x23,x21,-108	 x21:0x0009fc40 x23=0x0009fc00
       50185000	      5017	80002984	00c965b3	or	x11,x18,x12	 x18:0x949cd09c x12:0xdd7c9eb8 x11=0xddfcdebc
       50195000	      5018	80002988	40ca5f13	srai	x30,x20,0xc	 x20:0xbaf80000 x30=0xfffbaf80
       50205000	      5019	8000298c	14850093	addi	x1,x10,328	 x10:0x80009fdc  x1=0x8000a124
       50215000	      5020	80002990	5a2b5a97	auipc	x21,0x5a2b5	 x21=0xda2b798c
       50225000	      5021	80002994	64ab4213	xori	x4,x22,1610	 x22:0x00000000  x4=0x0000064a
       50235000	      5022	80002998	1a7bf213	andi	x4,x23,423	 x23:0x0009fc00  x4=0x00000000
       50245000	      5023	8000299c	01d1e933	or	x18,x3,x29	  x3:0x3778e634 x29:0x949cd09c x18=0xb7fcf6bc
       50255000	      5024	800029a0	01056e63	bltu	x10,x16,800029bc	 x10:0x80009fdc x16:0x80009fc4
       50265000	      5025	800029a4	88ac7993	andi	x19,x24,-1910	 x24:0x949cd09c x19=0x949cd088
       50275000	      5026	800029a8	01877db3	and	x27,x14,x24	 x14:0xcf75f000 x24:0x949cd09c x27=0x8414d000
       50285000	      5027	800029ac	2b526e97	auipc	x29,0x2b526	 x29=0xab5289a8
       50295000	      5028	800029b0	01d11bb3	sll	x23,x2,x29	  x2:0x00000000 x29:0xab5289a8 x23=0x00000000
       50305000	      5029	800029b4	5dc6b493	sltiu	x9,x13,1500	 x13:0x7830ceb8  x9=0x00000000
       50315000	      5030	800029b8	01695863	bge	x18,x22,800029c8	 x18:0xb7fcf6bc x22:0x00000000
       50325000	      5031	800029bc	41ded713	srai	x14,x29,0x1d	 x29:0xab5289a8 x14=0xfffffffd
       50335000	      5032	800029c0	01b49393	slli	x7,x9,0x1b	  x9:0x00000000  x7=0x00000000
       50345000	      5033	800029c4	03819863	bne	x3,x24,800029f4	  x3:0x3778e634 x24:0x949cd09c
       50355000	      5034	00000000	00000013	addi	x0,x0,0	  x0:0x00000000
       50365000	      5035	800029f0	00000013	addi	x0,x0,0	  x0:0x00000000
       50375000	      5036	800029f4	6186d537	lui	x10,0x6186d	 x10=0x6186d000
       50385000	      5037	800029f8	a02d0397	auipc	x7,0xa02d0	  x7=0x202d29f4
       50395000	      5038	800029fc	004e2a03	lw	x20,4(x28)	 x28:0x80009eb8 x20=0x80005d98 PA:0x80009ebc
       50405000	      5039	80002a00	e0429437	lui	x8,0xe0429	  x8=0xe0429000
       50415000	      5040	80002a04	006a4633	xor	x12,x20,x6	 x20:0x80005d98  x6:0xf8303000 x12=0x78306d98
       50425000	      5041	80002a08	040e0e13	addi	x28,x28,64	 x28:0x80009eb8 x28=0x80009ef8
       50435000	      5042	80002a0c	412b5133	sra	x2,x22,x18	 x22:0x00000000 x18:0xb7fcf6bc  x2=0x00000000
       50445000	      5043	80002a10	000a0f13	addi	x30,x20,0	 x20:0x80005d98 x30=0x80005d98
       50455000	      5044	80002a14	000f0f67	jalr	x30,x30,0	 x30:0x80005d98 x30=0x80002a14
       50465000	      5045	00000000	00000013	addi	x0,x0,0	  x0:0x00000000
       50475000	      5046	80005d98	00000013	addi	x0,x0,0	  x0:0x00000000
       50485000	      5047	80005d9c	00003517	auipc	x10,0x3	 x10=0x80008d98
       50495000	      5048	80005da0	f5250513	addi	x10,x10,-174	 x10:0x80008d98 x10=0x80008cea
       50505000	      5049	80005da4	02d54c03	lbu	x24,45(x10)	 x10:0x80008cea x24=0x00000003 PA:0x80008d17
       50515000	      5050	80005da8	feb54f83	lbu	x31,-21(x10)	 x10:0x80008cea x31=0x000000ce PA:0x80008cd5
       50525000	      5051	80005dac	01950d23	sb	x25,26(x10)	 x10:0x80008cea x25:0x00000000 PA:0x80008d04
       50535000	      5052	80005db0	fd7508a3	sb	x23,-47(x10)	 x10:0x80008cea x23:0x00000000 PA:0x80008cbb
       50545000	      5053	80005db4	fd954e83	lbu	x29,-39(x10)	 x10:0x80008cea x29=0x0000005d PA:0x80008cc3
       50555000	      5054	80005db8	01f9a4b3	slt	x9,x19,x31	 x19:0x949cd088 x31:0x000000ce  x9=0x00000001
       50565000	      5055	80005dbc	9f952993	slti	x19,x10,-1543	 x10:0x80008cea x19=0x00000001
       50575000	      5056	80005dc0	fc750203	lb	x4,-57(x10)	 x10:0x80008cea  x4=0x00000048 PA:0x80008cb1
       50585000	      5057	80005dc4	fdf50783	lb	x15,-33(x10)	 x10:0x80008cea x15=0xffffff85 PA:0x80008cc9
       50595000	      5058	80005dc8	00734133	xor	x2,x6,x7	  x6:0xf8303000  x7:0x202d29f4  x2=0xd81d19f4
       50605000	      5059	80005dcc	410d5593	srai	x11,x26,0x10	 x26:0x80000000 x11=0xffff8000
       50615000	      5060	80005dd0	fea54083	lbu	x1,-22(x10)	 x10:0x80008cea  x1=0x00000086 PA:0x80008cd4
       50625000	      5061	80005dd4	fd754103	lbu	x2,-41(x10)	 x10:0x80008cea  x2=0x000000da PA:0x80008cc1
       50635000	      5062	80005dd8	7ba7b3b7	lui	x7,0x7ba7b	  x7=0x7ba7b000
       50645000	      5063	80005ddc	01154d83	lbu	x27,17(x10)	 x10:0x80008cea x27=0x0000009b PA:0x80008cfb
       50655000	      5064	00000000	00000013	addi	x0,x0,0	  x0:0x00000000
       50665000	      5065	80005de0	fdb50783	lb	x15,-37(x10)	 x10:0x80008cea x15=0x00000012 PA:0x80008cc5
       50675000	      5066	80005de4	fde52923	sw	x30,-46(x10)	 x10:0x80008cea x30:0x80002a14 PA:0x80008cbc
       50685000	      5067	80005de8	437c4d93	xori	x27,x24,1079	 x24:0x00000003 x27=0x00000434
       50695000	      5068	80005dec	00a69eb3	sll	x29,x13,x10	 x13:0x7830ceb8 x10:0x80008cea x29=0xc33ae000
       50705000	      5069	80005df0	01d54183	lbu	x3,29(x10)	 x10:0x80008cea  x3=0x00000026 PA:0x80008d07
       50715000	      5070	80005df4	fc154b83	lbu	x23,-63(x10)	 x10:0x80008cea x23=0x000000ba PA:0x80008cab
       50725000	      5071	80005df8	dab8e113	ori	x2,x17,-597	 x17:0x00000000  x2=0xfffffdab
       50735000	      5072	80005dfc	00f21293	slli	x5,x4,0xf	  x4:0x00000048  x5=0x00240000
       50745000	      5073	80005e00	ffc51703	lh	x14,-4(x10)	 x10:0x80008cea x14=0xfffffdab PA:0x80008ce6
       50755000	      5074	80005e04	41255eb3	sra	x29,x10,x18	 x10:0x80008cea x18:0xb7fcf6bc x29=0xfffffff8
       50765000	      5075	80005e08	fe5506a3	sb	x5,-19(x10)	 x10:0x80008cea  x5:0x00240000 PA:0x80008cd7
       50775000	      5076	80005e0c	018aa633	slt	x12,x21,x24	 x21:0xda2b798c x24:0x00000003 x12=0x00000001
       50785000	      5077	80005e10	fe251e23	sh	x2,-4(x10)	 x10:0x80008cea  x2:0xfffffdab PA:0x80008ce6
       50795000	      5078	80005e14	fc354383	lbu	x7,-61(x10)	 x10:0x80008cea  x7=0x00000034 PA:0x80008cad
       50805000	      5079	80005e18	00000013	addi	x0,x0,0	  x0:0x00000000
       50815000	      5080	80005e1c	3f0bfa13	andi	x20,x23,1008	 x23:0x000000ba x20=0x000000b0
       50825000	      5081	80005e20	00c306b3	add	x13,x6,x12	  x6:0xf8303000 x12:0x00000001 x13=0xf8303001
       50835000	      5082	80005e24	feb500a3	sb	x11,-31(x10)	 x10:0x80008cea x11:0xffff8000 PA:0x80008ccb
       50845000	      5083	80005e28	01054703	lbu	x14,16(x10)	 x10:0x80008cea x14=0x00000092 PA:0x80008cfa
       50855000	      5084	80005e2c	01054683	lbu	x13,16(x10)	 x10:0x80008cea x13=0x00000092 PA:0x80008cfa
       50865000	      5085	80005e30	01329713	slli	x14,x5,0x13	  x5:0x00240000 x14=0x00000000
       50875000	      5086	80005e34	40cc5893	srai	x17,x24,0xc	 x24:0x00000003 x17=0x00000000
       50885000	      5087	80005e38	41ea0a33	sub	x20,x20,x30	 x20:0x000000b0 x30:0x80002a14 x20=0x7fffd69c
       50895000	      5088	80005e3c	00fcd693	srli	x13,x25,0xf	 x25:0x00000000 x13=0x00000000
       50905000	      5089	80005e40	01f08fb3	add	x31,x1,x31	  x1:0x00000086 x31:0x000000ce x31=0x00000154
       50915000	      5090	80005e44	001104b3	add	x9,x2,x1	  x2:0xfffffdab  x1:0x00000086  x9=0xfffffe31
       50925000	      5091	80005e48	0327e663	bltu	x15,x18,80005e74	 x15:0x00000012 x18:0xb7fcf6bc
       50935000	      5092	00000000	00000013	addi	x0,x0,0	  x0:0x00000000
       50945000	      5093	80005e70	00000013	addi	x0,x0,0	  x0:0x00000000
       50955000	      5094	80005e74	40998933	sub	x18,x19,x9	 x19:0x00000001  x9:0xfffffe31 x18=0x000001d0
       50965000	      5095	80005e78	00cebf33	sltu	x30,x29,x12	 x29:0xfffffff8 x12:0x00000001 x30=0x00000000
       50975000	      5096	80005e7c	00000013	addi	x0,x0,0	  x0:0x00000000
       50985000	      5097	80005e80	41f55333	sra	x6,x10,x31	 x10:0x80008cea x31:0x00000154  x6=0xfffff800
       50995000	      5098	80005e84	013ac9b3	xor	x19,x21,x19	 x21:0xda2b798c x19:0x00000001 x19=0xda2b798d
       51005000	      5099	80005e88	00771933	sll	x18,x14,x7	 x14:0x00000000  x7:0x00000034 x18=0x00000000
       51015000	      5100	80005e8c	01bd7533	and	x10,x26,x27	 x26:0x80000000 x27:0x00000434 x10=0x00000000
       51025000	      5101	80005e90	00958bb3	add	x23,x11,x9	 x11:0xffff8000  x9:0xfffffe31 x23=0xffff7e31
       51035000	      5102	80005e94	016830b3	sltu	x1,x16,x22	 x16:0x80009fc4 x22:0x00000000  x1=0x00000000
       51045000	      5103	80005e98	41c5d7b3	sra	x15,x11,x28	 x11:0xffff8000 x28:0x80009ef8 x15=0xffffffff
       51055000	      5104	80005e9c	01501c63	bne	x0,x21,80005eb4	  x0:0x00000000 x21:0xda2b798c
       51065000	      5105	00000000	00000013	addi	x0,x0,0	  x0:0x00000000
       51075000	      5106	80005eb0	00000013	addi	x0,x0,0	  x0:0x00000000
       51085000	      5107	80005eb4	0021c5b3	xor	x11,x3,x2	  x3:0x00000026  x2:0xfffffdab x11=0xfffffd8d
       51095000	      5108	80005eb8	014fec33	or	x24,x31,x20	 x31:0x00000154 x20:0x7fffd69c x24=0x7fffd7dc
       51105000	      5109	80005ebc	30086437	lui	x8,0x30086	  x8=0x30086000
       51115000	      5110	80005ec0	b4180713	addi	x14,x16,-1215	 x16:0x80009fc4 x14=0x80009b05
       51125000	      5111	80005ec4	01b9d613	srli	x12,x19,0x1b	 x19:0xda2b798d x12=0x0000001b
       51135000	      5112	80005ec8	019c11b3	sll	x3,x24,x25	 x24:0x7fffd7dc x25:0x00000000  x3=0x7fffd7dc
       51145000	      5113	80005ecc	012d6333	or	x6,x26,x18	 x26:0x80000000 x18:0x00000000  x6=0x80000000
       51155000	      5114	80005ed0	00007863	bgeu	x0,x0,80005ee0	  x0:0x00000000  x0:0x00000000
       51165000	      5115	00000000	00000013	addi	x0,x0,0	  x0:0x00000000
       51175000	      5116	80005edc	00000013	addi	x0,x0,0	  x0:0x00000000
       51185000	      5117	80005ee0	03b8ce63	blt	x17,x27,80005f1c	 x17:0x00000000 x27:0x00000434
       51195000	      5118	00000000	00000013	addi	x0,x0,0	  x0:0x00000000
       51205000	      5119	80005f18	00000013	addi	x0,x0,0	  x0:0x00000000
       51215000	      5120	80005f1c	005961b3	or	x3,x18,x5	 x18:0x00000000  x5:0x00240000  x3=0x00240000
       51225000	      5121	80005f20	4021da93	srai	x21,x3,0x2	  x3:0x00240000 x21=0x00090000
       51235000	      5122	80005f24	de907a93	andi	x21,x0,-535	  x0:0x00000000 x21=0x00000000
       51245000	      5123	80005f28	0149f863	bgeu	x19,x20,80005f38	 x19:0xda2b798d x20:0x7fffd69c
       51255000	      5124	00000000	00000013	addi	x0,x0,0	  x0:0x00000000
       51265000	      5125	80005f34	00000013	addi	x0,x0,0	  x0:0x00000000
       51275000	      5126	80005f38	01460eb3	add	x29,x12,x20	 x12:0x0000001b x20:0x7fffd69c x29=0x7fffd6b7
       51285000	      5127	80005f3c	031aea63	bltu	x21,x17,80005f70	 x21:0x00000000 x17:0x00000000
       51295000	      5128	80005f40	048bc463	blt	x23,x8,80005f88	 x23:0xffff7e31  x8:0x30086000
       51305000	      5129	00000000	00000013	addi	x0,x0,0	  x0:0x00000000
       51315000	      5130	80005f84	00000013	addi	x0,x0,0	  x0:0x00000000
       51325000	      5131	80005f88	00f072b3	and	x5,x0,x15	  x0:0x00000000 x15:0xffffffff  x5=0x00000000
       51335000	      5132	80005f8c	054e1663	bne	x28,x20,80005fd8	 x28:0x80009ef8 x20:0x7fffd69c
       51345000	      5133	00000000	00000013	addi	x0,x0,0	  x0:0x00000000
       51355000	      5134	80005fd4	00000013	addi	x0,x0,0	  x0:0x00000000
       51365000	      5135	80005fd8	5a26f337	lui	x6,0x5a26f	  x6=0x5a26f000
       51375000	      5136	80005fdc	40035c33	sra	x24,x6,x0	  x6:0x5a26f000  x0:0x00000000 x24=0x5a26f000
       51385000	      5137	80005fe0	00c94633	xor	x12,x18,x12	 x18:0x00000000 x12:0x0000001b x12=0x0000001b
       51395000	      5138	80005fe4	4002d233	sra	x4,x5,x0	  x5:0x00000000  x0:0x00000000  x4=0x00000000
       51405000	      5139	80005fe8	62bdf417	auipc	x8,0x62bdf	  x8=0xe2be4fe4
       51415000	      5140	80005fec	07bb5c17	auipc	x24,0x7bb5	 x24=0x87bbafe8
       51425000	      5141	80005ff0	013b2433	slt	x8,x22,x19	 x22:0x00000000 x19:0xda2b798d  x8=0x00000000
       51435000	      5142	80005ff4	00814533	xor	x10,x2,x8	  x2:0xfffffdab  x8:0x00000000 x10=0xfffffdab
       51445000	      5143	80005ff8	eaa12093	slti	x1,x2,-342	  x2:0xfffffdab  x1=0x00000001
       51455000	      5144	80005ffc	05389263	bne	x17,x19,80006040	 x17:0x00000000 x19:0xda2b798d
       51465000	      5145	00000000	00000013	addi	x0,x0,0	  x0:0x00000000
       51475000	      5146	8000603c	00000013	addi	x0,x0,0	  x0:0x00000000
       51485000	      5147	80006040	02b14063	blt	x2,x11,80006060	  x2:0xfffffdab x11:0xfffffd8d
       51495000	      5148	80006044	0156aa33	slt	x20,x13,x21	 x13:0x00000000 x21:0x00000000 x20=0x00000000
       51505000	      5149	80006048	665b4313	xori	x6,x22,1637	 x22:0x00000000  x6=0x00000665
       51515000	      5150	8000604c	1cc9e593	ori	x11,x19,460	 x19:0xda2b798d x11=0xda2b79cd
       51525000	      5151	80006050	022d5663	bge	x26,x2,8000607c	 x26:0x80000000  x2:0xfffffdab
       51535000	      5152	80006054	8d834997	auipc	x19,0x8d834	 x19=0x0d83a050
       51545000	      5153	80006058	01320733	add	x14,x4,x19	  x4:0x00000000 x19:0x0d83a050 x14=0x0d83a050
       51555000	      5154	8000605c	00f92c33	slt	x24,x18,x15	 x18:0x00000000 x15:0xffffffff x24=0x00000000
       51565000	      5155	80006060	00000013	addi	x0,x0,0	  x0:0x00000000
       51575000	      5156	80006064	0190d2b3	srl	x5,x1,x25	  x1:0x00000001 x25:0x00000000  x5=0x00000001
       51585000	      5157	80006068	0536e263	bltu	x13,x19,800060ac	 x13:0x00000000 x19:0x0d83a050
       51595000	      5158	00000000	00000013	addi	x0,x0,0	  x0:0x00000000
       51605000	      5159	800060a8	00000013	addi	x0,x0,0	  x0:0x00000000
       51615000	      5160	800060ac	40290bb3	sub	x23,x18,x2	 x18:0x00000000  x2:0xfffffdab x23=0x00000255
       51625000	      5161	800060b0	00000013	addi	x0,x0,0	  x0:0x00000000
       51635000	      5162	800060b4	00000013	addi	x0,x0,0	  x0:0x00000000
       51645000	      5163	800060b8	ee570f97	auipc	x31,0xee570	 x31=0x6e5760b4
       51655000	      5164	800060bc	02bf8a63	beq	x31,x11,800060f0	 x31:0x6e5760b4 x11:0xda2b79cd
       51665000	      5165	800060c0	418dd133	sra	x2,x27,x24	 x27:0x00000434 x24:0x00000000  x2=0x00000434
       51675000	      5166	800060c4	63465fb7	lui	x31,0x63465	 x31=0x63465000
       51685000	      5167	800060c8	00780733	add	x14,x16,x7	 x16:0x80009fc4  x7:0x00000034 x14=0x80009ff8
       51695000	      5168	800060cc	191a7193	andi	x3,x20,401	 x20:0x00000000  x3=0x00000000
       51705000	      5169	800060d0	416beb13	ori	x22,x23,1046	 x23:0x00000255 x22=0x00000657
       51715000	      5170	800060d4	006e9493	slli	x9,x29,0x6	 x29:0x7fffd6b7  x9=0xfff5adc0
       51725000	      5171	800060d8	00f2d033	srl	x0,x5,x15	  x5:0x00000001 x15:0xffffffff
       51735000	      5172	800060dc	33004913	xori	x18,x0,816	  x0:0x00000000 x18=0x00000330
       51745000	      5173	800060e0	015264b3	or	x9,x4,x21	  x4:0x00000000 x21:0x00000000  x9=0x00000000
       51755000	      5174	800060e4	1b336b13	ori	x22,x6,435	  x6:0x00000665 x22=0x000007f7
       51765000	      5175	800060e8	001d4463	blt	x26,x1,800060f0	 x26:0x80000000  x1:0x00000001
       51775000	      5176	00000000	00000013	addi	x0,x0,0	  x0:0x00000000
       51785000	      5177	800060ec	00000013	addi	x0,x0,0	  x0:0x00000000
       51795000	      5178	800060f0	01e14863	blt	x2,x30,80006100	  x2:0x00000434 x30:0x00000000
       51805000	      5179	800060f4	363eba93	sltiu	x21,x29,867	 x29:0x7fffd6b7 x21=0x00000000
       51815000	      5180	800060f8	019ca1b3	slt	x3,x25,x25	 x25:0x00000000 x25:0x00000000  x3=0x00000000
       51825000	      5181	800060fc	02964263	blt	x12,x9,80006120	 x12:0x0000001b  x9:0x00000000
       51835000	      5182	80006100	fcda2593	slti	x11,x20,-51	 x20:0x00000000 x11=0x00000000
       51845000	      5183	80006104	01f3de93	srli	x29,x7,0x1f	  x7:0x00000034 x29=0x00000000
       51855000	      5184	80006108	fa9dfb17	auipc	x22,0xfa9df	 x22=0x7a9e5104
       51865000	      5185	8000610c	41e3d4b3	sra	x9,x7,x30	  x7:0x00000034 x30:0x00000000  x9=0x00000034
       51875000	      5186	80006110	41a18db3	sub	x27,x3,x26	  x3:0x00000000 x26:0x80000000 x27=0x80000000
       51885000	      5187	80006114	02c7cc63	blt	x15,x12,8000614c	 x15:0xffffffff x12:0x0000001b
       51895000	      5188	00000000	00000013	addi	x0,x0,0	  x0:0x00000000
       51905000	      5189	80006148	00000013	addi	x0,x0,0	  x0:0x00000000
       51915000	      5190	8000614c	412dde93	srai	x29,x27,0x12	 x27:0x80000000 x29=0xffffe000
       51925000	      5191	80006150	91bc2c13	slti	x24,x24,-1765	 x24:0x00000000 x24=0x00000000
       51935000	      5192	80006154	00981663	bne	x16,x9,80006160	 x16:0x80009fc4  x9:0x00000034
       51945000	      5193	00000000	00000013	addi	x0,x0,0	  x0:0x00000000
       51955000	      5194	8000615c	00000013	addi	x0,x0,0	  x0:0x00000000
       51965000	      5195	80006160	407d0eb3	sub	x29,x26,x7	 x26:0x80000000  x7:0x00000034 x29=0x7fffffcc
       51975000	      5196	80006164	004e2a03	lw	x20,4(x28)	 x28:0x80009ef8 x20=0x8000661c PA:0x80009efc
       51985000	      5197	80006168	01b11033	sll	x0,x2,x27	  x2:0x00000434 x27:0x80000000
       51995000	      5198	8000616c	011c1993	slli	x19,x24,0x11	 x24:0x00000000 x19=0x00000000
       52005000	      5199	80006170	030e0e13	addi	x28,x28,48	 x28:0x80009ef8 x28=0x80009f28
       52015000	      5200	80006174	419381b3	sub	x3,x7,x25	  x7:0x00000034 x25:0x00000000  x3=0x00000034
       52025000	      5201	80006178	000d8533	add	x10,x27,x0	 x27:0x80000000  x0:0x00000000 x10=0x80000000
       52035000	      5202	8000617c	0066c8b3	xor	x17,x13,x6	 x13:0x00000000  x6:0x00000665 x17=0x00000665
       52045000	      5203	80006180	0118f933	and	x18,x17,x17	 x17:0x00000665 x17:0x00000665 x18=0x00000665
       52055000	      5204	80006184	0188b5b3	sltu	x11,x17,x24	 x17:0x00000665 x24:0x00000000 x11=0x00000000
       52065000	      5205	80006188	a77274b7	lui	x9,0xa7727	  x9=0xa7727000
       52075000	      5206	8000618c	001a0113	addi	x2,x20,1	 x20:0x8000661c  x2=0x8000661d
       52085000	      5207	80006190	00010167	jalr	x2,x2,0	  x2:0x8000661d  x2=0x80006190
       52095000	      5208	00000000	00000013	addi	x0,x0,0	  x0:0x00000000
       52105000	      5209	8000661c	00000013	addi	x0,x0,0	  x0:0x00000000
       52115000	      5210	80006620	c3f97a17	auipc	x20,0xc3f97	 x20=0x43f9d61c
       52125000	      5211	80006624	005b71b3	and	x3,x22,x5	 x22:0x7a9e5104  x5:0x00000001  x3=0x00000000
       52135000	      5212	80006628	1721b513	sltiu	x10,x3,370	  x3:0x00000000 x10=0x00000001
       52145000	      5213	8000662c	00a06233	or	x4,x0,x10	  x0:0x00000000 x10:0x00000001  x4=0x00000001
       52155000	      5214	80006630	015f7c33	and	x24,x30,x21	 x30:0x00000000 x21:0x00000000 x24=0x00000000
       52165000	      5215	80006634	00639a13	slli	x20,x7,0x6	  x7:0x00000034 x20=0x00000d00
       52175000	      5216	80006638	21d3fdb7	lui	x27,0x21d3f	 x27=0x21d3f000
       52185000	      5217	8000663c	00050c33	add	x24,x10,x0	 x10:0x00000001  x0:0x00000000 x24=0x00000001
       52195000	      5218	80006640	03aedc63	bge	x29,x26,80006678	 x29:0x7fffffcc x26:0x80000000
       52205000	      5219	00000000	00000013	addi	x0,x0,0	  x0:0x00000000
       52215000	      5220	80006674	00000013	addi	x0,x0,0	  x0:0x00000000
       52225000	      5221	80006678	005606b3	add	x13,x12,x5	 x12:0x0000001b  x5:0x00000001 x13=0x0000001c
       52235000	      5222	8000667c	0338ca63	blt	x17,x19,800066b0	 x17:0x00000665 x19:0x00000000
       52245000	      5223	80006680	003e3333	sltu	x6,x28,x3	 x28:0x80009f28  x3:0x00000000  x6=0x00000000
       52255000	      5224	80006684	01721333	sll	x6,x4,x23	  x4:0x00000001 x23:0x00000255  x6=0x00200000
       52265000	      5225	80006688	822ff413	andi	x8,x31,-2014	 x31:0x63465000  x8=0x63465000
       52275000	      5226	8000668c	04935663	bge	x6,x9,800066d8	  x6:0x00200000  x9:0xa7727000
       52285000	      5227	00000000	00000013	addi	x0,x0,0	  x0:0x00000000
       52295000	      5228	800066d4	00000013	addi	x0,x0,0	  x0:0x00000000
       52305000	      5229	800066d8	04f4d663	bge	x9,x15,80006724	  x9:0xa7727000 x15:0xffffffff
       52315000	      5230	800066dc	40fed613	srai	x12,x29,0xf	 x29:0x7fffffcc x12=0x0000ffff
       52325000	      5231	800066e0	4d513c37	lui	x24,0x4d513	 x24=0x4d513000
       52335000	      5232	800066e4	9227fc97	auipc	x25,0x9227f	 x25=0x122856e0
       52345000	      5233	800066e8	00a91f33	sll	x30,x18,x10	 x18:0x00000665 x10:0x00000001 x30=0x00000cca
       52355000	      5234	800066ec	02f68663	beq	x13,x15,80006718	 x13:0x0000001c x15:0xffffffff
       52365000	      5235	800066f0	017e5db3	srl	x27,x28,x23	 x28:0x80009f28 x23:0x00000255 x27=0x00000400
       52375000	      5236	800066f4	01ebda63	bge	x23,x30,80006708	 x23:0x00000255 x30:0x00000cca
       52385000	      5237	800066f8	019c8cb3	add	x25,x25,x25	 x25:0x122856e0 x25:0x122856e0 x25=0x2450adc0
       52395000	      5238	800066fc	02ed1863	bne	x26,x14,8000672c	 x26:0x80000000 x14:0x80009ff8
       52405000	      5239	00000000	00000013	addi	x0,x0,0	  x0:0x00000000
       52415000	      5240	80006728	00000013	addi	x0,x0,0	  x0:0x00000000
       52425000	      5241	8000672c	01336cb3	or	x25,x6,x19	  x6:0x00200000 x19:0x00000000 x25=0x00200000
       52435000	      5242	80006730	00000013	addi	x0,x0,0	  x0:0x00000000
       52445000	      5243	80006734	1c4f2493	slti	x9,x30,452	 x30:0x00000cca  x9=0x00000000
       52455000	      5244	80006738	01d2c3b3	xor	x7,x5,x29	  x5:0x00000001 x29:0x7fffffcc  x7=0x7fffffcd
       52465000	      5245	8000673c	01d01033	sll	x0,x0,x29	  x0:0x00000000 x29:0x7fffffcc
       52475000	      5246	80006740	00f0fc63	bgeu	x1,x15,80006758	  x1:0x00000001 x15:0xffffffff
       52485000	      5247	80006744	004ccc63	blt	x25,x4,8000675c	 x25:0x00200000  x4:0x00000001
       52495000	      5248	80006748	04135863	bge	x6,x1,80006798	  x6:0x00200000  x1:0x00000001
       52505000	      5249	00000000	00000013	addi	x0,x0,0	  x0:0x00000000
       52515000	      5250	80006794	00000013	addi	x0,x0,0	  x0:0x00000000
       52525000	      5251	80006798	01410e63	beq	x2,x20,800067b4	  x2:0x80006190 x20:0x00000d00
       52535000	      5252	8000679c	020a6863	bltu	x20,x0,800067cc	 x20:0x00000d00  x0:0x00000000
       52545000	      5253	800067a0	015473b3	and	x7,x8,x21	  x8:0x63465000 x21:0x00000000  x7=0x00000000
       52555000	      5254	800067a4	04157663	bgeu	x10,x1,800067f0	 x10:0x00000001  x1:0x00000001
       52565000	      5255	00000000	00000013	addi	x0,x0,0	  x0:0x00000000
       52575000	      5256	800067ec	00000013	addi	x0,x0,0	  x0:0x00000000
       52585000	      5257	800067f0	cad8a493	slti	x9,x17,-851	 x17:0x00000665  x9=0x00000000
       52595000	      5258	800067f4	e0a17013	andi	x0,x2,-502	  x2:0x80006190
       52605000	      5259	800067f8	40f30ab3	sub	x21,x6,x15	  x6:0x00200000 x15:0xffffffff x21=0x00200001
       52615000	      5260	800067fc	01e5ba33	sltu	x20,x11,x30	 x11:0x00000000 x30:0x00000cca x20=0x00000001
       52625000	      5261	80006800	25a1ca93	xori	x21,x3,602	  x3:0x00000000 x21=0x0000025a
       52635000	      5262	80006804	018ce233	or	x4,x25,x24	 x25:0x00200000 x24:0x4d513000  x4=0x4d713000
       52645000	      5263	80006808	cc4a8237	lui	x4,0xcc4a8	  x4=0xcc4a8000
       52655000	      5264	8000680c	9f900397	auipc	x7,0x9f900	  x7=0x1f906808
       52665000	      5265	80006810	05ee7663	bgeu	x28,x30,8000685c	 x28:0x80009f28 x30:0x00000cca
       52675000	      5266	00000000	00000013	addi	x0,x0,0	  x0:0x00000000
       52685000	      5267	80006858	00000013	addi	x0,x0,0	  x0:0x00000000
       52695000	      5268	8000685c	031cee63	bltu	x25,x17,80006898	 x25:0x00200000 x17:0x00000665
       52705000	      5269	80006860	3e9e0313	addi	x6,x28,1001	 x28:0x80009f28  x6=0x8000a311
       52715000	      5270	80006864	006f5293	srli	x5,x30,0x6	 x30:0x00000cca  x5=0x00000033
       52725000	      5271	80006868	00b45c93	srli	x25,x8,0xb	  x8:0x63465000 x25=0x000c68ca
       52735000	      5272	8000686c	001181b3	add	x3,x3,x1	  x3:0x00000000  x1:0x00000001  x3=0x00000001
       52745000	      5273	80006870	010af9b3	and	x19,x21,x16	 x21:0x0000025a x16:0x80009fc4 x19=0x00000240
       52755000	      5274	80006874	40240f33	sub	x30,x8,x2	  x8:0x63465000  x2:0x80006190 x30=0xe345ee70
       52765000	      5275	80006878	01a835b3	sltu	x11,x16,x26	 x16:0x80009fc4 x26:0x80000000 x11=0x00000000
       52775000	      5276	8000687c	01099db3	sll	x27,x19,x16	 x19:0x00000240 x16:0x80009fc4 x27=0x00002400
       52785000	      5277	80006880	c597ec93	ori	x25,x15,-935	 x15:0xffffffff x25=0xffffffff
       52795000	      5278	80006884	9fcffa6f	jal	x20,80006884	 x20=0x80006884
       52805000	      5279	00000000	00000013	addi	x0,x0,0	  x0:0x00000000
       52815000	      5280	80005a7c	00000013	addi	x0,x0,0	  x0:0x00000000
       52825000	      5281	80005a80	fc0e0e13	addi	x28,x28,-64	 x28:0x80009f28 x28=0x80009ee8
       52835000	      5282	80005a84	00e11613	slli	x12,x2,0xe	  x2:0x80006190 x12=0x18640000
       52845000	      5283	80005a88	014e2223	sw	x20,4(x28)	 x28:0x80009ee8 x20:0x80006884 PA:0x80009eec
       52855000	      5284	80005a8c	01dd9db3	sll	x27,x27,x29	 x27:0x00002400 x29:0x7fffffcc x27=0x02400000
       52865000	      5285	80005a90	00f628b3	slt	x17,x12,x15	 x12:0x18640000 x15:0xffffffff x17=0x00000000
       52875000	      5286	80005a94	00000397	auipc	x7,0x0	  x7=0x80005a90
       52885000	      5287	80005a98	0d038393	addi	x7,x7,208	  x7:0x80005a90  x7=0x80005b60
       52895000	      5288	80005a9c	0c438393	addi	x7,x7,196	  x7:0x80005b60  x7=0x80005c24
       52905000	      5289	80005aa0	01eb9133	sll	x2,x23,x30	 x23:0x00000255 x30:0xe345ee70  x2=0x02550000
       52915000	      5290	80005aa4	32388e93	addi	x29,x17,803	 x17:0x00000000 x29=0x00000323
       52925000	      5291	80005aa8	00000013	addi	x0,x0,0	  x0:0x00000000
       52935000	      5292	80005aac	01190233	add	x4,x18,x17	 x18:0x00000665 x17:0x00000000  x4=0x00000665
       52945000	      5293	80005ab0	07a58597	auipc	x11,0x7a58	 x11=0x87a5daac
       52955000	      5294	80005ab4	015a7a63	bgeu	x20,x21,80005ac8	 x20:0x80006884 x21:0x0000025a
       52965000	      5295	00000000	00000013	addi	x0,x0,0	  x0:0x00000000
       52975000	      5296	80005ac4	00000013	addi	x0,x0,0	  x0:0x00000000
       52985000	      5297	80005ac8	f3d38a67	jalr	x20,x7,-195	  x7:0x80005c24 x20=0x80005ac8
       52995000	      5298	00000000	00000013	addi	x0,x0,0	  x0:0x00000000
       53005000	      5299	80005b60	00000013	addi	x0,x0,0	  x0:0x00000000
       53015000	      5300	80005b64	00000013	addi	x0,x0,0	  x0:0x00000000
       53025000	      5301	80005b68	ff4e0e13	addi	x28,x28,-12	 x28:0x80009ee8 x28=0x80009edc
       53035000	      5302	80005b6c	00000013	addi	x0,x0,0	  x0:0x00000000
       53045000	      5303	80005b70	00982ab3	slt	x21,x16,x9	 x16:0x80009fc4  x9:0x00000000 x21=0x00000001
       53055000	      5304	80005b74	41b1d693	srai	x13,x3,0x1b	  x3:0x00000001 x13=0x00000000
       53065000	      5305	80005b78	00000013	addi	x0,x0,0	  x0:0x00000000
       53075000	      5306	80005b7c	01fc94b3	sll	x9,x25,x31	 x25:0xffffffff x31:0x63465000  x9=0xffffffff
       53085000	      5307	80005b80	014e2223	sw	x20,4(x28)	 x28:0x80009edc x20:0x80005ac8 PA:0x80009ee0
       53095000	      5308	80005b84	013fd0b3	srl	x1,x31,x19	 x31:0x63465000 x19:0x00000240  x1=0x63465000
       53105000	      5309	80005b88	54c0fe93	andi	x29,x1,1356	  x1:0x63465000 x29=0x00000000
       53115000	      5310	80005b8c	ac610e93	addi	x29,x2,-1338	  x2:0x02550000 x29=0x0254fac6
       53125000	      5311	80005b90	012c5f13	srli	x30,x24,0x12	 x24:0x4d513000 x30=0x00001354
       53135000	      5312	80005b94	40ec8b33	sub	x22,x25,x14	 x25:0xffffffff x14:0x80009ff8 x22=0x7fff6007
       53145000	      5313	80005b98	01a16fb3	or	x31,x2,x26	  x2:0x02550000 x26:0x80000000 x31=0x82550000
       53155000	      5314	80005b9c	0242d063	bge	x5,x4,80005bbc	  x5:0x00000033  x4:0x00000665
       53165000	      5315	80005ba0	4e3ab013	sltiu	x0,x21,1251	 x21:0x00000001
       53175000	      5316	80005ba4	73a6e517	auipc	x10,0x73a6e	 x10=0xf3a73ba0
       53185000	      5317	80005ba8	59cbea93	ori	x21,x23,1436	 x23:0x00000255 x21=0x000007dd
       53195000	      5318	80005bac	ea4ac293	xori	x5,x21,-348	 x21:0x000007dd  x5=0xfffff979
       53205000	      5319	80005bb0	62f18493	addi	x9,x3,1583	  x3:0x00000001  x9=0x00000630
       53215000	      5320	80005bb4	a0807213	andi	x4,x0,-1528	  x0:0x00000000  x4=0x00000000
       53225000	      5321	80005bb8	00999193	slli	x3,x19,0x9	 x19:0x00000240  x3=0x00048000
       53235000	      5322	80005bbc	f7cfda6f	jal	x20,80005bbc	 x20=0x80005bbc
       53245000	      5323	00000000	00000013	addi	x0,x0,0	  x0:0x00000000
       53255000	      5324	80003334	00000013	addi	x0,x0,0	  x0:0x00000000
       53265000	      5325	80003338	009f9263	bne	x31,x9,8000333c	 x31:0x82550000  x9:0x00000630
       53275000	      5326	00000000	00000013	addi	x0,x0,0	  x0:0x00000000
       53285000	      5327	80003338	00000013	addi	x0,x0,0	  x0:0x00000000
       53295000	      5328	8000333c	fece0e13	addi	x28,x28,-20	 x28:0x80009edc x28=0x80009ec8
       53305000	      5329	80003340	00f3c733	xor	x14,x7,x15	  x7:0x80005c24 x15:0xffffffff x14=0x7fffa3db
       53315000	      5330	80003344	00514c33	xor	x24,x2,x5	  x2:0x02550000  x5:0xfffff979 x24=0xfdaaf979
       53325000	      5331	80003348	08fac537	lui	x10,0x8fac	 x10=0x08fac000
       53335000	      5332	8000334c	010c10b3	sll	x1,x24,x16	 x24:0xfdaaf979 x16:0x80009fc4  x1=0xdaaf9790
       53345000	      5333	80003350	014e2223	sw	x20,4(x28)	 x28:0x80009ec8 x20:0x80005bbc PA:0x80009ecc
       53355000	      5334	80003354	40b681b3	sub	x3,x13,x11	 x13:0x00000000 x11:0x87a5daac  x3=0x785a2554
       53365000	      5335	80003358	00005117	auipc	x2,0x5	  x2=0x80008354
       53375000	      5336	8000335c	24510113	addi	x2,x2,581	  x2:0x80008354  x2=0x80008599
       53385000	      5337	80003360	01fffdb3	and	x27,x31,x31	 x31:0x82550000 x31:0x82550000 x27=0x82550000
       53395000	      5338	80003364	000b2433	slt	x8,x22,x0	 x22:0x7fff6007  x0:0x00000000  x8=0x00000000
       53405000	      5339	80003368	0028acb3	slt	x25,x17,x2	 x17:0x00000000  x2:0x80008599 x25=0x00000000
       53415000	      5340	8000336c	00fa9c13	slli	x24,x21,0xf	 x21:0x000007dd x24=0x03ee8000
       53425000	      5341	80003370	ff810f03	lb	x30,-8(x2)	  x2:0x80008599 x30=0xffffff96 PA:0x80008591
       53435000	      5342	80003374	41fcdfb3	sra	x31,x25,x31	 x25:0x00000000 x31:0x82550000 x31=0x00000000
       53445000	      5343	80003378	03414703	lbu	x14,52(x2)	  x2:0x80008599 x14=0x00000096 PA:0x800085cd
       53455000	      5344	8000337c	010d9493	slli	x9,x27,0x10	 x27:0x82550000  x9=0x00000000
       53465000	      5345	80003380	04014a03	lbu	x20,64(x2)	  x2:0x80008599 x20=0x00000035 PA:0x800085d9
       53475000	      5346	80003384	cbcbcfb7	lui	x31,0xcbcbc	 x31=0xcbcbc000
       53485000	      5347	80003388	fcc10183	lb	x3,-52(x2)	  x2:0x80008599  x3=0x00000028 PA:0x80008565
       53495000	      5348	8000338c	012106a3	sb	x18,13(x2)	  x2:0x80008599 x18:0x00000665 PA:0x800085a6
       53505000	      5349	80003390	ff810823	sb	x24,-16(x2)	  x2:0x80008599 x24:0x03ee8000 PA:0x80008589
       53515000	      5350	80003394	41405233	sra	x4,x0,x20	  x0:0x00000000 x20:0x00000035  x4=0x00000000
       53525000	      5351	80003398	02111883	lh	x17,33(x2)	  x2:0x80008599 x17=0x0000694c PA:0x800085ba
       53535000	      5352	00000000	00000013	addi	x0,x0,0	  x0:0x00000000
       53545000	      5353	8000339c	ff110523	sb	x17,-22(x2)	  x2:0x80008599 x17:0x0000694c PA:0x80008583
       53555000	      5354	800033a0	017b87b3	add	x15,x23,x23	 x23:0x00000255 x23:0x00000255 x15=0x000004aa
       53565000	      5355	800033a4	00b05d93	srli	x27,x0,0xb	  x0:0x00000000 x27=0x00000000
       53575000	      5356	800033a8	01510fb3	add	x31,x2,x21	  x2:0x80008599 x21:0x000007dd x31=0x80008d76
       53585000	      5357	800033ac	00669493	slli	x9,x13,0x6	 x13:0x00000000  x9=0x00000000
       53595000	      5358	800033b0	013a59b3	srl	x19,x20,x19	 x20:0x00000035 x19:0x00000240 x19=0x00000035
       53605000	      5359	800033b4	fc712da3	sw	x7,-37(x2)	  x2:0x80008599  x7:0x80005c24 PA:0x80008574
       53615000	      5360	800033b8	03e10a23	sb	x30,52(x2)	  x2:0x80008599 x30:0xffffff96 PA:0x800085cd
       53625000	      5361	800033bc	00af9cb3	sll	x25,x31,x10	 x31:0x80008d76 x10:0x08fac000 x25=0x80008d76
       53635000	      5362	800033c0	4156deb3	sra	x29,x13,x21	 x13:0x00000000 x21:0x000007dd x29=0x00000000
       53645000	      5363	800033c4	d6a0bf13	sltiu	x30,x1,-662	  x1:0xdaaf9790 x30=0x00000001
       53655000	      5364	800033c8	00410383	lb	x7,4(x2)	  x2:0x80008599  x7=0x0000001a PA:0x8000859d
       53665000	      5365	800033cc	fd210203	lb	x4,-46(x2)	  x2:0x80008599  x4=0xffffff85 PA:0x8000856b
       53675000	      5366	800033d0	2d8cef13	ori	x30,x25,728	 x25:0x80008d76 x30=0x80008ffe
       53685000	      5367	800033d4	ff214b03	lbu	x22,-14(x2)	  x2:0x80008599 x22=0x00000034 PA:0x8000858b
       53695000	      5368	800033d8	fef104a3	sb	x15,-23(x2)	  x2:0x80008599 x15:0x000004aa PA:0x80008582
       53705000	      5369	800033dc	00006997	auipc	x19,0x6	 x19=0x800093d8
       53715000	      5370	800033e0	99398993	addi	x19,x19,-1645	 x19:0x800093d8 x19=0x80008d6b
       53725000	      5371	800033e4	008567b3	or	x15,x10,x8	 x10:0x08fac000  x8:0x00000000 x15=0x08fac000
       53735000	      5372	800033e8	40665f93	srai	x31,x12,0x6	 x12:0x18640000 x31=0x00619000
       53745000	      5373	800033ec	4541b593	sltiu	x11,x3,1108	  x3:0x00000028 x11=0x00000001
       53755000	      5374	800033f0	ab598603	lb	x12,-1355(x19)	 x19:0x80008d6b x12=0x00000031 PA:0x80008820
       53765000	      5375	800033f4	36a53093	sltiu	x1,x10,874	 x10:0x08fac000  x1=0x00000000
       53775000	      5376	800033f8	db229097	auipc	x1,0xdb229	  x1=0x5b22c3f4
       53785000	      5377	800033fc	00e86b33	or	x22,x16,x14	 x16:0x80009fc4 x14:0x00000096 x22=0x80009fd6
       53795000	      5378	80003400	dda98a03	lb	x20,-550(x19)	 x19:0x80008d6b x20=0x0000006c PA:0x80008b45
       53805000	      5379	80003404	7b25bb93	sltiu	x23,x11,1970	 x11:0x00000001 x23=0x00000001
       53815000	      5380	80003408	1be984a3	sb	x30,425(x19)	 x19:0x80008d6b x30:0x80008ffe PA:0x80008f14
       53825000	      5381	8000340c	2599db83	lhu	x23,601(x19)	 x19:0x80008d6b x23=0x0000b36d PA:0x80008fc4
       53835000	      5382	80003410	9288c213	xori	x4,x17,-1752	 x17:0x0000694c  x4=0xffff9064
       53845000	      5383	80003414	01495393	srli	x7,x18,0x14	 x18:0x00000665  x7=0x00000000
       53855000	      5384	80003418	5eaf9737	lui	x14,0x5eaf9	 x14=0x5eaf9000
       53865000	      5385	8000341c	002c6db3	or	x27,x24,x2	 x24:0x03ee8000  x2:0x80008599 x27=0x83ee8599
       53875000	      5386	80003420	f6b98b83	lb	x23,-149(x19)	 x19:0x80008d6b x23=0xffffffbe PA:0x80008cd6
       53885000	      5387	80003424	c01f0f13	addi	x30,x30,-1023	 x30:0x80008ffe x30=0x80008bff
       53895000	      5388	80003428	41f6d4b3	sra	x9,x13,x31	 x13:0x00000000 x31:0x00619000  x9=0x00000000
       53905000	      5389	8000342c	01351633	sll	x12,x10,x19	 x10:0x08fac000 x19:0x80008d6b x12=0xd6000000
       53915000	      5390	80003430	013c1db3	sll	x27,x24,x19	 x24:0x03ee8000 x19:0x80008d6b x27=0x74000000
       53925000	      5391	80003434	fb29cc83	lbu	x25,-78(x19)	 x19:0x80008d6b x25=0x00000078 PA:0x80008d1d
       53935000	      5392	80003438	01076f33	or	x30,x14,x16	 x14:0x5eaf9000 x16:0x80009fc4 x30=0xdeaf9fc4
       53945000	      5393	8000343c	ed799f83	lh	x31,-297(x19)	 x19:0x80008d6b x31=0xffffd8af PA:0x80008c42
       53955000	      5394	80003440	0ce9c903	lbu	x18,206(x19)	 x19:0x80008d6b x18=0x0000009f PA:0x80008e39
       53965000	      5395	80003444	408d0133	sub	x2,x26,x8	 x26:0x80000000  x8:0x00000000  x2=0x80000000
       53975000	      5396	80003448	b6399083	lh	x1,-1181(x19)	 x19:0x80008d6b  x1=0x00003a2f PA:0x800088ce
       53985000	      5397	8000344c	009d80b3	add	x1,x27,x9	 x27:0x74000000  x9:0x00000000  x1=0x74000000
       53995000	      5398	80003450	f8998923	sb	x9,-110(x19)	 x19:0x80008d6b  x9:0x00000000 PA:0x80008cfd
       54005000	      5399	80003454	1a96ed93	ori	x27,x13,425	 x13:0x00000000 x27=0x000001a9
       54015000	      5400	80003458	de89cb83	lbu	x23,-536(x19)	 x19:0x80008d6b x23=0x0000000a PA:0x80008b53
       54025000	      5401	8000345c	e60ca537	lui	x10,0xe60ca	 x10=0xe60ca000
       54035000	      5402	80003460	01d01e93	slli	x29,x0,0x1d	  x0:0x00000000 x29=0x00000000
       54045000	      5403	80003464	b9598a83	lb	x21,-1131(x19)	 x19:0x80008d6b x21=0x00000018 PA:0x80008900
       54055000	      5404	80003468	00000013	addi	x0,x0,0	  x0:0x00000000
       54065000	      5405	8000346c	01bf0db3	add	x27,x30,x27	 x30:0xdeaf9fc4 x27:0x000001a9 x27=0xdeafa16d
       54075000	      5406	80003470	aa474313	xori	x6,x14,-1372	 x14:0x5eaf9000  x6=0xa1506aa4
       54085000	      5407	80003474	011e6433	or	x8,x28,x17	 x28:0x80009ec8 x17:0x0000694c  x8=0x8000ffcc
       54095000	      5408	80003478	de89c903	lbu	x18,-536(x19)	 x19:0x80008d6b x18=0x0000000a PA:0x80008b53
       54105000	      5409	8000347c	20399503	lh	x10,515(x19)	 x19:0x80008d6b x10=0x00006d4f PA:0x80008f6e
       54115000	      5410	80003480	b319a283	lw	x5,-1231(x19)	 x19:0x80008d6b  x5=0x3e1e6553 PA:0x8000889c
       54125000	      5411	80003484	00005117	auipc	x2,0x5	  x2=0x80008480
       54135000	      5412	80003488	5fc10113	addi	x2,x2,1532	  x2:0x80008480  x2=0x80008a7c
       54145000	      5413	8000348c	e015f493	andi	x9,x11,-511	 x11:0x00000001  x9=0x00000001
       54155000	      5414	80003490	f0914483	lbu	x9,-247(x2)	  x2:0x80008a7c  x9=0x00000079 PA:0x80008985
       54165000	      5415	80003494	fb6105a3	sb	x22,-85(x2)	  x2:0x80008a7c x22:0x80009fd6 PA:0x80008a27
       54175000	      5416	80003498	ff8101a3	sb	x24,-29(x2)	  x2:0x80008a7c x24:0x03ee8000 PA:0x80008a5f
       54185000	      5417	8000349c	01bd91b3	sll	x3,x27,x27	 x27:0xdeafa16d x27:0xdeafa16d  x3=0xf42da000
       54195000	      5418	800034a0	40925933	sra	x18,x4,x9	  x4:0xffff9064  x9:0x00000079 x18=0xffffffff
       54205000	      5419	800034a4	ca664093	xori	x1,x12,-858	 x12:0xd6000000  x1=0x29fffca6
       54215000	      5420	800034a8	0184a0b3	slt	x1,x9,x24	  x9:0x00000079 x24:0x03ee8000  x1=0x00000001
       54225000	      5421	800034ac	00b7d933	srl	x18,x15,x11	 x15:0x08fac000 x11:0x00000001 x18=0x047d6000
       54235000	      5422	800034b0	d6cbb297	auipc	x5,0xd6cbb	  x5=0x56cbe4ac
       54245000	      5423	800034b4	f8910983	lb	x19,-119(x2)	  x2:0x80008a7c x19=0xffffff88 PA:0x80008a05
       54255000	      5424	800034b8	07710a83	lb	x21,119(x2)	  x2:0x80008a7c x21=0xffffff95 PA:0x80008af3
       54265000	      5425	800034bc	00239c93	slli	x25,x7,0x2	  x7:0x00000000 x25=0x00000000
       54275000	      5426	800034c0	5c9c30b7	lui	x1,0x5c9c3	  x1=0x5c9c3000
       54285000	      5427	800034c4	0db10703	lb	x14,219(x2)	  x2:0x80008a7c x14=0xffffffa5 PA:0x80008b57
       54295000	      5428	800034c8	659a8d93	addi	x27,x21,1625	 x21:0xffffff95 x27=0x000005ee
       54305000	      5429	800034cc	00617ab3	and	x21,x2,x6	  x2:0x80008a7c  x6:0xa1506aa4 x21=0x80000a24
       54315000	      5430	800034d0	07c10ca3	sb	x28,121(x2)	  x2:0x80008a7c x28:0x80009ec8 PA:0x80008af5
       54325000	      5431	800034d4	f0914503	lbu	x10,-247(x2)	  x2:0x80008a7c x10=0x00000079 PA:0x80008985
       54335000	      5432	800034d8	0da15983	lhu	x19,218(x2)	  x2:0x80008a7c x19=0x0000a5c2 PA:0x80008b56
       54345000	      5433	800034dc	0a410603	lb	x12,164(x2)	  x2:0x80008a7c x12=0xffffff94 PA:0x80008b20
       54355000	      5434	800034e0	07f14003	lbu	x0,127(x2)	  x2:0x80008a7c PA:0x80008afb
       54365000	      5435	800034e4	018f1593	slli	x11,x30,0x18	 x30:0xdeaf9fc4 x11=0xc4000000
       54375000	      5436	800034e8	f5310403	lb	x8,-173(x2)	  x2:0x80008a7c  x8=0x00000057 PA:0x800089cf
       54385000	      5437	800034ec	0b012203	lw	x4,176(x2)	  x2:0x80008a7c  x4=0xde219cbd PA:0x80008b2c
       54395000	      5438	800034f0	01ad7433	and	x8,x26,x26	 x26:0x80000000 x26:0x80000000  x8=0x80000000
       54405000	      5439	800034f4	726ec413	xori	x8,x29,1830	 x29:0x00000000  x8=0x00000726
       54415000	      5440	800034f8	f4f14c83	lbu	x25,-177(x2)	  x2:0x80008a7c x25=0x00000037 PA:0x800089cb
       54425000	      5441	800034fc	06511c23	sh	x5,120(x2)	  x2:0x80008a7c  x5:0x56cbe4ac PA:0x80008af4
       54435000	      5442	80003500	fc910303	lb	x6,-55(x2)	  x2:0x80008a7c  x6=0x00000044 PA:0x80008a45
       54445000	      5443	80003504	09c14283	lbu	x5,156(x2)	  x2:0x80008a7c  x5=0x00000017 PA:0x80008b18
       54455000	      5444	80003508	0ef14203	lbu	x4,239(x2)	  x2:0x80008a7c  x4=0x000000db PA:0x80008b6b
       54465000	      5445	8000350c	2afc13b7	lui	x7,0x2afc1	  x7=0x2afc1000
       54475000	      5446	80003510	014b4db3	xor	x27,x22,x20	 x22:0x80009fd6 x20:0x0000006c x27=0x80009fba
       54485000	      5447	80003514	fa410503	lb	x10,-92(x2)	  x2:0x80008a7c x10=0xffffffc7 PA:0x80008a20
       54495000	      5448	80003518	01bc61b3	or	x3,x24,x27	 x24:0x03ee8000 x27:0x80009fba  x3=0x83ee9fba
       54505000	      5449	8000351c	400a54b3	sra	x9,x20,x0	 x20:0x0000006c  x0:0x00000000  x9=0x0000006c
       54515000	      5450	80003520	fe914983	lbu	x19,-23(x2)	  x2:0x80008a7c x19=0x00000096 PA:0x80008a65
       54525000	      5451	80003524	f5d10e83	lb	x29,-163(x2)	  x2:0x80008a7c x29=0x00000033 PA:0x800089d9
       54535000	      5452	80003528	0045cc33	xor	x24,x11,x4	 x11:0xc4000000  x4:0x000000db x24=0xc40000db
       54545000	      5453	8000352c	f6f105a3	sb	x15,-149(x2)	  x2:0x80008a7c x15:0x08fac000 PA:0x800089e7
       54555000	      5454	80003530	006c7513	andi	x10,x24,6	 x24:0xc40000db x10=0x00000002
       54565000	      5455	80003534	0c015c03	lhu	x24,192(x2)	  x2:0x80008a7c x24=0x0000ca95 PA:0x80008b3c
       54575000	      5456	80003538	5d507d93	andi	x27,x0,1493	  x0:0x00000000 x27=0x00000000
       54585000	      5457	8000353c	0cf14883	lbu	x17,207(x2)	  x2:0x80008a7c x17=0x000000c8 PA:0x80008b4b
       54595000	      5458	80003540	00005117	auipc	x2,0x5	  x2=0x8000853c
       54605000	      5459	80003544	19310113	addi	x2,x2,403	  x2:0x8000853c  x2=0x800086cf
       54615000	      5460	80003548	415dd333	sra	x6,x27,x21	 x27:0x00000000 x21:0x80000a24  x6=0x00000000
       54625000	      5461	8000354c	0026bb33	sltu	x22,x13,x2	 x13:0x00000000  x2:0x800086cf x22=0x00000001
       54635000	      5462	80003550	00f769b3	or	x19,x14,x15	 x14:0xffffffa5 x15:0x08fac000 x19=0xffffffa5
       54645000	      5463	80003554	28028f93	addi	x31,x5,640	  x5:0x00000017 x31=0x00000297
       54655000	      5464	80003558	0105e5b3	or	x11,x11,x16	 x11:0xc4000000 x16:0x80009fc4 x11=0xc4009fc4
       54665000	      5465	8000355c	00611f13	slli	x30,x2,0x6	  x2:0x800086cf x30=0x0021b3c0
       54675000	      5466	80003560	f6683693	sltiu	x13,x16,-154	 x16:0x80009fc4 x13=0x00000001
       54685000	      5467	80003564	402cd233	sra	x4,x25,x2	 x25:0x00000037  x2:0x800086cf  x4=0x00000000
       54695000	      5468	80003568	c4a14b83	lbu	x23,-950(x2)	  x2:0x800086cf x23=0x0000007b PA:0x80008319
       54705000	      5469	8000356c	fc311403	lh	x8,-61(x2)	  x2:0x800086cf  x8=0x00003ee2 PA:0x80008692
       54715000	      5470	80003570	017224b3	slt	x9,x4,x23	  x4:0x00000000 x23:0x0000007b  x9=0x00000001
       54725000	      5471	80003574	00ca50b3	srl	x1,x20,x12	 x20:0x0000006c x12:0xffffff94  x1=0x00000000
       54735000	      5472	80003578	0199a9b3	slt	x19,x19,x25	 x19:0xffffffa5 x25:0x00000037 x19=0x00000001
       54745000	      5473	8000357c	f3214a03	lbu	x20,-206(x2)	  x2:0x800086cf x20=0x0000007a PA:0x80008601
       54755000	      5474	80003580	b91112a3	sh	x17,-1147(x2)	  x2:0x800086cf x17:0x000000c8 PA:0x80008254
       54765000	      5475	80003584	fcf10703	lb	x14,-49(x2)	  x2:0x800086cf x14=0x0000006f PA:0x8000869e
       54775000	      5476	00000000	00000013	addi	x0,x0,0	  x0:0x00000000
       54785000	      5477	80003588	7ce4d717	auipc	x14,0x7ce4d	 x14=0xfce50584
       54795000	      5478	8000358c	0de118a3	sh	x30,209(x2)	  x2:0x800086cf x30:0x0021b3c0 PA:0x800087a0
       54805000	      5479	80003590	d6010203	lb	x4,-672(x2)	  x2:0x800086cf  x4=0x0000007d PA:0x8000842f
       54815000	      5480	80003594	c7d102a3	sb	x29,-923(x2)	  x2:0x800086cf x29:0x00000033 PA:0x80008334
       54825000	      5481	80003598	d3910003	lb	x0,-711(x2)	  x2:0x800086cf PA:0x80008408
       54835000	      5482	8000359c	01e7d5b3	srl	x11,x15,x30	 x15:0x08fac000 x30:0x0021b3c0 x11=0x08fac000
       54845000	      5483	800035a0	d02128a3	sw	x2,-751(x2)	  x2:0x800086cf  x2:0x800086cf PA:0x800083e0
       54855000	      5484	800035a4	010dedb3	or	x27,x27,x16	 x27:0x00000000 x16:0x80009fc4 x27=0x80009fc4
       54865000	      5485	800035a8	aa310c23	sb	x3,-1352(x2)	  x2:0x800086cf  x3:0x83ee9fba PA:0x80008187
       54875000	      5486	800035ac	df910683	lb	x13,-519(x2)	  x2:0x800086cf x13=0x0000001c PA:0x800084c8
       54885000	      5487	800035b0	0091a633	slt	x12,x3,x9	  x3:0x83ee9fba  x9:0x00000001 x12=0x00000001
       54895000	      5488	800035b4	00b8f233	and	x4,x17,x11	 x17:0x000000c8 x11:0x08fac000  x4=0x00000000
       54905000	      5489	800035b8	00000013	addi	x0,x0,0	  x0:0x00000000
       54915000	      5490	800035bc	9f0d5a37	lui	x20,0x9f0d5	 x20=0x9f0d5000
       54925000	      5491	800035c0	b3c14983	lbu	x19,-1220(x2)	  x2:0x800086cf x19=0x0000004b PA:0x8000820b
       54935000	      5492	800035c4	a77110a3	sh	x23,-1439(x2)	  x2:0x800086cf x23:0x0000007b PA:0x80008130
       54945000	      5493	800035c8	03b10783	lb	x15,59(x2)	  x2:0x800086cf x15=0x00000065 PA:0x8000870a
       54955000	      5494	800035cc	efd11d83	lh	x27,-259(x2)	  x2:0x800086cf x27=0xffff9608 PA:0x800085cc
       54965000	      5495	800035d0	c9124313	xori	x6,x4,-879	  x4:0x00000000  x6=0xfffffc91
       54975000	      5496	800035d4	01519e93	slli	x29,x3,0x15	  x3:0x83ee9fba x29=0xf7400000
       54985000	      5497	800035d8	017e0a33	add	x20,x28,x23	 x28:0x80009ec8 x23:0x0000007b x20=0x80009f43
       54995000	      5498	800035dc	f5b14f83	lbu	x31,-165(x2)	  x2:0x800086cf x31=0x0000003a PA:0x8000862a
       55005000	      5499	800035e0	4bc46693	ori	x13,x8,1212	  x8:0x00003ee2 x13=0x00003efe
       55015000	      5500	800035e4	003e1fb3	sll	x31,x28,x3	 x28:0x80009ec8  x3:0x83ee9fba x31=0x20000000
       55025000	      5501	800035e8	98334e93	xori	x29,x6,-1661	  x6:0xfffffc91 x29=0x00000512
       55035000	      5502	800035ec	0b510023	sb	x21,160(x2)	  x2:0x800086cf x21:0x80000a24 PA:0x8000876f
       55045000	      5503	800035f0	00510923	sb	x5,18(x2)	  x2:0x800086cf  x5:0x00000017 PA:0x800086e1
       55055000	      5504	800035f4	01df9e93	slli	x29,x31,0x1d	 x31:0x20000000 x29=0x00000000
       55065000	      5505	800035f8	01fe1eb3	sll	x29,x28,x31	 x28:0x80009ec8 x31:0x20000000 x29=0x80009ec8
       55075000	      5506	800035fc	0182a333	slt	x6,x5,x24	  x5:0x00000017 x24:0x0000ca95  x6=0x00000001
       55085000	      5507	80003600	402a07b3	sub	x15,x20,x2	 x20:0x80009f43  x2:0x800086cf x15=0x00001874
       55095000	      5508	80003604	b0715903	lhu	x18,-1273(x2)	  x2:0x800086cf x18=0x0000ac3f PA:0x800081d6
       55105000	      5509	80003608	01335593	srli	x11,x6,0x13	  x6:0x00000001 x11=0x00000000
       55115000	      5510	8000360c	00a10c83	lb	x25,10(x2)	  x2:0x800086cf x25=0xffffff8b PA:0x800086d9
       55125000	      5511	80003610	00005497	auipc	x9,0x5	  x9=0x8000860c
       55135000	      5512	80003614	08348493	addi	x9,x9,131	  x9:0x8000860c  x9=0x8000868f
       55145000	      5513	80003618	bd84cd83	lbu	x27,-1064(x9)	  x9:0x8000868f x27=0x00000001 PA:0x80008267
       55155000	      5514	8000361c	e9648623	sb	x22,-372(x9)	  x9:0x8000868f x22:0x00000001 PA:0x8000851b
       55165000	      5515	80003620	0905fcb7	lui	x25,0x905f	 x25=0x0905f000
       55175000	      5516	80003624	cfe48c03	lb	x24,-770(x9)	  x9:0x8000868f x24=0x0000000d PA:0x8000838d
       55185000	      5517	80003628	012a3933	sltu	x18,x20,x18	 x20:0x80009f43 x18:0x0000ac3f x18=0x00000000
       55195000	      5518	8000362c	f6c48f23	sb	x12,-130(x9)	  x9:0x8000868f x12:0x00000001 PA:0x8000860d
       55205000	      5519	80003630	a7b49083	lh	x1,-1413(x9)	  x9:0x8000868f  x1=0x00000f6b PA:0x8000810a
       55215000	      5520	80003634	0136c433	xor	x8,x13,x19	 x13:0x00003efe x19:0x0000004b  x8=0x00003eb5
       55225000	      5521	80003638	ccb4dd83	lhu	x27,-821(x9)	  x9:0x8000868f x27=0x00000000 PA:0x8000835a
       55235000	      5522	8000363c	0d448aa3	sb	x20,213(x9)	  x9:0x8000868f x20:0x80009f43 PA:0x80008764
       55245000	      5523	80003640	019698b3	sll	x17,x13,x25	 x13:0x00003efe x25:0x0905f000 x17=0x00003efe
       55255000	      5524	80003644	00502eb3	slt	x29,x0,x5	  x0:0x00000000  x5:0x00000017 x29=0x00000001
       55265000	      5525	80003648	2a46feb7	lui	x29,0x2a46f	 x29=0x2a46f000
       55275000	      5526	8000364c	00cd5533	srl	x10,x26,x12	 x26:0x80000000 x12:0x00000001 x10=0x40000000
       55285000	      5527	80003650	0132a2b3	slt	x5,x5,x19	  x5:0x00000017 x19:0x0000004b  x5=0x00000001
       55295000	      5528	80003654	c284c403	lbu	x8,-984(x9)	  x9:0x8000868f  x8=0x00000042 PA:0x800082b7
       55305000	      5529	80003658	18248203	lb	x4,386(x9)	  x9:0x8000868f  x4=0x0000002a PA:0x80008811
       55315000	      5530	8000365c	3c85b413	sltiu	x8,x11,968	 x11:0x00000000  x8=0x00000001
       55325000	      5531	80003660	d1948123	sb	x25,-766(x9)	  x9:0x8000868f x25:0x0905f000 PA:0x80008391
       55335000	      5532	80003664	d154aca3	sw	x21,-743(x9)	  x9:0x8000868f x21:0x80000a24 PA:0x800083a8
       55345000	      5533	80003668	00d41313	slli	x6,x8,0xd	  x8:0x00000001  x6=0x00002000
       55355000	      5534	8000366c	fd147e97	auipc	x29,0xfd147	 x29=0x7d14a668
       55365000	      5535	80003670	09248b83	lb	x23,146(x9)	  x9:0x8000868f x23=0x00000018 PA:0x80008721
       55375000	      5536	80003674	67f2bc37	lui	x24,0x67f2b	 x24=0x67f2b000
       55385000	      5537	80003678	ed949083	lh	x1,-295(x9)	  x9:0x8000868f  x1=0xfffff846 PA:0x80008568
       55395000	      5538	8000367c	abc482a3	sb	x28,-1371(x9)	  x9:0x8000868f x28:0x80009ec8 PA:0x80008134
       55405000	      5539	80003680	ada4cc83	lbu	x25,-1318(x9)	  x9:0x8000868f x25=0x0000005a PA:0x80008169
       55415000	      5540	80003684	b2e4c383	lbu	x7,-1234(x9)	  x9:0x8000868f  x7=0x000000cd PA:0x800081bd
       55425000	      5541	80003688	b9248b03	lb	x22,-1134(x9)	  x9:0x8000868f x22=0xffffff8b PA:0x80008221
       55435000	      5542	8000368c	a7148b83	lb	x23,-1423(x9)	  x9:0x8000868f x23=0x00000019 PA:0x80008100
       55445000	      5543	80003690	00005117	auipc	x2,0x5	  x2=0x8000868c
       55455000	      5544	80003694	61e10113	addi	x2,x2,1566	  x2:0x8000868c  x2=0x80008caa
       55465000	      5545	80003698	01e62733	slt	x14,x12,x30	 x12:0x00000001 x30:0x0021b3c0 x14=0x00000001
       55475000	      5546	8000369c	a67bc893	xori	x17,x23,-1433	 x23:0x00000019 x17=0xfffffa7e
       55485000	      5547	800036a0	00408533	add	x10,x1,x4	  x1:0xfffff846  x4:0x0000002a x10=0xfffff870
       55495000	      5548	800036a4	006ff7b3	and	x15,x31,x6	 x31:0x20000000  x6:0x00002000 x15=0x00000000
       55505000	      5549	800036a8	00ca1493	slli	x9,x20,0xc	 x20:0x80009f43  x9=0x09f43000
       55515000	      5550	800036ac	00714503	lbu	x10,7(x2)	  x2:0x80008caa x10=0x00000048 PA:0x80008cb1
       55525000	      5551	800036b0	876fa417	auipc	x8,0x876fa	  x8=0x076fd6ac
       55535000	      5552	800036b4	ff911923	sh	x25,-14(x2)	  x2:0x80008caa x25:0x0000005a PA:0x80008c9c
       55545000	      5553	800036b8	004e1413	slli	x8,x28,0x4	 x28:0x80009ec8  x8=0x0009ec80
       55555000	      5554	800036bc	ffd10823	sb	x29,-16(x2)	  x2:0x80008caa x29:0x7d14a668 PA:0x80008c9a
       55565000	      5555	800036c0	fe211d23	sh	x2,-6(x2)	  x2:0x80008caa  x2:0x80008caa PA:0x80008ca4
       55575000	      5556	800036c4	01d107a3	sb	x29,15(x2)	  x2:0x80008caa x29:0x7d14a668 PA:0x80008cb9
       55585000	      5557	800036c8	fe010f23	sb	x0,-2(x2)	  x2:0x80008caa  x0:0x00000000 PA:0x80008ca8
       55595000	      5558	800036cc	ff910483	lb	x9,-7(x2)	  x2:0x80008caa  x9=0x00000033 PA:0x80008ca3
       55605000	      5559	800036d0	ff910a03	lb	x20,-7(x2)	  x2:0x80008caa x20=0x00000033 PA:0x80008ca3
       55615000	      5560	800036d4	85e583b7	lui	x7,0x85e58	  x7=0x85e58000
       55625000	      5561	800036d8	01fdc0b3	xor	x1,x27,x31	 x27:0x00000000 x31:0x20000000  x1=0x20000000
       55635000	      5562	800036dc	01325b93	srli	x23,x4,0x13	  x4:0x0000002a x23=0x00000000
       55645000	      5563	800036e0	42f16a13	ori	x20,x2,1071	  x2:0x80008caa x20=0x80008caf
       55655000	      5564	800036e4	ff914383	lbu	x7,-7(x2)	  x2:0x80008caa  x7=0x00000033 PA:0x80008ca3
       55665000	      5565	800036e8	012b9413	slli	x8,x23,0x12	 x23:0x00000000  x8=0x00000000
       55675000	      5566	800036ec	40825ab3	sra	x21,x4,x8	  x4:0x0000002a  x8:0x00000000 x21=0x0000002a
       55685000	      5567	800036f0	01af6db3	or	x27,x30,x26	 x30:0x0021b3c0 x26:0x80000000 x27=0x8021b3c0
       55695000	      5568	800036f4	ff811903	lh	x18,-8(x2)	  x2:0x80008caa x18=0x000033bc PA:0x80008ca2
       55705000	      5569	800036f8	41905913	srai	x18,x0,0x19	  x0:0x00000000 x18=0x00000000
       55715000	      5570	800036fc	00d22cb3	slt	x25,x4,x13	  x4:0x0000002a x13:0x00003efe x25=0x00000001
       55725000	      5571	80003700	ff811403	lh	x8,-8(x2)	  x2:0x80008caa  x8=0x000033bc PA:0x80008ca2
       55735000	      5572	80003704	407c5413	srai	x8,x24,0x7	 x24:0x67f2b000  x8=0x00cfe560
       55745000	      5573	80003708	40a4db13	srai	x22,x9,0xa	  x9:0x00000033 x22=0x00000000
       55755000	      5574	8000370c	00110583	lb	x11,1(x2)	  x2:0x80008caa x11=0xffffffba PA:0x80008cab
       55765000	      5575	80003710	418457b3	sra	x15,x8,x24	  x8:0x00cfe560 x24:0x67f2b000 x15=0x00cfe560
       55775000	      5576	80003714	00000013	addi	x0,x0,0	  x0:0x00000000
       55785000	      5577	80003718	ed478c97	auipc	x25,0xed478	 x25=0x6d47b714
       55795000	      5578	8000371c	00000013	addi	x0,x0,0	  x0:0x00000000
       55805000	      5579	80003720	01810623	sb	x24,12(x2)	  x2:0x80008caa x24:0x67f2b000 PA:0x80008cb6
       55815000	      5580	80003724	00005117	auipc	x2,0x5	  x2=0x80008720
       55825000	      5581	80003728	29010113	addi	x2,x2,656	  x2:0x80008720  x2=0x800089b0
       55835000	      5582	8000372c	00585b13	srli	x22,x16,0x5	 x16:0x80009fc4 x22=0x040004fe
       55845000	      5583	80003730	ff015f03	lhu	x30,-16(x2)	  x2:0x800089b0 x30=0x00009ec8 PA:0x800089a0
       55855000	      5584	80003734	fe711b23	sh	x7,-10(x2)	  x2:0x800089b0  x7:0x00000033 PA:0x800089a6
       55865000	      5585	80003738	004106a3	sb	x4,13(x2)	  x2:0x800089b0  x4:0x0000002a PA:0x800089bd
       55875000	      5586	8000373c	014b90b3	sll	x1,x23,x20	 x23:0x00000000 x20:0x80008caf  x1=0x00000000
       55885000	      5587	80003740	00514b03	lbu	x22,5(x2)	  x2:0x800089b0 x22=0x0000000d PA:0x800089b5
       55895000	      5588	80003744	00e445b3	xor	x11,x8,x14	  x8:0x00cfe560 x14:0x00000001 x11=0x00cfe561
       55905000	      5589	80003748	4173d0b3	sra	x1,x7,x23	  x7:0x00000033 x23:0x00000000  x1=0x00000033
       55915000	      5590	8000374c	3a908a13	addi	x20,x1,937	  x1:0x00000033 x20=0x000003dc
       55925000	      5591	80003750	014c5193	srli	x3,x24,0x14	 x24:0x67f2b000  x3=0x0000067f
       55935000	      5592	80003754	d0ed5797	auipc	x15,0xd0ed5	 x15=0x50ed8750
       55945000	      5593	80003758	9fc17513	andi	x10,x2,-1540	  x2:0x800089b0 x10=0x800089b0
       55955000	      5594	8000375c	00a14483	lbu	x9,10(x2)	  x2:0x800089b0  x9=0x000000e0 PA:0x800089ba
       55965000	      5595	80003760	40e6df13	srai	x30,x13,0xe	 x13:0x00003efe x30=0x00000000
       55975000	      5596	80003764	ff215a83	lhu	x21,-14(x2)	  x2:0x800089b0 x21=0x00008000 PA:0x800089a2
       55985000	      5597	80003768	01b75593	srli	x11,x14,0x1b	 x14:0x00000001 x11=0x00000000
       55995000	      5598	8000376c	b272a293	slti	x5,x5,-1241	  x5:0x00000001  x5=0x00000000
       56005000	      5599	80003770	ff310da3	sb	x19,-5(x2)	  x2:0x800089b0 x19:0x0000004b PA:0x800089ab
       56015000	      5600	80003774	01ca3c33	sltu	x24,x20,x28	 x20:0x000003dc x28:0x80009ec8 x24=0x00000001
       56025000	      5601	80003778	ffb10ba3	sb	x27,-9(x2)	  x2:0x800089b0 x27:0x8021b3c0 PA:0x800089a7
       56035000	      5602	8000377c	ff615503	lhu	x10,-10(x2)	  x2:0x800089b0 x10=0x0000c033 PA:0x800089a6
       56045000	      5603	80003780	ff110583	lb	x11,-15(x2)	  x2:0x800089b0 x11=0xffffff9e PA:0x800089a1
       56055000	      5604	80003784	00e15c03	lhu	x24,14(x2)	  x2:0x800089b0 x24=0x0000119d PA:0x800089be
       56065000	      5605	80003788	004249b3	xor	x19,x4,x4	  x4:0x0000002a  x4:0x0000002a x19=0x00000000
       56075000	      5606	8000378c	00fb2ab3	slt	x21,x22,x15	 x22:0x0000000d x15:0x50ed8750 x21=0x00000001
       56085000	      5607	80003790	00332f33	slt	x30,x6,x3	  x6:0x00002000  x3:0x0000067f x30=0x00000000
       56095000	      5608	80003794	ffc12823	sw	x28,-16(x2)	  x2:0x800089b0 x28:0x80009ec8 PA:0x800089a0
       56105000	      5609	80003798	01411423	sh	x20,8(x2)	  x2:0x800089b0 x20:0x000003dc PA:0x800089b8
       56115000	      5610	8000379c	fff10f03	lb	x30,-1(x2)	  x2:0x800089b0 x30=0x00000013 PA:0x800089af
       56125000	      5611	800037a0	41070333	sub	x6,x14,x16	 x14:0x00000001 x16:0x80009fc4  x6=0x7fff603d
       56135000	      5612	800037a4	01aaec33	or	x24,x21,x26	 x21:0x00000001 x26:0x80000000 x24=0x80000001
       56145000	      5613	800037a8	00b14083	lbu	x1,11(x2)	  x2:0x800089b0  x1=0x00000064 PA:0x800089bb
       56155000	      5614	800037ac	00005297	auipc	x5,0x5	  x5=0x800087a8
       56165000	      5615	800037b0	ecb28293	addi	x5,x5,-309	  x5:0x800087a8  x5=0x80008673
       56175000	      5616	800037b4	00a28d83	lb	x27,10(x5)	  x5:0x80008673 x27=0x00000045 PA:0x8000867d
       56185000	      5617	800037b8	fe82cc83	lbu	x25,-24(x5)	  x5:0x80008673 x25=0x000000f7 PA:0x8000865b
       56195000	      5618	800037bc	00d1f233	and	x4,x3,x13	  x3:0x0000067f x13:0x00003efe  x4=0x0000067e
       56205000	      5619	800037c0	dfdb0493	addi	x9,x22,-515	 x22:0x0000000d  x9=0xfffffe0a
       56215000	      5620	800037c4	ffc28123	sb	x28,-30(x5)	  x5:0x80008673 x28:0x80009ec8 PA:0x80008655
       56225000	      5621	800037c8	004df033	and	x0,x27,x4	 x27:0x00000045  x4:0x0000067e
       56235000	      5622	800037cc	ffb2d483	lhu	x9,-5(x5)	  x5:0x80008673  x9=0x0000055d PA:0x8000866e
       56245000	      5623	800037d0	03e2cc83	lbu	x25,62(x5)	  x5:0x80008673 x25=0x00000098 PA:0x800086b1
       56255000	      5624	800037d4	01cb3133	sltu	x2,x22,x28	 x22:0x0000000d x28:0x80009ec8  x2=0x00000001
       56265000	      5625	800037d8	ffa28c03	lb	x24,-6(x5)	  x5:0x80008673 x24=0x00000041 PA:0x8000866d
       56275000	      5626	00000000	00000013	addi	x0,x0,0	  x0:0x00000000
       56285000	      5627	800037dc	fd828f83	lb	x31,-40(x5)	  x5:0x80008673 x31=0x00000000 PA:0x8000864b
       56295000	      5628	800037e0	fd32db03	lhu	x22,-45(x5)	  x5:0x80008673 x22=0x0000687b PA:0x80008646
       56305000	      5629	800037e4	00428623	sb	x4,12(x5)	  x5:0x80008673  x4:0x0000067e PA:0x8000867f
       56315000	      5630	800037e8	02428d83	lb	x27,36(x5)	  x5:0x80008673 x27=0x00000000 PA:0x80008697
       56325000	      5631	800037ec	af343a13	sltiu	x20,x8,-1293	  x8:0x00cfe560 x20=0x00000001
       56335000	      5632	800037f0	013668b3	or	x17,x12,x19	 x12:0x00000001 x19:0x00000000 x17=0x00000001
       56345000	      5633	800037f4	fe7283a3	sb	x7,-25(x5)	  x5:0x80008673  x7:0x00000033 PA:0x8000865a
       56355000	      5634	800037f8	fc62a4a3	sw	x6,-55(x5)	  x5:0x80008673  x6:0x7fff603d PA:0x8000863c
       56365000	      5635	800037fc	ffd2aaa3	sw	x29,-11(x5)	  x5:0x80008673 x29:0x7d14a668 PA:0x80008668
       56375000	      5636	80003800	fe328b23	sb	x3,-10(x5)	  x5:0x80008673  x3:0x0000067f PA:0x80008669
       56385000	      5637	80003804	fff29b83	lh	x23,-1(x5)	  x5:0x80008673 x23=0x00003ae4 PA:0x80008672
       56395000	      5638	80003808	40cd5c93	srai	x25,x26,0xc	 x26:0x80000000 x25=0xfff80000
       56405000	      5639	8000380c	a3550737	lui	x14,0xa3550	 x14=0xa3550000
       56415000	      5640	80003810	01b28d83	lb	x27,27(x5)	  x5:0x80008673 x27=0xffffffee PA:0x8000868e
       56425000	      5641	80003814	01e7eeb3	or	x29,x15,x30	 x15:0x50ed8750 x30:0x00000013 x29=0x50ed8753
       56435000	      5642	80003818	fd128b83	lb	x23,-47(x5)	  x5:0x80008673 x23=0x00000021 PA:0x80008644
       56445000	      5643	8000381c	9df29117	auipc	x2,0x9df29	  x2=0x1df2c818
       56455000	      5644	80003820	4ece0393	addi	x7,x28,1260	 x28:0x80009ec8  x7=0x8000a3b4
       56465000	      5645	80003824	03228223	sb	x18,36(x5)	  x5:0x80008673 x18:0x00000000 PA:0x80008697
       56475000	      5646	80003828	02129fa3	sh	x1,63(x5)	  x5:0x80008673  x1:0x00000064 PA:0x800086b2
       56485000	      5647	8000382c	0181d213	srli	x4,x3,0x18	  x3:0x0000067f  x4=0x00000000
       56495000	      5648	80003830	fcf2c703	lbu	x14,-49(x5)	  x5:0x80008673 x14=0x00000000 PA:0x80008642
       56505000	      5649	80003834	fc4297a3	sh	x4,-49(x5)	  x5:0x80008673  x4:0x00000000 PA:0x80008642
       56515000	      5650	80003838	fd228c23	sb	x18,-40(x5)	  x5:0x80008673 x18:0x00000000 PA:0x8000864b
       56525000	      5651	8000383c	000973b3	and	x7,x18,x0	 x18:0x00000000  x0:0x00000000  x7=0x00000000
       56535000	      5652	80003840	feb28f23	sb	x11,-2(x5)	  x5:0x80008673 x11:0xffffff9e PA:0x80008671
       56545000	      5653	80003844	ffa28703	lb	x14,-6(x5)	  x5:0x80008673 x14=0x00000041 PA:0x8000866d
       56555000	      5654	80003848	007b1613	slli	x12,x22,0x7	 x22:0x0000687b x12=0x00343d80
       56565000	      5655	8000384c	ffd28b03	lb	x22,-3(x5)	  x5:0x80008673 x22=0x0000003a PA:0x80008670
       56575000	      5656	80003850	00005697	auipc	x13,0x5	 x13=0x8000884c
       56585000	      5657	80003854	90068693	addi	x13,x13,-1792	 x13:0x8000884c x13=0x8000814c
       56595000	      5658	80003858	00469903	lh	x18,4(x13)	 x13:0x8000814c x18=0x0000108c PA:0x80008150
       56605000	      5659	8000385c	3b6e7993	andi	x19,x28,950	 x28:0x80009ec8 x19=0x00000280
       56615000	      5660	80003860	0016c783	lbu	x15,1(x13)	 x13:0x8000814c x15=0x00000000 PA:0x8000814d
       56625000	      5661	80003864	3c040593	addi	x11,x8,960	  x8:0x00cfe560 x11=0x00cfe920
       56635000	      5662	80003868	00000013	addi	x0,x0,0	  x0:0x00000000
       56645000	      5663	8000386c	00a69323	sh	x10,6(x13)	 x13:0x8000814c x10:0x0000c033 PA:0x80008152
       56655000	      5664	80003870	d3e42f97	auipc	x31,0xd3e42	 x31=0x53e4586c
       56665000	      5665	80003874	ff968a83	lb	x21,-7(x13)	 x13:0x8000814c x21=0x0000004f PA:0x80008145
       56675000	      5666	80003878	62b23993	sltiu	x19,x4,1579	  x4:0x00000000 x19=0x00000001
       56685000	      5667	8000387c	00168583	lb	x11,1(x13)	 x13:0x8000814c x11=0x00000000 PA:0x8000814d
       56695000	      5668	80003880	00a68b03	lb	x22,10(x13)	 x13:0x8000814c x22=0x0000005f PA:0x80008156
       56705000	      5669	80003884	75dc6993	ori	x19,x24,1885	 x24:0x00000041 x19=0x0000075d
       56715000	      5670	80003888	0106ce83	lbu	x29,16(x13)	 x13:0x8000814c x29=0x000000d7 PA:0x8000815c
       56725000	      5671	8000388c	01068f03	lb	x30,16(x13)	 x13:0x8000814c x30=0xffffffd7 PA:0x8000815c
       56735000	      5672	80003890	fe968aa3	sb	x9,-11(x13)	 x13:0x8000814c  x9:0x0000055d PA:0x80008141
       56745000	      5673	80003894	ffb6c183	lbu	x3,-5(x13)	 x13:0x8000814c  x3=0x0000008e PA:0x80008147
       56755000	      5674	80003898	410c5fb3	sra	x31,x24,x16	 x24:0x00000041 x16:0x80009fc4 x31=0x00000004
       56765000	      5675	8000389c	0056c703	lbu	x14,5(x13)	 x13:0x8000814c x14=0x00000010 PA:0x80008151
       56775000	      5676	800038a0	012ec5b3	xor	x11,x29,x18	 x29:0x000000d7 x18:0x0000108c x11=0x0000105b
       56785000	      5677	800038a4	e345af13	slti	x30,x11,-460	 x11:0x0000105b x30=0x00000000
       56795000	      5678	800038a8	88178993	addi	x19,x15,-1919	 x15:0x00000000 x19=0xfffff881
       56805000	      5679	800038ac	ff768603	lb	x12,-9(x13)	 x13:0x8000814c x12=0x00000011 PA:0x80008143
       56815000	      5680	800038b0	01937bb3	and	x23,x6,x25	  x6:0x7fff603d x25:0xfff80000 x23=0x7ff80000
       56825000	      5681	800038b4	0026c403	lbu	x8,2(x13)	 x13:0x8000814c  x8=0x00000000 PA:0x8000814e
       56835000	      5682	00000000	00000013	addi	x0,x0,0	  x0:0x00000000
       56845000	      5683	800038b8	9f741b97	auipc	x23,0x9f741	 x23=0x1f7448b4
       56855000	      5684	800038bc	ff06c103	lbu	x2,-16(x13)	 x13:0x8000814c  x2=0x00000043 PA:0x8000813c
       56865000	      5685	800038c0	00005117	auipc	x2,0x5	  x2=0x800088bc
       56875000	      5686	800038c4	cae10113	addi	x2,x2,-850	  x2:0x800088bc  x2=0x8000856a
       56885000	      5687	800038c8	009986b3	add	x13,x19,x9	 x19:0xfffff881  x9:0x0000055d x13=0xfffffdde
       56895000	      5688	800038cc	01c11523	sh	x28,10(x2)	  x2:0x8000856a x28:0x80009ec8 PA:0x80008574
       56905000	      5689	800038d0	00814283	lbu	x5,8(x2)	  x2:0x8000856a  x5=0x00000093 PA:0x80008572
       56915000	      5690	800038d4	644de493	ori	x9,x27,1604	 x27:0xffffffee  x9=0xffffffee
       56925000	      5691	800038d8	40485c93	srai	x25,x16,0x4	 x16:0x80009fc4 x25=0xf80009fc
       56935000	      5692	800038dc	fd714203	lbu	x4,-41(x2)	  x2:0x8000856a  x4=0x00000000 PA:0x80008541
       56945000	      5693	800038e0	00075a33	srl	x20,x14,x0	 x14:0x00000010  x0:0x00000000 x20=0x00000010
       56955000	      5694	800038e4	01cbe8b3	or	x17,x23,x28	 x23:0x1f7448b4 x28:0x80009ec8 x17=0x9f74defc
       56965000	      5695	800038e8	fc710503	lb	x10,-57(x2)	  x2:0x8000856a x10=0xffffffe6 PA:0x80008531
       56975000	      5696	800038ec	fc810523	sb	x8,-54(x2)	  x2:0x8000856a  x8:0x00000000 PA:0x80008534
       56985000	      5697	800038f0	ff212b03	lw	x22,-14(x2)	  x2:0x8000856a x22=0x962d4a81 PA:0x8000855c
       56995000	      5698	800038f4	fe410a83	lb	x21,-28(x2)	  x2:0x8000856a x21=0xffffff80 PA:0x8000854e
       57005000	      5699	800038f8	009d8cb3	add	x25,x27,x9	 x27:0xffffffee  x9:0xffffffee x25=0xffffffdc
       57015000	      5700	800038fc	fd612b83	lw	x23,-42(x2)	  x2:0x8000856a x23=0xd16a0031 PA:0x80008540
       57025000	      5701	80003900	4150d193	srai	x3,x1,0x15	  x1:0x00000064  x3=0x00000000
       57035000	      5702	80003904	01a17033	and	x0,x2,x26	  x2:0x8000856a x26:0x80000000
       57045000	      5703	80003908	67e5c013	xori	x0,x11,1662	 x11:0x0000105b
       57055000	      5704	8000390c	03714203	lbu	x4,55(x2)	  x2:0x8000856a  x4=0x000000ff PA:0x800085a1
       57065000	      5705	80003910	007de1b3	or	x3,x27,x7	 x27:0xffffffee  x7:0x00000000  x3=0xffffffee
       57075000	      5706	80003914	fd410003	lb	x0,-44(x2)	  x2:0x8000856a PA:0x8000853e
       57085000	      5707	80003918	ff014503	lbu	x10,-16(x2)	  x2:0x8000856a x10=0x0000002f PA:0x8000855a
       57095000	      5708	8000391c	ff3104a3	sb	x19,-23(x2)	  x2:0x8000856a x19:0xfffff881 PA:0x80008553
       57105000	      5709	80003920	00000013	addi	x0,x0,0	  x0:0x00000000
       57115000	      5710	80003924	03c15883	lhu	x17,60(x2)	  x2:0x8000856a x17=0x00008965 PA:0x800085a6
       57125000	      5711	80003928	fc615203	lhu	x4,-58(x2)	  x2:0x8000856a  x4=0x0000e6c1 PA:0x80008530
       57135000	      5712	8000392c	4194d0b3	sra	x1,x9,x25	  x9:0xffffffee x25:0xffffffdc  x1=0xffffffff
       57145000	      5713	80003930	fe210603	lb	x12,-30(x2)	  x2:0x8000856a x12=0xffffffa8 PA:0x8000854c
       57155000	      5714	80003934	ff211503	lh	x10,-14(x2)	  x2:0x8000856a x10=0x00004a81 PA:0x8000855c
       57165000	      5715	00000000	00000013	addi	x0,x0,0	  x0:0x00000000
       57175000	      5716	80003938	fca11123	sh	x10,-62(x2)	  x2:0x8000856a x10:0x00004a81 PA:0x8000852c
       57185000	      5717	8000393c	00510083	lb	x1,5(x2)	  x2:0x8000856a  x1=0x00000005 PA:0x8000856f
       57195000	      5718	00000000	00000013	addi	x0,x0,0	  x0:0x00000000
       57205000	      5719	80003940	a21feb13	ori	x22,x31,-1503	 x31:0x00000004 x22=0xfffffa25
       57215000	      5720	80003944	02910303	lb	x6,41(x2)	  x2:0x8000856a  x6=0xffffffd2 PA:0x80008593
       57225000	      5721	80003948	00714303	lbu	x6,7(x2)	  x2:0x8000856a  x6=0x0000000f PA:0x80008571
       57235000	      5722	8000394c	fdf10a03	lb	x20,-33(x2)	  x2:0x8000856a x20=0xffffffa7 PA:0x80008549
       57245000	      5723	80003950	01b23733	sltu	x14,x4,x27	  x4:0x0000e6c1 x27:0xffffffee x14=0x00000001
       57255000	      5724	80003954	0c21b9b7	lui	x19,0xc21b	 x19=0x0c21b000
       57265000	      5725	80003958	fd514503	lbu	x10,-43(x2)	  x2:0x8000856a x10=0x00000006 PA:0x8000853f
       57275000	      5726	8000395c	fc612083	lw	x1,-58(x2)	  x2:0x8000856a  x1=0x0610e6c1 PA:0x80008530
       57285000	      5727	80003960	017710b3	sll	x1,x14,x23	 x14:0x00000001 x23:0xd16a0031  x1=0x00020000
       57295000	      5728	80003964	fe011c03	lh	x24,-32(x2)	  x2:0x8000856a x24=0x00000001 PA:0x8000854a
       57305000	      5729	80003968	01210a23	sb	x18,20(x2)	  x2:0x8000856a x18:0x0000108c PA:0x8000857e
       57315000	      5730	8000396c	3d8ff593	andi	x11,x31,984	 x31:0x00000004 x11=0x00000000
       57325000	      5731	80003970	fd210923	sb	x18,-46(x2)	  x2:0x8000856a x18:0x0000108c PA:0x8000853c
       57335000	      5732	80003974	00056033	or	x0,x10,x0	 x10:0x00000006  x0:0x00000000
       57345000	      5733	80003978	00c61233	sll	x4,x12,x12	 x12:0xffffffa8 x12:0xffffffa8  x4=0xffffa800
       57355000	      5734	8000397c	009fba33	sltu	x20,x31,x9	 x31:0x00000004  x9:0xffffffee x20=0x00000001
       57365000	      5735	80003980	8c16cb13	xori	x22,x13,-1855	 x13:0xfffffdde x22=0x0000051f
       57375000	      5736	80003984	fca104a3	sb	x10,-55(x2)	  x2:0x8000856a x10:0x00000006 PA:0x80008533
       57385000	      5737	80003988	ff215883	lhu	x17,-14(x2)	  x2:0x8000856a x17=0x00004a81 PA:0x8000855c
       57395000	      5738	8000398c	03512b23	sw	x21,54(x2)	  x2:0x8000856a x21:0xffffff80 PA:0x800085a0
       57405000	      5739	80003990	00005917	auipc	x18,0x5	 x18=0x8000898c
       57415000	      5740	80003994	3f490913	addi	x18,x18,1012	 x18:0x8000898c x18=0x80008d80
       57425000	      5741	80003998	010547b3	xor	x15,x10,x16	 x10:0x00000006 x16:0x80009fc4 x15=0x80009fc2
       57435000	      5742	8000399c	00294083	lbu	x1,2(x18)	 x18:0x80008d80  x1=0x00000000 PA:0x80008d82
       57445000	      5743	800039a0	00790603	lb	x12,7(x18)	 x18:0x80008d80 x12=0x00000014 PA:0x80008d87
       57455000	      5744	800039a4	ffc91e83	lh	x29,-4(x18)	 x18:0x80008d80 x29=0xffffd8d8 PA:0x80008d7c
       57465000	      5745	800039a8	00f90d83	lb	x27,15(x18)	 x18:0x80008d80 x27=0xffffffc3 PA:0x80008d8f
       57475000	      5746	800039ac	ff794003	lbu	x0,-9(x18)	 x18:0x80008d80 PA:0x80008d77
       57485000	      5747	800039b0	00000013	addi	x0,x0,0	  x0:0x00000000
       57495000	      5748	800039b4	00a95e83	lhu	x29,10(x18)	 x18:0x80008d80 x29=0x0000dc96 PA:0x80008d8a
       57505000	      5749	800039b8	00694883	lbu	x17,6(x18)	 x18:0x80008d80 x17=0x00000023 PA:0x80008d86
       57515000	      5750	800039bc	fe1909a3	sb	x1,-13(x18)	 x18:0x80008d80  x1:0x00000000 PA:0x80008d73
       57525000	      5751	800039c0	790cc2b7	lui	x5,0x790cc	  x5=0x790cc000
       57535000	      5752	800039c4	ffd94603	lbu	x12,-3(x18)	 x18:0x80008d80 x12=0x000000d8 PA:0x80008d7d
       57545000	      5753	800039c8	00000013	addi	x0,x0,0	  x0:0x00000000
       57555000	      5754	800039cc	ff690a83	lb	x21,-10(x18)	 x18:0x80008d80 x21=0x00000066 PA:0x80008d76
       57565000	      5755	800039d0	7a3ee297	auipc	x5,0x7a3ee	  x5=0xfa3f19cc
       57575000	      5756	800039d4	00000013	addi	x0,x0,0	  x0:0x00000000
       57585000	      5757	800039d8	00290103	lb	x2,2(x18)	 x18:0x80008d80  x2=0x00000000 PA:0x80008d82
       57595000	      5758	800039dc	ff190b03	lb	x22,-15(x18)	 x18:0x80008d80 x22=0xffffffff PA:0x80008d71
       57605000	      5759	800039e0	ff790b83	lb	x23,-9(x18)	 x18:0x80008d80 x23=0x00000024 PA:0x80008d77
       57615000	      5760	800039e4	ffc90b83	lb	x23,-4(x18)	 x18:0x80008d80 x23=0xffffffd8 PA:0x80008d7c
       57625000	      5761	800039e8	fe891823	sh	x8,-16(x18)	 x18:0x80008d80  x8:0x00000000 PA:0x80008d70
       57635000	      5762	800039ec	00590983	lb	x19,5(x18)	 x18:0x80008d80 x19=0xffffff93 PA:0x80008d85
       57645000	      5763	800039f0	019905a3	sb	x25,11(x18)	 x18:0x80008d80 x25:0xffffffdc PA:0x80008d8b
       57655000	      5764	800039f4	01aa94b3	sll	x9,x21,x26	 x21:0x00000066 x26:0x80000000  x9=0x00000066
       57665000	      5765	800039f8	00692023	sw	x6,0(x18)	 x18:0x80008d80  x6:0x0000000f PA:0x80008d80
       57675000	      5766	800039fc	ffa90583	lb	x11,-6(x18)	 x18:0x80008d80 x11=0xffffffc4 PA:0x80008d7a
       57685000	      5767	00000000	00000013	addi	x0,x0,0	  x0:0x00000000
       57695000	      5768	80003a00	feb92823	sw	x11,-16(x18)	 x18:0x80008d80 x11:0xffffffc4 PA:0x80008d70
       57705000	      5769	80003a04	19530093	addi	x1,x6,405	  x6:0x0000000f  x1=0x000001a4
       57715000	      5770	80003a08	00229f93	slli	x31,x5,0x2	  x5:0xfa3f19cc x31=0xe8fc6730
       57725000	      5771	80003a0c	00000013	addi	x0,x0,0	  x0:0x00000000
       57735000	      5772	80003a10	ed91e093	ori	x1,x3,-295	  x3:0xffffffee  x1=0xffffffff
       57745000	      5773	80003a14	01c90823	sb	x28,16(x18)	 x18:0x80008d80 x28:0x80009ec8 PA:0x80008d90
       57755000	      5774	80003a18	ff091d23	sh	x16,-6(x18)	 x18:0x80008d80 x16:0x80009fc4 PA:0x80008d7a
       57765000	      5775	80003a1c	ff194b03	lbu	x22,-15(x18)	 x18:0x80008d80 x22=0x000000ff PA:0x80008d71
       57775000	      5776	80003a20	06d33c93	sltiu	x25,x6,109	  x6:0x0000000f x25=0x00000001
       57785000	      5777	80003a24	e97e4513	xori	x10,x28,-361	 x28:0x80009ec8 x10=0x7fff605f
       57795000	      5778	80003a28	017dc263	blt	x27,x23,80003a2c	 x27:0xffffffc3 x23:0xffffffd8
       57805000	      5779	00000000	00000013	addi	x0,x0,0	  x0:0x00000000
       57815000	      5780	80003a28	00000013	addi	x0,x0,0	  x0:0x00000000
       57825000	      5781	80003a2c	02806463	bltu	x0,x8,80003a54	  x0:0x00000000  x8:0x00000000
       57835000	      5782	80003a30	400601b3	sub	x3,x12,x0	 x12:0x000000d8  x0:0x00000000  x3=0x000000d8
       57845000	      5783	80003a34	01658863	beq	x11,x22,80003a44	 x11:0xffffffc4 x22:0x000000ff
       57855000	      5784	80003a38	00ad36b3	sltu	x13,x26,x10	 x26:0x80000000 x10:0x7fff605f x13=0x00000000
       57865000	      5785	80003a3c	00afd193	srli	x3,x31,0xa	 x31:0xe8fc6730  x3=0x003a3f19
       57875000	      5786	80003a40	0508e663	bltu	x17,x16,80003a8c	 x17:0x00000023 x16:0x80009fc4
       57885000	      5787	00000000	00000013	addi	x0,x0,0	  x0:0x00000000
       57895000	      5788	80003a88	00000013	addi	x0,x0,0	  x0:0x00000000
       57905000	      5789	80003a8c	018780b3	add	x1,x15,x24	 x15:0x80009fc2 x24:0x00000001  x1=0x80009fc3
       57915000	      5790	80003a90	01585c93	srli	x25,x16,0x15	 x16:0x80009fc4 x25=0x00000400
       57925000	      5791	80003a94	008ea5b3	slt	x11,x29,x8	 x29:0x0000dc96  x8:0x00000000 x11=0x00000000
       57935000	      5792	80003a98	01c0dcb3	srl	x25,x1,x28	  x1:0x80009fc3 x28:0x80009ec8 x25=0x0080009f
       57945000	      5793	80003a9c	000613b3	sll	x7,x12,x0	 x12:0x000000d8  x0:0x00000000  x7=0x000000d8
       57955000	      5794	80003aa0	b91dbc13	sltiu	x24,x27,-1135	 x27:0xffffffc3 x24=0x00000000
       57965000	      5795	80003aa4	41fc5db3	sra	x27,x24,x31	 x24:0x00000000 x31:0xe8fc6730 x27=0x00000000
       57975000	      5796	80003aa8	01213933	sltu	x18,x2,x18	  x2:0x00000000 x18:0x80008d80 x18=0x00000001
       57985000	      5797	80003aac	00000013	addi	x0,x0,0	  x0:0x00000000
       57995000	      5798	80003ab0	01f4aeb3	slt	x29,x9,x31	  x9:0x00000066 x31:0xe8fc6730 x29=0x00000000
       58005000	      5799	80003ab4	00d21133	sll	x2,x4,x13	  x4:0xffffa800 x13:0x00000000  x2=0xffffa800
       58015000	      5800	80003ab8	00505993	srli	x19,x0,0x5	  x0:0x00000000 x19=0x00000000
       58025000	      5801	80003abc	0114d863	bge	x9,x17,80003acc	  x9:0x00000066 x17:0x00000023
       58035000	      5802	00000000	00000013	addi	x0,x0,0	  x0:0x00000000
       58045000	      5803	80003ac8	00000013	addi	x0,x0,0	  x0:0x00000000
       58055000	      5804	80003acc	52b4a797	auipc	x15,0x52b4a	 x15=0xd2b4dac8
       58065000	      5805	80003ad0	0062ab33	slt	x22,x5,x6	  x5:0xfa3f19cc  x6:0x0000000f x22=0x00000001
       58075000	      5806	80003ad4	0162f133	and	x2,x5,x22	  x5:0xfa3f19cc x22:0x00000001  x2=0x00000000
       58085000	      5807	80003ad8	3a928b93	addi	x23,x5,937	  x5:0xfa3f19cc x23=0xfa3f1d75
       58095000	      5808	80003adc	0082e663	bltu	x5,x8,80003ae8	  x5:0xfa3f19cc  x8:0x00000000
       58105000	      5809	80003ae0	018afbb3	and	x23,x21,x24	 x21:0x00000066 x24:0x00000000 x23=0x00000000
       58115000	      5810	80003ae4	0cf632b7	lui	x5,0xcf63	  x5=0x0cf63000
       58125000	      5811	80003ae8	413fd933	sra	x18,x31,x19	 x31:0xe8fc6730 x19:0x00000000 x18=0xe8fc6730
       58135000	      5812	80003aec	a3fb3593	sltiu	x11,x22,-1473	 x22:0x00000001 x11=0x00000001
       58145000	      5813	80003af0	71abff13	andi	x30,x23,1818	 x23:0x00000000 x30=0x00000000
       58155000	      5814	80003af4	024dee63	bltu	x27,x4,80003b30	 x27:0x00000000  x4:0xffffa800
       58165000	      5815	00000000	00000013	addi	x0,x0,0	  x0:0x00000000
       58175000	      5816	80003b2c	00000013	addi	x0,x0,0	  x0:0x00000000
       58185000	      5817	80003b30	7b82d097	auipc	x1,0x7b82d	  x1=0xfb830b2c
       58195000	      5818	80003b34	02581e63	bne	x16,x5,80003b70	 x16:0x80009fc4  x5:0x0cf63000
       58205000	      5819	00000000	00000013	addi	x0,x0,0	  x0:0x00000000
       58215000	      5820	80003b6c	00000013	addi	x0,x0,0	  x0:0x00000000
       58225000	      5821	80003b70	011520b3	slt	x1,x10,x17	 x10:0x7fff605f x17:0x00000023  x1=0x00000000
       58235000	      5822	80003b74	01e270b3	and	x1,x4,x30	  x4:0xffffa800 x30:0x00000000  x1=0x00000000
       58245000	      5823	80003b78	04ec4663	blt	x24,x14,80003bc4	 x24:0x00000000 x14:0x00000001
       58255000	      5824	00000000	00000013	addi	x0,x0,0	  x0:0x00000000
       58265000	      5825	80003bc0	00000013	addi	x0,x0,0	  x0:0x00000000
       58275000	      5826	80003bc4	406c51b3	sra	x3,x24,x6	 x24:0x00000000  x6:0x0000000f  x3=0x00000000
       58285000	      5827	80003bc8	00bfa933	slt	x18,x31,x11	 x31:0xe8fc6730 x11:0x00000001 x18=0x00000001
       58295000	      5828	80003bcc	41495c33	sra	x24,x18,x20	 x18:0x00000001 x20:0x00000001 x24=0x00000000
       58305000	      5829	80003bd0	0194cab3	xor	x21,x9,x25	  x9:0x00000066 x25:0x0080009f x21=0x008000f9
       58315000	      5830	80003bd4	dcef0b93	addi	x23,x30,-562	 x30:0x00000000 x23=0xfffffdce
       58325000	      5831	80003bd8	414bd933	sra	x18,x23,x20	 x23:0xfffffdce x20:0x00000001 x18=0xfffffee7
       58335000	      5832	80003bdc	3f682593	slti	x11,x16,1014	 x16:0x80009fc4 x11=0x00000001
       58345000	      5833	80003be0	0118f933	and	x18,x17,x17	 x17:0x00000023 x17:0x00000023 x18=0x00000023
       58355000	      5834	80003be4	01985493	srli	x9,x16,0x19	 x16:0x80009fc4  x9=0x00000040
       58365000	      5835	80003be8	41ffdc13	srai	x24,x31,0x1f	 x31:0xe8fc6730 x24=0xffffffff
       58375000	      5836	80003bec	00dc7f33	and	x30,x24,x13	 x24:0xffffffff x13:0x00000000 x30=0x00000000
       58385000	      5837	80003bf0	00a50a63	beq	x10,x10,80003c04	 x10:0x7fff605f x10:0x7fff605f
       58395000	      5838	00000000	00000013	addi	x0,x0,0	  x0:0x00000000
       58405000	      5839	80003c00	00000013	addi	x0,x0,0	  x0:0x00000000
       58415000	      5840	80003c04	01f97863	bgeu	x18,x31,80003c14	 x18:0x00000023 x31:0xe8fc6730
       58425000	      5841	80003c08	00d74233	xor	x4,x14,x13	 x14:0x00000001 x13:0x00000000  x4=0x00000001
       58435000	      5842	80003c0c	0299d063	bge	x19,x9,80003c2c	 x19:0x00000000  x9:0x00000040
       58445000	      5843	80003c10	03988863	beq	x17,x25,80003c40	 x17:0x00000023 x25:0x0080009f
       58455000	      5844	80003c14	00f34863	blt	x6,x15,80003c24	  x6:0x0000000f x15:0xd2b4dac8
       58465000	      5845	80003c18	dfda6b93	ori	x23,x20,-515	 x20:0x00000001 x23=0xfffffdfd
       58475000	      5846	80003c1c	adc03c93	sltiu	x25,x0,-1316	  x0:0x00000000 x25=0x00000001
       58485000	      5847	80003c20	01dc43b3	xor	x7,x24,x29	 x24:0xffffffff x29:0x00000000  x7=0xffffffff
       58495000	      5848	80003c24	01399033	sll	x0,x19,x19	 x19:0x00000000 x19:0x00000000
       58505000	      5849	80003c28	41a75613	srai	x12,x14,0x1a	 x14:0x00000001 x12=0x00000000
       58515000	      5850	80003c2c	40ccd2b3	sra	x5,x25,x12	 x25:0x00000001 x12:0x00000000  x5=0x00000001
       58525000	      5851	80003c30	01d646b3	xor	x13,x12,x29	 x12:0x00000000 x29:0x00000000 x13=0x00000000
       58535000	      5852	80003c34	60692e93	slti	x29,x18,1542	 x18:0x00000023 x29=0x00000001
       58545000	      5853	80003c38	40f85b13	srai	x22,x16,0xf	 x16:0x80009fc4 x22=0xffff0001
       58555000	      5854	80003c3c	bd1513b7	lui	x7,0xbd151	  x7=0xbd151000
       58565000	      5855	80003c40	04261663	bne	x12,x2,80003c8c	 x12:0x00000000  x2:0x00000000
       58575000	      5856	80003c44	000c7533	and	x10,x24,x0	 x24:0xffffffff  x0:0x00000000 x10=0x00000000
       58585000	      5857	80003c48	000e0e63	beq	x28,x0,80003c64	 x28:0x80009ec8  x0:0x00000000
       58595000	      5858	80003c4c	24d77917	auipc	x18,0x24d77	 x18=0xa4d7ac48
       58605000	      5859	80003c50	67964393	xori	x7,x12,1657	 x12:0x00000000  x7=0x00000679
       58615000	      5860	80003c54	983d8793	addi	x15,x27,-1661	 x27:0x00000000 x15=0xfffff983
       58625000	      5861	80003c58	98e1deb7	lui	x29,0x98e1d	 x29=0x98e1d000
       58635000	      5862	80003c5c	77933993	sltiu	x19,x6,1913	  x6:0x0000000f x19=0x00000001
       58645000	      5863	80003c60	0082f933	and	x18,x5,x8	  x5:0x00000001  x8:0x00000000 x18=0x00000000
       58655000	      5864	80003c64	0183f1b3	and	x3,x7,x24	  x7:0x00000679 x24:0xffffffff  x3=0x00000679
       58665000	      5865	80003c68	052d4063	blt	x26,x18,80003ca8	 x26:0x80000000 x18:0x00000000
       58675000	      5866	00000000	00000013	addi	x0,x0,0	  x0:0x00000000
       58685000	      5867	80003ca4	00000013	addi	x0,x0,0	  x0:0x00000000
       58695000	      5868	80003ca8	0168e733	or	x14,x17,x22	 x17:0x00000023 x22:0xffff0001 x14=0xffff0023
       58705000	      5869	80003cac	00509b13	slli	x22,x1,0x5	  x1:0x00000000 x22=0x00000000
       58715000	      5870	80003cb0	005352b3	srl	x5,x6,x5	  x6:0x0000000f  x5:0x00000001  x5=0x00000007
       58725000	      5871	80003cb4	016c1a33	sll	x20,x24,x22	 x24:0xffffffff x22:0x00000000 x20=0xffffffff
       58735000	      5872	80003cb8	000f16b3	sll	x13,x30,x0	 x30:0x00000000  x0:0x00000000 x13=0x00000000
       58745000	      5873	80003cbc	4153d713	srai	x14,x7,0x15	  x7:0x00000679 x14=0x00000000
       58755000	      5874	80003cc0	408b00b3	sub	x1,x22,x8	 x22:0x00000000  x8:0x00000000  x1=0x00000000
       58765000	      5875	80003cc4	000f7863	bgeu	x30,x0,80003cd4	 x30:0x00000000  x0:0x00000000
       58775000	      5876	00000000	00000013	addi	x0,x0,0	  x0:0x00000000
       58785000	      5877	80003cd0	00000013	addi	x0,x0,0	  x0:0x00000000
       58795000	      5878	80003cd4	02197863	bgeu	x18,x1,80003d04	 x18:0x00000000  x1:0x00000000
       58805000	      5879	00000000	00000013	addi	x0,x0,0	  x0:0x00000000
       58815000	      5880	80003d00	00000013	addi	x0,x0,0	  x0:0x00000000
       58825000	      5881	80003d04	00aef263	bgeu	x29,x10,80003d08	 x29:0x98e1d000 x10:0x00000000
       58835000	      5882	00000000	00000013	addi	x0,x0,0	  x0:0x00000000
       58845000	      5883	80003d04	00000013	addi	x0,x0,0	  x0:0x00000000
       58855000	      5884	80003d08	027c8263	beq	x25,x7,80003d2c	 x25:0x00000001  x7:0x00000679
       58865000	      5885	80003d0c	41bed633	sra	x12,x29,x27	 x29:0x98e1d000 x27:0x00000000 x12=0x98e1d000
       58875000	      5886	80003d10	694f1297	auipc	x5,0x694f1	  x5=0xe94f4d0c
       58885000	      5887	80003d14	00e12933	slt	x18,x2,x14	  x2:0x00000000 x14:0x00000000 x18=0x00000000
       58895000	      5888	80003d18	d4e9f493	andi	x9,x19,-690	 x19:0x00000001  x9=0x00000000
       58905000	      5889	80003d1c	016487b3	add	x15,x9,x22	  x9:0x00000000 x22:0x00000000 x15=0x00000000
       58915000	      5890	80003d20	03c66a63	bltu	x12,x28,80003d54	 x12:0x98e1d000 x28:0x80009ec8
       58925000	      5891	80003d24	00000013	addi	x0,x0,0	  x0:0x00000000
       58935000	      5892	80003d28	00520533	add	x10,x4,x5	  x4:0x00000001  x5:0xe94f4d0c x10=0xe94f4d0d
       58945000	      5893	80003d2c	223c7d93	andi	x27,x24,547	 x24:0xffffffff x27=0x00000223
       58955000	      5894	80003d30	004ce8b3	or	x17,x25,x4	 x25:0x00000001  x4:0x00000001 x17=0x00000001
       58965000	      5895	80003d34	53813e93	sltiu	x29,x2,1336	  x2:0x00000000 x29=0x00000001
       58975000	      5896	80003d38	00000013	addi	x0,x0,0	  x0:0x00000000
       58985000	      5897	80003d3c	2c6ae013	ori	x0,x21,710	 x21:0x008000f9
       58995000	      5898	80003d40	01f892b3	sll	x5,x17,x31	 x17:0x00000001 x31:0xe8fc6730  x5=0x00010000
       59005000	      5899	80003d44	019f8a63	beq	x31,x25,80003d58	 x31:0xe8fc6730 x25:0x00000001
       59015000	      5900	80003d48	018ffa33	and	x20,x31,x24	 x31:0xe8fc6730 x24:0xffffffff x20=0xe8fc6730
       59025000	      5901	80003d4c	01948033	add	x0,x9,x25	  x9:0x00000000 x25:0x00000001
       59035000	      5902	80003d50	01291333	sll	x6,x18,x18	 x18:0x00000000 x18:0x00000000  x6=0x00000000
       59045000	      5903	80003d54	401601b3	sub	x3,x12,x1	 x12:0x98e1d000  x1:0x00000000  x3=0x98e1d000
       59055000	      5904	80003d58	77266513	ori	x10,x12,1906	 x12:0x98e1d000 x10=0x98e1d772
       59065000	      5905	80003d5c	0163eeb3	or	x29,x7,x22	  x7:0x00000679 x22:0x00000000 x29=0x00000679
       59075000	      5906	80003d60	016fefb3	or	x31,x31,x22	 x31:0xe8fc6730 x22:0x00000000 x31=0xe8fc6730
       59085000	      5907	80003d64	01342c33	slt	x24,x8,x19	  x8:0x00000000 x19:0x00000001 x24=0x00000001
       59095000	      5908	80003d68	005ae7b3	or	x15,x21,x5	 x21:0x008000f9  x5:0x00010000 x15=0x008100f9
       59105000	      5909	80003d6c	01fa9db3	sll	x27,x21,x31	 x21:0x008000f9 x31:0xe8fc6730 x27=0x00f90000
       59115000	      5910	80003d70	04a20063	beq	x4,x10,80003db0	  x4:0x00000001 x10:0x98e1d772
       59125000	      5911	80003d74	02128063	beq	x5,x1,80003d94	  x5:0x00010000  x1:0x00000000
       59135000	      5912	80003d78	012a18b3	sll	x17,x20,x18	 x20:0xe8fc6730 x18:0x00000000 x17=0xe8fc6730
       59145000	      5913	80003d7c	57b80693	addi	x13,x16,1403	 x16:0x80009fc4 x13=0x8000a53f
       59155000	      5914	80003d80	be7bcc13	xori	x24,x23,-1049	 x23:0xfffffdfd x24=0x0000061a
       59165000	      5915	80003d84	400a5b33	sra	x22,x20,x0	 x20:0xe8fc6730  x0:0x00000000 x22=0xe8fc6730
       59175000	      5916	80003d88	00000013	addi	x0,x0,0	  x0:0x00000000
       59185000	      5917	80003d8c	03da0e63	beq	x20,x29,80003dc8	 x20:0xe8fc6730 x29:0x00000679
       59195000	      5918	80003d90	fbaab513	sltiu	x10,x21,-70	 x21:0x008000f9 x10=0x00000001
       59205000	      5919	80003d94	4117d413	srai	x8,x15,0x11	 x15:0x008100f9  x8=0x00000040
       59215000	      5920	80003d98	f8f08f93	addi	x31,x1,-113	  x1:0x00000000 x31=0xffffff8f
       59225000	      5921	80003d9c	40bd0c33	sub	x24,x26,x11	 x26:0x80000000 x11:0x00000001 x24=0x7fffffff
       59235000	      5922	80003da0	010886b3	add	x13,x17,x16	 x17:0xe8fc6730 x16:0x80009fc4 x13=0x68fd06f4
       59245000	      5923	80003da4	04ca0063	beq	x20,x12,80003de4	 x20:0xe8fc6730 x12:0x98e1d000
       59255000	      5924	80003da8	bd1172b7	lui	x5,0xbd117	  x5=0xbd117000
       59265000	      5925	80003dac	0660ff93	andi	x31,x1,102	  x1:0x00000000 x31=0x00000000
       59275000	      5926	80003db0	aea7b413	sltiu	x8,x15,-1302	 x15:0x008100f9  x8=0x00000001
       59285000	      5927	80003db4	011291b3	sll	x3,x5,x17	  x5:0xbd117000 x17:0xe8fc6730  x3=0x70000000
       59295000	      5928	80003db8	03374e63	blt	x14,x19,80003df4	 x14:0x00000000 x19:0x00000001
       59305000	      5929	00000000	00000013	addi	x0,x0,0	  x0:0x00000000
       59315000	      5930	80003df0	00000013	addi	x0,x0,0	  x0:0x00000000
       59325000	      5931	80003df4	006a67b3	or	x15,x20,x6	 x20:0xe8fc6730  x6:0x00000000 x15=0xe8fc6730
       59335000	      5932	80003df8	78ceea13	ori	x20,x29,1932	 x29:0x00000679 x20=0x000007fd
       59345000	      5933	80003dfc	d5320c13	addi	x24,x4,-685	  x4:0x00000001 x24=0xfffffd54
       59355000	      5934	80003e00	e4eb0197	auipc	x3,0xe4eb0	  x3=0x64eb3dfc
       59365000	      5935	80003e04	057e9263	bne	x29,x23,80003e48	 x29:0x00000679 x23:0xfffffdfd
       59375000	      5936	00000000	00000013	addi	x0,x0,0	  x0:0x00000000
       59385000	      5937	80003e44	00000013	addi	x0,x0,0	  x0:0x00000000
       59395000	      5938	80003e48	0158d9b3	srl	x19,x17,x21	 x17:0xe8fc6730 x21:0x008000f9 x19=0x00000074
       59405000	      5939	80003e4c	001c2133	slt	x2,x24,x1	 x24:0xfffffd54  x1:0x00000000  x2=0x00000001
       59415000	      5940	80003e50	41600933	sub	x18,x0,x22	  x0:0x00000000 x22:0xe8fc6730 x18=0x170398d0
       59425000	      5941	80003e54	cc01c993	xori	x19,x3,-832	  x3:0x64eb3dfc x19=0x9b14c13c
       59435000	      5942	80003e58	00bd1e63	bne	x26,x11,80003e74	 x26:0x80000000 x11:0x00000001
       59445000	      5943	00000000	00000013	addi	x0,x0,0	  x0:0x00000000
       59455000	      5944	80003e70	00000013	addi	x0,x0,0	  x0:0x00000000
       59465000	      5945	80003e74	00a313b3	sll	x7,x6,x10	  x6:0x00000000 x10:0x00000001  x7=0x00000000
       59475000	      5946	80003e78	0141d113	srli	x2,x3,0x14	  x3:0x64eb3dfc  x2=0x0000064e
       59485000	      5947	80003e7c	01dbeb33	or	x22,x23,x29	 x23:0xfffffdfd x29:0x00000679 x22=0xfffffffd
       59495000	      5948	80003e80	00df94b3	sll	x9,x31,x13	 x31:0x00000000 x13:0x68fd06f4  x9=0x00000000
       59505000	      5949	80003e84	010674b3	and	x9,x12,x16	 x12:0x98e1d000 x16:0x80009fc4  x9=0x80009000
       59515000	      5950	80003e88	4d59fe93	andi	x29,x19,1237	 x19:0x9b14c13c x29=0x00000014
       59525000	      5951	80003e8c	2657e513	ori	x10,x15,613	 x15:0xe8fc6730 x10=0xe8fc6775
       59535000	      5952	80003e90	01f6e5b3	or	x11,x13,x31	 x13:0x68fd06f4 x31:0x00000000 x11=0x68fd06f4
       59545000	      5953	80003e94	bc278593	addi	x11,x15,-1086	 x15:0xe8fc6730 x11=0xe8fc62f2
       59555000	      5954	80003e98	02690e63	beq	x18,x6,80003ed4	 x18:0x170398d0  x6:0x00000000
       59565000	      5955	80003e9c	0488f063	bgeu	x17,x8,80003edc	 x17:0xe8fc6730  x8:0x00000001
       59575000	      5956	00000000	00000013	addi	x0,x0,0	  x0:0x00000000
       59585000	      5957	80003ed8	00000013	addi	x0,x0,0	  x0:0x00000000
       59595000	      5958	80003edc	01bed993	srli	x19,x29,0x1b	 x29:0x00000014 x19=0x00000000
       59605000	      5959	80003ee0	40d65793	srai	x15,x12,0xd	 x12:0x98e1d000 x15=0xfffcc70e
       59615000	      5960	80003ee4	042f7863	bgeu	x30,x2,80003f34	 x30:0x00000000  x2:0x0000064e
       59625000	      5961	80003ee8	ef9c8113	addi	x2,x25,-263	 x25:0x00000001  x2=0xfffffefa
       59635000	      5962	80003eec	0195e863	bltu	x11,x25,80003efc	 x11:0xe8fc62f2 x25:0x00000001
       59645000	      5963	80003ef0	c1ce3a93	sltiu	x21,x28,-996	 x28:0x80009ec8 x21=0x00000001
       59655000	      5964	80003ef4	01f84333	xor	x6,x16,x31	 x16:0x80009fc4 x31:0x00000000  x6=0x80009fc4
       59665000	      5965	80003ef8	0317ee63	bltu	x15,x17,80003f34	 x15:0xfffcc70e x17:0xe8fc6730
       59675000	      5966	80003efc	0145e863	bltu	x11,x20,80003f0c	 x11:0xe8fc62f2 x20:0x000007fd
       59685000	      5967	80003f00	00204fb3	xor	x31,x0,x2	  x0:0x00000000  x2:0xfffffefa x31=0xfffffefa
       59695000	      5968	80003f04	d0144493	xori	x9,x8,-767	  x8:0x00000001  x9=0xfffffd00
       59705000	      5969	80003f08	41dc88b3	sub	x17,x25,x29	 x25:0x00000001 x29:0x00000014 x17=0xffffffed
       59715000	      5970	80003f0c	40185713	srai	x14,x16,0x1	 x16:0x80009fc4 x14=0xc0004fe2
       59725000	      5971	80003f10	41e58a33	sub	x20,x11,x30	 x11:0xe8fc62f2 x30:0x00000000 x20=0xe8fc62f2
       59735000	      5972	80003f14	00201263	bne	x0,x2,80003f18	  x0:0x00000000  x2:0xfffffefa
       59745000	      5973	00000000	00000013	addi	x0,x0,0	  x0:0x00000000
       59755000	      5974	80003f14	00000013	addi	x0,x0,0	  x0:0x00000000
       59765000	      5975	80003f18	043b6263	bltu	x22,x3,80003f5c	 x22:0xfffffffd  x3:0x64eb3dfc
       59775000	      5976	80003f1c	6fbc8913	addi	x18,x25,1787	 x25:0x00000001 x18=0x000006fc
       59785000	      5977	80003f20	288cf413	andi	x8,x25,648	 x25:0x00000001  x8=0x00000000
       59795000	      5978	80003f24	006e8533	add	x10,x29,x6	 x29:0x00000014  x6:0x80009fc4 x10=0x80009fd8
       59805000	      5979	80003f28	00726db3	or	x27,x4,x7	  x4:0x00000001  x7:0x00000000 x27=0x00000001
       59815000	      5980	80003f2c	03f99463	bne	x19,x31,80003f54	 x19:0x00000000 x31:0xfffffefa
       59825000	      5981	00000000	00000013	addi	x0,x0,0	  x0:0x00000000
       59835000	      5982	80003f50	00000013	addi	x0,x0,0	  x0:0x00000000
       59845000	      5983	80003f54	005f5263	bge	x30,x5,80003f58	 x30:0x00000000  x5:0xbd117000
       59855000	      5984	00000000	00000013	addi	x0,x0,0	  x0:0x00000000
       59865000	      5985	80003f54	00000013	addi	x0,x0,0	  x0:0x00000000
       59875000	      5986	80003f58	01a93033	sltu	x0,x18,x26	 x18:0x000006fc x26:0x80000000
       59885000	      5987	80003f5c	d16f9297	auipc	x5,0xd16f9	  x5=0x516fcf58
       59895000	      5988	80003f60	00621893	slli	x17,x4,0x6	  x4:0x00000001 x17=0x00000040
       59905000	      5989	80003f64	e0f65cb7	lui	x25,0xe0f65	 x25=0xe0f65000
       59915000	      5990	80003f68	03648063	beq	x9,x22,80003f88	  x9:0xfffffd00 x22:0xfffffffd
       59925000	      5991	80003f6c	01804c63	blt	x0,x24,80003f84	  x0:0x00000000 x24:0xfffffd54
       59935000	      5992	80003f70	40010f33	sub	x30,x2,x0	  x2:0xfffffefa  x0:0x00000000 x30=0xfffffefa
       59945000	      5993	80003f74	01349e93	slli	x29,x9,0x13	  x9:0xfffffd00 x29=0xe8000000
       59955000	      5994	80003f78	403c3113	sltiu	x2,x24,1027	 x24:0xfffffd54  x2=0x00000000
       59965000	      5995	80003f7c	0032e0b3	or	x1,x5,x3	  x5:0x516fcf58  x3:0x64eb3dfc  x1=0x75effffc
       59975000	      5996	80003f80	00ada8b3	slt	x17,x27,x10	 x27:0x00000001 x10:0x80009fd8 x17=0x00000000
       59985000	      5997	80003f84	002d8f33	add	x30,x27,x2	 x27:0x00000001  x2:0x00000000 x30=0x00000001
       59995000	      5998	80003f88	00aea9b3	slt	x19,x29,x10	 x29:0xe8000000 x10:0x80009fd8 x19=0x00000000
       60005000	      5999	80003f8c	01676863	bltu	x14,x22,80003f9c	 x14:0xc0004fe2 x22:0xfffffffd
       60015000	      6000	00000000	00000013	addi	x0,x0,0	  x0:0x00000000
       60025000	      6001	80003f98	00000013	addi	x0,x0,0	  x0:0x00000000
       60035000	      6002	80003f9c	00000013	addi	x0,x0,0	  x0:0x00000000
       60045000	      6003	80003fa0	b643ef93	ori	x31,x7,-1180	  x7:0x00000000 x31=0xfffffb64
       60055000	      6004	80003fa4	04478663	beq	x15,x4,80003ff0	 x15:0xfffcc70e  x4:0x00000001
       60065000	      6005	80003fa8	fad3e593	ori	x11,x7,-83	  x7:0x00000000 x11=0xffffffad
       60075000	      6006	80003fac	efb14b13	xori	x22,x2,-261	  x2:0x00000000 x22=0xfffffefb
       60085000	      6007	80003fb0	4ba1c793	xori	x15,x3,1210	  x3:0x64eb3dfc x15=0x64eb3946
       60095000	      6008	80003fb4	0124f9b3	and	x19,x9,x18	  x9:0xfffffd00 x18:0x000006fc x19=0x00000400
       60105000	      6009	80003fb8	00000013	addi	x0,x0,0	  x0:0x00000000
       60115000	      6010	80003fbc	01a0fa33	and	x20,x1,x26	  x1:0x75effffc x26:0x80000000 x20=0x00000000
       60125000	      6011	80003fc0	d933a4b7	lui	x9,0xd933a	  x9=0xd933a000
       60135000	      6012	80003fc4	d45fff93	andi	x31,x31,-699	 x31:0xfffffb64 x31=0xfffff944
       60145000	      6013	80003fc8	0043dc13	srli	x24,x7,0x4	  x7:0x00000000 x24=0x00000000
       60155000	      6014	80003fcc	04c60063	beq	x12,x12,8000400c	 x12:0x98e1d000 x12:0x98e1d000
       60165000	      6015	00000000	00000013	addi	x0,x0,0	  x0:0x00000000
       60175000	      6016	80004008	00000013	addi	x0,x0,0	  x0:0x00000000
       60185000	      6017	8000400c	05407063	bgeu	x0,x20,8000404c	  x0:0x00000000 x20:0x00000000
       60195000	      6018	00000000	00000013	addi	x0,x0,0	  x0:0x00000000
       60205000	      6019	80004048	00000013	addi	x0,x0,0	  x0:0x00000000
       60215000	      6020	8000404c	01990e63	beq	x18,x25,80004068	 x18:0x000006fc x25:0xe0f65000
       60225000	      6021	80004050	01ece5b3	or	x11,x25,x30	 x25:0xe0f65000 x30:0x00000001 x11=0xe0f65001
       60235000	      6022	80004054	01e46ab3	or	x21,x8,x30	  x8:0x00000000 x30:0x00000001 x21=0x00000001
       60245000	      6023	80004058	3122c793	xori	x15,x5,786	  x5:0x516fcf58 x15=0x516fcc4a
       60255000	      6024	8000405c	01fd8fb3	add	x31,x27,x31	 x27:0x00000001 x31:0xfffff944 x31=0xfffff945
       60265000	      6025	80004060	2ba940b7	lui	x1,0x2ba94	  x1=0x2ba94000
       60275000	      6026	80004064	019cd663	bge	x25,x25,80004070	 x25:0xe0f65000 x25:0xe0f65000
       60285000	      6027	00000000	00000013	addi	x0,x0,0	  x0:0x00000000
       60295000	      6028	8000406c	00000013	addi	x0,x0,0	  x0:0x00000000
       60305000	      6029	80004070	41a57717	auipc	x14,0x41a57	 x14=0xc1a5b06c
       60315000	      6030	80004074	7044e093	ori	x1,x9,1796	  x9:0xd933a000  x1=0xd933a704
       60325000	      6031	80004078	0599c063	blt	x19,x25,800040b8	 x19:0x00000400 x25:0xe0f65000
       60335000	      6032	8000407c	1c8477b7	lui	x15,0x1c847	 x15=0x1c847000
       60345000	      6033	80004080	92ea3c93	sltiu	x25,x20,-1746	 x20:0x00000000 x25=0x00000001
       60355000	      6034	80004084	12700313	addi	x6,x0,295	  x0:0x00000000  x6=0x00000127
       60365000	      6035	80004088	513f6313	ori	x6,x30,1299	 x30:0x00000001  x6=0x00000513
       60375000	      6036	8000408c	00000013	addi	x0,x0,0	  x0:0x00000000
       60385000	      6037	80004090	03d09463	bne	x1,x29,800040b8	  x1:0xd933a704 x29:0xe8000000
       60395000	      6038	00000000	00000013	addi	x0,x0,0	  x0:0x00000000
       60405000	      6039	800040b4	00000013	addi	x0,x0,0	  x0:0x00000000
       60415000	      6040	800040b8	002e3933	sltu	x18,x28,x2	 x28:0x80009ec8  x2:0x00000000 x18=0x00000000
       60425000	      6041	800040bc	00fcc7b3	xor	x15,x25,x15	 x25:0x00000001 x15:0x1c847000 x15=0x1c847001
       60435000	      6042	800040c0	00fff863	bgeu	x31,x15,800040d0	 x31:0xfffff945 x15:0x1c847001
       60445000	      6043	00000000	00000013	addi	x0,x0,0	  x0:0x00000000
       60455000	      6044	800040cc	00000013	addi	x0,x0,0	  x0:0x00000000
       60465000	      6045	800040d0	00a842b3	xor	x5,x16,x10	 x16:0x80009fc4 x10:0x80009fd8  x5=0x0000001c
       60475000	      6046	800040d4	cc4e6fb7	lui	x31,0xcc4e6	 x31=0xcc4e6000
       60485000	      6047	800040d8	f423dc37	lui	x24,0xf423d	 x24=0xf423d000
       60495000	      6048	800040dc	00dad663	bge	x21,x13,800040e8	 x21:0x00000001 x13:0x68fd06f4
       60505000	      6049	800040e0	a13dfcb7	lui	x25,0xa13df	 x25=0xa13df000
       60515000	      6050	800040e4	00a2dc33	srl	x24,x5,x10	  x5:0x0000001c x10:0x80009fd8 x24=0x00000000
       60525000	      6051	800040e8	4020dfb3	sra	x31,x1,x2	  x1:0xd933a704  x2:0x00000000 x31=0xd933a704
       60535000	      6052	800040ec	011ddfb3	srl	x31,x27,x17	 x27:0x00000001 x17:0x00000000 x31=0x00000001
       60545000	      6053	800040f0	ccbb11b7	lui	x3,0xccbb1	  x3=0xccbb1000
       60555000	      6054	800040f4	00e64b33	xor	x22,x12,x14	 x12:0x98e1d000 x14:0xc1a5b06c x22=0x5944606c
       60565000	      6055	800040f8	1dccb913	sltiu	x18,x25,476	 x25:0xa13df000 x18=0x00000000
       60575000	      6056	800040fc	bc88f293	andi	x5,x17,-1080	 x17:0x00000000  x5=0x00000000
       60585000	      6057	80004100	00000013	addi	x0,x0,0	  x0:0x00000000
       60595000	      6058	80004104	f1d18917	auipc	x18,0xf1d18	 x18=0x71d1c100
       60605000	      6059	80004108	7de78513	addi	x10,x15,2014	 x15:0x1c847001 x10=0x1c8477df
       60615000	      6060	8000410c	0189d713	srli	x14,x19,0x18	 x19:0x00000400 x14=0x00000000
       60625000	      6061	80004110	021a4863	blt	x20,x1,80004140	 x20:0x00000000  x1:0xd933a704
       60635000	      6062	80004114	2b240e97	auipc	x29,0x2b240	 x29=0xab244110
       60645000	      6063	80004118	00000013	addi	x0,x0,0	  x0:0x00000000
       60655000	      6064	8000411c	5a842f93	slti	x31,x8,1448	  x8:0x00000000 x31=0x00000001
       60665000	      6065	80004120	4061d293	srai	x5,x3,0x6	  x3:0xccbb1000  x5=0xff32ec40
       60675000	      6066	80004124	00071cb3	sll	x25,x14,x0	 x14:0x00000000  x0:0x00000000 x25=0x00000000
       60685000	      6067	80004128	b0e57213	andi	x4,x10,-1266	 x10:0x1c8477df  x4=0x1c84730e
       60695000	      6068	8000412c	4c3671b7	lui	x3,0x4c367	  x3=0x4c367000
       60705000	      6069	80004130	69b74293	xori	x5,x14,1691	 x14:0x00000000  x5=0x0000069b
       60715000	      6070	80004134	40178233	sub	x4,x15,x1	 x15:0x1c847001  x1:0xd933a704  x4=0x4350c8fd
       60725000	      6071	80004138	01498263	beq	x19,x20,8000413c	 x19:0x00000400 x20:0x00000000
       60735000	      6072	8000413c	012d53b3	srl	x7,x26,x18	 x26:0x80000000 x18:0x71d1c100  x7=0x80000000
       60745000	      6073	80004140	41905f13	srai	x30,x0,0x19	  x0:0x00000000 x30=0x00000000
       60755000	      6074	80004144	418a5193	srai	x3,x20,0x18	 x20:0x00000000  x3=0x00000000
       60765000	      6075	80004148	03c96e63	bltu	x18,x28,80004184	 x18:0x71d1c100 x28:0x80009ec8
       60775000	      6076	00000000	00000013	addi	x0,x0,0	  x0:0x00000000
       60785000	      6077	80004180	00000013	addi	x0,x0,0	  x0:0x00000000
       60795000	      6078	80004184	05cf1263	bne	x30,x28,800041c8	 x30:0x00000000 x28:0x80009ec8
       60805000	      6079	00000000	00000013	addi	x0,x0,0	  x0:0x00000000
       60815000	      6080	800041c4	00000013	addi	x0,x0,0	  x0:0x00000000
       60825000	      6081	800041c8	1073d663	bge	x7,x7,800042d4	  x7:0x80000000  x7:0x80000000
       60835000	      6082	00000000	00000013	addi	x0,x0,0	  x0:0x00000000
       60845000	      6083	800042d0	00000013	addi	x0,x0,0	  x0:0x00000000
       60855000	      6084	800042d4	00e051b3	srl	x3,x0,x14	  x0:0x00000000 x14:0x00000000  x3=0x00000000
       60865000	      6085	800042d8	79fc6a97	auipc	x21,0x79fc6	 x21=0xf9fca2d4
       60875000	      6086	800042dc	05661063	bne	x12,x22,8000431c	 x12:0x98e1d000 x22:0x5944606c
       60885000	      6087	00000000	00000013	addi	x0,x0,0	  x0:0x00000000
       60895000	      6088	80004318	00000013	addi	x0,x0,0	  x0:0x00000000
       60905000	      6089	8000431c	db4da093	slti	x1,x27,-588	 x27:0x00000001  x1=0x00000000
       60915000	      6090	80004320	406453b3	sra	x7,x8,x6	  x8:0x00000000  x6:0x00000513  x7=0x00000000
       60925000	      6091	80004324	00f73033	sltu	x0,x14,x15	 x14:0x00000000 x15:0x1c847001
       60935000	      6092	80004328	005c85b3	add	x11,x25,x5	 x25:0x00000000  x5:0x0000069b x11=0x0000069b
       60945000	      6093	8000432c	41b30f33	sub	x30,x6,x27	  x6:0x00000513 x27:0x00000001 x30=0x00000512
       60955000	      6094	80004330	00bab0b3	sltu	x1,x21,x11	 x21:0xf9fca2d4 x11:0x0000069b  x1=0x00000000
       60965000	      6095	80004334	01ce2033	slt	x0,x28,x28	 x28:0x80009ec8 x28:0x80009ec8
       60975000	      6096	80004338	febe7713	andi	x14,x28,-21	 x28:0x80009ec8 x14=0x80009ec8
       60985000	      6097	8000433c	e4f5f993	andi	x19,x11,-433	 x11:0x0000069b x19=0x0000060b
       60995000	      6098	80004340	01a2ea33	or	x20,x5,x26	  x5:0x0000069b x26:0x80000000 x20=0x8000069b
       61005000	      6099	80004344	001bc6b3	xor	x13,x23,x1	 x23:0xfffffdfd  x1:0x00000000 x13=0xfffffdfd
       61015000	      6100	80004348	01ab69b3	or	x19,x22,x26	 x22:0x5944606c x26:0x80000000 x19=0xd944606c
       61025000	      6101	8000434c	75ad4e93	xori	x29,x26,1882	 x26:0x80000000 x29=0x8000075a
       61035000	      6102	80004350	a01854b7	lui	x9,0xa0185	  x9=0xa0185000
       61045000	      6103	80004354	03ae1463	bne	x28,x26,8000437c	 x28:0x80009ec8 x26:0x80000000
       61055000	      6104	00000000	00000013	addi	x0,x0,0	  x0:0x00000000
       61065000	      6105	80004378	00000013	addi	x0,x0,0	  x0:0x00000000
       61075000	      6106	8000437c	03910e63	beq	x2,x25,800043b8	  x2:0x00000000 x25:0x00000000
       61085000	      6107	00000000	00000013	addi	x0,x0,0	  x0:0x00000000
       61095000	      6108	800043b4	00000013	addi	x0,x0,0	  x0:0x00000000
       61105000	      6109	800043b8	00000013	addi	x0,x0,0	  x0:0x00000000
       61115000	      6110	800043bc	0587c063	blt	x15,x24,800043fc	 x15:0x1c847001 x24:0x00000000
       61125000	      6111	800043c0	413c0db3	sub	x27,x24,x19	 x24:0x00000000 x19:0xd944606c x27=0x26bb9f94
       61135000	      6112	800043c4	019f81b3	add	x3,x31,x25	 x31:0x00000001 x25:0x00000000  x3=0x00000001
       61145000	      6113	800043c8	9a1e8213	addi	x4,x29,-1631	 x29:0x8000075a  x4=0x800000fb
       61155000	      6114	800043cc	00d565b3	or	x11,x10,x13	 x10:0x1c8477df x13:0xfffffdfd x11=0xffffffff
       61165000	      6115	800043d0	65c2ea93	ori	x21,x5,1628	  x5:0x0000069b x21=0x000006df
       61175000	      6116	800043d4	411259b3	sra	x19,x4,x17	  x4:0x800000fb x17:0x00000000 x19=0x800000fb
       61185000	      6117	800043d8	00310233	add	x4,x2,x3	  x2:0x00000000  x3:0x00000001  x4=0x00000001
       61195000	      6118	800043dc	879be613	ori	x12,x23,-1927	 x23:0xfffffdfd x12=0xfffffdfd
       61205000	      6119	800043e0	05176063	bltu	x14,x17,80004420	 x14:0x80009ec8 x17:0x00000000
       61215000	      6120	800043e4	d3a32f17	auipc	x30,0xd3a32	 x30=0x53a363e0
       61225000	      6121	800043e8	df7a8013	addi	x0,x21,-521	 x21:0x000006df
       61235000	      6122	800043ec	005340b3	xor	x1,x6,x5	  x6:0x00000513  x5:0x0000069b  x1=0x00000388
       61245000	      6123	800043f0	00be9613	slli	x12,x29,0xb	 x29:0x8000075a x12=0x003ad000
       61255000	      6124	800043f4	00f0af33	slt	x30,x1,x15	  x1:0x00000388 x15:0x1c847001 x30=0x00000001
       61265000	      6125	800043f8	016693b3	sll	x7,x13,x22	 x13:0xfffffdfd x22:0x5944606c  x7=0xffdfd000
       61275000	      6126	800043fc	80694c13	xori	x24,x18,-2042	 x18:0x71d1c100 x24=0x8e2e3906
       61285000	      6127	80004400	0176d7b3	srl	x15,x13,x23	 x13:0xfffffdfd x23:0xfffffdfd x15=0x00000007
       61295000	      6128	80004404	40fa52b3	sra	x5,x20,x15	 x20:0x8000069b x15:0x00000007  x5=0xff00000d
       61305000	      6129	80004408	010b78b3	and	x17,x22,x16	 x22:0x5944606c x16:0x80009fc4 x17=0x00000044
       61315000	      6130	8000440c	416b8033	sub	x0,x23,x22	 x23:0xfffffdfd x22:0x5944606c
       61325000	      6131	80004410	00c8d713	srli	x14,x17,0xc	 x17:0x00000044 x14=0x00000000
       61335000	      6132	80004414	01956c33	or	x24,x10,x25	 x10:0x1c8477df x25:0x00000000 x24=0x1c8477df
       61345000	      6133	80004418	009663b3	or	x7,x12,x9	 x12:0x003ad000  x9:0xa0185000  x7=0xa03ad000
       61355000	      6134	8000441c	00000013	addi	x0,x0,0	  x0:0x00000000
       61365000	      6135	80004420	00da7a33	and	x20,x20,x13	 x20:0x8000069b x13:0xfffffdfd x20=0x80000499
       61375000	      6136	80004424	0189f133	and	x2,x19,x24	 x19:0x800000fb x24:0x1c8477df  x2=0x000000db
       61385000	      6137	80004428	4020dc93	srai	x25,x1,0x2	  x1:0x00000388 x25=0x000000e2
       61395000	      6138	8000442c	02cffa63	bgeu	x31,x12,80004460	 x31:0x00000001 x12:0x003ad000
       61405000	      6139	80004430	03d9fe63	bgeu	x19,x29,8000446c	 x19:0x800000fb x29:0x8000075a
       61415000	      6140	80004434	00a05d93	srli	x27,x0,0xa	  x0:0x00000000 x27=0x00000000
       61425000	      6141	80004438	15a47c93	andi	x25,x8,346	  x8:0x00000000 x25=0x00000000
       61435000	      6142	8000443c	00000013	addi	x0,x0,0	  x0:0x00000000
       61445000	      6143	80004440	cfad6513	ori	x10,x26,-774	 x26:0x80000000 x10=0xfffffcfa
       61455000	      6144	80004444	001f1663	bne	x30,x1,80004450	 x30:0x00000001  x1:0x00000388
       61465000	      6145	00000000	00000013	addi	x0,x0,0	  x0:0x00000000
       61475000	      6146	8000444c	00000013	addi	x0,x0,0	  x0:0x00000000
       61485000	      6147	80004450	010de263	bltu	x27,x16,80004454	 x27:0x00000000 x16:0x80009fc4
       61495000	      6148	00000000	00000013	addi	x0,x0,0	  x0:0x00000000
       61505000	      6149	80004450	00000013	addi	x0,x0,0	  x0:0x00000000
       61515000	      6150	80004454	d0373593	sltiu	x11,x14,-765	 x14:0x00000000 x11=0x00000001
       61525000	      6151	80004458	27880a13	addi	x20,x16,632	 x16:0x80009fc4 x20=0x8000a23c
       61535000	      6152	8000445c	00000013	addi	x0,x0,0	  x0:0x00000000
       61545000	      6153	80004460	016b2c33	slt	x24,x22,x22	 x22:0x5944606c x22:0x5944606c x24=0x00000000
       61555000	      6154	80004464	008ae733	or	x14,x21,x8	 x21:0x000006df  x8:0x00000000 x14=0x000006df
       61565000	      6155	80004468	ee83a713	slti	x14,x7,-280	  x7:0xa03ad000 x14=0x00000001
       61575000	      6156	8000446c	4168d2b3	sra	x5,x17,x22	 x17:0x00000044 x22:0x5944606c  x5=0x00000000
       61585000	      6157	80004470	04ca4063	blt	x20,x12,800044b0	 x20:0x8000a23c x12:0x003ad000
       61595000	      6158	00000000	00000013	addi	x0,x0,0	  x0:0x00000000
       61605000	      6159	800044ac	00000013	addi	x0,x0,0	  x0:0x00000000
       61615000	      6160	800044b0	00ee79b3	and	x19,x28,x14	 x28:0x80009ec8 x14:0x00000001 x19=0x00000000
       61625000	      6161	800044b4	0386ee63	bltu	x13,x24,800044f0	 x13:0xfffffdfd x24:0x00000000
       61635000	      6162	800044b8	0175b533	sltu	x10,x11,x23	 x11:0x00000001 x23:0xfffffdfd x10=0x00000001
       61645000	      6163	800044bc	6f17b193	sltiu	x3,x15,1777	 x15:0x00000007  x3=0x00000001
       61655000	      6164	800044c0	131df693	andi	x13,x27,305	 x27:0x00000000 x13=0x00000000
       61665000	      6165	800044c4	281b2913	slti	x18,x22,641	 x22:0x5944606c x18=0x00000000
       61675000	      6166	800044c8	765f0493	addi	x9,x30,1893	 x30:0x00000001  x9=0x00000766
       61685000	      6167	800044cc	00745933	srl	x18,x8,x7	  x8:0x00000000  x7:0xa03ad000 x18=0x00000000
       61695000	      6168	800044d0	01ea8233	add	x4,x21,x30	 x21:0x000006df x30:0x00000001  x4=0x000006e0
       61705000	      6169	800044d4	005e85b3	add	x11,x29,x5	 x29:0x8000075a  x5:0x00000000 x11=0x8000075a
       61715000	      6170	800044d8	070f0213	addi	x4,x30,112	 x30:0x00000001  x4=0x00000071
       61725000	      6171	800044dc	4101dc93	srai	x25,x3,0x10	  x3:0x00000001 x25=0x00000000
       61735000	      6172	800044e0	51db0893	addi	x17,x22,1309	 x22:0x5944606c x17=0x59446589
       61745000	      6173	800044e4	600d6637	lui	x12,0x600d6	 x12=0x600d6000
       61755000	      6174	800044e8	00901793	slli	x15,x0,0x9	  x0:0x00000000 x15=0x00000000
       61765000	      6175	800044ec	00b3fa33	and	x20,x7,x11	  x7:0xa03ad000 x11:0x8000075a x20=0x80000000
       61775000	      6176	800044f0	01197cb3	and	x25,x18,x17	 x18:0x00000000 x17:0x59446589 x25=0x00000000
       61785000	      6177	800044f4	8dfbb913	sltiu	x18,x23,-1825	 x23:0xfffffdfd x18=0x00000000
       61795000	      6178	800044f8	0182dc33	srl	x24,x5,x24	  x5:0x00000000 x24:0x00000000 x24=0x00000000
       61805000	      6179	800044fc	a1697413	andi	x8,x18,-1514	 x18:0x00000000  x8=0x00000000
       61815000	      6180	80004500	41f38a33	sub	x20,x7,x31	  x7:0xa03ad000 x31:0x00000001 x20=0xa03acfff
       61825000	      6181	80004504	021fc063	blt	x31,x1,80004524	 x31:0x00000001  x1:0x00000388
       61835000	      6182	00000000	00000013	addi	x0,x0,0	  x0:0x00000000
       61845000	      6183	80004520	00000013	addi	x0,x0,0	  x0:0x00000000
       61855000	      6184	80004524	e1e1ad93	slti	x27,x3,-482	  x3:0x00000001 x27=0x00000000
       61865000	      6185	80004528	004de2b3	or	x5,x27,x4	 x27:0x00000000  x4:0x00000071  x5=0x00000071
       61875000	      6186	8000452c	02030063	beq	x6,x0,8000454c	  x6:0x00000513  x0:0x00000000
       61885000	      6187	80004530	354e0337	lui	x6,0x354e0	  x6=0x354e0000
       61895000	      6188	80004534	00815333	srl	x6,x2,x8	  x2:0x000000db  x8:0x00000000  x6=0x000000db
       61905000	      6189	80004538	411a5db3	sra	x27,x20,x17	 x20:0xa03acfff x17:0x59446589 x27=0xffd01d67
       61915000	      6190	8000453c	014acc63	blt	x21,x20,80004554	 x21:0x000006df x20:0xa03acfff
       61925000	      6191	80004540	41625fb3	sra	x31,x4,x22	  x4:0x00000071 x22:0x5944606c x31=0x00000000
       61935000	      6192	80004544	75492213	slti	x4,x18,1876	 x18:0x00000000  x4=0x00000001
       61945000	      6193	80004548	02a2ea63	bltu	x5,x10,8000457c	  x5:0x00000071 x10:0x00000001
       61955000	      6194	8000454c	40295933	sra	x18,x18,x2	 x18:0x00000000  x2:0x000000db x18=0x00000000
       61965000	      6195	80004550	00778133	add	x2,x15,x7	 x15:0x00000000  x7:0xa03ad000  x2=0xa03ad000
       61975000	      6196	80004554	b43c7d97	auipc	x27,0xb43c7	 x27=0x343cb550
       61985000	      6197	80004558	008a6c33	or	x24,x20,x8	 x20:0xa03acfff  x8:0x00000000 x24=0xa03acfff
       61995000	      6198	8000455c	0585c663	blt	x11,x24,800045a8	 x11:0x8000075a x24:0xa03acfff
       62005000	      6199	00000000	00000013	addi	x0,x0,0	  x0:0x00000000
       62015000	      6200	800045a4	00000013	addi	x0,x0,0	  x0:0x00000000
       62025000	      6201	800045a8	005f3033	sltu	x0,x30,x5	 x30:0x00000001  x5:0x00000071
       62035000	      6202	800045ac	01cd9433	sll	x8,x27,x28	 x27:0x343cb550 x28:0x80009ec8  x8=0x3cb55000
       62045000	      6203	800045b0	02f07e63	bgeu	x0,x15,800045ec	  x0:0x00000000 x15:0x00000000
       62055000	      6204	00000000	00000013	addi	x0,x0,0	  x0:0x00000000
       62065000	      6205	800045e8	00000013	addi	x0,x0,0	  x0:0x00000000
       62075000	      6206	800045ec	6d738713	addi	x14,x7,1751	  x7:0xa03ad000 x14=0xa03ad6d7
       62085000	      6207	800045f0	01b333b3	sltu	x7,x6,x27	  x6:0x000000db x27:0x343cb550  x7=0x00000001
       62095000	      6208	800045f4	04676063	bltu	x14,x6,80004634	 x14:0xa03ad6d7  x6:0x000000db
       62105000	      6209	800045f8	02229063	bne	x5,x2,80004618	  x5:0x00000071  x2:0xa03ad000
       62115000	      6210	00000000	00000013	addi	x0,x0,0	  x0:0x00000000
       62125000	      6211	80004614	00000013	addi	x0,x0,0	  x0:0x00000000
       62135000	      6212	80004618	02cbd063	bge	x23,x12,80004638	 x23:0xfffffdfd x12:0x600d6000
       62145000	      6213	8000461c	02e86013	ori	x0,x16,46	 x16:0x80009fc4
       62155000	      6214	80004620	00263933	sltu	x18,x12,x2	 x12:0x600d6000  x2:0xa03ad000 x18=0x00000001
       62165000	      6215	80004624	0044c533	xor	x10,x9,x4	  x9:0x00000766  x4:0x00000001 x10=0x00000767
       62175000	      6216	80004628	04eb7063	bgeu	x22,x14,80004668	 x22:0x5944606c x14:0xa03ad6d7
       62185000	      6217	8000462c	882a4113	xori	x2,x20,-1918	 x20:0xa03acfff  x2=0x5fc5377d
       62195000	      6218	80004630	052e8263	beq	x29,x18,80004674	 x29:0x8000075a x18:0x00000001
       62205000	      6219	80004634	b1c7f193	andi	x3,x15,-1252	 x15:0x00000000  x3=0x00000000
       62215000	      6220	80004638	002f6933	or	x18,x30,x2	 x30:0x00000001  x2:0x5fc5377d x18=0x5fc5377d
       62225000	      6221	8000463c	405d5513	srai	x10,x26,0x5	 x26:0x80000000 x10=0xfc000000
       62235000	      6222	80004640	0016aa33	slt	x20,x13,x1	 x13:0x00000000  x1:0x00000388 x20=0x00000001
       62245000	      6223	80004644	018184b3	add	x9,x3,x24	  x3:0x00000000 x24:0xa03acfff  x9=0xa03acfff
       62255000	      6224	80004648	007c6eb3	or	x29,x24,x7	 x24:0xa03acfff  x7:0x00000001 x29=0xa03acfff
       62265000	      6225	8000464c	c6c63313	sltiu	x6,x12,-916	 x12:0x600d6000  x6=0x00000001
       62275000	      6226	80004650	0071f533	and	x10,x3,x7	  x3:0x00000000  x7:0x00000001 x10=0x00000000
       62285000	      6227	80004654	018c6a63	bltu	x24,x24,80004668	 x24:0xa03acfff x24:0xa03acfff
       62295000	      6228	80004658	b2989a97	auipc	x21,0xb2989	 x21=0x3298d654
       62305000	      6229	8000465c	00bf9233	sll	x4,x31,x11	 x31:0x00000000 x11:0x8000075a  x4=0x00000000
       62315000	      6230	80004660	f9987197	auipc	x3,0xf9987	  x3=0x7998b65c
       62325000	      6231	80004664	3b32f413	andi	x8,x5,947	  x5:0x00000071  x8=0x00000031
       62335000	      6232	80004668	d9853f13	sltiu	x30,x10,-616	 x10:0x00000000 x30=0x00000001
       62345000	      6233	8000466c	010f1393	slli	x7,x30,0x10	 x30:0x00000001  x7=0x00010000
       62355000	      6234	80004670	017800b3	add	x1,x16,x23	 x16:0x80009fc4 x23:0xfffffdfd  x1=0x80009dc1
       62365000	      6235	80004674	36913013	sltiu	x0,x2,873	  x2:0x5fc5377d
       62375000	      6236	80004678	00f47863	bgeu	x8,x15,80004688	  x8:0x00000031 x15:0x00000000
       62385000	      6237	00000000	00000013	addi	x0,x0,0	  x0:0x00000000
       62395000	      6238	80004684	00000013	addi	x0,x0,0	  x0:0x00000000
       62405000	      6239	80004688	2e7b6f93	ori	x31,x22,743	 x22:0x5944606c x31=0x594462ef
       62415000	      6240	8000468c	0193c4b3	xor	x9,x7,x25	  x7:0x00010000 x25:0x00000000  x9=0x00010000
       62425000	      6241	80004690	004599b3	sll	x19,x11,x4	 x11:0x8000075a  x4:0x00000000 x19=0x8000075a
       62435000	      6242	80004694	015c1633	sll	x12,x24,x21	 x24:0xa03acfff x21:0x3298d654 x12=0xfff00000
       62445000	      6243	80004698	40055093	srai	x1,x10,0x0	 x10:0x00000000  x1=0x00000000
       62455000	      6244	8000469c	6b780393	addi	x7,x16,1719	 x16:0x80009fc4  x7=0x8000a67b
       62465000	      6245	800046a0	01db8e63	beq	x23,x29,800046bc	 x23:0xfffffdfd x29:0xa03acfff
       62475000	      6246	800046a4	0023a933	slt	x18,x7,x2	  x7:0x8000a67b  x2:0x5fc5377d x18=0x00000001
       62485000	      6247	800046a8	0085a633	slt	x12,x11,x8	 x11:0x8000075a  x8:0x00000031 x12=0x00000001
       62495000	      6248	800046ac	00000013	addi	x0,x0,0	  x0:0x00000000
       62505000	      6249	800046b0	02680463	beq	x16,x6,800046d8	 x16:0x80009fc4  x6:0x00000001
       62515000	      6250	800046b4	0034afb3	slt	x31,x9,x3	  x9:0x00010000  x3:0x7998b65c x31=0x00000001
       62525000	      6251	800046b8	e5eb5f17	auipc	x30,0xe5eb5	 x30=0x65eb96b4
       62535000	      6252	800046bc	1eaab3b7	lui	x7,0x1eaab	  x7=0x1eaab000
       62545000	      6253	800046c0	003554b3	srl	x9,x10,x3	 x10:0x00000000  x3:0x7998b65c  x9=0x00000000
       62555000	      6254	800046c4	59d93113	sltiu	x2,x18,1437	 x18:0x00000001  x2=0x00000001
       62565000	      6255	800046c8	02b64263	blt	x12,x11,800046ec	 x12:0x00000001 x11:0x8000075a
       62575000	      6256	800046cc	00a7da33	srl	x20,x15,x10	 x15:0x00000000 x10:0x00000000 x20=0x00000000
       62585000	      6257	800046d0	40d20533	sub	x10,x4,x13	  x4:0x00000000 x13:0x00000000 x10=0x00000000
       62595000	      6258	800046d4	c8dc8997	auipc	x19,0xc8dc8	 x19=0x48dcc6d0
       62605000	      6259	800046d8	de653f93	sltiu	x31,x10,-538	 x10:0x00000000 x31=0x00000001
       62615000	      6260	800046dc	01be8863	beq	x29,x27,800046ec	 x29:0xa03acfff x27:0x343cb550
       62625000	      6261	800046e0	0f7a6517	auipc	x10,0xf7a6	 x10=0x8f7aa6dc
       62635000	      6262	800046e4	418e85b3	sub	x11,x29,x24	 x29:0xa03acfff x24:0xa03acfff x11=0x00000000
       62645000	      6263	800046e8	37407b93	andi	x23,x0,884	  x0:0x00000000 x23=0x00000000
       62655000	      6264	800046ec	01618c63	beq	x3,x22,80004704	  x3:0x7998b65c x22:0x5944606c
       62665000	      6265	800046f0	0046dc33	srl	x24,x13,x4	 x13:0x00000000  x4:0x00000000 x24=0x00000000
       62675000	      6266	800046f4	017fe7b3	or	x15,x31,x23	 x31:0x00000001 x23:0x00000000 x15=0x00000001
       62685000	      6267	800046f8	1e7ab193	sltiu	x3,x21,487	 x21:0x3298d654  x3=0x00000000
       62695000	      6268	800046fc	04a3d663	bge	x7,x10,80004748	  x7:0x1eaab000 x10:0x8f7aa6dc
       62705000	      6269	00000000	00000013	addi	x0,x0,0	  x0:0x00000000
       62715000	      6270	80004744	00000013	addi	x0,x0,0	  x0:0x00000000
       62725000	      6271	80004748	012495b3	sll	x11,x9,x18	  x9:0x00000000 x18:0x00000001 x11=0x00000000
       62735000	      6272	8000474c	2ea77193	andi	x3,x14,746	 x14:0xa03ad6d7  x3=0x000002c2
       62745000	      6273	80004750	406ada93	srai	x21,x21,0x6	 x21:0x3298d654 x21=0x00ca6359
       62755000	      6274	80004754	9c12c097	auipc	x1,0x9c12c	  x1=0x1c130750
       62765000	      6275	80004758	6050c193	xori	x3,x1,1541	  x1:0x1c130750  x3=0x1c130155
       62775000	      6276	8000475c	397bf013	andi	x0,x23,919	 x23:0x00000000
       62785000	      6277	80004760	03277e63	bgeu	x14,x18,8000479c	 x14:0xa03ad6d7 x18:0x00000001
       62795000	      6278	00000000	00000013	addi	x0,x0,0	  x0:0x00000000
       62805000	      6279	80004798	00000013	addi	x0,x0,0	  x0:0x00000000
       62815000	      6280	8000479c	00a455b3	srl	x11,x8,x10	  x8:0x00000031 x10:0x8f7aa6dc x11=0x00000000
       62825000	      6281	800047a0	0074c8b3	xor	x17,x9,x7	  x9:0x00000000  x7:0x1eaab000 x17=0x1eaab000
       62835000	      6282	800047a4	01e69233	sll	x4,x13,x30	 x13:0x00000000 x30:0x65eb96b4  x4=0x00000000
       62845000	      6283	800047a8	01a2c033	xor	x0,x5,x26	  x5:0x00000071 x26:0x80000000
       62855000	      6284	800047ac	00000013	addi	x0,x0,0	  x0:0x00000000
       62865000	      6285	800047b0	009654b3	srl	x9,x12,x9	 x12:0x00000001  x9:0x00000000  x9=0x00000001
       62875000	      6286	800047b4	00000013	addi	x0,x0,0	  x0:0x00000000
       62885000	      6287	800047b8	00004117	auipc	x2,0x4	  x2=0x800087b4
       62895000	      6288	800047bc	9a310113	addi	x2,x2,-1629	  x2:0x800087b4  x2=0x80008157
       62905000	      6289	800047c0	69546213	ori	x4,x8,1685	  x8:0x00000031  x4=0x000006b5
       62915000	      6290	800047c4	ffa10f23	sb	x26,-2(x2)	  x2:0x80008157 x26:0x80000000 PA:0x80008155
       62925000	      6291	800047c8	fcc14083	lbu	x1,-52(x2)	  x2:0x80008157  x1=0x00000062 PA:0x80008123
       62935000	      6292	800047cc	01e83633	sltu	x12,x16,x30	 x16:0x80009fc4 x30:0x65eb96b4 x12=0x00000000
       62945000	      6293	800047d0	331af693	andi	x13,x21,817	 x21:0x00ca6359 x13=0x00000311
       62955000	      6294	800047d4	f3a10ca3	sb	x26,-199(x2)	  x2:0x80008157 x26:0x80000000 PA:0x80008090
       62965000	      6295	800047d8	41375613	srai	x12,x14,0x13	 x14:0xa03ad6d7 x12=0xfffff407
       62975000	      6296	800047dc	f0910003	lb	x0,-247(x2)	  x2:0x80008157 PA:0x80008060
       62985000	      6297	800047e0	3e924293	xori	x5,x4,1001	  x4:0x000006b5  x5=0x0000055c
       62995000	      6298	800047e4	d5c28e93	addi	x29,x5,-676	  x5:0x0000055c x29=0x000002b8
       63005000	      6299	800047e8	f89103a3	sb	x9,-121(x2)	  x2:0x80008157  x9:0x00000001 PA:0x800080de
       63015000	      6300	800047ec	01ec4033	xor	x0,x24,x30	 x24:0x00000000 x30:0x65eb96b4
       63025000	      6301	800047f0	016093b3	sll	x7,x1,x22	  x1:0x00000062 x22:0x5944606c  x7=0x00062000
       63035000	      6302	800047f4	008d7a33	and	x20,x26,x8	 x26:0x80000000  x8:0x00000031 x20=0x00000000
       63045000	      6303	800047f8	01715583	lhu	x11,23(x2)	  x2:0x80008157 x11=0x000078b3 PA:0x8000816e
       63055000	      6304	800047fc	41ecd493	srai	x9,x25,0x1e	 x25:0x00000000  x9=0x00000000
       63065000	      6305	80004800	0066f5b3	and	x11,x13,x6	 x13:0x00000311  x6:0x00000001 x11=0x00000001
       63075000	      6306	80004804	7f002d93	slti	x27,x0,2032	  x0:0x00000000 x27=0x00000001
       63085000	      6307	80004808	01c526b3	slt	x13,x10,x28	 x10:0x8f7aa6dc x28:0x80009ec8 x13=0x00000000
       63095000	      6308	8000480c	41825b93	srai	x23,x4,0x18	  x4:0x000006b5 x23=0x00000000
       63105000	      6309	80004810	b376f493	andi	x9,x13,-1225	 x13:0x00000000  x9=0x00000000
       63115000	      6310	80004814	419bd533	sra	x10,x23,x25	 x23:0x00000000 x25:0x00000000 x10=0x00000000
       63125000	      6311	80004818	1ddf4013	xori	x0,x30,477	 x30:0x65eb96b4
       63135000	      6312	8000481c	c4093d97	auipc	x27,0xc4093	 x27=0x44097818
       63145000	      6313	80004820	7a767013	andi	x0,x12,1959	 x12:0xfffff407
       63155000	      6314	80004824	000ee533	or	x10,x29,x0	 x29:0x000002b8  x0:0x00000000 x10=0x000002b8
       63165000	      6315	80004828	019e9a93	slli	x21,x29,0x19	 x29:0x000002b8 x21=0x70000000
       63175000	      6316	8000482c	1312c493	xori	x9,x5,305	  x5:0x0000055c  x9=0x0000046d
       63185000	      6317	80004830	01cd46b3	xor	x13,x26,x28	 x26:0x80000000 x28:0x80009ec8 x13=0x00009ec8
       63195000	      6318	80004834	01ee9b93	slli	x23,x29,0x1e	 x29:0x000002b8 x23=0x00000000
       63205000	      6319	80004838	f4a10683	lb	x13,-182(x2)	  x2:0x80008157 x13=0x0000002a PA:0x800080a1
       63215000	      6320	8000483c	f5a119a3	sh	x26,-173(x2)	  x2:0x80008157 x26:0x80000000 PA:0x800080aa
       63225000	      6321	80004840	03e14283	lbu	x5,62(x2)	  x2:0x80008157  x5=0x00000019 PA:0x80008195
       63235000	      6322	80004844	ff014083	lbu	x1,-16(x2)	  x2:0x80008157  x1=0x0000008e PA:0x80008147
       63245000	      6323	80004848	915cb213	sltiu	x4,x25,-1771	 x25:0x00000000  x4=0x00000001
       63255000	      6324	8000484c	f5c10623	sb	x28,-180(x2)	  x2:0x80008157 x28:0x80009ec8 PA:0x800080a3
       63265000	      6325	80004850	7a967d93	andi	x27,x12,1961	 x12:0xfffff407 x27=0x00000401
       63275000	      6326	80004854	0ca14303	lbu	x6,202(x2)	  x2:0x80008157  x6=0x0000008b PA:0x80008221
       63285000	      6327	80004858	01210e83	lb	x29,18(x2)	  x2:0x80008157 x29=0x0000005a PA:0x80008169
       63295000	      6328	8000485c	0248c063	blt	x17,x4,8000487c	 x17:0x1eaab000  x4:0x00000001
       63305000	      6329	80004860	04f37663	bgeu	x6,x15,800048ac	  x6:0x0000008b x15:0x00000001
       63315000	      6330	00000000	00000013	addi	x0,x0,0	  x0:0x00000000
       63325000	      6331	800048a8	00000013	addi	x0,x0,0	  x0:0x00000000
       63335000	      6332	800048ac	006b17b3	sll	x15,x22,x6	 x22:0x5944606c  x6:0x0000008b x15=0x23036000
       63345000	      6333	800048b0	41888b33	sub	x22,x17,x24	 x17:0x1eaab000 x24:0x00000000 x22=0x1eaab000
       63355000	      6334	800048b4	00db5263	bge	x22,x13,800048b8	 x22:0x1eaab000 x13:0x0000002a
       63365000	      6335	00000000	00000013	addi	x0,x0,0	  x0:0x00000000
       63375000	      6336	800048b4	00000013	addi	x0,x0,0	  x0:0x00000000
       63385000	      6337	800048b8	01d38eb3	add	x29,x7,x29	  x7:0x00062000 x29:0x0000005a x29=0x0006205a
       63395000	      6338	800048bc	05c96863	bltu	x18,x28,8000490c	 x18:0x00000001 x28:0x80009ec8
       63405000	      6339	00000000	00000013	addi	x0,x0,0	  x0:0x00000000
       63415000	      6340	80004908	00000013	addi	x0,x0,0	  x0:0x00000000
       63425000	      6341	8000490c	47777793	andi	x15,x14,1143	 x14:0xa03ad6d7 x15=0x00000457
       63435000	      6342	80004910	015b07b3	add	x15,x22,x21	 x22:0x1eaab000 x21:0x70000000 x15=0x8eaab000
       63445000	      6343	80004914	f3897093	andi	x1,x18,-200	 x18:0x00000001  x1=0x00000000
       63455000	      6344	80004918	01bb78b3	and	x17,x22,x27	 x22:0x1eaab000 x27:0x00000401 x17=0x00000000
       63465000	      6345	8000491c	03b46863	bltu	x8,x27,8000494c	  x8:0x00000031 x27:0x00000401
       63475000	      6346	00000000	00000013	addi	x0,x0,0	  x0:0x00000000
       63485000	      6347	80004948	00000013	addi	x0,x0,0	  x0:0x00000000
       63495000	      6348	8000494c	013e4a33	xor	x20,x28,x19	 x28:0x80009ec8 x19:0x48dcc6d0 x20=0xc8dc5818
       63505000	      6349	80004950	51ec6313	ori	x6,x24,1310	 x24:0x00000000  x6=0x0000051e
       63515000	      6350	80004954	01540263	beq	x8,x21,80004958	  x8:0x00000031 x21:0x70000000
       63525000	      6351	80004958	016d9663	bne	x27,x22,80004964	 x27:0x00000401 x22:0x1eaab000
       63535000	      6352	00000000	00000013	addi	x0,x0,0	  x0:0x00000000
       63545000	      6353	80004960	00000013	addi	x0,x0,0	  x0:0x00000000
       63555000	      6354	80004964	d56d98b7	lui	x17,0xd56d9	 x17=0xd56d9000
       63565000	      6355	80004968	02a38063	beq	x7,x10,80004988	  x7:0x00062000 x10:0x000002b8
       63575000	      6356	8000496c	01b95f93	srli	x31,x18,0x1b	 x18:0x00000001 x31=0x00000000
       63585000	      6357	80004970	01095b93	srli	x23,x18,0x10	 x18:0x00000001 x23=0x00000000
       63595000	      6358	80004974	01ef8bb3	add	x23,x31,x30	 x31:0x00000000 x30:0x65eb96b4 x23=0x65eb96b4
       63605000	      6359	80004978	01b99eb3	sll	x29,x19,x27	 x19:0x48dcc6d0 x27:0x00000401 x29=0x91b98da0
       63615000	      6360	8000497c	00211193	slli	x3,x2,0x2	  x2:0x80008157  x3=0x0002055c
       63625000	      6361	80004980	c979f613	andi	x12,x19,-873	 x19:0x48dcc6d0 x12=0x48dcc490
       63635000	      6362	80004984	009d4863	blt	x26,x9,80004994	 x26:0x80000000  x9:0x0000046d
       63645000	      6363	00000000	00000013	addi	x0,x0,0	  x0:0x00000000
       63655000	      6364	80004990	00000013	addi	x0,x0,0	  x0:0x00000000
       63665000	      6365	80004994	01985333	srl	x6,x16,x25	 x16:0x80009fc4 x25:0x00000000  x6=0x80009fc4
       63675000	      6366	80004998	c46d3493	sltiu	x9,x26,-954	 x26:0x80000000  x9=0x00000001
       63685000	      6367	8000499c	00000013	addi	x0,x0,0	  x0:0x00000000
       63695000	      6368	800049a0	00a75c13	srli	x24,x14,0xa	 x14:0xa03ad6d7 x24=0x00280eb5
       63705000	      6369	800049a4	00a7f2b3	and	x5,x15,x10	 x15:0x8eaab000 x10:0x000002b8  x5=0x00000000
       63715000	      6370	800049a8	01c36e63	bltu	x6,x28,800049c4	  x6:0x80009fc4 x28:0x80009ec8
       63725000	      6371	800049ac	41b50733	sub	x14,x10,x27	 x10:0x000002b8 x27:0x00000401 x14=0xfffffeb7
       63735000	      6372	800049b0	aec3b9b7	lui	x19,0xaec3b	 x19=0xaec3b000
       63745000	      6373	800049b4	026df263	bgeu	x27,x6,800049d8	 x27:0x00000401  x6:0x80009fc4
       63755000	      6374	800049b8	81ab4913	xori	x18,x22,-2022	 x22:0x1eaab000 x18=0xe155481a
       63765000	      6375	800049bc	02bb1463	bne	x22,x11,800049e4	 x22:0x1eaab000 x11:0x00000001
       63775000	      6376	00000000	00000013	addi	x0,x0,0	  x0:0x00000000
       63785000	      6377	800049e0	00000013	addi	x0,x0,0	  x0:0x00000000
       63795000	      6378	800049e4	30bb3a97	auipc	x21,0x30bb3	 x21=0xb0bb79e0
       63805000	      6379	800049e8	0014c633	xor	x12,x9,x1	  x9:0x00000001  x1:0x00000000 x12=0x00000001
       63815000	      6380	800049ec	1908b793	sltiu	x15,x17,400	 x17:0xd56d9000 x15=0x00000000
       63825000	      6381	800049f0	bbeb44b7	lui	x9,0xbbeb4	  x9=0xbbeb4000
       63835000	      6382	800049f4	72a2a193	slti	x3,x5,1834	  x5:0x00000000  x3=0x00000001
       63845000	      6383	800049f8	971b6b13	ori	x22,x22,-1679	 x22:0x1eaab000 x22=0xfffff971
       63855000	      6384	800049fc	00358863	beq	x11,x3,80004a0c	 x11:0x00000001  x3:0x00000001
       63865000	      6385	00000000	00000013	addi	x0,x0,0	  x0:0x00000000
       63875000	      6386	80004a08	00000013	addi	x0,x0,0	  x0:0x00000000
       63885000	      6387	80004a0c	41ec5493	srai	x9,x24,0x1e	 x24:0x00280eb5  x9=0x00000000
       63895000	      6388	80004a10	01c6fbb3	and	x23,x13,x28	 x13:0x0000002a x28:0x80009ec8 x23=0x00000008
       63905000	      6389	80004a14	03cf6a63	bltu	x30,x28,80004a48	 x30:0x65eb96b4 x28:0x80009ec8
       63915000	      6390	00000000	00000013	addi	x0,x0,0	  x0:0x00000000
       63925000	      6391	80004a44	00000013	addi	x0,x0,0	  x0:0x00000000
       63935000	      6392	80004a48	906a6313	ori	x6,x20,-1786	 x20:0xc8dc5818  x6=0xfffff91e
       63945000	      6393	80004a4c	0160b7b3	sltu	x15,x1,x22	  x1:0x00000000 x22:0xfffff971 x15=0x00000001
       63955000	      6394	80004a50	83522513	slti	x10,x4,-1995	  x4:0x00000001 x10=0x00000000
       63965000	      6395	80004a54	0542e263	bltu	x5,x20,80004a98	  x5:0x00000000 x20:0xc8dc5818
       63975000	      6396	00000000	00000013	addi	x0,x0,0	  x0:0x00000000
       63985000	      6397	80004a94	00000013	addi	x0,x0,0	  x0:0x00000000
       63995000	      6398	80004a98	01caf7b3	and	x15,x21,x28	 x21:0xb0bb79e0 x28:0x80009ec8 x15=0x800018c0
       64005000	      6399	80004a9c	34e02db7	lui	x27,0x34e02	 x27=0x34e02000
       64015000	      6400	80004aa0	009aeab3	or	x21,x21,x9	 x21:0xb0bb79e0  x9:0x00000000 x21=0xb0bb79e0
       64025000	      6401	80004aa4	998b6a93	ori	x21,x22,-1640	 x22:0xfffff971 x21=0xfffff9f9
       64035000	      6402	80004aa8	01df5693	srli	x13,x30,0x1d	 x30:0x65eb96b4 x13=0x00000003
       64045000	      6403	80004aac	00000013	addi	x0,x0,0	  x0:0x00000000
       64055000	      6404	80004ab0	00000013	addi	x0,x0,0	  x0:0x00000000
       64065000	      6405	80004ab4	00000013	addi	x0,x0,0	  x0:0x00000000
       64075000	      6406	80004ab8	03a1c063	blt	x3,x26,80004ad8	  x3:0x00000001 x26:0x80000000
       64085000	      6407	80004abc	41cb5db3	sra	x27,x22,x28	 x22:0xfffff971 x28:0x80009ec8 x27=0xfffffff9
       64095000	      6408	80004ac0	01cc3033	sltu	x0,x24,x28	 x24:0x00280eb5 x28:0x80009ec8
       64105000	      6409	80004ac4	009e4e63	blt	x28,x9,80004ae0	 x28:0x80009ec8  x9:0x00000000
       64115000	      6410	00000000	00000013	addi	x0,x0,0	  x0:0x00000000
       64125000	      6411	80004adc	00000013	addi	x0,x0,0	  x0:0x00000000
       64135000	      6412	80004ae0	8015a313	slti	x6,x11,-2047	 x11:0x00000001  x6=0x00000000
       64145000	      6413	80004ae4	40c75413	srai	x8,x14,0xc	 x14:0xfffffeb7  x8=0xffffffff
       64155000	      6414	80004ae8	00000013	addi	x0,x0,0	  x0:0x00000000
       64165000	      6415	80004aec	01548233	add	x4,x9,x21	  x9:0x00000000 x21:0xfffff9f9  x4=0xfffff9f9
       64175000	      6416	80004af0	0038e4b3	or	x9,x17,x3	 x17:0xd56d9000  x3:0x00000001  x9=0xd56d9001
       64185000	      6417	80004af4	00b8b733	sltu	x14,x17,x11	 x17:0xd56d9000 x11:0x00000001 x14=0x00000000
       64195000	      6418	80004af8	0164f3b3	and	x7,x9,x22	  x9:0xd56d9001 x22:0xfffff971  x7=0xd56d9001
       64205000	      6419	80004afc	7e70b9b7	lui	x19,0x7e70b	 x19=0x7e70b000
       64215000	      6420	80004b00	00baa533	slt	x10,x21,x11	 x21:0xfffff9f9 x11:0x00000001 x10=0x00000001
       64225000	      6421	80004b04	00b61993	slli	x19,x12,0xb	 x12:0x00000001 x19=0x00000800
       64235000	      6422	80004b08	ec604db7	lui	x27,0xec604	 x27=0xec604000
       64245000	      6423	80004b0c	c20a7193	andi	x3,x20,-992	 x20:0xc8dc5818  x3=0xc8dc5800
       64255000	      6424	80004b10	00ebdb13	srli	x22,x23,0xe	 x23:0x00000008 x22=0x00000000
       64265000	      6425	80004b14	00e6d313	srli	x6,x13,0xe	 x13:0x00000003  x6=0x00000000
       64275000	      6426	80004b18	38242e93	slti	x29,x8,898	  x8:0xffffffff x29=0x00000001
       64285000	      6427	80004b1c	006e6f33	or	x30,x28,x6	 x28:0x80009ec8  x6:0x00000000 x30=0x80009ec8
       64295000	      6428	80004b20	0158d413	srli	x8,x17,0x15	 x17:0xd56d9000  x8=0x000006ab
       64305000	      6429	80004b24	01acf6b3	and	x13,x25,x26	 x25:0x00000000 x26:0x80000000 x13=0x00000000
       64315000	      6430	80004b28	04537063	bgeu	x6,x5,80004b68	  x6:0x00000000  x5:0x00000000
       64325000	      6431	00000000	00000013	addi	x0,x0,0	  x0:0x00000000
       64335000	      6432	80004b64	00000013	addi	x0,x0,0	  x0:0x00000000
       64345000	      6433	80004b68	22592893	slti	x17,x18,549	 x18:0xe155481a x17=0x00000001
       64355000	      6434	80004b6c	00000013	addi	x0,x0,0	  x0:0x00000000
       64365000	      6435	80004b70	01ab1f93	slli	x31,x22,0x1a	 x22:0x00000000 x31=0x00000000
       64375000	      6436	80004b74	0153d493	srli	x9,x7,0x15	  x7:0xd56d9001  x9=0x000006ab
       64385000	      6437	80004b78	00a868b3	or	x17,x16,x10	 x16:0x80009fc4 x10:0x00000001 x17=0x80009fc5
       64395000	      6438	80004b7c	0075e4b3	or	x9,x11,x7	 x11:0x00000001  x7:0xd56d9001  x9=0xd56d9001
       64405000	      6439	80004b80	03909e63	bne	x1,x25,80004bbc	  x1:0x00000000 x25:0x00000000
       64415000	      6440	80004b84	00fcf733	and	x14,x25,x15	 x25:0x00000000 x15:0x800018c0 x14=0x00000000
       64425000	      6441	80004b88	00147663	bgeu	x8,x1,80004b94	  x8:0x000006ab  x1:0x00000000
       64435000	      6442	00000000	00000013	addi	x0,x0,0	  x0:0x00000000
       64445000	      6443	80004b90	00000013	addi	x0,x0,0	  x0:0x00000000
       64455000	      6444	80004b94	fc89b393	sltiu	x7,x19,-56	 x19:0x00000800  x7=0x00000001
       64465000	      6445	80004b98	01e3dc93	srli	x25,x7,0x1e	  x7:0x00000001 x25=0x00000000
       64475000	      6446	80004b9c	ec672537	lui	x10,0xec672	 x10=0xec672000
       64485000	      6447	80004ba0	407b01b3	sub	x3,x22,x7	 x22:0x00000000  x7:0x00000001  x3=0xffffffff
       64495000	      6448	80004ba4	21d8c013	xori	x0,x17,541	 x17:0x80009fc5
       64505000	      6449	80004ba8	002b3433	sltu	x8,x22,x2	 x22:0x00000000  x2:0x80008157  x8=0x00000001
       64515000	      6450	80004bac	02abf263	bgeu	x23,x10,80004bd0	 x23:0x00000008 x10:0xec672000
       64525000	      6451	80004bb0	01c46b33	or	x22,x8,x28	  x8:0x00000001 x28:0x80009ec8 x22=0x80009ec9
       64535000	      6452	80004bb4	407488b3	sub	x17,x9,x7	  x9:0xd56d9001  x7:0x00000001 x17=0xd56d9000
       64545000	      6453	80004bb8	04750863	beq	x10,x7,80004c08	 x10:0xec672000  x7:0x00000001
       64555000	      6454	80004bbc	01952a33	slt	x20,x10,x25	 x10:0xec672000 x25:0x00000000 x20=0x00000001
       64565000	      6455	80004bc0	7a778f13	addi	x30,x15,1959	 x15:0x800018c0 x30=0x80002067
       64575000	      6456	80004bc4	00d091b3	sll	x3,x1,x13	  x1:0x00000000 x13:0x00000000  x3=0x00000000
       64585000	      6457	80004bc8	0001e863	bltu	x3,x0,80004bd8	  x3:0x00000000  x0:0x00000000
       64595000	      6458	80004bcc	48c73213	sltiu	x4,x14,1164	 x14:0x00000000  x4=0x00000001
       64605000	      6459	80004bd0	f6fa7093	andi	x1,x20,-145	 x20:0x00000001  x1=0x00000001
       64615000	      6460	80004bd4	97f5b597	auipc	x11,0x97f5b	 x11=0x17f5fbd0
       64625000	      6461	80004bd8	017c9413	slli	x8,x25,0x17	 x25:0x00000000  x8=0x00000000
       64635000	      6462	80004bdc	86b7c113	xori	x2,x15,-1941	 x15:0x800018c0  x2=0x7fffe0ab
       64645000	      6463	80004be0	05878663	beq	x15,x24,80004c2c	 x15:0x800018c0 x24:0x00280eb5
       64655000	      6464	80004be4	01881bb3	sll	x23,x16,x24	 x16:0x80009fc4 x24:0x00280eb5 x23=0xf8800000
       64665000	      6465	80004be8	00fcfc33	and	x24,x25,x15	 x25:0x00000000 x15:0x800018c0 x24=0x00000000
       64675000	      6466	80004bec	0011dc33	srl	x24,x3,x1	  x3:0x00000000  x1:0x00000001 x24=0x00000000
       64685000	      6467	80004bf0	03776e63	bltu	x14,x23,80004c2c	 x14:0x00000000 x23:0xf8800000
       64695000	      6468	00000000	00000013	addi	x0,x0,0	  x0:0x00000000
       64705000	      6469	80004c28	00000013	addi	x0,x0,0	  x0:0x00000000
       64715000	      6470	80004c2c	00a77263	bgeu	x14,x10,80004c30	 x14:0x00000000 x10:0xec672000
       64725000	      6471	80004c30	01d9aeb3	slt	x29,x19,x29	 x19:0x00000800 x29:0x00000001 x29=0x00000000
       64735000	      6472	80004c34	01675a33	srl	x20,x14,x22	 x14:0x00000000 x22:0x80009ec9 x20=0x00000000
       64745000	      6473	80004c38	0012a7b3	slt	x15,x5,x1	  x5:0x00000000  x1:0x00000001 x15=0x00000001
       64755000	      6474	80004c3c	05cc6063	bltu	x24,x28,80004c7c	 x24:0x00000000 x28:0x80009ec8
       64765000	      6475	00000000	00000013	addi	x0,x0,0	  x0:0x00000000
       64775000	      6476	80004c78	00000013	addi	x0,x0,0	  x0:0x00000000
       64785000	      6477	80004c7c	7245e413	ori	x8,x11,1828	 x11:0x17f5fbd0  x8=0x17f5fff4
       64795000	      6478	80004c80	409bdb13	srai	x22,x23,0x9	 x23:0xf8800000 x22=0xfffc4000
       64805000	      6479	80004c84	005a7fb3	and	x31,x20,x5	 x20:0x00000000  x5:0x00000000 x31=0x00000000
       64815000	      6480	80004c88	00a968b3	or	x17,x18,x10	 x18:0xe155481a x10:0xec672000 x17=0xed77681a
       64825000	      6481	80004c8c	0172ea33	or	x20,x5,x23	  x5:0x00000000 x23:0xf8800000 x20=0xf8800000
       64835000	      6482	80004c90	53cf5437	lui	x8,0x53cf5	  x8=0x53cf5000
       64845000	      6483	80004c94	53218f17	auipc	x30,0x53218	 x30=0xd321cc90
       64855000	      6484	80004c98	02c2f063	bgeu	x5,x12,80004cb8	  x5:0x00000000 x12:0x00000001
       64865000	      6485	80004c9c	41c38933	sub	x18,x7,x28	  x7:0x00000001 x28:0x80009ec8 x18=0x7fff6139
       64875000	      6486	80004ca0	79a36193	ori	x3,x6,1946	  x6:0x00000000  x3=0x0000079a
       64885000	      6487	80004ca4	17cfe293	ori	x5,x31,380	 x31:0x00000000  x5=0x0000017c
       64895000	      6488	80004ca8	0188a633	slt	x12,x17,x24	 x17:0xed77681a x24:0x00000000 x12=0x00000001
       64905000	      6489	80004cac	2e768213	addi	x4,x13,743	 x13:0x00000000  x4=0x000002e7
       64915000	      6490	80004cb0	d7a6be93	sltiu	x29,x13,-646	 x13:0x00000000 x29=0x00000001
       64925000	      6491	80004cb4	01077933	and	x18,x14,x16	 x14:0x00000000 x16:0x80009fc4 x18=0x00000000
       64935000	      6492	80004cb8	01e9fdb3	and	x27,x19,x30	 x19:0x00000800 x30:0xd321cc90 x27=0x00000800
       64945000	      6493	80004cbc	62c24013	xori	x0,x4,1580	  x4:0x000002e7
       64955000	      6494	80004cc0	00e44ab3	xor	x21,x8,x14	  x8:0x53cf5000 x14:0x00000000 x21=0x53cf5000
       64965000	      6495	80004cc4	00760533	add	x10,x12,x7	 x12:0x00000001  x7:0x00000001 x10=0x00000002
       64975000	      6496	80004cc8	00000013	addi	x0,x0,0	  x0:0x00000000
       64985000	      6497	80004ccc	32775797	auipc	x15,0x32775	 x15=0xb2779cc8
       64995000	      6498	80004cd0	01624c33	xor	x24,x4,x22	  x4:0x000002e7 x22:0xfffc4000 x24=0xfffc42e7
       65005000	      6499	80004cd4	015321b3	slt	x3,x6,x21	  x6:0x00000000 x21:0x53cf5000  x3=0x00000001
       65015000	      6500	80004cd8	00728863	beq	x5,x7,80004ce8	  x5:0x0000017c  x7:0x00000001
       65025000	      6501	80004cdc	01861fb3	sll	x31,x12,x24	 x12:0x00000001 x24:0xfffc42e7 x31=0x00000080
       65035000	      6502	80004ce0	009701b3	add	x3,x14,x9	 x14:0x00000000  x9:0xd56d9001  x3=0xd56d9001
       65045000	      6503	80004ce4	40ce5713	srai	x14,x28,0xc	 x28:0x80009ec8 x14=0xfff80009
       65055000	      6504	80004ce8	01e8c3b3	xor	x7,x17,x30	 x17:0xed77681a x30:0xd321cc90  x7=0x3e56a48a
       65065000	      6505	80004cec	00e68233	add	x4,x13,x14	 x13:0x00000000 x14:0xfff80009  x4=0xfff80009
       65075000	      6506	80004cf0	0112af33	slt	x30,x5,x17	  x5:0x0000017c x17:0xed77681a x30=0x00000000
       65085000	      6507	80004cf4	88038393	addi	x7,x7,-1920	  x7:0x3e56a48a  x7=0x3e569d0a
       65095000	      6508	80004cf8	01c09213	slli	x4,x1,0x1c	  x1:0x00000001  x4=0x10000000
       65105000	      6509	80004cfc	05740263	beq	x8,x23,80004d40	  x8:0x53cf5000 x23:0xf8800000
       65115000	      6510	80004d00	007a4ab3	xor	x21,x20,x7	 x20:0xf8800000  x7:0x3e569d0a x21=0xc6d69d0a
       65125000	      6511	80004d04	03d09863	bne	x1,x29,80004d34	  x1:0x00000001 x29:0x00000001
       65135000	      6512	80004d08	0424c863	blt	x9,x2,80004d58	  x9:0xd56d9001  x2:0x7fffe0ab
       65145000	      6513	00000000	00000013	addi	x0,x0,0	  x0:0x00000000
       65155000	      6514	80004d54	00000013	addi	x0,x0,0	  x0:0x00000000
       65165000	      6515	80004d58	01bd6ab3	or	x21,x26,x27	 x26:0x80000000 x27:0x00000800 x21=0x80000800
       65175000	      6516	80004d5c	00003717	auipc	x14,0x3	 x14=0x80007d58
       65185000	      6517	80004d60	78770713	addi	x14,x14,1927	 x14:0x80007d58 x14=0x800084df
       65195000	      6518	80004d64	01deba33	sltu	x20,x29,x29	 x29:0x00000001 x29:0x00000001 x20=0x00000000
       65205000	      6519	80004d68	00324633	xor	x12,x4,x3	  x4:0x10000000  x3:0xd56d9001 x12=0xc56d9001
       65215000	      6520	80004d6c	00a713a3	sh	x10,7(x14)	 x14:0x800084df x10:0x00000002 PA:0x800084e6
       65225000	      6521	80004d70	00971083	lh	x1,9(x14)	 x14:0x800084df  x1=0xffffaedf PA:0x800084e8
       65235000	      6522	80004d74	ff9719a3	sh	x25,-13(x14)	 x14:0x800084df x25:0x00000000 PA:0x800084d2
       65245000	      6523	80004d78	00e74a03	lbu	x20,14(x14)	 x14:0x800084df x20=0x00000045 PA:0x800084ed
       65255000	      6524	80004d7c	86a47c93	andi	x25,x8,-1942	  x8:0x53cf5000 x25=0x53cf5000
       65265000	      6525	80004d80	414c5333	sra	x6,x24,x20	 x24:0xfffc42e7 x20:0x00000045  x6=0xffffe217
       65275000	      6526	80004d84	ffd75083	lhu	x1,-3(x14)	 x14:0x800084df  x1=0x0000c829 PA:0x800084dc
       65285000	      6527	80004d88	405d8f33	sub	x30,x27,x5	 x27:0x00000800  x5:0x0000017c x30=0x00000684
       65295000	      6528	80004d8c	01bf6333	or	x6,x30,x27	 x30:0x00000684 x27:0x00000800  x6=0x00000e84
       65305000	      6529	80004d90	00775f03	lhu	x30,7(x14)	 x14:0x800084df x30=0x00000002 PA:0x800084e6
       65315000	      6530	80004d94	fef70f23	sb	x15,-2(x14)	 x14:0x800084df x15:0xb2779cc8 PA:0x800084dd
       65325000	      6531	80004d98	ffd72783	lw	x15,-3(x14)	 x14:0x800084df x15=0xaff9c829 PA:0x800084dc
       65335000	      6532	80004d9c	41745ab3	sra	x21,x8,x23	  x8:0x53cf5000 x23:0xf8800000 x21=0x53cf5000
       65345000	      6533	80004da0	00000013	addi	x0,x0,0	  x0:0x00000000
       65355000	      6534	80004da4	ff270a83	lb	x21,-14(x14)	 x14:0x800084df x21=0xffffffff PA:0x800084d1
       65365000	      6535	80004da8	00ef6433	or	x8,x30,x14	 x30:0x00000002 x14:0x800084df  x8=0x800084df
       65375000	      6536	80004dac	ff474403	lbu	x8,-12(x14)	 x14:0x800084df  x8=0x00000000 PA:0x800084d3
       65385000	      6537	80004db0	f7f07237	lui	x4,0xf7f07	  x4=0xf7f07000
       65395000	      6538	80004db4	ffa70203	lb	x4,-6(x14)	 x14:0x800084df  x4=0xffffff8f PA:0x800084d9
       65405000	      6539	80004db8	01491313	slli	x6,x18,0x14	 x18:0x00000000  x6=0x00000000
       65415000	      6540	80004dbc	64701b97	auipc	x23,0x64701	 x23=0xe4705db8
       65425000	      6541	80004dc0	01550133	add	x2,x10,x21	 x10:0x00000002 x21:0xffffffff  x2=0x00000001
       65435000	      6542	80004dc4	01af2333	slt	x6,x30,x26	 x30:0x00000002 x26:0x80000000  x6=0x00000000
       65445000	      6543	80004dc8	010305b3	add	x11,x6,x16	  x6:0x00000000 x16:0x80009fc4 x11=0x80009fc4
       65455000	      6544	80004dcc	4ca23313	sltiu	x6,x4,1226	  x4:0xffffff8f  x6=0x00000000
       65465000	      6545	80004dd0	fafb6893	ori	x17,x22,-81	 x22:0xfffc4000 x17=0xffffffaf
       65475000	      6546	80004dd4	4a9ea213	slti	x4,x29,1193	 x29:0x00000001  x4=0x00000001
       65485000	      6547	80004dd8	ff771c03	lh	x24,-9(x14)	 x14:0x800084df x24=0x000000d3 PA:0x800084d6
       65495000	      6548	80004ddc	000b1b93	slli	x23,x22,0x0	 x22:0xfffc4000 x23=0xfffc4000
       65505000	      6549	80004de0	00470183	lb	x3,4(x14)	 x14:0x800084df  x3=0xffffff9a PA:0x800084e3
       65515000	      6550	80004de4	006e60b3	or	x1,x28,x6	 x28:0x80009ec8  x6:0x00000000  x1=0x80009ec8
       65525000	      6551	80004de8	0130d293	srli	x5,x1,0x13	  x1:0x80009ec8  x5=0x00001000
       65535000	      6552	80004dec	ff172f03	lw	x30,-15(x14)	 x14:0x800084df x30=0x0000ffda PA:0x800084d0
       65545000	      6553	80004df0	04e31663	bne	x6,x14,80004e3c	  x6:0x00000000 x14:0x800084df
       65555000	      6554	00000000	00000013	addi	x0,x0,0	  x0:0x00000000
       65565000	      6555	80004e38	00000013	addi	x0,x0,0	  x0:0x00000000
       65575000	      6556	80004e3c	9c203893	sltiu	x17,x0,-1598	  x0:0x00000000 x17=0x00000001
       65585000	      6557	80004e40	2179aa13	slti	x20,x19,535	 x19:0x00000800 x20=0x00000000
       65595000	      6558	80004e44	d3e84f13	xori	x30,x16,-706	 x16:0x80009fc4 x30=0x7fff62fa
       65605000	      6559	80004e48	41195793	srai	x15,x18,0x11	 x18:0x00000000 x15=0x00000000
       65615000	      6560	80004e4c	002641b3	xor	x3,x12,x2	 x12:0xc56d9001  x2:0x00000001  x3=0xc56d9000
       65625000	      6561	80004e50	01cb2233	slt	x4,x22,x28	 x22:0xfffc4000 x28:0x80009ec8  x4=0x00000000
       65635000	      6562	80004e54	01e35313	srli	x6,x6,0x1e	  x6:0x00000000  x6=0x00000000
       65645000	      6563	80004e58	00b1bdb3	sltu	x27,x3,x11	  x3:0xc56d9000 x11:0x80009fc4 x27=0x00000000
       65655000	      6564	80004e5c	406f8933	sub	x18,x31,x6	 x31:0x00000080  x6:0x00000000 x18=0x00000080
       65665000	      6565	80004e60	00133c33	sltu	x24,x6,x1	  x6:0x00000000  x1:0x80009ec8 x24=0x00000001
       65675000	      6566	80004e64	005b1713	slli	x14,x22,0x5	 x22:0xfffc4000 x14=0xff880000
       65685000	      6567	80004e68	f65c3b93	sltiu	x23,x24,-155	 x24:0x00000001 x23=0x00000001
       65695000	      6568	80004e6c	01055d93	srli	x27,x10,0x10	 x10:0x00000002 x27=0x00000000
       65705000	      6569	80004e70	04c4fe93	andi	x29,x9,76	  x9:0xd56d9001 x29=0x00000000
       65715000	      6570	80004e74	78204393	xori	x7,x0,1922	  x0:0x00000000  x7=0x00000782
       65725000	      6571	80004e78	98413a13	sltiu	x20,x2,-1660	  x2:0x00000001 x20=0x00000001
       65735000	      6572	80004e7c	2249b437	lui	x8,0x2249b	  x8=0x2249b000
       65745000	      6573	80004e80	01555a13	srli	x20,x10,0x15	 x10:0x00000002 x20=0x00000000
       65755000	      6574	80004e84	41f7df13	srai	x30,x15,0x1f	 x15:0x00000000 x30=0x00000000
       65765000	      6575	80004e88	01aacab3	xor	x21,x21,x26	 x21:0xffffffff x26:0x80000000 x21=0x7fffffff
       65775000	      6576	80004e8c	0234ea63	bltu	x9,x3,80004ec0	  x9:0xd56d9001  x3:0xc56d9000
       65785000	      6577	80004e90	5323ba13	sltiu	x20,x7,1330	  x7:0x00000782 x20=0x00000000
       65795000	      6578	80004e94	00efaab3	slt	x21,x31,x14	 x31:0x00000080 x14:0xff880000 x21=0x00000000
       65805000	      6579	80004e98	01a07263	bgeu	x0,x26,80004e9c	  x0:0x00000000 x26:0x80000000
       65815000	      6580	80004e9c	03244063	blt	x8,x18,80004ebc	  x8:0x2249b000 x18:0x00000080
       65825000	      6581	80004ea0	00179513	slli	x10,x15,0x1	 x15:0x00000000 x10=0x00000000
       65835000	      6582	80004ea4	0140cdb3	xor	x27,x1,x20	  x1:0x80009ec8 x20:0x00000000 x27=0x80009ec8
       65845000	      6583	80004ea8	00f6c2b3	xor	x5,x13,x15	 x13:0x00000000 x15:0x00000000  x5=0x00000000
       65855000	      6584	80004eac	016c8263	beq	x25,x22,80004eb0	 x25:0x53cf5000 x22:0xfffc4000
       65865000	      6585	80004eb0	03b09063	bne	x1,x27,80004ed0	  x1:0x80009ec8 x27:0x80009ec8
       65875000	      6586	80004eb4	046d8063	beq	x27,x6,80004ef4	 x27:0x80009ec8  x6:0x00000000
       65885000	      6587	80004eb8	b689e593	ori	x11,x19,-1176	 x19:0x00000800 x11=0xfffffb68
       65895000	      6588	80004ebc	02ad7e63	bgeu	x26,x10,80004ef8	 x26:0x80000000 x10:0x00000000
       65905000	      6589	00000000	00000013	addi	x0,x0,0	  x0:0x00000000
       65915000	      6590	80004ef4	00000013	addi	x0,x0,0	  x0:0x00000000
       65925000	      6591	80004ef8	01729493	slli	x9,x5,0x17	  x5:0x00000000  x9=0x00000000
       65935000	      6592	80004efc	04a48063	beq	x9,x10,80004f3c	  x9:0x00000000 x10:0x00000000
       65945000	      6593	00000000	00000013	addi	x0,x0,0	  x0:0x00000000
       65955000	      6594	80004f38	00000013	addi	x0,x0,0	  x0:0x00000000
       65965000	      6595	80004f3c	002095b3	sll	x11,x1,x2	  x1:0x80009ec8  x2:0x00000001 x11=0x00013d90
       65975000	      6596	80004f40	00000013	addi	x0,x0,0	  x0:0x00000000
       65985000	      6597	80004f44	47d6cc13	xori	x24,x13,1149	 x13:0x00000000 x24=0x0000047d
       65995000	      6598	80004f48	015a5a63	bge	x20,x21,80004f5c	 x20:0x00000000 x21:0x00000000
       66005000	      6599	00000000	00000013	addi	x0,x0,0	  x0:0x00000000
       66015000	      6600	80004f58	00000013	addi	x0,x0,0	  x0:0x00000000
       66025000	      6601	80004f5c	b2e23a93	sltiu	x21,x4,-1234	  x4:0x00000000 x21=0x00000001
       66035000	      6602	80004f60	018867b3	or	x15,x16,x24	 x16:0x80009fc4 x24:0x0000047d x15=0x80009ffd
       66045000	      6603	80004f64	018174b3	and	x9,x2,x24	  x2:0x00000001 x24:0x0000047d  x9=0x00000001
       66055000	      6604	80004f68	01ad93b3	sll	x7,x27,x26	 x27:0x80009ec8 x26:0x80000000  x7=0x80009ec8
       66065000	      6605	80004f6c	cf6efe93	andi	x29,x29,-778	 x29:0x00000000 x29=0x00000000
       66075000	      6606	80004f70	b1ee7493	andi	x9,x28,-1250	 x28:0x80009ec8  x9=0x80009a08
       66085000	      6607	80004f74	0344d263	bge	x9,x20,80004f98	  x9:0x80009a08 x20:0x00000000
       66095000	      6608	80004f78	01973cb3	sltu	x25,x14,x25	 x14:0xff880000 x25:0x53cf5000 x25=0x00000000
       66105000	      6609	80004f7c	00005663	bge	x0,x0,80004f88	  x0:0x00000000  x0:0x00000000
       66115000	      6610	00000000	00000013	addi	x0,x0,0	  x0:0x00000000
       66125000	      6611	80004f84	00000013	addi	x0,x0,0	  x0:0x00000000
       66135000	      6612	80004f88	00000013	addi	x0,x0,0	  x0:0x00000000
       66145000	      6613	80004f8c	9bc60693	addi	x13,x12,-1604	 x12:0xc56d9001 x13=0xc56d89bd
       66155000	      6614	80004f90	02398063	beq	x19,x3,80004fb0	 x19:0x00000800  x3:0xc56d9000
       66165000	      6615	80004f94	012e06b3	add	x13,x28,x18	 x28:0x80009ec8 x18:0x00000080 x13=0x80009f48
       66175000	      6616	80004f98	04b31663	bne	x6,x11,80004fe4	  x6:0x00000000 x11:0x00013d90
       66185000	      6617	00000000	00000013	addi	x0,x0,0	  x0:0x00000000
       66195000	      6618	80004fe0	00000013	addi	x0,x0,0	  x0:0x00000000
       66205000	      6619	80004fe4	cc0d3f93	sltiu	x31,x26,-832	 x26:0x80000000 x31=0x00000001
       66215000	      6620	80004fe8	6488a1b7	lui	x3,0x6488a	  x3=0x6488a000
       66225000	      6621	80004fec	015c26b3	slt	x13,x24,x21	 x24:0x0000047d x21:0x00000001 x13=0x00000000
       66235000	      6622	80004ff0	5da65297	auipc	x5,0x5da65	  x5=0xdda69fec
       66245000	      6623	80004ff4	01601b93	slli	x23,x0,0x16	  x0:0x00000000 x23=0x00000000
       66255000	      6624	80004ff8	b4030513	addi	x10,x6,-1216	  x6:0x00000000 x10=0xfffffb40
       66265000	      6625	80004ffc	01a67f33	and	x30,x12,x26	 x12:0xc56d9001 x26:0x80000000 x30=0x80000000
       66275000	      6626	80005000	004d1493	slli	x9,x26,0x4	 x26:0x80000000  x9=0x00000000
       66285000	      6627	80005004	41d3d193	srai	x3,x7,0x1d	  x7:0x80009ec8  x3=0xfffffffc
       66295000	      6628	80005008	00951663	bne	x10,x9,80005014	 x10:0xfffffb40  x9:0x00000000
       66305000	      6629	00000000	00000013	addi	x0,x0,0	  x0:0x00000000
       66315000	      6630	80005010	00000013	addi	x0,x0,0	  x0:0x00000000
       66325000	      6631	80005014	41010033	sub	x0,x2,x16	  x2:0x00000001 x16:0x80009fc4
       66335000	      6632	80005018	00447433	and	x8,x8,x4	  x8:0x2249b000  x4:0x00000000  x8=0x00000000
       66345000	      6633	8000501c	0144c263	blt	x9,x20,80005020	  x9:0x00000000 x20:0x00000000
       66355000	      6634	80005020	00801933	sll	x18,x0,x8	  x0:0x00000000  x8:0x00000000 x18=0x00000000
       66365000	      6635	80005024	00d86663	bltu	x16,x13,80005030	 x16:0x80009fc4 x13:0x00000000
       66375000	      6636	80005028	40d3d993	srai	x19,x7,0xd	  x7:0x80009ec8 x19=0xfffc0004
       66385000	      6637	8000502c	02585e63	bge	x16,x5,80005068	 x16:0x80009fc4  x5:0xdda69fec
       66395000	      6638	80005030	41698633	sub	x12,x19,x22	 x19:0xfffc0004 x22:0xfffc4000 x12=0xffffc004
       66405000	      6639	80005034	002de0b3	or	x1,x27,x2	 x27:0x80009ec8  x2:0x00000001  x1=0x80009ec9
       66415000	      6640	80005038	40340a33	sub	x20,x8,x3	  x8:0x00000000  x3:0xfffffffc x20=0x00000004
       66425000	      6641	8000503c	15527d93	andi	x27,x4,341	  x4:0x00000000 x27=0x00000000
       66435000	      6642	80005040	c8c1e917	auipc	x18,0xc8c1e	 x18=0x48c2303c
       66445000	      6643	80005044	00000013	addi	x0,x0,0	  x0:0x00000000
       66455000	      6644	80005048	017575b3	and	x11,x10,x23	 x10:0xfffffb40 x23:0x00000000 x11=0x00000000
       66465000	      6645	8000504c	40f6d593	srai	x11,x13,0xf	 x13:0x00000000 x11=0x00000000
       66475000	      6646	80005050	9c452c13	slti	x24,x10,-1596	 x10:0xfffffb40 x24=0x00000000
       66485000	      6647	80005054	00d45193	srli	x3,x8,0xd	  x8:0x00000000  x3=0x00000000
       66495000	      6648	80005058	caa8c793	xori	x15,x17,-854	 x17:0x00000001 x15=0xfffffcab
       66505000	      6649	8000505c	407504b3	sub	x9,x10,x7	 x10:0xfffffb40  x7:0x80009ec8  x9=0x7fff5c78
       66515000	      6650	80005060	019f0433	add	x8,x30,x25	 x30:0x80000000 x25:0x00000000  x8=0x80000000
       66525000	      6651	80005064	94cb7593	andi	x11,x22,-1716	 x22:0xfffc4000 x11=0xfffc4000
       66535000	      6652	80005068	043fe063	bltu	x31,x3,800050a8	 x31:0x00000001  x3:0x00000000
       66545000	      6653	8000506c	419102b3	sub	x5,x2,x25	  x2:0x00000001 x25:0x00000000  x5=0x00000001
       66555000	      6654	80005070	005c5513	srli	x10,x24,0x5	 x24:0x00000000 x10=0x00000000
       66565000	      6655	80005074	3a3a9d97	auipc	x27,0x3a3a9	 x27=0xba3ae070
       66575000	      6656	80005078	407ed893	srai	x17,x29,0x7	 x29:0x00000000 x17=0x00000000
       66585000	      6657	8000507c	acd50613	addi	x12,x10,-1331	 x10:0x00000000 x12=0xfffffacd
       66595000	      6658	80005080	01de9313	slli	x6,x29,0x1d	 x29:0x00000000  x6=0x00000000
       66605000	      6659	80005084	d8f0e213	ori	x4,x1,-625	  x1:0x80009ec9  x4=0xffffffcf
       66615000	      6660	80005088	01400033	add	x0,x0,x20	  x0:0x00000000 x20:0x00000004
       66625000	      6661	8000508c	00717233	and	x4,x2,x7	  x2:0x00000001  x7:0x80009ec8  x4=0x00000000
       66635000	      6662	80005090	02c6c063	blt	x13,x12,800050b0	 x13:0x00000000 x12:0xfffffacd
       66645000	      6663	80005094	7b05c513	xori	x10,x11,1968	 x11:0xfffc4000 x10=0xfffc47b0
       66655000	      6664	80005098	03431063	bne	x6,x20,800050b8	  x6:0x00000000 x20:0x00000004
       66665000	      6665	00000000	00000013	addi	x0,x0,0	  x0:0x00000000
       66675000	      6666	800050b4	00000013	addi	x0,x0,0	  x0:0x00000000
       66685000	      6667	800050b8	0127a633	slt	x12,x15,x18	 x15:0xfffffcab x18:0x48c2303c x12=0x00000001
       66695000	      6668	800050bc	f471e893	ori	x17,x3,-185	  x3:0x00000000 x17=0xffffff47
       66705000	      6669	800050c0	00acb033	sltu	x0,x25,x10	 x25:0x00000000 x10:0xfffc47b0
       66715000	      6670	800050c4	00aafc63	bgeu	x21,x10,800050dc	 x21:0x00000001 x10:0xfffc47b0
       66725000	      6671	800050c8	03c96e63	bltu	x18,x28,80005104	 x18:0x48c2303c x28:0x80009ec8
       66735000	      6672	00000000	00000013	addi	x0,x0,0	  x0:0x00000000
       66745000	      6673	80005100	00000013	addi	x0,x0,0	  x0:0x00000000
       66755000	      6674	80005104	002af5b3	and	x11,x21,x2	 x21:0x00000001  x2:0x00000001 x11=0x00000001
       66765000	      6675	80005108	019d5ab3	srl	x21,x26,x25	 x26:0x80000000 x25:0x00000000 x21=0x80000000
       66775000	      6676	8000510c	040b7863	bgeu	x22,x0,8000515c	 x22:0xfffc4000  x0:0x00000000
       66785000	      6677	00000000	00000013	addi	x0,x0,0	  x0:0x00000000
       66795000	      6678	80005158	00000013	addi	x0,x0,0	  x0:0x00000000
       66805000	      6679	8000515c	01dee863	bltu	x29,x29,8000516c	 x29:0x00000000 x29:0x00000000
       66815000	      6680	80005160	58598313	addi	x6,x19,1413	 x19:0xfffc0004  x6=0xfffc0589
       66825000	      6681	80005164	fe69c8b7	lui	x17,0xfe69c	 x17=0xfe69c000
       66835000	      6682	80005168	9c0ec997	auipc	x19,0x9c0ec	 x19=0x1c0f1164
       66845000	      6683	8000516c	74a6f513	andi	x10,x13,1866	 x13:0x00000000 x10=0x00000000
       66855000	      6684	80005170	05454663	blt	x10,x20,800051bc	 x10:0x00000000 x20:0x00000004
       66865000	      6685	00000000	00000013	addi	x0,x0,0	  x0:0x00000000
       66875000	      6686	800051b8	00000013	addi	x0,x0,0	  x0:0x00000000
       66885000	      6687	800051bc	18c3ef93	ori	x31,x7,396	  x7:0x80009ec8 x31=0x80009fcc
       66895000	      6688	800051c0	04037063	bgeu	x6,x0,80005200	  x6:0xfffc0589  x0:0x00000000
       66905000	      6689	00000000	00000013	addi	x0,x0,0	  x0:0x00000000
       66915000	      6690	800051fc	00000013	addi	x0,x0,0	  x0:0x00000000
       66925000	      6691	80005200	00b51893	slli	x17,x10,0xb	 x10:0x00000000 x17=0x00000000
       66935000	      6692	80005204	00000013	addi	x0,x0,0	  x0:0x00000000
       66945000	      6693	80005208	0339de63	bge	x19,x19,80005244	 x19:0x1c0f1164 x19:0x1c0f1164
       66955000	      6694	00000000	00000013	addi	x0,x0,0	  x0:0x00000000
       66965000	      6695	80005240	00000013	addi	x0,x0,0	  x0:0x00000000
       66975000	      6696	80005244	9ead0913	addi	x18,x26,-1558	 x26:0x80000000 x18=0x7ffff9ea
       66985000	      6697	80005248	0025c3b3	xor	x7,x11,x2	 x11:0x00000001  x2:0x00000001  x7=0x00000000
       66995000	      6698	8000524c	00a99013	slli	x0,x19,0xa	 x19:0x1c0f1164
       67005000	      6699	80005250	4c729c37	lui	x24,0x4c729	 x24=0x4c729000
       67015000	      6700	80005254	41b209b3	sub	x19,x4,x27	  x4:0x00000000 x27:0xba3ae070 x19=0x45c51f90
       67025000	      6701	80005258	01bcbab3	sltu	x21,x25,x27	 x25:0x00000000 x27:0xba3ae070 x21=0x00000001
       67035000	      6702	8000525c	013c9c13	slli	x24,x25,0x13	 x25:0x00000000 x24=0x00000000
       67045000	      6703	80005260	0411e263	bltu	x3,x1,800052a4	  x3:0x00000000  x1:0x80009ec9
       67055000	      6704	00000000	00000013	addi	x0,x0,0	  x0:0x00000000
       67065000	      6705	800052a0	00000013	addi	x0,x0,0	  x0:0x00000000
       67075000	      6706	800052a4	034e4e63	blt	x28,x20,800052e0	 x28:0x80009ec8 x20:0x00000004
       67085000	      6707	00000000	00000013	addi	x0,x0,0	  x0:0x00000000
       67095000	      6708	800052dc	00000013	addi	x0,x0,0	  x0:0x00000000
       67105000	      6709	800052e0	0091fc33	and	x24,x3,x9	  x3:0x00000000  x9:0x7fff5c78 x24=0x00000000
       67115000	      6710	800052e4	0016b333	sltu	x6,x13,x1	 x13:0x00000000  x1:0x80009ec9  x6=0x00000001
       67125000	      6711	800052e8	40b986b3	sub	x13,x19,x11	 x19:0x45c51f90 x11:0x00000001 x13=0x45c51f8f
       67135000	      6712	800052ec	02dd0263	beq	x26,x13,80005310	 x26:0x80000000 x13:0x45c51f8f
       67145000	      6713	800052f0	00389a13	slli	x20,x17,0x3	 x17:0x00000000 x20=0x00000000
       67155000	      6714	800052f4	6d820093	addi	x1,x4,1752	  x4:0x00000000  x1=0x000006d8
       67165000	      6715	800052f8	02914863	blt	x2,x9,80005328	  x2:0x00000001  x9:0x7fff5c78
       67175000	      6716	00000000	00000013	addi	x0,x0,0	  x0:0x00000000
       67185000	      6717	80005324	00000013	addi	x0,x0,0	  x0:0x00000000
       67195000	      6718	80005328	01ae8663	beq	x29,x26,80005334	 x29:0x00000000 x26:0x80000000
       67205000	      6719	8000532c	c1927413	andi	x8,x4,-999	  x4:0x00000000  x8=0x00000000
       67215000	      6720	80005330	62718f93	addi	x31,x3,1575	  x3:0x00000000 x31=0x00000627
       67225000	      6721	80005334	01578663	beq	x15,x21,80005340	 x15:0xfffffcab x21:0x00000001
       67235000	      6722	80005338	0046d733	srl	x14,x13,x4	 x13:0x45c51f8f  x4:0x00000000 x14=0x45c51f8f
       67245000	      6723	8000533c	01c62793	slti	x15,x12,28	 x12:0x00000001 x15=0x00000001
       67255000	      6724	80005340	04ac8663	beq	x25,x10,8000538c	 x25:0x00000000 x10:0x00000000
       67265000	      6725	00000000	00000013	addi	x0,x0,0	  x0:0x00000000
       67275000	      6726	80005388	00000013	addi	x0,x0,0	  x0:0x00000000
       67285000	      6727	8000538c	ee22a713	slti	x14,x5,-286	  x5:0x00000001 x14=0x00000000
       67295000	      6728	80005390	01a25913	srli	x18,x4,0x1a	  x4:0x00000000 x18=0x00000000
       67305000	      6729	80005394	018e5293	srli	x5,x28,0x18	 x28:0x80009ec8  x5=0x00000080
       67315000	      6730	80005398	406d5cb3	sra	x25,x26,x6	 x26:0x80000000  x6:0x00000001 x25=0xc0000000
       67325000	      6731	8000539c	79d7cb17	auipc	x22,0x79d7c	 x22=0xf9d81398
       67335000	      6732	800053a0	004cc3b3	xor	x7,x25,x4	 x25:0xc0000000  x4:0x00000000  x7=0xc0000000
       67345000	      6733	800053a4	41905b33	sra	x22,x0,x25	  x0:0x00000000 x25:0xc0000000 x22=0x00000000
       67355000	      6734	800053a8	e734ee93	ori	x29,x9,-397	  x9:0x7fff5c78 x29=0xfffffe7b
       67365000	      6735	800053ac	01ed9193	slli	x3,x27,0x1e	 x27:0xba3ae070  x3=0x00000000
       67375000	      6736	800053b0	00a94333	xor	x6,x18,x10	 x18:0x00000000 x10:0x00000000  x6=0x00000000
       67385000	      6737	800053b4	00000013	addi	x0,x0,0	  x0:0x00000000
       67395000	      6738	800053b8	02366e63	bltu	x12,x3,800053f4	 x12:0x00000001  x3:0x00000000
       67405000	      6739	800053bc	0137a1b3	slt	x3,x15,x19	 x15:0x00000001 x19:0x45c51f90  x3=0x00000001
       67415000	      6740	800053c0	014cf863	bgeu	x25,x20,800053d0	 x25:0xc0000000 x20:0x00000000
       67425000	      6741	00000000	00000013	addi	x0,x0,0	  x0:0x00000000
       67435000	      6742	800053cc	00000013	addi	x0,x0,0	  x0:0x00000000
       67445000	      6743	800053d0	012973b3	and	x7,x18,x18	 x18:0x00000000 x18:0x00000000  x7=0x00000000
       67455000	      6744	800053d4	02805263	bge	x0,x8,800053f8	  x0:0x00000000  x8:0x00000000
       67465000	      6745	00000000	00000013	addi	x0,x0,0	  x0:0x00000000
       67475000	      6746	800053f4	00000013	addi	x0,x0,0	  x0:0x00000000
       67485000	      6747	800053f8	7bf26e93	ori	x29,x4,1983	  x4:0x00000000 x29=0x000007bf
       67495000	      6748	800053fc	174f5597	auipc	x11,0x174f5	 x11=0x974fa3f8
       67505000	      6749	80005400	01fdb6b3	sltu	x13,x27,x31	 x27:0xba3ae070 x31:0x00000627 x13=0x00000000
       67515000	      6750	80005404	00000013	addi	x0,x0,0	  x0:0x00000000
       67525000	      6751	80005408	08b1f613	andi	x12,x3,139	  x3:0x00000001 x12=0x00000001
       67535000	      6752	8000540c	030edc63	bge	x29,x16,80005444	 x29:0x000007bf x16:0x80009fc4
       67545000	      6753	00000000	00000013	addi	x0,x0,0	  x0:0x00000000
       67555000	      6754	80005440	00000013	addi	x0,x0,0	  x0:0x00000000
       67565000	      6755	80005444	00c374b3	and	x9,x6,x12	  x6:0x00000000 x12:0x00000001  x9=0x00000000
       67575000	      6756	80005448	f6af5497	auipc	x9,0xf6af5	  x9=0x76afa444
       67585000	      6757	8000544c	04b97663	bgeu	x18,x11,80005498	 x18:0x00000000 x11:0x974fa3f8
       67595000	      6758	80005450	6cdb49b7	lui	x19,0x6cdb4	 x19=0x6cdb4000
       67605000	      6759	80005454	c1928013	addi	x0,x5,-999	  x5:0x00000080
       67615000	      6760	80005458	04ca1863	bne	x20,x12,800054a8	 x20:0x00000000 x12:0x00000001
       67625000	      6761	00000000	00000013	addi	x0,x0,0	  x0:0x00000000
       67635000	      6762	800054a4	00000013	addi	x0,x0,0	  x0:0x00000000
       67645000	      6763	800054a8	02071463	bne	x14,x0,800054d0	 x14:0x00000000  x0:0x00000000
       67655000	      6764	800054ac	82c18413	addi	x8,x3,-2004	  x3:0x00000001  x8=0xfffff82d
       67665000	      6765	800054b0	05b54263	blt	x10,x27,800054f4	 x10:0x00000000 x27:0xba3ae070
       67675000	      6766	800054b4	0931e493	ori	x9,x3,147	  x3:0x00000001  x9=0x00000093
       67685000	      6767	800054b8	0120e333	or	x6,x1,x18	  x1:0x000006d8 x18:0x00000000  x6=0x000006d8
       67695000	      6768	800054bc	0099e333	or	x6,x19,x9	 x19:0x6cdb4000  x9:0x00000093  x6=0x6cdb4093
       67705000	      6769	800054c0	d23c6313	ori	x6,x24,-733	 x24:0x00000000  x6=0xfffffd23
       67715000	      6770	800054c4	00366033	or	x0,x12,x3	 x12:0x00000001  x3:0x00000001
       67725000	      6771	800054c8	c6032c17	auipc	x24,0xc6032	 x24=0x460374c4
       67735000	      6772	800054cc	6c050ab7	lui	x21,0x6c050	 x21=0x6c050000
       67745000	      6773	800054d0	00000013	addi	x0,x0,0	  x0:0x00000000
       67755000	      6774	800054d4	02ca0063	beq	x20,x12,800054f4	 x20:0x00000000 x12:0x00000001
       67765000	      6775	800054d8	41fbd2b3	sra	x5,x23,x31	 x23:0x00000000 x31:0x00000627  x5=0x00000000
       67775000	      6776	800054dc	04041063	bne	x8,x0,8000551c	  x8:0xfffff82d  x0:0x00000000
       67785000	      6777	00000000	00000013	addi	x0,x0,0	  x0:0x00000000
       67795000	      6778	80005518	00000013	addi	x0,x0,0	  x0:0x00000000
       67805000	      6779	8000551c	016091b3	sll	x3,x1,x22	  x1:0x000006d8 x22:0x00000000  x3=0x000006d8
       67815000	      6780	80005520	30e2c737	lui	x14,0x30e2c	 x14=0x30e2c000
       67825000	      6781	80005524	00e09eb3	sll	x29,x1,x14	  x1:0x000006d8 x14:0x30e2c000 x29=0x000006d8
       67835000	      6782	80005528	01d00a63	beq	x0,x29,8000553c	  x0:0x00000000 x29:0x000006d8
       67845000	      6783	8000552c	22660013	addi	x0,x12,550	 x12:0x00000001
       67855000	      6784	80005530	204a23b7	lui	x7,0x204a2	  x7=0x204a2000
       67865000	      6785	80005534	01ec0133	add	x2,x24,x30	 x24:0x460374c4 x30:0x80000000  x2=0xc60374c4
       67875000	      6786	80005538	0060a333	slt	x6,x1,x6	  x1:0x000006d8  x6:0xfffffd23  x6=0x00000000
       67885000	      6787	8000553c	00000013	addi	x0,x0,0	  x0:0x00000000
       67895000	      6788	80005540	41b95fb3	sra	x31,x18,x27	 x18:0x00000000 x27:0xba3ae070 x31=0x00000000
       67905000	      6789	80005544	f95be013	ori	x0,x23,-107	 x23:0x00000000
       67915000	      6790	80005548	cbc66a13	ori	x20,x12,-836	 x12:0x00000001 x20=0xfffffcbd
       67925000	      6791	8000554c	00000013	addi	x0,x0,0	  x0:0x00000000
       67935000	      6792	80005550	01130233	add	x4,x6,x17	  x6:0x00000000 x17:0x00000000  x4=0x00000000
       67945000	      6793	80005554	b7a46913	ori	x18,x8,-1158	  x8:0xfffff82d x18=0xfffffb7f
       67955000	      6794	80005558	2bf30213	addi	x4,x6,703	  x6:0x00000000  x4=0x000002bf
       67965000	      6795	8000555c	40b55d93	srai	x27,x10,0xb	 x10:0x00000000 x27=0x00000000
       67975000	      6796	80005560	1e2df993	andi	x19,x27,482	 x27:0x00000000 x19=0x00000000
       67985000	      6797	80005564	c424c013	xori	x0,x9,-958	  x9:0x00000093
       67995000	      6798	80005568	a22b8d97	auipc	x27,0xa22b8	 x27=0x222bd564
       68005000	      6799	8000556c	01974533	xor	x10,x14,x25	 x14:0x30e2c000 x25:0xc0000000 x10=0xf0e2c000
       68015000	      6800	80005570	404550b3	sra	x1,x10,x4	 x10:0xf0e2c000  x4:0x000002bf  x1=0xffffffff
       68025000	      6801	80005574	4931af93	slti	x31,x3,1171	  x3:0x000006d8 x31=0x00000000
       68035000	      6802	80005578	40aa5233	sra	x4,x20,x10	 x20:0xfffffcbd x10:0xf0e2c000  x4=0xfffffcbd
       68045000	      6803	8000557c	00869b93	slli	x23,x13,0x8	 x13:0x00000000 x23=0x00000000
       68055000	      6804	80005580	059cc063	blt	x25,x25,800055c0	 x25:0xc0000000 x25:0xc0000000
       68065000	      6805	80005584	0196a5b3	slt	x11,x13,x25	 x13:0x00000000 x25:0xc0000000 x11=0x00000000
       68075000	      6806	80005588	0341d063	bge	x3,x20,800055a8	  x3:0x000006d8 x20:0xfffffcbd
       68085000	      6807	00000000	00000013	addi	x0,x0,0	  x0:0x00000000
       68095000	      6808	800055a4	00000013	addi	x0,x0,0	  x0:0x00000000
       68105000	      6809	800055a8	006a7863	bgeu	x20,x6,800055b8	 x20:0xfffffcbd  x6:0x00000000
       68115000	      6810	00000000	00000013	addi	x0,x0,0	  x0:0x00000000
       68125000	      6811	800055b4	00000013	addi	x0,x0,0	  x0:0x00000000
       68135000	      6812	800055b8	00000013	addi	x0,x0,0	  x0:0x00000000
       68145000	      6813	800055bc	903e6117	auipc	x2,0x903e6	  x2=0x103eb5b8
       68155000	      6814	800055c0	014f2533	slt	x10,x30,x20	 x30:0x80000000 x20:0xfffffcbd x10=0x00000001
       68165000	      6815	800055c4	001871b3	and	x3,x16,x1	 x16:0x80009fc4  x1:0xffffffff  x3=0x80009fc4
       68175000	      6816	800055c8	00df4c33	xor	x24,x30,x13	 x30:0x80000000 x13:0x00000000 x24=0x80000000
       68185000	      6817	800055cc	00aba533	slt	x10,x23,x10	 x23:0x00000000 x10:0x00000001 x10=0x00000001
       68195000	      6818	800055d0	e4a1f313	andi	x6,x3,-438	  x3:0x80009fc4  x6=0x80009e40
       68205000	      6819	800055d4	b6b0d217	auipc	x4,0xb6b0d	  x4=0x36b125d0
       68215000	      6820	800055d8	00000013	addi	x0,x0,0	  x0:0x00000000
       68225000	      6821	800055dc	407a8ab3	sub	x21,x21,x7	 x21:0x6c050000  x7:0x204a2000 x21=0x4bbae000
       68235000	      6822	800055e0	025b0c63	beq	x22,x5,80005618	 x22:0x00000000  x5:0x00000000
       68245000	      6823	00000000	00000013	addi	x0,x0,0	  x0:0x00000000
       68255000	      6824	80005614	00000013	addi	x0,x0,0	  x0:0x00000000
       68265000	      6825	80005618	003117b3	sll	x15,x2,x3	  x2:0x103eb5b8  x3:0x80009fc4 x15=0x03eb5b80
       68275000	      6826	8000561c	40735093	srai	x1,x6,0x7	  x6:0x80009e40  x1=0xff00013c
       68285000	      6827	80005620	02440463	beq	x8,x4,80005648	  x8:0xfffff82d  x4:0x36b125d0
       68295000	      6828	80005624	93f0a593	slti	x11,x1,-1729	  x1:0xff00013c x11=0x00000001
       68305000	      6829	80005628	041e0393	addi	x7,x28,65	 x28:0x80009ec8  x7=0x80009f09
       68315000	      6830	8000562c	00a6e663	bltu	x13,x10,80005638	 x13:0x00000000 x10:0x00000001
       68325000	      6831	00000000	00000013	addi	x0,x0,0	  x0:0x00000000
       68335000	      6832	80005634	00000013	addi	x0,x0,0	  x0:0x00000000
       68345000	      6833	80005638	1a23f393	andi	x7,x7,418	  x7:0x80009f09  x7=0x00000100
       68355000	      6834	8000563c	f293cb93	xori	x23,x7,-215	  x7:0x00000100 x23=0xfffffe29
       68365000	      6835	80005640	00f65033	srl	x0,x12,x15	 x12:0x00000001 x15:0x03eb5b80
       68375000	      6836	80005644	004c0233	add	x4,x24,x4	 x24:0x80000000  x4:0x36b125d0  x4=0xb6b125d0
       68385000	      6837	80005648	054bd663	bge	x23,x20,80005694	 x23:0xfffffe29 x20:0xfffffcbd
       68395000	      6838	00000000	00000013	addi	x0,x0,0	  x0:0x00000000
       68405000	      6839	80005690	00000013	addi	x0,x0,0	  x0:0x00000000
       68415000	      6840	80005694	270df193	andi	x3,x27,624	 x27:0x222bd564  x3=0x00000060
       68425000	      6841	80005698	01249ab3	sll	x21,x9,x18	  x9:0x00000093 x18:0xfffffb7f x21=0x80000000
       68435000	      6842	8000569c	012c19b3	sll	x19,x24,x18	 x24:0x80000000 x18:0xfffffb7f x19=0x00000000
       68445000	      6843	800056a0	408c5913	srai	x18,x24,0x8	 x24:0x80000000 x18=0xff800000
       68455000	      6844	800056a4	9848e293	ori	x5,x17,-1660	 x17:0x00000000  x5=0xfffff984
       68465000	      6845	800056a8	01c3dc13	srli	x24,x7,0x1c	  x7:0x00000100 x24=0x00000000
       68475000	      6846	800056ac	00deec33	or	x24,x29,x13	 x29:0x000006d8 x13:0x00000000 x24=0x000006d8
       68485000	      6847	800056b0	00fa1f33	sll	x30,x20,x15	 x20:0xfffffcbd x15:0x03eb5b80 x30=0xfffffcbd
       68495000	      6848	800056b4	03237e63	bgeu	x6,x18,800056f0	  x6:0x80009e40 x18:0xff800000
       68505000	      6849	800056b8	01a24a63	blt	x4,x26,800056cc	  x4:0xb6b125d0 x26:0x80000000
       68515000	      6850	800056bc	66b9fc13	andi	x24,x19,1643	 x19:0x00000000 x24=0x00000000
       68525000	      6851	800056c0	415bd0b3	sra	x1,x23,x21	 x23:0xfffffe29 x21:0x80000000  x1=0xfffffe29
       68535000	      6852	800056c4	ac1c4b93	xori	x23,x24,-1343	 x24:0x00000000 x23=0xfffffac1
       68545000	      6853	800056c8	00411bb3	sll	x23,x2,x4	  x2:0x103eb5b8  x4:0xb6b125d0 x23=0xb5b80000
       68555000	      6854	800056cc	037ad063	bge	x21,x23,800056ec	 x21:0x80000000 x23:0xb5b80000
       68565000	      6855	800056d0	00ec4033	xor	x0,x24,x14	 x24:0x00000000 x14:0x30e2c000
       68575000	      6856	800056d4	01467533	and	x10,x12,x20	 x12:0x00000001 x20:0xfffffcbd x10=0x00000001
       68585000	      6857	800056d8	0400c063	blt	x1,x0,80005718	  x1:0xfffffe29  x0:0x00000000
       68595000	      6858	00000000	00000013	addi	x0,x0,0	  x0:0x00000000
       68605000	      6859	80005714	00000013	addi	x0,x0,0	  x0:0x00000000
       68615000	      6860	80005718	00000013	addi	x0,x0,0	  x0:0x00000000
       68625000	      6861	8000571c	0070cc33	xor	x24,x1,x7	  x1:0xfffffe29  x7:0x00000100 x24=0xffffff29
       68635000	      6862	80005720	00d2df13	srli	x30,x5,0xd	  x5:0xfffff984 x30=0x0007ffff
       68645000	      6863	80005724	010d6e63	bltu	x26,x16,80005740	 x26:0x80000000 x16:0x80009fc4
       68655000	      6864	00000000	00000013	addi	x0,x0,0	  x0:0x00000000
       68665000	      6865	8000573c	00000013	addi	x0,x0,0	  x0:0x00000000
       68675000	      6866	80005740	764c4393	xori	x7,x24,1892	 x24:0xffffff29  x7=0xfffff84d
       68685000	      6867	80005744	41335db3	sra	x27,x6,x19	  x6:0x80009e40 x19:0x00000000 x27=0x80009e40
       68695000	      6868	80005748	415c55b3	sra	x11,x24,x21	 x24:0xffffff29 x21:0x80000000 x11=0xffffff29
       68705000	      6869	8000574c	d8d3e913	ori	x18,x7,-627	  x7:0xfffff84d x18=0xfffffdcd
       68715000	      6870	80005750	0165b3b3	sltu	x7,x11,x22	 x11:0xffffff29 x22:0x00000000  x7=0x00000000
       68725000	      6871	80005754	016af263	bgeu	x21,x22,80005758	 x21:0x80000000 x22:0x00000000
       68735000	      6872	00000000	00000013	addi	x0,x0,0	  x0:0x00000000
       68745000	      6873	80005754	00000013	addi	x0,x0,0	  x0:0x00000000
       68755000	      6874	80005758	2d3da013	slti	x0,x27,723	 x27:0x80009e40
       68765000	      6875	8000575c	0179c863	blt	x19,x23,8000576c	 x19:0x00000000 x23:0xb5b80000
       68775000	      6876	80005760	b1f37513	andi	x10,x6,-1249	  x6:0x80009e40 x10=0x80009a00
       68785000	      6877	80005764	013b4863	blt	x22,x19,80005774	 x22:0x00000000 x19:0x00000000
       68795000	      6878	80005768	abda1397	auipc	x7,0xabda1	  x7=0x2bda6764
       68805000	      6879	8000576c	008c5393	srli	x7,x24,0x8	 x24:0xffffff29  x7=0x00ffffff
       68815000	      6880	80005770	017e6a33	or	x20,x28,x23	 x28:0x80009ec8 x23:0xb5b80000 x20=0xb5b89ec8
       68825000	      6881	80005774	00cfd393	srli	x7,x31,0xc	 x31:0x00000000  x7=0x00000000
       68835000	      6882	80005778	40825013	srai	x0,x4,0x8	  x4:0xb6b125d0
       68845000	      6883	8000577c	00000013	addi	x0,x0,0	  x0:0x00000000
       68855000	      6884	80005780	026ff863	bgeu	x31,x6,800057b0	 x31:0x00000000  x6:0x80009e40
       68865000	      6885	80005784	40025513	srai	x10,x4,0x0	  x4:0xb6b125d0 x10=0xb6b125d0
       68875000	      6886	80005788	0da45f97	auipc	x31,0xda45	 x31=0x8da4a784
       68885000	      6887	8000578c	023ac263	blt	x21,x3,800057b0	 x21:0x80000000  x3:0x00000060
       68895000	      6888	00000000	00000013	addi	x0,x0,0	  x0:0x00000000
       68905000	      6889	800057ac	00000013	addi	x0,x0,0	  x0:0x00000000
       68915000	      6890	800057b0	013fde93	srli	x29,x31,0x13	 x31:0x8da4a784 x29=0x000011b4
       68925000	      6891	800057b4	027c0063	beq	x24,x7,800057d4	 x24:0xffffff29  x7:0x00000000
       68935000	      6892	800057b8	05d58063	beq	x11,x29,800057f8	 x11:0xffffff29 x29:0x000011b4
       68945000	      6893	800057bc	022bf063	bgeu	x23,x2,800057dc	 x23:0xb5b80000  x2:0x103eb5b8
       68955000	      6894	00000000	00000013	addi	x0,x0,0	  x0:0x00000000
       68965000	      6895	800057d8	00000013	addi	x0,x0,0	  x0:0x00000000
       68975000	      6896	800057dc	01fc9e93	slli	x29,x25,0x1f	 x25:0xc0000000 x29=0x00000000
       68985000	      6897	800057e0	04730663	beq	x6,x7,8000582c	  x6:0x80009e40  x7:0x00000000
       68995000	      6898	800057e4	00326663	bltu	x4,x3,800057f0	  x4:0xb6b125d0  x3:0x00000060
       69005000	      6899	800057e8	00fbd8b3	srl	x17,x23,x15	 x23:0xb5b80000 x15:0x03eb5b80 x17=0xb5b80000
       69015000	      6900	800057ec	011ce663	bltu	x25,x17,800057f8	 x25:0xc0000000 x17:0xb5b80000
       69025000	      6901	800057f0	22995db7	lui	x27,0x22995	 x27=0x22995000
       69035000	      6902	800057f4	41885033	sra	x0,x16,x24	 x16:0x80009fc4 x24:0xffffff29
       69045000	      6903	800057f8	0171f9b3	and	x19,x3,x23	  x3:0x00000060 x23:0xb5b80000 x19=0x00000000
       69055000	      6904	800057fc	0038b933	sltu	x18,x17,x3	 x17:0xb5b80000  x3:0x00000060 x18=0x00000000
       69065000	      6905	80005800	63db6513	ori	x10,x22,1597	 x22:0x00000000 x10=0x0000063d
       69075000	      6906	80005804	003ff433	and	x8,x31,x3	 x31:0x8da4a784  x3:0x00000060  x8=0x00000000
       69085000	      6907	80005808	fe86a313	slti	x6,x13,-24	 x13:0x00000000  x6=0x00000000
       69095000	      6908	8000580c	1687e993	ori	x19,x15,360	 x15:0x03eb5b80 x19=0x03eb5be8
       69105000	      6909	80005810	000571b3	and	x3,x10,x0	 x10:0x0000063d  x0:0x00000000  x3=0x00000000
       69115000	      6910	80005814	b53c7c93	andi	x25,x24,-1197	 x24:0xffffff29 x25=0xfffffb01
       69125000	      6911	80005818	0e34ec13	ori	x24,x9,227	  x9:0x00000093 x24=0x000000f3
       69135000	      6912	8000581c	01e51113	slli	x2,x10,0x1e	 x10:0x0000063d  x2=0x40000000
       69145000	      6913	80005820	402e8233	sub	x4,x29,x2	 x29:0x00000000  x2:0x40000000  x4=0xc0000000
       69155000	      6914	80005824	01b155b3	srl	x11,x2,x27	  x2:0x40000000 x27:0x22995000 x11=0x40000000
       69165000	      6915	80005828	1ac77017	auipc	x0,0x1ac77	
       69175000	      6916	8000582c	18171737	lui	x14,0x18171	 x14=0x18171000
       69185000	      6917	80005830	00265193	srli	x3,x12,0x2	 x12:0x00000001  x3=0x00000000
       69195000	      6918	80005834	41815fb3	sra	x31,x2,x24	  x2:0x40000000 x24:0x000000f3 x31=0x00000800
       69205000	      6919	80005838	012e8c63	beq	x29,x18,80005850	 x29:0x00000000 x18:0x00000000
       69215000	      6920	00000000	00000013	addi	x0,x0,0	  x0:0x00000000
       69225000	      6921	8000584c	00000013	addi	x0,x0,0	  x0:0x00000000
       69235000	      6922	80005850	00000013	addi	x0,x0,0	  x0:0x00000000
       69245000	      6923	80005854	1051f113	andi	x2,x3,261	  x3:0x00000000  x2=0x00000000
       69255000	      6924	80005858	2121dd97	auipc	x27,0x2121d	 x27=0xa1222854
       69265000	      6925	8000585c	00000013	addi	x0,x0,0	  x0:0x00000000
       69275000	      6926	80005860	017a9613	slli	x12,x21,0x17	 x21:0x80000000 x12=0x00000000
       69285000	      6927	80005864	0368cc97	auipc	x25,0x368c	 x25=0x83691860
       69295000	      6928	80005868	01a64c93	xori	x25,x12,26	 x12:0x00000000 x25=0x0000001a
       69305000	      6929	8000586c	7f5fae93	slti	x29,x31,2037	 x31:0x00000800 x29=0x00000000
       69315000	      6930	80005870	104d0263	beq	x26,x4,80005974	 x26:0x80000000  x4:0xc0000000
       69325000	      6931	80005874	c3db8917	auipc	x18,0xc3db8	 x18=0x43dbd870
       69335000	      6932	80005878	41ebd2b3	sra	x5,x23,x30	 x23:0xb5b80000 x30:0x0007ffff  x5=0xffffffff
       69345000	      6933	8000587c	f85f6f13	ori	x30,x30,-123	 x30:0x0007ffff x30=0xffffffff
       69355000	      6934	80005880	00a02433	slt	x8,x0,x10	  x0:0x00000000 x10:0x0000063d  x8=0x00000001
       69365000	      6935	80005884	01906c33	or	x24,x0,x25	  x0:0x00000000 x25:0x0000001a x24=0x0000001a
       69375000	      6936	80005888	0041e7b3	or	x15,x3,x4	  x3:0x00000000  x4:0xc0000000 x15=0xc0000000
       69385000	      6937	8000588c	00185393	srli	x7,x16,0x1	 x16:0x80009fc4  x7=0x40004fe2
       69395000	      6938	80005890	403b5713	srai	x14,x22,0x3	 x22:0x00000000 x14=0x00000000
       69405000	      6939	80005894	1137e263	bltu	x15,x19,80005998	 x15:0xc0000000 x19:0x03eb5be8
       69415000	      6940	80005898	56d69997	auipc	x19,0x56d69	 x19=0xd6d6e894
       69425000	      6941	8000589c	0e750e63	beq	x10,x7,80005998	 x10:0x0000063d  x7:0x40004fe2
       69435000	      6942	800058a0	0f2d1263	bne	x26,x18,80005984	 x26:0x80000000 x18:0x43dbd870
       69445000	      6943	00000000	00000013	addi	x0,x0,0	  x0:0x00000000
       69455000	      6944	80005980	00000013	addi	x0,x0,0	  x0:0x00000000
       69465000	      6945	80005984	861f6713	ori	x14,x30,-1951	 x30:0xffffffff x14=0xffffffff
       69475000	      6946	80005988	01185313	srli	x6,x16,0x11	 x16:0x80009fc4  x6=0x00004000
       69485000	      6947	8000598c	4ce52513	slti	x10,x10,1230	 x10:0x0000063d x10=0x00000000
       69495000	      6948	80005990	009a7b33	and	x22,x20,x9	 x20:0xb5b89ec8  x9:0x00000093 x22=0x00000080
       69505000	      6949	80005994	0469e063	bltu	x19,x6,800059d4	 x19:0xd6d6e894  x6:0x00004000
       69515000	      6950	80005998	03cd8863	beq	x27,x28,800059c8	 x27:0xa1222854 x28:0x80009ec8
       69525000	      6951	8000599c	033b5a63	bge	x22,x19,800059d0	 x22:0x00000080 x19:0xd6d6e894
       69535000	      6952	00000000	00000013	addi	x0,x0,0	  x0:0x00000000
       69545000	      6953	800059cc	00000013	addi	x0,x0,0	  x0:0x00000000
       69555000	      6954	800059d0	01211533	sll	x10,x2,x18	  x2:0x00000000 x18:0x43dbd870 x10=0x00000000
       69565000	      6955	800059d4	0067b6b3	sltu	x13,x15,x6	 x15:0xc0000000  x6:0x00004000 x13=0x00000000
       69575000	      6956	800059d8	01e1d993	srli	x19,x3,0x1e	  x3:0x00000000 x19=0x00000000
       69585000	      6957	800059dc	a6dca593	slti	x11,x25,-1427	 x25:0x0000001a x11=0x00000000
       69595000	      6958	800059e0	8a12e213	ori	x4,x5,-1887	  x5:0xffffffff  x4=0xffffffff
       69605000	      6959	800059e4	00551393	slli	x7,x10,0x5	 x10:0x00000000  x7=0x00000000
       69615000	      6960	800059e8	0205e463	bltu	x11,x0,80005a10	 x11:0x00000000  x0:0x00000000
       69625000	      6961	800059ec	01fce4b3	or	x9,x25,x31	 x25:0x0000001a x31:0x00000800  x9=0x0000081a
       69635000	      6962	800059f0	014f8bb3	add	x23,x31,x20	 x31:0x00000800 x20:0xb5b89ec8 x23=0xb5b8a6c8
       69645000	      6963	800059f4	cf0425b7	lui	x11,0xcf042	 x11=0xcf042000
       69655000	      6964	800059f8	04e97663	bgeu	x18,x14,80005a44	 x18:0x43dbd870 x14:0xffffffff
       69665000	      6965	800059fc	019cd733	srl	x14,x25,x25	 x25:0x0000001a x25:0x0000001a x14=0x00000000
       69675000	      6966	80005a00	030b4063	blt	x22,x16,80005a20	 x22:0x00000080 x16:0x80009fc4
       69685000	      6967	80005a04	01f67333	and	x6,x12,x31	 x12:0x00000000 x31:0x00000800  x6=0x00000000
       69695000	      6968	80005a08	01a836b3	sltu	x13,x16,x26	 x16:0x80009fc4 x26:0x80000000 x13=0x00000000
       69705000	      6969	80005a0c	2e2f63b7	lui	x7,0x2e2f6	  x7=0x2e2f6000
       69715000	      6970	80005a10	efba60b7	lui	x1,0xefba6	  x1=0xefba6000
       69725000	      6971	80005a14	00801e93	slli	x29,x0,0x8	  x0:0x00000000 x29=0x00000000
       69735000	      6972	80005a18	6cb40697	auipc	x13,0x6cb40	 x13=0xecb45a14
       69745000	      6973	80005a1c	173f4193	xori	x3,x30,371	 x30:0xffffffff  x3=0xfffffe8c
       69755000	      6974	80005a20	0133a2b3	slt	x5,x7,x19	  x7:0x2e2f6000 x19:0x00000000  x5=0x00000000
       69765000	      6975	80005a24	402a0b33	sub	x22,x20,x2	 x20:0xb5b89ec8  x2:0x00000000 x22=0xb5b89ec8
       69775000	      6976	80005a28	00000013	addi	x0,x0,0	  x0:0x00000000
       69785000	      6977	80005a2c	01733733	sltu	x14,x6,x23	  x6:0x00000000 x23:0xb5b8a6c8 x14=0x00000001
       69795000	      6978	80005a30	6d797f93	andi	x31,x18,1751	 x18:0x43dbd870 x31=0x00000050
       69805000	      6979	80005a34	016b78b3	and	x17,x22,x22	 x22:0xb5b89ec8 x22:0xb5b89ec8 x17=0xb5b89ec8
       69815000	      6980	80005a38	b5e5c137	lui	x2,0xb5e5c	  x2=0xb5e5c000
       69825000	      6981	80005a3c	00d91633	sll	x12,x18,x13	 x18:0x43dbd870 x13:0xecb45a14 x12=0x87000000
       69835000	      6982	80005a40	d86f0513	addi	x10,x30,-634	 x30:0xffffffff x10=0xfffffd85
       69845000	      6983	80005a44	00d5d533	srl	x10,x11,x13	 x11:0xcf042000 x13:0xecb45a14 x10=0x00000cf0
       69855000	      6984	80005a48	4064d213	srai	x4,x9,0x6	  x9:0x0000081a  x4=0x00000020
       69865000	      6985	80005a4c	b919f993	andi	x19,x19,-1135	 x19:0x00000000 x19=0x00000000
       69875000	      6986	80005a50	0133ddb3	srl	x27,x7,x19	  x7:0x2e2f6000 x19:0x00000000 x27=0x2e2f6000
       69885000	      6987	80005a54	01c2c8b3	xor	x17,x5,x28	  x5:0x00000000 x28:0x80009ec8 x17=0x80009ec8
       69895000	      6988	80005a58	01b1b7b3	sltu	x15,x3,x27	  x3:0xfffffe8c x27:0x2e2f6000 x15=0x00000000
       69905000	      6989	80005a5c	31192517	auipc	x10,0x31192	 x10=0xb1197a58
       69915000	      6990	80005a60	004e2a03	lw	x20,4(x28)	 x28:0x80009ec8 x20=0x80005bbc PA:0x80009ecc
       69925000	      6991	80005a64	041ba993	slti	x19,x23,65	 x23:0xb5b8a6c8 x19=0x00000001
       69935000	      6992	80005a68	014e0e13	addi	x28,x28,20	 x28:0x80009ec8 x28=0x80009edc
       69945000	      6993	80005a6c	037d62b7	lui	x5,0x37d6	  x5=0x037d6000
       69955000	      6994	80005a70	5b81ebb7	lui	x23,0x5b81e	 x23=0x5b81e000
       69965000	      6995	80005a74	00000013	addi	x0,x0,0	  x0:0x00000000
       69975000	      6996	80005a78	001a0913	addi	x18,x20,1	 x20:0x80005bbc x18=0x80005bbd
       69985000	      6997	80005a7c	00090967	jalr	x18,x18,0	 x18:0x80005bbd x18=0x80005a7c
       69995000	      6998	00000000	00000013	addi	x0,x0,0	  x0:0x00000000
       70005000	      6999	80005bbc	00000013	addi	x0,x0,0	  x0:0x00000000
       70015000	      7000	80005bc0	01c4e933	or	x18,x9,x28	  x9:0x0000081a x28:0x80009edc x18=0x80009ede
       70025000	      7001	80005bc4	01115633	srl	x12,x2,x17	  x2:0xb5e5c000 x17:0x80009ec8 x12=0x00b5e5c0
       70035000	      7002	80005bc8	00000013	addi	x0,x0,0	  x0:0x00000000
       70045000	      7003	80005bcc	0040f033	and	x0,x1,x4	  x1:0xefba6000  x4:0x00000020
       70055000	      7004	80005bd0	677a3213	sltiu	x4,x20,1655	 x20:0x80005bbc  x4=0x00000000
       70065000	      7005	80005bd4	0046e433	or	x8,x13,x4	 x13:0xecb45a14  x4:0x00000000  x8=0xecb45a14
       70075000	      7006	80005bd8	01f9c7b3	xor	x15,x19,x31	 x19:0x00000001 x31:0x00000050 x15=0x00000051
       70085000	      7007	80005bdc	8ccfca6f	jal	x20,80005bdc	 x20=0x80005bdc
       70095000	      7008	00000000	00000013	addi	x0,x0,0	  x0:0x00000000
       70105000	      7009	80001ca4	00000013	addi	x0,x0,0	  x0:0x00000000
       70115000	      7010	80001ca8	3c817293	andi	x5,x2,968	  x2:0xb5e5c000  x5=0x00000000
       70125000	      7011	80001cac	01b27133	and	x2,x4,x27	  x4:0x00000000 x27:0x2e2f6000  x2=0x00000000
       70135000	      7012	80001cb0	fe0e0e13	addi	x28,x28,-32	 x28:0x80009edc x28=0x80009ebc
       70145000	      7013	80001cb4	010e6fb3	or	x31,x28,x16	 x28:0x80009ebc x16:0x80009fc4 x31=0x80009ffc
       70155000	      7014	80001cb8	014e2223	sw	x20,4(x28)	 x28:0x80009ebc x20:0x80005bdc PA:0x80009ec0
       70165000	      7015	80001cbc	415550b3	sra	x1,x10,x21	 x10:0xb1197a58 x21:0x80000000  x1=0xb1197a58
       70175000	      7016	80001cc0	015d85b3	add	x11,x27,x21	 x27:0x2e2f6000 x21:0x80000000 x11=0xae2f6000
       70185000	      7017	80001cc4	092ea513	slti	x10,x29,146	 x29:0x00000000 x10=0x00000001
       70195000	      7018	80001cc8	01d5ac33	slt	x24,x11,x29	 x11:0xae2f6000 x29:0x00000000 x24=0x00000001
       70205000	      7019	80001ccc	c33da893	slti	x17,x27,-973	 x27:0x2e2f6000 x17=0x00000000
       70215000	      7020	80001cd0	cd3c7193	andi	x3,x24,-813	 x24:0x00000001  x3=0x00000001
       70225000	      7021	80001cd4	053a5863	bge	x20,x19,80001d24	 x20:0x80005bdc x19:0x00000001
       70235000	      7022	80001cd8	016753b3	srl	x7,x14,x22	 x14:0x00000001 x22:0xb5b89ec8  x7=0x00000000
       70245000	      7023	80001cdc	b7972b13	slti	x22,x14,-1159	 x14:0x00000001 x22=0x00000000
       70255000	      7024	80001ce0	41cd0eb3	sub	x29,x26,x28	 x26:0x80000000 x28:0x80009ebc x29=0xffff6144
       70265000	      7025	80001ce4	03ef0663	beq	x30,x30,80001d10	 x30:0xffffffff x30:0xffffffff
       70275000	      7026	00000000	00000013	addi	x0,x0,0	  x0:0x00000000
       70285000	      7027	80001d0c	00000013	addi	x0,x0,0	  x0:0x00000000
       70295000	      7028	80001d10	4c463d93	sltiu	x27,x12,1220	 x12:0x00b5e5c0 x27=0x00000000
       70305000	      7029	80001d14	04d57863	bgeu	x10,x13,80001d64	 x10:0x00000001 x13:0xecb45a14
       70315000	      7030	80001d18	00dc0a33	add	x20,x24,x13	 x24:0x00000001 x13:0xecb45a14 x20=0xecb45a15
       70325000	      7031	80001d1c	670e7d93	andi	x27,x28,1648	 x28:0x80009ebc x27=0x00000630
       70335000	      7032	80001d20	00f180b3	add	x1,x3,x15	  x3:0x00000001 x15:0x00000051  x1=0x00000052
       70345000	      7033	80001d24	a970d317	auipc	x6,0xa970d	  x6=0x2970ed20
       70355000	      7034	80001d28	019a58b3	srl	x17,x20,x25	 x20:0xecb45a15 x25:0x0000001a x17=0x0000003b
       70365000	      7035	80001d2c	01f41ab3	sll	x21,x8,x31	  x8:0xecb45a14 x31:0x80009ffc x21=0x40000000
       70375000	      7036	80001d30	5e33e713	ori	x14,x7,1507	  x7:0x00000000 x14=0x000005e3
       70385000	      7037	80001d34	003a4333	xor	x6,x20,x3	 x20:0xecb45a15  x3:0x00000001  x6=0xecb45a14
       70395000	      7038	80001d38	058d6863	bltu	x26,x24,80001d88	 x26:0x80000000 x24:0x00000001
       70405000	      7039	80001d3c	40e05293	srai	x5,x0,0xe	  x0:0x00000000  x5=0x00000000
       70415000	      7040	80001d40	01ddb633	sltu	x12,x27,x29	 x27:0x00000630 x29:0xffff6144 x12=0x00000001
       70425000	      7041	80001d44	01e0ea63	bltu	x1,x30,80001d58	  x1:0x00000052 x30:0xffffffff
       70435000	      7042	00000000	00000013	addi	x0,x0,0	  x0:0x00000000
       70445000	      7043	80001d54	00000013	addi	x0,x0,0	  x0:0x00000000
       70455000	      7044	80001d58	00d2e533	or	x10,x5,x13	  x5:0x00000000 x13:0xecb45a14 x10=0xecb45a14
       70465000	      7045	80001d5c	004f5e93	srli	x29,x30,0x4	 x30:0xffffffff x29=0x0fffffff
       70475000	      7046	80001d60	6a79bb13	sltiu	x22,x19,1703	 x19:0x00000001 x22=0x00000001
       70485000	      7047	80001d64	05c1c063	blt	x3,x28,80001da4	  x3:0x00000001 x28:0x80009ebc
       70495000	      7048	80001d68	0575e263	bltu	x11,x23,80001dac	 x11:0xae2f6000 x23:0x5b81e000
       70505000	      7049	80001d6c	032f9063	bne	x31,x18,80001d8c	 x31:0x80009ffc x18:0x80009ede
       70515000	      7050	00000000	00000013	addi	x0,x0,0	  x0:0x00000000
       70525000	      7051	80001d88	00000013	addi	x0,x0,0	  x0:0x00000000
       70535000	      7052	80001d8c	b56cad93	slti	x27,x25,-1194	 x25:0x0000001a x27=0x00000000
       70545000	      7053	80001d90	02cb4a63	blt	x22,x12,80001dc4	 x22:0x00000001 x12:0x00000001
       70555000	      7054	80001d94	41a15613	srai	x12,x2,0x1a	  x2:0x00000000 x12=0x00000000
       70565000	      7055	80001d98	0042ceb3	xor	x29,x5,x4	  x5:0x00000000  x4:0x00000000 x29=0x00000000
       70575000	      7056	80001d9c	40645c93	srai	x25,x8,0x6	  x8:0xecb45a14 x25=0xffb2d168
       70585000	      7057	80001da0	3e752713	slti	x14,x10,999	 x10:0xecb45a14 x14=0x00000001
       70595000	      7058	80001da4	008c2933	slt	x18,x24,x8	 x24:0x00000001  x8:0xecb45a14 x18=0x00000000
       70605000	      7059	80001da8	00000013	addi	x0,x0,0	  x0:0x00000000
       70615000	      7060	80001dac	1ed2b313	sltiu	x6,x5,493	  x5:0x00000000  x6=0x00000001
       70625000	      7061	80001db0	01341a13	slli	x20,x8,0x13	  x8:0xecb45a14 x20=0xd0a00000
       70635000	      7062	80001db4	2aedc213	xori	x4,x27,686	 x27:0x00000000  x4=0x000002ae
       70645000	      7063	80001db8	0173cfb3	xor	x31,x7,x23	  x7:0x00000000 x23:0x5b81e000 x31=0x5b81e000
       70655000	      7064	80001dbc	e042b193	sltiu	x3,x5,-508	  x5:0x00000000  x3=0x00000001
       70665000	      7065	80001dc0	027a1c17	auipc	x24,0x27a1	 x24=0x827a2dbc
       70675000	      7066	80001dc4	9f9cf893	andi	x17,x25,-1543	 x25:0xffb2d168 x17=0xffb2d168
       70685000	      7067	80001dc8	410d84b3	sub	x9,x27,x16	 x27:0x00000000 x16:0x80009fc4  x9=0x7fff603c
       70695000	      7068	80001dcc	004e2a03	lw	x20,4(x28)	 x28:0x80009ebc x20=0x80005bdc PA:0x80009ec0
       70705000	      7069	80001dd0	009726b3	slt	x13,x14,x9	 x14:0x00000001  x9:0x7fff603c x13=0x00000001
       70715000	      7070	80001dd4	020e0e13	addi	x28,x28,32	 x28:0x80009ebc x28=0x80009edc
       70725000	      7071	80001dd8	7792a893	slti	x17,x5,1913	  x5:0x00000000 x17=0x00000001
       70735000	      7072	80001ddc	000a0413	addi	x8,x20,0	 x20:0x80005bdc  x8=0x80005bdc
       70745000	      7073	80001de0	00040467	jalr	x8,x8,0	  x8:0x80005bdc  x8=0x80001de0
       70755000	      7074	00000000	00000013	addi	x0,x0,0	  x0:0x00000000
       70765000	      7075	80005bdc	00000013	addi	x0,x0,0	  x0:0x00000000
       70775000	      7076	80005be0	538cc893	xori	x17,x25,1336	 x25:0xffb2d168 x17=0xffb2d450
       70785000	      7077	80005be4	01175b13	srli	x22,x14,0x11	 x14:0x00000001 x22=0x00000000
       70795000	      7078	80005be8	00121893	slli	x17,x4,0x1	  x4:0x000002ae x17=0x0000055c
       70805000	      7079	80005bec	01730033	add	x0,x6,x23	  x6:0x00000001 x23:0x5b81e000
       70815000	      7080	80005bf0	004b5cb3	srl	x25,x22,x4	 x22:0x00000000  x4:0x000002ae x25=0x00000000
       70825000	      7081	80005bf4	03c14263	blt	x2,x28,80005c18	  x2:0x00000000 x28:0x80009edc
       70835000	      7082	80005bf8	019f3a33	sltu	x20,x30,x25	 x30:0xffffffff x25:0x00000000 x20=0x00000000
       70845000	      7083	80005bfc	5cfc2693	slti	x13,x24,1487	 x24:0x827a2dbc x13=0x00000001
       70855000	      7084	80005c00	037a8e63	beq	x21,x23,80005c3c	 x21:0x40000000 x23:0x5b81e000
       70865000	      7085	80005c04	01c532b3	sltu	x5,x10,x28	 x10:0xecb45a14 x28:0x80009edc  x5=0x00000000
       70875000	      7086	80005c08	03414c63	blt	x2,x20,80005c40	  x2:0x00000000 x20:0x00000000
       70885000	      7087	80005c0c	0149d463	bge	x19,x20,80005c14	 x19:0x00000001 x20:0x00000000
       70895000	      7088	00000000	00000013	addi	x0,x0,0	  x0:0x00000000
       70905000	      7089	80005c10	00000013	addi	x0,x0,0	  x0:0x00000000
       70915000	      7090	80005c14	03bef063	bgeu	x29,x27,80005c34	 x29:0x00000000 x27:0x00000000
       70925000	      7091	00000000	00000013	addi	x0,x0,0	  x0:0x00000000
       70935000	      7092	80005c30	00000013	addi	x0,x0,0	  x0:0x00000000
       70945000	      7093	80005c34	00a94bb3	xor	x23,x18,x10	 x18:0x00000000 x10:0xecb45a14 x23=0xecb45a14
       70955000	      7094	80005c38	6a31f3b7	lui	x7,0x6a31f	  x7=0x6a31f000
       70965000	      7095	80005c3c	03bdf063	bgeu	x27,x27,80005c5c	 x27:0x00000000 x27:0x00000000
       70975000	      7096	00000000	00000013	addi	x0,x0,0	  x0:0x00000000
       70985000	      7097	80005c58	00000013	addi	x0,x0,0	  x0:0x00000000
       70995000	      7098	80005c5c	0112c433	xor	x8,x5,x17	  x5:0x00000000 x17:0x0000055c  x8=0x0000055c
       71005000	      7099	80005c60	011d1693	slli	x13,x26,0x11	 x26:0x80000000 x13=0x00000000
       71015000	      7100	80005c64	011dbf33	sltu	x30,x27,x17	 x27:0x00000000 x17:0x0000055c x30=0x00000001
       71025000	      7101	80005c68	004e2a03	lw	x20,4(x28)	 x28:0x80009edc x20=0x80005ac8 PA:0x80009ee0
       71035000	      7102	80005c6c	b8f4cc93	xori	x25,x9,-1137	  x9:0x7fff603c x25=0x80009bb3
       71045000	      7103	80005c70	00b15e93	srli	x29,x2,0xb	  x2:0x00000000 x29=0x00000000
       71055000	      7104	80005c74	00ce0e13	addi	x28,x28,12	 x28:0x80009edc x28=0x80009ee8
       71065000	      7105	80005c78	1c057713	andi	x14,x10,448	 x10:0xecb45a14 x14=0x00000000
       71075000	      7106	80005c7c	01901733	sll	x14,x0,x25	  x0:0x00000000 x25:0x80009bb3 x14=0x00000000
       71085000	      7107	80005c80	0163f933	and	x18,x7,x22	  x7:0x6a31f000 x22:0x00000000 x18=0x00000000
       71095000	      7108	80005c84	b3199937	lui	x18,0xb3199	 x18=0xb3199000
       71105000	      7109	80005c88	015441b3	xor	x3,x8,x21	  x8:0x0000055c x21:0x40000000  x3=0x4000055c
       71115000	      7110	80005c8c	000a0313	addi	x6,x20,0	 x20:0x80005ac8  x6=0x80005ac8
       71125000	      7111	80005c90	00030367	jalr	x6,x6,0	  x6:0x80005ac8  x6=0x80005c90
       71135000	      7112	00000000	00000013	addi	x0,x0,0	  x0:0x00000000
       71145000	      7113	80005ac8	00000013	addi	x0,x0,0	  x0:0x00000000
       71155000	      7114	80005acc	00abdbb3	srl	x23,x23,x10	 x23:0xecb45a14 x10:0xecb45a14 x23=0x00000ecb
       71165000	      7115	80005ad0	6de8b413	sltiu	x8,x17,1758	 x17:0x0000055c  x8=0x00000001
       71175000	      7116	80005ad4	016d3c33	sltu	x24,x26,x22	 x26:0x80000000 x22:0x00000000 x24=0x00000000
       71185000	      7117	80005ad8	40d0d433	sra	x8,x1,x13	  x1:0x00000052 x13:0x00000000  x8=0x00000052
       71195000	      7118	80005adc	00dd7633	and	x12,x26,x13	 x26:0x80000000 x13:0x00000000 x12=0x00000000
       71205000	      7119	80005ae0	00639693	slli	x13,x7,0x6	  x7:0x6a31f000 x13=0x8c7c0000
       71215000	      7120	80005ae4	040b6463	bltu	x22,x0,80005b2c	 x22:0x00000000  x0:0x00000000
       71225000	      7121	80005ae8	01e9c033	xor	x0,x19,x30	 x19:0x00000001 x30:0x00000001
       71235000	      7122	80005aec	01f8d9b3	srl	x19,x17,x31	 x17:0x0000055c x31:0x5b81e000 x19=0x0000055c
       71245000	      7123	80005af0	01bad633	srl	x12,x21,x27	 x21:0x40000000 x27:0x00000000 x12=0x40000000
       71255000	      7124	80005af4	a1b00f13	addi	x30,x0,-1509	  x0:0x00000000 x30=0xfffffa1b
       71265000	      7125	80005af8	670641b7	lui	x3,0x67064	  x3=0x67064000
       71275000	      7126	80005afc	f46aa593	slti	x11,x21,-186	 x21:0x40000000 x11=0x00000000
       71285000	      7127	80005b00	00b58933	add	x18,x11,x11	 x11:0x00000000 x11:0x00000000 x18=0x00000000
       71295000	      7128	80005b04	41a9d393	srai	x7,x19,0x1a	 x19:0x0000055c  x7=0x00000000
       71305000	      7129	80005b08	014ec4b3	xor	x9,x29,x20	 x29:0x00000000 x20:0x80005ac8  x9=0x80005ac8
       71315000	      7130	80005b0c	0156fa63	bgeu	x13,x21,80005b20	 x13:0x8c7c0000 x21:0x40000000
       71325000	      7131	00000000	00000013	addi	x0,x0,0	  x0:0x00000000
       71335000	      7132	80005b1c	00000013	addi	x0,x0,0	  x0:0x00000000
       71345000	      7133	80005b20	40e78a33	sub	x20,x15,x14	 x15:0x00000051 x14:0x00000000 x20=0x00000051
       71355000	      7134	80005b24	00000013	addi	x0,x0,0	  x0:0x00000000
       71365000	      7135	80005b28	00bfff33	and	x30,x31,x11	 x31:0x5b81e000 x11:0x00000000 x30=0x00000000
       71375000	      7136	80005b2c	00f3bdb3	sltu	x27,x7,x15	  x7:0x00000000 x15:0x00000051 x27=0x00000001
       71385000	      7137	80005b30	bbb1a493	slti	x9,x3,-1093	  x3:0x67064000  x9=0x00000000
       71395000	      7138	80005b34	01179313	slli	x6,x15,0x11	 x15:0x00000051  x6=0x00a20000
       71405000	      7139	80005b38	4d097193	andi	x3,x18,1232	 x18:0x00000000  x3=0x00000000
       71415000	      7140	80005b3c	004e2a03	lw	x20,4(x28)	 x28:0x80009ee8 x20=0x80006884 PA:0x80009eec
       71425000	      7141	80005b40	41cf87b3	sub	x15,x31,x28	 x31:0x5b81e000 x28:0x80009ee8 x15=0xdb814118
       71435000	      7142	80005b44	41ddd713	srai	x14,x27,0x1d	 x27:0x00000001 x14=0x00000000
       71445000	      7143	80005b48	000a7033	and	x0,x20,x0	 x20:0x80006884  x0:0x00000000
       71455000	      7144	80005b4c	040e0e13	addi	x28,x28,64	 x28:0x80009ee8 x28=0x80009f28
       71465000	      7145	80005b50	d6379e97	auipc	x29,0xd6379	 x29=0x5637eb4c
       71475000	      7146	80005b54	7cd3bc97	auipc	x25,0x7cd3b	 x25=0xfcd40b50
       71485000	      7147	80005b58	01e47113	andi	x2,x8,30	  x8:0x00000052  x2=0x00000012
       71495000	      7148	80005b5c	001a0493	addi	x9,x20,1	 x20:0x80006884  x9=0x80006885
       71505000	      7149	80005b60	000484e7	jalr	x9,x9,0	  x9:0x80006885  x9=0x80005b60
       71515000	      7150	00000000	00000013	addi	x0,x0,0	  x0:0x00000000
       71525000	      7151	80006884	00000013	addi	x0,x0,0	  x0:0x00000000
       71535000	      7152	80006888	fb017e93	andi	x29,x2,-80	  x2:0x00000012 x29=0x00000010
       71545000	      7153	8000688c	015bc863	blt	x23,x21,8000689c	 x23:0x00000ecb x21:0x40000000
       71555000	      7154	00000000	00000013	addi	x0,x0,0	  x0:0x00000000
       71565000	      7155	80006898	00000013	addi	x0,x0,0	  x0:0x00000000
       71575000	      7156	8000689c	b7f44713	xori	x14,x8,-1153	  x8:0x00000052 x14=0xfffffb2d
       71585000	      7157	800068a0	00a3dd93	srli	x27,x7,0xa	  x7:0x00000000 x27=0x00000000
       71595000	      7158	800068a4	d78179b7	lui	x19,0xd7817	 x19=0xd7817000
       71605000	      7159	800068a8	bb45b613	sltiu	x12,x11,-1100	 x11:0x00000000 x12=0x00000001
       71615000	      7160	800068ac	05898863	beq	x19,x24,800068fc	 x19:0xd7817000 x24:0x00000000
       71625000	      7161	800068b0	d771f293	andi	x5,x3,-649	  x3:0x00000000  x5=0x00000000
       71635000	      7162	800068b4	04d67063	bgeu	x12,x13,800068f4	 x12:0x00000001 x13:0x8c7c0000
       71645000	      7163	800068b8	003f90b3	sll	x1,x31,x3	 x31:0x5b81e000  x3:0x00000000  x1=0x5b81e000
       71655000	      7164	800068bc	014bd693	srli	x13,x23,0x14	 x23:0x00000ecb x13=0x00000000
       71665000	      7165	800068c0	59d0bc93	sltiu	x25,x1,1437	  x1:0x5b81e000 x25=0x00000000
       71675000	      7166	800068c4	0166d8b3	srl	x17,x13,x22	 x13:0x00000000 x22:0x00000000 x17=0x00000000
       71685000	      7167	800068c8	017c6933	or	x18,x24,x23	 x24:0x00000000 x23:0x00000ecb x18=0x00000ecb
       71695000	      7168	800068cc	01e70933	add	x18,x14,x30	 x14:0xfffffb2d x30:0x00000000 x18=0xfffffb2d
       71705000	      7169	800068d0	03c5f063	bgeu	x11,x28,800068f0	 x11:0x00000000 x28:0x80009f28
       71715000	      7170	800068d4	e3fdd717	auipc	x14,0xe3fdd	 x14=0x63fe38d0
       71725000	      7171	800068d8	002e8233	add	x4,x29,x2	 x29:0x00000010  x2:0x00000012  x4=0x00000022
       71735000	      7172	800068dc	03a41463	bne	x8,x26,80006904	  x8:0x00000052 x26:0x80000000
       71745000	      7173	00000000	00000013	addi	x0,x0,0	  x0:0x00000000
       71755000	      7174	80006900	00000013	addi	x0,x0,0	  x0:0x00000000
       71765000	      7175	80006904	03d7d663	bge	x15,x29,80006930	 x15:0xdb814118 x29:0x00000010
       71775000	      7176	80006908	02445a63	bge	x8,x4,8000693c	  x8:0x00000052  x4:0x00000022
       71785000	      7177	00000000	00000013	addi	x0,x0,0	  x0:0x00000000
       71795000	      7178	80006938	00000013	addi	x0,x0,0	  x0:0x00000000
       71805000	      7179	8000693c	0b631c63	bne	x6,x22,800069f4	  x6:0x00a20000 x22:0x00000000
       71815000	      7180	00000000	00000013	addi	x0,x0,0	  x0:0x00000000
       71825000	      7181	800069f0	00000013	addi	x0,x0,0	  x0:0x00000000
       71835000	      7182	800069f4	01481693	slli	x13,x16,0x14	 x16:0x80009fc4 x13=0xfc400000
       71845000	      7183	800069f8	43912313	slti	x6,x2,1081	  x2:0x00000012  x6=0x00000001
       71855000	      7184	800069fc	02527263	bgeu	x4,x5,80006a20	  x4:0x00000022  x5:0x00000000
       71865000	      7185	00000000	00000013	addi	x0,x0,0	  x0:0x00000000
       71875000	      7186	80006a1c	00000013	addi	x0,x0,0	  x0:0x00000000
       71885000	      7187	80006a20	00ebcf33	xor	x30,x23,x14	 x23:0x00000ecb x14:0x63fe38d0 x30=0x63fe361b
       71895000	      7188	80006a24	40d7df13	srai	x30,x15,0xd	 x15:0xdb814118 x30=0xfffedc0a
       71905000	      7189	80006a28	00ddd233	srl	x4,x27,x13	 x27:0x00000000 x13:0xfc400000  x4=0x00000000
       71915000	      7190	80006a2c	00405933	srl	x18,x0,x4	  x0:0x00000000  x4:0x00000000 x18=0x00000000
       71925000	      7191	80006a30	017537b3	sltu	x15,x10,x23	 x10:0xecb45a14 x23:0x00000ecb x15=0x00000000
       71935000	      7192	80006a34	41f20a33	sub	x20,x4,x31	  x4:0x00000000 x31:0x5b81e000 x20=0xa47e2000
       71945000	      7193	80006a38	01ae43b3	xor	x7,x28,x26	 x28:0x80009f28 x26:0x80000000  x7=0x00009f28
       71955000	      7194	80006a3c	0165c333	xor	x6,x11,x22	 x11:0x00000000 x22:0x00000000  x6=0x00000000
       71965000	      7195	80006a40	01db70b3	and	x1,x22,x29	 x22:0x00000000 x29:0x00000010  x1=0x00000000
       71975000	      7196	80006a44	41525013	srai	x0,x4,0x15	  x4:0x00000000
       71985000	      7197	80006a48	0109fc63	bgeu	x19,x16,80006a60	 x19:0xd7817000 x16:0x80009fc4
       71995000	      7198	00000000	00000013	addi	x0,x0,0	  x0:0x00000000
       72005000	      7199	80006a5c	00000013	addi	x0,x0,0	  x0:0x00000000
       72015000	      7200	80006a60	41f85013	srai	x0,x16,0x1f	 x16:0x80009fc4
       72025000	      7201	80006a64	014c70b3	and	x1,x24,x20	 x24:0x00000000 x20:0xa47e2000  x1=0x00000000
       72035000	      7202	80006a68	011106b3	add	x13,x2,x17	  x2:0x00000012 x17:0x00000000 x13=0x00000012
       72045000	      7203	80006a6c	40c887b3	sub	x15,x17,x12	 x17:0x00000000 x12:0x00000001 x15=0xffffffff
       72055000	      7204	80006a70	01545a33	srl	x20,x8,x21	  x8:0x00000052 x21:0x40000000 x20=0x00000052
       72065000	      7205	80006a74	00d81393	slli	x7,x16,0xd	 x16:0x80009fc4  x7=0x13f88000
       72075000	      7206	80006a78	41c25533	sra	x10,x4,x28	  x4:0x00000000 x28:0x80009f28 x10=0x00000000
       72085000	      7207	80006a7c	0114e133	or	x2,x9,x17	  x9:0x80005b60 x17:0x00000000  x2=0x80005b60
       72095000	      7208	80006a80	008d0c63	beq	x26,x8,80006a98	 x26:0x80000000  x8:0x00000052
       72105000	      7209	80006a84	0142b6b3	sltu	x13,x5,x20	  x5:0x00000000 x20:0x00000052 x13=0x00000001
       72115000	      7210	80006a88	40f65c33	sra	x24,x12,x15	 x12:0x00000001 x15:0xffffffff x24=0x00000000
       72125000	      7211	80006a8c	01bec5b3	xor	x11,x29,x27	 x29:0x00000010 x27:0x00000000 x11=0x00000010
       72135000	      7212	80006a90	410e8033	sub	x0,x29,x16	 x29:0x00000010 x16:0x80009fc4
       72145000	      7213	80006a94	031d0463	beq	x26,x17,80006abc	 x26:0x80000000 x17:0x00000000
       72155000	      7214	80006a98	88597e93	andi	x29,x18,-1915	 x18:0x00000000 x29=0x00000000
       72165000	      7215	80006a9c	005c9863	bne	x25,x5,80006aac	 x25:0x00000000  x5:0x00000000
       72175000	      7216	80006aa0	408682b3	sub	x5,x13,x8	 x13:0x00000001  x8:0x00000052  x5=0xffffffaf
       72185000	      7217	80006aa4	00531bb3	sll	x23,x6,x5	  x6:0x00000000  x5:0xffffffaf x23=0x00000000
       72195000	      7218	80006aa8	b9a6f413	andi	x8,x13,-1126	 x13:0x00000001  x8=0x00000000
       72205000	      7219	80006aac	f3b6e793	ori	x15,x13,-197	 x13:0x00000001 x15=0xffffff3b
       72215000	      7220	80006ab0	01f24663	blt	x4,x31,80006abc	  x4:0x00000000 x31:0x5b81e000
       72225000	      7221	00000000	00000013	addi	x0,x0,0	  x0:0x00000000
       72235000	      7222	80006ab8	00000013	addi	x0,x0,0	  x0:0x00000000
       72245000	      7223	80006abc	00000013	addi	x0,x0,0	  x0:0x00000000
       72255000	      7224	80006ac0	0048a8b3	slt	x17,x17,x4	 x17:0x00000000  x4:0x00000000 x17=0x00000000
       72265000	      7225	80006ac4	4033d513	srai	x10,x7,0x3	  x7:0x13f88000 x10=0x027f1000
       72275000	      7226	80006ac8	3e134913	xori	x18,x6,993	  x6:0x00000000 x18=0x000003e1
       72285000	      7227	80006acc	004e2a03	lw	x20,4(x28)	 x28:0x80009f28 x20=0x80001e58 PA:0x80009f2c
       72295000	      7228	80006ad0	00829c93	slli	x25,x5,0x8	  x5:0xffffffaf x25=0xffffaf00
       72305000	      7229	80006ad4	008e0e13	addi	x28,x28,8	 x28:0x80009f28 x28=0x80009f30
       72315000	      7230	80006ad8	41e586b3	sub	x13,x11,x30	 x11:0x00000010 x30:0xfffedc0a x13=0x00012406
       72325000	      7231	80006adc	001a0893	addi	x17,x20,1	 x20:0x80001e58 x17=0x80001e59
       72335000	      7232	80006ae0	000888e7	jalr	x17,x17,0	 x17:0x80001e59 x17=0x80006ae0
       72345000	      7233	00000000	00000013	addi	x0,x0,0	  x0:0x00000000
       72355000	      7234	80001e58	00000013	addi	x0,x0,0	  x0:0x00000000
       72365000	      7235	80001e5c	40630333	sub	x6,x6,x6	  x6:0x00000000  x6:0x00000000  x6=0x00000000
       72375000	      7236	80001e60	0400e663	bltu	x1,x0,80001eac	  x1:0x00000000  x0:0x00000000
       72385000	      7237	80001e64	01cf9a63	bne	x31,x28,80001e78	 x31:0x5b81e000 x28:0x80009f30
       72395000	      7238	00000000	00000013	addi	x0,x0,0	  x0:0x00000000
       72405000	      7239	80001e74	00000013	addi	x0,x0,0	  x0:0x00000000
       72415000	      7240	80001e78	014ddfb3	srl	x31,x27,x20	 x27:0x00000000 x20:0x80001e58 x31=0x00000000
       72425000	      7241	80001e7c	5004f113	andi	x2,x9,1280	  x9:0x80005b60  x2=0x00000100
       72435000	      7242	80001e80	41385a93	srai	x21,x16,0x13	 x16:0x80009fc4 x21=0xfffff000
       72445000	      7243	80001e84	936fb793	sltiu	x15,x31,-1738	 x31:0x00000000 x15=0x00000001
       72455000	      7244	80001e88	00000013	addi	x0,x0,0	  x0:0x00000000
       72465000	      7245	80001e8c	d407d0b7	lui	x1,0xd407d	  x1=0xd407d000
       72475000	      7246	80001e90	001e7863	bgeu	x28,x1,80001ea0	 x28:0x80009f30  x1:0xd407d000
       72485000	      7247	80001e94	014077b3	and	x15,x0,x20	  x0:0x00000000 x20:0x80001e58 x15=0x00000000
       72495000	      7248	80001e98	00096863	bltu	x18,x0,80001ea8	 x18:0x000003e1  x0:0x00000000
       72505000	      7249	80001e9c	9cf30b93	addi	x23,x6,-1585	  x6:0x00000000 x23=0xfffff9cf
       72515000	      7250	80001ea0	0395de63	bge	x11,x25,80001edc	 x11:0x00000010 x25:0xffffaf00
       72525000	      7251	00000000	00000013	addi	x0,x0,0	  x0:0x00000000
       72535000	      7252	80001ed8	00000013	addi	x0,x0,0	  x0:0x00000000
       72545000	      7253	80001edc	bfe16893	ori	x17,x2,-1026	  x2:0x00000100 x17=0xfffffbfe
       72555000	      7254	80001ee0	faf1c437	lui	x8,0xfaf1c	  x8=0xfaf1c000
       72565000	      7255	80001ee4	957d3a13	sltiu	x20,x26,-1705	 x26:0x80000000 x20=0x00000001
       72575000	      7256	80001ee8	029b7c63	bgeu	x22,x9,80001f20	 x22:0x00000000  x9:0x80005b60
       72585000	      7257	80001eec	36930c13	addi	x24,x6,873	  x6:0x00000000 x24=0x00000369
       72595000	      7258	80001ef0	032e5a63	bge	x28,x18,80001f24	 x28:0x80009f30 x18:0x000003e1
       72605000	      7259	80001ef4	00748463	beq	x9,x7,80001efc	  x9:0x80005b60  x7:0x13f88000
       72615000	      7260	80001ef8	00f31c13	slli	x24,x6,0xf	  x6:0x00000000 x24=0x00000000
       72625000	      7261	80001efc	0151c663	blt	x3,x21,80001f08	  x3:0x00000000 x21:0xfffff000
       72635000	      7262	80001f00	de6103b7	lui	x7,0xde610	  x7=0xde610000
       72645000	      7263	80001f04	05598263	beq	x19,x21,80001f48	 x19:0xd7817000 x21:0xfffff000
       72655000	      7264	80001f08	01c725b3	slt	x11,x14,x28	 x14:0x63fe38d0 x28:0x80009f30 x11=0x00000000
       72665000	      7265	80001f0c	015c1913	slli	x18,x24,0x15	 x24:0x00000000 x18=0x00000000
       72675000	      7266	80001f10	72ad4293	xori	x5,x26,1834	 x26:0x80000000  x5=0x8000072a
       72685000	      7267	80001f14	00000013	addi	x0,x0,0	  x0:0x00000000
       72695000	      7268	80001f18	009d5263	bge	x26,x9,80001f1c	 x26:0x80000000  x9:0x80005b60
       72705000	      7269	80001f1c	01f0feb3	and	x29,x1,x31	  x1:0xd407d000 x31:0x00000000 x29=0x00000000
       72715000	      7270	80001f20	016396b3	sll	x13,x7,x22	  x7:0xde610000 x22:0x00000000 x13=0xde610000
       72725000	      7271	80001f24	62529a97	auipc	x21,0x62529	 x21=0xe252af20
       72735000	      7272	80001f28	01277bb3	and	x23,x14,x18	 x14:0x63fe38d0 x18:0x00000000 x23=0x00000000
       72745000	      7273	80001f2c	403d5513	srai	x10,x26,0x3	 x26:0x80000000 x10=0xf0000000
       72755000	      7274	80001f30	00c54133	xor	x2,x10,x12	 x10:0xf0000000 x12:0x00000001  x2=0xf0000001
       72765000	      7275	80001f34	00129533	sll	x10,x5,x1	  x5:0x8000072a  x1:0xd407d000 x10=0x8000072a
       72775000	      7276	80001f38	0290fa63	bgeu	x1,x9,80001f6c	  x1:0xd407d000  x9:0x80005b60
       72785000	      7277	00000000	00000013	addi	x0,x0,0	  x0:0x00000000
       72795000	      7278	80001f68	00000013	addi	x0,x0,0	  x0:0x00000000
       72805000	      7279	80001f6c	01bbcdb3	xor	x27,x23,x27	 x23:0x00000000 x27:0x00000000 x27=0x00000000
       72815000	      7280	80001f70	0386e463	bltu	x13,x24,80001f98	 x13:0xde610000 x24:0x00000000
       72825000	      7281	80001f74	401fd2b3	sra	x5,x31,x1	 x31:0x00000000  x1:0xd407d000  x5=0x00000000
       72835000	      7282	80001f78	018608b3	add	x17,x12,x24	 x12:0x00000001 x24:0x00000000 x17=0x00000001
       72845000	      7283	80001f7c	009fd433	srl	x8,x31,x9	 x31:0x00000000  x9:0x80005b60  x8=0x00000000
       72855000	      7284	80001f80	0114e3b3	or	x7,x9,x17	  x9:0x80005b60 x17:0x00000001  x7=0x80005b61
       72865000	      7285	80001f84	2d5db113	sltiu	x2,x27,725	 x27:0x00000000  x2=0x00000001
       72875000	      7286	80001f88	00b269b3	or	x19,x4,x11	  x4:0x00000000 x11:0x00000000 x19=0x00000000
       72885000	      7287	80001f8c	033b8463	beq	x23,x19,80001fb4	 x23:0x00000000 x19:0x00000000
       72895000	      7288	00000000	00000013	addi	x0,x0,0	  x0:0x00000000
       72905000	      7289	80001fb0	00000013	addi	x0,x0,0	  x0:0x00000000
       72915000	      7290	80001fb4	00b31663	bne	x6,x11,80001fc0	  x6:0x00000000 x11:0x00000000
       72925000	      7291	80001fb8	010c9ab3	sll	x21,x25,x16	 x25:0xffffaf00 x16:0x80009fc4 x21=0xfffaf000
       72935000	      7292	80001fbc	be64ea13	ori	x20,x9,-1050	  x9:0x80005b60 x20=0xfffffbe6
       72945000	      7293	80001fc0	00085c93	srli	x25,x16,0x0	 x16:0x80009fc4 x25=0x80009fc4
       72955000	      7294	80001fc4	37e3ac93	slti	x25,x7,894	  x7:0x80005b61 x25=0x00000001
       72965000	      7295	80001fc8	403ed213	srai	x4,x29,0x3	 x29:0x00000000  x4=0x00000000
       72975000	      7296	80001fcc	01205013	srli	x0,x0,0x12	  x0:0x00000000
       72985000	      7297	80001fd0	013e4033	xor	x0,x28,x19	 x28:0x80009f30 x19:0x00000000
       72995000	      7298	80001fd4	446d7017	auipc	x0,0x446d7	
       73005000	      7299	80001fd8	01b53133	sltu	x2,x10,x27	 x10:0x8000072a x27:0x00000000  x2=0x00000000
       73015000	      7300	80001fdc	004e2a03	lw	x20,4(x28)	 x28:0x80009f30 x20=0x80002fec PA:0x80009f34
       73025000	      7301	00000000	00000013	addi	x0,x0,0	  x0:0x00000000
       73035000	      7302	80001fe0	014e0e13	addi	x28,x28,20	 x28:0x80009f30 x28=0x80009f44
       73045000	      7303	80001fe4	0052dc13	srli	x24,x5,0x5	  x5:0x00000000 x24=0x00000000
       73055000	      7304	80001fe8	01d9dbb3	srl	x23,x19,x29	 x19:0x00000000 x29:0x00000000 x23=0x00000000
       73065000	      7305	80001fec	001a0893	addi	x17,x20,1	 x20:0x80002fec x17=0x80002fed
       73075000	      7306	80001ff0	000888e7	jalr	x17,x17,0	 x17:0x80002fed x17=0x80001ff0
       73085000	      7307	00000000	00000013	addi	x0,x0,0	  x0:0x00000000
       73095000	      7308	80002fec	00000013	addi	x0,x0,0	  x0:0x00000000
       73105000	      7309	80002ff0	015f5db3	srl	x27,x30,x21	 x30:0xfffedc0a x21:0xfffaf000 x27=0xfffedc0a
       73115000	      7310	80002ff4	0007e663	bltu	x15,x0,80003000	 x15:0x00000000  x0:0x00000000
       73125000	      7311	80002ff8	0ebdf593	andi	x11,x27,235	 x27:0xfffedc0a x11=0x0000000a
       73135000	      7312	80002ffc	0168dab3	srl	x21,x17,x22	 x17:0x80001ff0 x22:0x00000000 x21=0x80001ff0
       73145000	      7313	80003000	003d4db3	xor	x27,x26,x3	 x26:0x80000000  x3:0x00000000 x27=0x80000000
       73155000	      7314	80003004	76210393	addi	x7,x2,1890	  x2:0x00000000  x7=0x00000762
       73165000	      7315	80003008	008a98b3	sll	x17,x21,x8	 x21:0x80001ff0  x8:0x00000000 x17=0x80001ff0
       73175000	      7316	8000300c	01189313	slli	x6,x17,0x11	 x17:0x80001ff0  x6=0x3fe00000
       73185000	      7317	80003010	002d76b3	and	x13,x26,x2	 x26:0x80000000  x2:0x00000000 x13=0x00000000
       73195000	      7318	80003014	01d6bc33	sltu	x24,x13,x29	 x13:0x00000000 x29:0x00000000 x24=0x00000000
       73205000	      7319	80003018	0e9c53b7	lui	x7,0xe9c5	  x7=0x0e9c5000
       73215000	      7320	8000301c	75754093	xori	x1,x10,1879	 x10:0x8000072a  x1=0x8000007d
       73225000	      7321	80003020	5d28cc93	xori	x25,x17,1490	 x17:0x80001ff0 x25=0x80001a22
       73235000	      7322	80003024	000304b3	add	x9,x6,x0	  x6:0x3fe00000  x0:0x00000000  x9=0x3fe00000
       73245000	      7323	80003028	00c3d313	srli	x6,x7,0xc	  x7:0x0e9c5000  x6=0x0000e9c5
       73255000	      7324	8000302c	e8ed0293	addi	x5,x26,-370	 x26:0x80000000  x5=0x7ffffe8e
       73265000	      7325	80003030	00faac33	slt	x24,x21,x15	 x21:0x80001ff0 x15:0x00000000 x24=0x00000001
       73275000	      7326	80003034	40ad5693	srai	x13,x26,0xa	 x26:0x80000000 x13=0xffe00000
       73285000	      7327	80003038	406fddb3	sra	x27,x31,x6	 x31:0x00000000  x6:0x0000e9c5 x27=0x00000000
       73295000	      7328	8000303c	40f305b3	sub	x11,x6,x15	  x6:0x0000e9c5 x15:0x00000000 x11=0x0000e9c5
       73305000	      7329	80003040	41c7dbb3	sra	x23,x15,x28	 x15:0x00000000 x28:0x80009f44 x23=0x00000000
       73315000	      7330	80003044	00b932b3	sltu	x5,x18,x11	 x18:0x00000000 x11:0x0000e9c5  x5=0x00000001
       73325000	      7331	80003048	037e0663	beq	x28,x23,80003074	 x28:0x80009f44 x23:0x00000000
       73335000	      7332	8000304c	015240b3	xor	x1,x4,x21	  x4:0x00000000 x21:0x80001ff0  x1=0x80001ff0
       73345000	      7333	80003050	0436c263	blt	x13,x3,80003094	 x13:0xffe00000  x3:0x00000000
       73355000	      7334	00000000	00000013	addi	x0,x0,0	  x0:0x00000000
       73365000	      7335	80003090	00000013	addi	x0,x0,0	  x0:0x00000000
       73375000	      7336	80003094	015b5533	srl	x10,x22,x21	 x22:0x00000000 x21:0x80001ff0 x10=0x00000000
       73385000	      7337	80003098	00c1d393	srli	x7,x3,0xc	  x3:0x00000000  x7=0x00000000
       73395000	      7338	8000309c	fdc94713	xori	x14,x18,-36	 x18:0x00000000 x14=0xffffffdc
       73405000	      7339	800030a0	01db5c13	srli	x24,x22,0x1d	 x22:0x00000000 x24=0x00000000
       73415000	      7340	800030a4	015377b3	and	x15,x6,x21	  x6:0x0000e9c5 x21:0x80001ff0 x15=0x000009c0
       73425000	      7341	800030a8	0444f063	bgeu	x9,x4,800030e8	  x9:0x3fe00000  x4:0x00000000
       73435000	      7342	00000000	00000013	addi	x0,x0,0	  x0:0x00000000
       73445000	      7343	800030e4	00000013	addi	x0,x0,0	  x0:0x00000000
       73455000	      7344	800030e8	41bfdf33	sra	x30,x31,x27	 x31:0x00000000 x27:0x00000000 x30=0x00000000
       73465000	      7345	800030ec	01eb8863	beq	x23,x30,800030fc	 x23:0x00000000 x30:0x00000000
       73475000	      7346	00000000	00000013	addi	x0,x0,0	  x0:0x00000000
       73485000	      7347	800030f8	00000013	addi	x0,x0,0	  x0:0x00000000
       73495000	      7348	800030fc	411287b3	sub	x15,x5,x17	  x5:0x00000001 x17:0x80001ff0 x15=0x7fffe011
       73505000	      7349	80003100	03a70e63	beq	x14,x26,8000313c	 x14:0xffffffdc x26:0x80000000
       73515000	      7350	80003104	62950413	addi	x8,x10,1577	 x10:0x00000000  x8=0x00000629
       73525000	      7351	80003108	031cc063	blt	x25,x17,80003128	 x25:0x80001a22 x17:0x80001ff0
       73535000	      7352	00000000	00000013	addi	x0,x0,0	  x0:0x00000000
       73545000	      7353	80003124	00000013	addi	x0,x0,0	  x0:0x00000000
       73555000	      7354	80003128	00a79e63	bne	x15,x10,80003144	 x15:0x7fffe011 x10:0x00000000
       73565000	      7355	00000000	00000013	addi	x0,x0,0	  x0:0x00000000
       73575000	      7356	80003140	00000013	addi	x0,x0,0	  x0:0x00000000
       73585000	      7357	80003144	00f09133	sll	x2,x1,x15	  x1:0x80001ff0 x15:0x7fffe011  x2=0x3fe00000
       73595000	      7358	80003148	012ecf33	xor	x30,x29,x18	 x29:0x00000000 x18:0x00000000 x30=0x00000000
       73605000	      7359	8000314c	00afd9b3	srl	x19,x31,x10	 x31:0x00000000 x10:0x00000000 x19=0x00000000
       73615000	      7360	80003150	00a0da93	srli	x21,x1,0xa	  x1:0x80001ff0 x21=0x00200007
       73625000	      7361	80003154	b2a67c13	andi	x24,x12,-1238	 x12:0x00000001 x24=0x00000000
       73635000	      7362	80003158	048ec063	blt	x29,x8,80003198	 x29:0x00000000  x8:0x00000629
       73645000	      7363	00000000	00000013	addi	x0,x0,0	  x0:0x00000000
       73655000	      7364	80003194	00000013	addi	x0,x0,0	  x0:0x00000000
       73665000	      7365	80003198	014e5663	bge	x28,x20,800031a4	 x28:0x80009f44 x20:0x80002fec
       73675000	      7366	00000000	00000013	addi	x0,x0,0	  x0:0x00000000
       73685000	      7367	800031a0	00000013	addi	x0,x0,0	  x0:0x00000000
       73695000	      7368	800031a4	0178d913	srli	x18,x17,0x17	 x17:0x80001ff0 x18=0x00000100
       73705000	      7369	800031a8	01299a93	slli	x21,x19,0x12	 x19:0x00000000 x21=0x00000000
       73715000	      7370	800031ac	9d6db113	sltiu	x2,x27,-1578	 x27:0x00000000  x2=0x00000001
       73725000	      7371	800031b0	0092dab3	srl	x21,x5,x9	  x5:0x00000001  x9:0x3fe00000 x21=0x00000001
       73735000	      7372	800031b4	005ad863	bge	x21,x5,800031c4	 x21:0x00000001  x5:0x00000001
       73745000	      7373	00000000	00000013	addi	x0,x0,0	  x0:0x00000000
       73755000	      7374	800031c0	00000013	addi	x0,x0,0	  x0:0x00000000
       73765000	      7375	800031c4	01d2acb3	slt	x25,x5,x29	  x5:0x00000001 x29:0x00000000 x25=0x00000000
       73775000	      7376	800031c8	59d08113	addi	x2,x1,1437	  x1:0x80001ff0  x2=0x8000258d
       73785000	      7377	800031cc	007bc533	xor	x10,x23,x7	 x23:0x00000000  x7:0x00000000 x10=0x00000000
       73795000	      7378	800031d0	7d713293	sltiu	x5,x2,2007	  x2:0x8000258d  x5=0x00000000
       73805000	      7379	800031d4	017d5eb3	srl	x29,x26,x23	 x26:0x80000000 x23:0x00000000 x29=0x80000000
       73815000	      7380	800031d8	01bd7263	bgeu	x26,x27,800031dc	 x26:0x80000000 x27:0x00000000
       73825000	      7381	00000000	00000013	addi	x0,x0,0	  x0:0x00000000
       73835000	      7382	800031d8	00000013	addi	x0,x0,0	  x0:0x00000000
       73845000	      7383	800031dc	055c7063	bgeu	x24,x21,8000321c	 x24:0x00000000 x21:0x00000001
       73855000	      7384	800031e0	00000013	addi	x0,x0,0	  x0:0x00000000
       73865000	      7385	800031e4	01259863	bne	x11,x18,800031f4	 x11:0x0000e9c5 x18:0x00000100
       73875000	      7386	00000000	00000013	addi	x0,x0,0	  x0:0x00000000
       73885000	      7387	800031f0	00000013	addi	x0,x0,0	  x0:0x00000000
       73895000	      7388	800031f4	01828cb3	add	x25,x5,x24	  x5:0x00000000 x24:0x00000000 x25=0x00000000
       73905000	      7389	800031f8	018e5e63	bge	x28,x24,80003214	 x28:0x80009f44 x24:0x00000000
       73915000	      7390	800031fc	1b1cb593	sltiu	x11,x25,433	 x25:0x00000000 x11=0x00000001
       73925000	      7391	80003200	0363f663	bgeu	x7,x22,8000322c	  x7:0x00000000 x22:0x00000000
       73935000	      7392	00000000	00000013	addi	x0,x0,0	  x0:0x00000000
       73945000	      7393	80003228	00000013	addi	x0,x0,0	  x0:0x00000000
       73955000	      7394	8000322c	f0a0ba13	sltiu	x20,x1,-246	  x1:0x80001ff0 x20=0x00000001
       73965000	      7395	80003230	9cae2993	slti	x19,x28,-1590	 x28:0x80009f44 x19=0x00000001
       73975000	      7396	80003234	00000013	addi	x0,x0,0	  x0:0x00000000
       73985000	      7397	80003238	00164e63	blt	x12,x1,80003254	 x12:0x00000001  x1:0x80001ff0
       73995000	      7398	8000323c	c0f3e437	lui	x8,0xc0f3e	  x8=0xc0f3e000
       74005000	      7399	80003240	00000013	addi	x0,x0,0	  x0:0x00000000
       74015000	      7400	80003244	74ff4197	auipc	x3,0x74ff4	  x3=0xf4ff7240
       74025000	      7401	80003248	01e2d233	srl	x4,x5,x30	  x5:0x00000000 x30:0x00000000  x4=0x00000000
       74035000	      7402	8000324c	00000013	addi	x0,x0,0	  x0:0x00000000
       74045000	      7403	80003250	00119533	sll	x10,x3,x1	  x3:0xf4ff7240  x1:0x80001ff0 x10=0x72400000
       74055000	      7404	80003254	b2914793	xori	x15,x2,-1239	  x2:0x8000258d x15=0x7fffdea4
       74065000	      7405	80003258	0392ca63	blt	x5,x25,8000328c	  x5:0x00000000 x25:0x00000000
       74075000	      7406	8000325c	05e1f063	bgeu	x3,x30,8000329c	  x3:0xf4ff7240 x30:0x00000000
       74085000	      7407	00000000	00000013	addi	x0,x0,0	  x0:0x00000000
       74095000	      7408	80003298	00000013	addi	x0,x0,0	  x0:0x00000000
       74105000	      7409	8000329c	00000013	addi	x0,x0,0	  x0:0x00000000
       74115000	      7410	800032a0	c804cb93	xori	x23,x9,-896	  x9:0x3fe00000 x23=0xc01ffc80
       74125000	      7411	800032a4	00f196b3	sll	x13,x3,x15	  x3:0xf4ff7240 x15:0x7fffdea4 x13=0x4ff72400
       74135000	      7412	800032a8	015bd313	srli	x6,x23,0x15	 x23:0xc01ffc80  x6=0x00000600
       74145000	      7413	800032ac	026b0063	beq	x22,x6,800032cc	 x22:0x00000000  x6:0x00000600
       74155000	      7414	800032b0	de51af13	slti	x30,x3,-539	  x3:0xf4ff7240 x30=0x00000001
       74165000	      7415	800032b4	01503133	sltu	x2,x0,x21	  x0:0x00000000 x21:0x00000001  x2=0x00000001
       74175000	      7416	800032b8	05584063	blt	x16,x21,800032f8	 x16:0x80009fc4 x21:0x00000001
       74185000	      7417	00000000	00000013	addi	x0,x0,0	  x0:0x00000000
       74195000	      7418	800032f4	00000013	addi	x0,x0,0	  x0:0x00000000
       74205000	      7419	800032f8	f55bf493	andi	x9,x23,-171	 x23:0xc01ffc80  x9=0xc01ffc00
       74215000	      7420	800032fc	00b48333	add	x6,x9,x11	  x9:0xc01ffc00 x11:0x00000001  x6=0xc01ffc01
       74225000	      7421	80003300	75ccb737	lui	x14,0x75ccb	 x14=0x75ccb000
       74235000	      7422	80003304	06134113	xori	x2,x6,97	  x6:0xc01ffc01  x2=0xc01ffc60
       74245000	      7423	80003308	01791c93	slli	x25,x18,0x17	 x18:0x00000100 x25=0x80000000
       74255000	      7424	8000330c	004e2a03	lw	x20,4(x28)	 x28:0x80009f44 x20=0x8000135c PA:0x80009f48
       74265000	      7425	80003310	0034a033	slt	x0,x9,x3	  x9:0xc01ffc00  x3:0xf4ff7240
       74275000	      7426	80003314	cb054213	xori	x4,x10,-848	 x10:0x72400000  x4=0x8dbffcb0
       74285000	      7427	80003318	9508fb13	andi	x22,x17,-1712	 x17:0x80001ff0 x22=0x80001950
       74295000	      7428	8000331c	98330793	addi	x15,x6,-1661	  x6:0xc01ffc01 x15=0xc01ff584
       74305000	      7429	80003320	040e0e13	addi	x28,x28,64	 x28:0x80009f44 x28=0x80009f84
       74315000	      7430	80003324	417cda93	srai	x21,x25,0x17	 x25:0x80000000 x21=0xffffff00
       74325000	      7431	80003328	01cd14b3	sll	x9,x26,x28	 x26:0x80000000 x28:0x80009f84  x9=0x00000000
       74335000	      7432	8000332c	00839313	slli	x6,x7,0x8	  x7:0x00000000  x6=0x00000000
       74345000	      7433	80003330	001a0493	addi	x9,x20,1	 x20:0x8000135c  x9=0x8000135d
       74355000	      7434	80003334	000484e7	jalr	x9,x9,0	  x9:0x8000135d  x9=0x80003334
       74365000	      7435	00000000	00000013	addi	x0,x0,0	  x0:0x00000000
       74375000	      7436	8000135c	00000013	addi	x0,x0,0	  x0:0x00000000
       74385000	      7437	80001360	cda42893	slti	x17,x8,-806	  x8:0xc0f3e000 x17=0x00000001
       74395000	      7438	80001364	90048293	addi	x5,x9,-1792	  x9:0x80003334  x5=0x80002c34
       74405000	      7439	80001368	7310e513	ori	x10,x1,1841	  x1:0x80001ff0 x10=0x80001ff1
       74415000	      7440	8000136c	021bcc63	blt	x23,x1,800013a4	 x23:0xc01ffc80  x1:0x80001ff0
       74425000	      7441	80001370	00000013	addi	x0,x0,0	  x0:0x00000000
       74435000	      7442	80001374	001f5933	srl	x18,x30,x1	 x30:0x00000001  x1:0x80001ff0 x18=0x00000000
       74445000	      7443	80001378	41085a33	sra	x20,x16,x16	 x16:0x80009fc4 x16:0x80009fc4 x20=0xf80009fc
       74455000	      7444	8000137c	fcaea913	slti	x18,x29,-54	 x29:0x80000000 x18=0x00000001
       74465000	      7445	80001380	621f4893	xori	x17,x30,1569	 x30:0x00000001 x17=0x00000620
       74475000	      7446	80001384	00491f33	sll	x30,x18,x4	 x18:0x00000001  x4:0x8dbffcb0 x30=0x00010000
       74485000	      7447	80001388	01bf6e63	bltu	x30,x27,800013a4	 x30:0x00010000 x27:0x00000000
       74495000	      7448	8000138c	00f4afb3	slt	x31,x9,x15	  x9:0x80003334 x15:0xc01ff584 x31=0x00000001
       74505000	      7449	80001390	01d518b3	sll	x17,x10,x29	 x10:0x80001ff1 x29:0x80000000 x17=0x80001ff1
       74515000	      7450	80001394	03016e63	bltu	x2,x16,800013d0	  x2:0xc01ffc60 x16:0x80009fc4
       74525000	      7451	80001398	01cbd733	srl	x14,x23,x28	 x23:0xc01ffc80 x28:0x80009f84 x14=0x0c01ffc8
       74535000	      7452	8000139c	01b84533	xor	x10,x16,x27	 x16:0x80009fc4 x27:0x00000000 x10=0x80009fc4
       74545000	      7453	800013a0	0263d663	bge	x7,x6,800013cc	  x7:0x00000000  x6:0x00000000
       74555000	      7454	00000000	00000013	addi	x0,x0,0	  x0:0x00000000
       74565000	      7455	800013c8	00000013	addi	x0,x0,0	  x0:0x00000000
       74575000	      7456	800013cc	8d51bd93	sltiu	x27,x3,-1835	  x3:0xf4ff7240 x27=0x00000001
       74585000	      7457	800013d0	05186863	bltu	x16,x17,80001420	 x16:0x80009fc4 x17:0x80001ff1
       74595000	      7458	800013d4	98a4b913	sltiu	x18,x9,-1654	  x9:0x80003334 x18=0x00000001
       74605000	      7459	800013d8	76e989b7	lui	x19,0x76e98	 x19=0x76e98000
       74615000	      7460	800013dc	009e73b3	and	x7,x28,x9	 x28:0x80009f84  x9:0x80003334  x7=0x80001304
       74625000	      7461	800013e0	04c96063	bltu	x18,x12,80001420	 x18:0x00000001 x12:0x00000001
       74635000	      7462	800013e4	0289d663	bge	x19,x8,80001410	 x19:0x76e98000  x8:0xc0f3e000
       74645000	      7463	00000000	00000013	addi	x0,x0,0	  x0:0x00000000
       74655000	      7464	8000140c	00000013	addi	x0,x0,0	  x0:0x00000000
       74665000	      7465	80001410	01eb5e63	bge	x22,x30,8000142c	 x22:0x80001950 x30:0x00010000
       74675000	      7466	80001414	04b79863	bne	x15,x11,80001464	 x15:0xc01ff584 x11:0x00000001
       74685000	      7467	00000000	00000013	addi	x0,x0,0	  x0:0x00000000
       74695000	      7468	80001460	00000013	addi	x0,x0,0	  x0:0x00000000
       74705000	      7469	80001464	98a50193	addi	x3,x10,-1654	 x10:0x80009fc4  x3=0x8000994e
       74715000	      7470	80001468	01e349b3	xor	x19,x6,x30	  x6:0x00000000 x30:0x00010000 x19=0x00010000
       74725000	      7471	8000146c	0025c333	xor	x6,x11,x2	 x11:0x00000001  x2:0xc01ffc60  x6=0xc01ffc61
       74735000	      7472	80001470	a1a4f013	andi	x0,x9,-1510	  x9:0x80003334
       74745000	      7473	80001474	66f218b7	lui	x17,0x66f21	 x17=0x66f21000
       74755000	      7474	80001478	41ff03b3	sub	x7,x30,x31	 x30:0x00010000 x31:0x00000001  x7=0x0000ffff
       74765000	      7475	8000147c	00079413	slli	x8,x15,0x0	 x15:0xc01ff584  x8=0xc01ff584
       74775000	      7476	80001480	01fc9663	bne	x25,x31,8000148c	 x25:0x80000000 x31:0x00000001
       74785000	      7477	00000000	00000013	addi	x0,x0,0	  x0:0x00000000
       74795000	      7478	80001488	00000013	addi	x0,x0,0	  x0:0x00000000
       74805000	      7479	8000148c	00da5cb3	srl	x25,x20,x13	 x20:0xf80009fc x13:0x4ff72400 x25=0xf80009fc
       74815000	      7480	80001490	749df913	andi	x18,x27,1865	 x27:0x00000001 x18=0x00000001
       74825000	      7481	80001494	006d9b33	sll	x22,x27,x6	 x27:0x00000001  x6:0xc01ffc61 x22=0x00000002
       74835000	      7482	80001498	00a26db3	or	x27,x4,x10	  x4:0x8dbffcb0 x10:0x80009fc4 x27=0x8dbffff4
       74845000	      7483	8000149c	40d283b3	sub	x7,x5,x13	  x5:0x80002c34 x13:0x4ff72400  x7=0x30090834
       74855000	      7484	800014a0	04490063	beq	x18,x4,800014e0	 x18:0x00000001  x4:0x8dbffcb0
       74865000	      7485	800014a4	6f69e913	ori	x18,x19,1782	 x19:0x00010000 x18=0x000106f6
       74875000	      7486	800014a8	404c80b3	sub	x1,x25,x4	 x25:0xf80009fc  x4:0x8dbffcb0  x1=0x6a400d4c
       74885000	      7487	800014ac	013ef8b3	and	x17,x29,x19	 x29:0x80000000 x19:0x00010000 x17=0x00000000
       74895000	      7488	800014b0	acc93c97	auipc	x25,0xacc93	 x25=0x2cc944ac
       74905000	      7489	800014b4	01f23c33	sltu	x24,x4,x31	  x4:0x8dbffcb0 x31:0x00000001 x24=0x00000000
       74915000	      7490	800014b8	01755263	bge	x10,x23,800014bc	 x10:0x80009fc4 x23:0xc01ffc80
       74925000	      7491	800014bc	6bdf6437	lui	x8,0x6bdf6	  x8=0x6bdf6000
       74935000	      7492	800014c0	00441113	slli	x2,x8,0x4	  x8:0x6bdf6000  x2=0xbdf60000
       74945000	      7493	800014c4	02a39463	bne	x7,x10,800014ec	  x7:0x30090834 x10:0x80009fc4
       74955000	      7494	00000000	00000013	addi	x0,x0,0	  x0:0x00000000
       74965000	      7495	800014e8	00000013	addi	x0,x0,0	  x0:0x00000000
       74975000	      7496	800014ec	04bb5263	bge	x22,x11,80001530	 x22:0x00000002 x11:0x00000001
       74985000	      7497	00000000	00000013	addi	x0,x0,0	  x0:0x00000000
       74995000	      7498	8000152c	00000013	addi	x0,x0,0	  x0:0x00000000
       75005000	      7499	80001530	0283dc63	bge	x7,x8,80001568	  x7:0x30090834  x8:0x6bdf6000
       75015000	      7500	80001534	5d9b2d93	slti	x27,x22,1497	 x22:0x00000002 x27=0x00000001
       75025000	      7501	80001538	035be463	bltu	x23,x21,80001560	 x23:0xc01ffc80 x21:0xffffff00
       75035000	      7502	00000000	00000013	addi	x0,x0,0	  x0:0x00000000
       75045000	      7503	8000155c	00000013	addi	x0,x0,0	  x0:0x00000000
       75055000	      7504	80001560	04644463	blt	x8,x6,800015a8	  x8:0x6bdf6000  x6:0xc01ffc61
       75065000	      7505	80001564	cefef913	andi	x18,x29,-785	 x29:0x80000000 x18=0x80000000
       75075000	      7506	80001568	01c42ab3	slt	x21,x8,x28	  x8:0x6bdf6000 x28:0x80009f84 x21=0x00000000
       75085000	      7507	8000156c	01b0fa33	and	x20,x1,x27	  x1:0x6a400d4c x27:0x00000001 x20=0x00000000
       75095000	      7508	80001570	00ca92b3	sll	x5,x21,x12	 x21:0x00000000 x12:0x00000001  x5=0x00000000
       75105000	      7509	80001574	03c44663	blt	x8,x28,800015a0	  x8:0x6bdf6000 x28:0x80009f84
       75115000	      7510	80001578	00000013	addi	x0,x0,0	  x0:0x00000000
       75125000	      7511	8000157c	53348397	auipc	x7,0x53348	  x7=0xd3349578
       75135000	      7512	80001580	0170ac33	slt	x24,x1,x23	  x1:0x6a400d4c x23:0xc01ffc80 x24=0x00000000
       75145000	      7513	80001584	fc3a2393	slti	x7,x20,-61	 x20:0x00000000  x7=0x00000000
       75155000	      7514	80001588	00229f33	sll	x30,x5,x2	  x5:0x00000000  x2:0xbdf60000 x30=0x00000000
       75165000	      7515	8000158c	014e0e63	beq	x28,x20,800015a8	 x28:0x80009f84 x20:0x00000000
       75175000	      7516	80001590	f11ae613	ori	x12,x21,-239	 x21:0x00000000 x12=0xffffff11
       75185000	      7517	80001594	01565513	srli	x10,x12,0x15	 x12:0xffffff11 x10=0x000007ff
       75195000	      7518	80001598	4b406013	ori	x0,x0,1204	  x0:0x00000000
       75205000	      7519	8000159c	36c3b793	sltiu	x15,x7,876	  x7:0x00000000 x15=0x00000001
       75215000	      7520	800015a0	010c9733	sll	x14,x25,x16	 x25:0x2cc944ac x16:0x80009fc4 x14=0xcc944ac0
       75225000	      7521	800015a4	05b14263	blt	x2,x27,800015e8	  x2:0xbdf60000 x27:0x00000001
       75235000	      7522	00000000	00000013	addi	x0,x0,0	  x0:0x00000000
       75245000	      7523	800015e4	00000013	addi	x0,x0,0	  x0:0x00000000
       75255000	      7524	800015e8	00ef6cb3	or	x25,x30,x14	 x30:0x00000000 x14:0xcc944ac0 x25=0xcc944ac0
       75265000	      7525	800015ec	035ef463	bgeu	x29,x21,80001614	 x29:0x80000000 x21:0x00000000
       75275000	      7526	00000000	00000013	addi	x0,x0,0	  x0:0x00000000
       75285000	      7527	80001610	00000013	addi	x0,x0,0	  x0:0x00000000
       75295000	      7528	80001614	99a33a13	sltiu	x20,x6,-1638	  x6:0xc01ffc61 x20=0x00000001
       75305000	      7529	80001618	0047bdb3	sltu	x27,x15,x4	 x15:0x00000001  x4:0x8dbffcb0 x27=0x00000001
       75315000	      7530	8000161c	05c6d463	bge	x13,x28,80001664	 x13:0x4ff72400 x28:0x80009f84
       75325000	      7531	00000000	00000013	addi	x0,x0,0	  x0:0x00000000
       75335000	      7532	80001660	00000013	addi	x0,x0,0	  x0:0x00000000
       75345000	      7533	80001664	03697663	bgeu	x18,x22,80001690	 x18:0x80000000 x22:0x00000002
       75355000	      7534	00000000	00000013	addi	x0,x0,0	  x0:0x00000000
       75365000	      7535	8000168c	00000013	addi	x0,x0,0	  x0:0x00000000
       75375000	      7536	80001690	00000013	addi	x0,x0,0	  x0:0x00000000
       75385000	      7537	80001694	41e1d513	srai	x10,x3,0x1e	  x3:0x8000994e x10=0xfffffffe
       75395000	      7538	80001698	013e46b3	xor	x13,x28,x19	 x28:0x80009f84 x19:0x00010000 x13=0x80019f84
       75405000	      7539	8000169c	aff9a497	auipc	x9,0xaff9a	  x9=0x2ff9b698
       75415000	      7540	800016a0	012c9463	bne	x25,x18,800016a8	 x25:0xcc944ac0 x18:0x80000000
       75425000	      7541	00000000	00000013	addi	x0,x0,0	  x0:0x00000000
       75435000	      7542	800016a4	00000013	addi	x0,x0,0	  x0:0x00000000
       75445000	      7543	800016a8	004140b3	xor	x1,x2,x4	  x2:0xbdf60000  x4:0x8dbffcb0  x1=0x3049fcb0
       75455000	      7544	800016ac	007da733	slt	x14,x27,x7	 x27:0x00000001  x7:0x00000000 x14=0x00000000
       75465000	      7545	800016b0	407f83b3	sub	x7,x31,x7	 x31:0x00000001  x7:0x00000000  x7=0x00000001
       75475000	      7546	800016b4	b0b04b93	xori	x23,x0,-1269	  x0:0x00000000 x23=0xfffffb0b
       75485000	      7547	800016b8	00000013	addi	x0,x0,0	  x0:0x00000000
       75495000	      7548	800016bc	4170de93	srai	x29,x1,0x17	  x1:0x3049fcb0 x29=0x00000060
       75505000	      7549	800016c0	41275613	srai	x12,x14,0x12	 x14:0x00000000 x12=0x00000000
       75515000	      7550	800016c4	02abf463	bgeu	x23,x10,800016ec	 x23:0xfffffb0b x10:0xfffffffe
       75525000	      7551	800016c8	41885f33	sra	x30,x16,x24	 x16:0x80009fc4 x24:0x00000000 x30=0x80009fc4
       75535000	      7552	800016cc	e3862697	auipc	x13,0xe3862	 x13=0x638636c8
       75545000	      7553	800016d0	77b6f613	andi	x12,x13,1915	 x13:0x638636c8 x12=0x00000648
       75555000	      7554	800016d4	4b324413	xori	x8,x4,1203	  x4:0x8dbffcb0  x8=0x8dbff803
       75565000	      7555	800016d8	413181b3	sub	x3,x3,x19	  x3:0x8000994e x19:0x00010000  x3=0x7fff994e
       75575000	      7556	800016dc	019e6633	or	x12,x28,x25	 x28:0x80009f84 x25:0xcc944ac0 x12=0xcc94dfc4
       75585000	      7557	800016e0	f188b397	auipc	x7,0xf188b	  x7=0x7188c6dc
       75595000	      7558	800016e4	00c10a63	beq	x2,x12,800016f8	  x2:0xbdf60000 x12:0xcc94dfc4
       75605000	      7559	800016e8	00000013	addi	x0,x0,0	  x0:0x00000000
       75615000	      7560	800016ec	01a3cbb3	xor	x23,x7,x26	  x7:0x7188c6dc x26:0x80000000 x23=0xf188c6dc
       75625000	      7561	800016f0	01b5d033	srl	x0,x11,x27	 x11:0x00000001 x27:0x00000001
       75635000	      7562	800016f4	385c0893	addi	x17,x24,901	 x24:0x00000000 x17=0x00000385
       75645000	      7563	800016f8	8c47c313	xori	x6,x15,-1852	 x15:0x00000001  x6=0xfffff8c5
       75655000	      7564	800016fc	d3d94d93	xori	x27,x18,-707	 x18:0x80000000 x27=0x7ffffd3d
       75665000	      7565	80001700	00176633	or	x12,x14,x1	 x14:0x00000000  x1:0x3049fcb0 x12=0x3049fcb0
       75675000	      7566	80001704	796d2113	slti	x2,x26,1942	 x26:0x80000000  x2=0x00000001
       75685000	      7567	80001708	01349cb3	sll	x25,x9,x19	  x9:0x2ff9b698 x19:0x00010000 x25=0x2ff9b698
       75695000	      7568	8000170c	00d73db3	sltu	x27,x14,x13	 x14:0x00000000 x13:0x638636c8 x27=0x00000001
       75705000	      7569	80001710	cfb72b13	slti	x22,x14,-773	 x14:0x00000000 x22=0x00000000
       75715000	      7570	80001714	019fdd93	srli	x27,x31,0x19	 x31:0x00000001 x27=0x00000000
       75725000	      7571	80001718	41da0c33	sub	x24,x20,x29	 x20:0x00000001 x29:0x00000060 x24=0xffffffa1
       75735000	      7572	8000171c	001af533	and	x10,x21,x1	 x21:0x00000000  x1:0x3049fcb0 x10=0x00000000
       75745000	      7573	80001720	00667c63	bgeu	x12,x6,80001738	 x12:0x3049fcb0  x6:0xfffff8c5
       75755000	      7574	80001724	d18505b7	lui	x11,0xd1850	 x11=0xd1850000
       75765000	      7575	80001728	012093b3	sll	x7,x1,x18	  x1:0x3049fcb0 x18:0x80000000  x7=0x3049fcb0
       75775000	      7576	8000172c	72dd3593	sltiu	x11,x26,1837	 x26:0x80000000 x11=0x00000000
       75785000	      7577	80001730	00b12ab3	slt	x21,x2,x11	  x2:0x00000001 x11:0x00000000 x21=0x00000000
       75795000	      7578	80001734	00bc1493	slli	x9,x24,0xb	 x24:0xffffffa1  x9=0xfffd0800
       75805000	      7579	80001738	409ad213	srai	x4,x21,0x9	 x21:0x00000000  x4=0x00000000
       75815000	      7580	8000173c	737ee693	ori	x13,x29,1847	 x29:0x00000060 x13=0x00000777
       75825000	      7581	80001740	51dde493	ori	x9,x27,1309	 x27:0x00000000  x9=0x0000051d
       75835000	      7582	80001744	01b21ab3	sll	x21,x4,x27	  x4:0x00000000 x27:0x00000000 x21=0x00000000
       75845000	      7583	80001748	00621ab3	sll	x21,x4,x6	  x4:0x00000000  x6:0xfffff8c5 x21=0x00000000
       75855000	      7584	8000174c	75ebc097	auipc	x1,0x75ebc	  x1=0xf5ebd748
       75865000	      7585	80001750	01695863	bge	x18,x22,80001760	 x18:0x80000000 x22:0x00000000
       75875000	      7586	80001754	02518a63	beq	x3,x5,80001788	  x3:0x7fff994e  x5:0x00000000
       75885000	      7587	80001758	007d8e63	beq	x27,x7,80001774	 x27:0x00000000  x7:0x3049fcb0
       75895000	      7588	8000175c	409205b3	sub	x11,x4,x9	  x4:0x00000000  x9:0x0000051d x11=0xfffffae3
       75905000	      7589	80001760	0011c4b3	xor	x9,x3,x1	  x3:0x7fff994e  x1:0xf5ebd748  x9=0x8a144e06
       75915000	      7590	80001764	e5fcf7b7	lui	x15,0xe5fcf	 x15=0xe5fcf000
       75925000	      7591	80001768	edf38b13	addi	x22,x7,-289	  x7:0x3049fcb0 x22=0x3049fb8f
       75935000	      7592	8000176c	00c319b3	sll	x19,x6,x12	  x6:0xfffff8c5 x12:0x3049fcb0 x19=0xf8c50000
       75945000	      7593	80001770	78e04193	xori	x3,x0,1934	  x0:0x00000000  x3=0x0000078e
       75955000	      7594	80001774	e29af013	andi	x0,x21,-471	 x21:0x00000000
       75965000	      7595	80001778	aae12993	slti	x19,x2,-1362	  x2:0x00000001 x19=0x00000000
       75975000	      7596	8000177c	25efac13	slti	x24,x31,606	 x31:0x00000001 x24=0x00000001
       75985000	      7597	80001780	40ff81b3	sub	x3,x31,x15	 x31:0x00000001 x15:0xe5fcf000  x3=0x1a031001
       75995000	      7598	80001784	2ee50693	addi	x13,x10,750	 x10:0x00000000 x13=0x000002ee
       76005000	      7599	80001788	00000013	addi	x0,x0,0	  x0:0x00000000
       76015000	      7600	8000178c	00f308b3	add	x17,x6,x15	  x6:0xfffff8c5 x15:0xe5fcf000 x17=0xe5fce8c5
       76025000	      7601	80001790	41d15913	srai	x18,x2,0x1d	  x2:0x00000001 x18=0x00000000
       76035000	      7602	80001794	05639063	bne	x7,x22,800017d4	  x7:0x3049fcb0 x22:0x3049fb8f
       76045000	      7603	00000000	00000013	addi	x0,x0,0	  x0:0x00000000
       76055000	      7604	800017d0	00000013	addi	x0,x0,0	  x0:0x00000000
       76065000	      7605	800017d4	01e85a93	srli	x21,x16,0x1e	 x16:0x80009fc4 x21=0x00000002
       76075000	      7606	800017d8	000c3333	sltu	x6,x24,x0	 x24:0x00000001  x0:0x00000000  x6=0x00000000
       76085000	      7607	800017dc	04c90063	beq	x18,x12,8000181c	 x18:0x00000000 x12:0x3049fcb0
       76095000	      7608	800017e0	02f67263	bgeu	x12,x15,80001804	 x12:0x3049fcb0 x15:0xe5fcf000
       76105000	      7609	800017e4	40c90133	sub	x2,x18,x12	 x18:0x00000000 x12:0x3049fcb0  x2=0xcfb60350
       76115000	      7610	800017e8	0057d713	srli	x14,x15,0x5	 x15:0xe5fcf000 x14=0x072fe780
       76125000	      7611	800017ec	0189aab3	slt	x21,x19,x24	 x19:0x00000000 x24:0x00000001 x21=0x00000001
       76135000	      7612	800017f0	413653b3	sra	x7,x12,x19	 x12:0x3049fcb0 x19:0x00000000  x7=0x3049fcb0
       76145000	      7613	800017f4	00459333	sll	x6,x11,x4	 x11:0xfffffae3  x4:0x00000000  x6=0xfffffae3
       76155000	      7614	800017f8	03dd9e63	bne	x27,x29,80001834	 x27:0x00000000 x29:0x00000060
       76165000	      7615	00000000	00000013	addi	x0,x0,0	  x0:0x00000000
       76175000	      7616	80001830	00000013	addi	x0,x0,0	  x0:0x00000000
       76185000	      7617	80001834	00000013	addi	x0,x0,0	  x0:0x00000000
       76195000	      7618	80001838	015b6b33	or	x22,x22,x21	 x22:0x3049fb8f x21:0x00000001 x22=0x3049fb8f
       76205000	      7619	8000183c	41175133	sra	x2,x14,x17	 x14:0x072fe780 x17:0xe5fce8c5  x2=0x00397f3c
       76215000	      7620	80001840	01691293	slli	x5,x18,0x16	 x18:0x00000000  x5=0x00000000
       76225000	      7621	80001844	0036d4b3	srl	x9,x13,x3	 x13:0x000002ee  x3:0x1a031001  x9=0x00000177
       76235000	      7622	80001848	00000013	addi	x0,x0,0	  x0:0x00000000
       76245000	      7623	8000184c	0073e733	or	x14,x7,x7	  x7:0x3049fcb0  x7:0x3049fcb0 x14=0x3049fcb0
       76255000	      7624	80001850	019f6ab3	or	x21,x30,x25	 x30:0x80009fc4 x25:0x2ff9b698 x21=0xaff9bfdc
       76265000	      7625	80001854	00000013	addi	x0,x0,0	  x0:0x00000000
       76275000	      7626	80001858	010bfe63	bgeu	x23,x16,80001874	 x23:0xf188c6dc x16:0x80009fc4
       76285000	      7627	00000000	00000013	addi	x0,x0,0	  x0:0x00000000
       76295000	      7628	80001870	00000013	addi	x0,x0,0	  x0:0x00000000
       76305000	      7629	80001874	015821b3	slt	x3,x16,x21	 x16:0x80009fc4 x21:0xaff9bfdc  x3=0x00000001
       76315000	      7630	80001878	32e4eb93	ori	x23,x9,814	  x9:0x00000177 x23=0x0000037f
       76325000	      7631	8000187c	016e9093	slli	x1,x29,0x16	 x29:0x00000060  x1=0x18000000
       76335000	      7632	80001880	0092f533	and	x10,x5,x9	  x5:0x00000000  x9:0x00000177 x10=0x00000000
       76345000	      7633	80001884	99d7a937	lui	x18,0x99d7a	 x18=0x99d7a000
       76355000	      7634	80001888	0149a613	slti	x12,x19,20	 x19:0x00000000 x12=0x00000001
       76365000	      7635	8000188c	f2b53013	sltiu	x0,x10,-213	 x10:0x00000000
       76375000	      7636	80001890	02645c63	bge	x8,x6,800018c8	  x8:0x8dbff803  x6:0xfffffae3
       76385000	      7637	80001894	717ae993	ori	x19,x21,1815	 x21:0xaff9bfdc x19=0xaff9bfdf
       76395000	      7638	80001898	81af0913	addi	x18,x30,-2022	 x30:0x80009fc4 x18=0x800097de
       76405000	      7639	8000189c	00935b33	srl	x22,x6,x9	  x6:0xfffffae3  x9:0x00000177 x22=0x000001ff
       76415000	      7640	800018a0	00999e93	slli	x29,x19,0x9	 x19:0xaff9bfdf x29=0xf37fbe00
       76425000	      7641	800018a4	9e2c0013	addi	x0,x24,-1566	 x24:0x00000001
       76435000	      7642	800018a8	01a9e263	bltu	x19,x26,800018ac	 x19:0xaff9bfdf x26:0x80000000
       76445000	      7643	800018ac	00354863	blt	x10,x3,800018bc	 x10:0x00000000  x3:0x00000001
       76455000	      7644	00000000	00000013	addi	x0,x0,0	  x0:0x00000000
       76465000	      7645	800018b8	00000013	addi	x0,x0,0	  x0:0x00000000
       76475000	      7646	800018bc	004ad093	srli	x1,x21,0x4	 x21:0xaff9bfdc  x1=0x0aff9bfd
       76485000	      7647	800018c0	0007f7b3	and	x15,x15,x0	 x15:0xe5fcf000  x0:0x00000000 x15=0x00000000
       76495000	      7648	800018c4	41a90633	sub	x12,x18,x26	 x18:0x800097de x26:0x80000000 x12=0x000097de
       76505000	      7649	800018c8	01365133	srl	x2,x12,x19	 x12:0x000097de x19:0xaff9bfdf  x2=0x00000000
       76515000	      7650	800018cc	0457d063	bge	x15,x5,8000190c	 x15:0x00000000  x5:0x00000000
       76525000	      7651	00000000	00000013	addi	x0,x0,0	  x0:0x00000000
       76535000	      7652	80001908	00000013	addi	x0,x0,0	  x0:0x00000000
       76545000	      7653	8000190c	f6068a93	addi	x21,x13,-160	 x13:0x000002ee x21=0x0000024e
       76555000	      7654	80001910	05fbd063	bge	x23,x31,80001950	 x23:0x0000037f x31:0x00000001
       76565000	      7655	00000000	00000013	addi	x0,x0,0	  x0:0x00000000
       76575000	      7656	8000194c	00000013	addi	x0,x0,0	  x0:0x00000000
       76585000	      7657	80001950	0055e733	or	x14,x11,x5	 x11:0xfffffae3  x5:0x00000000 x14=0xfffffae3
       76595000	      7658	80001954	c69b6713	ori	x14,x22,-919	 x22:0x000001ff x14=0xfffffdff
       76605000	      7659	80001958	04126063	bltu	x4,x1,80001998	  x4:0x00000000  x1:0x0aff9bfd
       76615000	      7660	00000000	00000013	addi	x0,x0,0	  x0:0x00000000
       76625000	      7661	80001994	00000013	addi	x0,x0,0	  x0:0x00000000
       76635000	      7662	80001998	41465633	sra	x12,x12,x20	 x12:0x000097de x20:0x00000001 x12=0x00004bef
       76645000	      7663	8000199c	9d47c317	auipc	x6,0x9d47c	  x6=0x1d47d998
       76655000	      7664	800019a0	404b5633	sra	x12,x22,x4	 x22:0x000001ff  x4:0x00000000 x12=0x000001ff
       76665000	      7665	800019a4	732593b7	lui	x7,0x73259	  x7=0x73259000
       76675000	      7666	800019a8	05c39463	bne	x7,x28,800019f0	  x7:0x73259000 x28:0x80009f84
       76685000	      7667	00000000	00000013	addi	x0,x0,0	  x0:0x00000000
       76695000	      7668	800019ec	00000013	addi	x0,x0,0	  x0:0x00000000
       76705000	      7669	800019f0	052c9863	bne	x25,x18,80001a40	 x25:0x2ff9b698 x18:0x800097de
       76715000	      7670	00000000	00000013	addi	x0,x0,0	  x0:0x00000000
       76725000	      7671	80001a3c	00000013	addi	x0,x0,0	  x0:0x00000000
       76735000	      7672	80001a40	01095993	srli	x19,x18,0x10	 x18:0x800097de x19=0x00008000
       76745000	      7673	80001a44	00defdb3	and	x27,x29,x13	 x29:0xf37fbe00 x13:0x000002ee x27=0x00000200
       76755000	      7674	80001a48	407adeb3	sra	x29,x21,x7	 x21:0x0000024e  x7:0x73259000 x29=0x0000024e
       76765000	      7675	80001a4c	005774b3	and	x9,x14,x5	 x14:0xfffffdff  x5:0x00000000  x9=0x00000000
       76775000	      7676	80001a50	1d43e913	ori	x18,x7,468	  x7:0x73259000 x18=0x732591d4
       76785000	      7677	80001a54	572b7e97	auipc	x29,0x572b7	 x29=0xd72b8a50
       76795000	      7678	80001a58	00201e63	bne	x0,x2,80001a74	  x0:0x00000000  x2:0x00000000
       76805000	      7679	80001a5c	5ec86f13	ori	x30,x16,1516	 x16:0x80009fc4 x30=0x80009fec
       76815000	      7680	80001a60	00c1ccb3	xor	x25,x3,x12	  x3:0x00000001 x12:0x000001ff x25=0x000001fe
       76825000	      7681	80001a64	40d5d5b3	sra	x11,x11,x13	 x11:0xfffffae3 x13:0x000002ee x11=0xffffffff
       76835000	      7682	80001a68	01e7b4b3	sltu	x9,x15,x30	 x15:0x00000000 x30:0x80009fec  x9=0x00000001
       76845000	      7683	80001a6c	00757db3	and	x27,x10,x7	 x10:0x00000000  x7:0x73259000 x27=0x00000000
       76855000	      7684	80001a70	007e1113	slli	x2,x28,0x7	 x28:0x80009f84  x2=0x004fc200
       76865000	      7685	80001a74	04de0063	beq	x28,x13,80001ab4	 x28:0x80009f84 x13:0x000002ee
       76875000	      7686	80001a78	9d1b4693	xori	x13,x22,-1583	 x22:0x000001ff x13=0xfffff82e
       76885000	      7687	80001a7c	63a54393	xori	x7,x10,1594	 x10:0x00000000  x7=0x0000063a
       76895000	      7688	80001a80	00000013	addi	x0,x0,0	  x0:0x00000000
       76905000	      7689	80001a84	002049b3	xor	x19,x0,x2	  x0:0x00000000  x2:0x004fc200 x19=0x004fc200
       76915000	      7690	80001a88	00000013	addi	x0,x0,0	  x0:0x00000000
       76925000	      7691	80001a8c	00fd3933	sltu	x18,x26,x15	 x26:0x80000000 x15:0x00000000 x18=0x00000000
       76935000	      7692	80001a90	03731663	bne	x6,x23,80001abc	  x6:0x1d47d998 x23:0x0000037f
       76945000	      7693	00000000	00000013	addi	x0,x0,0	  x0:0x00000000
       76955000	      7694	80001ab8	00000013	addi	x0,x0,0	  x0:0x00000000
       76965000	      7695	80001abc	013d7633	and	x12,x26,x19	 x26:0x80000000 x19:0x004fc200 x12=0x00000000
       76975000	      7696	80001ac0	00dcf8b3	and	x17,x25,x13	 x25:0x000001fe x13:0xfffff82e x17=0x0000002e
       76985000	      7697	80001ac4	d5d60193	addi	x3,x12,-675	 x12:0x00000000  x3=0xfffffd5d
       76995000	      7698	80001ac8	27cbc593	xori	x11,x23,636	 x23:0x0000037f x11=0x00000103
       77005000	      7699	80001acc	00f7ee63	bltu	x15,x15,80001ae8	 x15:0x00000000 x15:0x00000000
       77015000	      7700	80001ad0	005d5013	srli	x0,x26,0x5	 x26:0x80000000
       77025000	      7701	80001ad4	002ff6b3	and	x13,x31,x2	 x31:0x00000001  x2:0x004fc200 x13=0x00000000
       77035000	      7702	80001ad8	000c69b3	or	x19,x24,x0	 x24:0x00000001  x0:0x00000000 x19=0x00000001
       77045000	      7703	80001adc	68f12b97	auipc	x23,0x68f12	 x23=0xe8f13ad8
       77055000	      7704	80001ae0	004b0e63	beq	x22,x4,80001afc	 x22:0x000001ff  x4:0x00000000
       77065000	      7705	80001ae4	00fe8133	add	x2,x29,x15	 x29:0xd72b8a50 x15:0x00000000  x2=0xd72b8a50
       77075000	      7706	80001ae8	414cd593	srai	x11,x25,0x14	 x25:0x000001fe x11=0x00000000
       77085000	      7707	80001aec	002a9db3	sll	x27,x21,x2	 x21:0x0000024e  x2:0xd72b8a50 x27=0x024e0000
       77095000	      7708	80001af0	6f2b2013	slti	x0,x22,1778	 x22:0x000001ff
       77105000	      7709	80001af4	04008063	beq	x1,x0,80001b34	  x1:0x0aff9bfd  x0:0x00000000
       77115000	      7710	80001af8	008bfe63	bgeu	x23,x8,80001b14	 x23:0xe8f13ad8  x8:0x8dbff803
       77125000	      7711	00000000	00000013	addi	x0,x0,0	  x0:0x00000000
       77135000	      7712	80001b10	00000013	addi	x0,x0,0	  x0:0x00000000
       77145000	      7713	80001b14	010e6233	or	x4,x28,x16	 x28:0x80009f84 x16:0x80009fc4  x4=0x80009fc4
       77155000	      7714	80001b18	013e9493	slli	x9,x29,0x13	 x29:0xd72b8a50  x9=0x52800000
       77165000	      7715	80001b1c	00000013	addi	x0,x0,0	  x0:0x00000000
       77175000	      7716	80001b20	0037e0b3	or	x1,x15,x3	 x15:0x00000000  x3:0xfffffd5d  x1=0xfffffd5d
       77185000	      7717	80001b24	01560463	beq	x12,x21,80001b2c	 x12:0x00000000 x21:0x0000024e
       77195000	      7718	80001b28	02cb6a63	bltu	x22,x12,80001b5c	 x22:0x000001ff x12:0x00000000
       77205000	      7719	80001b2c	41f80b33	sub	x22,x16,x31	 x16:0x80009fc4 x31:0x00000001 x22=0x80009fc3
       77215000	      7720	80001b30	00fc2333	slt	x6,x24,x15	 x24:0x00000001 x15:0x00000000  x6=0x00000000
       77225000	      7721	80001b34	0056f0b3	and	x1,x13,x5	 x13:0x00000000  x5:0x00000000  x1=0x00000000
       77235000	      7722	80001b38	b4720a97	auipc	x21,0xb4720	 x21=0x34721b34
       77245000	      7723	80001b3c	00156db3	or	x27,x10,x1	 x10:0x00000000  x1:0x00000000 x27=0x00000000
       77255000	      7724	80001b40	382eef37	lui	x30,0x382ee	 x30=0x382ee000
       77265000	      7725	80001b44	01c44863	blt	x8,x28,80001b54	  x8:0x8dbff803 x28:0x80009f84
       77275000	      7726	80001b48	1c9a8293	addi	x5,x21,457	 x21:0x34721b34  x5=0x34721cfd
       77285000	      7727	80001b4c	05d60063	beq	x12,x29,80001b8c	 x12:0x00000000 x29:0xd72b8a50
       77295000	      7728	80001b50	2d52ae93	slti	x29,x5,725	  x5:0x34721cfd x29=0x00000000
       77305000	      7729	80001b54	f4ecd8b7	lui	x17,0xf4ecd	 x17=0xf4ecd000
       77315000	      7730	80001b58	4010d693	srai	x13,x1,0x1	  x1:0x00000000 x13=0x00000000
       77325000	      7731	80001b5c	015fa1b3	slt	x3,x31,x21	 x31:0x00000001 x21:0x34721b34  x3=0x00000001
       77335000	      7732	80001b60	40b581b3	sub	x3,x11,x11	 x11:0x00000000 x11:0x00000000  x3=0x00000000
       77345000	      7733	80001b64	c415bc93	sltiu	x25,x11,-959	 x11:0x00000000 x25=0x00000001
       77355000	      7734	80001b68	00e45933	srl	x18,x8,x14	  x8:0x8dbff803 x14:0xfffffdff x18=0x00000001
       77365000	      7735	80001b6c	00735533	srl	x10,x6,x7	  x6:0x00000000  x7:0x0000063a x10=0x00000000
       77375000	      7736	80001b70	0123c5b3	xor	x11,x7,x18	  x7:0x0000063a x18:0x00000001 x11=0x0000063b
       77385000	      7737	80001b74	012f3433	sltu	x8,x30,x18	 x30:0x382ee000 x18:0x00000001  x8=0x00000000
       77395000	      7738	80001b78	01069e63	bne	x13,x16,80001b94	 x13:0x00000000 x16:0x80009fc4
       77405000	      7739	00000000	00000013	addi	x0,x0,0	  x0:0x00000000
       77415000	      7740	80001b90	00000013	addi	x0,x0,0	  x0:0x00000000
       77425000	      7741	80001b94	8db85037	lui	x0,0x8db85	
       77435000	      7742	80001b98	9e523693	sltiu	x13,x4,-1563	  x4:0x80009fc4 x13=0x00000001
       77445000	      7743	80001b9c	406c8bb3	sub	x23,x25,x6	 x25:0x00000001  x6:0x00000000 x23=0x00000001
       77455000	      7744	80001ba0	233eba13	sltiu	x20,x29,563	 x29:0x00000000 x20=0x00000001
       77465000	      7745	80001ba4	00000013	addi	x0,x0,0	  x0:0x00000000
       77475000	      7746	80001ba8	008f3ab3	sltu	x21,x30,x8	 x30:0x382ee000  x8:0x00000000 x21=0x00000000
       77485000	      7747	80001bac	012eb333	sltu	x6,x29,x18	 x29:0x00000000 x18:0x00000001  x6=0x00000001
       77495000	      7748	80001bb0	796c2a13	slti	x20,x24,1942	 x24:0x00000001 x20=0x00000001
       77505000	      7749	80001bb4	00000013	addi	x0,x0,0	  x0:0x00000000
       77515000	      7750	80001bb8	01146733	or	x14,x8,x17	  x8:0x00000000 x17:0xf4ecd000 x14=0xf4ecd000
       77525000	      7751	80001bbc	03446463	bltu	x8,x20,80001be4	  x8:0x00000000 x20:0x00000001
       77535000	      7752	00000000	00000013	addi	x0,x0,0	  x0:0x00000000
       77545000	      7753	80001be0	00000013	addi	x0,x0,0	  x0:0x00000000
       77555000	      7754	80001be4	03fb6e63	bltu	x22,x31,80001c20	 x22:0x80009fc3 x31:0x00000001
       77565000	      7755	80001be8	0b9e6313	ori	x6,x28,185	 x28:0x80009f84  x6=0x80009fbd
       77575000	      7756	80001bec	1e5ca093	slti	x1,x25,485	 x25:0x00000001  x1=0x00000001
       77585000	      7757	80001bf0	00f4eab3	or	x21,x9,x15	  x9:0x52800000 x15:0x00000000 x21=0x52800000
       77595000	      7758	80001bf4	01885eb3	srl	x29,x16,x24	 x16:0x80009fc4 x24:0x00000001 x29=0x40004fe2
       77605000	      7759	80001bf8	02665263	bge	x12,x6,80001c1c	 x12:0x00000000  x6:0x80009fbd
       77615000	      7760	00000000	00000013	addi	x0,x0,0	  x0:0x00000000
       77625000	      7761	80001c18	00000013	addi	x0,x0,0	  x0:0x00000000
       77635000	      7762	80001c1c	01d55f33	srl	x30,x10,x29	 x10:0x00000000 x29:0x40004fe2 x30=0x00000000
       77645000	      7763	80001c20	00e7deb3	srl	x29,x15,x14	 x15:0x00000000 x14:0xf4ecd000 x29=0x00000000
       77655000	      7764	80001c24	017f7133	and	x2,x30,x23	 x30:0x00000000 x23:0x00000001  x2=0x00000000
       77665000	      7765	80001c28	00e62fb3	slt	x31,x12,x14	 x12:0x00000000 x14:0xf4ecd000 x31=0x00000000
       77675000	      7766	80001c2c	00000013	addi	x0,x0,0	  x0:0x00000000
       77685000	      7767	80001c30	00f7a8b3	slt	x17,x15,x15	 x15:0x00000000 x15:0x00000000 x17=0x00000000
       77695000	      7768	80001c34	00a05f33	srl	x30,x0,x10	  x0:0x00000000 x10:0x00000000 x30=0x00000000
       77705000	      7769	80001c38	e4864d93	xori	x27,x12,-440	 x12:0x00000000 x27=0xfffffe48
       77715000	      7770	80001c3c	004654b3	srl	x9,x12,x4	 x12:0x00000000  x4:0x80009fc4  x9=0x00000000
       77725000	      7771	80001c40	74332013	slti	x0,x6,1859	  x6:0x80009fbd
       77735000	      7772	80001c44	01b329b3	slt	x19,x6,x27	  x6:0x80009fbd x27:0xfffffe48 x19=0x00000001
       77745000	      7773	80001c48	008e50b3	srl	x1,x28,x8	 x28:0x80009f84  x8:0x00000000  x1=0x80009f84
       77755000	      7774	80001c4c	0070ddb3	srl	x27,x1,x7	  x1:0x80009f84  x7:0x0000063a x27=0x00000020
       77765000	      7775	80001c50	0009d633	srl	x12,x19,x0	 x19:0x00000001  x0:0x00000000 x12=0x00000001
       77775000	      7776	80001c54	019dd1b3	srl	x3,x27,x25	 x27:0x00000020 x25:0x00000001  x3=0x00000010
       77785000	      7777	80001c58	41950b33	sub	x22,x10,x25	 x10:0x00000000 x25:0x00000001 x22=0xffffffff
       77795000	      7778	80001c5c	409d8bb3	sub	x23,x27,x9	 x27:0x00000020  x9:0x00000000 x23=0x00000020
       77805000	      7779	80001c60	00ce7263	bgeu	x28,x12,80001c64	 x28:0x80009f84 x12:0x00000001
       77815000	      7780	00000000	00000013	addi	x0,x0,0	  x0:0x00000000
       77825000	      7781	80001c60	00000013	addi	x0,x0,0	  x0:0x00000000
       77835000	      7782	80001c64	4027d313	srai	x6,x15,0x2	 x15:0x00000000  x6=0x00000000
       77845000	      7783	80001c68	00e4e8b3	or	x17,x9,x14	  x9:0x00000000 x14:0xf4ecd000 x17=0xf4ecd000
       77855000	      7784	80001c6c	005fe0b3	or	x1,x31,x5	 x31:0x00000000  x5:0x34721cfd  x1=0x34721cfd
       77865000	      7785	80001c70	00daea63	bltu	x21,x13,80001c84	 x21:0x52800000 x13:0x00000001
       77875000	      7786	80001c74	00000013	addi	x0,x0,0	  x0:0x00000000
       77885000	      7787	80001c78	00f98533	add	x10,x19,x15	 x19:0x00000001 x15:0x00000000 x10=0x00000001
       77895000	      7788	80001c7c	00dd1a63	bne	x26,x13,80001c90	 x26:0x80000000 x13:0x00000001
       77905000	      7789	00000000	00000013	addi	x0,x0,0	  x0:0x00000000
       77915000	      7790	80001c8c	00000013	addi	x0,x0,0	  x0:0x00000000
       77925000	      7791	80001c90	00509cb3	sll	x25,x1,x5	  x1:0x34721cfd  x5:0x34721cfd x25=0xa0000000
       77935000	      7792	80001c94	00000d17	auipc	x26,0x0	 x26=0x80001c90
       77945000	      7793	80001c98	00cd0d13	addi	x26,x26,12	 x26:0x80001c90 x26=0x80001c9c
       77955000	      7794	80001c9c	000d0067	jalr	x0,x26,0	 x26:0x80001c9c
       77965000	      7795	00000000	00000013	addi	x0,x0,0	  x0:0x00000000
       77975000	      7796	80001c9c	00000013	addi	x0,x0,0	  x0:0x00000000
       77985000	      7797	80001ca0	00100193	addi	x3,x0,1	  x0:0x00000000  x3=0x00000001
       77995000	      7798	80001ca4	00000073	ecall	
       78005000	      7799	80001ca8	3c817293	andi	x5,x2,968	  x2:0x00000000  x5=0x00000000
