		Time			Cycle	PC		Insn	Decoded instruction	Register and memory contents
          65000	         5	80000004	00000293	addi	x5,x0,0	  x0:0x00000000  x5=0x00000000
          75000	         6	80000008	00000313	addi	x6,x0,0	  x0:0x00000000  x6=0x00000000
          85000	         7	8000000c	00628263	beq	x5,x6,80000010	  x5:0x00000000  x6:0x00000000
          95000	         8	00000000	00000013	addi	x0,x0,0	  x0:0x00000000
         105000	         9	8000000c	00000013	addi	x0,x0,0	  x0:0x00000000
         115000	        10	80000010	00000117	auipc	x2,0x0	  x2=0x8000000c
         125000	        11	80000014	00c10113	addi	x2,x2,12	  x2:0x8000000c  x2=0x80000018
         135000	        12	80000018	00010067	jalr	x0,x2,0	  x2:0x80000018
         145000	        13	00000000	00000013	addi	x0,x0,0	  x0:0x00000000
         155000	        14	80000018	00000013	addi	x0,x0,0	  x0:0x00000000
         165000	        15	8000001c	40000a37	lui	x20,0x40000	 x20=0x40000000
         175000	        16	80000020	100a0a13	addi	x20,x20,256	 x20:0x40000000 x20=0x40000100
         185000	        17	80000024	00000013	addi	x0,x0,0	  x0:0x00000000
         195000	        18	80000028	0000af97	auipc	x31,0xa	 x31=0x8000a024
         205000	        19	8000002c	fa0f8f93	addi	x31,x31,-96	 x31:0x8000a024 x31=0x80009fc4
         215000	        20	80000030	00007a17	auipc	x20,0x7	 x20=0x8000702c
         225000	        21	80000034	ce8a0a13	addi	x20,x20,-792	 x20:0x8000702c x20=0x80006d14
         235000	        22	80000038	000a6a13	ori	x20,x20,0	 x20:0x80006d14 x20=0x80006d14
         245000	        23	8000003c	00000013	addi	x0,x0,0	  x0:0x00000000
         255000	        24	80000040	00000a17	auipc	x20,0x0	 x20=0x8000003c
         265000	        25	80000044	020a0a13	addi	x20,x20,32	 x20:0x8000003c x20=0x8000005c
         275000	        26	80000048	00000013	addi	x0,x0,0	  x0:0x00000000
         285000	        27	8000004c	00000013	addi	x0,x0,0	  x0:0x00000000
         295000	        28	80000050	00002a37	lui	x20,0x2	 x20=0x00002000
         305000	        29	80000054	800a0a13	addi	x20,x20,-2048	 x20:0x00002000 x20=0x00001800
         315000	        30	80000058	00000013	addi	x0,x0,0	  x0:0x00000000
         325000	        31	8000005c	00000013	addi	x0,x0,0	  x0:0x00000000
         335000	        32	80000060	f2d97037	lui	x0,0xf2d97	
         345000	        33	80000064	41000013	addi	x0,x0,1040	  x0:0x00000000
         355000	        34	80000068	012da0b7	lui	x1,0x12da	  x1=0x012da000
         365000	        35	8000006c	ff508093	addi	x1,x1,-11	  x1:0x012da000  x1=0x012d9ff5
         375000	        36	80000070	b7aee137	lui	x2,0xb7aee	  x2=0xb7aee000
         385000	        37	80000074	12210113	addi	x2,x2,290	  x2:0xb7aee000  x2=0xb7aee122
         395000	        38	80000078	00000193	addi	x3,x0,0	  x0:0x00000000  x3=0x00000000
         405000	        39	8000007c	f0e88237	lui	x4,0xf0e88	  x4=0xf0e88000
         415000	        40	80000080	7b820213	addi	x4,x4,1976	  x4:0xf0e88000  x4=0xf0e887b8
         425000	        41	80000084	800002b7	lui	x5,0x80000	  x5=0x80000000
         435000	        42	80000088	f06ea337	lui	x6,0xf06ea	  x6=0xf06ea000
         445000	        43	8000008c	f7230313	addi	x6,x6,-142	  x6:0xf06ea000  x6=0xf06e9f72
         455000	        44	80000090	6fb543b7	lui	x7,0x6fb54	  x7=0x6fb54000
         465000	        45	80000094	8f838393	addi	x7,x7,-1800	  x7:0x6fb54000  x7=0x6fb538f8
         475000	        46	80000098	80000437	lui	x8,0x80000	  x8=0x80000000
         485000	        47	8000009c	d835c4b7	lui	x9,0xd835c	  x9=0xd835c000
         495000	        48	800000a0	09f48493	addi	x9,x9,159	  x9:0xd835c000  x9=0xd835c09f
         505000	        49	800000a4	9a604537	lui	x10,0x9a604	 x10=0x9a604000
         515000	        50	800000a8	61a50513	addi	x10,x10,1562	 x10:0x9a604000 x10=0x9a60461a
         525000	        51	800000ac	00000593	addi	x11,x0,0	  x0:0x00000000 x11=0x00000000
         535000	        52	800000b0	a488d637	lui	x12,0xa488d	 x12=0xa488d000
         545000	        53	800000b4	28060613	addi	x12,x12,640	 x12:0xa488d000 x12=0xa488d280
         555000	        54	800000b8	00000693	addi	x13,x0,0	  x0:0x00000000 x13=0x00000000
         565000	        55	800000bc	6d9b0737	lui	x14,0x6d9b0	 x14=0x6d9b0000
         575000	        56	800000c0	a2b70713	addi	x14,x14,-1493	 x14:0x6d9b0000 x14=0x6d9afa2b
         585000	        57	800000c4	00000793	addi	x15,x0,0	  x0:0x00000000 x15=0x00000000
         595000	        58	800000c8	f19e8837	lui	x16,0xf19e8	 x16=0xf19e8000
         605000	        59	800000cc	35a80813	addi	x16,x16,858	 x16:0xf19e8000 x16=0xf19e835a
         615000	        60	800000d0	00000893	addi	x17,x0,0	  x0:0x00000000 x17=0x00000000
         625000	        61	800000d4	00100913	addi	x18,x0,1	  x0:0x00000000 x18=0x00000001
         635000	        62	800000d8	00400993	addi	x19,x0,4	  x0:0x00000000 x19=0x00000004
         645000	        63	800000dc	4d725a37	lui	x20,0x4d725	 x20=0x4d725000
         655000	        64	800000e0	64ba0a13	addi	x20,x20,1611	 x20:0x4d725000 x20=0x4d72564b
         665000	        65	800000e4	00b00b13	addi	x22,x0,11	  x0:0x00000000 x22=0x0000000b
         675000	        66	800000e8	00200b93	addi	x23,x0,2	  x0:0x00000000 x23=0x00000002
         685000	        67	800000ec	f476cc37	lui	x24,0xf476c	 x24=0xf476c000
         695000	        68	800000f0	3aac0c13	addi	x24,x24,938	 x24:0xf476c000 x24=0xf476c3aa
         705000	        69	800000f4	00600c93	addi	x25,x0,6	  x0:0x00000000 x25=0x00000006
         715000	        70	800000f8	80000d37	lui	x26,0x80000	 x26=0x80000000
         725000	        71	800000fc	00000d93	addi	x27,x0,0	  x0:0x00000000 x27=0x00000000
         735000	        72	80000100	00900e13	addi	x28,x0,9	  x0:0x00000000 x28=0x00000009
         745000	        73	80000104	00000e93	addi	x29,x0,0	  x0:0x00000000 x29=0x00000000
         755000	        74	80000108	9df5df37	lui	x30,0x9df5d	 x30=0x9df5d000
         765000	        75	8000010c	78df0f13	addi	x30,x30,1933	 x30:0x9df5d000 x30=0x9df5d78d
         775000	        76	80000110	0000aa97	auipc	x21,0xa	 x21=0x8000a10c
         785000	        77	80000114	e78a8a93	addi	x21,x21,-392	 x21:0x8000a10c x21=0x80009f84
         795000	        78	80000118	41a8d893	srai	x17,x17,0x1a	 x17:0x00000000 x17=0x00000000
         805000	        79	8000011c	6f5a3693	sltiu	x13,x20,1781	 x20:0x4d72564b x13=0x00000000
         815000	        80	80000120	00007497	auipc	x9,0x7	  x9=0x8000711c
         825000	        81	80000124	aec48493	addi	x9,x9,-1300	  x9:0x8000711c  x9=0x80006c08
         835000	        82	80000128	00776e33	or	x28,x14,x7	 x14:0x6d9afa2b  x7:0x6fb538f8 x28=0x6fbffafb
         845000	        83	8000012c	25548493	addi	x9,x9,597	  x9:0x80006c08  x9=0x80006e5d
         855000	        84	80000130	01354733	xor	x14,x10,x19	 x10:0x9a60461a x19:0x00000004 x14=0x9a60461e
         865000	        85	80000134	c42522b7	lui	x5,0xc4252	  x5=0xc4252000
         875000	        86	80000138	004070b3	and	x1,x0,x4	  x0:0x00000000  x4:0xf0e887b8  x1=0x00000000
         885000	        87	8000013c	01899a13	slli	x20,x19,0x18	 x19:0x00000004 x20=0x04000000
         895000	        88	80000140	e2894513	xori	x10,x18,-472	 x18:0x00000001 x10=0xfffffe29
         905000	        89	80000144	e0a7ad93	slti	x27,x15,-502	 x15:0x00000000 x27=0x00000000
         915000	        90	80000148	dac480e7	jalr	x1,x9,-596	  x9:0x80006e5d  x1=0x80000148
         925000	        91	00000000	00000013	addi	x0,x0,0	  x0:0x00000000
         935000	        92	80006c08	00000013	addi	x0,x0,0	  x0:0x00000000
         945000	        93	80006c0c	00c19263	bne	x3,x12,80006c10	  x3:0x00000000 x12:0xa488d280
         955000	        94	00000000	00000013	addi	x0,x0,0	  x0:0x00000000
         965000	        95	80006c0c	00000013	addi	x0,x0,0	  x0:0x00000000
         975000	        96	80006c10	fdca8a93	addi	x21,x21,-36	 x21:0x80009f84 x21=0x80009f60
         985000	        97	80006c14	01eb3433	sltu	x8,x22,x30	 x22:0x0000000b x30:0x9df5d78d  x8=0x00000001
         995000	        98	80006c18	001aa223	sw	x1,4(x21)	 x21:0x80009f60  x1:0x80000148 PA:0x80009f64
        1005000	        99	80006c1c	6b3d7a13	andi	x20,x26,1715	 x26:0x80000000 x20=0x00000000
        1015000	       100	80006c20	416d8e33	sub	x28,x27,x22	 x27:0x00000000 x22:0x0000000b x28=0xfffffff5
        1025000	       101	80006c24	36753993	sltiu	x19,x10,871	 x10:0xfffffe29 x19=0x00000000
        1035000	       102	80006c28	00ba1333	sll	x6,x20,x11	 x20:0x00000000 x11:0x00000000  x6=0x00000000
        1045000	       103	80006c2c	13d398b7	lui	x17,0x13d39	 x17=0x13d39000
        1055000	       104	80006c30	a590b617	auipc	x12,0xa590b	 x12=0x25911c2c
        1065000	       105	80006c34	01f67e63	bgeu	x12,x31,80006c50	 x12:0x25911c2c x31:0x80009fc4
        1075000	       106	80006c38	0117a533	slt	x10,x15,x17	 x15:0x00000000 x17:0x13d39000 x10=0x00000001
        1085000	       107	80006c3c	01ada3b3	slt	x7,x27,x26	 x27:0x00000000 x26:0x80000000  x7=0x00000000
        1095000	       108	80006c40	27e221b7	lui	x3,0x27e22	  x3=0x27e22000
        1105000	       109	80006c44	3cb14d13	xori	x26,x2,971	  x2:0xb7aee122 x26=0xb7aee2e9
        1115000	       110	80006c48	414d5bb3	sra	x23,x26,x20	 x26:0xb7aee2e9 x20:0x00000000 x23=0xb7aee2e9
        1125000	       111	80006c4c	01ebb3b3	sltu	x7,x23,x30	 x23:0xb7aee2e9 x30:0x9df5d78d  x7=0x00000000
        1135000	       112	80006c50	c35fb0ef	jal	x1,80006c50	  x1=0x80006c50
        1145000	       113	00000000	00000013	addi	x0,x0,0	  x0:0x00000000
        1155000	       114	80002880	00000013	addi	x0,x0,0	  x0:0x00000000
        1165000	       115	80002884	01e48e33	add	x28,x9,x30	  x9:0x80006e5d x30:0x9df5d78d x28=0x1df645ea
        1175000	       116	80002888	df648313	addi	x6,x9,-522	  x9:0x80006e5d  x6=0x80006c53
        1185000	       117	8000288c	00b18863	beq	x3,x11,8000289c	  x3:0x27e22000 x11:0x00000000
        1195000	       118	80002890	db144313	xori	x6,x8,-591	  x8:0x00000001  x6=0xfffffdb0
        1205000	       119	80002894	01324db3	xor	x27,x4,x19	  x4:0xf0e887b8 x19:0x00000000 x27=0xf0e887b8
        1215000	       120	80002898	415501b3	sub	x3,x10,x21	 x10:0x00000001 x21:0x80009f60  x3=0x7fff60a1
        1225000	       121	8000289c	ff8a8a93	addi	x21,x21,-8	 x21:0x80009f60 x21=0x80009f58
        1235000	       122	800028a0	0b3fce13	xori	x28,x31,179	 x31:0x80009fc4 x28=0x80009f77
        1245000	       123	800028a4	24341597	auipc	x11,0x24341	 x11=0xa43438a0
        1255000	       124	800028a8	001aa223	sw	x1,4(x21)	 x21:0x80009f58  x1:0x80006c50 PA:0x80009f5c
        1265000	       125	800028ac	b899a517	auipc	x10,0xb899a	 x10=0x3899c8a8
        1275000	       126	800028b0	01001a13	slli	x20,x0,0x10	  x0:0x00000000 x20=0x00000000
        1285000	       127	800028b4	00f1f033	and	x0,x3,x15	  x3:0x7fff60a1 x15:0x00000000
        1295000	       128	800028b8	00dd4333	xor	x6,x26,x13	 x26:0xb7aee2e9 x13:0x00000000  x6=0xb7aee2e9
        1305000	       129	800028bc	7eeb7b93	andi	x23,x22,2030	 x22:0x0000000b x23=0x0000000a
        1315000	       130	800028c0	00000013	addi	x0,x0,0	  x0:0x00000000
        1325000	       131	800028c4	415c09b3	sub	x19,x24,x21	 x24:0xf476c3aa x21:0x80009f58 x19=0x74762452
        1335000	       132	800028c8	b7854e13	xori	x28,x10,-1160	 x10:0x3899c8a8 x28=0xc76633d0
        1345000	       133	800028cc	01e21863	bne	x4,x30,800028dc	  x4:0xf0e887b8 x30:0x9df5d78d
        1355000	       134	00000000	00000013	addi	x0,x0,0	  x0:0x00000000
        1365000	       135	800028d8	00000013	addi	x0,x0,0	  x0:0x00000000
        1375000	       136	800028dc	3f5020ef	jal	x1,800028dc	  x1=0x800028dc
        1385000	       137	00000000	00000013	addi	x0,x0,0	  x0:0x00000000
        1395000	       138	800054cc	00000013	addi	x0,x0,0	  x0:0x00000000
        1405000	       139	800054d0	01228a63	beq	x5,x18,800054e4	  x5:0xc4252000 x18:0x00000001
        1415000	       140	800054d4	001bf233	and	x4,x23,x1	 x23:0x0000000a  x1:0x800028dc  x4=0x00000008
        1425000	       141	800054d8	2c0e2613	slti	x12,x28,704	 x28:0xc76633d0 x12=0x00000001
        1435000	       142	800054dc	0002d293	srli	x5,x5,0x0	  x5:0xc4252000  x5=0xc4252000
        1445000	       143	800054e0	00845533	srl	x10,x8,x8	  x8:0x00000001  x8:0x00000001 x10=0x00000000
        1455000	       144	800054e4	fe0a8a93	addi	x21,x21,-32	 x21:0x80009f58 x21=0x80009f38
        1465000	       145	800054e8	001aa223	sw	x1,4(x21)	 x21:0x80009f38  x1:0x800028dc PA:0x80009f3c
        1475000	       146	800054ec	af0cf613	andi	x12,x25,-1296	 x25:0x00000006 x12=0x00000000
        1485000	       147	800054f0	00b55233	srl	x4,x10,x11	 x10:0x00000000 x11:0xa43438a0  x4=0x00000000
        1495000	       148	800054f4	409cd613	srai	x12,x25,0x9	 x25:0x00000006 x12=0x00000000
        1505000	       149	800054f8	0155ff33	and	x30,x11,x21	 x11:0xa43438a0 x21:0x80009f38 x30=0x80001820
        1515000	       150	800054fc	000ff863	bgeu	x31,x0,8000550c	 x31:0x80009fc4  x0:0x00000000
        1525000	       151	00000000	00000013	addi	x0,x0,0	  x0:0x00000000
        1535000	       152	80005508	00000013	addi	x0,x0,0	  x0:0x00000000
        1545000	       153	8000550c	0c8000ef	jal	x1,8000550c	  x1=0x8000550c
        1555000	       154	00000000	00000013	addi	x0,x0,0	  x0:0x00000000
        1565000	       155	800055d0	00000013	addi	x0,x0,0	  x0:0x00000000
        1575000	       156	800055d4	0171e8b3	or	x17,x3,x23	  x3:0x7fff60a1 x23:0x0000000a x17=0x7fff60ab
        1585000	       157	800055d8	005ac263	blt	x21,x5,800055dc	 x21:0x80009f38  x5:0xc4252000
        1595000	       158	00000000	00000013	addi	x0,x0,0	  x0:0x00000000
        1605000	       159	800055d8	00000013	addi	x0,x0,0	  x0:0x00000000
        1615000	       160	800055dc	fe8a8a93	addi	x21,x21,-24	 x21:0x80009f38 x21=0x80009f20
        1625000	       161	800055e0	b007c893	xori	x17,x15,-1280	 x15:0x00000000 x17=0xfffffb00
        1635000	       162	800055e4	001aa223	sw	x1,4(x21)	 x21:0x80009f20  x1:0x8000550c PA:0x80009f24
        1645000	       163	800055e8	00899333	sll	x6,x19,x8	 x19:0x74762452  x8:0x00000001  x6=0xe8ec48a4
        1655000	       164	800055ec	8aa2a013	slti	x0,x5,-1878	  x5:0xc4252000
        1665000	       165	800055f0	41270433	sub	x8,x14,x18	 x14:0x9a60461e x18:0x00000001  x8=0x9a60461d
        1675000	       166	800055f4	00003797	auipc	x15,0x3	 x15=0x800085f0
        1685000	       167	800055f8	2d678793	addi	x15,x15,726	 x15:0x800085f0 x15=0x800088c6
        1695000	       168	800055fc	01f29db3	sll	x27,x5,x31	  x5:0xc4252000 x31:0x80009fc4 x27=0x42520000
        1705000	       169	80005600	0ee7a503	lw	x10,238(x15)	 x15:0x800088c6 x10=0x9c9d9e9f PA:0x800089b4
        1715000	       170	80005604	04679b23	sh	x6,86(x15)	 x15:0x800088c6  x6:0xe8ec48a4 PA:0x8000891c
        1725000	       171	80005608	03a781a3	sb	x26,35(x15)	 x15:0x800088c6 x26:0xb7aee2e9 PA:0x800088e9
        1735000	       172	8000560c	0b17c683	lbu	x13,177(x15)	 x15:0x800088c6 x13=0x0000005c PA:0x80008977
        1745000	       173	80005610	01cba4b3	slt	x9,x23,x28	 x23:0x0000000a x28:0xc76633d0  x9=0x00000000
        1755000	       174	80005614	f9379923	sh	x19,-110(x15)	 x15:0x800088c6 x19:0x74762452 PA:0x80008858
        1765000	       175	80005618	54903693	sltiu	x13,x0,1353	  x0:0x00000000 x13=0x00000001
        1775000	       176	8000561c	011455b3	srl	x11,x8,x17	  x8:0x9a60461d x17:0xfffffb00 x11=0x9a60461d
        1785000	       177	80005620	0e6789a3	sb	x6,243(x15)	 x15:0x800088c6  x6:0xe8ec48a4 PA:0x800089b9
        1795000	       178	80005624	006230b3	sltu	x1,x4,x6	  x4:0x00000000  x6:0xe8ec48a4  x1=0x00000001
        1805000	       179	80005628	08d78703	lb	x14,141(x15)	 x15:0x800088c6 x14=0x00000038 PA:0x80008953
        1815000	       180	8000562c	0bf7c683	lbu	x13,191(x15)	 x15:0x800088c6 x13=0x0000006e PA:0x80008985
        1825000	       181	80005630	12aefd93	andi	x27,x29,298	 x29:0x00000000 x27=0x00000000
        1835000	       182	80005634	0fe78c03	lb	x24,254(x15)	 x15:0x800088c6 x24=0xffffffaf PA:0x800089c4
        1845000	       183	80005638	01b05b93	srli	x23,x0,0x1b	  x0:0x00000000 x23=0x00000000
        1855000	       184	8000563c	f757c203	lbu	x4,-139(x15)	 x15:0x800088c6  x4=0x00000020 PA:0x8000883b
        1865000	       185	80005640	274d2193	slti	x3,x26,628	 x26:0xb7aee2e9  x3=0x00000001
        1875000	       186	80005644	0093da13	srli	x20,x7,0x9	  x7:0x00000000 x20=0x00000000
        1885000	       187	80005648	fcd78c03	lb	x24,-51(x15)	 x15:0x800088c6 x24=0x00000078 PA:0x80008893
        1895000	       188	8000564c	0d778e83	lb	x29,215(x15)	 x15:0x800088c6 x29=0xffffff86 PA:0x8000899d
        1905000	       189	80005650	0c878e23	sb	x8,220(x15)	 x15:0x800088c6  x8:0x9a60461d PA:0x800089a2
        1915000	       190	80005654	0056f933	and	x18,x13,x5	 x13:0x0000006e  x5:0xc4252000 x18=0x00000000
        1925000	       191	80005658	40510333	sub	x6,x2,x5	  x2:0xb7aee122  x5:0xc4252000  x6=0xf389c122
        1935000	       192	8000565c	09378aa3	sb	x19,149(x15)	 x15:0x800088c6 x19:0x74762452 PA:0x8000895b
        1945000	       193	80005660	40c05013	srai	x0,x0,0xc	  x0:0x00000000
        1955000	       194	80005664	00a29933	sll	x18,x5,x10	  x5:0xc4252000 x10:0x9c9d9e9f x18=0x00000000
        1965000	       195	80005668	0fc79023	sh	x28,224(x15)	 x15:0x800088c6 x28:0xc76633d0 PA:0x800089a6
        1975000	       196	8000566c	07278423	sb	x18,104(x15)	 x15:0x800088c6 x18:0x00000000 PA:0x8000892e
        1985000	       197	80005670	00a50233	add	x4,x10,x10	 x10:0x9c9d9e9f x10:0x9c9d9e9f  x4=0x393b3d3e
        1995000	       198	80005674	04d78403	lb	x8,77(x15)	 x15:0x800088c6  x8=0xfffffff8 PA:0x80008913
        2005000	       199	80005678	f7479203	lh	x4,-140(x15)	 x15:0x800088c6  x4=0x00002021 PA:0x8000883a
        2015000	       200	8000567c	015c5033	srl	x0,x24,x21	 x24:0x00000078 x21:0x80009f20
        2025000	       201	80005680	0cf78c03	lb	x24,207(x15)	 x15:0x800088c6 x24=0x0000007e PA:0x80008995
        2035000	       202	80005684	0b178423	sb	x17,168(x15)	 x15:0x800088c6 x17:0xfffffb00 PA:0x8000896e
        2045000	       203	80005688	414155b3	sra	x11,x2,x20	  x2:0xb7aee122 x20:0x00000000 x11=0xb7aee122
        2055000	       204	8000568c	0ab78483	lb	x9,171(x15)	 x15:0x800088c6  x9=0x0000005a PA:0x80008971
        2065000	       205	80005690	01cb5293	srli	x5,x22,0x1c	 x22:0x0000000b  x5=0x00000000
        2075000	       206	80005694	00926933	or	x18,x4,x9	  x4:0x00002021  x9:0x0000005a x18=0x0000207b
        2085000	       207	80005698	02178a03	lb	x20,33(x15)	 x15:0x800088c6 x20=0xffffffcc PA:0x800088e7
        2095000	       208	8000569c	00003497	auipc	x9,0x3	  x9=0x80008698
        2105000	       209	800056a0	fa448493	addi	x9,x9,-92	  x9:0x80008698  x9=0x8000863c
        2115000	       210	800056a4	fd248303	lb	x6,-46(x9)	  x9:0x8000863c  x6=0xffffffc5 PA:0x8000860e
        2125000	       211	800056a8	411cd913	srai	x18,x25,0x11	 x25:0x00000006 x18=0x00000000
        2135000	       212	800056ac	fea4d803	lhu	x16,-22(x9)	  x9:0x8000863c x16=0x0000dcdd PA:0x80008626
        2145000	       213	800056b0	8a460393	addi	x7,x12,-1884	 x12:0x00000000  x7=0xfffff8a4
        2155000	       214	800056b4	008396b3	sll	x13,x7,x8	  x7:0xfffff8a4  x8:0xfffffff8 x13=0xa4000000
        2165000	       215	800056b8	01a45c33	srl	x24,x8,x26	  x8:0xfffffff8 x26:0xb7aee2e9 x24=0x007fffff
        2175000	       216	800056bc	03d49323	sh	x29,38(x9)	  x9:0x8000863c x29:0xffffff86 PA:0x80008662
        2185000	       217	800056c0	fdd4c703	lbu	x14,-35(x9)	  x9:0x8000863c x14=0x000000d2 PA:0x80008619
        2195000	       218	800056c4	fc14c803	lbu	x16,-63(x9)	  x9:0x8000863c x16=0x000000b6 PA:0x800085fd
        2205000	       219	800056c8	007f83b3	add	x7,x31,x7	 x31:0x80009fc4  x7:0xfffff8a4  x7=0x80009868
        2215000	       220	800056cc	69e5f517	auipc	x10,0x69e5f	 x10=0xe9e646c8
        2225000	       221	800056d0	fe04a183	lw	x3,-32(x9)	  x9:0x8000863c  x3=0xd4d5d6d7 PA:0x8000861c
        2235000	       222	800056d4	00b4b933	sltu	x18,x9,x11	  x9:0x8000863c x11:0xb7aee122 x18=0x00000001
        2245000	       223	800056d8	ff048aa3	sb	x16,-11(x9)	  x9:0x8000863c x16:0x000000b6 PA:0x80008631
        2255000	       224	800056dc	ffa48003	lb	x0,-6(x9)	  x9:0x8000863c PA:0x80008636
        2265000	       225	800056e0	fee49a03	lh	x20,-18(x9)	  x9:0x8000863c x20=0xffffe0e1 PA:0x8000862a
        2275000	       226	800056e4	40b1d9b3	sra	x19,x3,x11	  x3:0xd4d5d6d7 x11:0xb7aee122 x19=0xf53575b5
        2285000	       227	800056e8	0304cb03	lbu	x22,48(x9)	  x9:0x8000863c x22=0x00000027 PA:0x8000866c
        2295000	       228	800056ec	40035833	sra	x16,x6,x0	  x6:0xffffffc5  x0:0x00000000 x16=0xffffffc5
        2305000	       229	800056f0	eabb6b13	ori	x22,x22,-341	 x22:0x00000027 x22=0xfffffeaf
        2315000	       230	800056f4	fdb48d83	lb	x27,-37(x9)	  x9:0x8000863c x27=0xffffffcc PA:0x80008617
        2325000	       231	800056f8	0114a623	sw	x17,12(x9)	  x9:0x8000863c x17:0xfffffb00 PA:0x80008648
        2335000	       232	800056fc	fef4c083	lbu	x1,-17(x9)	  x9:0x8000863c  x1=0x000000e0 PA:0x8000862b
        2345000	       233	80005700	fc348d23	sb	x3,-38(x9)	  x9:0x8000863c  x3:0xd4d5d6d7 PA:0x80008616
        2355000	       234	80005704	7487e913	ori	x18,x15,1864	 x15:0x800088c6 x18=0x80008fce
        2365000	       235	80005708	0224dd83	lhu	x27,34(x9)	  x9:0x8000863c x27=0x00001415 PA:0x8000865e
        2375000	       236	8000570c	fb15f393	andi	x7,x11,-79	 x11:0xb7aee122  x7=0xb7aee120
        2385000	       237	80005710	fd04c383	lbu	x7,-48(x9)	  x9:0x8000863c  x7=0x000000c7 PA:0x8000860c
        2395000	       238	80005714	61bce813	ori	x16,x25,1563	 x25:0x00000006 x16=0x0000061f
        2405000	       239	80005718	01677cb3	and	x25,x14,x22	 x14:0x000000d2 x22:0xfffffeaf x25=0x00000082
        2415000	       240	8000571c	fd44ce03	lbu	x28,-44(x9)	  x9:0x8000863c x28=0x000000cb PA:0x80008610
        2425000	       241	80005720	00003317	auipc	x6,0x3	  x6=0x8000871c
        2435000	       242	80005724	f9b30313	addi	x6,x6,-101	  x6:0x8000871c  x6=0x800086b7
        2445000	       243	80005728	0a930383	lb	x7,169(x6)	  x6:0x800086b7  x7=0x0000001b PA:0x80008760
        2455000	       244	8000572c	00000013	addi	x0,x0,0	  x0:0x00000000
        2465000	       245	80005730	0a030203	lb	x4,160(x6)	  x6:0x800086b7  x4=0x0000000c PA:0x80008757
        2475000	       246	80005734	07630d83	lb	x27,118(x6)	  x6:0x800086b7 x27=0xffffffe6 PA:0x8000872d
        2485000	       247	80005738	f3f309a3	sb	x31,-205(x6)	  x6:0x800086b7 x31:0x80009fc4 PA:0x800085ea
        2495000	       248	8000573c	f0530003	lb	x0,-251(x6)	  x6:0x800086b7 PA:0x800085bc
        2505000	       249	80005740	f5134b03	lbu	x22,-175(x6)	  x6:0x800086b7 x22=0x000000c3 PA:0x80008608
        2515000	       250	80005744	0f030f03	lb	x30,240(x6)	  x6:0x800086b7 x30=0x0000005c PA:0x800087a7
        2525000	       251	80005748	016871b3	and	x3,x16,x22	 x16:0x0000061f x22:0x000000c3  x3=0x00000003
        2535000	       252	8000574c	07234483	lbu	x9,114(x6)	  x6:0x800086b7  x9=0x000000e2 PA:0x80008729
        2545000	       253	80005750	440e6c93	ori	x25,x28,1088	 x28:0x000000cb x25=0x000004cb
        2555000	       254	80005754	f9030b23	sb	x16,-106(x6)	  x6:0x800086b7 x16:0x0000061f PA:0x8000864d
        2565000	       255	80005758	00da47b3	xor	x15,x20,x13	 x20:0xffffe0e1 x13:0xa4000000 x15=0x5bffe0e1
        2575000	       256	8000575c	25006d13	ori	x26,x0,592	  x0:0x00000000 x26=0x00000250
        2585000	       257	80005760	00fb1433	sll	x8,x22,x15	 x22:0x000000c3 x15:0x5bffe0e1  x8=0x00000186
        2595000	       258	80005764	6d85b713	sltiu	x14,x11,1752	 x11:0xb7aee122 x14=0x00000000
        2605000	       259	80005768	78d12393	slti	x7,x2,1933	  x2:0xb7aee122  x7=0x00000001
        2615000	       260	8000576c	008c53b3	srl	x7,x24,x8	 x24:0x007fffff  x8:0x00000186  x7=0x0001ffff
        2625000	       261	80005770	fd734683	lbu	x13,-41(x6)	  x6:0x800086b7 x13=0x00000045 PA:0x8000868e
        2635000	       262	80005774	fb730b23	sb	x23,-74(x6)	  x6:0x800086b7 x23:0x00000000 PA:0x8000866d
        2645000	       263	80005778	05e30283	lb	x5,94(x6)	  x6:0x800086b7  x5=0xffffffce PA:0x80008715
        2655000	       264	8000577c	15afc413	xori	x8,x31,346	 x31:0x80009fc4  x8=0x80009e9e
        2665000	       265	80005780	00edf433	and	x8,x27,x14	 x27:0xffffffe6 x14:0x00000000  x8=0x00000000
        2675000	       266	80005784	03434083	lbu	x1,52(x6)	  x6:0x800086b7  x1=0x000000a0 PA:0x800086eb
        2685000	       267	80005788	03034403	lbu	x8,48(x6)	  x6:0x800086b7  x8=0x0000009c PA:0x800086e7
        2695000	       268	00000000	00000013	addi	x0,x0,0	  x0:0x00000000
        2705000	       269	8000578c	04834403	lbu	x8,72(x6)	  x6:0x800086b7  x8=0x000000b4 PA:0x800086ff
        2715000	       270	80005790	0c3322a3	sw	x3,197(x6)	  x6:0x800086b7  x3:0x00000003 PA:0x8000877c
        2725000	       271	80005794	00dbadb3	slt	x27,x23,x13	 x23:0x00000000 x13:0x00000045 x27=0x00000001
        2735000	       272	80005798	0ab30b23	sb	x11,182(x6)	  x6:0x800086b7 x11:0xb7aee122 PA:0x8000876d
        2745000	       273	8000579c	f4330e03	lb	x28,-189(x6)	  x6:0x800086b7 x28=0xffffffb1 PA:0x800085fa
        2755000	       274	800057a0	884db513	sltiu	x10,x27,-1916	 x27:0x00000001 x10=0x00000001
        2765000	       275	800057a4	a5072597	auipc	x11,0xa5072	 x11=0x250777a0
        2775000	       276	800057a8	dd9bae93	slti	x29,x23,-551	 x23:0x00000000 x29=0x00000000
        2785000	       277	800057ac	0d430e23	sb	x20,220(x6)	  x6:0x800086b7 x20:0xffffe0e1 PA:0x80008793
        2795000	       278	800057b0	085317a3	sh	x5,143(x6)	  x6:0x800086b7  x5:0xffffffce PA:0x80008746
        2805000	       279	800057b4	04330e23	sb	x3,92(x6)	  x6:0x800086b7  x3:0x00000003 PA:0x80008713
        2815000	       280	800057b8	02334b03	lbu	x22,35(x6)	  x6:0x800086b7 x22=0x00000091 PA:0x800086da
        2825000	       281	800057bc	f6a305a3	sb	x10,-149(x6)	  x6:0x800086b7 x10:0x00000001 PA:0x80008622
        2835000	       282	800057c0	644f7093	andi	x1,x30,1604	 x30:0x0000005c  x1=0x00000044
        2845000	       283	800057c4	0cb30323	sb	x11,198(x6)	  x6:0x800086b7 x11:0x250777a0 PA:0x8000877d
        2855000	       284	800057c8	fea30c23	sb	x10,-8(x6)	  x6:0x800086b7 x10:0x00000001 PA:0x800086af
        2865000	       285	800057cc	fff30983	lb	x19,-1(x6)	  x6:0x800086b7 x19=0x0000006d PA:0x800086b6
        2875000	       286	800057d0	0d630583	lb	x11,214(x6)	  x6:0x800086b7 x11=0x00000046 PA:0x8000878d
        2885000	       287	800057d4	00003d97	auipc	x27,0x3	 x27=0x800087d0
        2895000	       288	800057d8	4e1d8d93	addi	x27,x27,1249	 x27:0x800087d0 x27=0x80008cb1
        2905000	       289	800057dc	bbedc883	lbu	x17,-1090(x27)	 x27:0x80008cb1 x17=0x00000054 PA:0x8000886f
        2915000	       290	800057e0	00000013	addi	x0,x0,0	  x0:0x00000000
        2925000	       291	800057e4	0142b1b3	sltu	x3,x5,x20	  x5:0xffffffce x20:0xffffe0e1  x3=0x00000000
        2935000	       292	800057e8	415e58b3	sra	x17,x28,x21	 x28:0xffffffb1 x21:0x80009f20 x17=0xffffffb1
        2945000	       293	800057ec	01041e33	sll	x28,x8,x16	  x8:0x000000b4 x16:0x0000061f x28=0x00000000
        2955000	       294	800057f0	f39d9e03	lh	x28,-199(x27)	 x27:0x80008cb1 x28=0xffffd0d1 PA:0x80008bea
        2965000	       295	800057f4	d75ac837	lui	x16,0xd75ac	 x16=0xd75ac000
        2975000	       296	800057f8	f09d9183	lh	x3,-247(x27)	 x27:0x80008cb1  x3=0xffffa0a1 PA:0x80008bba
        2985000	       297	800057fc	004dac33	slt	x24,x27,x4	 x27:0x80008cb1  x4:0x0000000c x24=0x00000001
        2995000	       298	80005800	00000013	addi	x0,x0,0	  x0:0x00000000
        3005000	       299	80005804	334dc303	lbu	x6,820(x27)	 x27:0x80008cb1  x6=0x000000ce PA:0x80008fe5
        3015000	       300	80005808	01269e93	slli	x29,x13,0x12	 x13:0x00000045 x29=0x01140000
        3025000	       301	8000580c	41278cb3	sub	x25,x15,x18	 x15:0x5bffe0e1 x18:0x80008fce x25=0xdbff5113
        3035000	       302	80005810	e7d8aa13	slti	x20,x17,-387	 x17:0xffffffb1 x20=0x00000000
        3045000	       303	80005814	cf3dd403	lhu	x8,-781(x27)	 x27:0x80008cb1  x8=0x00008e8f PA:0x800089a4
        3055000	       304	80005818	2d0dcd03	lbu	x26,720(x27)	 x27:0x80008cb1 x26=0x0000006a PA:0x80008f81
        3065000	       305	8000581c	2670e013	ori	x0,x1,615	  x1:0x00000044
        3075000	       306	80005820	00b2c2b3	xor	x5,x5,x11	  x5:0xffffffce x11:0x00000046  x5=0xffffff88
        3085000	       307	80005824	0a7d8923	sb	x7,178(x27)	 x27:0x80008cb1  x7:0x0001ffff PA:0x80008d63
        3095000	       308	80005828	dbbda3a3	sw	x27,-601(x27)	 x27:0x80008cb1 x27:0x80008cb1 PA:0x80008a58
        3105000	       309	8000582c	01e463b3	or	x7,x8,x30	  x8:0x00008e8f x30:0x0000005c  x7=0x00008edf
        3115000	       310	80005830	406a5593	srai	x11,x20,0x6	 x20:0x00000000 x11=0x00000000
        3125000	       311	80005834	d034f993	andi	x19,x9,-765	  x9:0x000000e2 x19=0x00000002
        3135000	       312	80005838	01ebd8b3	srl	x17,x23,x30	 x23:0x00000000 x30:0x0000005c x17=0x00000000
        3145000	       313	8000583c	c80dc683	lbu	x13,-896(x27)	 x27:0x80008cb1 x13=0x0000001a PA:0x80008931
        3155000	       314	80005840	f45dc703	lbu	x14,-187(x27)	 x27:0x80008cb1 x14=0x000000dd PA:0x80008bf6
        3165000	       315	80005844	00b81393	slli	x7,x16,0xb	 x16:0xd75ac000  x7=0xd6000000
        3175000	       316	80005848	01a15b33	srl	x22,x2,x26	  x2:0xb7aee122 x26:0x0000006a x22=0x002debb8
        3185000	       317	8000584c	90524693	xori	x13,x4,-1787	  x4:0x0000000c x13=0xfffff909
        3195000	       318	80005850	00a9d8b3	srl	x17,x19,x10	 x19:0x00000002 x10:0x00000001 x17=0x00000001
        3205000	       319	80005854	cefd9da3	sh	x15,-773(x27)	 x27:0x80008cb1 x15:0x5bffe0e1 PA:0x800089ac
        3215000	       320	80005858	d8ed8683	lb	x13,-626(x27)	 x27:0x80008cb1 x13=0x00000024 PA:0x80008a3f
        3225000	       321	8000585c	00003f17	auipc	x30,0x3	 x30=0x80008858
        3235000	       322	80005860	16ff0f13	addi	x30,x30,367	 x30:0x80008858 x30=0x800089c7
        3245000	       323	80005864	fe9f0e83	lb	x29,-23(x30)	 x30:0x800089c7 x29=0xffffff9b PA:0x800089b0
        3255000	       324	00000000	00000013	addi	x0,x0,0	  x0:0x00000000
        3265000	       325	80005868	00cedd93	srli	x27,x29,0xc	 x29:0xffffff9b x27=0x000fffff
        3275000	       326	8000586c	f74f4c03	lbu	x24,-140(x30)	 x30:0x800089c7 x24=0x00000020 PA:0x8000893b
        3285000	       327	80005870	fddf0e23	sb	x29,-36(x30)	 x30:0x800089c7 x29:0xffffff9b PA:0x800089a3
        3295000	       328	80005874	4e698293	addi	x5,x19,1254	 x19:0x00000002  x5=0x000004e8
        3305000	       329	80005878	f7df4283	lbu	x5,-131(x30)	 x30:0x800089c7  x5=0x0000002f PA:0x80008944
        3315000	       330	8000587c	fe9f4183	lbu	x3,-23(x30)	 x30:0x800089c7  x3=0x0000009b PA:0x800089b0
        3325000	       331	00000000	00000013	addi	x0,x0,0	  x0:0x00000000
        3335000	       332	80005880	f63f4603	lbu	x12,-157(x30)	 x30:0x800089c7 x12=0x00000011 PA:0x8000892a
        3345000	       333	80005884	0d5f4c83	lbu	x25,213(x30)	 x30:0x800089c7 x25=0x00000087 PA:0x80008a9c
        3355000	       334	80005888	00818933	add	x18,x3,x8	  x3:0x0000009b  x8:0x00008e8f x18=0x00008f2a
        3365000	       335	8000588c	fbef0303	lb	x6,-66(x30)	 x30:0x800089c7  x6=0x0000006e PA:0x80008985
        3375000	       336	80005890	e527ad93	slti	x27,x15,-430	 x15:0x5bffe0e1 x27=0x00000000
        3385000	       337	80005894	f5ef0903	lb	x18,-162(x30)	 x30:0x800089c7 x18=0x0000000e PA:0x80008925
        3395000	       338	80005898	044f4503	lbu	x10,68(x30)	 x30:0x800089c7 x10=0x000000f0 PA:0x80008a0b
        3405000	       339	8000589c	6be73413	sltiu	x8,x14,1726	 x14:0x000000dd  x8=0x00000001
        3415000	       340	800058a0	41b5de13	srai	x28,x11,0x1b	 x11:0x00000000 x28=0x00000000
        3425000	       341	800058a4	008f0603	lb	x12,8(x30)	 x30:0x800089c7 x12=0xffffffb4 PA:0x800089cf
        3435000	       342	800058a8	00856633	or	x12,x10,x8	 x10:0x000000f0  x8:0x00000001 x12=0x000000f1
        3445000	       343	800058ac	f6bf0823	sb	x11,-144(x30)	 x30:0x800089c7 x11:0x00000000 PA:0x80008937
        3455000	       344	800058b0	41aa8333	sub	x6,x21,x26	 x21:0x80009f20 x26:0x0000006a  x6=0x80009eb6
        3465000	       345	800058b4	04df1da3	sh	x13,91(x30)	 x30:0x800089c7 x13:0x00000024 PA:0x80008a22
        3475000	       346	800058b8	020f0683	lb	x13,32(x30)	 x30:0x800089c7 x13=0xffffffcc PA:0x800089e7
        3485000	       347	800058bc	90838393	addi	x7,x7,-1784	  x7:0xd6000000  x7=0xd5fff908
        3495000	       348	800058c0	2439bb13	sltiu	x22,x19,579	 x19:0x00000002 x22=0x00000001
        3505000	       349	800058c4	41e2d293	srai	x5,x5,0x1e	  x5:0x0000002f  x5=0x00000000
        3515000	       350	800058c8	0139ebb3	or	x23,x19,x19	 x19:0x00000002 x19:0x00000002 x23=0x00000002
        3525000	       351	800058cc	008be5b3	or	x11,x23,x8	 x23:0x00000002  x8:0x00000001 x11=0x00000003
        3535000	       352	800058d0	fbef4203	lbu	x4,-66(x30)	 x30:0x800089c7  x4=0x0000006e PA:0x80008985
        3545000	       353	800058d4	032f4583	lbu	x11,50(x30)	 x30:0x800089c7 x11=0x000000e2 PA:0x800089f9
        3555000	       354	800058d8	3884d537	lui	x10,0x3884d	 x10=0x3884d000
        3565000	       355	800058dc	40ec58b3	sra	x17,x24,x14	 x24:0x00000020 x14:0x000000dd x17=0x00000000
        3575000	       356	800058e0	b0593a37	lui	x20,0xb0593	 x20=0xb0593000
        3585000	       357	800058e4	00795b33	srl	x22,x18,x7	 x18:0x0000000e  x7:0xd5fff908 x22=0x00000000
        3595000	       358	800058e8	fe8f4703	lbu	x14,-24(x30)	 x30:0x800089c7 x14=0x00000094 PA:0x800089af
        3605000	       359	800058ec	76cb3db7	lui	x27,0x76cb3	 x27=0x76cb3000
        3615000	       360	800058f0	0bef4603	lbu	x12,190(x30)	 x30:0x800089c7 x12=0x0000006e PA:0x80008a85
        3625000	       361	800058f4	fa0f0783	lb	x15,-96(x30)	 x30:0x800089c7 x15=0x0000004c PA:0x80008967
        3635000	       362	800058f8	00735993	srli	x19,x6,0x7	  x6:0x80009eb6 x19=0x0100013d
        3645000	       363	800058fc	052f01a3	sb	x18,67(x30)	 x30:0x800089c7 x18:0x0000000e PA:0x80008a0a
        3655000	       364	80005900	fe4f07a3	sb	x4,-17(x30)	 x30:0x800089c7  x4:0x0000006e PA:0x800089b6
        3665000	       365	80005904	fdff5283	lhu	x5,-33(x30)	 x30:0x800089c7  x5=0x000033d0 PA:0x800089a6
        3675000	       366	80005908	fd9f4083	lbu	x1,-39(x30)	 x30:0x800089c7  x1=0x0000008b PA:0x800089a0
        3685000	       367	8000590c	4437b097	auipc	x1,0x4437b	  x1=0xc4380908
        3695000	       368	80005910	0b0f0183	lb	x3,176(x30)	 x30:0x800089c7  x3=0x0000005c PA:0x80008a77
        3705000	       369	80005914	49884713	xori	x14,x16,1176	 x16:0xd75ac000 x14=0xd75ac498
        3715000	       370	80005918	41eed633	sra	x12,x29,x30	 x29:0xffffff9b x30:0x800089c7 x12=0xffffffff
        3725000	       371	8000591c	40df07b3	sub	x15,x30,x13	 x30:0x800089c7 x13:0xffffffcc x15=0x800089fb
        3735000	       372	80005920	02647e63	bgeu	x8,x6,8000595c	  x8:0x00000001  x6:0x80009eb6
        3745000	       373	80005924	03577063	bgeu	x14,x21,80005944	 x14:0xd75ac498 x21:0x80009f20
        3755000	       374	00000000	00000013	addi	x0,x0,0	  x0:0x00000000
        3765000	       375	80005940	00000013	addi	x0,x0,0	  x0:0x00000000
        3775000	       376	80005944	c8786e93	ori	x29,x16,-889	 x16:0xd75ac000 x29=0xfffffc87
        3785000	       377	80005948	0178f9b3	and	x19,x17,x23	 x17:0x00000000 x23:0x00000002 x19=0x00000000
        3795000	       378	8000594c	40f2d3b3	sra	x7,x5,x15	  x5:0x000033d0 x15:0x800089fb  x7=0x00000000
        3805000	       379	80005950	00c91f13	slli	x30,x18,0xc	 x18:0x0000000e x30=0x0000e000
        3815000	       380	80005954	f2c27813	andi	x16,x4,-212	  x4:0x0000006e x16=0x0000002c
        3825000	       381	80005958	01bf9833	sll	x16,x31,x27	 x31:0x80009fc4 x27:0x76cb3000 x16=0x80009fc4
        3835000	       382	8000595c	0123abb3	slt	x23,x7,x18	  x7:0x00000000 x18:0x0000000e x23=0x00000001
        3845000	       383	80005960	055b7463	bgeu	x22,x21,800059a8	 x22:0x00000000 x21:0x80009f20
        3855000	       384	80005964	003d9f33	sll	x30,x27,x3	 x27:0x76cb3000  x3:0x0000005c x30=0x00000000
        3865000	       385	80005968	010fc7b3	xor	x15,x31,x16	 x31:0x80009fc4 x16:0x80009fc4 x15=0x00000000
        3875000	       386	8000596c	0f87e463	bltu	x15,x24,80005a54	 x15:0x00000000 x24:0x00000020
        3885000	       387	00000000	00000013	addi	x0,x0,0	  x0:0x00000000
        3895000	       388	80005a50	00000013	addi	x0,x0,0	  x0:0x00000000
        3905000	       389	80005a54	41b35eb3	sra	x29,x6,x27	  x6:0x80009eb6 x27:0x76cb3000 x29=0x80009eb6
        3915000	       390	80005a58	01f6d1b3	srl	x3,x13,x31	 x13:0xffffffcc x31:0x80009fc4  x3=0x0ffffffc
        3925000	       391	80005a5c	8ac02d93	slti	x27,x0,-1876	  x0:0x00000000 x27=0x00000000
        3935000	       392	80005a60	00e93eb3	sltu	x29,x18,x14	 x18:0x0000000e x14:0xd75ac498 x29=0x00000001
        3945000	       393	80005a64	02794263	blt	x18,x7,80005a88	 x18:0x0000000e  x7:0x00000000
        3955000	       394	80005a68	046fd263	bge	x31,x6,80005aac	 x31:0x80009fc4  x6:0x80009eb6
        3965000	       395	00000000	00000013	addi	x0,x0,0	  x0:0x00000000
        3975000	       396	80005aa8	00000013	addi	x0,x0,0	  x0:0x00000000
        3985000	       397	80005aac	f06f2e13	slti	x28,x30,-250	 x30:0x00000000 x28=0x00000000
        3995000	       398	80005ab0	a26db613	sltiu	x12,x27,-1498	 x27:0x00000000 x12=0x00000001
        4005000	       399	80005ab4	00000013	addi	x0,x0,0	  x0:0x00000000
        4015000	       400	80005ab8	c8543d93	sltiu	x27,x8,-891	  x8:0x00000001 x27=0x00000001
        4025000	       401	80005abc	e66ce713	ori	x14,x25,-410	 x25:0x00000087 x14=0xfffffee7
        4035000	       402	80005ac0	01d89213	slli	x4,x17,0x1d	 x17:0x00000000  x4=0x00000000
        4045000	       403	80005ac4	10242c93	slti	x25,x8,258	  x8:0x00000001 x25=0x00000001
        4055000	       404	80005ac8	00159c63	bne	x11,x1,80005ae0	 x11:0x000000e2  x1:0xc4380908
        4065000	       405	00000000	00000013	addi	x0,x0,0	  x0:0x00000000
        4075000	       406	80005adc	00000013	addi	x0,x0,0	  x0:0x00000000
        4085000	       407	80005ae0	014a41b3	xor	x3,x20,x20	 x20:0xb0593000 x20:0xb0593000  x3=0x00000000
        4095000	       408	80005ae4	00a08eb3	add	x29,x1,x10	  x1:0xc4380908 x10:0x3884d000 x29=0xfcbcd908
        4105000	       409	80005ae8	01da3e33	sltu	x28,x20,x29	 x20:0xb0593000 x29:0xfcbcd908 x28=0x00000001
        4115000	       410	80005aec	01b982b3	add	x5,x19,x27	 x19:0x00000000 x27:0x00000001  x5=0x00000001
        4125000	       411	80005af0	03239463	bne	x7,x18,80005b18	  x7:0x00000000 x18:0x0000000e
        4135000	       412	00000000	00000013	addi	x0,x0,0	  x0:0x00000000
        4145000	       413	80005b14	00000013	addi	x0,x0,0	  x0:0x00000000
        4155000	       414	80005b18	04284663	blt	x16,x2,80005b64	 x16:0x80009fc4  x2:0xb7aee122
        4165000	       415	00000000	00000013	addi	x0,x0,0	  x0:0x00000000
        4175000	       416	80005b60	00000013	addi	x0,x0,0	  x0:0x00000000
        4185000	       417	80005b64	00000013	addi	x0,x0,0	  x0:0x00000000
        4195000	       418	80005b68	411b58b3	sra	x17,x22,x17	 x22:0x00000000 x17:0x00000000 x17=0x00000000
        4205000	       419	80005b6c	b9a64c97	auipc	x25,0xb9a64	 x25=0x39a69b68
        4215000	       420	80005b70	00000013	addi	x0,x0,0	  x0:0x00000000
        4225000	       421	80005b74	011bf6b3	and	x13,x23,x17	 x23:0x00000001 x17:0x00000000 x13=0x00000000
        4235000	       422	80005b78	bf4e1837	lui	x16,0xbf4e1	 x16=0xbf4e1000
        4245000	       423	80005b7c	40c2dc33	sra	x24,x5,x12	  x5:0x00000001 x12:0x00000001 x24=0x00000000
        4255000	       424	80005b80	0232da63	bge	x5,x3,80005bb4	  x5:0x00000001  x3:0x00000000
        4265000	       425	00000000	00000013	addi	x0,x0,0	  x0:0x00000000
        4275000	       426	80005bb0	00000013	addi	x0,x0,0	  x0:0x00000000
        4285000	       427	80005bb4	06eac863	blt	x21,x14,80005c24	 x21:0x80009f20 x14:0xfffffee7
        4295000	       428	00000000	00000013	addi	x0,x0,0	  x0:0x00000000
        4305000	       429	80005c20	00000013	addi	x0,x0,0	  x0:0x00000000
        4315000	       430	80005c24	6f14f213	andi	x4,x9,1777	  x9:0x000000e2  x4=0x000000e0
        4325000	       431	80005c28	00a25b13	srli	x22,x4,0xa	  x4:0x000000e0 x22=0x00000000
        4335000	       432	80005c2c	00e46c63	bltu	x8,x14,80005c44	  x8:0x00000001 x14:0xfffffee7
        4345000	       433	00000000	00000013	addi	x0,x0,0	  x0:0x00000000
        4355000	       434	80005c40	00000013	addi	x0,x0,0	  x0:0x00000000
        4365000	       435	80005c44	0031b7b3	sltu	x15,x3,x3	  x3:0x00000000  x3:0x00000000 x15=0x00000000
        4375000	       436	80005c48	0166c663	blt	x13,x22,80005c54	 x13:0x00000000 x22:0x00000000
        4385000	       437	80005c4c	01be9e93	slli	x29,x29,0x1b	 x29:0xfcbcd908 x29=0x40000000
        4395000	       438	80005c50	03ef6663	bltu	x30,x30,80005c7c	 x30:0x00000000 x30:0x00000000
        4405000	       439	80005c54	f393b293	sltiu	x5,x7,-199	  x7:0x00000000  x5=0x00000001
        4415000	       440	80005c58	40105793	srai	x15,x0,0x1	  x0:0x00000000 x15=0x00000000
        4425000	       441	80005c5c	05837663	bgeu	x6,x24,80005ca8	  x6:0x80009eb6 x24:0x00000000
        4435000	       442	00000000	00000013	addi	x0,x0,0	  x0:0x00000000
        4445000	       443	80005ca4	00000013	addi	x0,x0,0	  x0:0x00000000
        4455000	       444	80005ca8	36ceab93	slti	x23,x29,876	 x29:0x40000000 x23=0x00000000
        4465000	       445	80005cac	263170b7	lui	x1,0x26317	  x1=0x26317000
        4475000	       446	80005cb0	01ce3f33	sltu	x30,x28,x28	 x28:0x00000001 x28:0x00000001 x30=0x00000000
        4485000	       447	80005cb4	58524717	auipc	x14,0x58524	 x14=0xd8529cb0
        4495000	       448	80005cb8	01d2b2b3	sltu	x5,x5,x29	  x5:0x00000001 x29:0x40000000  x5=0x00000001
        4505000	       449	80005cbc	00000013	addi	x0,x0,0	  x0:0x00000000
        4515000	       450	80005cc0	7b3b8a17	auipc	x20,0x7b3b8	 x20=0xfb3bdcbc
        4525000	       451	80005cc4	0176d863	bge	x13,x23,80005cd4	 x13:0x00000000 x23:0x00000000
        4535000	       452	00000000	00000013	addi	x0,x0,0	  x0:0x00000000
        4545000	       453	80005cd0	00000013	addi	x0,x0,0	  x0:0x00000000
        4555000	       454	80005cd4	2351e693	ori	x13,x3,565	  x3:0x00000000 x13=0x00000235
        4565000	       455	80005cd8	02404e63	blt	x0,x4,80005d14	  x0:0x00000000  x4:0x000000e0
        4575000	       456	00000000	00000013	addi	x0,x0,0	  x0:0x00000000
        4585000	       457	80005d10	00000013	addi	x0,x0,0	  x0:0x00000000
        4595000	       458	80005d14	04518463	beq	x3,x5,80005d5c	  x3:0x00000000  x5:0x00000001
        4605000	       459	80005d18	35092993	slti	x19,x18,848	 x18:0x0000000e x19=0x00000001
        4615000	       460	80005d1c	40ecd613	srai	x12,x25,0xe	 x25:0x39a69b68 x12=0x0000e69a
        4625000	       461	80005d20	01757633	and	x12,x10,x23	 x10:0x3884d000 x23:0x00000000 x12=0x00000000
        4635000	       462	80005d24	02b28063	beq	x5,x11,80005d44	  x5:0x00000001 x11:0x000000e2
        4645000	       463	80005d28	01103233	sltu	x4,x0,x17	  x0:0x00000000 x17:0x00000000  x4=0x00000000
        4655000	       464	80005d2c	5357c313	xori	x6,x15,1333	 x15:0x00000000  x6=0x00000535
        4665000	       465	80005d30	02849263	bne	x9,x8,80005d54	  x9:0x000000e2  x8:0x00000001
        4675000	       466	00000000	00000013	addi	x0,x0,0	  x0:0x00000000
        4685000	       467	80005d50	00000013	addi	x0,x0,0	  x0:0x00000000
        4695000	       468	80005d54	013c15b3	sll	x11,x24,x19	 x24:0x00000000 x19:0x00000001 x11=0x00000000
        4705000	       469	80005d58	00e590b3	sll	x1,x11,x14	 x11:0x00000000 x14:0xd8529cb0  x1=0x00000000
        4715000	       470	80005d5c	00dba7b3	slt	x15,x23,x13	 x23:0x00000000 x13:0x00000235 x15=0x00000001
        4725000	       471	80005d60	3cf6f513	andi	x10,x13,975	 x13:0x00000235 x10=0x00000205
        4735000	       472	80005d64	00b2dd13	srli	x26,x5,0xb	  x5:0x00000001 x26=0x00000000
        4745000	       473	80005d68	03ae7e63	bgeu	x28,x26,80005da4	 x28:0x00000001 x26:0x00000000
        4755000	       474	00000000	00000013	addi	x0,x0,0	  x0:0x00000000
        4765000	       475	80005da0	00000013	addi	x0,x0,0	  x0:0x00000000
        4775000	       476	80005da4	01350233	add	x4,x10,x19	 x10:0x00000205 x19:0x00000001  x4=0x00000206
        4785000	       477	80005da8	04a93393	sltiu	x7,x18,74	 x18:0x0000000e  x7=0x00000001
        4795000	       478	80005dac	1a8590b7	lui	x1,0x1a859	  x1=0x1a859000
        4805000	       479	80005db0	8a34ad13	slti	x26,x9,-1885	  x9:0x000000e2 x26=0x00000000
        4815000	       480	80005db4	05f7d063	bge	x15,x31,80005df4	 x15:0x00000001 x31:0x80009fc4
        4825000	       481	00000000	00000013	addi	x0,x0,0	  x0:0x00000000
        4835000	       482	80005df0	00000013	addi	x0,x0,0	  x0:0x00000000
        4845000	       483	80005df4	02ae1c63	bne	x28,x10,80005e2c	 x28:0x00000001 x10:0x00000205
        4855000	       484	00000000	00000013	addi	x0,x0,0	  x0:0x00000000
        4865000	       485	80005e28	00000013	addi	x0,x0,0	  x0:0x00000000
        4875000	       486	80005e2c	00354eb3	xor	x29,x10,x3	 x10:0x00000205  x3:0x00000000 x29=0x00000205
        4885000	       487	80005e30	40fe54b3	sra	x9,x28,x15	 x28:0x00000001 x15:0x00000001  x9=0x00000000
        4895000	       488	80005e34	003143b3	xor	x7,x2,x3	  x2:0xb7aee122  x3:0x00000000  x7=0xb7aee122
        4905000	       489	80005e38	942c8d93	addi	x27,x25,-1726	 x25:0x39a69b68 x27=0x39a694aa
        4915000	       490	80005e3c	408fd633	sra	x12,x31,x8	 x31:0x80009fc4  x8:0x00000001 x12=0xc0004fe2
        4925000	       491	80005e40	c54aef13	ori	x30,x21,-940	 x21:0x80009f20 x30=0xffffff74
        4935000	       492	80005e44	00000013	addi	x0,x0,0	  x0:0x00000000
        4945000	       493	80005e48	04fb7663	bgeu	x22,x15,80005e94	 x22:0x00000000 x15:0x00000001
        4955000	       494	80005e4c	e1e0c493	xori	x9,x1,-482	  x1:0x1a859000  x9=0xe57a6e1e
        4965000	       495	80005e50	00083933	sltu	x18,x16,x0	 x16:0xbf4e1000  x0:0x00000000 x18=0x00000000
        4975000	       496	80005e54	0073da33	srl	x20,x7,x7	  x7:0xb7aee122  x7:0xb7aee122 x20=0x2debb848
        4985000	       497	80005e58	00000013	addi	x0,x0,0	  x0:0x00000000
        4995000	       498	80005e5c	04ee8663	beq	x29,x14,80005ea8	 x29:0x00000205 x14:0xd8529cb0
        5005000	       499	80005e60	00000013	addi	x0,x0,0	  x0:0x00000000
        5015000	       500	80005e64	0197cc63	blt	x15,x25,80005e7c	 x15:0x00000001 x25:0x39a69b68
        5025000	       501	00000000	00000013	addi	x0,x0,0	  x0:0x00000000
        5035000	       502	80005e78	00000013	addi	x0,x0,0	  x0:0x00000000
        5045000	       503	80005e7c	05da5663	bge	x20,x29,80005ec8	 x20:0x2debb848 x29:0x00000205
        5055000	       504	00000000	00000013	addi	x0,x0,0	  x0:0x00000000
        5065000	       505	80005ec4	00000013	addi	x0,x0,0	  x0:0x00000000
        5075000	       506	80005ec8	d3707993	andi	x19,x0,-713	  x0:0x00000000 x19=0x00000000
        5085000	       507	80005ecc	482a3c37	lui	x24,0x482a3	 x24=0x482a3000
        5095000	       508	80005ed0	3570c593	xori	x11,x1,855	  x1:0x1a859000 x11=0x1a859357
        5105000	       509	80005ed4	34bd3613	sltiu	x12,x26,843	 x26:0x00000000 x12=0x00000001
        5115000	       510	80005ed8	9e59af17	auipc	x30,0x9e59a	 x30=0x1e59fed4
        5125000	       511	80005edc	0166c4b3	xor	x9,x13,x22	 x13:0x00000235 x22:0x00000000  x9=0x00000235
        5135000	       512	80005ee0	09a40c93	addi	x25,x8,154	  x8:0x00000001 x25=0x0000009b
        5145000	       513	80005ee4	0222e263	bltu	x5,x2,80005f08	  x5:0x00000001  x2:0xb7aee122
        5155000	       514	00000000	00000013	addi	x0,x0,0	  x0:0x00000000
        5165000	       515	80005f04	00000013	addi	x0,x0,0	  x0:0x00000000
        5175000	       516	80005f08	0041d4b3	srl	x9,x3,x4	  x3:0x00000000  x4:0x00000206  x9=0x00000000
        5185000	       517	80005f0c	5cc12237	lui	x4,0x5cc12	  x4=0x5cc12000
        5195000	       518	80005f10	454f3713	sltiu	x14,x30,1108	 x30:0x1e59fed4 x14=0x00000000
        5205000	       519	80005f14	de620f13	addi	x30,x4,-538	  x4:0x5cc12000 x30=0x5cc11de6
        5215000	       520	80005f18	01321433	sll	x8,x4,x19	  x4:0x5cc12000 x19:0x00000000  x8=0x5cc12000
        5225000	       521	80005f1c	01e1c9b3	xor	x19,x3,x30	  x3:0x00000000 x30:0x5cc11de6 x19=0x5cc11de6
        5235000	       522	80005f20	01f17733	and	x14,x2,x31	  x2:0xb7aee122 x31:0x80009fc4 x14=0x80008100
        5245000	       523	80005f24	01052a33	slt	x20,x10,x16	 x10:0x00000205 x16:0xbf4e1000 x20=0x00000000
        5255000	       524	80005f28	005e2bb3	slt	x23,x28,x5	 x28:0x00000001  x5:0x00000001 x23=0x00000000
        5265000	       525	80005f2c	b2927793	andi	x15,x4,-1239	  x4:0x5cc12000 x15=0x5cc12000
        5275000	       526	80005f30	03ef6263	bltu	x30,x30,80005f54	 x30:0x5cc11de6 x30:0x5cc11de6
        5285000	       527	80005f34	40050d33	sub	x26,x10,x0	 x10:0x00000205  x0:0x00000000 x26=0x00000205
        5295000	       528	80005f38	00a31a13	slli	x20,x6,0xa	  x6:0x00000535 x20=0x0014d400
        5305000	       529	80005f3c	01bcc433	xor	x8,x25,x27	 x25:0x0000009b x27:0x39a694aa  x8=0x39a69431
        5315000	       530	80005f40	01037a33	and	x20,x6,x16	  x6:0x00000535 x16:0xbf4e1000 x20=0x00000000
        5325000	       531	80005f44	05ca6463	bltu	x20,x28,80005f8c	 x20:0x00000000 x28:0x00000001
        5335000	       532	00000000	00000013	addi	x0,x0,0	  x0:0x00000000
        5345000	       533	80005f88	00000013	addi	x0,x0,0	  x0:0x00000000
        5355000	       534	80005f8c	0094da63	bge	x9,x9,80005fa0	  x9:0x00000000  x9:0x00000000
        5365000	       535	00000000	00000013	addi	x0,x0,0	  x0:0x00000000
        5375000	       536	80005f9c	00000013	addi	x0,x0,0	  x0:0x00000000
        5385000	       537	80005fa0	0027bcb3	sltu	x25,x15,x2	 x15:0x5cc12000  x2:0xb7aee122 x25=0x00000001
        5395000	       538	80005fa4	8ac42497	auipc	x9,0x8ac42	  x9=0x0ac47fa0
        5405000	       539	80005fa8	404c0e33	sub	x28,x24,x4	 x24:0x482a3000  x4:0x5cc12000 x28=0xeb691000
        5415000	       540	80005fac	037e6863	bltu	x28,x23,80005fdc	 x28:0xeb691000 x23:0x00000000
        5425000	       541	80005fb0	79694d37	lui	x26,0x79694	 x26=0x79694000
        5435000	       542	80005fb4	03154e63	blt	x10,x17,80005ff0	 x10:0x00000205 x17:0x00000000
        5445000	       543	80005fb8	4000d033	sra	x0,x1,x0	  x1:0x1a859000  x0:0x00000000
        5455000	       544	80005fbc	815fbd93	sltiu	x27,x31,-2027	 x31:0x80009fc4 x27=0x00000001
        5465000	       545	80005fc0	636e2bb7	lui	x23,0x636e2	 x23=0x636e2000
        5475000	       546	80005fc4	c064e497	auipc	x9,0xc064e	  x9=0x40653fc0
        5485000	       547	80005fc8	008ab933	sltu	x18,x21,x8	 x21:0x80009f20  x8:0x39a69431 x18=0x00000000
        5495000	       548	80005fcc	03b2ca63	blt	x5,x27,80006000	  x5:0x00000001 x27:0x00000001
        5505000	       549	80005fd0	00000013	addi	x0,x0,0	  x0:0x00000000
        5515000	       550	80005fd4	41045313	srai	x6,x8,0x10	  x8:0x39a69431  x6=0x000039a6
        5525000	       551	80005fd8	00d29d33	sll	x26,x5,x13	  x5:0x00000001 x13:0x00000235 x26=0x00200000
        5535000	       552	80005fdc	00ae9613	slli	x12,x29,0xa	 x29:0x00000205 x12=0x00081400
        5545000	       553	80005fe0	beb0f293	andi	x5,x1,-1045	  x1:0x1a859000  x5=0x1a859000
        5555000	       554	80005fe4	00000013	addi	x0,x0,0	  x0:0x00000000
        5565000	       555	80005fe8	f8e56293	ori	x5,x10,-114	 x10:0x00000205  x5=0xffffff8f
        5575000	       556	80005fec	01bc0e63	beq	x24,x27,80006008	 x24:0x482a3000 x27:0x00000001
        5585000	       557	80005ff0	00000013	addi	x0,x0,0	  x0:0x00000000
        5595000	       558	80005ff4	40e4d4b3	sra	x9,x9,x14	  x9:0x40653fc0 x14:0x80008100  x9=0x40653fc0
        5605000	       559	80005ff8	0074d2b3	srl	x5,x9,x7	  x9:0x40653fc0  x7:0xb7aee122  x5=0x10194ff0
        5615000	       560	80005ffc	01d500b3	add	x1,x10,x29	 x10:0x00000205 x29:0x00000205  x1=0x0000040a
        5625000	       561	80006000	405e83b3	sub	x7,x29,x5	 x29:0x00000205  x5:0x10194ff0  x7=0xefe6b215
        5635000	       562	80006004	007b4bb3	xor	x23,x22,x7	 x22:0x00000000  x7:0xefe6b215 x23=0xefe6b215
        5645000	       563	80006008	416d5f13	srai	x30,x26,0x16	 x26:0x00200000 x30=0x00000000
        5655000	       564	8000600c	dd6e6b93	ori	x23,x28,-554	 x28:0xeb691000 x23=0xfffffdd6
        5665000	       565	80006010	00000013	addi	x0,x0,0	  x0:0x00000000
        5675000	       566	80006014	cc49c7b7	lui	x15,0xcc49c	 x15=0xcc49c000
        5685000	       567	80006018	402fd513	srai	x10,x31,0x2	 x31:0x80009fc4 x10=0xe00027f1
        5695000	       568	8000601c	2795a937	lui	x18,0x2795a	 x18=0x2795a000
        5705000	       569	80006020	0373c863	blt	x7,x23,80006050	  x7:0xefe6b215 x23:0xfffffdd6
        5715000	       570	00000000	00000013	addi	x0,x0,0	  x0:0x00000000
        5725000	       571	8000604c	00000013	addi	x0,x0,0	  x0:0x00000000
        5735000	       572	80006050	0c4afa63	bgeu	x21,x4,80006124	 x21:0x80009f20  x4:0x5cc12000
        5745000	       573	00000000	00000013	addi	x0,x0,0	  x0:0x00000000
        5755000	       574	80006120	00000013	addi	x0,x0,0	  x0:0x00000000
        5765000	       575	80006124	022af263	bgeu	x21,x2,80006148	 x21:0x80009f20  x2:0xb7aee122
        5775000	       576	80006128	0142d893	srli	x17,x5,0x14	  x5:0x10194ff0 x17=0x00000101
        5785000	       577	8000612c	e0f7fd13	andi	x26,x15,-497	 x15:0xcc49c000 x26=0xcc49c000
        5795000	       578	80006130	01c65cb3	srl	x25,x12,x28	 x12:0x00081400 x28:0xeb691000 x25=0x00081400
        5805000	       579	80006134	01a56e33	or	x28,x10,x26	 x10:0xe00027f1 x26:0xcc49c000 x28=0xec49e7f1
        5815000	       580	80006138	41c38f33	sub	x30,x7,x28	  x7:0xefe6b215 x28:0xec49e7f1 x30=0x039cca24
        5825000	       581	8000613c	40d50a33	sub	x20,x10,x13	 x10:0xe00027f1 x13:0x00000235 x20=0xe00025bc
        5835000	       582	80006140	01b01633	sll	x12,x0,x27	  x0:0x00000000 x27:0x00000001 x12=0x00000000
        5845000	       583	80006144	582ef693	andi	x13,x29,1410	 x29:0x00000205 x13=0x00000000
        5855000	       584	80006148	01b35393	srli	x7,x6,0x1b	  x6:0x000039a6  x7=0x00000000
        5865000	       585	8000614c	0324d463	bge	x9,x18,80006174	  x9:0x40653fc0 x18:0x2795a000
        5875000	       586	00000000	00000013	addi	x0,x0,0	  x0:0x00000000
        5885000	       587	80006170	00000013	addi	x0,x0,0	  x0:0x00000000
        5895000	       588	80006174	03b75263	bge	x14,x27,80006198	 x14:0x80008100 x27:0x00000001
        5905000	       589	80006178	a9ab0d13	addi	x26,x22,-1382	 x22:0x00000000 x26=0xfffffa9a
        5915000	       590	8000617c	05036863	bltu	x6,x16,800061cc	  x6:0x000039a6 x16:0xbf4e1000
        5925000	       591	00000000	00000013	addi	x0,x0,0	  x0:0x00000000
        5935000	       592	800061c8	00000013	addi	x0,x0,0	  x0:0x00000000
        5945000	       593	800061cc	bc1bc793	xori	x15,x23,-1087	 x23:0xfffffdd6 x15=0x00000617
        5955000	       594	800061d0	010c7333	and	x6,x24,x16	 x24:0x482a3000 x16:0xbf4e1000  x6=0x080a1000
        5965000	       595	800061d4	013491b3	sll	x3,x9,x19	  x9:0x40653fc0 x19:0x5cc11de6  x3=0x194ff000
        5975000	       596	800061d8	5ddcd397	auipc	x7,0x5ddcd	  x7=0xdddd31d4
        5985000	       597	800061dc	02411863	bne	x2,x4,8000620c	  x2:0xb7aee122  x4:0x5cc12000
        5995000	       598	00000000	00000013	addi	x0,x0,0	  x0:0x00000000
        6005000	       599	80006208	00000013	addi	x0,x0,0	  x0:0x00000000
        6015000	       600	8000620c	88844913	xori	x18,x8,-1912	  x8:0x39a69431 x18=0xc6596cb9
        6025000	       601	80006210	014db033	sltu	x0,x27,x20	 x27:0x00000001 x20:0xe00025bc
        6035000	       602	80006214	04846663	bltu	x8,x8,80006260	  x8:0x39a69431  x8:0x39a69431
        6045000	       603	80006218	00b0d593	srli	x11,x1,0xb	  x1:0x0000040a x11=0x00000000
        6055000	       604	8000621c	031f1c63	bne	x30,x17,80006254	 x30:0x039cca24 x17:0x00000101
        6065000	       605	00000000	00000013	addi	x0,x0,0	  x0:0x00000000
        6075000	       606	80006250	00000013	addi	x0,x0,0	  x0:0x00000000
        6085000	       607	80006254	d322e393	ori	x7,x5,-718	  x5:0x10194ff0  x7=0xfffffff2
        6095000	       608	80006258	26436293	ori	x5,x6,612	  x6:0x080a1000  x5=0x080a1264
        6105000	       609	8000625c	00000013	addi	x0,x0,0	  x0:0x00000000
        6115000	       610	80006260	e9990613	addi	x12,x18,-359	 x18:0xc6596cb9 x12=0xc6596b52
        6125000	       611	80006264	03bbf663	bgeu	x23,x27,80006290	 x23:0xfffffdd6 x27:0x00000001
        6135000	       612	00000000	00000013	addi	x0,x0,0	  x0:0x00000000
        6145000	       613	8000628c	00000013	addi	x0,x0,0	  x0:0x00000000
        6155000	       614	80006290	6def2913	slti	x18,x30,1758	 x30:0x039cca24 x18=0x00000000
        6165000	       615	80006294	00000013	addi	x0,x0,0	  x0:0x00000000
        6175000	       616	80006298	79876e13	ori	x28,x14,1944	 x14:0x80008100 x28=0x80008798
        6185000	       617	8000629c	003d05b3	add	x11,x26,x3	 x26:0xfffffa9a  x3:0x194ff000 x11=0x194fea9a
        6195000	       618	800062a0	00c61313	slli	x6,x12,0xc	 x12:0xc6596b52  x6=0x96b52000
        6205000	       619	800062a4	01f828b3	slt	x17,x16,x31	 x16:0xbf4e1000 x31:0x80009fc4 x17=0x00000000
        6215000	       620	800062a8	015053b3	srl	x7,x0,x21	  x0:0x00000000 x21:0x80009f20  x7=0x00000000
        6225000	       621	800062ac	16ef6393	ori	x7,x30,366	 x30:0x039cca24  x7=0x039ccb6e
        6235000	       622	800062b0	567a2793	slti	x15,x20,1383	 x20:0xe00025bc x15=0x00000001
        6245000	       623	800062b4	2486e713	ori	x14,x13,584	 x13:0x00000000 x14=0x00000248
        6255000	       624	800062b8	01bfdb93	srli	x23,x31,0x1b	 x31:0x80009fc4 x23=0x00000010
        6265000	       625	800062bc	0495f863	bgeu	x11,x9,8000630c	 x11:0x194fea9a  x9:0x40653fc0
        6275000	       626	800062c0	40278533	sub	x10,x15,x2	 x15:0x00000001  x2:0xb7aee122 x10=0x48511edf
        6285000	       627	800062c4	05c94263	blt	x18,x28,80006308	 x18:0x00000000 x28:0x80008798
        6295000	       628	800062c8	40fa5cb3	sra	x25,x20,x15	 x20:0xe00025bc x15:0x00000001 x25=0xf00012de
        6305000	       629	800062cc	00bf24b3	slt	x9,x30,x11	 x30:0x039cca24 x11:0x194fea9a  x9=0x00000001
        6315000	       630	800062d0	a3cfa793	slti	x15,x31,-1476	 x31:0x80009fc4 x15=0x00000001
        6325000	       631	800062d4	af1c0213	addi	x4,x24,-1295	 x24:0x482a3000  x4=0x482a2af1
        6335000	       632	800062d8	6ff0feb7	lui	x29,0x6ff0f	 x29=0x6ff0f000
        6345000	       633	800062dc	79eefc13	andi	x24,x29,1950	 x29:0x6ff0f000 x24=0x00000000
        6355000	       634	800062e0	004ae1b3	or	x3,x21,x4	 x21:0x80009f20  x4:0x482a2af1  x3=0xc82abff1
        6365000	       635	800062e4	62a6b393	sltiu	x7,x13,1578	 x13:0x00000000  x7=0x00000001
        6375000	       636	800062e8	00090bb3	add	x23,x18,x0	 x18:0x00000000  x0:0x00000000 x23=0x00000000
        6385000	       637	800062ec	00669663	bne	x13,x6,800062f8	 x13:0x00000000  x6:0x96b52000
        6395000	       638	00000000	00000013	addi	x0,x0,0	  x0:0x00000000
        6405000	       639	800062f4	00000013	addi	x0,x0,0	  x0:0x00000000
        6415000	       640	800062f8	7b293793	sltiu	x15,x18,1970	 x18:0x00000000 x15=0x00000001
        6425000	       641	800062fc	40ce5933	sra	x18,x28,x12	 x28:0x80008798 x12:0xc6596b52 x18=0xffffe000
        6435000	       642	80006300	b264bd93	sltiu	x27,x9,-1242	  x9:0x00000001 x27=0x00000001
        6445000	       643	80006304	02734663	blt	x6,x7,80006330	  x6:0x96b52000  x7:0x00000001
        6455000	       644	00000000	00000013	addi	x0,x0,0	  x0:0x00000000
        6465000	       645	8000632c	00000013	addi	x0,x0,0	  x0:0x00000000
        6475000	       646	80006330	005a53b3	srl	x7,x20,x5	 x20:0xe00025bc  x5:0x080a1264  x7=0x0e00025b
        6485000	       647	80006334	14a53393	sltiu	x7,x10,330	 x10:0x48511edf  x7=0x00000000
        6495000	       648	80006338	007112b3	sll	x5,x2,x7	  x2:0xb7aee122  x7:0x00000000  x5=0xb7aee122
        6505000	       649	8000633c	4199deb3	sra	x29,x19,x25	 x19:0x5cc11de6 x25:0xf00012de x29=0x00000001
        6515000	       650	80006340	00fbf6b3	and	x13,x23,x15	 x23:0x00000000 x15:0x00000001 x13=0x00000000
        6525000	       651	80006344	bbf55597	auipc	x11,0xbbf55	 x11=0x3bf5b340
        6535000	       652	80006348	00b34233	xor	x4,x6,x11	  x6:0x96b52000 x11:0x3bf5b340  x4=0xad409340
        6545000	       653	8000634c	01c773b3	and	x7,x14,x28	 x14:0x00000248 x28:0x80008798  x7=0x00000208
        6555000	       654	80006350	8bc280b7	lui	x1,0x8bc28	  x1=0x8bc28000
        6565000	       655	80006354	0068d513	srli	x10,x17,0x6	 x17:0x00000000 x10=0x00000000
        6575000	       656	80006358	aec73793	sltiu	x15,x14,-1300	 x14:0x00000248 x15=0x00000001
        6585000	       657	8000635c	00c84c63	blt	x16,x12,80006374	 x16:0xbf4e1000 x12:0xc6596b52
        6595000	       658	00000000	00000013	addi	x0,x0,0	  x0:0x00000000
        6605000	       659	80006370	00000013	addi	x0,x0,0	  x0:0x00000000
        6615000	       660	80006374	01119d33	sll	x26,x3,x17	  x3:0xc82abff1 x17:0x00000000 x26=0xc82abff1
        6625000	       661	80006378	017461b3	or	x3,x8,x23	  x8:0x39a69431 x23:0x00000000  x3=0x39a69431
        6635000	       662	8000637c	00000013	addi	x0,x0,0	  x0:0x00000000
        6645000	       663	80006380	b08a2013	slti	x0,x20,-1272	 x20:0xe00025bc
        6655000	       664	80006384	01a8fa63	bgeu	x17,x26,80006398	 x17:0x00000000 x26:0xc82abff1
        6665000	       665	80006388	03f3f863	bgeu	x7,x31,800063b8	  x7:0x00000208 x31:0x80009fc4
        6675000	       666	8000638c	f54e6213	ori	x4,x28,-172	 x28:0x80008798  x4=0xffffffdc
        6685000	       667	80006390	03735a63	bge	x6,x23,800063c4	  x6:0x96b52000 x23:0x00000000
        6695000	       668	80006394	0046d5b3	srl	x11,x13,x4	 x13:0x00000000  x4:0xffffffdc x11=0x00000000
        6705000	       669	80006398	00d99013	slli	x0,x19,0xd	 x19:0x5cc11de6
        6715000	       670	8000639c	01772433	slt	x8,x14,x23	 x14:0x00000248 x23:0x00000000  x8=0x00000000
        6725000	       671	800063a0	017c36b3	sltu	x13,x24,x23	 x24:0x00000000 x23:0x00000000 x13=0x00000000
        6735000	       672	800063a4	e84d3417	auipc	x8,0xe84d3	  x8=0x684d93a0
        6745000	       673	800063a8	0457d663	bge	x15,x5,800063f4	 x15:0x00000001  x5:0xb7aee122
        6755000	       674	00000000	00000013	addi	x0,x0,0	  x0:0x00000000
        6765000	       675	800063f0	00000013	addi	x0,x0,0	  x0:0x00000000
        6775000	       676	800063f4	03646e63	bltu	x8,x22,80006430	  x8:0x684d93a0 x22:0x00000000
        6785000	       677	800063f8	016eb733	sltu	x14,x29,x22	 x29:0x00000001 x22:0x00000000 x14=0x00000000
        6795000	       678	800063fc	00c00863	beq	x0,x12,8000640c	  x0:0x00000000 x12:0xc6596b52
        6805000	       679	80006400	0588d463	bge	x17,x24,80006448	 x17:0x00000000 x24:0x00000000
        6815000	       680	00000000	00000013	addi	x0,x0,0	  x0:0x00000000
        6825000	       681	80006444	00000013	addi	x0,x0,0	  x0:0x00000000
        6835000	       682	80006448	2cb5e413	ori	x8,x11,715	 x11:0x00000000  x8=0x000002cb
        6845000	       683	8000644c	8238a513	slti	x10,x17,-2013	 x17:0x00000000 x10=0x00000000
        6855000	       684	80006450	006d3e33	sltu	x28,x26,x6	 x26:0xc82abff1  x6:0x96b52000 x28=0x00000000
        6865000	       685	80006454	00e5f233	and	x4,x11,x14	 x11:0x00000000 x14:0x00000000  x4=0x00000000
        6875000	       686	80006458	028ef263	bgeu	x29,x8,8000647c	 x29:0x00000001  x8:0x000002cb
        6885000	       687	8000645c	01085493	srli	x9,x16,0x10	 x16:0xbf4e1000  x9=0x0000bf4e
        6895000	       688	80006460	01810333	add	x6,x2,x24	  x2:0xb7aee122 x24:0x00000000  x6=0xb7aee122
        6905000	       689	80006464	4954ab13	slti	x22,x9,1173	  x9:0x0000bf4e x22=0x00000000
        6915000	       690	80006468	f1344913	xori	x18,x8,-237	  x8:0x000002cb x18=0xfffffdd8
        6925000	       691	8000646c	40f25d13	srai	x26,x4,0xf	  x4:0x00000000 x26=0x00000000
        6935000	       692	80006470	01e68f33	add	x30,x13,x30	 x13:0x00000000 x30:0x039cca24 x30=0x039cca24
        6945000	       693	80006474	01f9f7b3	and	x15,x19,x31	 x19:0x5cc11de6 x31:0x80009fc4 x15=0x00001dc4
        6955000	       694	80006478	5cf1ec17	auipc	x24,0x5cf1e	 x24=0xdcf24474
        6965000	       695	8000647c	04fe9663	bne	x29,x15,800064c8	 x29:0x00000001 x15:0x00001dc4
        6975000	       696	00000000	00000013	addi	x0,x0,0	  x0:0x00000000
        6985000	       697	800064c4	00000013	addi	x0,x0,0	  x0:0x00000000
        6995000	       698	800064c8	04386063	bltu	x16,x3,80006508	 x16:0xbf4e1000  x3:0x39a69431
        7005000	       699	800064cc	010709b3	add	x19,x14,x16	 x14:0x00000000 x16:0xbf4e1000 x19=0xbf4e1000
        7015000	       700	800064d0	02dee863	bltu	x29,x13,80006500	 x29:0x00000001 x13:0x00000000
        7025000	       701	800064d4	82638913	addi	x18,x7,-2010	  x7:0x00000208 x18=0xfffffa2e
        7035000	       702	800064d8	0100bb33	sltu	x22,x1,x16	  x1:0x8bc28000 x16:0xbf4e1000 x22=0x00000001
        7045000	       703	800064dc	2d97af13	slti	x30,x15,729	 x15:0x00001dc4 x30=0x00000000
        7055000	       704	800064e0	002068b3	or	x17,x0,x2	  x0:0x00000000  x2:0xb7aee122 x17=0xb7aee122
        7065000	       705	800064e4	4115d513	srai	x10,x11,0x11	 x11:0x00000000 x10=0x00000000
        7075000	       706	800064e8	0096cc33	xor	x24,x13,x9	 x13:0x00000000  x9:0x0000bf4e x24=0x0000bf4e
        7085000	       707	800064ec	01b49813	slli	x16,x9,0x1b	  x9:0x0000bf4e x16=0x70000000
        7095000	       708	800064f0	01acd1b3	srl	x3,x25,x26	 x25:0xf00012de x26:0x00000000  x3=0xf00012de
        7105000	       709	800064f4	01317333	and	x6,x2,x19	  x2:0xb7aee122 x19:0xbf4e1000  x6=0xb70e0000
        7115000	       710	800064f8	3bd97b93	andi	x23,x18,957	 x18:0xfffffa2e x23=0x0000022c
        7125000	       711	800064fc	010c0a63	beq	x24,x16,80006510	 x24:0x0000bf4e x16:0x70000000
        7135000	       712	80006500	021f1863	bne	x30,x1,80006530	 x30:0x00000000  x1:0x8bc28000
        7145000	       713	00000000	00000013	addi	x0,x0,0	  x0:0x00000000
        7155000	       714	8000652c	00000013	addi	x0,x0,0	  x0:0x00000000
        7165000	       715	80006530	d9938c93	addi	x25,x7,-615	  x7:0x00000208 x25=0xffffffa1
        7175000	       716	80006534	0169cd33	xor	x26,x19,x22	 x19:0xbf4e1000 x22:0x00000001 x26=0xbf4e1001
        7185000	       717	80006538	023d7263	bgeu	x26,x3,8000655c	 x26:0xbf4e1001  x3:0xf00012de
        7195000	       718	8000653c	0809cb93	xori	x23,x19,128	 x19:0xbf4e1000 x23=0xbf4e1080
        7205000	       719	80006540	02cfee63	bltu	x31,x12,8000657c	 x31:0x80009fc4 x12:0xc6596b52
        7215000	       720	00000000	00000013	addi	x0,x0,0	  x0:0x00000000
        7225000	       721	80006578	00000013	addi	x0,x0,0	  x0:0x00000000
        7235000	       722	8000657c	006f8d33	add	x26,x31,x6	 x31:0x80009fc4  x6:0xb70e0000 x26=0x370e9fc4
        7245000	       723	80006580	008592b3	sll	x5,x11,x8	 x11:0x00000000  x8:0x000002cb  x5=0x00000000
        7255000	       724	80006584	04d34463	blt	x6,x13,800065cc	  x6:0xb70e0000 x13:0x00000000
        7265000	       725	00000000	00000013	addi	x0,x0,0	  x0:0x00000000
        7275000	       726	800065c8	00000013	addi	x0,x0,0	  x0:0x00000000
        7285000	       727	800065cc	013300b3	add	x1,x6,x19	  x6:0xb70e0000 x19:0xbf4e1000  x1=0x765c1000
        7295000	       728	800065d0	7e96a693	slti	x13,x13,2025	 x13:0x00000000 x13=0x00000001
        7305000	       729	800065d4	b3a1a093	slti	x1,x3,-1222	  x3:0xf00012de  x1=0x00000001
        7315000	       730	800065d8	017caa33	slt	x20,x25,x23	 x25:0xffffffa1 x23:0xbf4e1080 x20=0x00000000
        7325000	       731	800065dc	00161d93	slli	x27,x12,0x1	 x12:0xc6596b52 x27=0x8cb2d6a4
        7335000	       732	800065e0	0266f663	bgeu	x13,x6,8000660c	 x13:0x00000001  x6:0xb70e0000
        7345000	       733	800065e4	00445e93	srli	x29,x8,0x4	  x8:0x000002cb x29=0x0000002c
        7355000	       734	800065e8	41a85193	srai	x3,x16,0x1a	 x16:0x70000000  x3=0x0000001c
        7365000	       735	800065ec	97cc6893	ori	x17,x24,-1668	 x24:0x0000bf4e x17=0xffffff7e
        7375000	       736	800065f0	0333ea63	bltu	x7,x19,80006624	  x7:0x00000208 x19:0xbf4e1000
        7385000	       737	00000000	00000013	addi	x0,x0,0	  x0:0x00000000
        7395000	       738	80006620	00000013	addi	x0,x0,0	  x0:0x00000000
        7405000	       739	80006624	41835393	srai	x7,x6,0x18	  x6:0xb70e0000  x7=0xffffffb7
        7415000	       740	80006628	03cc4c63	blt	x24,x28,80006660	 x24:0x0000bf4e x28:0x00000000
        7425000	       741	8000662c	03547863	bgeu	x8,x21,8000665c	  x8:0x000002cb x21:0x80009f20
        7435000	       742	80006630	ebe8a913	slti	x18,x17,-322	 x17:0xffffff7e x18=0x00000000
        7445000	       743	80006634	01f463b3	or	x7,x8,x31	  x8:0x000002cb x31:0x80009fc4  x7=0x80009fcf
        7455000	       744	80006638	0090c733	xor	x14,x1,x9	  x1:0x00000001  x9:0x0000bf4e x14=0x0000bf4f
        7465000	       745	8000663c	0268d863	bge	x17,x6,8000666c	 x17:0xffffff7e  x6:0xb70e0000
        7475000	       746	00000000	00000013	addi	x0,x0,0	  x0:0x00000000
        7485000	       747	80006668	00000013	addi	x0,x0,0	  x0:0x00000000
        7495000	       748	8000666c	9a07a213	slti	x4,x15,-1632	 x15:0x00001dc4  x4=0x00000000
        7505000	       749	80006670	dd36a037	lui	x0,0xdd36a	
        7515000	       750	80006674	0091eb33	or	x22,x3,x9	  x3:0x0000001c  x9:0x0000bf4e x22=0x0000bf5e
        7525000	       751	80006678	017ea333	slt	x6,x29,x23	 x29:0x0000002c x23:0xbf4e1080  x6=0x00000000
        7535000	       752	8000667c	26020393	addi	x7,x4,608	  x4:0x00000000  x7=0x00000260
        7545000	       753	80006680	00201e13	slli	x28,x0,0x2	  x0:0x00000000 x28=0x00000000
        7555000	       754	80006684	7b2bff17	auipc	x30,0x7b2bf	 x30=0xfb2c5680
        7565000	       755	80006688	0317e813	ori	x16,x15,49	 x15:0x00001dc4 x16=0x00001df5
        7575000	       756	8000668c	006ade93	srli	x29,x21,0x6	 x21:0x80009f20 x29=0x0200027c
        7585000	       757	80006690	0056de13	srli	x28,x13,0x5	 x13:0x00000001 x28=0x00000000
        7595000	       758	80006694	407e5393	srai	x7,x28,0x7	 x28:0x00000000  x7=0x00000000
        7605000	       759	80006698	005bd233	srl	x4,x23,x5	 x23:0xbf4e1080  x5:0x00000000  x4=0xbf4e1080
        7615000	       760	8000669c	016959b3	srl	x19,x18,x22	 x18:0x00000000 x22:0x0000bf5e x19=0x00000000
        7625000	       761	800066a0	065f40b7	lui	x1,0x65f4	  x1=0x065f4000
        7635000	       762	800066a4	0000ce33	xor	x28,x1,x0	  x1:0x065f4000  x0:0x00000000 x28=0x065f4000
        7645000	       763	800066a8	41ab81b3	sub	x3,x23,x26	 x23:0xbf4e1080 x26:0x370e9fc4  x3=0x883f70bc
        7655000	       764	800066ac	0589fa63	bgeu	x19,x24,80006700	 x19:0x00000000 x24:0x0000bf4e
        7665000	       765	800066b0	40960233	sub	x4,x12,x9	 x12:0xc6596b52  x9:0x0000bf4e  x4=0xc658ac04
        7675000	       766	800066b4	077bcc63	blt	x23,x23,8000672c	 x23:0xbf4e1080 x23:0xbf4e1080
        7685000	       767	800066b8	11404193	xori	x3,x0,276	  x0:0x00000000  x3=0x00000114
        7695000	       768	800066bc	0139af33	slt	x30,x19,x19	 x19:0x00000000 x19:0x00000000 x30=0x00000000
        7705000	       769	800066c0	043e8a63	beq	x29,x3,80006714	 x29:0x0200027c  x3:0x00000114
        7715000	       770	800066c4	00baae33	slt	x28,x21,x11	 x21:0x80009f20 x11:0x00000000 x28=0x00000001
        7725000	       771	800066c8	016b5833	srl	x16,x22,x22	 x22:0x0000bf5e x22:0x0000bf5e x16=0x00000000
        7735000	       772	800066cc	da92e213	ori	x4,x5,-599	  x5:0x00000000  x4=0xfffffda9
        7745000	       773	800066d0	00706333	or	x6,x0,x7	  x0:0x00000000  x7:0x00000000  x6=0x00000000
        7755000	       774	800066d4	00c6d533	srl	x10,x13,x12	 x13:0x00000001 x12:0xc6596b52 x10=0x00000000
        7765000	       775	800066d8	015ff2b3	and	x5,x31,x21	 x31:0x80009fc4 x21:0x80009f20  x5=0x80009f00
        7775000	       776	800066dc	41618eb3	sub	x29,x3,x22	  x3:0x00000114 x22:0x0000bf5e x29=0xffff41b6
        7785000	       777	800066e0	c188a013	slti	x0,x17,-1000	 x17:0xffffff7e
        7795000	       778	800066e4	405a5b93	srai	x23,x20,0x5	 x20:0x00000000 x23=0x00000000
        7805000	       779	800066e8	01637663	bgeu	x6,x22,800066f4	  x6:0x00000000 x22:0x0000bf5e
        7815000	       780	800066ec	d60a7593	andi	x11,x20,-672	 x20:0x00000000 x11=0x00000000
        7825000	       781	800066f0	4060d193	srai	x3,x1,0x6	  x1:0x065f4000  x3=0x00197d00
        7835000	       782	800066f4	cfdfe0ef	jal	x1,800066f4	  x1=0x800066f4
        7845000	       783	00000000	00000013	addi	x0,x0,0	  x0:0x00000000
        7855000	       784	800053ec	00000013	addi	x0,x0,0	  x0:0x00000000
        7865000	       785	800053f0	018f1a63	bne	x30,x24,80005404	 x30:0x00000000 x24:0x0000bf4e
        7875000	       786	00000000	00000013	addi	x0,x0,0	  x0:0x00000000
        7885000	       787	80005400	00000013	addi	x0,x0,0	  x0:0x00000000
        7895000	       788	80005404	fc0a8a93	addi	x21,x21,-64	 x21:0x80009f20 x21=0x80009ee0
        7905000	       789	80005408	aaed8c93	addi	x25,x27,-1362	 x27:0x8cb2d6a4 x25=0x8cb2d152
        7915000	       790	8000540c	00411833	sll	x16,x2,x4	  x2:0xb7aee122  x4:0xfffffda9 x16=0x5dc24400
        7925000	       791	80005410	00a39193	slli	x3,x7,0xa	  x7:0x00000000  x3=0x00000000
        7935000	       792	80005414	001aa223	sw	x1,4(x21)	 x21:0x80009ee0  x1:0x800066f4 PA:0x80009ee4
        7945000	       793	80005418	415e5d13	srai	x26,x28,0x15	 x28:0x00000001 x26=0x00000000
        7955000	       794	8000541c	cba43413	sltiu	x8,x8,-838	  x8:0x000002cb  x8=0x00000001
        7965000	       795	80005420	40c95733	sra	x14,x18,x12	 x18:0x00000000 x12:0xc6596b52 x14=0x00000000
        7975000	       796	80005424	59bfab93	slti	x23,x31,1435	 x31:0x80009fc4 x23=0x00000001
        7985000	       797	80005428	4bf08837	lui	x16,0x4bf08	 x16=0x4bf08000
        7995000	       798	8000542c	00d289b3	add	x19,x5,x13	  x5:0x80009f00 x13:0x00000001 x19=0x80009f01
        8005000	       799	80005430	02b61863	bne	x12,x11,80005460	 x12:0xc6596b52 x11:0x00000000
        8015000	       800	00000000	00000013	addi	x0,x0,0	  x0:0x00000000
        8025000	       801	8000545c	00000013	addi	x0,x0,0	  x0:0x00000000
        8035000	       802	80005460	000fe733	or	x14,x31,x0	 x31:0x80009fc4  x0:0x00000000 x14=0x80009fc4
        8045000	       803	80005464	0179f9b3	and	x19,x19,x23	 x19:0x80009f01 x23:0x00000001 x19=0x00000001
        8055000	       804	80005468	4c588293	addi	x5,x17,1221	 x17:0xffffff7e  x5=0x00000443
        8065000	       805	8000546c	413c8833	sub	x16,x25,x19	 x25:0x8cb2d152 x19:0x00000001 x16=0x8cb2d151
        8075000	       806	80005470	0173df33	srl	x30,x7,x23	  x7:0x00000000 x23:0x00000001 x30=0x00000000
        8085000	       807	80005474	f3b41eb7	lui	x29,0xf3b41	 x29=0xf3b41000
        8095000	       808	80005478	01a1db13	srli	x22,x3,0x1a	  x3:0x00000000 x22=0x00000000
        8105000	       809	8000547c	01339313	slli	x6,x7,0x13	  x7:0x00000000  x6=0x00000000
        8115000	       810	80005480	41510933	sub	x18,x2,x21	  x2:0xb7aee122 x21:0x80009ee0 x18=0x37ae4242
        8125000	       811	80005484	00cd20b3	slt	x1,x26,x12	 x26:0x00000000 x12:0xc6596b52  x1=0x00000000
        8135000	       812	80005488	01cade33	srl	x28,x21,x28	 x21:0x80009ee0 x28:0x00000001 x28=0x40004f70
        8145000	       813	8000548c	01de8863	beq	x29,x29,8000549c	 x29:0xf3b41000 x29:0xf3b41000
        8155000	       814	00000000	00000013	addi	x0,x0,0	  x0:0x00000000
        8165000	       815	80005498	00000013	addi	x0,x0,0	  x0:0x00000000
        8175000	       816	8000549c	1f01c593	xori	x11,x3,496	  x3:0x00000000 x11=0x000001f0
        8185000	       817	800054a0	00fc96b3	sll	x13,x25,x15	 x25:0x8cb2d152 x15:0x00001dc4 x13=0xcb2d1520
        8195000	       818	800054a4	004aa083	lw	x1,4(x21)	 x21:0x80009ee0  x1=0x800066f4 PA:0x80009ee4
        8205000	       819	800054a8	00e7f6b3	and	x13,x15,x14	 x15:0x00001dc4 x14:0x80009fc4 x13=0x00001dc4
        8215000	       820	800054ac	01d94c33	xor	x24,x18,x29	 x18:0x37ae4242 x29:0xf3b41000 x24=0xc41a5242
        8225000	       821	800054b0	0143f9b3	and	x19,x7,x20	  x7:0x00000000 x20:0x00000000 x19=0x00000000
        8235000	       822	800054b4	00819c13	slli	x24,x3,0x8	  x3:0x00000000 x24=0x00000000
        8245000	       823	800054b8	ba64a993	slti	x19,x9,-1114	  x9:0x0000bf4e x19=0x00000000
        8255000	       824	800054bc	040a8a93	addi	x21,x21,64	 x21:0x80009ee0 x21=0x80009f20
        8265000	       825	800054c0	41ba54b3	sra	x9,x20,x27	 x20:0x00000000 x27:0x8cb2d6a4  x9=0x00000000
        8275000	       826	800054c4	4156d9b3	sra	x19,x13,x21	 x13:0x00001dc4 x21:0x80009f20 x19=0x00001dc4
        8285000	       827	800054c8	00108a13	addi	x20,x1,1	  x1:0x800066f4 x20=0x800066f5
        8295000	       828	800054cc	000a0a67	jalr	x20,x20,0	 x20:0x800066f5 x20=0x800054cc
        8305000	       829	00000000	00000013	addi	x0,x0,0	  x0:0x00000000
        8315000	       830	800066f4	00000013	addi	x0,x0,0	  x0:0x00000000
        8325000	       831	800066f8	73996d93	ori	x27,x18,1849	 x18:0x37ae4242 x27=0x37ae477b
        8335000	       832	800066fc	fa9cf4b7	lui	x9,0xfa9cf	  x9=0xfa9cf000
        8345000	       833	80006700	01335913	srli	x18,x6,0x13	  x6:0x00000000 x18=0x00000000
        8355000	       834	80006704	0449f863	bgeu	x19,x4,80006754	 x19:0x00001dc4  x4:0xfffffda9
        8365000	       835	80006708	aeb44493	xori	x9,x8,-1301	  x8:0x00000001  x9=0xfffffaea
        8375000	       836	8000670c	01a5b5b3	sltu	x11,x11,x26	 x11:0x000001f0 x26:0x00000000 x11=0x00000000
        8385000	       837	80006710	04396663	bltu	x18,x3,8000675c	 x18:0x00000000  x3:0x00000000
        8395000	       838	80006714	47c50793	addi	x15,x10,1148	 x10:0x00000000 x15=0x0000047c
        8405000	       839	80006718	6dbc7293	andi	x5,x24,1755	 x24:0x00000000  x5=0x00000000
        8415000	       840	8000671c	00000013	addi	x0,x0,0	  x0:0x00000000
        8425000	       841	80006720	006c5533	srl	x10,x24,x6	 x24:0x00000000  x6:0x00000000 x10=0x00000000
        8435000	       842	80006724	01b611b3	sll	x3,x12,x27	 x12:0xc6596b52 x27:0x37ae477b  x3=0x90000000
        8445000	       843	80006728	1e557813	andi	x16,x10,485	 x10:0x00000000 x16=0x00000000
        8455000	       844	8000672c	02665e63	bge	x12,x6,80006768	 x12:0xc6596b52  x6:0x00000000
        8465000	       845	80006730	00a11d93	slli	x27,x2,0xa	  x2:0xb7aee122 x27=0xbb848800
        8475000	       846	80006734	f9c5ca13	xori	x20,x11,-100	 x11:0x00000000 x20=0xffffff9c
        8485000	       847	80006738	72e82c97	auipc	x25,0x72e82	 x25=0xf2e88734
        8495000	       848	8000673c	0316c263	blt	x13,x17,80006760	 x13:0x00001dc4 x17:0xffffff7e
        8505000	       849	80006740	013dd4b3	srl	x9,x27,x19	 x27:0xbb848800 x19:0x00001dc4  x9=0x0bb84880
        8515000	       850	80006744	00000013	addi	x0,x0,0	  x0:0x00000000
        8525000	       851	80006748	aeb92913	slti	x18,x18,-1301	 x18:0x00000000 x18=0x00000000
        8535000	       852	8000674c	00000013	addi	x0,x0,0	  x0:0x00000000
        8545000	       853	80006750	012909b3	add	x19,x18,x18	 x18:0x00000000 x18:0x00000000 x19=0x00000000
        8555000	       854	80006754	044ee063	bltu	x29,x4,80006794	 x29:0xf3b41000  x4:0xfffffda9
        8565000	       855	00000000	00000013	addi	x0,x0,0	  x0:0x00000000
        8575000	       856	80006790	00000013	addi	x0,x0,0	  x0:0x00000000
        8585000	       857	80006794	0034c7b3	xor	x15,x9,x3	  x9:0x0bb84880  x3:0x90000000 x15=0x9bb84880
        8595000	       858	80006798	048fc663	blt	x31,x8,800067e4	 x31:0x80009fc4  x8:0x00000001
        8605000	       859	00000000	00000013	addi	x0,x0,0	  x0:0x00000000
        8615000	       860	800067e0	00000013	addi	x0,x0,0	  x0:0x00000000
        8625000	       861	800067e4	00b79213	slli	x4,x15,0xb	 x15:0x9bb84880  x4=0xc2440000
        8635000	       862	800067e8	01fb91b3	sll	x3,x23,x31	 x23:0x00000001 x31:0x80009fc4  x3=0x00000010
        8645000	       863	800067ec	00000013	addi	x0,x0,0	  x0:0x00000000
        8655000	       864	800067f0	00c73bb3	sltu	x23,x14,x12	 x14:0x80009fc4 x12:0xc6596b52 x23=0x00000001
        8665000	       865	800067f4	012b8333	add	x6,x23,x18	 x23:0x00000001 x18:0x00000000  x6=0x00000001
        8675000	       866	800067f8	05277063	bgeu	x14,x18,80006838	 x14:0x80009fc4 x18:0x00000000
        8685000	       867	00000000	00000013	addi	x0,x0,0	  x0:0x00000000
        8695000	       868	80006834	00000013	addi	x0,x0,0	  x0:0x00000000
        8705000	       869	80006838	00f6d233	srl	x4,x13,x15	 x13:0x00001dc4 x15:0x9bb84880  x4=0x00001dc4
        8715000	       870	8000683c	0239c063	blt	x19,x3,8000685c	 x19:0x00000000  x3:0x00000010
        8725000	       871	00000000	00000013	addi	x0,x0,0	  x0:0x00000000
        8735000	       872	80006858	00000013	addi	x0,x0,0	  x0:0x00000000
        8745000	       873	8000685c	00cfc663	blt	x31,x12,80006868	 x31:0x80009fc4 x12:0xc6596b52
        8755000	       874	00000000	00000013	addi	x0,x0,0	  x0:0x00000000
        8765000	       875	80006864	00000013	addi	x0,x0,0	  x0:0x00000000
        8775000	       876	80006868	015034b3	sltu	x9,x0,x21	  x0:0x00000000 x21:0x80009f20  x9=0x00000001
        8785000	       877	8000686c	00a808b3	add	x17,x16,x10	 x16:0x00000000 x10:0x00000000 x17=0x00000000
        8795000	       878	80006870	026a7263	bgeu	x20,x6,80006894	 x20:0xffffff9c  x6:0x00000001
        8805000	       879	00000000	00000013	addi	x0,x0,0	  x0:0x00000000
        8815000	       880	80006890	00000013	addi	x0,x0,0	  x0:0x00000000
        8825000	       881	80006894	01cd6c33	or	x24,x26,x28	 x26:0x00000000 x28:0x40004f70 x24=0x40004f70
        8835000	       882	80006898	2745e597	auipc	x11,0x2745e	 x11=0xa7464894
        8845000	       883	8000689c	0f09ea63	bltu	x19,x16,80006990	 x19:0x00000000 x16:0x00000000
        8855000	       884	800068a0	10ecf063	bgeu	x25,x14,800069a0	 x25:0xf2e88734 x14:0x80009fc4
        8865000	       885	00000000	00000013	addi	x0,x0,0	  x0:0x00000000
        8875000	       886	8000699c	00000013	addi	x0,x0,0	  x0:0x00000000
        8885000	       887	800069a0	00000013	addi	x0,x0,0	  x0:0x00000000
        8895000	       888	800069a4	40b65f33	sra	x30,x12,x11	 x12:0xc6596b52 x11:0xa7464894 x30=0xfffffc65
        8905000	       889	800069a8	3707cc13	xori	x24,x15,880	 x15:0x9bb84880 x24=0x9bb84bf0
        8915000	       890	800069ac	01c4b733	sltu	x14,x9,x28	  x9:0x00000001 x28:0x40004f70 x14=0x00000001
        8925000	       891	800069b0	fc9c4713	xori	x14,x24,-55	 x24:0x9bb84bf0 x14=0x6447b439
        8935000	       892	800069b4	00304d33	xor	x26,x0,x3	  x0:0x00000000  x3:0x00000010 x26=0x00000010
        8945000	       893	800069b8	019522b3	slt	x5,x10,x25	 x10:0x00000000 x25:0xf2e88734  x5=0x00000000
        8955000	       894	800069bc	015aee33	or	x28,x21,x21	 x21:0x80009f20 x21:0x80009f20 x28=0x80009f20
        8965000	       895	800069c0	41fc0db3	sub	x27,x24,x31	 x24:0x9bb84bf0 x31:0x80009fc4 x27=0x1bb7ac2c
        8975000	       896	800069c4	0108d093	srli	x1,x17,0x10	 x17:0x00000000  x1=0x00000000
        8985000	       897	800069c8	41da5733	sra	x14,x20,x29	 x20:0xffffff9c x29:0xf3b41000 x14=0xffffff9c
        8995000	       898	800069cc	002162b3	or	x5,x2,x2	  x2:0xb7aee122  x2:0xb7aee122  x5=0xb7aee122
        9005000	       899	800069d0	01c882b3	add	x5,x17,x28	 x17:0x00000000 x28:0x80009f20  x5=0x80009f20
        9015000	       900	800069d4	05478a63	beq	x15,x20,80006a28	 x15:0x9bb84880 x20:0xffffff9c
        9025000	       901	800069d8	00337cb3	and	x25,x6,x3	  x6:0x00000001  x3:0x00000010 x25=0x00000000
        9035000	       902	800069dc	0079edb3	or	x27,x19,x7	 x19:0x00000000  x7:0x00000000 x27=0x00000000
        9045000	       903	800069e0	01e2eb33	or	x22,x5,x30	  x5:0x80009f20 x30:0xfffffc65 x22=0xffffff65
        9055000	       904	800069e4	417b0f33	sub	x30,x22,x23	 x22:0xffffff65 x23:0x00000001 x30=0xffffff64
        9065000	       905	800069e8	008e5bb3	srl	x23,x28,x8	 x28:0x80009f20  x8:0x00000001 x23=0x40004f90
        9075000	       906	800069ec	002792b3	sll	x5,x15,x2	 x15:0x9bb84880  x2:0xb7aee122  x5=0x6ee12200
        9085000	       907	800069f0	bc0fc0ef	jal	x1,800069f0	  x1=0x800069f0
        9095000	       908	00000000	00000013	addi	x0,x0,0	  x0:0x00000000
        9105000	       909	80002dac	00000013	addi	x0,x0,0	  x0:0x00000000
        9115000	       910	80002db0	402c0e33	sub	x28,x24,x2	 x24:0x9bb84bf0  x2:0xb7aee122 x28=0xe4096ace
        9125000	       911	80002db4	00465313	srli	x6,x12,0x4	 x12:0xc6596b52  x6=0x0c6596b5
        9135000	       912	80002db8	01135eb3	srl	x29,x6,x17	  x6:0x0c6596b5 x17:0x00000000 x29=0x0c6596b5
        9145000	       913	80002dbc	410a3793	sltiu	x15,x20,1040	 x20:0xffffff9c x15=0x00000000
        9155000	       914	80002dc0	ff0a8a93	addi	x21,x21,-16	 x21:0x80009f20 x21=0x80009f10
        9165000	       915	80002dc4	00491d33	sll	x26,x18,x4	 x18:0x00000000  x4:0x00001dc4 x26=0x00000000
        9175000	       916	80002dc8	01479533	sll	x10,x15,x20	 x15:0x00000000 x20:0xffffff9c x10=0x00000000
        9185000	       917	80002dcc	ac020193	addi	x3,x4,-1344	  x4:0x00001dc4  x3=0x00001884
        9195000	       918	80002dd0	e8fc8d93	addi	x27,x25,-369	 x25:0x00000000 x27=0xfffffe8f
        9205000	       919	80002dd4	011a81b3	add	x3,x21,x17	 x21:0x80009f10 x17:0x00000000  x3=0x80009f10
        9215000	       920	80002dd8	001aa223	sw	x1,4(x21)	 x21:0x80009f10  x1:0x800069f0 PA:0x80009f14
        9225000	       921	80002ddc	408484b3	sub	x9,x9,x8	  x9:0x00000001  x8:0x00000001  x9=0x00000000
        9235000	       922	80002de0	00000397	auipc	x7,0x0	  x7=0x80002ddc
        9245000	       923	80002de4	09438393	addi	x7,x7,148	  x7:0x80002ddc  x7=0x80002e70
        9255000	       924	80002de8	01df30b3	sltu	x1,x30,x29	 x30:0xffffff64 x29:0x0c6596b5  x1=0x00000000
        9265000	       925	80002dec	9946a237	lui	x4,0x9946a	  x4=0x9946a000
        9275000	       926	80002df0	01e9a9b3	slt	x19,x19,x30	 x19:0x00000000 x30:0xffffff64 x19=0x00000000
        9285000	       927	80002df4	00970833	add	x16,x14,x9	 x14:0xffffff9c  x9:0x00000000 x16=0xffffff9c
        9295000	       928	80002df8	00fc5e33	srl	x28,x24,x15	 x24:0x9bb84bf0 x15:0x00000000 x28=0x9bb84bf0
        9305000	       929	80002dfc	3da38393	addi	x7,x7,986	  x7:0x80002e70  x7=0x8000324a
        9315000	       930	80002e00	50de0537	lui	x10,0x50de0	 x10=0x50de0000
        9325000	       931	80002e04	43b2a993	slti	x19,x5,1083	  x5:0x6ee12200 x19=0x00000000
        9335000	       932	80002e08	c27380e7	jalr	x1,x7,-985	  x7:0x8000324a  x1=0x80002e08
        9345000	       933	00000000	00000013	addi	x0,x0,0	  x0:0x00000000
        9355000	       934	80002e70	00000013	addi	x0,x0,0	  x0:0x00000000
        9365000	       935	80002e74	fd4a8a93	addi	x21,x21,-44	 x21:0x80009f10 x21=0x80009ee4
        9375000	       936	80002e78	003a06b3	add	x13,x20,x3	 x20:0xffffff9c  x3:0x80009f10 x13=0x80009eac
        9385000	       937	80002e7c	005fa9b3	slt	x19,x31,x5	 x31:0x80009fc4  x5:0x6ee12200 x19=0x00000001
        9395000	       938	80002e80	001aa223	sw	x1,4(x21)	 x21:0x80009ee4  x1:0x80002e08 PA:0x80009ee8
        9405000	       939	80002e84	414a0cb3	sub	x25,x20,x20	 x20:0xffffff9c x20:0xffffff9c x25=0x00000000
        9415000	       940	80002e88	6dcb6013	ori	x0,x22,1756	 x22:0xffffff65
        9425000	       941	80002e8c	010439b3	sltu	x19,x8,x16	  x8:0x00000001 x16:0xffffff9c x19=0x00000001
        9435000	       942	80002e90	412a5c33	sra	x24,x20,x18	 x20:0xffffff9c x18:0x00000000 x24=0xffffff9c
        9445000	       943	80002e94	1c19f813	andi	x16,x19,449	 x19:0x00000001 x16=0x00000001
        9455000	       944	80002e98	b6504e93	xori	x29,x0,-1179	  x0:0x00000000 x29=0xfffffb65
        9465000	       945	80002e9c	00006097	auipc	x1,0x6	  x1=0x80008e98
        9475000	       946	80002ea0	dc208093	addi	x1,x1,-574	  x1:0x80008e98  x1=0x80008c5a
        9485000	       947	80002ea4	00b29c93	slli	x25,x5,0xb	  x5:0x6ee12200 x25=0x09100000
        9495000	       948	80002ea8	00000013	addi	x0,x0,0	  x0:0x00000000
        9505000	       949	80002eac	01fdfb33	and	x22,x27,x31	 x27:0xfffffe8f x31:0x80009fc4 x22=0x80009e84
        9515000	       950	80002eb0	bf42f4b7	lui	x9,0xbf42f	  x9=0xbf42f000
        9525000	       951	80002eb4	00d861b3	or	x3,x16,x13	 x16:0x00000001 x13:0x80009eac  x3=0x80009ead
        9535000	       952	80002eb8	401f0e33	sub	x28,x30,x1	 x30:0xffffff64  x1:0x80008c5a x28=0x7fff730a
        9545000	       953	80002ebc	ebcc7713	andi	x14,x24,-324	 x24:0xffffff9c x14=0xfffffe9c
        9555000	       954	80002ec0	be5d4813	xori	x16,x26,-1051	 x26:0x00000000 x16=0xfffffbe5
        9565000	       955	80002ec4	01409003	lh	x0,20(x1)	  x1:0x80008c5a PA:0x80008c6e
        9575000	       956	80002ec8	d2a33993	sltiu	x19,x6,-726	  x6:0x0c6596b5 x19=0x00000001
        9585000	       957	80002ecc	00565e33	srl	x28,x12,x5	 x12:0xc6596b52  x5:0x6ee12200 x28=0xc6596b52
        9595000	       958	80002ed0	01009213	slli	x4,x1,0x10	  x1:0x80008c5a  x4=0x8c5a0000
        9605000	       959	80002ed4	00000013	addi	x0,x0,0	  x0:0x00000000
        9615000	       960	80002ed8	f770ab23	sw	x23,-138(x1)	  x1:0x80008c5a x23:0x40004f90 PA:0x80008bd0
        9625000	       961	80002edc	034087a3	sb	x20,47(x1)	  x1:0x80008c5a x20:0xffffff9c PA:0x80008c89
        9635000	       962	80002ee0	f4d08783	lb	x15,-179(x1)	  x1:0x80008c5a x15=0xffffff8c PA:0x80008ba7
        9645000	       963	80002ee4	ed808e13	addi	x28,x1,-296	  x1:0x80008c5a x28=0x80008b32
        9655000	       964	80002ee8	01215cb3	srl	x25,x2,x18	  x2:0xb7aee122 x18:0x00000000 x25=0xb7aee122
        9665000	       965	80002eec	02908423	sb	x9,40(x1)	  x1:0x80008c5a  x9:0xbf42f000 PA:0x80008c82
        9675000	       966	80002ef0	00ac9013	slli	x0,x25,0xa	 x25:0xb7aee122
        9685000	       967	80002ef4	01fd84b3	add	x9,x27,x31	 x27:0xfffffe8f x31:0x80009fc4  x9=0x80009e53
        9695000	       968	80002ef8	fbe0d383	lhu	x7,-66(x1)	  x1:0x80008c5a  x7=0x00000203 PA:0x80008c18
        9705000	       969	80002efc	32ce8213	addi	x4,x29,812	 x29:0xfffffb65  x4=0xfffffe91
        9715000	       970	80002f00	c8cc3993	sltiu	x19,x24,-884	 x24:0xffffff9c x19=0x00000000
        9725000	       971	80002f04	37033c37	lui	x24,0x37033	 x24=0x37033000
        9735000	       972	80002f08	09809883	lh	x17,152(x1)	  x1:0x80008c5a x17=0xffffd8d9 PA:0x80008cf2
        9745000	       973	80002f0c	0a70c203	lbu	x4,167(x1)	  x1:0x80008c5a  x4=0x000000ea PA:0x80008d01
        9755000	       974	80002f10	f9a0cb83	lbu	x23,-102(x1)	  x1:0x80008c5a x23=0x000000df PA:0x80008bf4
        9765000	       975	80002f14	011c9db3	sll	x27,x25,x17	 x25:0xb7aee122 x17:0xffffd8d9 x27=0x44000000
        9775000	       976	80002f18	00fa6633	or	x12,x20,x15	 x20:0xffffff9c x15:0xffffff8c x12=0xffffff9c
        9785000	       977	80002f1c	f790c583	lbu	x11,-135(x1)	  x1:0x80008c5a x11=0x00000040 PA:0x80008bd3
        9795000	       978	80002f20	00ca92b3	sll	x5,x21,x12	 x21:0x80009ee4 x12:0xffffff9c  x5=0x40000000
        9805000	       979	80002f24	0882fc13	andi	x24,x5,136	  x5:0x40000000 x24=0x00000000
        9815000	       980	80002f28	01793933	sltu	x18,x18,x23	 x18:0x00000000 x23:0x000000df x18=0x00000001
        9825000	       981	80002f2c	843e0493	addi	x9,x28,-1981	 x28:0x80008b32  x9=0x80008375
        9835000	       982	80002f30	41325cb3	sra	x25,x4,x19	  x4:0x000000ea x19:0x00000000 x25=0x000000ea
        9845000	       983	80002f34	049089a3	sb	x9,83(x1)	  x1:0x80008c5a  x9:0x80008375 PA:0x80008cad
        9855000	       984	80002f38	0610c503	lbu	x10,97(x1)	  x1:0x80008c5a x10=0x000000a0 PA:0x80008cbb
        9865000	       985	80002f3c	00006a17	auipc	x20,0x6	 x20=0x80008f38
        9875000	       986	80002f40	ec7a0a13	addi	x20,x20,-313	 x20:0x80008f38 x20=0x80008dff
        9885000	       987	80002f44	04fa0723	sb	x15,78(x20)	 x20:0x80008dff x15:0xffffff8c PA:0x80008e4d
        9895000	       988	80002f48	003c8cb3	add	x25,x25,x3	 x25:0x000000ea  x3:0x80009ead x25=0x80009f97
        9905000	       989	80002f4c	fa8a0783	lb	x15,-88(x20)	 x20:0x80008dff x15=0xffffff8c PA:0x80008da7
        9915000	       990	80002f50	0059f633	and	x12,x19,x5	 x19:0x00000000  x5:0x40000000 x12=0x00000000
        9925000	       991	80002f54	f69a0523	sb	x9,-150(x20)	 x20:0x80008dff  x9:0x80008375 PA:0x80008d69
        9935000	       992	80002f58	ffda1903	lh	x18,-3(x20)	 x20:0x80008dff x18=0xffffe6e7 PA:0x80008dfc
        9945000	       993	80002f5c	00000013	addi	x0,x0,0	  x0:0x00000000
        9955000	       994	80002f60	08ea0803	lb	x16,142(x20)	 x20:0x80008dff x16=0x00000076 PA:0x80008e8d
        9965000	       995	80002f64	f31a0183	lb	x3,-207(x20)	 x20:0x80008dff  x3=0x0000001b PA:0x80008d30
        9975000	       996	80002f68	41ddd6b3	sra	x13,x27,x29	 x27:0x44000000 x29:0xfffffb65 x13=0x02200000
        9985000	       997	80002f6c	00539c93	slli	x25,x7,0x5	  x7:0x00000203 x25=0x00004060
        9995000	       998	80002f70	01088333	add	x6,x17,x16	 x17:0xffffd8d9 x16:0x00000076  x6=0xffffd94f
       10005000	       999	80002f74	01faec33	or	x24,x21,x31	 x21:0x80009ee4 x31:0x80009fc4 x24=0x80009fe4
       10015000	      1000	80002f78	40345633	sra	x12,x8,x3	  x8:0x00000001  x3:0x0000001b x12=0x00000000
       10025000	      1001	80002f7c	4ac00593	addi	x11,x0,1196	  x0:0x00000000 x11=0x000004ac
       10035000	      1002	80002f80	0bda0603	lb	x12,189(x20)	 x20:0x80008dff x12=0xffffffa7 PA:0x80008ebc
       10045000	      1003	80002f84	015c7233	and	x4,x24,x21	 x24:0x80009fe4 x21:0x80009ee4  x4=0x80009ee4
       10055000	      1004	80002f88	f49a1ca3	sh	x9,-167(x20)	 x20:0x80008dff  x9:0x80008375 PA:0x80008d58
       10065000	      1005	80002f8c	f72a0403	lb	x8,-142(x20)	 x20:0x80008dff  x8=0x0000005a PA:0x80008d71
       10075000	      1006	80002f90	19494713	xori	x14,x18,404	 x18:0xffffe6e7 x14=0xffffe773
       10085000	      1007	80002f94	4c234e93	xori	x29,x6,1218	  x6:0xffffd94f x29=0xffffdd8d
       10095000	      1008	80002f98	00ae39b3	sltu	x19,x28,x10	 x28:0x80008b32 x10:0x000000a0 x19=0x00000000
       10105000	      1009	80002f9c	30f6bf13	sltiu	x30,x13,783	 x13:0x02200000 x30=0x00000000
       10115000	      1010	80002fa0	f52a4203	lbu	x4,-174(x20)	 x20:0x80008dff  x4=0x0000003a PA:0x80008d51
       10125000	      1011	80002fa4	009c1c93	slli	x25,x24,0x9	 x24:0x80009fe4 x25=0x013fc800
       10135000	      1012	80002fa8	01151333	sll	x6,x10,x17	 x10:0x000000a0 x17:0xffffd8d9  x6=0x40000000
       10145000	      1013	80002fac	749b3517	auipc	x10,0x749b3	 x10=0xf49b5fa8
       10155000	      1014	80002fb0	fe0a4683	lbu	x13,-32(x20)	 x20:0x80008dff x13=0x000000c4 PA:0x80008ddf
       10165000	      1015	80002fb4	00005c17	auipc	x24,0x5	 x24=0x80007fb0
       10175000	      1016	80002fb8	188c0c13	addi	x24,x24,392	 x24:0x80007fb0 x24=0x80008138
       10185000	      1017	80002fbc	00f45893	srli	x17,x8,0xf	  x8:0x0000005a x17=0x00000000
       10195000	      1018	80002fc0	4053d393	srai	x7,x7,0x5	  x7:0x00000203  x7=0x00000010
       10205000	      1019	80002fc4	00b09433	sll	x8,x1,x11	  x1:0x80008c5a x11:0x000004ac  x8=0x08c5a000
       10215000	      1020	80002fc8	fe0c09a3	sb	x0,-13(x24)	 x24:0x80008138  x0:0x00000000 PA:0x8000812b
       10225000	      1021	80002fcc	00ac5b83	lhu	x23,10(x24)	 x24:0x80008138 x23=0x0000f8f9 PA:0x80008142
       10235000	      1022	80002fd0	009c1723	sh	x9,14(x24)	 x24:0x80008138  x9:0x80008375 PA:0x80008146
       10245000	      1023	80002fd4	008c0b03	lb	x22,8(x24)	 x24:0x80008138 x22=0xfffffffb PA:0x80008140
       10255000	      1024	80002fd8	ffcc5303	lhu	x6,-4(x24)	 x24:0x80008138  x6=0x0000eeef PA:0x80008134
       10265000	      1025	80002fdc	ff3c4403	lbu	x8,-13(x24)	 x24:0x80008138  x8=0x00000000 PA:0x8000812b
       10275000	      1026	80002fe0	01c7d413	srli	x8,x15,0x1c	 x15:0xffffff8c  x8=0x0000000f
       10285000	      1027	80002fe4	fe5c1f23	sh	x5,-2(x24)	 x24:0x80008138  x5:0x40000000 PA:0x80008136
       10295000	      1028	80002fe8	01914e33	xor	x28,x2,x25	  x2:0xb7aee122 x25:0x013fc800 x28=0xb6912922
       10305000	      1029	80002fec	010c4903	lbu	x18,16(x24)	 x24:0x80008138 x18=0x00000003 PA:0x80008148
       10315000	      1030	80002ff0	407457b3	sra	x15,x8,x7	  x8:0x0000000f  x7:0x00000010 x15=0x00000000
       10325000	      1031	80002ff4	01c66b33	or	x22,x12,x28	 x12:0xffffffa7 x28:0xb6912922 x22=0xffffffa7
       10335000	      1032	80002ff8	4197d7b3	sra	x15,x15,x25	 x15:0x00000000 x25:0x013fc800 x15=0x00000000
       10345000	      1033	80002ffc	002c4b03	lbu	x22,2(x24)	 x24:0x80008138 x22=0x000000f1 PA:0x8000813a
       10355000	      1034	80003000	ff0c0003	lb	x0,-16(x24)	 x24:0x80008138 PA:0x80008128
       10365000	      1035	80003004	00ac0423	sb	x10,8(x24)	 x24:0x80008138 x10:0xf49b5fa8 PA:0x80008140
       10375000	      1036	80003008	ff4c0483	lb	x9,-12(x24)	 x24:0x80008138  x9=0xffffffe7 PA:0x8000812c
       10385000	      1037	8000300c	012c0723	sb	x18,14(x24)	 x24:0x80008138 x18:0x00000003 PA:0x80008146
       10395000	      1038	80003010	00cc1483	lh	x9,12(x24)	 x24:0x80008138  x9=0xfffffeff PA:0x80008144
       10405000	      1039	80003014	011c1523	sh	x17,10(x24)	 x24:0x80008138 x17:0x00000000 PA:0x80008142
       10415000	      1040	80003018	012c0823	sb	x18,16(x24)	 x24:0x80008138 x18:0x00000003 PA:0x80008148
       10425000	      1041	8000301c	00fc0b03	lb	x22,15(x24)	 x24:0x80008138 x22=0xffffff83 PA:0x80008147
       10435000	      1042	80003020	ffac1d03	lh	x26,-6(x24)	 x24:0x80008138 x26=0xffffe8e9 PA:0x80008132
       10445000	      1043	80003024	fe6c1c23	sh	x6,-8(x24)	 x24:0x80008138  x6:0x0000eeef PA:0x80008130
       10455000	      1044	80003028	013c1623	sh	x19,12(x24)	 x24:0x80008138 x19:0x00000000 PA:0x80008144
       10465000	      1045	8000302c	40c15e93	srai	x29,x2,0xc	  x2:0xb7aee122 x29=0xfffb7aee
       10475000	      1046	80003030	00fc4303	lbu	x6,15(x24)	 x24:0x80008138  x6=0x00000083 PA:0x80008147
       10485000	      1047	80003034	ffac1783	lh	x15,-6(x24)	 x24:0x80008138 x15=0xffffe8e9 PA:0x80008132
       10495000	      1048	80003038	00345233	srl	x4,x8,x3	  x8:0x0000000f  x3:0x0000001b  x4=0x00000000
       10505000	      1049	8000303c	017c0523	sb	x23,10(x24)	 x24:0x80008138 x23:0x0000f8f9 PA:0x80008142
       10515000	      1050	80003040	005c4e83	lbu	x29,5(x24)	 x24:0x80008138 x29=0x000000f6 PA:0x8000813d
       10525000	      1051	80003044	ff4c0b23	sb	x20,-10(x24)	 x24:0x80008138 x20:0x80008dff PA:0x8000812e
       10535000	      1052	80003048	fe6c0da3	sb	x6,-5(x24)	 x24:0x80008138  x6:0x00000083 PA:0x80008133
       10545000	      1053	8000304c	40dbd013	srai	x0,x23,0xd	 x23:0x0000f8f9
       10555000	      1054	80003050	ff4c09a3	sb	x20,-13(x24)	 x24:0x80008138 x20:0x80008dff PA:0x8000812b
       10565000	      1055	80003054	ffbc4903	lbu	x18,-5(x24)	 x24:0x80008138 x18=0x00000083 PA:0x80008133
       10575000	      1056	80003058	00005997	auipc	x19,0x5	 x19=0x80008054
       10585000	      1057	8000305c	68998993	addi	x19,x19,1673	 x19:0x80008054 x19=0x800086dd
       10595000	      1058	80003060	010c9933	sll	x18,x25,x16	 x25:0x013fc800 x16:0x00000076 x18=0x00000000
       10605000	      1059	80003064	a9c9c683	lbu	x13,-1380(x19)	 x19:0x800086dd x13=0x00000032 PA:0x80008179
       10615000	      1060	80003068	c1e98f23	sb	x30,-994(x19)	 x19:0x800086dd x30:0x00000000 PA:0x800082fb
       10625000	      1061	8000306c	01106cb3	or	x25,x0,x17	  x0:0x00000000 x17:0x00000000 x25=0x00000000
       10635000	      1062	80003070	ce89c203	lbu	x4,-792(x19)	 x19:0x800086dd  x4=0x0000007e PA:0x800083c5
       10645000	      1063	80003074	011a6533	or	x10,x20,x17	 x20:0x80008dff x17:0x00000000 x10=0x80008dff
       10655000	      1064	80003078	ec298b23	sb	x2,-298(x19)	 x19:0x800086dd  x2:0xb7aee122 PA:0x800085b3
       10665000	      1065	8000307c	01419233	sll	x4,x3,x20	  x3:0x0000001b x20:0x80008dff  x4=0x80000000
       10675000	      1066	80003080	b7b9c303	lbu	x6,-1157(x19)	 x19:0x800086dd  x6=0x00000013 PA:0x80008258
       10685000	      1067	80003084	b7c98323	sb	x28,-1178(x19)	 x19:0x800086dd x28:0xb6912922 PA:0x80008243
       10695000	      1068	80003088	40a38933	sub	x18,x7,x10	  x7:0x00000010 x10:0x80008dff x18=0x7fff7211
       10705000	      1069	8000308c	fd29c683	lbu	x13,-46(x19)	 x19:0x800086dd x13=0x00000001 PA:0x800086af
       10715000	      1070	80003090	beb9cf03	lbu	x30,-1045(x19)	 x19:0x800086dd x30=0x00000083 PA:0x800082c8
       10725000	      1071	80003094	fc99d583	lhu	x11,-55(x19)	 x19:0x800086dd x11=0x00005c5d PA:0x800086a6
       10735000	      1072	80003098	f2e9ce83	lbu	x29,-210(x19)	 x19:0x800086dd x29=0x000000c0 PA:0x8000860b
       10745000	      1073	8000309c	615d6593	ori	x11,x26,1557	 x26:0xffffe8e9 x11=0xffffeefd
       10755000	      1074	800030a0	a4098f23	sb	x0,-1442(x19)	 x19:0x800086dd  x0:0x00000000 PA:0x8000813b
       10765000	      1075	800030a4	b2498323	sb	x4,-1242(x19)	 x19:0x800086dd  x4:0x80000000 PA:0x80008203
       10775000	      1076	800030a8	f1c9ce03	lbu	x28,-228(x19)	 x19:0x800086dd x28=0x000000b2 PA:0x800085f9
       10785000	      1077	800030ac	c129c483	lbu	x9,-1006(x19)	 x19:0x800086dd  x9=0x000000a4 PA:0x800082ef
       10795000	      1078	800030b0	fe233e13	sltiu	x28,x6,-30	  x6:0x00000013 x28=0x00000001
       10805000	      1079	800030b4	f5598903	lb	x18,-171(x19)	 x19:0x800086dd x18=0xffffffe9 PA:0x80008632
       10815000	      1080	800030b8	5bd1a913	slti	x18,x3,1469	  x3:0x0000001b x18=0x00000001
       10825000	      1081	800030bc	b4198423	sb	x1,-1208(x19)	 x19:0x800086dd  x1:0x80008c5a PA:0x80008225
       10835000	      1082	800030c0	01c072b3	and	x5,x0,x28	  x0:0x00000000 x28:0x00000001  x5=0x00000000
       10845000	      1083	800030c4	d4799383	lh	x7,-697(x19)	 x19:0x800086dd  x7=0xffffdedf PA:0x80008424
       10855000	      1084	800030c8	40e55233	sra	x4,x10,x14	 x10:0x80008dff x14:0xffffe773  x4=0xfffff000
       10865000	      1085	800030cc	0050a2b3	slt	x5,x1,x5	  x1:0x80008c5a  x5:0x00000000  x5=0x00000001
       10875000	      1086	800030d0	01cc5e33	srl	x28,x24,x28	 x24:0x80008138 x28:0x00000001 x28=0x4000409c
       10885000	      1087	800030d4	01815513	srli	x10,x2,0x18	  x2:0xb7aee122 x10=0x000000b7
       10895000	      1088	800030d8	bde4b017	auipc	x0,0xbde4b	
       10905000	      1089	800030dc	0939a183	lw	x3,147(x19)	 x19:0x800086dd  x3=0x28292a2b PA:0x80008770
       10915000	      1090	800030e0	00fa2333	slt	x6,x20,x15	 x20:0x80008dff x15:0xffffe8e9  x6=0x00000001
       10925000	      1091	800030e4	009f7c33	and	x24,x30,x9	 x30:0x00000083  x9:0x000000a4 x24=0x00000080
       10935000	      1092	800030e8	0106edb3	or	x27,x13,x16	 x13:0x00000001 x16:0x00000076 x27=0x00000077
       10945000	      1093	800030ec	a5998923	sb	x25,-1454(x19)	 x19:0x800086dd x25:0x00000000 PA:0x8000812f
       10955000	      1094	800030f0	de39d903	lhu	x18,-541(x19)	 x19:0x800086dd x18=0x00007a7b PA:0x800084c0
       10965000	      1095	800030f4	b2498483	lb	x9,-1244(x19)	 x19:0x800086dd  x9=0xffffffba PA:0x80008201
       10975000	      1096	800030f8	db982b13	slti	x22,x16,-583	 x16:0x00000076 x22=0x00000000
       10985000	      1097	800030fc	a4f99c83	lh	x25,-1457(x19)	 x19:0x800086dd x25=0xffffe6e7 PA:0x8000812c
       10995000	      1098	80003100	00deacb3	slt	x25,x29,x13	 x29:0x000000c0 x13:0x00000001 x25=0x00000000
       11005000	      1099	80003104	006e22b3	slt	x5,x28,x6	 x28:0x4000409c  x6:0x00000001  x5=0x00000000
       11015000	      1100	80003108	c3f9ad03	lw	x26,-961(x19)	 x19:0x800086dd x26=0xd4d5d6d7 PA:0x8000831c
       11025000	      1101	8000310c	00000013	addi	x0,x0,0	  x0:0x00000000
       11035000	      1102	80003110	1e6f3b17	auipc	x22,0x1e6f3	 x22=0x9e6f610c
       11045000	      1103	80003114	f8798523	sb	x7,-118(x19)	 x19:0x800086dd  x7:0xffffdedf PA:0x80008667
       11055000	      1104	80003118	13a9c903	lbu	x18,314(x19)	 x19:0x800086dd x18=0x000000cc PA:0x80008817
       11065000	      1105	8000311c	04a98a03	lb	x20,74(x19)	 x19:0x800086dd x20=0xffffffdc PA:0x80008727
       11075000	      1106	80003120	0679c203	lbu	x4,103(x19)	 x19:0x800086dd  x4=0x000000ff PA:0x80008744
       11085000	      1107	80003124	009c1093	slli	x1,x24,0x9	 x24:0x00000080  x1=0x00010000
       11095000	      1108	80003128	ee19de03	lhu	x28,-287(x19)	 x19:0x800086dd x28=0x00007475 PA:0x800085be
       11105000	      1109	8000312c	016ba733	slt	x14,x23,x22	 x23:0x0000f8f9 x22:0x9e6f610c x14=0x00000000
       11115000	      1110	80003130	13199c83	lh	x25,305(x19)	 x19:0x800086dd x25=0xffffc4c5 PA:0x8000880e
       11125000	      1111	80003134	40b5da33	sra	x20,x11,x11	 x11:0xffffeefd x11:0xffffeefd x20=0xffffffff
       11135000	      1112	80003138	00cbc533	xor	x10,x23,x12	 x23:0x0000f8f9 x12:0xffffffa7 x10=0xffff075e
       11145000	      1113	8000313c	00f18933	add	x18,x3,x15	  x3:0x28292a2b x15:0xffffe8e9 x18=0x28291314
       11155000	      1114	80003140	41d75e93	srai	x29,x14,0x1d	 x14:0x00000000 x29=0x00000000
       11165000	      1115	80003144	9a3e6697	auipc	x13,0x9a3e6	 x13=0x1a3e9140
       11175000	      1116	80003148	00e85393	srli	x7,x16,0xe	 x16:0x00000076  x7=0x00000000
       11185000	      1117	8000314c	4f9e2393	slti	x7,x28,1273	 x28:0x00007475  x7=0x00000000
       11195000	      1118	80003150	ea85ad93	slti	x27,x11,-344	 x11:0xffffeefd x27=0x00000001
       11205000	      1119	80003154	015674b3	and	x9,x12,x21	 x12:0xffffffa7 x21:0x80009ee4  x9=0x80009ea4
       11215000	      1120	80003158	01f740b3	xor	x1,x14,x31	 x14:0x00000000 x31:0x80009fc4  x1=0x80009fc4
       11225000	      1121	8000315c	d29aa913	slti	x18,x21,-727	 x21:0x80009ee4 x18=0x00000001
       11235000	      1122	80003160	418084b3	sub	x9,x1,x24	  x1:0x80009fc4 x24:0x00000080  x9=0x80009f44
       11245000	      1123	80003164	00189033	sll	x0,x17,x1	 x17:0x00000000  x1:0x80009fc4
       11255000	      1124	80003168	00c21513	slli	x10,x4,0xc	  x4:0x000000ff x10=0x000ff000
       11265000	      1125	8000316c	000e0cb3	add	x25,x28,x0	 x28:0x00007475  x0:0x00000000 x25=0x00007475
       11275000	      1126	80003170	897a2a13	slti	x20,x20,-1897	 x20:0xffffffff x20=0x00000000
       11285000	      1127	80003174	99dd6193	ori	x3,x26,-1635	 x26:0xd4d5d6d7  x3=0xffffffdf
       11295000	      1128	80003178	001c4c63	blt	x24,x1,80003190	 x24:0x00000080  x1:0x80009fc4
       11305000	      1129	8000317c	40ea5db3	sra	x27,x20,x14	 x20:0x00000000 x14:0x00000000 x27=0x00000000
       11315000	      1130	80003180	00352033	slt	x0,x10,x3	 x10:0x000ff000  x3:0xffffffdf
       11325000	      1131	80003184	a8a84c17	auipc	x24,0xa8a84	 x24=0x28a87180
       11335000	      1132	80003188	010d8433	add	x8,x27,x16	 x27:0x00000000 x16:0x00000076  x8=0x00000076
       11345000	      1133	8000318c	0487c263	blt	x15,x8,800031d0	 x15:0xffffe8e9  x8:0x00000076
       11355000	      1134	00000000	00000013	addi	x0,x0,0	  x0:0x00000000
       11365000	      1135	800031cc	00000013	addi	x0,x0,0	  x0:0x00000000
       11375000	      1136	800031d0	74de2017	auipc	x0,0x74de2	
       11385000	      1137	800031d4	9febc013	xori	x0,x23,-1538	 x23:0x0000f8f9
       11395000	      1138	800031d8	f7947393	andi	x7,x8,-135	  x8:0x00000076  x7=0x00000070
       11405000	      1139	800031dc	0004f733	and	x14,x9,x0	  x9:0x80009f44  x0:0x00000000 x14=0x00000000
       11415000	      1140	800031e0	01cd01b3	add	x3,x26,x28	 x26:0xd4d5d6d7 x28:0x00007475  x3=0xd4d64b4c
       11425000	      1141	800031e4	36a6be93	sltiu	x29,x13,874	 x13:0x1a3e9140 x29=0x00000000
       11435000	      1142	800031e8	1a80a4b7	lui	x9,0x1a80a	  x9=0x1a80a000
       11445000	      1143	800031ec	02efe463	bltu	x31,x14,80003214	 x31:0x80009fc4 x14:0x00000000
       11455000	      1144	800031f0	00df0263	beq	x30,x13,800031f4	 x30:0x00000083 x13:0x1a3e9140
       11465000	      1145	800031f4	f4f32893	slti	x17,x6,-177	  x6:0x00000001 x17=0x00000000
       11475000	      1146	800031f8	409487b3	sub	x15,x9,x9	  x9:0x1a80a000  x9:0x1a80a000 x15=0x00000000
       11485000	      1147	800031fc	41705cb3	sra	x25,x0,x23	  x0:0x00000000 x23:0x0000f8f9 x25=0x00000000
       11495000	      1148	80003200	92f1d637	lui	x12,0x92f1d	 x12=0x92f1d000
       11505000	      1149	80003204	00271733	sll	x14,x14,x2	 x14:0x00000000  x2:0xb7aee122 x14=0x00000000
       11515000	      1150	80003208	40700f33	sub	x30,x0,x7	  x0:0x00000000  x7:0x00000070 x30=0xffffff90
       11525000	      1151	8000320c	01ae5513	srli	x10,x28,0x1a	 x28:0x00007475 x10=0x00000000
       11535000	      1152	80003210	0420d463	bge	x1,x2,80003258	  x1:0x80009fc4  x2:0xb7aee122
       11545000	      1153	80003214	01f49313	slli	x6,x9,0x1f	  x9:0x1a80a000  x6=0x00000000
       11555000	      1154	80003218	02981863	bne	x16,x9,80003248	 x16:0x00000076  x9:0x1a80a000
       11565000	      1155	00000000	00000013	addi	x0,x0,0	  x0:0x00000000
       11575000	      1156	80003244	00000013	addi	x0,x0,0	  x0:0x00000000
       11585000	      1157	80003248	05799263	bne	x19,x23,8000328c	 x19:0x800086dd x23:0x0000f8f9
       11595000	      1158	00000000	00000013	addi	x0,x0,0	  x0:0x00000000
       11605000	      1159	80003288	00000013	addi	x0,x0,0	  x0:0x00000000
       11615000	      1160	8000328c	00f05263	bge	x0,x15,80003290	  x0:0x00000000 x15:0x00000000
       11625000	      1161	00000000	00000013	addi	x0,x0,0	  x0:0x00000000
       11635000	      1162	8000328c	00000013	addi	x0,x0,0	  x0:0x00000000
       11645000	      1163	80003290	012c8663	beq	x25,x18,8000329c	 x25:0x00000000 x18:0x00000001
       11655000	      1164	80003294	02f27e63	bgeu	x4,x15,800032d0	  x4:0x000000ff x15:0x00000000
       11665000	      1165	00000000	00000013	addi	x0,x0,0	  x0:0x00000000
       11675000	      1166	800032cc	00000013	addi	x0,x0,0	  x0:0x00000000
       11685000	      1167	800032d0	057e4463	blt	x28,x23,80003318	 x28:0x00007475 x23:0x0000f8f9
       11695000	      1168	00000000	00000013	addi	x0,x0,0	  x0:0x00000000
       11705000	      1169	80003314	00000013	addi	x0,x0,0	  x0:0x00000000
       11715000	      1170	80003318	03256a63	bltu	x10,x18,8000334c	 x10:0x00000000 x18:0x00000001
       11725000	      1171	00000000	00000013	addi	x0,x0,0	  x0:0x00000000
       11735000	      1172	80003348	00000013	addi	x0,x0,0	  x0:0x00000000
       11745000	      1173	8000334c	05dd9263	bne	x27,x29,80003390	 x27:0x00000000 x29:0x00000000
       11755000	      1174	80003350	0019cc63	blt	x19,x1,80003368	 x19:0x800086dd  x1:0x80009fc4
       11765000	      1175	00000000	00000013	addi	x0,x0,0	  x0:0x00000000
       11775000	      1176	80003364	00000013	addi	x0,x0,0	  x0:0x00000000
       11785000	      1177	80003368	05d19663	bne	x3,x29,800033b4	  x3:0xd4d64b4c x29:0x00000000
       11795000	      1178	00000000	00000013	addi	x0,x0,0	  x0:0x00000000
       11805000	      1179	800033b0	00000013	addi	x0,x0,0	  x0:0x00000000
       11815000	      1180	800033b4	013b5993	srli	x19,x22,0x13	 x22:0x9e6f610c x19=0x000013cd
       11825000	      1181	800033b8	03c4f863	bgeu	x9,x28,800033e8	  x9:0x1a80a000 x28:0x00007475
       11835000	      1182	00000000	00000013	addi	x0,x0,0	  x0:0x00000000
       11845000	      1183	800033e4	00000013	addi	x0,x0,0	  x0:0x00000000
       11855000	      1184	800033e8	0127e9b3	or	x19,x15,x18	 x15:0x00000000 x18:0x00000001 x19=0x00000001
       11865000	      1185	800033ec	68ad8f17	auipc	x30,0x68ad8	 x30=0xe8adb3e8
       11875000	      1186	800033f0	00826633	or	x12,x4,x8	  x4:0x000000ff  x8:0x00000076 x12=0x000000ff
       11885000	      1187	800033f4	00f3e463	bltu	x7,x15,800033fc	  x7:0x00000070 x15:0x00000000
       11895000	      1188	800033f8	01215a13	srli	x20,x2,0x12	  x2:0xb7aee122 x20=0x00002deb
       11905000	      1189	800033fc	002075b3	and	x11,x0,x2	  x0:0x00000000  x2:0xb7aee122 x11=0x00000000
       11915000	      1190	80003400	407e0333	sub	x6,x28,x7	 x28:0x00007475  x7:0x00000070  x6=0x00007405
       11925000	      1191	80003404	03ca4063	blt	x20,x28,80003424	 x20:0x00002deb x28:0x00007475
       11935000	      1192	00000000	00000013	addi	x0,x0,0	  x0:0x00000000
       11945000	      1193	80003420	00000013	addi	x0,x0,0	  x0:0x00000000
       11955000	      1194	80003424	05abe797	auipc	x15,0x5abe	 x15=0x85ac1420
       11965000	      1195	80003428	04f48463	beq	x9,x15,80003470	  x9:0x1a80a000 x15:0x85ac1420
       11975000	      1196	8000342c	04867463	bgeu	x12,x8,80003474	 x12:0x000000ff  x8:0x00000076
       11985000	      1197	00000000	00000013	addi	x0,x0,0	  x0:0x00000000
       11995000	      1198	80003470	00000013	addi	x0,x0,0	  x0:0x00000000
       12005000	      1199	80003474	0265e463	bltu	x11,x6,8000349c	 x11:0x00000000  x6:0x00007405
       12015000	      1200	00000000	00000013	addi	x0,x0,0	  x0:0x00000000
       12025000	      1201	80003498	00000013	addi	x0,x0,0	  x0:0x00000000
       12035000	      1202	8000349c	00000013	addi	x0,x0,0	  x0:0x00000000
       12045000	      1203	800034a0	04552013	slti	x0,x10,69	 x10:0x00000000
       12055000	      1204	800034a4	5e202793	slti	x15,x0,1506	  x0:0x00000000 x15=0x00000001
       12065000	      1205	800034a8	014794b3	sll	x9,x15,x20	 x15:0x00000001 x20:0x00002deb  x9=0x00000800
       12075000	      1206	800034ac	c52dde37	lui	x28,0xc52dd	 x28=0xc52dd000
       12085000	      1207	800034b0	e9c8f613	andi	x12,x17,-356	 x17:0x00000000 x12=0x00000000
       12095000	      1208	800034b4	007b0693	addi	x13,x22,7	 x22:0x9e6f610c x13=0x9e6f6113
       12105000	      1209	800034b8	18dcce93	xori	x29,x25,397	 x25:0x00000000 x29=0x0000018d
       12115000	      1210	800034bc	00721e93	slli	x29,x4,0x7	  x4:0x000000ff x29=0x00007f80
       12125000	      1211	800034c0	01146cb3	or	x25,x8,x17	  x8:0x00000076 x17:0x00000000 x25=0x00000076
       12135000	      1212	800034c4	01f15e33	srl	x28,x2,x31	  x2:0xb7aee122 x31:0x80009fc4 x28=0x0b7aee12
       12145000	      1213	800034c8	00f49eb3	sll	x29,x9,x15	  x9:0x00000800 x15:0x00000001 x29=0x00001000
       12155000	      1214	800034cc	7ef9c093	xori	x1,x19,2031	 x19:0x00000001  x1=0x000007ee
       12165000	      1215	800034d0	002dd093	srli	x1,x27,0x2	 x27:0x00000000  x1=0x00000000
       12175000	      1216	800034d4	044c0263	beq	x24,x4,80003518	 x24:0x28a87180  x4:0x000000ff
       12185000	      1217	800034d8	98434b93	xori	x23,x6,-1660	  x6:0x00007405 x23=0xffff8d81
       12195000	      1218	800034dc	0379ca63	blt	x19,x23,80003510	 x19:0x00000001 x23:0xffff8d81
       12205000	      1219	800034e0	271d0893	addi	x17,x26,625	 x26:0xd4d5d6d7 x17=0xd4d5d948
       12215000	      1220	800034e4	41305a33	sra	x20,x0,x19	  x0:0x00000000 x19:0x00000001 x20=0x00000000
       12225000	      1221	800034e8	413188b3	sub	x17,x3,x19	  x3:0xd4d64b4c x19:0x00000001 x17=0xd4d64b4b
       12235000	      1222	800034ec	045d1463	bne	x26,x5,80003534	 x26:0xd4d5d6d7  x5:0x00000000
       12245000	      1223	00000000	00000013	addi	x0,x0,0	  x0:0x00000000
       12255000	      1224	80003530	00000013	addi	x0,x0,0	  x0:0x00000000
       12265000	      1225	80003534	00511463	bne	x2,x5,8000353c	  x2:0xb7aee122  x5:0x00000000
       12275000	      1226	00000000	00000013	addi	x0,x0,0	  x0:0x00000000
       12285000	      1227	80003538	00000013	addi	x0,x0,0	  x0:0x00000000
       12295000	      1228	8000353c	006fdc93	srli	x25,x31,0x6	 x31:0x80009fc4 x25=0x0200027f
       12305000	      1229	80003540	0224e863	bltu	x9,x2,80003570	  x9:0x00000800  x2:0xb7aee122
       12315000	      1230	00000000	00000013	addi	x0,x0,0	  x0:0x00000000
       12325000	      1231	8000356c	00000013	addi	x0,x0,0	  x0:0x00000000
       12335000	      1232	80003570	02eb1663	bne	x22,x14,8000359c	 x22:0x9e6f610c x14:0x00000000
       12345000	      1233	00000000	00000013	addi	x0,x0,0	  x0:0x00000000
       12355000	      1234	80003598	00000013	addi	x0,x0,0	  x0:0x00000000
       12365000	      1235	8000359c	0142d093	srli	x1,x5,0x14	  x5:0x00000000  x1=0x00000000
       12375000	      1236	800035a0	970de617	auipc	x12,0x970de	 x12=0x170e159c
       12385000	      1237	800035a4	41c75813	srai	x16,x14,0x1c	 x14:0x00000000 x16=0x00000000
       12395000	      1238	800035a8	00f81a63	bne	x16,x15,800035bc	 x16:0x00000000 x15:0x00000001
       12405000	      1239	00000000	00000013	addi	x0,x0,0	  x0:0x00000000
       12415000	      1240	800035b8	00000013	addi	x0,x0,0	  x0:0x00000000
       12425000	      1241	800035bc	4178dc13	srai	x24,x17,0x17	 x17:0xd4d64b4b x24=0xffffffa9
       12435000	      1242	800035c0	015f76b3	and	x13,x30,x21	 x30:0xe8adb3e8 x21:0x80009ee4 x13=0x800092e0
       12445000	      1243	800035c4	001405b3	add	x11,x8,x1	  x8:0x00000076  x1:0x00000000 x11=0x00000076
       12455000	      1244	800035c8	01213033	sltu	x0,x2,x18	  x2:0xb7aee122 x18:0x00000001
       12465000	      1245	800035cc	40ed09b3	sub	x19,x26,x14	 x26:0xd4d5d6d7 x14:0x00000000 x19=0xd4d5d6d7
       12475000	      1246	800035d0	02f7f063	bgeu	x15,x15,800035f0	 x15:0x00000001 x15:0x00000001
       12485000	      1247	00000000	00000013	addi	x0,x0,0	  x0:0x00000000
       12495000	      1248	800035ec	00000013	addi	x0,x0,0	  x0:0x00000000
       12505000	      1249	800035f0	01a89613	slli	x12,x17,0x1a	 x17:0xd4d64b4b x12=0x2c000000
       12515000	      1250	800035f4	05d51463	bne	x10,x29,8000363c	 x10:0x00000000 x29:0x00001000
       12525000	      1251	00000000	00000013	addi	x0,x0,0	  x0:0x00000000
       12535000	      1252	80003638	00000013	addi	x0,x0,0	  x0:0x00000000
       12545000	      1253	8000363c	017b9cb3	sll	x25,x23,x23	 x23:0xffff8d81 x23:0xffff8d81 x25=0xffff1b02
       12555000	      1254	80003640	005cc333	xor	x6,x25,x5	 x25:0xffff1b02  x5:0x00000000  x6=0xffff1b02
       12565000	      1255	80003644	0037c5b3	xor	x11,x15,x3	 x15:0x00000001  x3:0xd4d64b4c x11=0xd4d64b4d
       12575000	      1256	80003648	0e1b60b7	lui	x1,0xe1b6	  x1=0x0e1b6000
       12585000	      1257	8000364c	00c55a13	srli	x20,x10,0xc	 x10:0x00000000 x20=0x00000000
       12595000	      1258	80003650	418153b3	sra	x7,x2,x24	  x2:0xb7aee122 x24:0xffffffa9  x7=0xffdbd770
       12605000	      1259	80003654	016ce4b3	or	x9,x25,x22	 x25:0xffff1b02 x22:0x9e6f610c  x9=0xffff7b0e
       12615000	      1260	80003658	053d9063	bne	x27,x19,80003698	 x27:0x00000000 x19:0xd4d5d6d7
       12625000	      1261	00000000	00000013	addi	x0,x0,0	  x0:0x00000000
       12635000	      1262	80003694	00000013	addi	x0,x0,0	  x0:0x00000000
       12645000	      1263	80003698	00fb9cb3	sll	x25,x23,x15	 x23:0xffff8d81 x15:0x00000001 x25=0xffff1b02
       12655000	      1264	8000369c	0352ca63	blt	x5,x21,800036d0	  x5:0x00000000 x21:0x80009ee4
       12665000	      1265	800036a0	02ca4863	blt	x20,x12,800036d0	 x20:0x00000000 x12:0x2c000000
       12675000	      1266	00000000	00000013	addi	x0,x0,0	  x0:0x00000000
       12685000	      1267	800036cc	00000013	addi	x0,x0,0	  x0:0x00000000
       12695000	      1268	800036d0	014d9913	slli	x18,x27,0x14	 x27:0x00000000 x18=0x00000000
       12705000	      1269	800036d4	002999b3	sll	x19,x19,x2	 x19:0xd4d5d6d7  x2:0xb7aee122 x19=0x53575b5c
       12715000	      1270	800036d8	41425713	srai	x14,x4,0x14	  x4:0x000000ff x14=0x00000000
       12725000	      1271	800036dc	018106b3	add	x13,x2,x24	  x2:0xb7aee122 x24:0xffffffa9 x13=0xb7aee0cb
       12735000	      1272	800036e0	00075d13	srli	x26,x14,0x0	 x14:0x00000000 x26=0x00000000
       12745000	      1273	800036e4	4067dcb3	sra	x25,x15,x6	 x15:0x00000001  x6:0xffff1b02 x25=0x00000000
       12755000	      1274	800036e8	402c02b3	sub	x5,x24,x2	 x24:0xffffffa9  x2:0xb7aee122  x5=0x48511e87
       12765000	      1275	800036ec	417258b3	sra	x17,x4,x23	  x4:0x000000ff x23:0xffff8d81 x17=0x0000007f
       12775000	      1276	800036f0	02680063	beq	x16,x6,80003710	 x16:0x00000000  x6:0xffff1b02
       12785000	      1277	800036f4	016e7433	and	x8,x28,x22	 x28:0x0b7aee12 x22:0x9e6f610c  x8=0x0a6a6000
       12795000	      1278	800036f8	0020d4b3	srl	x9,x1,x2	  x1:0x0e1b6000  x2:0xb7aee122  x9=0x0386d800
       12805000	      1279	800036fc	01d3f2b3	and	x5,x7,x29	  x7:0xffdbd770 x29:0x00001000  x5=0x00001000
       12815000	      1280	80003700	b9a43093	sltiu	x1,x8,-1126	  x8:0x0a6a6000  x1=0x00000001
       12825000	      1281	80003704	8990b8b7	lui	x17,0x8990b	 x17=0x8990b000
       12835000	      1282	80003708	1f0cc413	xori	x8,x25,496	 x25:0x00000000  x8=0x000001f0
       12845000	      1283	8000370c	b2a60893	addi	x17,x12,-1238	 x12:0x2c000000 x17=0x2bfffb2a
       12855000	      1284	80003710	098a3693	sltiu	x13,x20,152	 x20:0x00000000 x13=0x00000001
       12865000	      1285	80003714	89337313	andi	x6,x6,-1901	  x6:0xffff1b02  x6=0xffff1802
       12875000	      1286	80003718	eb08e393	ori	x7,x17,-336	 x17:0x2bfffb2a  x7=0xffffffba
       12885000	      1287	8000371c	009b9e13	slli	x28,x23,0x9	 x23:0xffff8d81 x28=0xff1b0200
       12895000	      1288	80003720	c5e08797	auipc	x15,0xc5e08	 x15=0x45e0b71c
       12905000	      1289	80003724	8ace7b93	andi	x23,x28,-1876	 x28:0xff1b0200 x23=0xff1b0000
       12915000	      1290	80003728	00e04333	xor	x6,x0,x14	  x0:0x00000000 x14:0x00000000  x6=0x00000000
       12925000	      1291	8000372c	0104f2b3	and	x5,x9,x16	  x9:0x0386d800 x16:0x00000000  x5=0x00000000
       12935000	      1292	80003730	31cb3493	sltiu	x9,x22,796	 x22:0x9e6f610c  x9=0x00000000
       12945000	      1293	80003734	01f18463	beq	x3,x31,8000373c	  x3:0xd4d64b4c x31:0x80009fc4
       12955000	      1294	80003738	ede3b337	lui	x6,0xede3b	  x6=0xede3b000
       12965000	      1295	8000373c	411c0bb3	sub	x23,x24,x17	 x24:0xffffffa9 x17:0x2bfffb2a x23=0xd400047f
       12975000	      1296	80003740	d628f593	andi	x11,x17,-670	 x17:0x2bfffb2a x11=0x2bfff922
       12985000	      1297	80003744	85acbc97	auipc	x25,0x85acb	 x25=0x05ace740
       12995000	      1298	80003748	016f9a63	bne	x31,x22,8000375c	 x31:0x80009fc4 x22:0x9e6f610c
       13005000	      1299	00000000	00000013	addi	x0,x0,0	  x0:0x00000000
       13015000	      1300	80003758	00000013	addi	x0,x0,0	  x0:0x00000000
       13025000	      1301	8000375c	01e80833	add	x16,x16,x30	 x16:0x00000000 x30:0xe8adb3e8 x16=0xe8adb3e8
       13035000	      1302	80003760	01716233	or	x4,x2,x23	  x2:0xb7aee122 x23:0xd400047f  x4=0xf7aee57f
       13045000	      1303	80003764	00000013	addi	x0,x0,0	  x0:0x00000000
       13055000	      1304	80003768	008a0f33	add	x30,x20,x8	 x20:0x00000000  x8:0x000001f0 x30=0x000001f0
       13065000	      1305	8000376c	729bc513	xori	x10,x23,1833	 x23:0xd400047f x10=0xd4000356
       13075000	      1306	80003770	e6451837	lui	x16,0xe6451	 x16=0xe6451000
       13085000	      1307	80003774	016aac33	slt	x24,x21,x22	 x21:0x80009ee4 x22:0x9e6f610c x24=0x00000001
       13095000	      1308	80003778	8861e293	ori	x5,x3,-1914	  x3:0xd4d64b4c  x5=0xfffffbce
       13105000	      1309	8000377c	416f55b3	sra	x11,x30,x22	 x30:0x000001f0 x22:0x9e6f610c x11=0x00000000
       13115000	      1310	80003780	00579293	slli	x5,x15,0x5	 x15:0x45e0b71c  x5=0xbc16e380
       13125000	      1311	80003784	40635193	srai	x3,x6,0x6	  x6:0xede3b000  x3=0xffb78ec0
       13135000	      1312	80003788	02105463	bge	x0,x1,800037b0	  x0:0x00000000  x1:0x00000001
       13145000	      1313	8000378c	00f45db3	srl	x27,x8,x15	  x8:0x000001f0 x15:0x45e0b71c x27=0x00000000
       13155000	      1314	80003790	416ed913	srai	x18,x29,0x16	 x29:0x00001000 x18=0x00000000
       13165000	      1315	80003794	406783b3	sub	x7,x15,x6	 x15:0x45e0b71c  x6:0xede3b000  x7=0x57fd071c
       13175000	      1316	80003798	019854b3	srl	x9,x16,x25	 x16:0xe6451000 x25:0x05ace740  x9=0xe6451000
       13185000	      1317	8000379c	05178663	beq	x15,x17,800037e8	 x15:0x45e0b71c x17:0x2bfffb2a
       13195000	      1318	800037a0	00d9c6b3	xor	x13,x19,x13	 x19:0x53575b5c x13:0x00000001 x13=0x53575b5d
       13205000	      1319	800037a4	05d4d263	bge	x9,x29,800037e8	  x9:0xe6451000 x29:0x00001000
       13215000	      1320	800037a8	05d96463	bltu	x18,x29,800037f0	 x18:0x00000000 x29:0x00001000
       13225000	      1321	00000000	00000013	addi	x0,x0,0	  x0:0x00000000
       13235000	      1322	800037ec	00000013	addi	x0,x0,0	  x0:0x00000000
       13245000	      1323	800037f0	008e9c63	bne	x29,x8,80003808	 x29:0x00001000  x8:0x000001f0
       13255000	      1324	00000000	00000013	addi	x0,x0,0	  x0:0x00000000
       13265000	      1325	80003804	00000013	addi	x0,x0,0	  x0:0x00000000
       13275000	      1326	80003808	41ecd533	sra	x10,x25,x30	 x25:0x05ace740 x30:0x000001f0 x10=0x000005ac
       13285000	      1327	8000380c	00e88a63	beq	x17,x14,80003820	 x17:0x2bfffb2a x14:0x00000000
       13295000	      1328	80003810	413b0cb3	sub	x25,x22,x19	 x22:0x9e6f610c x19:0x53575b5c x25=0x4b1805b0
       13305000	      1329	80003814	00c25263	bge	x4,x12,80003818	  x4:0xf7aee57f x12:0x2c000000
       13315000	      1330	80003818	4182d833	sra	x16,x5,x24	  x5:0xbc16e380 x24:0x00000001 x16=0xde0b71c0
       13325000	      1331	8000381c	01641f33	sll	x30,x8,x22	  x8:0x000001f0 x22:0x9e6f610c x30=0x001f0000
       13335000	      1332	80003820	40630e33	sub	x28,x6,x6	  x6:0xede3b000  x6:0xede3b000 x28=0x00000000
       13345000	      1333	80003824	001c9db3	sll	x27,x25,x1	 x25:0x4b1805b0  x1:0x00000001 x27=0x96300b60
       13355000	      1334	80003828	7e982537	lui	x10,0x7e982	 x10=0x7e982000
       13365000	      1335	8000382c	aa5dec37	lui	x24,0xaa5de	 x24=0xaa5de000
       13375000	      1336	80003830	019d78b3	and	x17,x26,x25	 x26:0x00000000 x25:0x4b1805b0 x17=0x00000000
       13385000	      1337	80003834	001eabb3	slt	x23,x29,x1	 x29:0x00001000  x1:0x00000001 x23=0x00000000
       13395000	      1338	80003838	00e83433	sltu	x8,x16,x14	 x16:0xde0b71c0 x14:0x00000000  x8=0x00000000
       13405000	      1339	8000383c	41bb5833	sra	x16,x22,x27	 x22:0x9e6f610c x27:0x96300b60 x16=0x9e6f610c
       13415000	      1340	80003840	04a6f063	bgeu	x13,x10,80003880	 x13:0x53575b5d x10:0x7e982000
       13425000	      1341	80003844	043fc263	blt	x31,x3,80003888	 x31:0x80009fc4  x3:0xffb78ec0
       13435000	      1342	00000000	00000013	addi	x0,x0,0	  x0:0x00000000
       13445000	      1343	80003884	00000013	addi	x0,x0,0	  x0:0x00000000
       13455000	      1344	80003888	406bda13	srai	x20,x23,0x6	 x23:0x00000000 x20=0x00000000
       13465000	      1345	8000388c	026d6e97	auipc	x29,0x26d6	 x29=0x826d9888
       13475000	      1346	80003890	32712b93	slti	x23,x2,807	  x2:0xb7aee122 x23=0x00000001
       13485000	      1347	80003894	002f46b3	xor	x13,x30,x2	 x30:0x001f0000  x2:0xb7aee122 x13=0xb7b1e122
       13495000	      1348	80003898	9e2c61b7	lui	x3,0x9e2c6	  x3=0x9e2c6000
       13505000	      1349	8000389c	02546663	bltu	x8,x5,800038c8	  x8:0x00000000  x5:0xbc16e380
       13515000	      1350	00000000	00000013	addi	x0,x0,0	  x0:0x00000000
       13525000	      1351	800038c4	00000013	addi	x0,x0,0	  x0:0x00000000
       13535000	      1352	800038c8	445b4093	xori	x1,x22,1093	 x22:0x9e6f610c  x1=0x9e6f6549
       13545000	      1353	800038cc	019b9863	bne	x23,x25,800038dc	 x23:0x00000001 x25:0x4b1805b0
       13555000	      1354	00000000	00000013	addi	x0,x0,0	  x0:0x00000000
       13565000	      1355	800038d8	00000013	addi	x0,x0,0	  x0:0x00000000
       13575000	      1356	800038dc	aeb5cc93	xori	x25,x11,-1301	 x11:0x00000000 x25=0xfffffaeb
       13585000	      1357	800038e0	00000013	addi	x0,x0,0	  x0:0x00000000
       13595000	      1358	800038e4	712c8b13	addi	x22,x25,1810	 x25:0xfffffaeb x22=0x000001fd
       13605000	      1359	800038e8	019d7db3	and	x27,x26,x25	 x26:0x00000000 x25:0xfffffaeb x27=0x00000000
       13615000	      1360	800038ec	007a66b3	or	x13,x20,x7	 x20:0x00000000  x7:0x57fd071c x13=0x57fd071c
       13625000	      1361	800038f0	e60c4217	auipc	x4,0xe60c4	  x4=0x660c78ec
       13635000	      1362	800038f4	04877263	bgeu	x14,x8,80003938	 x14:0x00000000  x8:0x00000000
       13645000	      1363	00000000	00000013	addi	x0,x0,0	  x0:0x00000000
       13655000	      1364	80003934	00000013	addi	x0,x0,0	  x0:0x00000000
       13665000	      1365	80003938	01247663	bgeu	x8,x18,80003944	  x8:0x00000000 x18:0x00000000
       13675000	      1366	00000000	00000013	addi	x0,x0,0	  x0:0x00000000
       13685000	      1367	80003940	00000013	addi	x0,x0,0	  x0:0x00000000
       13695000	      1368	80003944	01f99313	slli	x6,x19,0x1f	 x19:0x53575b5c  x6=0x00000000
       13705000	      1369	80003948	040df463	bgeu	x27,x0,80003990	 x27:0x00000000  x0:0x00000000
       13715000	      1370	00000000	00000013	addi	x0,x0,0	  x0:0x00000000
       13725000	      1371	8000398c	00000013	addi	x0,x0,0	  x0:0x00000000
       13735000	      1372	80003990	37d0c913	xori	x18,x1,893	  x1:0x9e6f6549 x18=0x9e6f6634
       13745000	      1373	80003994	00ad7db3	and	x27,x26,x10	 x26:0x00000000 x10:0x7e982000 x27=0x00000000
       13755000	      1374	80003998	1b99d797	auipc	x15,0x1b99d	 x15=0x9b9a0994
       13765000	      1375	8000399c	00cb4f33	xor	x30,x22,x12	 x22:0x000001fd x12:0x2c000000 x30=0x2c0001fd
       13775000	      1376	800039a0	0ff46c63	bltu	x8,x31,80003a98	  x8:0x00000000 x31:0x80009fc4
       13785000	      1377	00000000	00000013	addi	x0,x0,0	  x0:0x00000000
       13795000	      1378	80003a94	00000013	addi	x0,x0,0	  x0:0x00000000
       13805000	      1379	80003a98	019f5893	srli	x17,x30,0x19	 x30:0x2c0001fd x17=0x00000016
       13815000	      1380	80003a9c	6d37ee93	ori	x29,x15,1747	 x15:0x9b9a0994 x29=0x9b9a0fd7
       13825000	      1381	80003aa0	00000013	addi	x0,x0,0	  x0:0x00000000
       13835000	      1382	80003aa4	00733f33	sltu	x30,x6,x7	  x6:0x00000000  x7:0x57fd071c x30=0x00000001
       13845000	      1383	80003aa8	b023ad13	slti	x26,x7,-1278	  x7:0x57fd071c x26=0x00000000
       13855000	      1384	80003aac	039c6c63	bltu	x24,x25,80003ae4	 x24:0xaa5de000 x25:0xfffffaeb
       13865000	      1385	00000000	00000013	addi	x0,x0,0	  x0:0x00000000
       13875000	      1386	80003ae0	00000013	addi	x0,x0,0	  x0:0x00000000
       13885000	      1387	80003ae4	fcb1e193	ori	x3,x3,-53	  x3:0x9e2c6000  x3=0xffffffcb
       13895000	      1388	80003ae8	bd3e6717	auipc	x14,0xbd3e6	 x14=0x3d3e9ae4
       13905000	      1389	80003aec	32c32813	slti	x16,x6,812	  x6:0x00000000 x16=0x00000001
       13915000	      1390	80003af0	03127063	bgeu	x4,x17,80003b10	  x4:0x660c78ec x17:0x00000016
       13925000	      1391	00000000	00000013	addi	x0,x0,0	  x0:0x00000000
       13935000	      1392	80003b0c	00000013	addi	x0,x0,0	  x0:0x00000000
       13945000	      1393	80003b10	004468b3	or	x17,x8,x4	  x8:0x00000000  x4:0x660c78ec x17=0x660c78ec
       13955000	      1394	80003b14	00cd2033	slt	x0,x26,x12	 x26:0x00000000 x12:0x2c000000
       13965000	      1395	80003b18	01819813	slli	x16,x3,0x18	  x3:0xffffffcb x16=0xcb000000
       13975000	      1396	80003b1c	4ab3a393	slti	x7,x7,1195	  x7:0x57fd071c  x7=0x00000000
       13985000	      1397	80003b20	015e6233	or	x4,x28,x21	 x28:0x00000000 x21:0x80009ee4  x4=0x80009ee4
       13995000	      1398	80003b24	01b9dc13	srli	x24,x19,0x1b	 x19:0x53575b5c x24=0x0000000a
       14005000	      1399	80003b28	1ff80893	addi	x17,x16,511	 x16:0xcb000000 x17=0xcb0001ff
       14015000	      1400	80003b2c	00c09893	slli	x17,x1,0xc	  x1:0x9e6f6549 x17=0xf6549000
       14025000	      1401	80003b30	0148e263	bltu	x17,x20,80003b34	 x17:0xf6549000 x20:0x00000000
       14035000	      1402	80003b34	0032d913	srli	x18,x5,0x3	  x5:0xbc16e380 x18=0x1782dc70
       14045000	      1403	80003b38	0236e463	bltu	x13,x3,80003b60	 x13:0x57fd071c  x3:0xffffffcb
       14055000	      1404	00000000	00000013	addi	x0,x0,0	  x0:0x00000000
       14065000	      1405	80003b5c	00000013	addi	x0,x0,0	  x0:0x00000000
       14075000	      1406	80003b60	df272417	auipc	x8,0xdf272	  x8=0x5f275b5c
       14085000	      1407	80003b64	416754b3	sra	x9,x14,x22	 x14:0x3d3e9ae4 x22:0x000001fd  x9=0x00000001
       14095000	      1408	80003b68	411e50b3	sra	x1,x28,x17	 x28:0x00000000 x17:0xf6549000  x1=0x00000000
       14105000	      1409	80003b6c	012bc333	xor	x6,x23,x18	 x23:0x00000001 x18:0x1782dc70  x6=0x1782dc71
       14115000	      1410	80003b70	f66acd93	xori	x27,x21,-154	 x21:0x80009ee4 x27=0x7fff6182
       14125000	      1411	80003b74	0be87993	andi	x19,x16,190	 x16:0xcb000000 x19=0x00000000
       14135000	      1412	80003b78	00000013	addi	x0,x0,0	  x0:0x00000000
       14145000	      1413	80003b7c	d58f9937	lui	x18,0xd58f9	 x18=0xd58f9000
       14155000	      1414	80003b80	80503713	sltiu	x14,x0,-2043	  x0:0x00000000 x14=0x00000001
       14165000	      1415	80003b84	022f7463	bgeu	x30,x2,80003bac	 x30:0x00000001  x2:0xb7aee122
       14175000	      1416	80003b88	01585193	srli	x3,x16,0x15	 x16:0xcb000000  x3=0x00000658
       14185000	      1417	80003b8c	0542d463	bge	x5,x20,80003bd4	  x5:0xbc16e380 x20:0x00000000
       14195000	      1418	80003b90	02fbf063	bgeu	x23,x15,80003bb0	 x23:0x00000001 x15:0x9b9a0994
       14205000	      1419	80003b94	dda96413	ori	x8,x18,-550	 x18:0xd58f9000  x8=0xfffffdda
       14215000	      1420	80003b98	00a54233	xor	x4,x10,x10	 x10:0x7e982000 x10:0x7e982000  x4=0x00000000
       14225000	      1421	80003b9c	fb097b93	andi	x23,x18,-80	 x18:0xd58f9000 x23=0xd58f9000
       14235000	      1422	80003ba0	00c2d733	srl	x14,x5,x12	  x5:0xbc16e380 x12:0x2c000000 x14=0xbc16e380
       14245000	      1423	80003ba4	05e60863	beq	x12,x30,80003bf4	 x12:0x2c000000 x30:0x00000001
       14255000	      1424	80003ba8	00941263	bne	x8,x9,80003bac	  x8:0xfffffdda  x9:0x00000001
       14265000	      1425	00000000	00000013	addi	x0,x0,0	  x0:0x00000000
       14275000	      1426	80003ba8	00000013	addi	x0,x0,0	  x0:0x00000000
       14285000	      1427	80003bac	89564b93	xori	x23,x12,-1899	 x12:0x2c000000 x23=0xd3fff895
       14295000	      1428	80003bb0	003b8b33	add	x22,x23,x3	 x23:0xd3fff895  x3:0x00000658 x22=0xd3fffeed
       14305000	      1429	80003bb4	045e5463	bge	x28,x5,80003bfc	 x28:0x00000000  x5:0xbc16e380
       14315000	      1430	00000000	00000013	addi	x0,x0,0	  x0:0x00000000
       14325000	      1431	80003bf8	00000013	addi	x0,x0,0	  x0:0x00000000
       14335000	      1432	80003bfc	134c8213	addi	x4,x25,308	 x25:0xfffffaeb  x4=0xfffffc1f
       14345000	      1433	80003c00	01bb0233	add	x4,x22,x27	 x22:0xd3fffeed x27:0x7fff6182  x4=0x53ff606f
       14355000	      1434	80003c04	6765e993	ori	x19,x11,1654	 x11:0x00000000 x19=0x00000676
       14365000	      1435	80003c08	09fb2837	lui	x16,0x9fb2	 x16=0x09fb2000
       14375000	      1436	80003c0c	00d219b3	sll	x19,x4,x13	  x4:0x53ff606f x13:0x57fd071c x19=0xf0000000
       14385000	      1437	80003c10	00039833	sll	x16,x7,x0	  x7:0x00000000  x0:0x00000000 x16=0x00000000
       14395000	      1438	80003c14	01e7b1b3	sltu	x3,x15,x30	 x15:0x9b9a0994 x30:0x00000001  x3=0x00000000
       14405000	      1439	80003c18	ff41cb93	xori	x23,x3,-12	  x3:0x00000000 x23=0xfffffff4
       14415000	      1440	80003c1c	01a1e863	bltu	x3,x26,80003c2c	  x3:0x00000000 x26:0x00000000
       14425000	      1441	80003c20	5f5e2893	slti	x17,x28,1525	 x28:0x00000000 x17=0x00000001
       14435000	      1442	80003c24	0029a6b3	slt	x13,x19,x2	 x19:0xf0000000  x2:0xb7aee122 x13=0x00000000
       14445000	      1443	80003c28	41415033	sra	x0,x2,x20	  x2:0xb7aee122 x20:0x00000000
       14455000	      1444	80003c2c	002da2b3	slt	x5,x27,x2	 x27:0x7fff6182  x2:0xb7aee122  x5=0x00000000
       14465000	      1445	80003c30	00409c13	slli	x24,x1,0x4	  x1:0x00000000 x24=0x00000000
       14475000	      1446	80003c34	4189dd33	sra	x26,x19,x24	 x19:0xf0000000 x24:0x00000000 x26=0xf0000000
       14485000	      1447	80003c38	004aa083	lw	x1,4(x21)	 x21:0x80009ee4  x1=0x80002e08 PA:0x80009ee8
       14495000	      1448	80003c3c	00586433	or	x8,x16,x5	 x16:0x00000000  x5:0x00000000  x8=0x00000000
       14505000	      1449	80003c40	01c471b3	and	x3,x8,x28	  x8:0x00000000 x28:0x00000000  x3=0x00000000
       14515000	      1450	80003c44	01a8d313	srli	x6,x17,0x1a	 x17:0x00000001  x6=0x00000000
       14525000	      1451	80003c48	02ca8a93	addi	x21,x21,44	 x21:0x80009ee4 x21=0x80009f10
       14535000	      1452	80003c4c	40578833	sub	x16,x15,x5	 x15:0x9b9a0994  x5:0x00000000 x16=0x9b9a0994
       14545000	      1453	80003c50	00000013	addi	x0,x0,0	  x0:0x00000000
       14555000	      1454	80003c54	007c5e13	srli	x28,x24,0x7	 x24:0x00000000 x28=0x00000000
       14565000	      1455	80003c58	01e59c13	slli	x24,x11,0x1e	 x11:0x00000000 x24=0x00000000
       14575000	      1456	80003c5c	d2f289b7	lui	x19,0xd2f28	 x19=0xd2f28000
       14585000	      1457	80003c60	00108c93	addi	x25,x1,1	  x1:0x80002e08 x25=0x80002e09
       14595000	      1458	80003c64	000c8ce7	jalr	x25,x25,0	 x25:0x80002e09 x25=0x80003c64
       14605000	      1459	00000000	00000013	addi	x0,x0,0	  x0:0x00000000
       14615000	      1460	80002e08	00000013	addi	x0,x0,0	  x0:0x00000000
       14625000	      1461	80002e0c	01c1e033	or	x0,x3,x28	  x3:0x00000000 x28:0x00000000
       14635000	      1462	80002e10	419dda13	srai	x20,x27,0x19	 x27:0x7fff6182 x20=0x0000003f
       14645000	      1463	80002e14	00000013	addi	x0,x0,0	  x0:0x00000000
       14655000	      1464	80002e18	41ccd5b3	sra	x11,x25,x28	 x25:0x80003c64 x28:0x00000000 x11=0x80003c64
       14665000	      1465	80002e1c	195ef593	andi	x11,x29,405	 x29:0x9b9a0fd7 x11=0x00000195
       14675000	      1466	80002e20	0094d863	bge	x9,x9,80002e30	  x9:0x00000001  x9:0x00000001
       14685000	      1467	00000000	00000013	addi	x0,x0,0	  x0:0x00000000
       14695000	      1468	80002e2c	00000013	addi	x0,x0,0	  x0:0x00000000
       14705000	      1469	80002e30	00037c63	bgeu	x6,x0,80002e48	  x6:0x00000000  x0:0x00000000
       14715000	      1470	00000000	00000013	addi	x0,x0,0	  x0:0x00000000
       14725000	      1471	80002e44	00000013	addi	x0,x0,0	  x0:0x00000000
       14735000	      1472	80002e48	83788593	addi	x11,x17,-1993	 x17:0x00000001 x11=0xfffff838
       14745000	      1473	80002e4c	00cd51b3	srl	x3,x26,x12	 x26:0xf0000000 x12:0x2c000000  x3=0xf0000000
       14755000	      1474	80002e50	004aa083	lw	x1,4(x21)	 x21:0x80009f10  x1=0x800069f0 PA:0x80009f14
       14765000	      1475	80002e54	01559233	sll	x4,x11,x21	 x11:0xfffff838 x21:0x80009f10  x4=0xf8380000
       14775000	      1476	80002e58	01c1feb3	and	x29,x3,x28	  x3:0xf0000000 x28:0x00000000 x29=0x00000000
       14785000	      1477	80002e5c	010a8a93	addi	x21,x21,16	 x21:0x80009f10 x21=0x80009f20
       14795000	      1478	80002e60	24da7913	andi	x18,x20,589	 x20:0x0000003f x18=0x0000000d
       14805000	      1479	80002e64	4094d513	srai	x10,x9,0x9	  x9:0x00000001 x10=0x00000000
       14815000	      1480	80002e68	7e95b613	sltiu	x12,x11,2025	 x11:0xfffff838 x12=0x00000000
       14825000	      1481	80002e6c	00008293	addi	x5,x1,0	  x1:0x800069f0  x5=0x800069f0
       14835000	      1482	80002e70	000282e7	jalr	x5,x5,0	  x5:0x800069f0  x5=0x80002e70
       14845000	      1483	00000000	00000013	addi	x0,x0,0	  x0:0x00000000
       14855000	      1484	800069f0	00000013	addi	x0,x0,0	  x0:0x00000000
       14865000	      1485	800069f4	41368b33	sub	x22,x13,x19	 x13:0x00000000 x19:0xd2f28000 x22=0x2d0d8000
       14875000	      1486	800069f8	010f5693	srli	x13,x30,0x10	 x30:0x00000001 x13=0x00000000
       14885000	      1487	800069fc	410b5d33	sra	x26,x22,x16	 x22:0x2d0d8000 x16:0x9b9a0994 x26=0x000002d0
       14895000	      1488	80006a00	2d91f413	andi	x8,x3,729	  x3:0xf0000000  x8=0x00000000
       14905000	      1489	80006a04	8867c493	xori	x9,x15,-1914	 x15:0x9b9a0994  x9=0x6465f112
       14915000	      1490	80006a08	007a5713	srli	x14,x20,0x7	 x20:0x0000003f x14=0x00000000
       14925000	      1491	80006a0c	05cbf063	bgeu	x23,x28,80006a4c	 x23:0xfffffff4 x28:0x00000000
       14935000	      1492	00000000	00000013	addi	x0,x0,0	  x0:0x00000000
       14945000	      1493	80006a48	00000013	addi	x0,x0,0	  x0:0x00000000
       14955000	      1494	80006a4c	001ae033	or	x0,x21,x1	 x21:0x80009f20  x1:0x800069f0
       14965000	      1495	80006a50	017100b3	add	x1,x2,x23	  x2:0xb7aee122 x23:0xfffffff4  x1=0xb7aee116
       14975000	      1496	80006a54	02d81c63	bne	x16,x13,80006a8c	 x16:0x9b9a0994 x13:0x00000000
       14985000	      1497	00000000	00000013	addi	x0,x0,0	  x0:0x00000000
       14995000	      1498	80006a88	00000013	addi	x0,x0,0	  x0:0x00000000
       15005000	      1499	80006a8c	03bb9463	bne	x23,x27,80006ab4	 x23:0xfffffff4 x27:0x7fff6182
       15015000	      1500	00000000	00000013	addi	x0,x0,0	  x0:0x00000000
       15025000	      1501	80006ab0	00000013	addi	x0,x0,0	  x0:0x00000000
       15035000	      1502	80006ab4	00cc5633	srl	x12,x24,x12	 x24:0x00000000 x12:0x00000000 x12=0x00000000
       15045000	      1503	80006ab8	00701a63	bne	x0,x7,80006acc	  x0:0x00000000  x7:0x00000000
       15055000	      1504	80006abc	408552b3	sra	x5,x10,x8	 x10:0x00000000  x8:0x00000000  x5=0x00000000
       15065000	      1505	80006ac0	01fbdc93	srli	x25,x23,0x1f	 x23:0xfffffff4 x25=0x00000001
       15075000	      1506	80006ac4	011228b3	slt	x17,x4,x17	  x4:0xf8380000 x17:0x00000001 x17=0x00000001
       15085000	      1507	80006ac8	b8296613	ori	x12,x18,-1150	 x18:0x0000000d x12=0xfffffb8f
       15095000	      1508	80006acc	00a5f3b3	and	x7,x11,x10	 x11:0xfffff838 x10:0x00000000  x7=0x00000000
       15105000	      1509	80006ad0	01b7c4b3	xor	x9,x15,x27	 x15:0x9b9a0994 x27:0x7fff6182  x9=0xe4656816
       15115000	      1510	80006ad4	00879593	slli	x11,x15,0x8	 x15:0x9b9a0994 x11=0x9a099400
       15125000	      1511	80006ad8	01f55c93	srli	x25,x10,0x1f	 x10:0x00000000 x25=0x00000000
       15135000	      1512	80006adc	e04c1d17	auipc	x26,0xe04c1	 x26=0x604c7ad8
       15145000	      1513	80006ae0	00dd36b3	sltu	x13,x26,x13	 x26:0x604c7ad8 x13:0x00000000 x13=0x00000000
       15155000	      1514	80006ae4	00d54f33	xor	x30,x10,x13	 x10:0x00000000 x13:0x00000000 x30=0x00000000
       15165000	      1515	80006ae8	02295263	bge	x18,x2,80006b0c	 x18:0x0000000d  x2:0xb7aee122
       15175000	      1516	00000000	00000013	addi	x0,x0,0	  x0:0x00000000
       15185000	      1517	80006b08	00000013	addi	x0,x0,0	  x0:0x00000000
       15195000	      1518	80006b0c	00312633	slt	x12,x2,x3	  x2:0xb7aee122  x3:0xf0000000 x12=0x00000001
       15205000	      1519	80006b10	0059b633	sltu	x12,x19,x5	 x19:0xd2f28000  x5:0x00000000 x12=0x00000000
       15215000	      1520	80006b14	00000013	addi	x0,x0,0	  x0:0x00000000
       15225000	      1521	80006b18	00000013	addi	x0,x0,0	  x0:0x00000000
       15235000	      1522	80006b1c	40eb0e33	sub	x28,x22,x14	 x22:0x2d0d8000 x14:0x00000000 x28=0x2d0d8000
       15245000	      1523	80006b20	0193d713	srli	x14,x7,0x19	  x7:0x00000000 x14=0x00000000
       15255000	      1524	80006b24	0157c233	xor	x4,x15,x21	 x15:0x9b9a0994 x21:0x80009f20  x4=0x1b9a96b4
       15265000	      1525	80006b28	1d28f693	andi	x13,x17,466	 x17:0x00000001 x13=0x00000000
       15275000	      1526	80006b2c	015ef533	and	x10,x29,x21	 x29:0x00000000 x21:0x80009f20 x10=0x00000000
       15285000	      1527	80006b30	00000013	addi	x0,x0,0	  x0:0x00000000
       15295000	      1528	80006b34	04774663	blt	x14,x7,80006b80	 x14:0x00000000  x7:0x00000000
       15305000	      1529	80006b38	00f83d33	sltu	x26,x16,x15	 x16:0x9b9a0994 x15:0x9b9a0994 x26=0x00000000
       15315000	      1530	80006b3c	00000013	addi	x0,x0,0	  x0:0x00000000
       15325000	      1531	80006b40	a9ec0693	addi	x13,x24,-1378	 x24:0x00000000 x13=0xfffffa9e
       15335000	      1532	80006b44	6948be13	sltiu	x28,x17,1684	 x17:0x00000001 x28=0x00000001
       15345000	      1533	80006b48	29a84b93	xori	x23,x16,666	 x16:0x9b9a0994 x23=0x9b9a0b0e
       15355000	      1534	80006b4c	4187de33	sra	x28,x15,x24	 x15:0x9b9a0994 x24:0x00000000 x28=0x9b9a0994
       15365000	      1535	80006b50	041df663	bgeu	x27,x1,80006b9c	 x27:0x7fff6182  x1:0xb7aee116
       15375000	      1536	80006b54	257a4637	lui	x12,0x257a4	 x12=0x257a4000
       15385000	      1537	80006b58	04b35263	bge	x6,x11,80006b9c	  x6:0x00000000 x11:0x9a099400
       15395000	      1538	00000000	00000013	addi	x0,x0,0	  x0:0x00000000
       15405000	      1539	80006b98	00000013	addi	x0,x0,0	  x0:0x00000000
       15415000	      1540	80006b9c	02ce4a63	blt	x28,x12,80006bd0	 x28:0x9b9a0994 x12:0x257a4000
       15425000	      1541	00000000	00000013	addi	x0,x0,0	  x0:0x00000000
       15435000	      1542	80006bcc	00000013	addi	x0,x0,0	  x0:0x00000000
       15445000	      1543	80006bd0	0098d8b3	srl	x17,x17,x9	 x17:0x00000001  x9:0xe4656816 x17=0x00000000
       15455000	      1544	80006bd4	00000013	addi	x0,x0,0	  x0:0x00000000
       15465000	      1545	80006bd8	0044f6b3	and	x13,x9,x4	  x9:0xe4656816  x4:0x1b9a96b4 x13=0x00000014
       15475000	      1546	80006bdc	004aa083	lw	x1,4(x21)	 x21:0x80009f20  x1=0x8000550c PA:0x80009f24
       15485000	      1547	80006be0	016be2b3	or	x5,x23,x22	 x23:0x9b9a0b0e x22:0x2d0d8000  x5=0xbf9f8b0e
       15495000	      1548	80006be4	0081d9b3	srl	x19,x3,x8	  x3:0xf0000000  x8:0x00000000 x19=0xf0000000
       15505000	      1549	80006be8	002e63b3	or	x7,x28,x2	 x28:0x9b9a0994  x2:0xb7aee122  x7=0xbfbee9b6
       15515000	      1550	80006bec	e592cd37	lui	x26,0xe592c	 x26=0xe592c000
       15525000	      1551	80006bf0	018a8a93	addi	x21,x21,24	 x21:0x80009f20 x21=0x80009f38
       15535000	      1552	80006bf4	40598c33	sub	x24,x19,x5	 x19:0xf0000000  x5:0xbf9f8b0e x24=0x306074f2
       15545000	      1553	80006bf8	401dda33	sra	x20,x27,x1	 x27:0x7fff6182  x1:0x8000550c x20=0x0007fff6
       15555000	      1554	80006bfc	0b23d217	auipc	x4,0xb23d	  x4=0x8b243bf8
       15565000	      1555	80006c00	00f9e3b3	or	x7,x19,x15	 x19:0xf0000000 x15:0x9b9a0994  x7=0xfb9a0994
       15575000	      1556	80006c04	00108593	addi	x11,x1,1	  x1:0x8000550c x11=0x8000550d
       15585000	      1557	80006c08	000585e7	jalr	x11,x11,0	 x11:0x8000550d x11=0x80006c08
       15595000	      1558	00000000	00000013	addi	x0,x0,0	  x0:0x00000000
       15605000	      1559	8000550c	00000013	addi	x0,x0,0	  x0:0x00000000
       15615000	      1560	80005510	00e0f733	and	x14,x1,x14	  x1:0x8000550c x14:0x00000000 x14=0x00000000
       15625000	      1561	80005514	00fd2233	slt	x4,x26,x15	 x26:0xe592c000 x15:0x9b9a0994  x4=0x00000000
       15635000	      1562	80005518	01ad5313	srli	x6,x26,0x1a	 x26:0xe592c000  x6=0x00000039
       15645000	      1563	8000551c	02cfde63	bge	x31,x12,80005558	 x31:0x80009fc4 x12:0x257a4000
       15655000	      1564	80005520	7e87a397	auipc	x7,0x7e87a	  x7=0xfe87f51c
       15665000	      1565	80005524	f9452b13	slti	x22,x10,-108	 x10:0x00000000 x22=0x00000000
       15675000	      1566	80005528	002fde63	bge	x31,x2,80005544	 x31:0x80009fc4  x2:0xb7aee122
       15685000	      1567	8000552c	73f2a597	auipc	x11,0x73f2a	 x11=0xf3f2f528
       15695000	      1568	80005530	05510463	beq	x2,x21,80005578	  x2:0xb7aee122 x21:0x80009f38
       15705000	      1569	80005534	bcb30613	addi	x12,x6,-1077	  x6:0x00000039 x12=0xfffffc04
       15715000	      1570	80005538	0020ec33	or	x24,x1,x2	  x1:0x8000550c  x2:0xb7aee122 x24=0xb7aef52e
       15725000	      1571	8000553c	005302b3	add	x5,x6,x5	  x6:0x00000039  x5:0xbf9f8b0e  x5=0xbf9f8b47
       15735000	      1572	80005540	006d6a63	bltu	x26,x6,80005554	 x26:0xe592c000  x6:0x00000039
       15745000	      1573	80005544	00980633	add	x12,x16,x9	 x16:0x9b9a0994  x9:0xe4656816 x12=0x7fff71aa
       15755000	      1574	80005548	00f1b233	sltu	x4,x3,x15	  x3:0xf0000000 x15:0x9b9a0994  x4=0x00000000
       15765000	      1575	8000554c	02b9cc63	blt	x19,x11,80005584	 x19:0xf0000000 x11:0xf3f2f528
       15775000	      1576	00000000	00000013	addi	x0,x0,0	  x0:0x00000000
       15785000	      1577	80005580	00000013	addi	x0,x0,0	  x0:0x00000000
       15795000	      1578	80005584	40b0d8b3	sra	x17,x1,x11	  x1:0x8000550c x11:0xf3f2f528 x17=0xff800055
       15805000	      1579	80005588	871fed13	ori	x26,x31,-1935	 x31:0x80009fc4 x26=0xfffffff5
       15815000	      1580	8000558c	8f167793	andi	x15,x12,-1807	 x12:0x7fff71aa x15=0x7fff70a0
       15825000	      1581	80005590	fed6b693	sltiu	x13,x13,-19	 x13:0x00000014 x13=0x00000001
       15835000	      1582	80005594	11a46217	auipc	x4,0x11a46	  x4=0x91a4b590
       15845000	      1583	80005598	008bf863	bgeu	x23,x8,800055a8	 x23:0x9b9a0b0e  x8:0x00000000
       15855000	      1584	00000000	00000013	addi	x0,x0,0	  x0:0x00000000
       15865000	      1585	800055a4	00000013	addi	x0,x0,0	  x0:0x00000000
       15875000	      1586	800055a8	2111f013	andi	x0,x3,529	  x3:0xf0000000
       15885000	      1587	800055ac	01ae9613	slli	x12,x29,0x1a	 x29:0x00000000 x12=0x00000000
       15895000	      1588	800055b0	01bd0f33	add	x30,x26,x27	 x26:0xfffffff5 x27:0x7fff6182 x30=0x7fff6177
       15905000	      1589	800055b4	008666b3	or	x13,x12,x8	 x12:0x00000000  x8:0x00000000 x13=0x00000000
       15915000	      1590	800055b8	0137d6b3	srl	x13,x15,x19	 x15:0x7fff70a0 x19:0xf0000000 x13=0x7fff70a0
       15925000	      1591	800055bc	004aa083	lw	x1,4(x21)	 x21:0x80009f38  x1=0x800028dc PA:0x80009f3c
       15935000	      1592	800055c0	c7f42f37	lui	x30,0xc7f42	 x30=0xc7f42000
       15945000	      1593	800055c4	020a8a93	addi	x21,x21,32	 x21:0x80009f38 x21=0x80009f58
       15955000	      1594	800055c8	3c1f0313	addi	x6,x30,961	 x30:0xc7f42000  x6=0xc7f423c1
       15965000	      1595	800055cc	00108a13	addi	x20,x1,1	  x1:0x800028dc x20=0x800028dd
       15975000	      1596	800055d0	000a0a67	jalr	x20,x20,0	 x20:0x800028dd x20=0x800055d0
       15985000	      1597	00000000	00000013	addi	x0,x0,0	  x0:0x00000000
       15995000	      1598	800028dc	00000013	addi	x0,x0,0	  x0:0x00000000
       16005000	      1599	800028e0	41e6d7b3	sra	x15,x13,x30	 x13:0x7fff70a0 x30:0xc7f42000 x15=0x7fff70a0
       16015000	      1600	800028e4	7ef7e413	ori	x8,x15,2031	 x15:0x7fff70a0  x8=0x7fff77ef
       16025000	      1601	800028e8	01e35c93	srli	x25,x6,0x1e	  x6:0xc7f423c1 x25=0x00000003
       16035000	      1602	800028ec	019195b3	sll	x11,x3,x25	  x3:0xf0000000 x25:0x00000003 x11=0x80000000
       16045000	      1603	800028f0	00b48633	add	x12,x9,x11	  x9:0xe4656816 x11:0x80000000 x12=0x64656816
       16055000	      1604	800028f4	d9426e13	ori	x28,x4,-620	  x4:0x91a4b590 x28=0xfffffd94
       16065000	      1605	800028f8	6927aa37	lui	x20,0x6927a	 x20=0x6927a000
       16075000	      1606	800028fc	0160ad33	slt	x26,x1,x22	  x1:0x800028dc x22:0x00000000 x26=0x00000001
       16085000	      1607	80002900	c6ecb393	sltiu	x7,x25,-914	 x25:0x00000003  x7=0x00000001
       16095000	      1608	80002904	45106b17	auipc	x22,0x45106	 x22=0xc5108900
       16105000	      1609	80002908	018d63b3	or	x7,x26,x24	 x26:0x00000001 x24:0xb7aef52e  x7=0xb7aef52f
       16115000	      1610	8000290c	400f8733	sub	x14,x31,x0	 x31:0x80009fc4  x0:0x00000000 x14=0x80009fc4
       16125000	      1611	80002910	41c9d713	srai	x14,x19,0x1c	 x19:0xf0000000 x14=0xffffffff
       16135000	      1612	80002914	75ac7f13	andi	x30,x24,1882	 x24:0xb7aef52e x30=0x0000050a
       16145000	      1613	80002918	00000013	addi	x0,x0,0	  x0:0x00000000
       16155000	      1614	8000291c	01e747b3	xor	x15,x14,x30	 x14:0xffffffff x30:0x0000050a x15=0xfffffaf5
       16165000	      1615	80002920	025f4a63	blt	x30,x5,80002954	 x30:0x0000050a  x5:0xbf9f8b47
       16175000	      1616	80002924	00475333	srl	x6,x14,x4	 x14:0xffffffff  x4:0x91a4b590  x6=0x0000ffff
       16185000	      1617	80002928	40f881b3	sub	x3,x17,x15	 x17:0xff800055 x15:0xfffffaf5  x3=0xff800560
       16195000	      1618	8000292c	000485b3	add	x11,x9,x0	  x9:0xe4656816  x0:0x00000000 x11=0xe4656816
       16205000	      1619	80002930	03cfd063	bge	x31,x28,80002950	 x31:0x80009fc4 x28:0xfffffd94
       16215000	      1620	80002934	01729e63	bne	x5,x23,80002950	  x5:0xbf9f8b47 x23:0x9b9a0b0e
       16225000	      1621	00000000	00000013	addi	x0,x0,0	  x0:0x00000000
       16235000	      1622	8000294c	00000013	addi	x0,x0,0	  x0:0x00000000
       16245000	      1623	80002950	20033313	sltiu	x6,x6,512	  x6:0x0000ffff  x6=0x00000000
       16255000	      1624	80002954	bf196e93	ori	x29,x18,-1039	 x18:0x0000000d x29=0xfffffbfd
       16265000	      1625	80002958	a0664617	auipc	x12,0xa0664	 x12=0x20666954
       16275000	      1626	8000295c	00a44933	xor	x18,x8,x10	  x8:0x7fff77ef x10:0x00000000 x18=0x7fff77ef
       16285000	      1627	80002960	018b5433	srl	x8,x22,x24	 x22:0xc5108900 x24:0xb7aef52e  x8=0x00031442
       16295000	      1628	80002964	10d06593	ori	x11,x0,269	  x0:0x00000000 x11=0x0000010d
       16305000	      1629	80002968	bd517d13	andi	x26,x2,-1067	  x2:0xb7aee122 x26=0xb7aee100
       16315000	      1630	8000296c	12ec7017	auipc	x0,0x12ec7	
       16325000	      1631	80002970	26bbd237	lui	x4,0x26bbd	  x4=0x26bbd000
       16335000	      1632	80002974	000cda63	bge	x25,x0,80002988	 x25:0x00000003  x0:0x00000000
       16345000	      1633	00000000	00000013	addi	x0,x0,0	  x0:0x00000000
       16355000	      1634	80002984	00000013	addi	x0,x0,0	  x0:0x00000000
       16365000	      1635	80002988	416b51b3	sra	x3,x22,x22	 x22:0xc5108900 x22:0xc5108900  x3=0xc5108900
       16375000	      1636	8000298c	89d0b693	sltiu	x13,x1,-1891	  x1:0x800028dc x13=0x00000001
       16385000	      1637	80002990	04635263	bge	x6,x6,800029d4	  x6:0x00000000  x6:0x00000000
       16395000	      1638	00000000	00000013	addi	x0,x0,0	  x0:0x00000000
       16405000	      1639	800029d0	00000013	addi	x0,x0,0	  x0:0x00000000
       16415000	      1640	800029d4	01e30c63	beq	x6,x30,800029ec	  x6:0x00000000 x30:0x0000050a
       16425000	      1641	800029d8	66031eb7	lui	x29,0x66031	 x29=0x66031000
       16435000	      1642	800029dc	0231c663	blt	x3,x3,80002a08	  x3:0xc5108900  x3:0xc5108900
       16445000	      1643	800029e0	01b471b3	and	x3,x8,x27	  x8:0x00031442 x27:0x7fff6182  x3=0x00030002
       16455000	      1644	800029e4	442c80b7	lui	x1,0x442c8	  x1=0x442c8000
       16465000	      1645	800029e8	00e449b3	xor	x19,x8,x14	  x8:0x00031442 x14:0xffffffff x19=0xfffcebbd
       16475000	      1646	800029ec	00000013	addi	x0,x0,0	  x0:0x00000000
       16485000	      1647	800029f0	00e44633	xor	x12,x8,x14	  x8:0x00031442 x14:0xffffffff x12=0xfffcebbd
       16495000	      1648	800029f4	413358b3	sra	x17,x6,x19	  x6:0x00000000 x19:0xfffcebbd x17=0x00000000
       16505000	      1649	800029f8	01ad8c63	beq	x27,x26,80002a10	 x27:0x7fff6182 x26:0xb7aee100
       16515000	      1650	800029fc	009e2d33	slt	x26,x28,x9	 x28:0xfffffd94  x9:0xe4656816 x26=0x00000000
       16525000	      1651	80002a00	69590a13	addi	x20,x18,1685	 x18:0x7fff77ef x20=0x7fff7e84
       16535000	      1652	80002a04	003c1f33	sll	x30,x24,x3	 x24:0xb7aef52e  x3:0x00030002 x30=0xdebbd4b8
       16545000	      1653	80002a08	024e1e97	auipc	x29,0x24e1	 x29=0x824e3a04
       16555000	      1654	80002a0c	03eaee63	bltu	x21,x30,80002a48	 x21:0x80009f58 x30:0xdebbd4b8
       16565000	      1655	00000000	00000013	addi	x0,x0,0	  x0:0x00000000
       16575000	      1656	80002a44	00000013	addi	x0,x0,0	  x0:0x00000000
       16585000	      1657	80002a48	60e5ac13	slti	x24,x11,1550	 x11:0x0000010d x24=0x00000001
       16595000	      1658	80002a4c	01d05833	srl	x16,x0,x29	  x0:0x00000000 x29:0x824e3a04 x16=0x00000000
       16605000	      1659	80002a50	854e2413	slti	x8,x28,-1964	 x28:0xfffffd94  x8=0x00000000
       16615000	      1660	80002a54	906ca693	slti	x13,x25,-1786	 x25:0x00000003 x13=0x00000000
       16625000	      1661	80002a58	02298863	beq	x19,x2,80002a88	 x19:0xfffcebbd  x2:0xb7aee122
       16635000	      1662	80002a5c	00000013	addi	x0,x0,0	  x0:0x00000000
       16645000	      1663	80002a60	65f24f13	xori	x30,x4,1631	  x4:0x26bbd000 x30=0x26bbd65f
       16655000	      1664	80002a64	01a041b3	xor	x3,x0,x26	  x0:0x00000000 x26:0x00000000  x3=0x00000000
       16665000	      1665	80002a68	5cccc913	xori	x18,x25,1484	 x25:0x00000003 x18=0x000005cf
       16675000	      1666	80002a6c	40a002b3	sub	x5,x0,x10	  x0:0x00000000 x10:0x00000000  x5=0x00000000
       16685000	      1667	80002a70	7c69c213	xori	x4,x19,1990	 x19:0xfffcebbd  x4=0xfffcec7b
       16695000	      1668	80002a74	01394663	blt	x18,x19,80002a80	 x18:0x000005cf x19:0xfffcebbd
       16705000	      1669	80002a78	01b9ed33	or	x26,x19,x27	 x19:0xfffcebbd x27:0x7fff6182 x26=0xffffebbf
       16715000	      1670	80002a7c	41a10433	sub	x8,x2,x26	  x2:0xb7aee122 x26:0xffffebbf  x8=0xb7aef563
       16725000	      1671	80002a80	e540ec13	ori	x24,x1,-428	  x1:0x442c8000 x24=0xfffffe54
       16735000	      1672	80002a84	01095b33	srl	x22,x18,x16	 x18:0x000005cf x16:0x00000000 x22=0x000005cf
       16745000	      1673	80002a88	037ec463	blt	x29,x23,80002ab0	 x29:0x824e3a04 x23:0x9b9a0b0e
       16755000	      1674	00000000	00000013	addi	x0,x0,0	  x0:0x00000000
       16765000	      1675	80002aac	00000013	addi	x0,x0,0	  x0:0x00000000
       16775000	      1676	80002ab0	712eeb13	ori	x22,x29,1810	 x29:0x824e3a04 x22=0x824e3f16
       16785000	      1677	80002ab4	d479ec97	auipc	x25,0xd479e	 x25=0x547a0ab0
       16795000	      1678	80002ab8	4188d633	sra	x12,x17,x24	 x17:0x00000000 x24:0xfffffe54 x12=0x00000000
       16805000	      1679	80002abc	03bf4263	blt	x30,x27,80002ae0	 x30:0x26bbd65f x27:0x7fff6182
       16815000	      1680	00000000	00000013	addi	x0,x0,0	  x0:0x00000000
       16825000	      1681	80002adc	00000013	addi	x0,x0,0	  x0:0x00000000
       16835000	      1682	80002ae0	01b40233	add	x4,x8,x27	  x8:0xb7aef563 x27:0x7fff6182  x4=0x37ae56e5
       16845000	      1683	80002ae4	00d6ce63	blt	x13,x13,80002b00	 x13:0x00000000 x13:0x00000000
       16855000	      1684	80002ae8	da4e7f13	andi	x30,x28,-604	 x28:0xfffffd94 x30=0xfffffd84
       16865000	      1685	80002aec	028e9063	bne	x29,x8,80002b0c	 x29:0x824e3a04  x8:0xb7aef563
       16875000	      1686	00000000	00000013	addi	x0,x0,0	  x0:0x00000000
       16885000	      1687	80002b08	00000013	addi	x0,x0,0	  x0:0x00000000
       16895000	      1688	80002b0c	62743e93	sltiu	x29,x8,1575	  x8:0xb7aef563 x29=0x00000000
       16905000	      1689	80002b10	0138ea63	bltu	x17,x19,80002b24	 x17:0x00000000 x19:0xfffcebbd
       16915000	      1690	00000000	00000013	addi	x0,x0,0	  x0:0x00000000
       16925000	      1691	80002b20	00000013	addi	x0,x0,0	  x0:0x00000000
       16935000	      1692	80002b24	01dba2b3	slt	x5,x23,x29	 x23:0x9b9a0b0e x29:0x00000000  x5=0x00000001
       16945000	      1693	80002b28	00000013	addi	x0,x0,0	  x0:0x00000000
       16955000	      1694	80002b2c	7651f697	auipc	x13,0x7651f	 x13=0xf6521b28
       16965000	      1695	80002b30	00bd8933	add	x18,x27,x11	 x27:0x7fff6182 x11:0x0000010d x18=0x7fff628f
       16975000	      1696	80002b34	5335eb93	ori	x23,x11,1331	 x11:0x0000010d x23=0x0000053f
       16985000	      1697	80002b38	21f2b413	sltiu	x8,x5,543	  x5:0x00000001  x8=0x00000001
       16995000	      1698	80002b3c	00006c97	auipc	x25,0x6	 x25=0x80008b38
       17005000	      1699	80002b40	cfbc8c93	addi	x25,x25,-773	 x25:0x80008b38 x25=0x80008833
       17015000	      1700	80002b44	011081b3	add	x3,x1,x17	  x1:0x442c8000 x17:0x00000000  x3=0x442c8000
       17025000	      1701	80002b48	00000013	addi	x0,x0,0	  x0:0x00000000
       17035000	      1702	80002b4c	fe7ccf03	lbu	x30,-25(x25)	 x25:0x80008833 x30=0x00000001 PA:0x8000881a
       17045000	      1703	80002b50	5df8c517	auipc	x10,0x5df8c	 x10=0xddf8eb4c
       17055000	      1704	80002b54	035c9283	lh	x5,53(x25)	 x25:0x80008833  x5=0x00005253 PA:0x80008868
       17065000	      1705	80002b58	01954033	xor	x0,x10,x25	 x10:0xddf8eb4c x25:0x80008833
       17075000	      1706	80002b5c	40f0d933	sra	x18,x1,x15	  x1:0x442c8000 x15:0xfffffaf5 x18=0x00000221
       17085000	      1707	80002b60	07cc8923	sb	x28,114(x25)	 x25:0x80008833 x28:0xfffffd94 PA:0x800088a5
       17095000	      1708	80002b64	402b7d93	andi	x27,x22,1026	 x22:0x824e3f16 x27=0x00000402
       17105000	      1709	80002b68	01e51db3	sll	x27,x10,x30	 x10:0xddf8eb4c x30:0x00000001 x27=0xbbf1d698
       17115000	      1710	80002b6c	017fee33	or	x28,x31,x23	 x31:0x80009fc4 x23:0x0000053f x28=0x80009fff
       17125000	      1711	80002b70	0107d9b3	srl	x19,x15,x16	 x15:0xfffffaf5 x16:0x00000000 x19=0xfffffaf5
       17135000	      1712	80002b74	00dc9fa3	sh	x13,31(x25)	 x25:0x80008833 x13:0xf6521b28 PA:0x80008852
       17145000	      1713	80002b78	416b8333	sub	x6,x23,x22	 x23:0x0000053f x22:0x824e3f16  x6=0x7db1c629
       17155000	      1714	80002b7c	b3196e13	ori	x28,x18,-1231	 x18:0x00000221 x28=0xfffffb31
       17165000	      1715	80002b80	9d5d6893	ori	x17,x26,-1579	 x26:0xffffebbf x17=0xfffffbff
       17175000	      1716	80002b84	016c9a13	slli	x20,x25,0x16	 x25:0x80008833 x20=0x0cc00000
       17185000	      1717	80002b88	019c96a3	sh	x25,13(x25)	 x25:0x80008833 x25:0x80008833 PA:0x80008840
       17195000	      1718	80002b8c	0e2c96a3	sh	x2,237(x25)	 x25:0x80008833  x2:0xb7aee122 PA:0x80008920
       17205000	      1719	80002b90	22696913	ori	x18,x18,550	 x18:0x00000221 x18=0x00000227
       17215000	      1720	80002b94	011203b3	add	x7,x4,x17	  x4:0x37ae56e5 x17:0xfffffbff  x7=0x37ae52e4
       17225000	      1721	80002b98	00d3f7b3	and	x15,x7,x13	  x7:0x37ae52e4 x13:0xf6521b28 x15=0x36021220
       17235000	      1722	80002b9c	b25bb813	sltiu	x16,x23,-1243	 x23:0x0000053f x16=0x00000001
       17245000	      1723	80002ba0	4183d633	sra	x12,x7,x24	  x7:0x37ae52e4 x24:0xfffffe54 x12=0x0000037a
       17255000	      1724	80002ba4	0d4cc383	lbu	x7,212(x25)	 x25:0x80008833  x7=0x000000ec PA:0x80008907
       17265000	      1725	80002ba8	0dccc603	lbu	x12,220(x25)	 x25:0x80008833 x12=0x000000f4 PA:0x8000890f
       17275000	      1726	80002bac	00f046b3	xor	x13,x0,x15	  x0:0x00000000 x15:0x36021220 x13=0x36021220
       17285000	      1727	80002bb0	39ceb637	lui	x12,0x39ceb	 x12=0x39ceb000
       17295000	      1728	80002bb4	006cc403	lbu	x8,6(x25)	 x25:0x80008833  x8=0x00000022 PA:0x80008839
       17305000	      1729	80002bb8	0b0c8023	sb	x16,160(x25)	 x25:0x80008833 x16:0x00000001 PA:0x800088d3
       17315000	      1730	80002bbc	00000013	addi	x0,x0,0	  x0:0x00000000
       17325000	      1731	80002bc0	05dc8023	sb	x29,64(x25)	 x25:0x80008833 x29:0x00000000 PA:0x80008873
       17335000	      1732	80002bc4	05dcce03	lbu	x28,93(x25)	 x25:0x80008833 x28=0x0000007b PA:0x80008890
       17345000	      1733	80002bc8	01771e13	slli	x28,x14,0x17	 x14:0xffffffff x28=0xff800000
       17355000	      1734	80002bcc	007d0833	add	x16,x26,x7	 x26:0xffffebbf  x7:0x000000ec x16=0xffffecab
       17365000	      1735	80002bd0	0171f7b3	and	x15,x3,x23	  x3:0x442c8000 x23:0x0000053f x15=0x00000000
       17375000	      1736	80002bd4	02786263	bltu	x16,x7,80002bf8	 x16:0xffffecab  x7:0x000000ec
       17385000	      1737	80002bd8	01739013	slli	x0,x7,0x17	  x7:0x000000ec
       17395000	      1738	80002bdc	4117d213	srai	x4,x15,0x11	 x15:0x00000000  x4=0x00000000
       17405000	      1739	80002be0	c0a4e493	ori	x9,x9,-1014	  x9:0xe4656816  x9=0xfffffc1e
       17415000	      1740	80002be4	510d1237	lui	x4,0x510d1	  x4=0x510d1000
       17425000	      1741	80002be8	01304bb3	xor	x23,x0,x19	  x0:0x00000000 x19:0xfffffaf5 x23=0xfffffaf5
       17435000	      1742	80002bec	03b09e63	bne	x1,x27,80002c28	  x1:0x442c8000 x27:0xbbf1d698
       17445000	      1743	00000000	00000013	addi	x0,x0,0	  x0:0x00000000
       17455000	      1744	80002c24	00000013	addi	x0,x0,0	  x0:0x00000000
       17465000	      1745	80002c28	eb0ff537	lui	x10,0xeb0ff	 x10=0xeb0ff000
       17475000	      1746	80002c2c	01b18633	add	x12,x3,x27	  x3:0x442c8000 x27:0xbbf1d698 x12=0x001e5698
       17485000	      1747	80002c30	41f083b3	sub	x7,x1,x31	  x1:0x442c8000 x31:0x80009fc4  x7=0xc42be03c
       17495000	      1748	80002c34	b5a17093	andi	x1,x2,-1190	  x2:0xb7aee122  x1=0xb7aee102
       17505000	      1749	80002c38	0295f063	bgeu	x11,x9,80002c58	 x11:0x0000010d  x9:0xfffffc1e
       17515000	      1750	80002c3c	01a8e3b3	or	x7,x17,x26	 x17:0xfffffbff x26:0xffffebbf  x7=0xfffffbff
       17525000	      1751	80002c40	004f7e63	bgeu	x30,x4,80002c5c	 x30:0x00000001  x4:0x510d1000
       17535000	      1752	80002c44	80b9ca13	xori	x20,x19,-2037	 x19:0xfffffaf5 x20=0x000002fe
       17545000	      1753	80002c48	00d726b3	slt	x13,x14,x13	 x14:0xffffffff x13:0x36021220 x13=0x00000001
       17555000	      1754	80002c4c	403ed533	sra	x10,x29,x3	 x29:0x00000000  x3:0x442c8000 x10=0x00000000
       17565000	      1755	80002c50	018072b3	and	x5,x0,x24	  x0:0x00000000 x24:0xfffffe54  x5=0x00000000
       17575000	      1756	80002c54	00000013	addi	x0,x0,0	  x0:0x00000000
       17585000	      1757	80002c58	d573a813	slti	x16,x7,-681	  x7:0xfffffbff x16=0x00000001
       17595000	      1758	80002c5c	40645393	srai	x7,x8,0x6	  x8:0x00000022  x7=0x00000000
       17605000	      1759	80002c60	0145b633	sltu	x12,x11,x20	 x11:0x0000010d x20:0x000002fe x12=0x00000001
       17615000	      1760	80002c64	01a61513	slli	x10,x12,0x1a	 x12:0x00000001 x10=0x04000000
       17625000	      1761	80002c68	41fb8233	sub	x4,x23,x31	 x23:0xfffffaf5 x31:0x80009fc4  x4=0x7fff5b31
       17635000	      1762	80002c6c	57a23c93	sltiu	x25,x4,1402	  x4:0x7fff5b31 x25=0x00000000
       17645000	      1763	80002c70	01866b33	or	x22,x12,x24	 x12:0x00000001 x24:0xfffffe54 x22=0xfffffe55
       17655000	      1764	80002c74	511bb813	sltiu	x16,x23,1297	 x23:0xfffffaf5 x16=0x00000000
       17665000	      1765	80002c78	004aa083	lw	x1,4(x21)	 x21:0x80009f58  x1=0x80006c50 PA:0x80009f5c
       17675000	      1766	80002c7c	87fac897	auipc	x17,0x87fac	 x17=0x07faec78
       17685000	      1767	80002c80	008a8a93	addi	x21,x21,8	 x21:0x80009f58 x21=0x80009f60
       17695000	      1768	80002c84	003252b3	srl	x5,x4,x3	  x4:0x7fff5b31  x3:0x442c8000  x5=0x7fff5b31
       17705000	      1769	80002c88	000c1313	slli	x6,x24,0x0	 x24:0xfffffe54  x6=0xfffffe54
       17715000	      1770	80002c8c	00233433	sltu	x8,x6,x2	  x6:0xfffffe54  x2:0xb7aee122  x8=0x00000000
       17725000	      1771	80002c90	c9d33593	sltiu	x11,x6,-867	  x6:0xfffffe54 x11=0x00000000
       17735000	      1772	80002c94	00108a13	addi	x20,x1,1	  x1:0x80006c50 x20=0x80006c51
       17745000	      1773	80002c98	000a0a67	jalr	x20,x20,0	 x20:0x80006c51 x20=0x80002c98
       17755000	      1774	00000000	00000013	addi	x0,x0,0	  x0:0x00000000
       17765000	      1775	80006c50	00000013	addi	x0,x0,0	  x0:0x00000000
       17775000	      1776	80006c54	ffffd617	auipc	x12,0xffffd	 x12=0x80003c50
       17785000	      1777	80006c58	01460613	addi	x12,x12,20	 x12:0x80003c50 x12=0x80003c64
       17795000	      1778	80006c5c	01c3e2b3	or	x5,x7,x28	  x7:0x00000000 x28:0xff800000  x5=0xff800000
       17805000	      1779	80006c60	01800a33	add	x20,x0,x24	  x0:0x00000000 x24:0xfffffe54 x20=0xfffffe54
       17815000	      1780	80006c64	19760613	addi	x12,x12,407	 x12:0x80003c64 x12=0x80003dfb
       17825000	      1781	80006c68	40fb5093	srai	x1,x22,0xf	 x22:0xfffffe55  x1=0xffffffff
       17835000	      1782	80006c6c	ca383093	sltiu	x1,x16,-861	 x16:0x00000000  x1=0x00000001
       17845000	      1783	80006c70	6df92093	slti	x1,x18,1759	 x18:0x00000227  x1=0x00000001
       17855000	      1784	80006c74	e6a600e7	jalr	x1,x12,-406	 x12:0x80003dfb  x1=0x80006c74
       17865000	      1785	00000000	00000013	addi	x0,x0,0	  x0:0x00000000
       17875000	      1786	80003c64	00000013	addi	x0,x0,0	  x0:0x00000000
       17885000	      1787	80003c68	00a8c233	xor	x4,x17,x10	 x17:0x07faec78 x10:0x04000000  x4=0x03faec78
       17895000	      1788	80003c6c	b104c413	xori	x8,x9,-1264	  x9:0xfffffc1e  x8=0x0000070e
       17905000	      1789	80003c70	0064dc63	bge	x9,x6,80003c88	  x9:0xfffffc1e  x6:0xfffffe54
       17915000	      1790	80003c74	01fe25b3	slt	x11,x28,x31	 x28:0xff800000 x31:0x80009fc4 x11=0x00000000
       17925000	      1791	80003c78	01e63f33	sltu	x30,x12,x30	 x12:0x80003dfb x30:0x00000001 x30=0x00000000
       17935000	      1792	80003c7c	0174d493	srli	x9,x9,0x17	  x9:0xfffffc1e  x9=0x000001ff
       17945000	      1793	80003c80	4929e593	ori	x11,x19,1170	 x19:0xfffffaf5 x11=0xfffffef7
       17955000	      1794	80003c84	00a6a5b3	slt	x11,x13,x10	 x13:0x00000001 x10:0x04000000 x11=0x00000001
       17965000	      1795	80003c88	fe8a8a93	addi	x21,x21,-24	 x21:0x80009f60 x21=0x80009f48
       17975000	      1796	80003c8c	001aa223	sw	x1,4(x21)	 x21:0x80009f48  x1:0x80006c74 PA:0x80009f4c
       17985000	      1797	80003c90	4023d833	sra	x16,x7,x2	  x7:0x00000000  x2:0xb7aee122 x16=0x00000000
       17995000	      1798	80003c94	01a45233	srl	x4,x8,x26	  x8:0x0000070e x26:0xffffebbf  x4=0x00000000
       18005000	      1799	80003c98	01fe56b3	srl	x13,x28,x31	 x28:0xff800000 x31:0x80009fc4 x13=0x0ff80000
       18015000	      1800	80003c9c	017381b3	add	x3,x7,x23	  x7:0x00000000 x23:0xfffffaf5  x3=0xfffffaf5
       18025000	      1801	80003ca0	33032d93	slti	x27,x6,816	  x6:0xfffffe54 x27=0x00000001
       18035000	      1802	80003ca4	b8d34f13	xori	x30,x6,-1139	  x6:0xfffffe54 x30=0x000005d9
       18045000	      1803	80003ca8	41cd0bb3	sub	x23,x26,x28	 x26:0xffffebbf x28:0xff800000 x23=0x007febbf
       18055000	      1804	80003cac	41c90033	sub	x0,x18,x28	 x18:0x00000227 x28:0xff800000
       18065000	      1805	80003cb0	049000ef	jal	x1,80003cb0	  x1=0x80003cb0
       18075000	      1806	00000000	00000013	addi	x0,x0,0	  x0:0x00000000
       18085000	      1807	800044f4	00000013	addi	x0,x0,0	  x0:0x00000000
       18095000	      1808	800044f8	41140b33	sub	x22,x8,x17	  x8:0x0000070e x17:0x07faec78 x22=0xf8051a96
       18105000	      1809	800044fc	ff8a8a93	addi	x21,x21,-8	 x21:0x80009f48 x21=0x80009f40
       18115000	      1810	80004500	001aa223	sw	x1,4(x21)	 x21:0x80009f40  x1:0x80003cb0 PA:0x80009f44
       18125000	      1811	80004504	01fcf8b3	and	x17,x25,x31	 x25:0x00000000 x31:0x80009fc4 x17=0x00000000
       18135000	      1812	80004508	41e28433	sub	x8,x5,x30	  x5:0xff800000 x30:0x000005d9  x8=0xff7ffa27
       18145000	      1813	8000450c	00004917	auipc	x18,0x4	 x18=0x80008508
       18155000	      1814	80004510	62690913	addi	x18,x18,1574	 x18:0x80008508 x18=0x80008b2e
       18165000	      1815	80004514	f29909a3	sb	x9,-205(x18)	 x18:0x80008b2e  x9:0x000001ff PA:0x80008a61
       18175000	      1816	80004518	07390603	lb	x12,115(x18)	 x18:0x80008b2e x12=0xffffff8a PA:0x80008ba1
       18185000	      1817	8000451c	0c691a23	sh	x6,212(x18)	 x18:0x80008b2e  x6:0xfffffe54 PA:0x80008c02
       18195000	      1818	80004520	0062eb33	or	x22,x5,x6	  x5:0xff800000  x6:0xfffffe54 x22=0xfffffe54
       18205000	      1819	80004524	06c90fa3	sb	x12,127(x18)	 x18:0x80008b2e x12:0xffffff8a PA:0x80008bad
       18215000	      1820	80004528	03d92523	sw	x29,42(x18)	 x18:0x80008b2e x29:0x00000000 PA:0x80008b58
       18225000	      1821	8000452c	0f295a03	lhu	x20,242(x18)	 x18:0x80008b2e x20=0x00000a0b PA:0x80008c20
       18235000	      1822	80004530	f10908a3	sb	x16,-239(x18)	 x18:0x80008b2e x16:0x00000000 PA:0x80008a3f
       18245000	      1823	80004534	0f5903a3	sb	x21,231(x18)	 x18:0x80008b2e x21:0x80009f40 PA:0x80008c15
       18255000	      1824	80004538	01a92a03	lw	x20,26(x18)	 x18:0x80008b2e x20=0x30313233 PA:0x80008b48
       18265000	      1825	8000453c	408b8f33	sub	x30,x23,x8	 x23:0x007febbf  x8:0xff7ffa27 x30=0x00fff198
       18275000	      1826	80004540	fbb90e83	lb	x29,-69(x18)	 x18:0x80008b2e x29=0xffffffd2 PA:0x80008ae9
       18285000	      1827	80004544	da60a5b7	lui	x11,0xda60a	 x11=0xda60a000
       18295000	      1828	80004548	f7d90b03	lb	x22,-131(x18)	 x18:0x80008b2e x22=0xffffff90 PA:0x80008aab
       18305000	      1829	8000454c	00a95d83	lhu	x27,10(x18)	 x18:0x80008b2e x27=0x00002223 PA:0x80008b38
       18315000	      1830	80004550	02294203	lbu	x4,34(x18)	 x18:0x80008b2e  x4=0x0000003b PA:0x80008b50
       18325000	      1831	80004554	0ef90783	lb	x15,239(x18)	 x18:0x80008b2e x15=0x00000006 PA:0x80008c1d
       18335000	      1832	80004558	01d91813	slli	x16,x18,0x1d	 x18:0x80008b2e x16=0xc0000000
       18345000	      1833	8000455c	f5692383	lw	x7,-170(x18)	 x18:0x80008b2e  x7=0x6c6d6e6f PA:0x80008a84
       18355000	      1834	80004560	011b2a33	slt	x20,x22,x17	 x22:0xffffff90 x17:0x00000000 x20=0x00000001
       18365000	      1835	80004564	fb890b83	lb	x23,-72(x18)	 x18:0x80008b2e x23=0xffffffcd PA:0x80008ae6
       18375000	      1836	80004568	04292123	sw	x2,66(x18)	 x18:0x80008b2e  x2:0xb7aee122 PA:0x80008b70
       18385000	      1837	8000456c	0d794983	lbu	x19,215(x18)	 x18:0x80008b2e x19=0x000000ee PA:0x80008c05
       18395000	      1838	80004570	01b2e5b3	or	x11,x5,x27	  x5:0xff800000 x27:0x00002223 x11=0xff802223
       18405000	      1839	80004574	00000013	addi	x0,x0,0	  x0:0x00000000
       18415000	      1840	80004578	0a590383	lb	x7,165(x18)	 x18:0x80008b2e  x7=0x00000040 PA:0x80008bd3
       18425000	      1841	8000457c	920fe813	ori	x16,x31,-1760	 x31:0x80009fc4 x16=0xffffffe4
       18435000	      1842	80004580	0aa95b03	lhu	x22,170(x18)	 x18:0x80008b2e x22=0x0000c2c3 PA:0x80008bd8
       18445000	      1843	80004584	f9791123	sh	x23,-126(x18)	 x18:0x80008b2e x23:0xffffffcd PA:0x80008ab0
       18455000	      1844	80004588	f2f94683	lbu	x13,-209(x18)	 x18:0x80008b2e x13=0x00000046 PA:0x80008a5d
       18465000	      1845	8000458c	01262733	slt	x14,x12,x18	 x12:0xffffff8a x18:0x80008b2e x14=0x00000000
       18475000	      1846	80004590	0fe90403	lb	x8,254(x18)	 x18:0x80008b2e  x8=0x00000017 PA:0x80008c2c
       18485000	      1847	80004594	fb895203	lhu	x4,-72(x18)	 x18:0x80008b2e  x4=0x0000cccd PA:0x80008ae6
       18495000	      1848	80004598	fea904a3	sb	x10,-23(x18)	 x18:0x80008b2e x10:0x04000000 PA:0x80008b17
       18505000	      1849	8000459c	00000013	addi	x0,x0,0	  x0:0x00000000
       18515000	      1850	800045a0	f8892723	sw	x8,-114(x18)	 x18:0x80008b2e  x8:0x00000017 PA:0x80008abc
       18525000	      1851	800045a4	ff394e03	lbu	x28,-13(x18)	 x18:0x80008b2e x28=0x0000000a PA:0x80008b21
       18535000	      1852	800045a8	f7b90c83	lb	x25,-133(x18)	 x18:0x80008b2e x25=0xffffff92 PA:0x80008aa9
       18545000	      1853	800045ac	f3a95b03	lhu	x22,-198(x18)	 x18:0x80008b2e x22=0x00005253 PA:0x80008a68
       18555000	      1854	800045b0	0374e063	bltu	x9,x23,800045d0	  x9:0x000001ff x23:0xffffffcd
       18565000	      1855	00000000	00000013	addi	x0,x0,0	  x0:0x00000000
       18575000	      1856	800045cc	00000013	addi	x0,x0,0	  x0:0x00000000
       18585000	      1857	800045d0	00826833	or	x16,x4,x8	  x4:0x0000cccd  x8:0x00000017 x16=0x0000ccdf
       18595000	      1858	800045d4	05421463	bne	x4,x20,8000461c	  x4:0x0000cccd x20:0x00000001
       18605000	      1859	00000000	00000013	addi	x0,x0,0	  x0:0x00000000
       18615000	      1860	80004618	00000013	addi	x0,x0,0	  x0:0x00000000
       18625000	      1861	8000461c	008e68b3	or	x17,x28,x8	 x28:0x0000000a  x8:0x00000017 x17=0x0000001f
       18635000	      1862	80004620	03a39863	bne	x7,x26,80004650	  x7:0x00000040 x26:0xffffebbf
       18645000	      1863	00000000	00000013	addi	x0,x0,0	  x0:0x00000000
       18655000	      1864	8000464c	00000013	addi	x0,x0,0	  x0:0x00000000
       18665000	      1865	80004650	033df263	bgeu	x27,x19,80004674	 x27:0x00002223 x19:0x000000ee
       18675000	      1866	00000000	00000013	addi	x0,x0,0	  x0:0x00000000
       18685000	      1867	80004670	00000013	addi	x0,x0,0	  x0:0x00000000
       18695000	      1868	80004674	05cb7063	bgeu	x22,x28,800046b4	 x22:0x00005253 x28:0x0000000a
       18705000	      1869	00000000	00000013	addi	x0,x0,0	  x0:0x00000000
       18715000	      1870	800046b0	00000013	addi	x0,x0,0	  x0:0x00000000
       18725000	      1871	800046b4	66314313	xori	x6,x2,1635	  x2:0xb7aee122  x6=0xb7aee741
       18735000	      1872	800046b8	02020c63	beq	x4,x0,800046f0	  x4:0x0000cccd  x0:0x00000000
       18745000	      1873	800046bc	031f8c63	beq	x31,x17,800046f4	 x31:0x80009fc4 x17:0x0000001f
       18755000	      1874	800046c0	00040863	beq	x8,x0,800046d0	  x8:0x00000017  x0:0x00000000
       18765000	      1875	800046c4	41b581b3	sub	x3,x11,x27	 x11:0xff802223 x27:0x00002223  x3=0xff800000
       18775000	      1876	800046c8	03fcd263	bge	x25,x31,800046ec	 x25:0xffffff92 x31:0x80009fc4
       18785000	      1877	00000000	00000013	addi	x0,x0,0	  x0:0x00000000
       18795000	      1878	800046e8	00000013	addi	x0,x0,0	  x0:0x00000000
       18805000	      1879	800046ec	f4d24613	xori	x12,x4,-179	  x4:0x0000cccd x12=0xffff3380
       18815000	      1880	800046f0	00c758b3	srl	x17,x14,x12	 x14:0x00000000 x12:0xffff3380 x17=0x00000000
       18825000	      1881	800046f4	055b4463	blt	x22,x21,8000473c	 x22:0x00005253 x21:0x80009f40
       18835000	      1882	800046f8	41f582b3	sub	x5,x11,x31	 x11:0xff802223 x31:0x80009fc4  x5=0x7f7f825f
       18845000	      1883	800046fc	0040fe63	bgeu	x1,x4,80004718	  x1:0x80003cb0  x4:0x0000cccd
       18855000	      1884	00000000	00000013	addi	x0,x0,0	  x0:0x00000000
       18865000	      1885	80004714	00000013	addi	x0,x0,0	  x0:0x00000000
       18875000	      1886	80004718	41be8733	sub	x14,x29,x27	 x29:0xffffffd2 x27:0x00002223 x14=0xffffddaf
       18885000	      1887	8000471c	0097c263	blt	x15,x9,80004720	 x15:0x00000006  x9:0x000001ff
       18895000	      1888	00000000	00000013	addi	x0,x0,0	  x0:0x00000000
       18905000	      1889	8000471c	00000013	addi	x0,x0,0	  x0:0x00000000
       18915000	      1890	80004720	7eec3413	sltiu	x8,x24,2030	 x24:0xfffffe54  x8=0x00000000
       18925000	      1891	80004724	01c94463	blt	x18,x28,8000472c	 x18:0x80008b2e x28:0x0000000a
       18935000	      1892	00000000	00000013	addi	x0,x0,0	  x0:0x00000000
       18945000	      1893	80004728	00000013	addi	x0,x0,0	  x0:0x00000000
       18955000	      1894	8000472c	00c2c263	blt	x5,x12,80004730	  x5:0x7f7f825f x12:0xffff3380
       18965000	      1895	80004730	00000013	addi	x0,x0,0	  x0:0x00000000
       18975000	      1896	80004734	9dd3e993	ori	x19,x7,-1571	  x7:0x00000040 x19=0xfffff9dd
       18985000	      1897	80004738	40b85a13	srai	x20,x16,0xb	 x16:0x0000ccdf x20=0x00000019
       18995000	      1898	8000473c	0177d733	srl	x14,x15,x23	 x15:0x00000006 x23:0xffffffcd x14=0x00000000
       19005000	      1899	80004740	11600063	beq	x0,x22,80004840	  x0:0x00000000 x22:0x00005253
       19015000	      1900	80004744	41848833	sub	x16,x9,x24	  x9:0x000001ff x24:0xfffffe54 x16=0x000003ab
       19025000	      1901	80004748	019749b3	xor	x19,x14,x25	 x14:0x00000000 x25:0xffffff92 x19=0xffffff92
       19035000	      1902	8000474c	f5f7e293	ori	x5,x15,-161	 x15:0x00000006  x5=0xffffff5f
       19045000	      1903	80004750	01ad31b3	sltu	x3,x26,x26	 x26:0xffffebbf x26:0xffffebbf  x3=0x00000000
       19055000	      1904	80004754	820d0293	addi	x5,x26,-2016	 x26:0xffffebbf  x5=0xffffe3df
       19065000	      1905	80004758	016d51b3	srl	x3,x26,x22	 x26:0xffffebbf x22:0x00005253  x3=0x00001fff
       19075000	      1906	8000475c	00ca9333	sll	x6,x21,x12	 x21:0x80009f40 x12:0xffff3380  x6=0x80009f40
       19085000	      1907	80004760	40615513	srai	x10,x2,0x6	  x2:0xb7aee122 x10=0xfedebb84
       19095000	      1908	80004764	018b7033	and	x0,x22,x24	 x22:0x00005253 x24:0xfffffe54
       19105000	      1909	80004768	010d1793	slli	x15,x26,0x10	 x26:0xffffebbf x15=0xebbf0000
       19115000	      1910	8000476c	00a43733	sltu	x14,x8,x10	  x8:0x00000000 x10:0xfedebb84 x14=0x00000001
       19125000	      1911	80004770	012d1e93	slli	x29,x26,0x12	 x26:0xffffebbf x29=0xaefc0000
       19135000	      1912	80004774	002cd463	bge	x25,x2,8000477c	 x25:0xffffff92  x2:0xb7aee122
       19145000	      1913	00000000	00000013	addi	x0,x0,0	  x0:0x00000000
       19155000	      1914	80004778	00000013	addi	x0,x0,0	  x0:0x00000000
       19165000	      1915	8000477c	0f419a63	bne	x3,x20,80004870	  x3:0x00001fff x20:0x00000019
       19175000	      1916	00000000	00000013	addi	x0,x0,0	  x0:0x00000000
       19185000	      1917	8000486c	00000013	addi	x0,x0,0	  x0:0x00000000
       19195000	      1918	80004870	0005c7b3	xor	x15,x11,x0	 x11:0xff802223  x0:0x00000000 x15=0xff802223
       19205000	      1919	80004874	0126d9b3	srl	x19,x13,x18	 x13:0x00000046 x18:0x80008b2e x19=0x00000000
       19215000	      1920	80004878	000f1c63	bne	x30,x0,80004890	 x30:0x00fff198  x0:0x00000000
       19225000	      1921	00000000	00000013	addi	x0,x0,0	  x0:0x00000000
       19235000	      1922	8000488c	00000013	addi	x0,x0,0	  x0:0x00000000
       19245000	      1923	80004890	01738f33	add	x30,x7,x23	  x7:0x00000040 x23:0xffffffcd x30=0x0000000d
       19255000	      1924	80004894	00281263	bne	x16,x2,80004898	 x16:0x000003ab  x2:0xb7aee122
       19265000	      1925	00000000	00000013	addi	x0,x0,0	  x0:0x00000000
       19275000	      1926	80004894	00000013	addi	x0,x0,0	  x0:0x00000000
       19285000	      1927	80004898	10dbf263	bgeu	x23,x13,8000499c	 x23:0xffffffcd x13:0x00000046
       19295000	      1928	00000000	00000013	addi	x0,x0,0	  x0:0x00000000
       19305000	      1929	80004998	00000013	addi	x0,x0,0	  x0:0x00000000
       19315000	      1930	8000499c	4097d9b3	sra	x19,x15,x9	 x15:0xff802223  x9:0x000001ff x19=0xffffffff
       19325000	      1931	800049a0	01df63b3	or	x7,x30,x29	 x30:0x0000000d x29:0xaefc0000  x7=0xaefc000d
       19335000	      1932	800049a4	aea23893	sltiu	x17,x4,-1302	  x4:0x0000cccd x17=0x00000001
       19345000	      1933	800049a8	501e0c37	lui	x24,0x501e0	 x24=0x501e0000
       19355000	      1934	800049ac	7fdea513	slti	x10,x29,2045	 x29:0xaefc0000 x10=0x00000001
       19365000	      1935	800049b0	01459d33	sll	x26,x11,x20	 x11:0xff802223 x20:0x00000019 x26=0x46000000
       19375000	      1936	800049b4	00c934b3	sltu	x9,x18,x12	 x18:0x80008b2e x12:0xffff3380  x9=0x00000001
       19385000	      1937	800049b8	2bc6fe13	andi	x28,x13,700	 x13:0x00000046 x28=0x00000004
       19395000	      1938	800049bc	00ec87b3	add	x15,x25,x14	 x25:0xffffff92 x14:0x00000001 x15=0xffffff93
       19405000	      1939	800049c0	0234f413	andi	x8,x9,35	  x9:0x00000001  x8=0x00000001
       19415000	      1940	800049c4	01f47f33	and	x30,x8,x31	  x8:0x00000001 x31:0x80009fc4 x30=0x00000000
       19425000	      1941	800049c8	02865663	bge	x12,x8,800049f4	 x12:0xffff3380  x8:0x00000001
       19435000	      1942	800049cc	00000013	addi	x0,x0,0	  x0:0x00000000
       19445000	      1943	800049d0	cee24297	auipc	x5,0xcee24	  x5=0x4ee289cc
       19455000	      1944	800049d4	5c72e913	ori	x18,x5,1479	  x5:0x4ee289cc x18=0x4ee28dcf
       19465000	      1945	800049d8	0814c393	xori	x7,x9,129	  x9:0x00000001  x7=0x00000080
       19475000	      1946	800049dc	6debad13	slti	x26,x23,1758	 x23:0xffffffcd x26=0x00000001
       19485000	      1947	800049e0	9fd18017	auipc	x0,0x9fd18	
       19495000	      1948	800049e4	a1d50293	addi	x5,x10,-1507	 x10:0x00000001  x5=0xfffffa1e
       19505000	      1949	800049e8	00b3ad33	slt	x26,x7,x11	  x7:0x00000080 x11:0xff802223 x26=0x00000000
       19515000	      1950	800049ec	417d5833	sra	x16,x26,x23	 x26:0x00000000 x23:0xffffffcd x16=0x00000000
       19525000	      1951	800049f0	00ed1613	slli	x12,x26,0xe	 x26:0x00000000 x12=0x00000000
       19535000	      1952	800049f4	001fd413	srli	x8,x31,0x1	 x31:0x80009fc4  x8=0x40004fe2
       19545000	      1953	800049f8	22a54093	xori	x1,x10,554	 x10:0x00000001  x1=0x0000022b
       19555000	      1954	800049fc	40085833	sra	x16,x16,x0	 x16:0x00000000  x0:0x00000000 x16=0x00000000
       19565000	      1955	80004a00	5e819397	auipc	x7,0x5e819	  x7=0xde81d9fc
       19575000	      1956	80004a04	00e49c33	sll	x24,x9,x14	  x9:0x00000001 x14:0x00000001 x24=0x00000002
       19585000	      1957	80004a08	00000013	addi	x0,x0,0	  x0:0x00000000
       19595000	      1958	80004a0c	407a0693	addi	x13,x20,1031	 x20:0x00000019 x13=0x00000420
       19605000	      1959	80004a10	02a6f463	bgeu	x13,x10,80004a38	 x13:0x00000420 x10:0x00000001
       19615000	      1960	00000000	00000013	addi	x0,x0,0	  x0:0x00000000
       19625000	      1961	80004a34	00000013	addi	x0,x0,0	  x0:0x00000000
       19635000	      1962	80004a38	016bb233	sltu	x4,x23,x22	 x23:0xffffffcd x22:0x00005253  x4=0x00000000
       19645000	      1963	80004a3c	01ce9b33	sll	x22,x29,x28	 x29:0xaefc0000 x28:0x00000004 x22=0xefc00000
       19655000	      1964	80004a40	002ded33	or	x26,x27,x2	 x27:0x00002223  x2:0xb7aee122 x26=0xb7aee323
       19665000	      1965	80004a44	0388cc63	blt	x17,x24,80004a7c	 x17:0x00000001 x24:0x00000002
       19675000	      1966	00000000	00000013	addi	x0,x0,0	  x0:0x00000000
       19685000	      1967	80004a78	00000013	addi	x0,x0,0	  x0:0x00000000
       19695000	      1968	80004a7c	4ffb8d93	addi	x27,x23,1279	 x23:0xffffffcd x27=0x000004cc
       19705000	      1969	80004a80	004b2b33	slt	x22,x22,x4	 x22:0xefc00000  x4:0x00000000 x22=0x00000001
       19715000	      1970	80004a84	c6397293	andi	x5,x18,-925	 x18:0x4ee28dcf  x5=0x4ee28c43
       19725000	      1971	80004a88	41d9dbb3	sra	x23,x19,x29	 x19:0xffffffff x29:0xaefc0000 x23=0xffffffff
       19735000	      1972	80004a8c	02421263	bne	x4,x4,80004ab0	  x4:0x00000000  x4:0x00000000
       19745000	      1973	80004a90	00000013	addi	x0,x0,0	  x0:0x00000000
       19755000	      1974	80004a94	00050c63	beq	x10,x0,80004aac	 x10:0x00000001  x0:0x00000000
       19765000	      1975	80004a98	00b1fbb3	and	x23,x3,x11	  x3:0x00001fff x11:0xff802223 x23=0x00000223
       19775000	      1976	80004a9c	016d8863	beq	x27,x22,80004aac	 x27:0x000004cc x22:0x00000001
       19785000	      1977	80004aa0	00c16933	or	x18,x2,x12	  x2:0xb7aee122 x12:0x00000000 x18=0xb7aee122
       19795000	      1978	80004aa4	04426463	bltu	x4,x4,80004aec	  x4:0x00000000  x4:0x00000000
       19805000	      1979	80004aa8	1de66493	ori	x9,x12,478	 x12:0x00000000  x9=0x000001de
       19815000	      1980	80004aac	00000013	addi	x0,x0,0	  x0:0x00000000
       19825000	      1981	80004ab0	412053b3	sra	x7,x0,x18	  x0:0x00000000 x18:0xb7aee122  x7=0x00000000
       19835000	      1982	80004ab4	00a65693	srli	x13,x12,0xa	 x12:0x00000000 x13=0x00000000
       19845000	      1983	80004ab8	01621533	sll	x10,x4,x22	  x4:0x00000000 x22:0x00000001 x10=0x00000000
       19855000	      1984	80004abc	0003fe63	bgeu	x7,x0,80004ad8	  x7:0x00000000  x0:0x00000000
       19865000	      1985	00000000	00000013	addi	x0,x0,0	  x0:0x00000000
       19875000	      1986	80004ad4	00000013	addi	x0,x0,0	  x0:0x00000000
       19885000	      1987	80004ad8	4172dc93	srai	x25,x5,0x17	  x5:0x4ee28c43 x25=0x0000009d
       19895000	      1988	80004adc	018af8b3	and	x17,x21,x24	 x21:0x80009f40 x24:0x00000002 x17=0x00000000
       19905000	      1989	80004ae0	00db8e63	beq	x23,x13,80004afc	 x23:0x00000223 x13:0x00000000
       19915000	      1990	80004ae4	00e8d013	srli	x0,x17,0xe	 x17:0x00000000
       19925000	      1991	80004ae8	00000013	addi	x0,x0,0	  x0:0x00000000
       19935000	      1992	80004aec	402052b3	sra	x5,x0,x2	  x0:0x00000000  x2:0xb7aee122  x5=0x00000000
       19945000	      1993	80004af0	ec965f37	lui	x30,0xec965	 x30=0xec965000
       19955000	      1994	80004af4	008d3233	sltu	x4,x26,x8	 x26:0xb7aee323  x8:0x40004fe2  x4=0x00000000
       19965000	      1995	80004af8	410d5d33	sra	x26,x26,x16	 x26:0xb7aee323 x16:0x00000000 x26=0xb7aee323
       19975000	      1996	80004afc	1d106613	ori	x12,x0,465	  x0:0x00000000 x12=0x000001d1
       19985000	      1997	80004b00	41eb8933	sub	x18,x23,x30	 x23:0x00000223 x30:0xec965000 x18=0x1369b223
       19995000	      1998	80004b04	e97d3093	sltiu	x1,x26,-361	 x26:0xb7aee323  x1=0x00000001
       20005000	      1999	80004b08	00b5fc33	and	x24,x11,x11	 x11:0xff802223 x11:0xff802223 x24=0xff802223
       20015000	      2000	80004b0c	00bd1793	slli	x15,x26,0xb	 x26:0xb7aee323 x15=0x77191800
       20025000	      2001	80004b10	01b279b3	and	x19,x4,x27	  x4:0x00000000 x27:0x000004cc x19=0x00000000
       20035000	      2002	80004b14	2a4d4293	xori	x5,x26,676	 x26:0xb7aee323  x5=0xb7aee187
       20045000	      2003	80004b18	01651a13	slli	x20,x10,0x16	 x10:0x00000000 x20=0x00000000
       20055000	      2004	80004b1c	00000013	addi	x0,x0,0	  x0:0x00000000
       20065000	      2005	80004b20	01362233	slt	x4,x12,x19	 x12:0x000001d1 x19:0x00000000  x4=0x00000000
       20075000	      2006	80004b24	019d4f33	xor	x30,x26,x25	 x26:0xb7aee323 x25:0x0000009d x30=0xb7aee3be
       20085000	      2007	80004b28	0077f033	and	x0,x15,x7	 x15:0x77191800  x7:0x00000000
       20095000	      2008	80004b2c	0193e263	bltu	x7,x25,80004b30	  x7:0x00000000 x25:0x0000009d
       20105000	      2009	00000000	00000013	addi	x0,x0,0	  x0:0x00000000
       20115000	      2010	80004b2c	00000013	addi	x0,x0,0	  x0:0x00000000
       20125000	      2011	80004b30	419650b3	sra	x1,x12,x25	 x12:0x000001d1 x25:0x0000009d  x1=0x00000000
       20135000	      2012	80004b34	01109463	bne	x1,x17,80004b3c	  x1:0x00000000 x17:0x00000000
       20145000	      2013	80004b38	01741993	slli	x19,x8,0x17	  x8:0x40004fe2 x19=0xf1000000
       20155000	      2014	80004b3c	00000013	addi	x0,x0,0	  x0:0x00000000
       20165000	      2015	80004b40	00b89493	slli	x9,x17,0xb	 x17:0x00000000  x9=0x00000000
       20175000	      2016	80004b44	00000013	addi	x0,x0,0	  x0:0x00000000
       20185000	      2017	80004b48	41f3de13	srai	x28,x7,0x1f	  x7:0x00000000 x28=0x00000000
       20195000	      2018	80004b4c	01ed7833	and	x16,x26,x30	 x26:0xb7aee323 x30:0xb7aee3be x16=0xb7aee322
       20205000	      2019	80004b50	401502b3	sub	x5,x10,x1	 x10:0x00000000  x1:0x00000000  x5=0x00000000
       20215000	      2020	80004b54	000e12b3	sll	x5,x28,x0	 x28:0x00000000  x0:0x00000000  x5=0x00000000
       20225000	      2021	80004b58	00839463	bne	x7,x8,80004b60	  x7:0x00000000  x8:0x40004fe2
       20235000	      2022	00000000	00000013	addi	x0,x0,0	  x0:0x00000000
       20245000	      2023	80004b5c	00000013	addi	x0,x0,0	  x0:0x00000000
       20255000	      2024	80004b60	41855bb3	sra	x23,x10,x24	 x10:0x00000000 x24:0xff802223 x23=0x00000000
       20265000	      2025	80004b64	411d8bb3	sub	x23,x27,x17	 x27:0x000004cc x17:0x00000000 x23=0x000004cc
       20275000	      2026	80004b68	0172c6b3	xor	x13,x5,x23	  x5:0x00000000 x23:0x000004cc x13=0x000004cc
       20285000	      2027	80004b6c	40c5d613	srai	x12,x11,0xc	 x11:0xff802223 x12=0xfffff802
       20295000	      2028	80004b70	00000013	addi	x0,x0,0	  x0:0x00000000
       20305000	      2029	80004b74	53114b97	auipc	x23,0x53114	 x23=0xd3118b70
       20315000	      2030	80004b78	00328863	beq	x5,x3,80004b88	  x5:0x00000000  x3:0x00001fff
       20325000	      2031	80004b7c	01ae9e93	slli	x29,x29,0x1a	 x29:0xaefc0000 x29=0x00000000
       20335000	      2032	80004b80	0100a513	slti	x10,x1,16	  x1:0x00000000 x10=0x00000001
       20345000	      2033	80004b84	00959813	slli	x16,x11,0x9	 x11:0xff802223 x16=0x00444600
       20355000	      2034	80004b88	008e6e63	bltu	x28,x8,80004ba4	 x28:0x00000000  x8:0x40004fe2
       20365000	      2035	00000000	00000013	addi	x0,x0,0	  x0:0x00000000
       20375000	      2036	80004ba0	00000013	addi	x0,x0,0	  x0:0x00000000
       20385000	      2037	80004ba4	02d6f463	bgeu	x13,x13,80004bcc	 x13:0x000004cc x13:0x000004cc
       20395000	      2038	00000000	00000013	addi	x0,x0,0	  x0:0x00000000
       20405000	      2039	80004bc8	00000013	addi	x0,x0,0	  x0:0x00000000
       20415000	      2040	80004bcc	0edf5063	bge	x30,x13,80004cac	 x30:0xb7aee3be x13:0x000004cc
       20425000	      2041	80004bd0	0cef8a63	beq	x31,x14,80004ca4	 x31:0x80009fc4 x14:0x00000001
       20435000	      2042	80004bd4	00004e17	auipc	x28,0x4	 x28=0x80008bd0
       20445000	      2043	80004bd8	fb0e0e13	addi	x28,x28,-80	 x28:0x80008bd0 x28=0x80008b80
       20455000	      2044	80004bdc	347e4983	lbu	x19,839(x28)	 x28:0x80008b80 x19=0x000000ac PA:0x80008ec7
       20465000	      2045	80004be0	2c9e0023	sb	x9,704(x28)	 x28:0x80008b80  x9:0x00000000 PA:0x80008e40
       20475000	      2046	80004be4	cd6e4883	lbu	x17,-810(x28)	 x28:0x80008b80 x17=0x0000003d PA:0x80008856
       20485000	      2047	80004be8	2a5e0503	lb	x10,677(x28)	 x28:0x80008b80 x10=0x0000000e PA:0x80008e25
       20495000	      2048	80004bec	f8de4083	lbu	x1,-115(x28)	 x28:0x80008b80  x1=0x000000f6 PA:0x80008b0d
       20505000	      2049	80004bf0	270e0da3	sb	x16,635(x28)	 x28:0x80008b80 x16:0x00444600 PA:0x80008dfb
       20515000	      2050	80004bf4	402606b3	sub	x13,x12,x2	 x12:0xfffff802  x2:0xb7aee122 x13=0x485116e0
       20525000	      2051	80004bf8	face1c03	lh	x24,-84(x28)	 x28:0x80008b80 x24=0x00001617 PA:0x80008b2c
       20535000	      2052	80004bfc	41305313	srai	x6,x0,0x13	  x0:0x00000000  x6=0x00000000
       20545000	      2053	80004c00	13de4a03	lbu	x20,317(x28)	 x28:0x80008b80 x20=0x000000a6 PA:0x80008cbd
       20555000	      2054	80004c04	1c8e4e83	lbu	x29,456(x28)	 x28:0x80008b80 x29=0x00000033 PA:0x80008d48
       20565000	      2055	80004c08	fe3e4183	lbu	x3,-29(x28)	 x28:0x80008b80  x3=0x00000048 PA:0x80008b63
       20575000	      2056	80004c0c	06ce4783	lbu	x15,108(x28)	 x28:0x80008b80 x15=0x000000d7 PA:0x80008bec
       20585000	      2057	80004c10	01e19e93	slli	x29,x3,0x1e	  x3:0x00000048 x29=0x00000000
       20595000	      2058	80004c14	dbce1c83	lh	x25,-580(x28)	 x28:0x80008b80 x25=0x00002627 PA:0x8000893c
       20605000	      2059	80004c18	dd3e0da3	sb	x19,-549(x28)	 x28:0x80008b80 x19:0x000000ac PA:0x8000895b
       20615000	      2060	80004c1c	40810033	sub	x0,x2,x8	  x2:0xb7aee122  x8:0x40004fe2
       20625000	      2061	80004c20	38f2f293	andi	x5,x5,911	  x5:0x00000000  x5=0x00000000
       20635000	      2062	80004c24	2cef7513	andi	x10,x30,718	 x30:0xb7aee3be x10=0x0000028e
       20645000	      2063	80004c28	c7bbfc13	andi	x24,x23,-901	 x23:0xd3118b70 x24=0xd3118870
       20655000	      2064	80004c2c	01c5d893	srli	x17,x11,0x1c	 x11:0xff802223 x17=0x0000000f
       20665000	      2065	80004c30	d24e4983	lbu	x19,-732(x28)	 x28:0x80008b80 x19=0x0000008f PA:0x800088a4
       20675000	      2066	80004c34	01be4c03	lbu	x24,27(x28)	 x28:0x80008b80 x24=0x00000080 PA:0x80008b9b
       20685000	      2067	80004c38	3e5e4a03	lbu	x20,997(x28)	 x28:0x80008b80 x20=0x0000004e PA:0x80008f65
       20695000	      2068	80004c3c	424e5203	lhu	x4,1060(x28)	 x28:0x80008b80  x4=0x00008e8f PA:0x80008fa4
       20705000	      2069	80004c40	f82e4c03	lbu	x24,-126(x28)	 x28:0x80008b80 x24=0x000000e9 PA:0x80008b02
       20715000	      2070	80004c44	a878e393	ori	x7,x17,-1401	 x17:0x0000000f  x7=0xfffffa8f
       20725000	      2071	80004c48	415e4303	lbu	x6,1045(x28)	 x28:0x80008b80  x6=0x0000007e PA:0x80008f95
       20735000	      2072	80004c4c	36ae5a03	lhu	x20,874(x28)	 x28:0x80008b80 x20=0x0000d0d1 PA:0x80008eea
       20745000	      2073	80004c50	391e2a23	sw	x17,916(x28)	 x28:0x80008b80 x17:0x0000000f PA:0x80008f14
       20755000	      2074	80004c54	f83e0f03	lb	x30,-125(x28)	 x28:0x80008b80 x30=0xffffffe8 PA:0x80008b03
       20765000	      2075	80004c58	00a259b3	srl	x19,x4,x10	  x4:0x00008e8f x10:0x0000028e x19=0x00000002
       20775000	      2076	80004c5c	01f09033	sll	x0,x1,x31	  x1:0x000000f6 x31:0x80009fc4
       20785000	      2077	80004c60	01ee1313	slli	x6,x28,0x1e	 x28:0x80008b80  x6=0x00000000
       20795000	      2078	80004c64	e94e4203	lbu	x4,-364(x28)	 x28:0x80008b80  x4=0x000000ff PA:0x80008a14
       20805000	      2079	80004c68	00ea5213	srli	x4,x20,0xe	 x20:0x0000d0d1  x4=0x00000003
       20815000	      2080	80004c6c	03ae5883	lhu	x17,58(x28)	 x28:0x80008b80 x17=0x0000a0a1 PA:0x80008bba
       20825000	      2081	00000000	00000013	addi	x0,x0,0	  x0:0x00000000
       20835000	      2082	80004c70	8818a593	slti	x11,x17,-1919	 x17:0x0000a0a1 x11=0x00000000
       20845000	      2083	80004c74	01b92933	slt	x18,x18,x27	 x18:0x1369b223 x27:0x000004cc x18=0x00000000
       20855000	      2084	80004c78	3fce2a03	lw	x20,1020(x28)	 x28:0x80008b80 x20=0x64656667 PA:0x80008f7c
       20865000	      2085	80004c7c	001ef3b3	and	x7,x29,x1	 x29:0x00000000  x1:0x000000f6  x7=0x00000000
       20875000	      2086	80004c80	026e1b23	sh	x6,54(x28)	 x28:0x80008b80  x6:0x00000000 PA:0x80008bb6
       20885000	      2087	80004c84	1eee1283	lh	x5,494(x28)	 x28:0x80008b80  x5=0x00005455 PA:0x80008d6e
       20895000	      2088	80004c88	01cc2bb3	slt	x23,x24,x28	 x24:0x000000e9 x28:0x80008b80 x23=0x00000000
       20905000	      2089	80004c8c	0dde0183	lb	x3,221(x28)	 x28:0x80008b80  x3=0x00000046 PA:0x80008c5d
       20915000	      2090	80004c90	01b39713	slli	x14,x7,0x1b	  x7:0x00000000 x14=0x00000000
       20925000	      2091	80004c94	f08b8c17	auipc	x24,0xf08b8	 x24=0x708bcc90
       20935000	      2092	80004c98	00000013	addi	x0,x0,0	  x0:0x00000000
       20945000	      2093	80004c9c	01fa6db3	or	x27,x20,x31	 x20:0x64656667 x31:0x80009fc4 x27=0xe465ffe7
       20955000	      2094	80004ca0	01bee2b3	or	x5,x29,x27	 x29:0x00000000 x27:0xe465ffe7  x5=0xe465ffe7
       20965000	      2095	80004ca4	41c1d433	sra	x8,x3,x28	  x3:0x00000046 x28:0x80008b80  x8=0x00000046
       20975000	      2096	80004ca8	b649ec93	ori	x25,x19,-1180	 x19:0x00000002 x25=0xfffffb66
       20985000	      2097	80004cac	0181d613	srli	x12,x3,0x18	  x3:0x00000046 x12=0x00000000
       20995000	      2098	80004cb0	379c2593	slti	x11,x24,889	 x24:0x708bcc90 x11=0x00000000
       21005000	      2099	80004cb4	0043f7b3	and	x15,x7,x4	  x7:0x00000000  x4:0x00000003 x15=0x00000000
       21015000	      2100	80004cb8	4049dd13	srai	x26,x19,0x4	 x19:0x00000002 x26=0x00000000
       21025000	      2101	80004cbc	d59c7937	lui	x18,0xd59c7	 x18=0xd59c7000
       21035000	      2102	80004cc0	00003e97	auipc	x29,0x3	 x29=0x80007cbc
       21045000	      2103	80004cc4	59de8e93	addi	x29,x29,1437	 x29:0x80007cbc x29=0x80008259
       21055000	      2104	80004cc8	76134693	xori	x13,x6,1889	  x6:0x00000000 x13=0x00000761
       21065000	      2105	80004ccc	2404c937	lui	x18,0x2404c	 x18=0x2404c000
       21075000	      2106	80004cd0	5d256d93	ori	x27,x10,1490	 x10:0x0000028e x27=0x000007de
       21085000	      2107	80004cd4	fd0ecc83	lbu	x25,-48(x29)	 x29:0x80008259 x25=0x000000e2 PA:0x80008229
       21095000	      2108	80004cd8	367c3513	sltiu	x10,x24,871	 x24:0x708bcc90 x10=0x00000000
       21105000	      2109	80004cdc	f9bed183	lhu	x3,-101(x29)	 x29:0x80008259  x3=0x0000aeaf PA:0x800081f4
       21115000	      2110	80004ce0	00581c93	slli	x25,x16,0x5	 x16:0x00444600 x25=0x0888c000
       21125000	      2111	80004ce4	fd8e8b83	lb	x23,-40(x29)	 x29:0x80008259 x23=0xffffffea PA:0x80008231
       21135000	      2112	80004ce8	f2ee8c23	sb	x14,-200(x29)	 x29:0x80008259 x14:0x00000000 PA:0x80008191
       21145000	      2113	80004cec	0bfed403	lhu	x8,191(x29)	 x29:0x80008259  x8=0x0000d2d3 PA:0x80008318
       21155000	      2114	80004cf0	01ce7233	and	x4,x28,x28	 x28:0x80008b80 x28:0x80008b80  x4=0x80008b80
       21165000	      2115	80004cf4	40705413	srai	x8,x0,0x7	  x0:0x00000000  x8=0x00000000
       21175000	      2116	80004cf8	0c52b613	sltiu	x12,x5,197	  x5:0xe465ffe7 x12=0x00000000
       21185000	      2117	80004cfc	fd8e8383	lb	x7,-40(x29)	 x29:0x80008259  x7=0xffffffea PA:0x80008231
       21195000	      2118	80004d00	0e4aa393	slti	x7,x21,228	 x21:0x80009f40  x7=0x00000001
       21205000	      2119	80004d04	0e0e84a3	sb	x0,233(x29)	 x29:0x80008259  x0:0x00000000 PA:0x80008342
       21215000	      2120	80004d08	004e8903	lb	x18,4(x29)	 x29:0x80008259 x18=0x00000016 PA:0x8000825d
       21225000	      2121	80004d0c	01c2ee33	or	x28,x5,x28	  x5:0xe465ffe7 x28:0x80008b80 x28=0xe465ffe7
       21235000	      2122	80004d10	0ffe9b83	lh	x23,255(x29)	 x29:0x80008259 x23=0x00001213 PA:0x80008358
       21245000	      2123	80004d14	f66e8b83	lb	x23,-154(x29)	 x29:0x80008259 x23=0x00000074 PA:0x800081bf
       21255000	      2124	80004d18	4117db93	srai	x23,x15,0x11	 x15:0x00000000 x23=0x00000000
       21265000	      2125	80004d1c	0120c433	xor	x8,x1,x18	  x1:0x000000f6 x18:0x00000016  x8=0x000000e0
       21275000	      2126	80004d20	09ae8883	lb	x17,154(x29)	 x29:0x80008259 x17=0xffffffa8 PA:0x800082f3
       21285000	      2127	80004d24	f99ed183	lhu	x3,-103(x29)	 x29:0x80008259  x3=0x0000a8a9 PA:0x800081f2
       21295000	      2128	80004d28	00000013	addi	x0,x0,0	  x0:0x00000000
       21305000	      2129	80004d2c	00de1f33	sll	x30,x28,x13	 x28:0xe465ffe7 x13:0x00000761 x30=0xc8cbffce
       21315000	      2130	80004d30	32ee1017	auipc	x0,0x32ee1	
       21325000	      2131	80004d34	01594233	xor	x4,x18,x21	 x18:0x00000016 x21:0x80009f40  x4=0x80009f56
       21335000	      2132	80004d38	f92e8603	lb	x12,-110(x29)	 x29:0x80008259 x12=0xffffffa0 PA:0x800081eb
       21345000	      2133	80004d3c	00798b33	add	x22,x19,x7	 x19:0x00000002  x7:0x00000001 x22=0x00000003
       21355000	      2134	80004d40	0e0ec803	lbu	x16,224(x29)	 x29:0x80008259 x16=0x000000f2 PA:0x80008339
       21365000	      2135	80004d44	d269b313	sltiu	x6,x19,-730	 x19:0x00000002  x6=0x00000001
       21375000	      2136	80004d48	fa7e8e23	sb	x7,-68(x29)	 x29:0x80008259  x7:0x00000001 PA:0x80008215
       21385000	      2137	80004d4c	94b46f13	ori	x30,x8,-1717	  x8:0x000000e0 x30=0xfffff9eb
       21395000	      2138	80004d50	01b666b3	or	x13,x12,x27	 x12:0xffffffa0 x27:0x000007de x13=0xfffffffe
       21405000	      2139	80004d54	01d7d533	srl	x10,x15,x29	 x15:0x00000000 x29:0x80008259 x10=0x00000000
       21415000	      2140	80004d58	837ea413	slti	x8,x29,-1993	 x29:0x80008259  x8=0x00000001
       21425000	      2141	80004d5c	009e8323	sb	x9,6(x29)	 x29:0x80008259  x9:0x00000000 PA:0x8000825f
       21435000	      2142	80004d60	fe3ec483	lbu	x9,-29(x29)	 x29:0x80008259  x9=0x000000f7 PA:0x8000823c
       21445000	      2143	80004d64	0c2ec483	lbu	x9,194(x29)	 x29:0x80008259  x9=0x000000d0 PA:0x8000831b
       21455000	      2144	80004d68	ff45b893	sltiu	x17,x11,-12	 x11:0x00000000 x17=0x00000001
       21465000	      2145	80004d6c	002b4933	xor	x18,x22,x2	 x22:0x00000003  x2:0xb7aee122 x18=0xb7aee121
       21475000	      2146	80004d70	bcecaa13	slti	x20,x25,-1074	 x25:0x0888c000 x20=0x00000000
       21485000	      2147	80004d74	05ae8d03	lb	x26,90(x29)	 x29:0x80008259 x26=0x00000068 PA:0x800082b3
       21495000	      2148	80004d78	06aecc83	lbu	x25,106(x29)	 x29:0x80008259 x25=0x00000078 PA:0x800082c3
       21505000	      2149	80004d7c	0e8e8aa3	sb	x8,245(x29)	 x29:0x80008259  x8:0x00000001 PA:0x8000834e
       21515000	      2150	80004d80	044e8d23	sb	x4,90(x29)	 x29:0x80008259  x4:0x80009f56 PA:0x800082b3
       21525000	      2151	80004d84	f52e8d03	lb	x26,-174(x29)	 x29:0x80008259 x26=0x00000060 PA:0x800081ab
       21535000	      2152	80004d88	f9fe8f23	sb	x31,-98(x29)	 x29:0x80008259 x31:0x80009fc4 PA:0x800081f7
       21545000	      2153	80004d8c	f53e9983	lh	x19,-173(x29)	 x29:0x80008259 x19=0x00006667 PA:0x800081ac
       21555000	      2154	80004d90	0047a5b3	slt	x11,x15,x4	 x15:0x00000000  x4:0x80009f56 x11=0x00000000
       21565000	      2155	80004d94	0160b3b3	sltu	x7,x1,x22	  x1:0x000000f6 x22:0x00000003  x7=0x00000000
       21575000	      2156	80004d98	fcbe8e03	lb	x28,-53(x29)	 x29:0x80008259 x28=0xffffffdf PA:0x80008224
       21585000	      2157	80004d9c	077e8523	sb	x23,106(x29)	 x29:0x80008259 x23:0x00000000 PA:0x800082c3
       21595000	      2158	80004da0	01cf43b3	xor	x7,x30,x28	 x30:0xfffff9eb x28:0xffffffdf  x7=0x00000634
       21605000	      2159	80004da4	38a63093	sltiu	x1,x12,906	 x12:0xffffffa0  x1=0x00000000
       21615000	      2160	80004da8	000c6eb3	or	x29,x24,x0	 x24:0x708bcc90  x0:0x00000000 x29=0x708bcc90
       21625000	      2161	80004dac	014e9c33	sll	x24,x29,x20	 x29:0x708bcc90 x20:0x00000000 x24=0x708bcc90
       21635000	      2162	80004db0	2766a413	slti	x8,x13,630	 x13:0xfffffffe  x8=0x00000001
       21645000	      2163	80004db4	0307d263	bge	x15,x16,80004dd8	 x15:0x00000000 x16:0x000000f2
       21655000	      2164	80004db8	31b8b213	sltiu	x4,x17,795	 x17:0x00000001  x4=0x00000001
       21665000	      2165	80004dbc	02961c63	bne	x12,x9,80004df4	 x12:0xffffffa0  x9:0x000000d0
       21675000	      2166	00000000	00000013	addi	x0,x0,0	  x0:0x00000000
       21685000	      2167	80004df0	00000013	addi	x0,x0,0	  x0:0x00000000
       21695000	      2168	80004df4	40b2d1b3	sra	x3,x5,x11	  x5:0xe465ffe7 x11:0x00000000  x3=0xe465ffe7
       21705000	      2169	80004df8	007d1e63	bne	x26,x7,80004e14	 x26:0x00000060  x7:0x00000634
       21715000	      2170	00000000	00000013	addi	x0,x0,0	  x0:0x00000000
       21725000	      2171	80004e10	00000013	addi	x0,x0,0	  x0:0x00000000
       21735000	      2172	80004e14	8e99f397	auipc	x7,0x8e99f	  x7=0x0e9a3e10
       21745000	      2173	80004e18	039f1863	bne	x30,x25,80004e48	 x30:0xfffff9eb x25:0x00000078
       21755000	      2174	00000000	00000013	addi	x0,x0,0	  x0:0x00000000
       21765000	      2175	80004e44	00000013	addi	x0,x0,0	  x0:0x00000000
       21775000	      2176	80004e48	00c5b033	sltu	x0,x11,x12	 x11:0x00000000 x12:0xffffffa0
       21785000	      2177	80004e4c	036d4c63	blt	x26,x22,80004e84	 x26:0x00000060 x22:0x00000003
       21795000	      2178	80004e50	014bf463	bgeu	x23,x20,80004e58	 x23:0x00000000 x20:0x00000000
       21805000	      2179	00000000	00000013	addi	x0,x0,0	  x0:0x00000000
       21815000	      2180	80004e54	00000013	addi	x0,x0,0	  x0:0x00000000
       21825000	      2181	80004e58	5dbefb93	andi	x23,x29,1499	 x29:0x708bcc90 x23=0x00000490
       21835000	      2182	80004e5c	46cc2f37	lui	x30,0x46cc2	 x30=0x46cc2000
       21845000	      2183	80004e60	000716b3	sll	x13,x14,x0	 x14:0x00000000  x0:0x00000000 x13=0x00000000
       21855000	      2184	80004e64	018dd393	srli	x7,x27,0x18	 x27:0x000007de  x7=0x00000000
       21865000	      2185	80004e68	ad348d93	addi	x27,x9,-1325	  x9:0x000000d0 x27=0xfffffba3
       21875000	      2186	80004e6c	008af5b3	and	x11,x21,x8	 x21:0x80009f40  x8:0x00000001 x11=0x00000000
       21885000	      2187	80004e70	01751613	slli	x12,x10,0x17	 x10:0x00000000 x12=0x00000000
       21895000	      2188	80004e74	00cf0c63	beq	x30,x12,80004e8c	 x30:0x46cc2000 x12:0x00000000
       21905000	      2189	80004e78	224af913	andi	x18,x21,548	 x21:0x80009f40 x18=0x00000200
       21915000	      2190	80004e7c	019b5b93	srli	x23,x22,0x19	 x22:0x00000003 x23=0x00000000
       21925000	      2191	80004e80	034d1063	bne	x26,x20,80004ea0	 x26:0x00000060 x20:0x00000000
       21935000	      2192	00000000	00000013	addi	x0,x0,0	  x0:0x00000000
       21945000	      2193	80004e9c	00000013	addi	x0,x0,0	  x0:0x00000000
       21955000	      2194	80004ea0	0073fa33	and	x20,x7,x7	  x7:0x00000000  x7:0x00000000 x20=0x00000000
       21965000	      2195	80004ea4	05e2c863	blt	x5,x30,80004ef4	  x5:0xe465ffe7 x30:0x46cc2000
       21975000	      2196	00000000	00000013	addi	x0,x0,0	  x0:0x00000000
       21985000	      2197	80004ef0	00000013	addi	x0,x0,0	  x0:0x00000000
       21995000	      2198	80004ef4	40a9d313	srai	x6,x19,0xa	 x19:0x00006667  x6=0x00000019
       22005000	      2199	80004ef8	2253ce93	xori	x29,x7,549	  x7:0x00000000 x29=0x00000225
       22015000	      2200	80004efc	012f19b3	sll	x19,x30,x18	 x30:0x46cc2000 x18:0x00000200 x19=0x46cc2000
       22025000	      2201	80004f00	01bf1c93	slli	x25,x30,0x1b	 x30:0x46cc2000 x25=0x00000000
       22035000	      2202	80004f04	41e2d4b3	sra	x9,x5,x30	  x5:0xe465ffe7 x30:0x46cc2000  x9=0xe465ffe7
       22045000	      2203	80004f08	01a00733	add	x14,x0,x26	  x0:0x00000000 x26:0x00000060 x14=0x00000060
       22055000	      2204	80004f0c	05fc0863	beq	x24,x31,80004f5c	 x24:0x708bcc90 x31:0x80009fc4
       22065000	      2205	80004f10	00c79863	bne	x15,x12,80004f20	 x15:0x00000000 x12:0x00000000
       22075000	      2206	80004f14	a0184c13	xori	x24,x16,-1535	 x16:0x000000f2 x24=0xfffffaf3
       22085000	      2207	80004f18	00c594b3	sll	x9,x11,x12	 x11:0x00000000 x12:0x00000000  x9=0x00000000
       22095000	      2208	80004f1c	0018bc33	sltu	x24,x17,x1	 x17:0x00000001  x1:0x00000000 x24=0x00000000
       22105000	      2209	80004f20	0036ae33	slt	x28,x13,x3	 x13:0x00000000  x3:0xe465ffe7 x28=0x00000000
       22115000	      2210	80004f24	3d5467b7	lui	x15,0x3d546	 x15=0x3d546000
       22125000	      2211	80004f28	00797db3	and	x27,x18,x7	 x18:0x00000200  x7:0x00000000 x27=0x00000000
       22135000	      2212	80004f2c	110a1917	auipc	x18,0x110a1	 x18=0x910a5f28
       22145000	      2213	80004f30	0544c063	blt	x9,x20,80004f70	  x9:0x00000000 x20:0x00000000
       22155000	      2214	80004f34	00258a33	add	x20,x11,x2	 x11:0x00000000  x2:0xb7aee122 x20=0xb7aee122
       22165000	      2215	80004f38	03765263	bge	x12,x23,80004f5c	 x12:0x00000000 x23:0x00000000
       22175000	      2216	00000000	00000013	addi	x0,x0,0	  x0:0x00000000
       22185000	      2217	80004f58	00000013	addi	x0,x0,0	  x0:0x00000000
       22195000	      2218	80004f5c	8c2d8f37	lui	x30,0x8c2d8	 x30=0x8c2d8000
       22205000	      2219	80004f60	40178eb3	sub	x29,x15,x1	 x15:0x3d546000  x1:0x00000000 x29=0x3d546000
       22215000	      2220	80004f64	402bdf13	srai	x30,x23,0x2	 x23:0x00000000 x30=0x00000000
       22225000	      2221	80004f68	00a15613	srli	x12,x2,0xa	  x2:0xb7aee122 x12=0x002debb8
       22235000	      2222	80004f6c	01880e33	add	x28,x16,x24	 x16:0x000000f2 x24:0x00000000 x28=0x000000f2
       22245000	      2223	80004f70	00d5f7b3	and	x15,x11,x13	 x11:0x00000000 x13:0x00000000 x15=0x00000000
       22255000	      2224	80004f74	e0e4c397	auipc	x7,0xe0e4c	  x7=0x60e50f70
       22265000	      2225	80004f78	03945663	bge	x8,x25,80004fa4	  x8:0x00000001 x25:0x00000000
       22275000	      2226	00000000	00000013	addi	x0,x0,0	  x0:0x00000000
       22285000	      2227	80004fa0	00000013	addi	x0,x0,0	  x0:0x00000000
       22295000	      2228	80004fa4	03d71463	bne	x14,x29,80004fcc	 x14:0x00000060 x29:0x3d546000
       22305000	      2229	00000000	00000013	addi	x0,x0,0	  x0:0x00000000
       22315000	      2230	80004fc8	00000013	addi	x0,x0,0	  x0:0x00000000
       22325000	      2231	80004fcc	1e7649b7	lui	x19,0x1e764	 x19=0x1e764000
       22335000	      2232	80004fd0	73f28b13	addi	x22,x5,1855	  x5:0xe465ffe7 x22=0xe4660726
       22345000	      2233	80004fd4	01471793	slli	x15,x14,0x14	 x14:0x00000060 x15=0x06000000
       22355000	      2234	80004fd8	00ce2533	slt	x10,x28,x12	 x28:0x000000f2 x12:0x002debb8 x10=0x00000001
       22365000	      2235	80004fdc	02578c63	beq	x15,x5,80005014	 x15:0x06000000  x5:0xe465ffe7
       22375000	      2236	80004fe0	85a52393	slti	x7,x10,-1958	 x10:0x00000001  x7=0x00000000
       22385000	      2237	80004fe4	447f2a13	slti	x20,x30,1095	 x30:0x00000000 x20=0x00000001
       22395000	      2238	80004fe8	4152d333	sra	x6,x5,x21	  x5:0xe465ffe7 x21:0x80009f40  x6=0xe465ffe7
       22405000	      2239	80004fec	00000013	addi	x0,x0,0	  x0:0x00000000
       22415000	      2240	80004ff0	5f960d13	addi	x26,x12,1529	 x12:0x002debb8 x26=0x002df1b1
       22425000	      2241	80004ff4	19126e93	ori	x29,x4,401	  x4:0x00000001 x29=0x00000191
       22435000	      2242	80004ff8	008b23b3	slt	x7,x22,x8	 x22:0xe4660726  x8:0x00000001  x7=0x00000001
       22445000	      2243	80004ffc	007bf233	and	x4,x23,x7	 x23:0x00000000  x7:0x00000001  x4=0x00000000
       22455000	      2244	80005000	41295733	sra	x14,x18,x18	 x18:0x910a5f28 x18:0x910a5f28 x14=0xff910a5f
       22465000	      2245	80005004	4ef08397	auipc	x7,0x4ef08	  x7=0xcef0d000
       22475000	      2246	80005008	fb46a437	lui	x8,0xfb46a	  x8=0xfb46a000
       22485000	      2247	8000500c	00dd54b3	srl	x9,x26,x13	 x26:0x002df1b1 x13:0x00000000  x9=0x002df1b1
       22495000	      2248	80005010	84f72b13	slti	x22,x14,-1969	 x14:0xff910a5f x22=0x00000001
       22505000	      2249	80005014	b9b2c093	xori	x1,x5,-1125	  x5:0xe465ffe7  x1=0x1b9a047c
       22515000	      2250	80005018	011124b3	slt	x9,x2,x17	  x2:0xb7aee122 x17:0x00000001  x9=0x00000001
       22525000	      2251	8000501c	42032f13	slti	x30,x6,1056	  x6:0xe465ffe7 x30=0x00000001
       22535000	      2252	80005020	017d0c63	beq	x26,x23,80005038	 x26:0x002df1b1 x23:0x00000000
       22545000	      2253	80005024	01ffeb33	or	x22,x31,x31	 x31:0x80009fc4 x31:0x80009fc4 x22=0x80009fc4
       22555000	      2254	80005028	bf218393	addi	x7,x3,-1038	  x3:0xe465ffe7  x7=0xe465fbd9
       22565000	      2255	8000502c	01927333	and	x6,x4,x25	  x4:0x00000000 x25:0x00000000  x6=0x00000000
       22575000	      2256	80005030	d88603b7	lui	x7,0xd8860	  x7=0xd8860000
       22585000	      2257	80005034	00000013	addi	x0,x0,0	  x0:0x00000000
       22595000	      2258	80005038	0136f463	bgeu	x13,x19,80005040	 x13:0x00000000 x19:0x1e764000
       22605000	      2259	8000503c	013f5e93	srli	x29,x30,0x13	 x30:0x00000001 x29=0x00000000
       22615000	      2260	80005040	3b4a6497	auipc	x9,0x3b4a6	  x9=0xbb4ab03c
       22625000	      2261	80005044	41323b13	sltiu	x22,x4,1043	  x4:0x00000000 x22=0x00000001
       22635000	      2262	80005048	00cd9463	bne	x27,x12,80005050	 x27:0x00000000 x12:0x002debb8
       22645000	      2263	00000000	00000013	addi	x0,x0,0	  x0:0x00000000
       22655000	      2264	8000504c	00000013	addi	x0,x0,0	  x0:0x00000000
       22665000	      2265	80005050	401b8b33	sub	x22,x23,x1	 x23:0x00000000  x1:0x1b9a047c x22=0xe465fb84
       22675000	      2266	80005054	001815b3	sll	x11,x16,x1	 x16:0x000000f2  x1:0x1b9a047c x11=0x20000000
       22685000	      2267	80005058	00129793	slli	x15,x5,0x1	  x5:0xe465ffe7 x15=0xc8cbffce
       22695000	      2268	8000505c	03a1fc63	bgeu	x3,x26,80005094	  x3:0xe465ffe7 x26:0x002df1b1
       22705000	      2269	00000000	00000013	addi	x0,x0,0	  x0:0x00000000
       22715000	      2270	80005090	00000013	addi	x0,x0,0	  x0:0x00000000
       22725000	      2271	80005094	40dcdc13	srai	x24,x25,0xd	 x25:0x00000000 x24=0x00000000
       22735000	      2272	80005098	00000013	addi	x0,x0,0	  x0:0x00000000
       22745000	      2273	8000509c	6c4df493	andi	x9,x27,1732	 x27:0x00000000  x9=0x00000000
       22755000	      2274	800050a0	e9792813	slti	x16,x18,-361	 x18:0x910a5f28 x16=0x00000001
       22765000	      2275	800050a4	03a64c63	blt	x12,x26,800050dc	 x12:0x002debb8 x26:0x002df1b1
       22775000	      2276	00000000	00000013	addi	x0,x0,0	  x0:0x00000000
       22785000	      2277	800050d8	00000013	addi	x0,x0,0	  x0:0x00000000
       22795000	      2278	800050dc	1541fc93	andi	x25,x3,340	  x3:0xe465ffe7 x25=0x00000144
       22805000	      2279	800050e0	3fce9517	auipc	x10,0x3fce9	 x10=0xbfcee0dc
       22815000	      2280	800050e4	00f53f33	sltu	x30,x10,x15	 x10:0xbfcee0dc x15:0xc8cbffce x30=0x00000001
       22825000	      2281	800050e8	018bee63	bltu	x23,x24,80005104	 x23:0x00000000 x24:0x00000000
       22835000	      2282	800050ec	01a48863	beq	x9,x26,800050fc	  x9:0x00000000 x26:0x002df1b1
       22845000	      2283	800050f0	000e4263	blt	x28,x0,800050f4	 x28:0x000000f2  x0:0x00000000
       22855000	      2284	800050f4	013ad813	srli	x16,x21,0x13	 x21:0x80009f40 x16=0x00001000
       22865000	      2285	800050f8	f1f5cc13	xori	x24,x11,-225	 x11:0x20000000 x24=0xdfffff1f
       22875000	      2286	800050fc	40075a33	sra	x20,x14,x0	 x14:0xff910a5f  x0:0x00000000 x20=0xff910a5f
       22885000	      2287	80005100	009adc63	bge	x21,x9,80005118	 x21:0x80009f40  x9:0x00000000
       22895000	      2288	80005104	e02d6637	lui	x12,0xe02d6	 x12=0xe02d6000
       22905000	      2289	80005108	c133ce93	xori	x29,x7,-1005	  x7:0xd8860000 x29=0x2779fc13
       22915000	      2290	8000510c	031c2793	slti	x15,x24,49	 x24:0xdfffff1f x15=0x00000001
       22925000	      2291	80005110	41515733	sra	x14,x2,x21	  x2:0xb7aee122 x21:0x80009f40 x14=0xb7aee122
       22935000	      2292	80005114	0038a9b3	slt	x19,x17,x3	 x17:0x00000001  x3:0xe465ffe7 x19=0x00000000
       22945000	      2293	80005118	00a9c463	blt	x19,x10,80005120	 x19:0x00000000 x10:0xbfcee0dc
       22955000	      2294	8000511c	f8096513	ori	x10,x18,-128	 x18:0x910a5f28 x10=0xffffffa8
       22965000	      2295	80005120	00f5abb3	slt	x23,x11,x15	 x11:0x20000000 x15:0x00000001 x23=0x00000000
       22975000	      2296	80005124	01f67eb3	and	x29,x12,x31	 x12:0xe02d6000 x31:0x80009fc4 x29=0x80000000
       22985000	      2297	80005128	0129d013	srli	x0,x19,0x12	 x19:0x00000000
       22995000	      2298	8000512c	03caf063	bgeu	x21,x28,8000514c	 x21:0x80009f40 x28:0x000000f2
       23005000	      2299	00000000	00000013	addi	x0,x0,0	  x0:0x00000000
       23015000	      2300	80005148	00000013	addi	x0,x0,0	  x0:0x00000000
       23025000	      2301	8000514c	00e5abb3	slt	x23,x11,x14	 x11:0x20000000 x14:0xb7aee122 x23=0x00000000
       23035000	      2302	80005150	0003cd33	xor	x26,x7,x0	  x7:0xd8860000  x0:0x00000000 x26=0xd8860000
       23045000	      2303	80005154	af678893	addi	x17,x15,-1290	 x15:0x00000001 x17=0xfffffaf7
       23055000	      2304	80005158	89d17f13	andi	x30,x2,-1891	  x2:0xb7aee122 x30=0xb7aee000
       23065000	      2305	8000515c	406e5eb3	sra	x29,x28,x6	 x28:0x000000f2  x6:0x00000000 x29=0x000000f2
       23075000	      2306	80005160	0183d8b3	srl	x17,x7,x24	  x7:0xd8860000 x24:0xdfffff1f x17=0x00000001
       23085000	      2307	80005164	00000013	addi	x0,x0,0	  x0:0x00000000
       23095000	      2308	80005168	fce6fe13	andi	x28,x13,-50	 x13:0x00000000 x28=0x00000000
       23105000	      2309	8000516c	031a5c63	bge	x20,x17,800051a4	 x20:0xff910a5f x17:0x00000001
       23115000	      2310	80005170	010aadb3	slt	x27,x21,x16	 x21:0x80009f40 x16:0x00001000 x27=0x00000001
       23125000	      2311	80005174	0071de63	bge	x3,x7,80005190	  x3:0xe465ffe7  x7:0xd8860000
       23135000	      2312	00000000	00000013	addi	x0,x0,0	  x0:0x00000000
       23145000	      2313	8000518c	00000013	addi	x0,x0,0	  x0:0x00000000
       23155000	      2314	80005190	00904833	xor	x16,x0,x9	  x0:0x00000000  x9:0x00000000 x16=0x00000000
       23165000	      2315	80005194	9623e693	ori	x13,x7,-1694	  x7:0xd8860000 x13=0xfffff962
       23175000	      2316	80005198	02306663	bltu	x0,x3,800051c4	  x0:0x00000000  x3:0xe465ffe7
       23185000	      2317	00000000	00000013	addi	x0,x0,0	  x0:0x00000000
       23195000	      2318	800051c0	00000013	addi	x0,x0,0	  x0:0x00000000
       23205000	      2319	800051c4	01a1ce63	blt	x3,x26,800051e0	  x3:0xe465ffe7 x26:0xd8860000
       23215000	      2320	800051c8	01b30533	add	x10,x6,x27	  x6:0x00000000 x27:0x00000001 x10=0x00000001
       23225000	      2321	800051cc	77fb6893	ori	x17,x22,1919	 x22:0xe465fb84 x17=0xe465ffff
       23235000	      2322	800051d0	a3b23197	auipc	x3,0xa3b23	  x3=0x23b281cc
       23245000	      2323	800051d4	006217b3	sll	x15,x4,x6	  x4:0x00000000  x6:0x00000000 x15=0x00000000
       23255000	      2324	800051d8	00c69093	slli	x1,x13,0xc	 x13:0xfffff962  x1=0xff962000
       23265000	      2325	800051dc	e5208b93	addi	x23,x1,-430	  x1:0xff962000 x23=0xff961e52
       23275000	      2326	800051e0	0211c663	blt	x3,x1,8000520c	  x3:0x23b281cc  x1:0xff962000
       23285000	      2327	800051e4	84a74e93	xori	x29,x14,-1974	 x14:0xb7aee122 x29=0x48511968
       23295000	      2328	800051e8	01d41513	slli	x10,x8,0x1d	  x8:0xfb46a000 x10=0x00000000
       23305000	      2329	800051ec	057df863	bgeu	x27,x23,8000523c	 x27:0x00000001 x23:0xff961e52
       23315000	      2330	800051f0	01667db3	and	x27,x12,x22	 x12:0xe02d6000 x22:0xe465fb84 x27=0xe0256000
       23325000	      2331	800051f4	01876933	or	x18,x14,x24	 x14:0xb7aee122 x24:0xdfffff1f x18=0xffffff3f
       23335000	      2332	800051f8	cbf03213	sltiu	x4,x0,-833	  x0:0x00000000  x4=0x00000001
       23345000	      2333	800051fc	013b1d13	slli	x26,x22,0x13	 x22:0xe465fb84 x26=0xdc200000
       23355000	      2334	80005200	02758863	beq	x11,x7,80005230	 x11:0x20000000  x7:0xd8860000
       23365000	      2335	80005204	001ee1b3	or	x3,x29,x1	 x29:0x48511968  x1:0xff962000  x3=0xffd73968
       23375000	      2336	80005208	014c0863	beq	x24,x20,80005218	 x24:0xdfffff1f x20:0xff910a5f
       23385000	      2337	8000520c	270ec393	xori	x7,x29,624	 x29:0x48511968  x7=0x48511b18
       23395000	      2338	80005210	f3d96b93	ori	x23,x18,-195	 x18:0xffffff3f x23=0xffffff3f
       23405000	      2339	80005214	01da03b3	add	x7,x20,x29	 x20:0xff910a5f x29:0x48511968  x7=0x47e223c7
       23415000	      2340	80005218	00fb0263	beq	x22,x15,8000521c	 x22:0xe465fb84 x15:0x00000000
       23425000	      2341	8000521c	7e876817	auipc	x16,0x7e876	 x16=0xfe87b218
       23435000	      2342	80005220	41215493	srai	x9,x2,0x12	  x2:0xb7aee122  x9=0xffffedeb
       23445000	      2343	80005224	cb933513	sltiu	x10,x6,-839	  x6:0x00000000 x10=0x00000001
       23455000	      2344	80005228	f6cc4493	xori	x9,x24,-148	 x24:0xdfffff1f  x9=0x20000073
       23465000	      2345	8000522c	7823fe13	andi	x28,x7,1922	  x7:0x47e223c7 x28=0x00000382
       23475000	      2346	80005230	114d7893	andi	x17,x26,276	 x26:0xdc200000 x17=0x00000000
       23485000	      2347	80005234	009a1793	slli	x15,x20,0x9	 x20:0xff910a5f x15=0x2214be00
       23495000	      2348	80005238	030c0263	beq	x24,x16,8000525c	 x24:0xdfffff1f x16:0xfe87b218
       23505000	      2349	8000523c	01855c63	bge	x10,x24,80005254	 x10:0x00000001 x24:0xdfffff1f
       23515000	      2350	00000000	00000013	addi	x0,x0,0	  x0:0x00000000
       23525000	      2351	80005250	00000013	addi	x0,x0,0	  x0:0x00000000
       23535000	      2352	80005254	01fadbb3	srl	x23,x21,x31	 x21:0x80009f40 x31:0x80009fc4 x23=0x080009f4
       23545000	      2353	80005258	323d79b7	lui	x19,0x323d7	 x19=0x323d7000
       23555000	      2354	8000525c	d4192413	slti	x8,x18,-703	 x18:0xffffff3f  x8=0x00000000
       23565000	      2355	80005260	c18f8393	addi	x7,x31,-1000	 x31:0x80009fc4  x7=0x80009bdc
       23575000	      2356	80005264	41d9dc93	srai	x25,x19,0x1d	 x19:0x323d7000 x25=0x00000001
       23585000	      2357	80005268	01905f33	srl	x30,x0,x25	  x0:0x00000000 x25:0x00000001 x30=0x00000000
       23595000	      2358	8000526c	008694b3	sll	x9,x13,x8	 x13:0xfffff962  x8:0x00000000  x9=0xfffff962
       23605000	      2359	80005270	d2218017	auipc	x0,0xd2218	
       23615000	      2360	80005274	41ff5b93	srai	x23,x30,0x1f	 x30:0x00000000 x23=0x00000000
       23625000	      2361	80005278	005890b3	sll	x1,x17,x5	 x17:0x00000000  x5:0xe465ffe7  x1=0x00000000
       23635000	      2362	8000527c	b9db3013	sltiu	x0,x22,-1123	 x22:0xe465fb84
       23645000	      2363	80005280	00cbe233	or	x4,x23,x12	 x23:0x00000000 x12:0xe02d6000  x4=0xe02d6000
       23655000	      2364	80005284	01f484b3	add	x9,x9,x31	  x9:0xfffff962 x31:0x80009fc4  x9=0x80009926
       23665000	      2365	80005288	005697b3	sll	x15,x13,x5	 x13:0xfffff962  x5:0xe465ffe7 x15=0xfffcb100
       23675000	      2366	8000528c	49b2ab93	slti	x23,x5,1179	  x5:0xe465ffe7 x23=0x00000001
       23685000	      2367	80005290	00891d93	slli	x27,x18,0x8	 x18:0xffffff3f x27=0xffff3f00
       23695000	      2368	80005294	653e6713	ori	x14,x28,1619	 x28:0x00000382 x14=0x000007d3
       23705000	      2369	80005298	00c55333	srl	x6,x10,x12	 x10:0x00000001 x12:0xe02d6000  x6=0x00000001
       23715000	      2370	8000529c	01f8fcb3	and	x25,x17,x31	 x17:0x00000000 x31:0x80009fc4 x25=0x00000000
       23725000	      2371	800052a0	0574e863	bltu	x9,x23,800052f0	  x9:0x80009926 x23:0x00000001
       23735000	      2372	800052a4	00fb8233	add	x4,x23,x15	 x23:0x00000001 x15:0xfffcb100  x4=0xfffcb101
       23745000	      2373	800052a8	022c9863	bne	x25,x2,800052d8	 x25:0x00000000  x2:0xb7aee122
       23755000	      2374	00000000	00000013	addi	x0,x0,0	  x0:0x00000000
       23765000	      2375	800052d4	00000013	addi	x0,x0,0	  x0:0x00000000
       23775000	      2376	800052d8	6a394513	xori	x10,x18,1699	 x18:0xffffff3f x10=0xfffff99c
       23785000	      2377	800052dc	80b14d13	xori	x26,x2,-2037	  x2:0xb7aee122 x26=0x48511929
       23795000	      2378	800052e0	03487c63	bgeu	x16,x20,80005318	 x16:0xfe87b218 x20:0xff910a5f
       23805000	      2379	800052e4	05afe063	bltu	x31,x26,80005324	 x31:0x80009fc4 x26:0x48511929
       23815000	      2380	800052e8	035b5463	bge	x22,x21,80005310	 x22:0xe465fb84 x21:0x80009f40
       23825000	      2381	00000000	00000013	addi	x0,x0,0	  x0:0x00000000
       23835000	      2382	8000530c	00000013	addi	x0,x0,0	  x0:0x00000000
       23845000	      2383	80005310	cacfc413	xori	x8,x31,-852	 x31:0x80009fc4  x8=0x7fff6368
       23855000	      2384	80005314	00da9733	sll	x14,x21,x13	 x21:0x80009f40 x13:0xfffff962 x14=0x00027d00
       23865000	      2385	80005318	0250da63	bge	x1,x5,8000534c	  x1:0x00000000  x5:0xe465ffe7
       23875000	      2386	00000000	00000013	addi	x0,x0,0	  x0:0x00000000
       23885000	      2387	80005348	00000013	addi	x0,x0,0	  x0:0x00000000
       23895000	      2388	8000534c	00304263	blt	x0,x3,80005350	  x0:0x00000000  x3:0xffd73968
       23905000	      2389	80005350	0141fe33	and	x28,x3,x20	  x3:0xffd73968 x20:0xff910a5f x28=0xff910848
       23915000	      2390	80005354	01ec7b33	and	x22,x24,x30	 x24:0xdfffff1f x30:0x00000000 x22=0x00000000
       23925000	      2391	80005358	06c40413	addi	x8,x8,108	  x8:0x7fff6368  x8=0x7fff63d4
       23935000	      2392	8000535c	417207b3	sub	x15,x4,x23	  x4:0xfffcb101 x23:0x00000001 x15=0xfffcb100
       23945000	      2393	80005360	32a42e13	slti	x28,x8,810	  x8:0x7fff63d4 x28=0x00000000
       23955000	      2394	80005364	02cd6c63	bltu	x26,x12,8000539c	 x26:0x48511929 x12:0xe02d6000
       23965000	      2395	00000000	00000013	addi	x0,x0,0	  x0:0x00000000
       23975000	      2396	80005398	00000013	addi	x0,x0,0	  x0:0x00000000
       23985000	      2397	8000539c	0078e7b3	or	x15,x17,x7	 x17:0x00000000  x7:0x80009bdc x15=0x80009bdc
       23995000	      2398	800053a0	00000013	addi	x0,x0,0	  x0:0x00000000
       24005000	      2399	800053a4	00000013	addi	x0,x0,0	  x0:0x00000000
       24015000	      2400	800053a8	00277933	and	x18,x14,x2	 x14:0x00027d00  x2:0xb7aee122 x18=0x00026100
       24025000	      2401	800053ac	01455e63	bge	x10,x20,800053c8	 x10:0xfffff99c x20:0xff910a5f
       24035000	      2402	00000000	00000013	addi	x0,x0,0	  x0:0x00000000
       24045000	      2403	800053c4	00000013	addi	x0,x0,0	  x0:0x00000000
       24055000	      2404	800053c8	f0b94a13	xori	x20,x18,-245	 x18:0x00026100 x20=0xfffd9e0b
       24065000	      2405	800053cc	01ca9263	bne	x21,x28,800053d0	 x21:0x80009f40 x28:0x00000000
       24075000	      2406	00000000	00000013	addi	x0,x0,0	  x0:0x00000000
       24085000	      2407	800053cc	00000013	addi	x0,x0,0	  x0:0x00000000
       24095000	      2408	800053d0	00449433	sll	x8,x9,x4	  x9:0x80009926  x4:0xfffcb101  x8=0x0001324c
       24105000	      2409	800053d4	004aa083	lw	x1,4(x21)	 x21:0x80009f40  x1=0x80003cb0 PA:0x80009f44
       24115000	      2410	800053d8	008a8a93	addi	x21,x21,8	 x21:0x80009f40 x21=0x80009f48
       24125000	      2411	800053dc	dc430c13	addi	x24,x6,-572	  x6:0x00000001 x24=0xfffffdc5
       24135000	      2412	800053e0	006c6a33	or	x20,x24,x6	 x24:0xfffffdc5  x6:0x00000001 x20=0xfffffdc5
       24145000	      2413	800053e4	ab9f7493	andi	x9,x30,-1351	 x30:0x00000000  x9=0x00000000
       24155000	      2414	800053e8	00108213	addi	x4,x1,1	  x1:0x80003cb0  x4=0x80003cb1
       24165000	      2415	800053ec	00020267	jalr	x4,x4,0	  x4:0x80003cb1  x4=0x800053ec
       24175000	      2416	00000000	00000013	addi	x0,x0,0	  x0:0x00000000
       24185000	      2417	80003cb0	00000013	addi	x0,x0,0	  x0:0x00000000
       24195000	      2418	80003cb4	00005717	auipc	x14,0x5	 x14=0x80008cb0
       24205000	      2419	80003cb8	ee970713	addi	x14,x14,-279	 x14:0x80008cb0 x14=0x80008b99
       24215000	      2420	80003cbc	004575b3	and	x11,x10,x4	 x10:0xfffff99c  x4:0x800053ec x11=0x8000518c
       24225000	      2421	80003cc0	01e9d513	srli	x10,x19,0x1e	 x19:0x323d7000 x10=0x00000000
       24235000	      2422	80003cc4	02d71c83	lh	x25,45(x14)	 x14:0x80008b99 x25=0xffffacad PA:0x80008bc6
       24245000	      2423	80003cc8	fea70223	sb	x10,-28(x14)	 x14:0x80008b99 x10:0x00000000 PA:0x80008b7d
       24255000	      2424	80003ccc	01171ba3	sh	x17,23(x14)	 x14:0x80008b99 x17:0x00000000 PA:0x80008bb0
       24265000	      2425	80003cd0	01270c83	lb	x25,18(x14)	 x14:0x80008b99 x25=0xffffff90 PA:0x80008bab
       24275000	      2426	80003cd4	005b71b3	and	x3,x22,x5	 x22:0x00000000  x5:0xe465ffe7  x3=0x00000000
       24285000	      2427	80003cd8	02d71883	lh	x17,45(x14)	 x14:0x80008b99 x17=0xffffacad PA:0x80008bc6
       24295000	      2428	80003cdc	ff674683	lbu	x13,-10(x14)	 x14:0x80008b99 x13=0x00000074 PA:0x80008b8f
       24305000	      2429	00000000	00000013	addi	x0,x0,0	  x0:0x00000000
       24315000	      2430	80003ce0	fcd75183	lhu	x3,-51(x14)	 x14:0x80008b99  x3=0x00004c4d PA:0x80008b66
       24325000	      2431	80003ce4	01ca35b3	sltu	x11,x20,x28	 x20:0xfffffdc5 x28:0x00000000 x11=0x00000000
       24335000	      2432	80003ce8	fc674d83	lbu	x27,-58(x14)	 x14:0x80008b99 x27=0x00000044 PA:0x80008b5f
       24345000	      2433	80003cec	dc862997	auipc	x19,0xdc862	 x19=0x5c865ce8
       24355000	      2434	80003cf0	fef70683	lb	x13,-17(x14)	 x14:0x80008b99 x13=0x00000073 PA:0x80008b88
       24365000	      2435	80003cf4	ff570823	sb	x21,-16(x14)	 x14:0x80008b99 x21:0x80009f48 PA:0x80008b89
       24375000	      2436	80003cf8	ffe74783	lbu	x15,-2(x14)	 x14:0x80008b99 x15=0x0000007c PA:0x80008b97
       24385000	      2437	80003cfc	00b72503	lw	x10,11(x14)	 x14:0x80008b99 x10=0x8c8d8e8f PA:0x80008ba4
       24395000	      2438	80003d00	02474b83	lbu	x23,36(x14)	 x14:0x80008b99 x23=0x000000a6 PA:0x80008bbd
       24405000	      2439	80003d04	0125c0b3	xor	x1,x11,x18	 x11:0x00000000 x18:0x00026100  x1=0x00026100
       24415000	      2440	80003d08	03e709a3	sb	x30,51(x14)	 x14:0x80008b99 x30:0x00000000 PA:0x80008bcc
       24425000	      2441	80003d0c	00000013	addi	x0,x0,0	  x0:0x00000000
       24435000	      2442	80003d10	24e9a913	slti	x18,x19,590	 x19:0x5c865ce8 x18=0x00000000
       24445000	      2443	80003d14	03070983	lb	x19,48(x14)	 x14:0x80008b99 x19=0xffffffb2 PA:0x80008bc9
       24455000	      2444	80003d18	00000013	addi	x0,x0,0	  x0:0x00000000
       24465000	      2445	80003d1c	00000013	addi	x0,x0,0	  x0:0x00000000
       24475000	      2446	80003d20	019a9cb3	sll	x25,x21,x25	 x21:0x80009f48 x25:0xffffff90 x25=0x9f480000
       24485000	      2447	80003d24	01175383	lhu	x7,17(x14)	 x14:0x80008b99  x7=0x00009091 PA:0x80008baa
       24495000	      2448	80003d28	8a843d93	sltiu	x27,x8,-1880	  x8:0x0001324c x27=0x00000001
       24505000	      2449	80003d2c	ff870803	lb	x16,-8(x14)	 x14:0x80008b99 x16=0x0000007a PA:0x80008b91
       24515000	      2450	80003d30	fce704a3	sb	x14,-55(x14)	 x14:0x80008b99 x14:0x80008b99 PA:0x80008b62
       24525000	      2451	80003d34	01551f33	sll	x30,x10,x21	 x10:0x8c8d8e8f x21:0x80009f48 x30=0x8d8e8f00
       24535000	      2452	80003d38	a6942413	slti	x8,x8,-1431	  x8:0x0001324c  x8=0x00000000
       24545000	      2453	80003d3c	03470683	lb	x13,52(x14)	 x14:0x80008b99 x13=0xffffffb6 PA:0x80008bcd
       24555000	      2454	80003d40	014f3033	sltu	x0,x30,x20	 x30:0x8d8e8f00 x20:0xfffffdc5
       24565000	      2455	80003d44	feb70003	lb	x0,-21(x14)	 x14:0x80008b99 PA:0x80008b84
       24575000	      2456	80003d48	41795c93	srai	x25,x18,0x17	 x18:0x00000000 x25=0x00000000
       24585000	      2457	80003d4c	00f958b3	srl	x17,x18,x15	 x18:0x00000000 x15:0x0000007c x17=0x00000000
       24595000	      2458	80003d50	fee70123	sb	x14,-30(x14)	 x14:0x80008b99 x14:0x80008b99 PA:0x80008b7b
       24605000	      2459	80003d54	03371da3	sh	x19,59(x14)	 x14:0x80008b99 x19:0xffffffb2 PA:0x80008bd4
       24615000	      2460	80003d58	01205413	srli	x8,x0,0x12	  x0:0x00000000  x8=0x00000000
       24625000	      2461	80003d5c	40c9d313	srai	x6,x19,0xc	 x19:0xffffffb2  x6=0xffffffff
       24635000	      2462	80003d60	fc171aa3	sh	x1,-43(x14)	 x14:0x80008b99  x1:0x00026100 PA:0x80008b6e
       24645000	      2463	80003d64	00370e03	lb	x28,3(x14)	 x14:0x80008b99 x28=0xffffff87 PA:0x80008b9c
       24655000	      2464	80003d68	01f78263	beq	x15,x31,80003d6c	 x15:0x0000007c x31:0x80009fc4
       24665000	      2465	80003d6c	41935a33	sra	x20,x6,x25	  x6:0xffffffff x25:0x00000000 x20=0xffffffff
       24675000	      2466	80003d70	40d78833	sub	x16,x15,x13	 x15:0x0000007c x13:0xffffffb6 x16=0x000000c6
       24685000	      2467	80003d74	022ef663	bgeu	x29,x2,80003da0	 x29:0x48511968  x2:0xb7aee122
       24695000	      2468	80003d78	8b2e6b13	ori	x22,x28,-1870	 x28:0xffffff87 x22=0xffffffb7
       24705000	      2469	80003d7c	5bc20793	addi	x15,x4,1468	  x4:0x800053ec x15=0x800059a8
       24715000	      2470	80003d80	01937b33	and	x22,x6,x25	  x6:0xffffffff x25:0x00000000 x22=0x00000000
       24725000	      2471	80003d84	40135413	srai	x8,x6,0x1	  x6:0xffffffff  x8=0xffffffff
       24735000	      2472	80003d88	38bf2493	slti	x9,x30,907	 x30:0x8d8e8f00  x9=0x00000001
       24745000	      2473	80003d8c	01a6d6b3	srl	x13,x13,x26	 x13:0xffffffb6 x26:0x48511929 x13=0x007fffff
       24755000	      2474	80003d90	003bdd33	srl	x26,x23,x3	 x23:0x000000a6  x3:0x00004c4d x26=0x00000000
       24765000	      2475	80003d94	8d742413	slti	x8,x8,-1833	  x8:0xffffffff  x8=0x00000000
       24775000	      2476	80003d98	41fc5e93	srai	x29,x24,0x1f	 x24:0xfffffdc5 x29=0xffffffff
       24785000	      2477	80003d9c	a3360713	addi	x14,x12,-1485	 x12:0xe02d6000 x14=0xe02d5a33
       24795000	      2478	80003da0	01365c93	srli	x25,x12,0x13	 x12:0xe02d6000 x25=0x00001c05
       24805000	      2479	80003da4	0072db13	srli	x22,x5,0x7	  x5:0xe465ffe7 x22=0x01c8cbff
       24815000	      2480	80003da8	0193b2b3	sltu	x5,x7,x25	  x7:0x00009091 x25:0x00001c05  x5=0x00000000
       24825000	      2481	80003dac	015b6533	or	x10,x22,x21	 x22:0x01c8cbff x21:0x80009f48 x10=0x81c8dfff
       24835000	      2482	80003db0	04a35863	bge	x6,x10,80003e00	  x6:0xffffffff x10:0x81c8dfff
       24845000	      2483	00000000	00000013	addi	x0,x0,0	  x0:0x00000000
       24855000	      2484	80003dfc	00000013	addi	x0,x0,0	  x0:0x00000000
       24865000	      2485	80003e00	018e9c63	bne	x29,x24,80003e18	 x29:0xffffffff x24:0xfffffdc5
       24875000	      2486	00000000	00000013	addi	x0,x0,0	  x0:0x00000000
       24885000	      2487	80003e14	00000013	addi	x0,x0,0	  x0:0x00000000
       24895000	      2488	80003e18	f46eb513	sltiu	x10,x29,-186	 x29:0xffffffff x10=0x00000000
       24905000	      2489	80003e1c	4fd9a793	slti	x15,x19,1277	 x19:0xffffffb2 x15=0x00000001
       24915000	      2490	80003e20	a2f70413	addi	x8,x14,-1489	 x14:0xe02d5a33  x8=0xe02d5462
       24925000	      2491	80003e24	05994663	blt	x18,x25,80003e70	 x18:0x00000000 x25:0x00001c05
       24935000	      2492	00000000	00000013	addi	x0,x0,0	  x0:0x00000000
       24945000	      2493	80003e6c	00000013	addi	x0,x0,0	  x0:0x00000000
       24955000	      2494	80003e70	100e8063	beq	x29,x0,80003f70	 x29:0xffffffff  x0:0x00000000
       24965000	      2495	80003e74	00879793	slli	x15,x15,0x8	 x15:0x00000001 x15=0x00000100
       24975000	      2496	80003e78	011b1a33	sll	x20,x22,x17	 x22:0x01c8cbff x17:0x00000000 x20=0x01c8cbff
       24985000	      2497	80003e7c	00bf8f33	add	x30,x31,x11	 x31:0x80009fc4 x11:0x00000000 x30=0x80009fc4
       24995000	      2498	80003e80	10c28663	beq	x5,x12,80003f8c	  x5:0x00000000 x12:0xe02d6000
       25005000	      2499	80003e84	b0380813	addi	x16,x16,-1277	 x16:0x000000c6 x16=0xfffffbc9
       25015000	      2500	80003e88	668e0613	addi	x12,x28,1640	 x28:0xffffff87 x12=0x000005ef
       25025000	      2501	80003e8c	d6374b13	xori	x22,x14,-669	 x14:0xe02d5a33 x22=0x1fd2a750
       25035000	      2502	80003e90	0dc39a63	bne	x7,x28,80003f64	  x7:0x00009091 x28:0xffffff87
       25045000	      2503	00000000	00000013	addi	x0,x0,0	  x0:0x00000000
       25055000	      2504	80003f60	00000013	addi	x0,x0,0	  x0:0x00000000
       25065000	      2505	80003f64	05b7f863	bgeu	x15,x27,80003fb4	 x15:0x00000100 x27:0x00000001
       25075000	      2506	00000000	00000013	addi	x0,x0,0	  x0:0x00000000
       25085000	      2507	80003fb0	00000013	addi	x0,x0,0	  x0:0x00000000
       25095000	      2508	80003fb4	40220633	sub	x12,x4,x2	  x4:0x800053ec  x2:0xb7aee122 x12=0xc85172ca
       25105000	      2509	80003fb8	00000013	addi	x0,x0,0	  x0:0x00000000
       25115000	      2510	80003fbc	01da5e13	srli	x28,x20,0x1d	 x20:0x01c8cbff x28=0x00000000
       25125000	      2511	80003fc0	0582f063	bgeu	x5,x24,80004000	  x5:0x00000000 x24:0xfffffdc5
       25135000	      2512	80003fc4	00569e93	slli	x29,x13,0x5	 x13:0x007fffff x29=0x0fffffe0
       25145000	      2513	80003fc8	0039cdb3	xor	x27,x19,x3	 x19:0xffffffb2  x3:0x00004c4d x27=0xffffb3ff
       25155000	      2514	80003fcc	014b71b3	and	x3,x22,x20	 x22:0x1fd2a750 x20:0x01c8cbff  x3=0x01c08350
       25165000	      2515	80003fd0	0047de63	bge	x15,x4,80003fec	 x15:0x00000100  x4:0x800053ec
       25175000	      2516	00000000	00000013	addi	x0,x0,0	  x0:0x00000000
       25185000	      2517	80003fe8	00000013	addi	x0,x0,0	  x0:0x00000000
       25195000	      2518	80003fec	40275b33	sra	x22,x14,x2	 x14:0xe02d5a33  x2:0xb7aee122 x22=0xf80b568c
       25205000	      2519	80003ff0	96774993	xori	x19,x14,-1689	 x14:0xe02d5a33 x19=0x1fd2a354
       25215000	      2520	80003ff4	01fbc433	xor	x8,x23,x31	 x23:0x000000a6 x31:0x80009fc4  x8=0x80009f62
       25225000	      2521	80003ff8	410580b3	sub	x1,x11,x16	 x11:0x00000000 x16:0xfffffbc9  x1=0x00000437
       25235000	      2522	80003ffc	90aa8093	addi	x1,x21,-1782	 x21:0x80009f48  x1=0x80009852
       25245000	      2523	80004000	01a04463	blt	x0,x26,80004008	  x0:0x00000000 x26:0x00000000
       25255000	      2524	80004004	41fad0b3	sra	x1,x21,x31	 x21:0x80009f48 x31:0x80009fc4  x1=0xf80009f4
       25265000	      2525	80004008	01e747b3	xor	x15,x14,x30	 x14:0xe02d5a33 x30:0x80009fc4 x15=0x602dc5f7
       25275000	      2526	8000400c	e5c44f17	auipc	x30,0xe5c44	 x30=0x65c48008
       25285000	      2527	80004010	014a8863	beq	x21,x20,80004020	 x21:0x80009f48 x20:0x01c8cbff
       25295000	      2528	80004014	011ba4b3	slt	x9,x23,x17	 x23:0x000000a6 x17:0x00000000  x9=0x00000000
       25305000	      2529	80004018	1e4dad93	slti	x27,x27,484	 x27:0xffffb3ff x27=0x00000001
       25315000	      2530	8000401c	03348063	beq	x9,x19,8000403c	  x9:0x00000000 x19:0x1fd2a354
       25325000	      2531	80004020	039b8e63	beq	x23,x25,8000405c	 x23:0x000000a6 x25:0x00001c05
       25335000	      2532	80004024	8eb81937	lui	x18,0x8eb81	 x18=0x8eb81000
       25345000	      2533	80004028	01b1f9b3	and	x19,x3,x27	  x3:0x01c08350 x27:0x00000001 x19=0x00000000
       25355000	      2534	8000402c	00889833	sll	x16,x17,x8	 x17:0x00000000  x8:0x80009f62 x16=0x00000000
       25365000	      2535	80004030	01421533	sll	x10,x4,x20	  x4:0x800053ec x20:0x01c8cbff x10=0x00000000
       25375000	      2536	80004034	04461063	bne	x12,x4,80004074	 x12:0xc85172ca  x4:0x800053ec
       25385000	      2537	00000000	00000013	addi	x0,x0,0	  x0:0x00000000
       25395000	      2538	80004070	00000013	addi	x0,x0,0	  x0:0x00000000
       25405000	      2539	80004074	0000fa63	bgeu	x1,x0,80004088	  x1:0xf80009f4  x0:0x00000000
       25415000	      2540	00000000	00000013	addi	x0,x0,0	  x0:0x00000000
       25425000	      2541	80004084	00000013	addi	x0,x0,0	  x0:0x00000000
       25435000	      2542	80004088	0194e433	or	x8,x9,x25	  x9:0x00000000 x25:0x00001c05  x8=0x00001c05
       25445000	      2543	8000408c	01398733	add	x14,x19,x19	 x19:0x00000000 x19:0x00000000 x14=0x00000000
       25455000	      2544	80004090	41bf54b3	sra	x9,x30,x27	 x30:0x65c48008 x27:0x00000001  x9=0x32e24004
       25465000	      2545	80004094	01514e63	blt	x2,x21,800040b0	  x2:0xb7aee122 x21:0x80009f48
       25475000	      2546	80004098	02064263	blt	x12,x0,800040bc	 x12:0xc85172ca  x0:0x00000000
       25485000	      2547	00000000	00000013	addi	x0,x0,0	  x0:0x00000000
       25495000	      2548	800040b8	00000013	addi	x0,x0,0	  x0:0x00000000
       25505000	      2549	800040bc	65e5b413	sltiu	x8,x11,1630	 x11:0x00000000  x8=0x00000001
       25515000	      2550	800040c0	010592b3	sll	x5,x11,x16	 x11:0x00000000 x16:0x00000000  x5=0x00000000
       25525000	      2551	800040c4	fdc52b13	slti	x22,x10,-36	 x10:0x00000000 x22=0x00000000
       25535000	      2552	800040c8	01c5ce33	xor	x28,x11,x28	 x11:0x00000000 x28:0x00000000 x28=0x00000000
       25545000	      2553	800040cc	4108ddb3	sra	x27,x17,x16	 x17:0x00000000 x16:0x00000000 x27=0x00000000
       25555000	      2554	800040d0	00711463	bne	x2,x7,800040d8	  x2:0xb7aee122  x7:0x00009091
       25565000	      2555	00000000	00000013	addi	x0,x0,0	  x0:0x00000000
       25575000	      2556	800040d4	00000013	addi	x0,x0,0	  x0:0x00000000
       25585000	      2557	800040d8	01ea8863	beq	x21,x30,800040e8	 x21:0x80009f48 x30:0x65c48008
       25595000	      2558	800040dc	008fd033	srl	x0,x31,x8	 x31:0x80009fc4  x8:0x00000001
       25605000	      2559	800040e0	008d9a63	bne	x27,x8,800040f4	 x27:0x00000000  x8:0x00000001
       25615000	      2560	00000000	00000013	addi	x0,x0,0	  x0:0x00000000
       25625000	      2561	800040f0	00000013	addi	x0,x0,0	  x0:0x00000000
       25635000	      2562	800040f4	02ab0c13	addi	x24,x22,42	 x22:0x00000000 x24=0x0000002a
       25645000	      2563	800040f8	01cef433	and	x8,x29,x28	 x29:0x0fffffe0 x28:0x00000000  x8=0x00000000
       25655000	      2564	800040fc	03eaf063	bgeu	x21,x30,8000411c	 x21:0x80009f48 x30:0x65c48008
       25665000	      2565	00000000	00000013	addi	x0,x0,0	  x0:0x00000000
       25675000	      2566	80004118	00000013	addi	x0,x0,0	  x0:0x00000000
       25685000	      2567	8000411c	0050be33	sltu	x28,x1,x5	  x1:0xf80009f4  x5:0x00000000 x28=0x00000000
       25695000	      2568	80004120	08080e63	beq	x16,x0,800041bc	 x16:0x00000000  x0:0x00000000
       25705000	      2569	00000000	00000013	addi	x0,x0,0	  x0:0x00000000
       25715000	      2570	800041b8	00000013	addi	x0,x0,0	  x0:0x00000000
       25725000	      2571	800041bc	0168dc13	srli	x24,x17,0x16	 x17:0x00000000 x24=0x00000000
       25735000	      2572	800041c0	43966413	ori	x8,x12,1081	 x12:0xc85172ca  x8=0xc85176fb
       25745000	      2573	800041c4	009b96b3	sll	x13,x23,x9	 x23:0x000000a6  x9:0x32e24004 x13=0x00000a60
       25755000	      2574	800041c8	41b0de33	sra	x28,x1,x27	  x1:0xf80009f4 x27:0x00000000 x28=0xf80009f4
       25765000	      2575	800041cc	00f207b3	add	x15,x4,x15	  x4:0x800053ec x15:0x602dc5f7 x15=0xe02e19e3
       25775000	      2576	800041d0	01788333	add	x6,x17,x23	 x17:0x00000000 x23:0x000000a6  x6=0x000000a6
       25785000	      2577	800041d4	e8d00893	addi	x17,x0,-371	  x0:0x00000000 x17=0xfffffe8d
       25795000	      2578	800041d8	001e2eb3	slt	x29,x28,x1	 x28:0xf80009f4  x1:0xf80009f4 x29=0x00000000
       25805000	      2579	800041dc	01919393	slli	x7,x3,0x19	  x3:0x01c08350  x7=0xa0000000
       25815000	      2580	800041e0	053f6663	bltu	x30,x19,8000422c	 x30:0x65c48008 x19:0x00000000
       25825000	      2581	800041e4	0174d3b3	srl	x7,x9,x23	  x9:0x32e24004 x23:0x000000a6  x7=0x00cb8900
       25835000	      2582	800041e8	015aaeb3	slt	x29,x21,x21	 x21:0x80009f48 x21:0x80009f48 x29=0x00000000
       25845000	      2583	800041ec	a6096593	ori	x11,x18,-1440	 x18:0x8eb81000 x11=0xfffffa60
       25855000	      2584	800041f0	02cae263	bltu	x21,x12,80004214	 x21:0x80009f48 x12:0xc85172ca
       25865000	      2585	00000000	00000013	addi	x0,x0,0	  x0:0x00000000
       25875000	      2586	80004210	00000013	addi	x0,x0,0	  x0:0x00000000
       25885000	      2587	80004214	002a9613	slli	x12,x21,0x2	 x21:0x80009f48 x12=0x00027d20
       25895000	      2588	80004218	011a9b13	slli	x22,x21,0x11	 x21:0x80009f48 x22=0x3e900000
       25905000	      2589	8000421c	17e98e93	addi	x29,x19,382	 x19:0x00000000 x29=0x0000017e
       25915000	      2590	80004220	f04b6513	ori	x10,x22,-252	 x22:0x3e900000 x10=0xffffff04
       25925000	      2591	80004224	ba9c2593	slti	x11,x24,-1111	 x24:0x00000000 x11=0x00000000
       25935000	      2592	80004228	71dcce93	xori	x29,x25,1821	 x25:0x00001c05 x29=0x00001b18
       25945000	      2593	8000422c	b910ab13	slti	x22,x1,-1135	  x1:0xf80009f4 x22=0x00000001
       25955000	      2594	80004230	01577d33	and	x26,x14,x21	 x14:0x00000000 x21:0x80009f48 x26=0x00000000
       25965000	      2595	80004234	003049b3	xor	x19,x0,x3	  x0:0x00000000  x3:0x01c08350 x19=0x01c08350
       25975000	      2596	80004238	b3e98593	addi	x11,x19,-1218	 x19:0x01c08350 x11=0x01c07e8e
       25985000	      2597	8000423c	016751b3	srl	x3,x14,x22	 x14:0x00000000 x22:0x00000001  x3=0x00000000
       25995000	      2598	80004240	01ef0463	beq	x30,x30,80004248	 x30:0x65c48008 x30:0x65c48008
       26005000	      2599	00000000	00000013	addi	x0,x0,0	  x0:0x00000000
       26015000	      2600	80004244	00000013	addi	x0,x0,0	  x0:0x00000000
       26025000	      2601	80004248	7bd93013	sltiu	x0,x18,1981	 x18:0x8eb81000
       26035000	      2602	8000424c	014944b3	xor	x9,x18,x20	 x18:0x8eb81000 x20:0x01c8cbff  x9=0x8f70dbff
       26045000	      2603	80004250	01db7db3	and	x27,x22,x29	 x22:0x00000001 x29:0x00001b18 x27=0x00000000
       26055000	      2604	80004254	8cd0c413	xori	x8,x1,-1843	  x1:0xf80009f4  x8=0x07fff139
       26065000	      2605	80004258	002950b3	srl	x1,x18,x2	 x18:0x8eb81000  x2:0xb7aee122  x1=0x23ae0400
       26075000	      2606	8000425c	ca262293	slti	x5,x12,-862	 x12:0x00027d20  x5=0x00000000
       26085000	      2607	80004260	0032cb33	xor	x22,x5,x3	  x5:0x00000000  x3:0x00000000 x22=0x00000000
       26095000	      2608	80004264	007df8b3	and	x17,x27,x7	 x27:0x00000000  x7:0x00cb8900 x17=0x00000000
       26105000	      2609	80004268	3906b293	sltiu	x5,x13,912	 x13:0x00000a60  x5=0x00000000
       26115000	      2610	8000426c	00159263	bne	x11,x1,80004270	 x11:0x01c07e8e  x1:0x23ae0400
       26125000	      2611	00000000	00000013	addi	x0,x0,0	  x0:0x00000000
       26135000	      2612	8000426c	00000013	addi	x0,x0,0	  x0:0x00000000
       26145000	      2613	80004270	0127ebb3	or	x23,x15,x18	 x15:0xe02e19e3 x18:0x8eb81000 x23=0xeebe19e3
       26155000	      2614	80004274	00e30863	beq	x6,x14,80004284	  x6:0x000000a6 x14:0x00000000
       26165000	      2615	80004278	abf50b37	lui	x22,0xabf50	 x22=0xabf50000
       26175000	      2616	8000427c	03346c63	bltu	x8,x19,800042b4	  x8:0x07fff139 x19:0x01c08350
       26185000	      2617	80004280	01d4d0b3	srl	x1,x9,x29	  x9:0x8f70dbff x29:0x00001b18  x1=0x0000008f
       26195000	      2618	80004284	01b916b3	sll	x13,x18,x27	 x18:0x8eb81000 x27:0x00000000 x13=0x8eb81000
       26205000	      2619	80004288	00a8bdb3	sltu	x27,x17,x10	 x17:0x00000000 x10:0xffffff04 x27=0x00000001
       26215000	      2620	8000428c	cc6c3d13	sltiu	x26,x24,-826	 x24:0x00000000 x26=0x00000001
       26225000	      2621	80004290	017028b3	slt	x17,x0,x23	  x0:0x00000000 x23:0xeebe19e3 x17=0x00000000
       26235000	      2622	80004294	00bfa833	slt	x16,x31,x11	 x31:0x80009fc4 x11:0x01c07e8e x16=0x00000001
       26245000	      2623	80004298	019511b3	sll	x3,x10,x25	 x10:0xffffff04 x25:0x00001c05  x3=0xffffe080
       26255000	      2624	8000429c	01040c63	beq	x8,x16,800042b4	  x8:0x07fff139 x16:0x00000001
       26265000	      2625	800042a0	01dd21b3	slt	x3,x26,x29	 x26:0x00000001 x29:0x00001b18  x3=0x00000001
       26275000	      2626	800042a4	d5226037	lui	x0,0xd5226	
       26285000	      2627	800042a8	b3a0bd93	sltiu	x27,x1,-1222	  x1:0x0000008f x27=0x00000001
       26295000	      2628	800042ac	0184a533	slt	x10,x9,x24	  x9:0x8f70dbff x24:0x00000000 x10=0x00000001
       26305000	      2629	800042b0	014ad613	srli	x12,x21,0x14	 x21:0x80009f48 x12=0x00000800
       26315000	      2630	800042b4	0173eeb3	or	x29,x7,x23	  x7:0x00cb8900 x23:0xeebe19e3 x29=0xeeff99e3
       26325000	      2631	800042b8	00fd20b3	slt	x1,x26,x15	 x26:0x00000001 x15:0xe02e19e3  x1=0x00000000
       26335000	      2632	800042bc	01aac8b3	xor	x17,x21,x26	 x21:0x80009f48 x26:0x00000001 x17=0x80009f49
       26345000	      2633	800042c0	4026d613	srai	x12,x13,0x2	 x13:0x8eb81000 x12=0xe3ae0400
       26355000	      2634	800042c4	653f7393	andi	x7,x30,1619	 x30:0x65c48008  x7=0x00000000
       26365000	      2635	800042c8	41b75a33	sra	x20,x14,x27	 x14:0x00000000 x27:0x00000001 x20=0x00000000
       26375000	      2636	800042cc	05299663	bne	x19,x18,80004318	 x19:0x01c08350 x18:0x8eb81000
       26385000	      2637	00000000	00000013	addi	x0,x0,0	  x0:0x00000000
       26395000	      2638	80004314	00000013	addi	x0,x0,0	  x0:0x00000000
       26405000	      2639	80004318	02eaa413	slti	x8,x21,46	 x21:0x80009f48  x8=0x00000001
       26415000	      2640	8000431c	ed6f9eb7	lui	x29,0xed6f9	 x29=0xed6f9000
       26425000	      2641	80004320	01f2ce63	blt	x5,x31,8000433c	  x5:0x00000000 x31:0x80009fc4
       26435000	      2642	80004324	0047ceb3	xor	x29,x15,x4	 x15:0xe02e19e3  x4:0x800053ec x29=0x602e4a0f
       26445000	      2643	80004328	294a8513	addi	x10,x21,660	 x21:0x80009f48 x10=0x8000a1dc
       26455000	      2644	8000432c	02ea1e63	bne	x20,x14,80004368	 x20:0x00000000 x14:0x00000000
       26465000	      2645	80004330	64b84c13	xori	x24,x16,1611	 x16:0x00000001 x24=0x0000064a
       26475000	      2646	80004334	416dd613	srai	x12,x27,0x16	 x27:0x00000001 x12=0x00000000
       26485000	      2647	80004338	0231f663	bgeu	x3,x3,80004364	  x3:0x00000001  x3:0x00000001
       26495000	      2648	00000000	00000013	addi	x0,x0,0	  x0:0x00000000
       26505000	      2649	80004360	00000013	addi	x0,x0,0	  x0:0x00000000
       26515000	      2650	80004364	008afc63	bgeu	x21,x8,8000437c	 x21:0x80009f48  x8:0x00000001
       26525000	      2651	00000000	00000013	addi	x0,x0,0	  x0:0x00000000
       26535000	      2652	80004378	00000013	addi	x0,x0,0	  x0:0x00000000
       26545000	      2653	8000437c	0137c3b3	xor	x7,x15,x19	 x15:0xe02e19e3 x19:0x01c08350  x7=0xe1ee9ab3
       26555000	      2654	80004380	41a8d393	srai	x7,x17,0x1a	 x17:0x80009f49  x7=0xffffffe0
       26565000	      2655	80004384	00000013	addi	x0,x0,0	  x0:0x00000000
       26575000	      2656	80004388	7af83293	sltiu	x5,x16,1967	 x16:0x00000001  x5=0x00000001
       26585000	      2657	8000438c	41115093	srai	x1,x2,0x11	  x2:0xb7aee122  x1=0xffffdbd7
       26595000	      2658	80004390	011e5e93	srli	x29,x28,0x11	 x28:0xf80009f4 x29=0x00007c00
       26605000	      2659	80004394	04945863	bge	x8,x9,800043e4	  x8:0x00000001  x9:0x8f70dbff
       26615000	      2660	00000000	00000013	addi	x0,x0,0	  x0:0x00000000
       26625000	      2661	800043e0	00000013	addi	x0,x0,0	  x0:0x00000000
       26635000	      2662	800043e4	013e13b3	sll	x7,x28,x19	 x28:0xf80009f4 x19:0x01c08350  x7=0x09f40000
       26645000	      2663	800043e8	41f65e13	srai	x28,x12,0x1f	 x12:0x00000000 x28=0x00000000
       26655000	      2664	800043ec	5f8cb313	sltiu	x6,x25,1528	 x25:0x00001c05  x6=0x00000000
       26665000	      2665	800043f0	4fa83b13	sltiu	x22,x16,1274	 x16:0x00000001 x22=0x00000001
       26675000	      2666	800043f4	0083b933	sltu	x18,x7,x8	  x7:0x09f40000  x8:0x00000001 x18=0x00000000
       26685000	      2667	800043f8	05901863	bne	x0,x25,80004448	  x0:0x00000000 x25:0x00001c05
       26695000	      2668	00000000	00000013	addi	x0,x0,0	  x0:0x00000000
       26705000	      2669	80004444	00000013	addi	x0,x0,0	  x0:0x00000000
       26715000	      2670	80004448	3dc9f393	andi	x7,x19,988	 x19:0x01c08350  x7=0x00000350
       26725000	      2671	8000444c	0175a7b3	slt	x15,x11,x23	 x11:0x01c07e8e x23:0xeebe19e3 x15=0x00000000
       26735000	      2672	80004450	006701b3	add	x3,x14,x6	 x14:0x00000000  x6:0x00000000  x3=0x00000000
       26745000	      2673	80004454	01101cb3	sll	x25,x0,x17	  x0:0x00000000 x17:0x80009f49 x25=0x00000000
       26755000	      2674	80004458	4e262013	slti	x0,x12,1250	 x12:0x00000000
       26765000	      2675	8000445c	0078ac33	slt	x24,x17,x7	 x17:0x80009f49  x7:0x00000350 x24=0x00000001
       26775000	      2676	80004460	07a2c063	blt	x5,x26,800044c0	  x5:0x00000001 x26:0x00000001
       26785000	      2677	80004464	b63aad93	slti	x27,x21,-1181	 x21:0x80009f48 x27=0x00000001
       26795000	      2678	80004468	44617793	andi	x15,x2,1094	  x2:0xb7aee122 x15=0x00000002
       26805000	      2679	8000446c	013e5393	srli	x7,x28,0x13	 x28:0x00000000  x7=0x00000000
       26815000	      2680	80004470	006ec2b3	xor	x5,x29,x6	 x29:0x00007c00  x6:0x00000000  x5=0x00007c00
       26825000	      2681	80004474	00000013	addi	x0,x0,0	  x0:0x00000000
       26835000	      2682	80004478	9911b993	sltiu	x19,x3,-1647	  x3:0x00000000 x19=0x00000001
       26845000	      2683	8000447c	3d657993	andi	x19,x10,982	 x10:0x8000a1dc x19=0x000001d4
       26855000	      2684	80004480	a5e12793	slti	x15,x2,-1442	  x2:0xb7aee122 x15=0x00000001
       26865000	      2685	80004484	29876c37	lui	x24,0x29876	 x24=0x29876000
       26875000	      2686	80004488	013ed333	srl	x6,x29,x19	 x29:0x00007c00 x19:0x000001d4  x6=0x00000000
       26885000	      2687	8000448c	00d95593	srli	x11,x18,0xd	 x18:0x00000000 x11=0x00000000
       26895000	      2688	80004490	fffff517	auipc	x10,0xfffff	 x10=0x8000348c
       26905000	      2689	80004494	80c50513	addi	x10,x10,-2036	 x10:0x8000348c x10=0x80002c98
       26915000	      2690	80004498	31950513	addi	x10,x10,793	 x10:0x80002c98 x10=0x80002fb1
       26925000	      2691	8000449c	41755393	srai	x7,x10,0x17	 x10:0x80002fb1  x7=0xffffff00
       26935000	      2692	800044a0	00f09b33	sll	x22,x1,x15	  x1:0xffffdbd7 x15:0x00000001 x22=0xffffb7ae
       26945000	      2693	800044a4	ce8500e7	jalr	x1,x10,-792	 x10:0x80002fb1  x1=0x800044a4
       26955000	      2694	00000000	00000013	addi	x0,x0,0	  x0:0x00000000
       26965000	      2695	80002c98	00000013	addi	x0,x0,0	  x0:0x00000000
       26975000	      2696	80002c9c	01bef1b3	and	x3,x29,x27	 x29:0x00007c00 x27:0x00000001  x3=0x00000000
       26985000	      2697	80002ca0	fcca8a93	addi	x21,x21,-52	 x21:0x80009f48 x21=0x80009f14
       26995000	      2698	80002ca4	00771db3	sll	x27,x14,x7	 x14:0x00000000  x7:0xffffff00 x27=0x00000000
       27005000	      2699	80002ca8	0000c533	xor	x10,x1,x0	  x1:0x800044a4  x0:0x00000000 x10=0x800044a4
       27015000	      2700	80002cac	001aa223	sw	x1,4(x21)	 x21:0x80009f14  x1:0x800044a4 PA:0x80009f18
       27025000	      2701	80002cb0	0112d2b3	srl	x5,x5,x17	  x5:0x00007c00 x17:0x80009f49  x5=0x0000003e
       27035000	      2702	80002cb4	40945493	srai	x9,x8,0x9	  x8:0x00000001  x9=0x00000000
       27045000	      2703	80002cb8	405fd6b3	sra	x13,x31,x5	 x31:0x80009fc4  x5:0x0000003e x13=0xfffffffe
       27055000	      2704	80002cbc	b7bc8213	addi	x4,x25,-1157	 x25:0x00000000  x4=0xfffffb7b
       27065000	      2705	80002cc0	012f1263	bne	x30,x18,80002cc4	 x30:0x65c48008 x18:0x00000000
       27075000	      2706	00000000	00000013	addi	x0,x0,0	  x0:0x00000000
       27085000	      2707	80002cc0	00000013	addi	x0,x0,0	  x0:0x00000000
       27095000	      2708	80002cc4	01f996b3	sll	x13,x19,x31	 x19:0x000001d4 x31:0x80009fc4 x13=0x00001d40
       27105000	      2709	80002cc8	401e57b3	sra	x15,x28,x1	 x28:0x00000000  x1:0x800044a4 x15=0x00000000
       27115000	      2710	80002ccc	9d6de493	ori	x9,x27,-1578	 x27:0x00000000  x9=0xfffff9d6
       27125000	      2711	80002cd0	0040e263	bltu	x1,x4,80002cd4	  x1:0x800044a4  x4:0xfffffb7b
       27135000	      2712	00000000	00000013	addi	x0,x0,0	  x0:0x00000000
       27145000	      2713	80002cd0	00000013	addi	x0,x0,0	  x0:0x00000000
       27155000	      2714	80002cd4	005f9733	sll	x14,x31,x5	 x31:0x80009fc4  x5:0x0000003e x14=0x00000000
       27165000	      2715	80002cd8	e2564597	auipc	x11,0xe2564	 x11=0x62566cd4
       27175000	      2716	80002cdc	000a3d33	sltu	x26,x20,x0	 x20:0x00000000  x0:0x00000000 x26=0x00000000
       27185000	      2717	80002ce0	4235e793	ori	x15,x11,1059	 x11:0x62566cd4 x15=0x62566cf7
       27195000	      2718	80002ce4	00f9f933	and	x18,x19,x15	 x19:0x000001d4 x15:0x62566cf7 x18=0x000000d4
       27205000	      2719	80002ce8	014bdeb3	srl	x29,x23,x20	 x23:0xeebe19e3 x20:0x00000000 x29=0xeebe19e3
       27215000	      2720	80002cec	00a4f333	and	x6,x9,x10	  x9:0xfffff9d6 x10:0x800044a4  x6=0x80004084
       27225000	      2721	80002cf0	43f54193	xori	x3,x10,1087	 x10:0x800044a4  x3=0x8000409b
       27235000	      2722	80002cf4	01d212b3	sll	x5,x4,x29	  x4:0xfffffb7b x29:0xeebe19e3  x5=0xffffdbd8
       27245000	      2723	80002cf8	41225733	sra	x14,x4,x18	  x4:0xfffffb7b x18:0x000000d4 x14=0xffffffff
       27255000	      2724	80002cfc	03d51c63	bne	x10,x29,80002d34	 x10:0x800044a4 x29:0xeebe19e3
       27265000	      2725	00000000	00000013	addi	x0,x0,0	  x0:0x00000000
       27275000	      2726	80002d30	00000013	addi	x0,x0,0	  x0:0x00000000
       27285000	      2727	80002d34	006e2333	slt	x6,x28,x6	 x28:0x00000000  x6:0x80004084  x6=0x00000000
       27295000	      2728	80002d38	00001793	slli	x15,x0,0x0	  x0:0x00000000 x15=0x00000000
       27305000	      2729	80002d3c	015ad1b3	srl	x3,x21,x21	 x21:0x80009f14 x21:0x80009f14  x3=0x00000800
       27315000	      2730	80002d40	406b5913	srai	x18,x22,0x6	 x22:0xffffb7ae x18=0xfffffede
       27325000	      2731	80002d44	03821c63	bne	x4,x24,80002d7c	  x4:0xfffffb7b x24:0x29876000
       27335000	      2732	00000000	00000013	addi	x0,x0,0	  x0:0x00000000
       27345000	      2733	80002d78	00000013	addi	x0,x0,0	  x0:0x00000000
       27355000	      2734	80002d7c	00ae4733	xor	x14,x28,x10	 x28:0x00000000 x10:0x800044a4 x14=0x800044a4
       27365000	      2735	80002d80	00558433	add	x8,x11,x5	 x11:0x62566cd4  x5:0xffffdbd8  x8=0x625648ac
       27375000	      2736	80002d84	56c23513	sltiu	x10,x4,1388	  x4:0xfffffb7b x10=0x00000000
       27385000	      2737	80002d88	004aa083	lw	x1,4(x21)	 x21:0x80009f14  x1=0x800044a4 PA:0x80009f18
       27395000	      2738	80002d8c	034a8a93	addi	x21,x21,52	 x21:0x80009f14 x21=0x80009f48
       27405000	      2739	80002d90	01cd56b3	srl	x13,x26,x28	 x26:0x00000000 x28:0x00000000 x13=0x00000000
       27415000	      2740	80002d94	0136ba33	sltu	x20,x13,x19	 x13:0x00000000 x19:0x000001d4 x20=0x00000001
       27425000	      2741	80002d98	00dca6b3	slt	x13,x25,x13	 x25:0x00000000 x13:0x00000000 x13=0x00000000
       27435000	      2742	80002d9c	007b66b3	or	x13,x22,x7	 x22:0xffffb7ae  x7:0xffffff00 x13=0xffffffae
       27445000	      2743	80002da0	c3c8f593	andi	x11,x17,-964	 x17:0x80009f49 x11=0x80009c08
       27455000	      2744	80002da4	40d581b3	sub	x3,x11,x13	 x11:0x80009c08 x13:0xffffffae  x3=0x80009c5a
       27465000	      2745	80002da8	00008313	addi	x6,x1,0	  x1:0x800044a4  x6=0x800044a4
       27475000	      2746	80002dac	00030367	jalr	x6,x6,0	  x6:0x800044a4  x6=0x80002dac
       27485000	      2747	00000000	00000013	addi	x0,x0,0	  x0:0x00000000
       27495000	      2748	800044a4	00000013	addi	x0,x0,0	  x0:0x00000000
       27505000	      2749	800044a8	3e8eba37	lui	x20,0x3e8eb	 x20=0x3e8eb000
       27515000	      2750	800044ac	00d133b3	sltu	x7,x2,x13	  x2:0xb7aee122 x13:0xffffffae  x7=0x00000001
       27525000	      2751	800044b0	003dce63	blt	x27,x3,800044cc	 x27:0x00000000  x3:0x80009c5a
       27535000	      2752	800044b4	00000013	addi	x0,x0,0	  x0:0x00000000
       27545000	      2753	800044b8	01044d33	xor	x26,x8,x16	  x8:0x625648ac x16:0x00000001 x26=0x625648ad
       27555000	      2754	800044bc	40a20d93	addi	x27,x4,1034	  x4:0xfffffb7b x27=0xffffff85
       27565000	      2755	800044c0	00bf56b3	srl	x13,x30,x11	 x30:0x65c48008 x11:0x80009c08 x13=0x0065c480
       27575000	      2756	800044c4	936d8db7	lui	x27,0x936d8	 x27=0x936d8000
       27585000	      2757	800044c8	011c8633	add	x12,x25,x17	 x25:0x00000000 x17:0x80009f49 x12=0x80009f49
       27595000	      2758	800044cc	85e93793	sltiu	x15,x18,-1954	 x18:0xfffffede x15=0x00000000
       27605000	      2759	800044d0	013376b3	and	x13,x6,x19	  x6:0x80002dac x19:0x000001d4 x13=0x00000184
       27615000	      2760	800044d4	00000013	addi	x0,x0,0	  x0:0x00000000
       27625000	      2761	800044d8	44490013	addi	x0,x18,1092	 x18:0xfffffede
       27635000	      2762	800044dc	01d36b33	or	x22,x6,x29	  x6:0x80002dac x29:0xeebe19e3 x22=0xeebe3def
       27645000	      2763	800044e0	00542333	slt	x6,x8,x5	  x8:0x625648ac  x5:0xffffdbd8  x6=0x00000000
       27655000	      2764	800044e4	004aa083	lw	x1,4(x21)	 x21:0x80009f48  x1=0x80006c74 PA:0x80009f4c
       27665000	      2765	800044e8	018a8a93	addi	x21,x21,24	 x21:0x80009f48 x21=0x80009f60
       27675000	      2766	800044ec	00829e93	slli	x29,x5,0x8	  x5:0xffffdbd8 x29=0xffdbd800
       27685000	      2767	800044f0	00008813	addi	x16,x1,0	  x1:0x80006c74 x16=0x80006c74
       27695000	      2768	800044f4	00080867	jalr	x16,x16,0	 x16:0x80006c74 x16=0x800044f4
       27705000	      2769	00000000	00000013	addi	x0,x0,0	  x0:0x00000000
       27715000	      2770	80006c74	00000013	addi	x0,x0,0	  x0:0x00000000
       27725000	      2771	80006c78	e24fbe13	sltiu	x28,x31,-476	 x31:0x80009fc4 x28=0x00000001
       27735000	      2772	80006c7c	00618033	add	x0,x3,x6	  x3:0x80009c5a  x6:0x00000000
       27745000	      2773	80006c80	429b87b7	lui	x15,0x429b8	 x15=0x429b8000
       27755000	      2774	80006c84	05bac463	blt	x21,x27,80006ccc	 x21:0x80009f60 x27:0x936d8000
       27765000	      2775	00000000	00000013	addi	x0,x0,0	  x0:0x00000000
       27775000	      2776	80006cc8	00000013	addi	x0,x0,0	  x0:0x00000000
       27785000	      2777	80006ccc	4a30e817	auipc	x16,0x4a30e	 x16=0xca314cc8
       27795000	      2778	80006cd0	70692013	slti	x0,x18,1798	 x18:0xfffffede
       27805000	      2779	80006cd4	0124b833	sltu	x16,x9,x18	  x9:0xfffff9d6 x18:0xfffffede x16=0x00000001
       27815000	      2780	80006cd8	00aef9b3	and	x19,x29,x10	 x29:0xffdbd800 x10:0x00000000 x19=0x00000000
       27825000	      2781	80006cdc	e9f22513	slti	x10,x4,-353	  x4:0xfffffb7b x10=0x00000001
       27835000	      2782	80006ce0	008dd1b3	srl	x3,x27,x8	 x27:0x936d8000  x8:0x625648ac  x3=0x000936d8
       27845000	      2783	80006ce4	0104b933	sltu	x18,x9,x16	  x9:0xfffff9d6 x16:0x00000001 x18=0x00000000
       27855000	      2784	80006ce8	004aa083	lw	x1,4(x21)	 x21:0x80009f60  x1=0x80000148 PA:0x80009f64
       27865000	      2785	80006cec	024a8a93	addi	x21,x21,36	 x21:0x80009f60 x21=0x80009f84
       27875000	      2786	80006cf0	f6c5fb93	andi	x23,x11,-148	 x11:0x80009c08 x23=0x80009c08
       27885000	      2787	80006cf4	007c6f33	or	x30,x24,x7	 x24:0x29876000  x7:0x00000001 x30=0x29876001
       27895000	      2788	80006cf8	017f9813	slli	x16,x31,0x17	 x31:0x80009fc4 x16=0xe2000000
       27905000	      2789	80006cfc	00ad98b3	sll	x17,x27,x10	 x27:0x936d8000 x10:0x00000001 x17=0x26db0000
       27915000	      2790	80006d00	00008c93	addi	x25,x1,0	  x1:0x80000148 x25=0x80000148
       27925000	      2791	80006d04	000c8ce7	jalr	x25,x25,0	 x25:0x80000148 x25=0x80006d04
       27935000	      2792	00000000	00000013	addi	x0,x0,0	  x0:0x00000000
       27945000	      2793	80000148	00000013	addi	x0,x0,0	  x0:0x00000000
       27955000	      2794	8000014c	00008497	auipc	x9,0x8	  x9=0x80008148
       27965000	      2795	80000150	29148493	addi	x9,x9,657	  x9:0x80008148  x9=0x800083d9
       27975000	      2796	80000154	0087aa33	slt	x20,x15,x8	 x15:0x429b8000  x8:0x625648ac x20=0x00000001
       27985000	      2797	80000158	2a948d03	lb	x26,681(x9)	  x9:0x800083d9 x26=0x00000039 PA:0x80008682
       27995000	      2798	8000015c	415b8d33	sub	x26,x23,x21	 x23:0x80009c08 x21:0x80009f84 x26=0xfffffc84
       28005000	      2799	80000160	b3e74213	xori	x4,x14,-1218	 x14:0x800044a4  x4=0x7fffbf9a
       28015000	      2800	80000164	19048b03	lb	x22,400(x9)	  x9:0x800083d9 x22=0x00000022 PA:0x80008569
       28025000	      2801	80000168	0eb4a803	lw	x16,235(x9)	  x9:0x800083d9 x16=0x7c7d7e7f PA:0x800084c4
       28035000	      2802	8000016c	151493a3	sh	x17,327(x9)	  x9:0x800083d9 x17:0x26db0000 PA:0x80008520
       28045000	      2803	80000170	01d05d13	srli	x26,x0,0x1d	  x0:0x00000000 x26=0x00000000
       28055000	      2804	80000174	00f657b3	srl	x15,x12,x15	 x12:0x80009f49 x15:0x429b8000 x15=0x80009f49
       28065000	      2805	80000178	cc14c783	lbu	x15,-831(x9)	  x9:0x800083d9 x15=0x00000051 PA:0x8000809a
       28075000	      2806	8000017c	1366bf13	sltiu	x30,x13,310	 x13:0x00000184 x30=0x00000000
       28085000	      2807	80000180	2bf48223	sb	x31,676(x9)	  x9:0x800083d9 x31:0x80009fc4 PA:0x8000867d
       28095000	      2808	80000184	083493a3	sh	x3,135(x9)	  x9:0x800083d9  x3:0x000936d8 PA:0x80008460
       28105000	      2809	80000188	06c48283	lb	x5,108(x9)	  x9:0x800083d9  x5=0xfffffffe PA:0x80008445
       28115000	      2810	8000018c	4176d633	sra	x12,x13,x23	 x13:0x00000184 x23:0x80009c08 x12=0x00000001
       28125000	      2811	80000190	1a149d03	lh	x26,417(x9)	  x9:0x800083d9 x26=0x00003031 PA:0x8000857a
       28135000	      2812	80000194	35348323	sb	x19,838(x9)	  x9:0x800083d9 x19:0x00000000 PA:0x8000871f
       28145000	      2813	80000198	0062aeb3	slt	x29,x5,x6	  x5:0xfffffffe  x6:0x00000000 x29=0x00000001
       28155000	      2814	8000019c	41a3dc93	srai	x25,x7,0x1a	  x7:0x00000001 x25=0x00000000
       28165000	      2815	800001a0	3aa483a3	sb	x10,935(x9)	  x9:0x800083d9 x10:0x00000001 PA:0x80008780
       28175000	      2816	800001a4	d4e48423	sb	x14,-696(x9)	  x9:0x800083d9 x14:0x800044a4 PA:0x80008121
       28185000	      2817	800001a8	001b6bb3	or	x23,x22,x1	 x22:0x00000022  x1:0x80000148 x23=0x8000016a
       28195000	      2818	800001ac	df4f2893	slti	x17,x30,-524	 x30:0x00000000 x17=0x00000000
       28205000	      2819	800001b0	fe348b83	lb	x23,-29(x9)	  x9:0x800083d9 x23=0x00000077 PA:0x800083bc
       28215000	      2820	800001b4	f0b48123	sb	x11,-254(x9)	  x9:0x800083d9 x11:0x80009c08 PA:0x800082db
       28225000	      2821	800001b8	cf44cc03	lbu	x24,-780(x9)	  x9:0x800083d9 x24=0x00000086 PA:0x800080cd
       28235000	      2822	800001bc	9915f213	andi	x4,x11,-1647	 x11:0x80009c08  x4=0x80009800
       28245000	      2823	800001c0	006695b3	sll	x11,x13,x6	 x13:0x00000184  x6:0x00000000 x11=0x00000184
       28255000	      2824	800001c4	c8c4a1a3	sw	x12,-893(x9)	  x9:0x800083d9 x12:0x00000001 PA:0x8000805c
       28265000	      2825	800001c8	1d149e03	lh	x28,465(x9)	  x9:0x800083d9 x28=0x00006061 PA:0x800085aa
       28275000	      2826	800001cc	00008317	auipc	x6,0x8	  x6=0x800081c8
       28285000	      2827	800001d0	3fd30313	addi	x6,x6,1021	  x6:0x800081c8  x6=0x800085c5
       28295000	      2828	800001d4	ff530ea3	sb	x21,-3(x6)	  x6:0x800085c5 x21:0x80009f84 PA:0x800085c2
       28305000	      2829	800001d8	0aa3cf37	lui	x30,0xaa3c	 x30=0x0aa3c000
       28315000	      2830	800001dc	00430323	sb	x4,6(x6)	  x6:0x800085c5  x4:0x80009800 PA:0x800085cb
       28325000	      2831	800001e0	01705a33	srl	x20,x0,x23	  x0:0x00000000 x23:0x00000077 x20=0x00000000
       28335000	      2832	800001e4	cfc83813	sltiu	x16,x16,-772	 x16:0x7c7d7e7f x16=0x00000001
       28345000	      2833	800001e8	fe832da3	sw	x8,-5(x6)	  x6:0x800085c5  x8:0x625648ac PA:0x800085c0
       28355000	      2834	800001ec	00a30883	lb	x17,10(x6)	  x6:0x800085c5 x17=0xffffff84 PA:0x800085cf
       28365000	      2835	800001f0	00af6033	or	x0,x30,x10	 x30:0x0aa3c000 x10:0x00000001
       28375000	      2836	800001f4	9e04edb7	lui	x27,0x9e04e	 x27=0x9e04e000
       28385000	      2837	800001f8	01c30423	sb	x28,8(x6)	  x6:0x800085c5 x28:0x00006061 PA:0x800085cd
       28395000	      2838	800001fc	00000013	addi	x0,x0,0	  x0:0x00000000
       28405000	      2839	80000200	00f30723	sb	x15,14(x6)	  x6:0x800085c5 x15:0x00000051 PA:0x800085d3
       28415000	      2840	80000204	ff430b23	sb	x20,-10(x6)	  x6:0x800085c5 x20:0x00000000 PA:0x800085bb
       28425000	      2841	80000208	00745193	srli	x3,x8,0x7	  x8:0x625648ac  x3=0x00c4ac91
       28435000	      2842	8000020c	00a30e03	lb	x28,10(x6)	  x6:0x800085c5 x28=0xffffff84 PA:0x800085cf
       28445000	      2843	80000210	01630123	sb	x22,2(x6)	  x6:0x800085c5 x22:0x00000022 PA:0x800085c7
       28455000	      2844	80000214	00505193	srli	x3,x0,0x5	  x0:0x00000000  x3=0x00000000
       28465000	      2845	80000218	00234283	lbu	x5,2(x6)	  x6:0x800085c5  x5=0x00000022 PA:0x800085c7
       28475000	      2846	8000021c	00f32203	lw	x4,15(x6)	  x6:0x800085c5  x4=0x8c8d8e8f PA:0x800085d4
       28485000	      2847	80000220	01f5da33	srl	x20,x11,x31	 x11:0x00000184 x31:0x80009fc4 x20=0x00000018
       28495000	      2848	80000224	0057b6b3	sltu	x13,x15,x5	 x15:0x00000051  x5:0x00000022 x13=0x00000000
       28505000	      2849	80000228	00a30903	lb	x18,10(x6)	  x6:0x800085c5 x18=0xffffff84 PA:0x800085cf
       28515000	      2850	00000000	00000013	addi	x0,x0,0	  x0:0x00000000
       28525000	      2851	8000022c	29790893	addi	x17,x18,663	 x18:0xffffff84 x17=0x0000021b
       28535000	      2852	80000230	41078233	sub	x4,x15,x16	 x15:0x00000051 x16:0x00000001  x4=0x00000050
       28545000	      2853	80000234	aaa1e393	ori	x7,x3,-1366	  x3:0x00000000  x7=0xfffffaaa
       28555000	      2854	80000238	ffd31383	lh	x7,-3(x6)	  x6:0x800085c5  x7=0x00006256 PA:0x800085c2
       28565000	      2855	8000023c	ff935403	lhu	x8,-7(x6)	  x6:0x800085c5  x8=0x00007475 PA:0x800085be
       28575000	      2856	80000240	00c34203	lbu	x4,12(x6)	  x6:0x800085c5  x4=0x0000008a PA:0x800085d1
       28585000	      2857	80000244	00234083	lbu	x1,2(x6)	  x6:0x800085c5  x1=0x00000022 PA:0x800085c7
       28595000	      2858	80000248	4e4b3593	sltiu	x11,x22,1252	 x22:0x00000022 x11=0x00000001
       28605000	      2859	8000024c	ff034a03	lbu	x20,-16(x6)	  x6:0x800085c5 x20=0x0000006e PA:0x800085b5
       28615000	      2860	80000250	9cecb413	sltiu	x8,x25,-1586	 x25:0x00000000  x8=0x00000001
       28625000	      2861	80000254	d94a6bb7	lui	x23,0xd94a6	 x23=0xd94a6000
       28635000	      2862	80000258	ffd34c03	lbu	x24,-3(x6)	  x6:0x800085c5 x24=0x00000056 PA:0x800085c2
       28645000	      2863	8000025c	01ab66b3	or	x13,x22,x26	 x22:0x00000022 x26:0x00003031 x13=0x00003033
       28655000	      2864	80000260	00f35883	lhu	x17,15(x6)	  x6:0x800085c5 x17=0x00008e8f PA:0x800085d4
       28665000	      2865	80000264	ff630f03	lb	x30,-10(x6)	  x6:0x800085c5 x30=0x00000000 PA:0x800085bb
       28675000	      2866	80000268	fff34883	lbu	x17,-1(x6)	  x6:0x800085c5 x17=0x0000007f PA:0x800085c4
       28685000	      2867	8000026c	ff430a23	sb	x20,-12(x6)	  x6:0x800085c5 x20:0x0000006e PA:0x800085b9
       28695000	      2868	80000270	a283af13	slti	x30,x7,-1496	  x7:0x00006256 x30=0x00000000
       28705000	      2869	80000274	01b790b3	sll	x1,x15,x27	 x15:0x00000051 x27:0x9e04e000  x1=0x00000051
       28715000	      2870	80000278	ffa30f23	sb	x26,-2(x6)	  x6:0x800085c5 x26:0x00003031 PA:0x800085c3
       28725000	      2871	8000027c	01fe7033	and	x0,x28,x31	 x28:0xffffff84 x31:0x80009fc4
       28735000	      2872	80000280	ff030403	lb	x8,-16(x6)	  x6:0x800085c5  x8=0x0000006e PA:0x800085b5
       28745000	      2873	80000284	0138f033	and	x0,x17,x19	 x17:0x0000007f x19:0x00000000
       28755000	      2874	80000288	fdf8f5b7	lui	x11,0xfdf8f	 x11=0xfdf8f000
       28765000	      2875	8000028c	40c40d33	sub	x26,x8,x12	  x8:0x0000006e x12:0x00000001 x26=0x0000006d
       28775000	      2876	80000290	fff32d83	lw	x27,-1(x6)	  x6:0x800085c5 x27=0x227d7e7f PA:0x800085c4
       28785000	      2877	80000294	0032c533	xor	x10,x5,x3	  x5:0x00000022  x3:0x00000000 x10=0x00000022
       28795000	      2878	80000298	013305a3	sb	x19,11(x6)	  x6:0x800085c5 x19:0x00000000 PA:0x800085d0
       28805000	      2879	8000029c	00008617	auipc	x12,0x8	 x12=0x80008298
       28815000	      2880	800002a0	18660613	addi	x12,x12,390	 x12:0x80008298 x12=0x8000841e
       28825000	      2881	800002a4	00af8bb3	add	x23,x31,x10	 x31:0x80009fc4 x10:0x00000022 x23=0x80009fe6
       28835000	      2882	800002a8	41d7d913	srai	x18,x15,0x1d	 x15:0x00000051 x18=0x00000000
       28845000	      2883	800002ac	00360283	lb	x5,3(x12)	 x12:0x8000841e  x5=0xffffffda PA:0x80008421
       28855000	      2884	800002b0	4191d9b3	sra	x19,x3,x25	  x3:0x00000000 x25:0x00000000 x19=0x00000000
       28865000	      2885	800002b4	0155a3b3	slt	x7,x11,x21	 x11:0xfdf8f000 x21:0x80009f84  x7=0x00000000
       28875000	      2886	800002b8	fd760383	lb	x7,-41(x12)	 x12:0x8000841e  x7=0xffffffae PA:0x800083f5
       28885000	      2887	800002bc	8a564c93	xori	x25,x12,-1883	 x12:0x8000841e x25=0x7fff7cbb
       28895000	      2888	800002c0	010e5cb3	srl	x25,x28,x16	 x28:0xffffff84 x16:0x00000001 x25=0x7fffffc2
       28905000	      2889	800002c4	00000013	addi	x0,x0,0	  x0:0x00000000
       28915000	      2890	800002c8	fca65403	lhu	x8,-54(x12)	 x12:0x8000841e  x8=0x0000a2a3 PA:0x800083e8
       28925000	      2891	800002cc	01eae533	or	x10,x21,x30	 x21:0x80009f84 x30:0x00000000 x10=0x80009f84
       28935000	      2892	800002d0	ffd64983	lbu	x19,-3(x12)	 x12:0x8000841e x19=0x000000d0 PA:0x8000841b
       28945000	      2893	800002d4	fdf60703	lb	x14,-33(x12)	 x12:0x8000841e x14=0xffffffb6 PA:0x800083fd
       28955000	      2894	800002d8	b1eb4b13	xori	x22,x22,-1250	 x22:0x00000022 x22=0xfffffb3c
       28965000	      2895	800002dc	b634f913	andi	x18,x9,-1181	  x9:0x800083d9 x18=0x80008341
       28975000	      2896	800002e0	007cca33	xor	x20,x25,x7	 x25:0x7fffffc2  x7:0xffffffae x20=0x8000006c
       28985000	      2897	800002e4	03660aa3	sb	x22,53(x12)	 x12:0x8000841e x22:0xfffffb3c PA:0x80008453
       28995000	      2898	800002e8	01a792b3	sll	x5,x15,x26	 x15:0x00000051 x26:0x0000006d  x5=0x000a2000
       29005000	      2899	800002ec	5d518693	addi	x13,x3,1493	  x3:0x00000000 x13=0x000005d5
       29015000	      2900	800002f0	00c0dd33	srl	x26,x1,x12	  x1:0x00000051 x12:0x8000841e x26=0x00000000
       29025000	      2901	800002f4	16d3c513	xori	x10,x7,365	  x7:0xffffffae x10=0xfffffec3
       29035000	      2902	800002f8	00c65783	lhu	x15,12(x12)	 x12:0x8000841e x15=0x0000e0e1 PA:0x8000842a
       29045000	      2903	800002fc	00e61d83	lh	x27,14(x12)	 x12:0x8000841e x27=0xffffe6e7 PA:0x8000842c
       29055000	      2904	80000300	fc860283	lb	x5,-56(x12)	 x12:0x8000841e  x5=0xffffff9d PA:0x800083e6
       29065000	      2905	80000304	00284db3	xor	x27,x16,x2	 x16:0x00000001  x2:0xb7aee122 x27=0xb7aee123
       29075000	      2906	80000308	410f8033	sub	x0,x31,x16	 x31:0x80009fc4 x16:0x00000001
       29085000	      2907	8000030c	40f056b3	sra	x13,x0,x15	  x0:0x00000000 x15:0x0000e0e1 x13=0x00000000
       29095000	      2908	80000310	01592933	slt	x18,x18,x21	 x18:0x80008341 x21:0x80009f84 x18=0x00000001
       29105000	      2909	80000314	01605393	srli	x7,x0,0x16	  x0:0x00000000  x7=0x00000000
       29115000	      2910	80000318	01a185b3	add	x11,x3,x26	  x3:0x00000000 x26:0x00000000 x11=0x00000000
       29125000	      2911	8000031c	00f60703	lb	x14,15(x12)	 x12:0x8000841e x14=0xffffffe6 PA:0x8000842d
       29135000	      2912	80000320	00000013	addi	x0,x0,0	  x0:0x00000000
       29145000	      2913	80000324	40b85233	sra	x4,x16,x11	 x16:0x00000001 x11:0x00000000  x4=0x00000001
       29155000	      2914	80000328	01101b33	sll	x22,x0,x17	  x0:0x00000000 x17:0x0000007f x22=0x00000000
       29165000	      2915	8000032c	01160383	lb	x7,17(x12)	 x12:0x8000841e  x7=0xffffffe4 PA:0x8000842f
       29175000	      2916	80000330	02364683	lbu	x13,35(x12)	 x12:0x8000841e x13=0x000000fa PA:0x80008441
       29185000	      2917	80000334	00b602a3	sb	x11,5(x12)	 x12:0x8000841e x11:0x00000000 PA:0x80008423
       29195000	      2918	80000338	fc160583	lb	x11,-63(x12)	 x12:0x8000841e x11=0xffffff94 PA:0x800083df
       29205000	      2919	8000033c	00008e97	auipc	x29,0x8	 x29=0x80008338
       29215000	      2920	80000340	e8ce8e93	addi	x29,x29,-372	 x29:0x80008338 x29=0x800081c4
       29225000	      2921	80000344	4040df13	srai	x30,x1,0x4	  x1:0x00000051 x30=0x00000005
       29235000	      2922	80000348	f23e89a3	sb	x3,-205(x29)	 x29:0x800081c4  x3:0x00000000 PA:0x800080f7
       29245000	      2923	8000034c	4f7e83a3	sb	x23,1255(x29)	 x29:0x800081c4 x23:0x80009fe6 PA:0x800086ab
       29255000	      2924	80000350	407ad213	srai	x4,x21,0x7	 x21:0x80009f84  x4=0xff00013f
       29265000	      2925	80000354	349e84a3	sb	x9,841(x29)	 x29:0x800081c4  x9:0x800083d9 PA:0x8000850d
       29275000	      2926	80000358	0146df33	srl	x30,x13,x20	 x13:0x000000fa x20:0x8000006c x30=0x00000000
       29285000	      2927	8000035c	286e8583	lb	x11,646(x29)	 x29:0x800081c4 x11=0x00000001 PA:0x8000844a
       29295000	      2928	80000360	9baa3293	sltiu	x5,x20,-1606	 x20:0x8000006c  x5=0x00000001
       29305000	      2929	80000364	00c38033	add	x0,x7,x12	  x7:0xffffffe4 x12:0x8000841e
       29315000	      2930	80000368	e98e8603	lb	x12,-360(x29)	 x29:0x800081c4 x12=0x00000001 PA:0x8000805c
       29325000	      2931	8000036c	0124b2b3	sltu	x5,x9,x18	  x9:0x800083d9 x18:0x00000001  x5=0x00000000
       29335000	      2932	80000370	280ec703	lbu	x14,640(x29)	 x29:0x800081c4 x14=0x000000ff PA:0x80008444
       29345000	      2933	80000374	0b6ec783	lbu	x15,182(x29)	 x29:0x800081c4 x15=0x00000031 PA:0x8000827a
       29355000	      2934	80000378	21ae83a3	sb	x26,519(x29)	 x29:0x800081c4 x26:0x00000000 PA:0x800083cb
       29365000	      2935	8000037c	2e6ed503	lhu	x10,742(x29)	 x29:0x800081c4 x10=0x00006061 PA:0x800084aa
       29375000	      2936	80000380	1a6ec603	lbu	x12,422(x29)	 x29:0x800081c4 x12=0x00000021 PA:0x8000836a
       29385000	      2937	80000384	e96e9683	lh	x13,-362(x29)	 x29:0x800081c4 x13=0x00001011 PA:0x8000805a
       29395000	      2938	80000388	3d1e8703	lb	x14,977(x29)	 x29:0x800081c4 x14=0x0000004e PA:0x80008595
       29405000	      2939	8000038c	551e8923	sb	x17,1362(x29)	 x29:0x800081c4 x17:0x0000007f PA:0x80008716
       29415000	      2940	80000390	5a0eae23	sw	x0,1468(x29)	 x29:0x800081c4  x0:0x00000000 PA:0x80008780
       29425000	      2941	80000394	41fa80b3	sub	x1,x21,x31	 x21:0x80009f84 x31:0x80009fc4  x1=0xffffffc0
       29435000	      2942	80000398	41ae8933	sub	x18,x29,x26	 x29:0x800081c4 x26:0x00000000 x18=0x800081c4
       29445000	      2943	8000039c	4082d713	srai	x14,x5,0x8	  x5:0x00000000 x14=0x00000000
       29455000	      2944	800003a0	58fe8523	sb	x15,1418(x29)	 x29:0x800081c4 x15:0x00000031 PA:0x8000874e
       29465000	      2945	800003a4	3d538693	addi	x13,x7,981	  x7:0xffffffe4 x13=0x000003b9
       29475000	      2946	800003a8	5acec803	lbu	x16,1452(x29)	 x29:0x800081c4 x16=0x0000002b PA:0x80008770
       29485000	      2947	800003ac	0185f4b3	and	x9,x11,x24	 x11:0x00000001 x24:0x00000056  x9=0x00000000
       29495000	      2948	800003b0	007edd33	srl	x26,x29,x7	 x29:0x800081c4  x7:0xffffffe4 x26=0x0800081c
       29505000	      2949	800003b4	1c8ea283	lw	x5,456(x29)	 x29:0x800081c4  x5=0x44454647 PA:0x8000838c
       29515000	      2950	800003b8	272e84a3	sb	x18,617(x29)	 x29:0x800081c4 x18:0x800081c4 PA:0x8000842d
       29525000	      2951	800003bc	f0ae82a3	sb	x10,-251(x29)	 x29:0x800081c4 x10:0x00006061 PA:0x800080c9
       29535000	      2952	800003c0	3edecc83	lbu	x25,1005(x29)	 x29:0x800081c4 x25=0x0000006a PA:0x800085b1
       29545000	      2953	800003c4	41b65393	srai	x7,x12,0x1b	 x12:0x00000021  x7=0x00000000
       29555000	      2954	800003c8	00549693	slli	x13,x9,0x5	  x9:0x00000000 x13=0x00000000
       29565000	      2955	800003cc	09be9523	sh	x27,138(x29)	 x29:0x800081c4 x27:0xb7aee123 PA:0x8000824e
       29575000	      2956	800003d0	5adea423	sw	x13,1448(x29)	 x29:0x800081c4 x13:0x00000000 PA:0x8000876c
       29585000	      2957	800003d4	ea4e9d03	lh	x26,-348(x29)	 x29:0x800081c4 x26=0x00002223 PA:0x80008068
       29595000	      2958	800003d8	01b1f6b3	and	x13,x3,x27	  x3:0x00000000 x27:0xb7aee123 x13=0x00000000
       29605000	      2959	800003dc	b17df893	andi	x17,x27,-1257	 x27:0xb7aee123 x17=0xb7aee103
       29615000	      2960	800003e0	00dadf13	srli	x30,x21,0xd	 x21:0x80009f84 x30=0x00040004
       29625000	      2961	800003e4	35194893	xori	x17,x18,849	 x18:0x800081c4 x17=0x80008295
       29635000	      2962	800003e8	016a4033	xor	x0,x20,x22	 x20:0x8000006c x22:0x00000000
       29645000	      2963	800003ec	00ae8da3	sb	x10,27(x29)	 x29:0x800081c4 x10:0x00006061 PA:0x800081df
       29655000	      2964	800003f0	0002c3b3	xor	x7,x5,x0	  x5:0x44454647  x0:0x00000000  x7=0x44454647
       29665000	      2965	800003f4	f72ec983	lbu	x19,-142(x29)	 x29:0x800081c4 x19=0x00000000 PA:0x80008136
       29675000	      2966	800003f8	16bec803	lbu	x16,363(x29)	 x29:0x800081c4 x16=0x000000e4 PA:0x8000832f
       29685000	      2967	800003fc	00008d17	auipc	x26,0x8	 x26=0x800083f8
       29695000	      2968	80000400	6f4d0d13	addi	x26,x26,1780	 x26:0x800083f8 x26=0x80008aec
       29705000	      2969	80000404	f61d4903	lbu	x18,-159(x26)	 x26:0x80008aec x18=0x00000036 PA:0x80008a4d
       29715000	      2970	80000408	f1ed4a03	lbu	x20,-226(x26)	 x26:0x80008aec x20=0x0000000e PA:0x80008a0a
       29725000	      2971	8000040c	01b212b3	sll	x5,x4,x27	  x4:0xff00013f x27:0xb7aee123  x5=0xf80009f8
       29735000	      2972	80000410	047d4383	lbu	x7,71(x26)	 x26:0x80008aec  x7=0x00000018 PA:0x80008b33
       29745000	      2973	80000414	01e73433	sltu	x8,x14,x30	 x14:0x00000000 x30:0x00040004  x8=0x00000001
       29755000	      2974	80000418	01221cb3	sll	x25,x4,x18	  x4:0xff00013f x18:0x00000036 x25=0x4fc00000
       29765000	      2975	8000041c	fb9d0d83	lb	x27,-71(x26)	 x26:0x80008aec x27=0xffffff8e PA:0x80008aa5
       29775000	      2976	80000420	04ed4303	lbu	x6,78(x26)	 x26:0x80008aec  x6=0x00000021 PA:0x80008b3a
       29785000	      2977	80000424	084d2303	lw	x6,132(x26)	 x26:0x80008aec  x6=0xb7aee122 PA:0x80008b70
       29795000	      2978	00000000	00000013	addi	x0,x0,0	  x0:0x00000000
       29805000	      2979	80000428	00651413	slli	x8,x10,0x6	 x10:0x00006061  x8=0x00181840
       29815000	      2980	8000042c	f22d1423	sh	x2,-216(x26)	 x26:0x80008aec  x2:0xb7aee122 PA:0x80008a14
       29825000	      2981	80000430	011a1b93	slli	x23,x20,0x11	 x20:0x0000000e x23=0x001c0000
       29835000	      2982	80000434	4d0bf837	lui	x16,0x4d0bf	 x16=0x4d0bf000
       29845000	      2983	80000438	fb0d5583	lhu	x11,-80(x26)	 x26:0x80008aec x11=0x00008687 PA:0x80008a9c
       29855000	      2984	8000043c	fd7d2a23	sw	x23,-44(x26)	 x26:0x80008aec x23:0x001c0000 PA:0x80008ac0
       29865000	      2985	80000440	00443c33	sltu	x24,x8,x4	  x8:0x00181840  x4:0xff00013f x24=0x00000001
       29875000	      2986	80000444	61a07913	andi	x18,x0,1562	  x0:0x00000000 x18=0x00000000
       29885000	      2987	80000448	0594ec13	ori	x24,x9,89	  x9:0x00000000 x24=0x00000059
       29895000	      2988	8000044c	083d0b23	sb	x3,150(x26)	 x26:0x80008aec  x3:0x00000000 PA:0x80008b82
       29905000	      2989	80000450	00991f33	sll	x30,x18,x9	 x18:0x00000000  x9:0x00000000 x30=0x00000000
       29915000	      2990	80000454	f8bd4383	lbu	x7,-117(x26)	 x26:0x80008aec  x7=0x0000005c PA:0x80008a77
       29925000	      2991	80000458	0cbd0083	lb	x1,203(x26)	 x26:0x80008aec  x1=0x00000000 PA:0x80008bb7
       29935000	      2992	8000045c	047d01a3	sb	x7,67(x26)	 x26:0x80008aec  x7:0x0000005c PA:0x80008b2f
       29945000	      2993	80000460	ecb8ea13	ori	x20,x17,-309	 x17:0x80008295 x20=0xfffffedf
       29955000	      2994	80000464	f0bd08a3	sb	x11,-239(x26)	 x26:0x80008aec x11:0x00008687 PA:0x800089fd
       29965000	      2995	80000468	053d4283	lbu	x5,83(x26)	 x26:0x80008aec  x5=0x00000024 PA:0x80008b3f
       29975000	      2996	8000046c	012b88b3	add	x17,x23,x18	 x23:0x001c0000 x18:0x00000000 x17=0x001c0000
       29985000	      2997	80000470	40a25eb3	sra	x29,x4,x10	  x4:0xff00013f x10:0x00006061 x29=0xff80009f
       29995000	      2998	80000474	fe4d2583	lw	x11,-28(x26)	 x26:0x80008aec x11=0xb8b9babb PA:0x80008ad0
       30005000	      2999	80000478	0b3d08a3	sb	x19,177(x26)	 x26:0x80008aec x19:0x00000000 PA:0x80008b9d
       30015000	      3000	8000047c	1d89e693	ori	x13,x19,472	 x19:0x00000000 x13=0x000001d8
       30025000	      3001	80000480	019234b3	sltu	x9,x4,x25	  x4:0xff00013f x25:0x4fc00000  x9=0x00000000
       30035000	      3002	80000484	f29d0803	lb	x16,-215(x26)	 x26:0x80008aec x16=0xffffffe1 PA:0x80008a15
       30045000	      3003	80000488	409e58b3	sra	x17,x28,x9	 x28:0xffffff84  x9:0x00000000 x17=0xffffff84
       30055000	      3004	8000048c	00a01db3	sll	x27,x0,x10	  x0:0x00000000 x10:0x00006061 x27=0x00000000
       30065000	      3005	80000490	fc9d07a3	sb	x9,-49(x26)	 x26:0x80008aec  x9:0x00000000 PA:0x80008abb
       30075000	      3006	80000494	005db333	sltu	x6,x27,x5	 x27:0x00000000  x5:0x00000024  x6=0x00000001
       30085000	      3007	80000498	039d0803	lb	x16,57(x26)	 x26:0x80008aec x16=0x0000000e PA:0x80008b25
       30095000	      3008	8000049c	f82d4983	lbu	x19,-126(x26)	 x26:0x80008aec x19=0x00000055 PA:0x80008a6e
       30105000	      3009	800004a0	02fd4f03	lbu	x30,47(x26)	 x26:0x80008aec x30=0x00000000 PA:0x80008b1b
       30115000	      3010	800004a4	09dd09a3	sb	x29,147(x26)	 x26:0x80008aec x29:0xff80009f PA:0x80008b7f
       30125000	      3011	800004a8	00008197	auipc	x3,0x8	  x3=0x800084a4
       30135000	      3012	800004ac	ebc18193	addi	x3,x3,-324	  x3:0x800084a4  x3=0x80008360
       30145000	      3013	800004b0	d391c503	lbu	x10,-711(x3)	  x3:0x80008360 x10=0x00000052 PA:0x80008099
       30155000	      3014	800004b4	40c3ba13	sltiu	x20,x7,1036	  x7:0x0000005c x20=0x00000001
       30165000	      3015	800004b8	27c1c383	lbu	x7,636(x3)	  x3:0x80008360  x7=0x00000097 PA:0x800085dc
       30175000	      3016	800004bc	00000013	addi	x0,x0,0	  x0:0x00000000
       30185000	      3017	800004c0	ecd1c983	lbu	x19,-307(x3)	  x3:0x80008360 x19=0x000000e6 PA:0x8000822d
       30195000	      3018	800004c4	0143b633	sltu	x12,x7,x20	  x7:0x00000097 x20:0x00000001 x12=0x00000000
       30205000	      3019	800004c8	2f218da3	sb	x18,763(x3)	  x3:0x80008360 x18:0x00000000 PA:0x8000865b
       30215000	      3020	800004cc	ecb18003	lb	x0,-309(x3)	  x3:0x80008360 PA:0x8000822b
       30225000	      3021	800004d0	d1919923	sh	x25,-750(x3)	  x3:0x80008360 x25:0x4fc00000 PA:0x80008072
       30235000	      3022	800004d4	1e118803	lb	x16,481(x3)	  x3:0x80008360 x16=0xfffffffa PA:0x80008541
       30245000	      3023	800004d8	54764b93	xori	x23,x12,1351	 x12:0x00000000 x23=0x00000547
       30255000	      3024	800004dc	45819723	sh	x24,1102(x3)	  x3:0x80008360 x24:0x00000059 PA:0x800087ae
       30265000	      3025	800004e0	0127e333	or	x6,x15,x18	 x15:0x00000031 x18:0x00000000  x6=0x00000031
       30275000	      3026	800004e4	6ad58593	addi	x11,x11,1709	 x11:0xb8b9babb x11=0xb8b9c168
       30285000	      3027	800004e8	41588233	sub	x4,x17,x21	 x17:0xffffff84 x21:0x80009f84  x4=0x7fff6000
       30295000	      3028	800004ec	419f8433	sub	x8,x31,x25	 x31:0x80009fc4 x25:0x4fc00000  x8=0x30409fc4
       30305000	      3029	800004f0	00000013	addi	x0,x0,0	  x0:0x00000000
       30315000	      3030	800004f4	009ef033	and	x0,x29,x9	 x29:0xff80009f  x9:0x00000000
       30325000	      3031	800004f8	4194d293	srai	x5,x9,0x19	  x9:0x00000000  x5=0x00000000
       30335000	      3032	800004fc	01d6d213	srli	x4,x13,0x1d	 x13:0x000001d8  x4=0x00000000
       30345000	      3033	80000500	26f1cc03	lbu	x24,623(x3)	  x3:0x80008360 x24=0x00000084 PA:0x800085cf
       30355000	      3034	80000504	41625913	srai	x18,x4,0x16	  x4:0x00000000 x18=0x00000000
       30365000	      3035	80000508	01a79c33	sll	x24,x15,x26	 x15:0x00000031 x26:0x80008aec x24=0x00031000
       30375000	      3036	8000050c	0027e933	or	x18,x15,x2	 x15:0x00000031  x2:0xb7aee122 x18=0xb7aee133
       30385000	      3037	80000510	3b018ca3	sb	x16,953(x3)	  x3:0x80008360 x16:0xfffffffa PA:0x80008719
       30395000	      3038	80000514	2641de03	lhu	x28,612(x3)	  x3:0x80008360 x28=0x00007e7f PA:0x800085c4
       30405000	      3039	80000518	4f2bbb13	sltiu	x22,x23,1266	 x23:0x00000547 x22=0x00000000
       30415000	      3040	8000051c	3e567213	andi	x4,x12,997	 x12:0x00000000  x4=0x00000000
       30425000	      3041	80000520	00d21f13	slli	x30,x4,0xd	  x4:0x00000000 x30=0x00000000
       30435000	      3042	80000524	1a718283	lb	x5,423(x3)	  x3:0x80008360  x5=0xffffffbc PA:0x80008507
       30445000	      3043	80000528	71486413	ori	x8,x16,1812	 x16:0xfffffffa  x8=0xfffffffe
       30455000	      3044	8000052c	e801c403	lbu	x8,-384(x3)	  x3:0x80008360  x8=0x0000009b PA:0x800081e0
       30465000	      3045	80000530	00008997	auipc	x19,0x8	 x19=0x8000852c
       30475000	      3046	80000534	bfd98993	addi	x19,x19,-1027	 x19:0x8000852c x19=0x80008129
       30485000	      3047	80000538	0129c683	lbu	x13,18(x19)	 x19:0x80008129 x13=0x00000000 PA:0x8000813b
       30495000	      3048	8000053c	00598f23	sb	x5,30(x19)	 x19:0x80008129  x5:0xffffffbc PA:0x80008147
       30505000	      3049	80000540	fce98c03	lb	x24,-50(x19)	 x19:0x80008129 x24=0x00000000 PA:0x800080f7
       30515000	      3050	80000544	419e5a33	sra	x20,x28,x25	 x28:0x00007e7f x25:0x4fc00000 x20=0x00007e7f
       30525000	      3051	80000548	fd69cc83	lbu	x25,-42(x19)	 x19:0x80008129 x25=0x000000b4 PA:0x800080ff
       30535000	      3052	8000054c	00ba7033	and	x0,x20,x11	 x20:0x00007e7f x11:0xb8b9c168
       30545000	      3053	80000550	4017d293	srai	x5,x15,0x1	 x15:0x00000031  x5=0x00000018
       30555000	      3054	80000554	01ec8f33	add	x30,x25,x30	 x25:0x000000b4 x30:0x00000000 x30=0x000000b4
       30565000	      3055	80000558	014178b3	and	x17,x2,x20	  x2:0xb7aee122 x20:0x00007e7f x17=0x00006022
       30575000	      3056	8000055c	01df1713	slli	x14,x30,0x1d	 x30:0x000000b4 x14=0x80000000
       30585000	      3057	80000560	75540b37	lui	x22,0x75540	 x22=0x75540000
       30595000	      3058	80000564	e1108013	addi	x0,x1,-495	  x1:0x00000000
       30605000	      3059	80000568	ce33c413	xori	x8,x7,-797	  x7:0x00000097  x8=0xfffffc74
       30615000	      3060	8000056c	01e98403	lb	x8,30(x19)	 x19:0x80008129  x8=0xffffffbc PA:0x80008147
       30625000	      3061	80000570	02998c23	sb	x9,56(x19)	 x19:0x80008129  x9:0x00000000 PA:0x80008161
       30635000	      3062	80000574	0152abb3	slt	x23,x5,x21	  x5:0x00000018 x21:0x80009f84 x23=0x00000000
       30645000	      3063	80000578	fdbc0b93	addi	x23,x24,-37	 x24:0x00000000 x23=0xffffffdb
       30655000	      3064	8000057c	367b4b93	xori	x23,x22,871	 x22:0x75540000 x23=0x75540367
       30665000	      3065	80000580	00c6bf33	sltu	x30,x13,x12	 x13:0x00000000 x12:0x00000000 x30=0x00000000
       30675000	      3066	80000584	00738d33	add	x26,x7,x7	  x7:0x00000097  x7:0x00000097 x26=0x0000012e
       30685000	      3067	80000588	01c5f933	and	x18,x11,x28	 x11:0xb8b9c168 x28:0x00007e7f x18=0x00004068
       30695000	      3068	8000058c	41d651b3	sra	x3,x12,x29	 x12:0x00000000 x29:0xff80009f  x3=0x00000000
       30705000	      3069	80000590	01ad35b3	sltu	x11,x26,x26	 x26:0x0000012e x26:0x0000012e x11=0x00000000
       30715000	      3070	80000594	00be8db3	add	x27,x29,x11	 x29:0xff80009f x11:0x00000000 x27=0xff80009f
       30725000	      3071	80000598	00ce46b3	xor	x13,x28,x12	 x28:0x00007e7f x12:0x00000000 x13=0x00007e7f
       30735000	      3072	8000059c	fdd98923	sb	x29,-46(x19)	 x19:0x80008129 x29:0xff80009f PA:0x800080fb
       30745000	      3073	800005a0	01f98403	lb	x8,31(x19)	 x19:0x80008129  x8=0x00000003 PA:0x80008148
       30755000	      3074	800005a4	0095bdb3	sltu	x27,x11,x9	 x11:0x00000000  x9:0x00000000 x27=0x00000000
       30765000	      3075	800005a8	fdc9cf03	lbu	x30,-36(x19)	 x19:0x80008129 x30=0x000000be PA:0x80008105
       30775000	      3076	800005ac	fca988a3	sb	x10,-47(x19)	 x19:0x80008129 x10:0x00000052 PA:0x800080fa
       30785000	      3077	800005b0	ff798583	lb	x11,-9(x19)	 x19:0x80008129 x11=0xffffffdb PA:0x80008120
       30795000	      3078	00000000	00000013	addi	x0,x0,0	  x0:0x00000000
       30805000	      3079	800005b4	f8b36c13	ori	x24,x6,-117	  x6:0x00000031 x24=0xffffffbb
       30815000	      3080	800005b8	011ad733	srl	x14,x21,x17	 x21:0x80009f84 x17:0x00006022 x14=0x200027e1
       30825000	      3081	800005bc	4cd94c13	xori	x24,x18,1229	 x18:0x00004068 x24=0x000044a5
       30835000	      3082	800005c0	00422333	slt	x6,x4,x4	  x4:0x00000000  x4:0x00000000  x6=0x00000000
       30845000	      3083	800005c4	ff19c403	lbu	x8,-15(x19)	 x19:0x80008129  x8=0x000000d1 PA:0x8000811a
       30855000	      3084	800005c8	03698d23	sb	x22,58(x19)	 x19:0x80008129 x22:0x75540000 PA:0x80008163
       30865000	      3085	800005cc	00009697	auipc	x13,0x9	 x13=0x800095c8
       30875000	      3086	800005d0	8ad68693	addi	x13,x13,-1875	 x13:0x800095c8 x13=0x80008e75
       30885000	      3087	800005d4	41ed8a33	sub	x20,x27,x30	 x27:0x00000000 x30:0x000000be x20=0xffffff42
       30895000	      3088	800005d8	fcb69b03	lh	x22,-53(x13)	 x13:0x80008e75 x22=0x00002a00 PA:0x80008e40
       30905000	      3089	800005dc	0c14f613	andi	x12,x9,193	  x9:0x00000000 x12=0x00000000
       30915000	      3090	800005e0	f1668ea3	sb	x22,-227(x13)	 x13:0x80008e75 x22:0x00002a00 PA:0x80008d92
       30925000	      3091	800005e4	24568393	addi	x7,x13,581	 x13:0x80008e75  x7=0x800090ba
       30935000	      3092	800005e8	69257b13	andi	x22,x10,1682	 x10:0x00000052 x22=0x00000012
       30945000	      3093	800005ec	05f6c983	lbu	x19,95(x13)	 x13:0x80008e75 x19=0x000000bf PA:0x80008ed4
       30955000	      3094	800005f0	07568183	lb	x3,117(x13)	 x13:0x80008e75  x3=0xffffffd1 PA:0x80008eea
       30965000	      3095	800005f4	f196c003	lbu	x0,-231(x13)	 x13:0x80008e75 PA:0x80008d8e
       30975000	      3096	800005f8	02b686a3	sb	x11,45(x13)	 x13:0x80008e75 x11:0xffffffdb PA:0x80008ea2
       30985000	      3097	800005fc	0e868403	lb	x8,232(x13)	 x13:0x80008e75  x8=0x00000046 PA:0x80008f5d
       30995000	      3098	80000600	41ccd213	srai	x4,x25,0x1c	 x25:0x000000b4  x4=0x00000000
       31005000	      3099	80000604	1ede2d13	slti	x26,x28,493	 x28:0x00007e7f x26=0x00000000
       31015000	      3100	80000608	0b86c983	lbu	x19,184(x13)	 x13:0x80008e75 x19=0x00000016 PA:0x80008f2d
       31025000	      3101	8000060c	01c31093	slli	x1,x6,0x1c	  x6:0x00000000  x1=0x00000000
       31035000	      3102	80000610	0506c383	lbu	x7,80(x13)	 x13:0x80008e75  x7=0x000000ae PA:0x80008ec5
       31045000	      3103	80000614	fca68603	lb	x12,-54(x13)	 x13:0x80008e75 x12=0x00000024 PA:0x80008e3f
       31055000	      3104	80000618	01e68823	sb	x30,16(x13)	 x13:0x80008e75 x30:0x000000be PA:0x80008e85
       31065000	      3105	8000061c	01f68623	sb	x31,12(x13)	 x13:0x80008e75 x31:0x80009fc4 PA:0x80008e81
       31075000	      3106	80000620	e5ae8593	addi	x11,x29,-422	 x29:0xff80009f x11=0xff7ffef9
       31085000	      3107	80000624	a01a4b37	lui	x22,0xa01a4	 x22=0xa01a4000
       31095000	      3108	80000628	00698eb3	add	x29,x19,x6	 x19:0x00000016  x6:0x00000000 x29=0x00000016
       31105000	      3109	8000062c	fcf6db03	lhu	x22,-49(x13)	 x13:0x80008e75 x22=0x00002e2f PA:0x80008e44
       31115000	      3110	80000630	f7b6d983	lhu	x19,-133(x13)	 x13:0x80008e75 x19=0x0000dadb PA:0x80008df0
       31125000	      3111	80000634	09c68883	lb	x17,156(x13)	 x13:0x80008e75 x17=0xfffffffa PA:0x80008f11
       31135000	      3112	80000638	0021b533	sltu	x10,x3,x2	  x3:0xffffffd1  x2:0xb7aee122 x10=0x00000000
       31145000	      3113	8000063c	fa368903	lb	x18,-93(x13)	 x13:0x80008e75 x18=0x00000003 PA:0x80008e18
       31155000	      3114	80000640	f8d693a3	sh	x13,-121(x13)	 x13:0x80008e75 x13:0x80008e75 PA:0x80008dfc
       31165000	      3115	80000644	08768e23	sb	x7,156(x13)	 x13:0x80008e75  x7:0x000000ae PA:0x80008f11
       31175000	      3116	80000648	030ff917	auipc	x18,0x30ff	 x18=0x830ff644
       31185000	      3117	8000064c	f536c183	lbu	x3,-173(x13)	 x13:0x80008e75  x3=0x000000b3 PA:0x80008dc8
       31195000	      3118	80000650	630c4d13	xori	x26,x24,1584	 x24:0x000044a5 x26=0x00004295
       31205000	      3119	80000654	19947d13	andi	x26,x8,409	  x8:0x00000046 x26=0x00000000
       31215000	      3120	80000658	01035c33	srl	x24,x6,x16	  x6:0x00000000 x16:0xfffffffa x24=0x00000000
       31225000	      3121	8000065c	40b302b3	sub	x5,x6,x11	  x6:0x00000000 x11:0xff7ffef9  x5=0x00800107
       31235000	      3122	80000660	f5333f37	lui	x30,0xf5333	 x30=0xf5333000
       31245000	      3123	80000664	ff068983	lb	x19,-16(x13)	 x13:0x80008e75 x19=0x0000004e PA:0x80008e65
       31255000	      3124	80000668	fb668283	lb	x5,-74(x13)	 x13:0x80008e75  x5=0x00000010 PA:0x80008e2b
       31265000	      3125	8000066c	f5368fa3	sb	x19,-161(x13)	 x13:0x80008e75 x19:0x0000004e PA:0x80008dd4
       31275000	      3126	80000670	09d68d23	sb	x29,154(x13)	 x13:0x80008e75 x29:0x00000016 PA:0x80008f0f
       31285000	      3127	80000674	f746c783	lbu	x15,-140(x13)	 x13:0x80008e75 x15=0x000000d2 PA:0x80008de9
       31295000	      3128	80000678	07b6a383	lw	x7,123(x13)	 x13:0x80008e75  x7=0xd8d9dadb PA:0x80008ef0
       31305000	      3129	8000067c	00008f17	auipc	x30,0x8	 x30=0x80008678
       31315000	      3130	80000680	3cdf0f13	addi	x30,x30,973	 x30:0x80008678 x30=0x80008a45
       31325000	      3131	80000684	78c34313	xori	x6,x6,1932	  x6:0x00000000  x6=0x0000078c
       31335000	      3132	80000688	01b29713	slli	x14,x5,0x1b	  x5:0x00000010 x14=0x80000000
       31345000	      3133	8000068c	016f13a3	sh	x22,7(x30)	 x30:0x80008a45 x22:0x00002e2f PA:0x80008a4c
       31355000	      3134	80000690	00bf2a03	lw	x20,11(x30)	 x30:0x80008a45 x20=0x38393a3b PA:0x80008a50
       31365000	      3135	80000694	ffaf0003	lb	x0,-6(x30)	 x30:0x80008a45 PA:0x80008a3f
       31375000	      3136	80000698	003f4283	lbu	x5,3(x30)	 x30:0x80008a45  x5=0x00000033 PA:0x80008a48
       31385000	      3137	8000069c	feaf0d23	sb	x10,-6(x30)	 x30:0x80008a45 x10:0x00000000 PA:0x80008a3f
       31395000	      3138	800006a0	00000013	addi	x0,x0,0	  x0:0x00000000
       31405000	      3139	800006a4	5d86f913	andi	x18,x13,1496	 x13:0x80008e75 x18=0x00000450
       31415000	      3140	800006a8	a904fa13	andi	x20,x9,-1392	  x9:0x00000000 x20=0x00000000
       31425000	      3141	800006ac	ff3f1da3	sh	x19,-5(x30)	 x30:0x80008a45 x19:0x0000004e PA:0x80008a40
       31435000	      3142	800006b0	41938733	sub	x14,x7,x25	  x7:0xd8d9dadb x25:0x000000b4 x14=0xd8d9da27
       31445000	      3143	800006b4	40c95033	sra	x0,x18,x12	 x18:0x00000450 x12:0x00000024
       31455000	      3144	800006b8	3ab56613	ori	x12,x10,939	 x10:0x00000000 x12=0x000003ab
       31465000	      3145	800006bc	007f2503	lw	x10,7(x30)	 x30:0x80008a45 x10=0x34352e2f PA:0x80008a4c
       31475000	      3146	800006c0	018ed813	srli	x16,x29,0x18	 x29:0x00000016 x16=0x00000000
       31485000	      3147	800006c4	a1277e13	andi	x28,x14,-1518	 x14:0xd8d9da27 x28=0xd8d9da02
       31495000	      3148	800006c8	016ea8b3	slt	x17,x29,x22	 x29:0x00000016 x22:0x00002e2f x17=0x00000001
       31505000	      3149	800006cc	010900b3	add	x1,x18,x16	 x18:0x00000450 x16:0x00000000  x1=0x00000450
       31515000	      3150	800006d0	08404a13	xori	x20,x0,132	  x0:0x00000000 x20=0x00000084
       31525000	      3151	800006d4	fe3f0c23	sb	x3,-8(x30)	 x30:0x80008a45  x3:0x000000b3 PA:0x80008a3d
       31535000	      3152	800006d8	ffaf4d83	lbu	x27,-6(x30)	 x30:0x80008a45 x27=0x00000000 PA:0x80008a3f
       31545000	      3153	800006dc	001b9e13	slli	x28,x23,0x1	 x23:0x75540367 x28=0xeaa806ce
       31555000	      3154	800006e0	019ad213	srli	x4,x21,0x19	 x21:0x80009f84  x4=0x00000040
       31565000	      3155	800006e4	f61b3813	sltiu	x16,x22,-159	 x22:0x00002e2f x16=0x00000001
       31575000	      3156	800006e8	01cbdd33	srl	x26,x23,x28	 x23:0x75540367 x28:0xeaa806ce x26=0x0001d550
       31585000	      3157	800006ec	4d402293	slti	x5,x0,1236	  x0:0x00000000  x5=0x00000001
       31595000	      3158	800006f0	009f0083	lb	x1,9(x30)	 x30:0x80008a45  x1=0x00000035 PA:0x80008a4e
       31605000	      3159	800006f4	bc7bfc37	lui	x24,0xbc7bf	 x24=0xbc7bf000
       31615000	      3160	800006f8	0150f633	and	x12,x1,x21	  x1:0x00000035 x21:0x80009f84 x12=0x00000004
       31625000	      3161	800006fc	5f3d5637	lui	x12,0x5f3d5	 x12=0x5f3d5000
       31635000	      3162	80000700	4183db33	sra	x22,x7,x24	  x7:0xd8d9dadb x24:0xbc7bf000 x22=0xd8d9dadb
       31645000	      3163	80000704	a0ae4093	xori	x1,x28,-1526	 x28:0xeaa806ce  x1=0x1557fcc4
       31655000	      3164	80000708	004cccb3	xor	x25,x25,x4	 x25:0x000000b4  x4:0x00000040 x25=0x000000f4
       31665000	      3165	8000070c	5a55e193	ori	x3,x11,1445	 x11:0xff7ffef9  x3=0xff7ffffd
       31675000	      3166	80000710	00df5d83	lhu	x27,13(x30)	 x30:0x80008a45 x27=0x00003839 PA:0x80008a52
       31685000	      3167	80000714	00ff4e83	lbu	x29,15(x30)	 x30:0x80008a45 x29=0x0000003f PA:0x80008a54
       31695000	      3168	80000718	ffcf4183	lbu	x3,-4(x30)	 x30:0x80008a45  x3=0x00000000 PA:0x80008a41
       31705000	      3169	8000071c	006f0523	sb	x6,10(x30)	 x30:0x80008a45  x6:0x0000078c PA:0x80008a4f
       31715000	      3170	80000720	00ff3833	sltu	x16,x30,x15	 x30:0x80008a45 x15:0x000000d2 x16=0x00000000
       31725000	      3171	80000724	00ff5403	lhu	x8,15(x30)	 x30:0x80008a45  x8=0x00003e3f PA:0x80008a54
       31735000	      3172	80000728	b3e8f837	lui	x16,0xb3e8f	 x16=0xb3e8f000
       31745000	      3173	8000072c	026c0663	beq	x24,x6,80000758	 x24:0xbc7bf000  x6:0x0000078c
       31755000	      3174	80000730	05510863	beq	x2,x21,80000780	  x2:0xb7aee122 x21:0x80009f84
       31765000	      3175	80000734	00000013	addi	x0,x0,0	  x0:0x00000000
       31775000	      3176	80000738	00c5ab33	slt	x22,x11,x12	 x11:0xff7ffef9 x12:0x5f3d5000 x22=0x00000001
       31785000	      3177	8000073c	01609b93	slli	x23,x1,0x16	  x1:0x1557fcc4 x23=0x31000000
       31795000	      3178	80000740	04878663	beq	x15,x8,8000078c	 x15:0x000000d2  x8:0x00003e3f
       31805000	      3179	80000744	65b1e693	ori	x13,x3,1627	  x3:0x00000000 x13=0x0000065b
       31815000	      3180	80000748	01d1e7b3	or	x15,x3,x29	  x3:0x00000000 x29:0x0000003f x15=0x0000003f
       31825000	      3181	8000074c	00b85593	srli	x11,x16,0xb	 x16:0xb3e8f000 x11=0x00167d1e
       31835000	      3182	80000750	010fc1b3	xor	x3,x31,x16	 x31:0x80009fc4 x16:0xb3e8f000  x3=0x33e86fc4
       31845000	      3183	80000754	0345ec63	bltu	x11,x20,8000078c	 x11:0x00167d1e x20:0x00000084
       31855000	      3184	80000758	010120b3	slt	x1,x2,x16	  x2:0xb7aee122 x16:0xb3e8f000  x1=0x00000000
       31865000	      3185	8000075c	01ceb233	sltu	x4,x29,x28	 x29:0x0000003f x28:0xeaa806ce  x4=0x00000001
       31875000	      3186	80000760	41125513	srai	x10,x4,0x11	  x4:0x00000001 x10=0x00000000
       31885000	      3187	80000764	010ef633	and	x12,x29,x16	 x29:0x0000003f x16:0xb3e8f000 x12=0x00000000
       31895000	      3188	80000768	01b4ee63	bltu	x9,x27,80000784	  x9:0x00000000 x27:0x00003839
       31905000	      3189	00000000	00000013	addi	x0,x0,0	  x0:0x00000000
       31915000	      3190	80000780	00000013	addi	x0,x0,0	  x0:0x00000000
       31925000	      3191	80000784	007ea7b3	slt	x15,x29,x7	 x29:0x0000003f  x7:0xd8d9dadb x15=0x00000000
       31935000	      3192	80000788	01a25933	srl	x18,x4,x26	  x4:0x00000001 x26:0x0001d550 x18=0x00000000
       31945000	      3193	8000078c	004a5893	srli	x17,x20,0x4	 x20:0x00000084 x17=0x00000008
       31955000	      3194	80000790	01aa4863	blt	x20,x26,800007a0	 x20:0x00000084 x26:0x0001d550
       31965000	      3195	00000000	00000013	addi	x0,x0,0	  x0:0x00000000
       31975000	      3196	8000079c	00000013	addi	x0,x0,0	  x0:0x00000000
       31985000	      3197	800007a0	00bb1293	slli	x5,x22,0xb	 x22:0x00000001  x5=0x00000800
       31995000	      3198	800007a4	e893b093	sltiu	x1,x7,-375	  x7:0xd8d9dadb  x1=0x00000001
       32005000	      3199	800007a8	b6ee3813	sltiu	x16,x28,-1170	 x28:0xeaa806ce x16=0x00000001
       32015000	      3200	800007ac	00b9b433	sltu	x8,x19,x11	 x19:0x0000004e x11:0x00167d1e  x8=0x00000001
       32025000	      3201	800007b0	016f97b3	sll	x15,x31,x22	 x31:0x80009fc4 x22:0x00000001 x15=0x00013f88
       32035000	      3202	800007b4	01d8d313	srli	x6,x17,0x1d	 x17:0x00000008  x6=0x00000000
       32045000	      3203	800007b8	aeb17c13	andi	x24,x2,-1301	  x2:0xb7aee122 x24=0xb7aee022
       32055000	      3204	800007bc	41c786b3	sub	x13,x15,x28	 x15:0x00013f88 x28:0xeaa806ce x13=0x155938ba
       32065000	      3205	800007c0	41808bb3	sub	x23,x1,x24	  x1:0x00000001 x24:0xb7aee022 x23=0x48511fdf
       32075000	      3206	800007c4	00befb33	and	x22,x29,x11	 x29:0x0000003f x11:0x00167d1e x22=0x0000001e
       32085000	      3207	800007c8	005fad33	slt	x26,x31,x5	 x31:0x80009fc4  x5:0x00000800 x26=0x00000001
       32095000	      3208	800007cc	01bde6b3	or	x13,x27,x27	 x27:0x00003839 x27:0x00003839 x13=0x00003839
       32105000	      3209	800007d0	010d4f33	xor	x30,x26,x16	 x26:0x00000001 x16:0x00000001 x30=0x00000000
       32115000	      3210	800007d4	f77aa017	auipc	x0,0xf77aa	
       32125000	      3211	800007d8	cac0bd93	sltiu	x27,x1,-852	  x1:0x00000001 x27=0x00000001
       32135000	      3212	800007dc	0197adb3	slt	x27,x15,x25	 x15:0x00013f88 x25:0x000000f4 x27=0x00000000
       32145000	      3213	800007e0	00021c33	sll	x24,x4,x0	  x4:0x00000001  x0:0x00000000 x24=0x00000001
       32155000	      3214	800007e4	0151dc93	srli	x25,x3,0x15	  x3:0x33e86fc4 x25=0x0000019f
       32165000	      3215	800007e8	41d406b3	sub	x13,x8,x29	  x8:0x00000001 x29:0x0000003f x13=0xffffffc2
       32175000	      3216	800007ec	008ad693	srli	x13,x21,0x8	 x21:0x80009f84 x13=0x0080009f
       32185000	      3217	800007f0	002fb633	sltu	x12,x31,x2	 x31:0x80009fc4  x2:0xb7aee122 x12=0x00000001
       32195000	      3218	800007f4	944a6713	ori	x14,x20,-1724	 x20:0x00000084 x14=0xfffff9c4
       32205000	      3219	800007f8	3553ba13	sltiu	x20,x7,853	  x7:0xd8d9dadb x20=0x00000000
       32215000	      3220	800007fc	004494b3	sll	x9,x9,x4	  x9:0x00000000  x4:0x00000001  x9=0x00000000
       32225000	      3221	80000800	00e65eb3	srl	x29,x12,x14	 x12:0x00000001 x14:0xfffff9c4 x29=0x00000000
       32235000	      3222	80000804	04426063	bltu	x4,x4,80000844	  x4:0x00000001  x4:0x00000001
       32245000	      3223	80000808	02e28e63	beq	x5,x14,80000844	  x5:0x00000800 x14:0xfffff9c4
       32255000	      3224	8000080c	41cf89b3	sub	x19,x31,x28	 x31:0x80009fc4 x28:0xeaa806ce x19=0x955898f6
       32265000	      3225	80000810	409886b3	sub	x13,x17,x9	 x17:0x00000008  x9:0x00000000 x13=0x00000008
       32275000	      3226	80000814	000e9913	slli	x18,x29,0x0	 x29:0x00000000 x18=0x00000000
       32285000	      3227	80000818	025f5263	bge	x30,x5,8000083c	 x30:0x00000000  x5:0x00000800
       32295000	      3228	8000081c	01947c63	bgeu	x8,x25,80000834	  x8:0x00000001 x25:0x0000019f
       32305000	      3229	80000820	00000013	addi	x0,x0,0	  x0:0x00000000
       32315000	      3230	80000824	41fcdb93	srai	x23,x25,0x1f	 x25:0x0000019f x23=0x00000000
       32325000	      3231	80000828	010f1813	slli	x16,x30,0x10	 x30:0x00000000 x16=0x00000000
       32335000	      3232	8000082c	41640433	sub	x8,x8,x22	  x8:0x00000001 x22:0x0000001e  x8=0xffffffe3
       32345000	      3233	80000830	4ed67493	andi	x9,x12,1261	 x12:0x00000001  x9=0x00000001
       32355000	      3234	80000834	95eb3e93	sltiu	x29,x22,-1698	 x22:0x0000001e x29=0x00000001
       32365000	      3235	80000838	01009c63	bne	x1,x16,80000850	  x1:0x00000001 x16:0x00000000
       32375000	      3236	00000000	00000013	addi	x0,x0,0	  x0:0x00000000
       32385000	      3237	8000084c	00000013	addi	x0,x0,0	  x0:0x00000000
       32395000	      3238	80000850	4018d8b3	sra	x17,x17,x1	 x17:0x00000008  x1:0x00000001 x17=0x00000004
       32405000	      3239	80000854	01018333	add	x6,x3,x16	  x3:0x33e86fc4 x16:0x00000000  x6=0x33e86fc4
       32415000	      3240	80000858	00dd5533	srl	x10,x26,x13	 x26:0x00000001 x13:0x00000008 x10=0x00000000
       32425000	      3241	8000085c	b2f61037	lui	x0,0xb2f61	
       32435000	      3242	80000860	401dd693	srai	x13,x27,0x1	 x27:0x00000000 x13=0x00000000
       32445000	      3243	80000864	beaf5597	auipc	x11,0xbeaf5	 x11=0x3eaf5860
       32455000	      3244	80000868	00f765b3	or	x11,x14,x15	 x14:0xfffff9c4 x15:0x00013f88 x11=0xffffffcc
       32465000	      3245	8000086c	01100633	add	x12,x0,x17	  x0:0x00000000 x17:0x00000004 x12=0x00000004
       32475000	      3246	80000870	40c95913	srai	x18,x18,0xc	 x18:0x00000000 x18=0x00000000
       32485000	      3247	80000874	00000013	addi	x0,x0,0	  x0:0x00000000
       32495000	      3248	80000878	01ce0a63	beq	x28,x28,8000088c	 x28:0xeaa806ce x28:0xeaa806ce
       32505000	      3249	00000000	00000013	addi	x0,x0,0	  x0:0x00000000
       32515000	      3250	80000888	00000013	addi	x0,x0,0	  x0:0x00000000
       32525000	      3251	8000088c	04fb4063	blt	x22,x15,800008cc	 x22:0x0000001e x15:0x00013f88
       32535000	      3252	00000000	00000013	addi	x0,x0,0	  x0:0x00000000
       32545000	      3253	800008c8	00000013	addi	x0,x0,0	  x0:0x00000000
       32555000	      3254	800008cc	9ff57213	andi	x4,x10,-1537	 x10:0x00000000  x4=0x00000000
       32565000	      3255	800008d0	0134c1b3	xor	x3,x9,x19	  x9:0x00000001 x19:0x955898f6  x3=0x955898f7
       32575000	      3256	800008d4	01c8d8b3	srl	x17,x17,x28	 x17:0x00000004 x28:0xeaa806ce x17=0x00000000
       32585000	      3257	800008d8	01fe4d13	xori	x26,x28,31	 x28:0xeaa806ce x26=0xeaa806d1
       32595000	      3258	800008dc	01a43a33	sltu	x20,x8,x26	  x8:0xffffffe3 x26:0xeaa806d1 x20=0x00000000
       32605000	      3259	800008e0	02b75463	bge	x14,x11,80000908	 x14:0xfffff9c4 x11:0xffffffcc
       32615000	      3260	800008e4	00000013	addi	x0,x0,0	  x0:0x00000000
       32625000	      3261	800008e8	02b17663	bgeu	x2,x11,80000914	  x2:0xb7aee122 x11:0xffffffcc
       32635000	      3262	800008ec	6c639697	auipc	x13,0x6c639	 x13=0xec6398e8
       32645000	      3263	800008f0	404456b3	sra	x13,x8,x4	  x8:0xffffffe3  x4:0x00000000 x13=0xffffffe3
       32655000	      3264	800008f4	02aad263	bge	x21,x10,80000918	 x21:0x80009f84 x10:0x00000000
       32665000	      3265	800008f8	008424b3	slt	x9,x8,x8	  x8:0xffffffe3  x8:0xffffffe3  x9=0x00000000
       32675000	      3266	800008fc	0093ff33	and	x30,x7,x9	  x7:0xd8d9dadb  x9:0x00000000 x30=0x00000000
       32685000	      3267	80000900	747f9917	auipc	x18,0x747f9	 x18=0xf47f98fc
       32695000	      3268	80000904	02100a63	beq	x0,x1,80000938	  x0:0x00000000  x1:0x00000001
       32705000	      3269	80000908	02b0c063	blt	x1,x11,80000928	  x1:0x00000001 x11:0xffffffcc
       32715000	      3270	8000090c	0213e663	bltu	x7,x1,80000938	  x7:0xd8d9dadb  x1:0x00000001
       32725000	      3271	80000910	018bc633	xor	x12,x23,x24	 x23:0x00000000 x24:0x00000001 x12=0x00000001
       32735000	      3272	80000914	40400933	sub	x18,x0,x4	  x0:0x00000000  x4:0x00000000 x18=0x00000000
       32745000	      3273	80000918	1e544f13	xori	x30,x8,485	  x8:0xffffffe3 x30=0xfffffe06
       32755000	      3274	8000091c	00629f33	sll	x30,x5,x6	  x5:0x00000800  x6:0x33e86fc4 x30=0x00008000
       32765000	      3275	80000920	c62bf093	andi	x1,x23,-926	 x23:0x00000000  x1=0x00000000
       32775000	      3276	80000924	64c79b17	auipc	x22,0x64c79	 x22=0xe4c79920
       32785000	      3277	80000928	413ad633	sra	x12,x21,x19	 x21:0x80009f84 x19:0x955898f6 x12=0xfffffe00
       32795000	      3278	8000092c	f5a84d13	xori	x26,x16,-166	 x16:0x00000000 x26=0xffffff5a
       32805000	      3279	80000930	01c91533	sll	x10,x18,x28	 x18:0x00000000 x28:0xeaa806ce x10=0x00000000
       32815000	      3280	80000934	016e3cb3	sltu	x25,x28,x22	 x28:0xeaa806ce x22:0xe4c79920 x25=0x00000000
       32825000	      3281	80000938	01f1c8b3	xor	x17,x3,x31	  x3:0x955898f7 x31:0x80009fc4 x17=0x15580733
       32835000	      3282	8000093c	506a3c13	sltiu	x24,x20,1286	 x20:0x00000000 x24=0x00000001
       32845000	      3283	80000940	8a660f17	auipc	x30,0x8a660	 x30=0x0a66093c
       32855000	      3284	80000944	00008a17	auipc	x20,0x8	 x20=0x80008940
       32865000	      3285	80000948	a3ca0a13	addi	x20,x20,-1476	 x20:0x80008940 x20=0x8000837c
       32875000	      3286	8000094c	37252913	slti	x18,x10,882	 x10:0x00000000 x18=0x00000001
       32885000	      3287	80000950	011f9c33	sll	x24,x31,x17	 x31:0x80009fc4 x17:0x15580733 x24=0xfe200000
       32895000	      3288	80000954	013d8333	add	x6,x27,x19	 x27:0x00000000 x19:0x955898f6  x6=0x955898f6
       32905000	      3289	80000958	007799b3	sll	x19,x15,x7	 x15:0x00013f88  x7:0xd8d9dadb x19=0x40000000
       32915000	      3290	8000095c	e3ca2e23	sw	x28,-452(x20)	 x20:0x8000837c x28:0xeaa806ce PA:0x800081b8
       32925000	      3291	80000960	edb9b337	lui	x6,0xedb9b	  x6=0xedb9b000
       32935000	      3292	80000964	2d7a0683	lb	x13,727(x20)	 x20:0x8000837c x13=0x00000008 PA:0x80008653
       32945000	      3293	80000968	367a4983	lbu	x19,871(x20)	 x20:0x8000837c x19=0x00000098 PA:0x800086e3
       32955000	      3294	8000096c	2ada2623	sw	x13,684(x20)	 x20:0x8000837c x13:0x00000008 PA:0x80008628
       32965000	      3295	80000970	e4aa4b83	lbu	x23,-438(x20)	 x20:0x8000837c x23=0x0000007d PA:0x800081c6
       32975000	      3296	80000974	d7ea0803	lb	x16,-642(x20)	 x20:0x8000837c x16=0x00000052 PA:0x800080fa
       32985000	      3297	80000978	016b53b3	srl	x7,x22,x22	 x22:0xe4c79920 x22:0xe4c79920  x7=0xe4c79920
       32995000	      3298	8000097c	00000013	addi	x0,x0,0	  x0:0x00000000
       33005000	      3299	80000980	d9ea1a23	sh	x30,-620(x20)	 x20:0x8000837c x30:0x0a66093c PA:0x80008110
       33015000	      3300	80000984	0194d793	srli	x15,x9,0x19	  x9:0x00000000 x15=0x00000000
       33025000	      3301	80000988	f51a0c03	lb	x24,-175(x20)	 x20:0x8000837c x24=0xffffff86 PA:0x800082cd
       33035000	      3302	8000098c	073a08a3	sb	x19,113(x20)	 x20:0x8000837c x19:0x00000098 PA:0x800083ed
       33045000	      3303	80000990	079a0683	lb	x13,121(x20)	 x20:0x8000837c x13=0xffffffae PA:0x800083f5
       33055000	      3304	80000994	389a0883	lb	x17,905(x20)	 x20:0x8000837c x17=0xffffffbe PA:0x80008705
       33065000	      3305	80000998	00b0a7b3	slt	x15,x1,x11	  x1:0x00000000 x11:0xffffffcc x15=0x00000000
       33075000	      3306	8000099c	d04a1923	sh	x4,-750(x20)	 x20:0x8000837c  x4:0x00000000 PA:0x8000808e
       33085000	      3307	800009a0	f9aa5083	lhu	x1,-102(x20)	 x20:0x8000837c  x1=0x0000cccd PA:0x80008316
       33095000	      3308	800009a4	45aa0123	sb	x26,1090(x20)	 x20:0x8000837c x26:0xffffff5a PA:0x800087be
       33105000	      3309	800009a8	f4f1b9b7	lui	x19,0xf4f1b	 x19=0xf4f1b000
       33115000	      3310	800009ac	0162e4b3	or	x9,x5,x22	  x5:0x00000800 x22:0xe4c79920  x9=0xe4c79920
       33125000	      3311	800009b0	ee7a1523	sh	x7,-278(x20)	 x20:0x8000837c  x7:0xe4c79920 PA:0x80008266
       33135000	      3312	800009b4	04ea0fa3	sb	x14,95(x20)	 x20:0x8000837c x14:0xfffff9c4 PA:0x800083db
       33145000	      3313	800009b8	1c3a4783	lbu	x15,451(x20)	 x20:0x8000837c x15=0x000000f4 PA:0x8000853f
       33155000	      3314	800009bc	41745c13	srai	x24,x8,0x17	  x8:0xffffffe3 x24=0xffffffff
       33165000	      3315	800009c0	1a7a0283	lb	x5,423(x20)	 x20:0x8000837c  x5=0xffffffd8 PA:0x80008523
       33175000	      3316	800009c4	8a660f13	addi	x30,x12,-1882	 x12:0xfffffe00 x30=0xfffff6a6
       33185000	      3317	800009c8	729cab13	slti	x22,x25,1833	 x25:0x00000000 x22=0x00000001
       33195000	      3318	800009cc	df6a4883	lbu	x17,-522(x20)	 x20:0x8000837c x17=0x00000029 PA:0x80008172
       33205000	      3319	800009d0	ccf41897	auipc	x17,0xccf41	 x17=0x4cf419cc
       33215000	      3320	800009d4	e92a0203	lb	x4,-366(x20)	 x20:0x8000837c  x4=0xffffffc5 PA:0x8000820e
       33225000	      3321	800009d8	fa5a0803	lb	x16,-91(x20)	 x20:0x8000837c x16=0xffffffda PA:0x80008321
       33235000	      3322	800009dc	1caa5283	lhu	x5,458(x20)	 x20:0x8000837c  x5=0x0000fcfd PA:0x80008546
       33245000	      3323	800009e0	f82a04a3	sb	x2,-119(x20)	 x20:0x8000837c  x2:0xb7aee122 PA:0x80008305
       33255000	      3324	800009e4	018f7733	and	x14,x30,x24	 x30:0xfffff6a6 x24:0xffffffff x14=0xfffff6a6
       33265000	      3325	800009e8	00000013	addi	x0,x0,0	  x0:0x00000000
       33275000	      3326	800009ec	202a5d83	lhu	x27,514(x20)	 x20:0x8000837c x27=0x00003435 PA:0x8000857e
       33285000	      3327	800009f0	3bacab97	auipc	x23,0x3baca	 x23=0xbbaca9ec
       33295000	      3328	800009f4	72331897	auipc	x17,0x72331	 x17=0xf23319f0
       33305000	      3329	800009f8	01ff5f13	srli	x30,x30,0x1f	 x30:0xfffff6a6 x30=0x00000001
       33315000	      3330	800009fc	013b9633	sll	x12,x23,x19	 x23:0xbbaca9ec x19:0xf4f1b000 x12=0xbbaca9ec
       33325000	      3331	80000a00	011b87b3	add	x15,x23,x17	 x23:0xbbaca9ec x17:0xf23319f0 x15=0xaddfc3dc
       33335000	      3332	80000a04	94a0cf13	xori	x30,x1,-1718	  x1:0x0000cccd x30=0xffff3587
       33345000	      3333	80000a08	4f6d0c13	addi	x24,x26,1270	 x26:0xffffff5a x24=0x00000450
       33355000	      3334	80000a0c	e5f48313	addi	x6,x9,-417	  x9:0xe4c79920  x6=0xe4c7977f
       33365000	      3335	80000a10	25866f13	ori	x30,x12,600	 x12:0xbbaca9ec x30=0xbbacabfc
       33375000	      3336	80000a14	03709e63	bne	x1,x23,80000a50	  x1:0x0000cccd x23:0xbbaca9ec
       33385000	      3337	00000000	00000013	addi	x0,x0,0	  x0:0x00000000
       33395000	      3338	80000a4c	00000013	addi	x0,x0,0	  x0:0x00000000
       33405000	      3339	80000a50	042a0063	beq	x20,x2,80000a90	 x20:0x8000837c  x2:0xb7aee122
       33415000	      3340	80000a54	6deec8b7	lui	x17,0x6deec	 x17=0x6deec000
       33425000	      3341	80000a58	de4b0d13	addi	x26,x22,-540	 x22:0x00000001 x26=0xfffffde5
       33435000	      3342	80000a5c	41bed793	srai	x15,x29,0x1b	 x29:0x00000001 x15=0x00000000
       33445000	      3343	80000a60	45724737	lui	x14,0x45724	 x14=0x45724000
       33455000	      3344	80000a64	ccc57617	auipc	x12,0xccc57	 x12=0x4cc57a60
       33465000	      3345	80000a68	406c0f33	sub	x30,x24,x6	 x24:0x00000450  x6:0xe4c7977f x30=0x1b386cd1
       33475000	      3346	80000a6c	0041aeb3	slt	x29,x3,x4	  x3:0x955898f7  x4:0xffffffc5 x29=0x00000001
       33485000	      3347	80000a70	954a6213	ori	x4,x20,-1708	 x20:0x8000837c  x4=0xfffffb7c
       33495000	      3348	80000a74	7ba1b893	sltiu	x17,x3,1978	  x3:0x955898f7 x17=0x00000000
       33505000	      3349	80000a78	bd2bc893	xori	x17,x23,-1070	 x23:0xbbaca9ec x17=0x4453523e
       33515000	      3350	80000a7c	00cbf6b3	and	x13,x23,x12	 x23:0xbbaca9ec x12:0x4cc57a60 x13=0x08842860
       33525000	      3351	80000a80	0020a6b3	slt	x13,x1,x2	  x1:0x0000cccd  x2:0xb7aee122 x13=0x00000000
       33535000	      3352	80000a84	4054da13	srai	x20,x9,0x5	  x9:0xe4c79920 x20=0xff263cc9
       33545000	      3353	80000a88	02dbd263	bge	x23,x13,80000aac	 x23:0xbbaca9ec x13:0x00000000
       33555000	      3354	80000a8c	005e9f33	sll	x30,x29,x5	 x29:0x00000001  x5:0x0000fcfd x30=0x20000000
       33565000	      3355	80000a90	40815b93	srai	x23,x2,0x8	  x2:0xb7aee122 x23=0xffb7aee1
       33575000	      3356	80000a94	01e4c033	xor	x0,x9,x30	  x9:0xe4c79920 x30:0x20000000
       33585000	      3357	80000a98	0052ca33	xor	x20,x5,x5	  x5:0x0000fcfd  x5:0x0000fcfd x20=0x00000000
       33595000	      3358	80000a9c	04e27663	bgeu	x4,x14,80000ae8	  x4:0xfffffb7c x14:0x45724000
       33605000	      3359	00000000	00000013	addi	x0,x0,0	  x0:0x00000000
       33615000	      3360	80000ae4	00000013	addi	x0,x0,0	  x0:0x00000000
       33625000	      3361	80000ae8	9794cc37	lui	x24,0x9794c	 x24=0x9794c000
       33635000	      3362	80000aec	03344e63	blt	x8,x19,80000b28	  x8:0xffffffe3 x19:0xf4f1b000
       33645000	      3363	80000af0	f23b7497	auipc	x9,0xf23b7	  x9=0x723b7aec
       33655000	      3364	80000af4	a165ccb7	lui	x25,0xa165c	 x25=0xa165c000
       33665000	      3365	80000af8	405d5633	sra	x12,x26,x5	 x26:0xfffffde5  x5:0x0000fcfd x12=0xffffffff
       33675000	      3366	80000afc	00ba5e33	srl	x28,x20,x11	 x20:0x00000000 x11:0xffffffcc x28=0x00000000
       33685000	      3367	80000b00	ee88f613	andi	x12,x17,-280	 x17:0x4453523e x12=0x44535228
       33695000	      3368	80000b04	017c5c63	bge	x24,x23,80000b1c	 x24:0x9794c000 x23:0xffb7aee1
       33705000	      3369	80000b08	00c45d33	srl	x26,x8,x12	  x8:0xffffffe3 x12:0x44535228 x26=0x00ffffff
       33715000	      3370	80000b0c	04117063	bgeu	x2,x1,80000b4c	  x2:0xb7aee122  x1:0x0000cccd
       33725000	      3371	00000000	00000013	addi	x0,x0,0	  x0:0x00000000
       33735000	      3372	80000b48	00000013	addi	x0,x0,0	  x0:0x00000000
       33745000	      3373	80000b4c	00000013	addi	x0,x0,0	  x0:0x00000000
       33755000	      3374	80000b50	00000013	addi	x0,x0,0	  x0:0x00000000
       33765000	      3375	80000b54	00000013	addi	x0,x0,0	  x0:0x00000000
       33775000	      3376	80000b58	00a83a33	sltu	x20,x16,x10	 x16:0xffffffda x10:0x00000000 x20=0x00000000
       33785000	      3377	80000b5c	41005a13	srai	x20,x0,0x10	  x0:0x00000000 x20=0x00000000
       33795000	      3378	80000b60	00c12bb3	slt	x23,x2,x12	  x2:0xb7aee122 x12:0x44535228 x23=0x00000001
       33805000	      3379	80000b64	01f647b3	xor	x15,x12,x31	 x12:0x44535228 x31:0x80009fc4 x15=0xc453cdec
       33815000	      3380	80000b68	05b1f863	bgeu	x3,x27,80000bb8	  x3:0x955898f7 x27:0x00003435
       33825000	      3381	00000000	00000013	addi	x0,x0,0	  x0:0x00000000
       33835000	      3382	80000bb4	00000013	addi	x0,x0,0	  x0:0x00000000
       33845000	      3383	80000bb8	01fc13b3	sll	x7,x24,x31	 x24:0x9794c000 x31:0x80009fc4  x7=0x794c0000
       33855000	      3384	80000bbc	4186d193	srai	x3,x13,0x18	 x13:0x00000000  x3=0x00000000
       33865000	      3385	80000bc0	01558633	add	x12,x11,x21	 x11:0xffffffcc x21:0x80009f84 x12=0x80009f50
       33875000	      3386	80000bc4	016fa433	slt	x8,x31,x22	 x31:0x80009fc4 x22:0x00000001  x8=0x00000001
       33885000	      3387	80000bc8	0183a8b3	slt	x17,x7,x24	  x7:0x794c0000 x24:0x9794c000 x17=0x00000000
       33895000	      3388	80000bcc	019d9c33	sll	x24,x27,x25	 x27:0x00003435 x25:0xa165c000 x24=0x00003435
       33905000	      3389	80000bd0	01acd9b3	srl	x19,x25,x26	 x25:0xa165c000 x26:0x00ffffff x19=0x00000001
       33915000	      3390	80000bd4	022ad663	bge	x21,x2,80000c00	 x21:0x80009f84  x2:0xb7aee122
       33925000	      3391	80000bd8	7c328613	addi	x12,x5,1987	  x5:0x0000fcfd x12=0x000104c0
       33935000	      3392	80000bdc	02d97663	bgeu	x18,x13,80000c08	 x18:0x00000001 x13:0x00000000
       33945000	      3393	00000000	00000013	addi	x0,x0,0	  x0:0x00000000
       33955000	      3394	80000c04	00000013	addi	x0,x0,0	  x0:0x00000000
       33965000	      3395	80000c08	01c39c63	bne	x7,x28,80000c20	  x7:0x794c0000 x28:0x00000000
       33975000	      3396	00000000	00000013	addi	x0,x0,0	  x0:0x00000000
       33985000	      3397	80000c1c	00000013	addi	x0,x0,0	  x0:0x00000000
       33995000	      3398	80000c20	c7f84593	xori	x11,x16,-897	 x16:0xffffffda x11=0x000003a5
       34005000	      3399	80000c24	04820863	beq	x4,x8,80000c74	  x4:0xfffffb7c  x8:0x00000001
       34015000	      3400	80000c28	a6324717	auipc	x14,0xa6324	 x14=0x26324c24
       34025000	      3401	80000c2c	0a606093	ori	x1,x0,166	  x0:0x00000000  x1=0x000000a6
       34035000	      3402	80000c30	9cf5f4b7	lui	x9,0x9cf5f	  x9=0x9cf5f000
       34045000	      3403	80000c34	40360633	sub	x12,x12,x3	 x12:0x000104c0  x3:0x00000000 x12=0x000104c0
       34055000	      3404	80000c38	00429633	sll	x12,x5,x4	  x5:0x0000fcfd  x4:0xfffffb7c x12=0xd0000000
       34065000	      3405	80000c3c	415c5933	sra	x18,x24,x21	 x24:0x00003435 x21:0x80009f84 x18=0x00000343
       34075000	      3406	80000c40	00000013	addi	x0,x0,0	  x0:0x00000000
       34085000	      3407	80000c44	40a80633	sub	x12,x16,x10	 x16:0xffffffda x10:0x00000000 x12=0xffffffda
       34095000	      3408	80000c48	00816863	bltu	x2,x8,80000c58	  x2:0xb7aee122  x8:0x00000001
       34105000	      3409	80000c4c	017f1e63	bne	x30,x23,80000c68	 x30:0x20000000 x23:0x00000001
       34115000	      3410	00000000	00000013	addi	x0,x0,0	  x0:0x00000000
       34125000	      3411	80000c64	00000013	addi	x0,x0,0	  x0:0x00000000
       34135000	      3412	80000c68	00cd1cb3	sll	x25,x26,x12	 x26:0x00ffffff x12:0xffffffda x25=0xfc000000
       34145000	      3413	80000c6c	ca5b4293	xori	x5,x22,-859	 x22:0x00000001  x5=0xfffffca4
       34155000	      3414	80000c70	dd3eec13	ori	x24,x29,-557	 x29:0x00000001 x24=0xfffffdd3
       34165000	      3415	80000c74	113f3493	sltiu	x9,x30,275	 x30:0x20000000  x9=0x00000000
       34175000	      3416	80000c78	00b78933	add	x18,x15,x11	 x15:0xc453cdec x11:0x000003a5 x18=0xc453d191
       34185000	      3417	80000c7c	2eae4a13	xori	x20,x28,746	 x28:0x00000000 x20=0x000002ea
       34195000	      3418	80000c80	1d010413	addi	x8,x2,464	  x2:0xb7aee122  x8=0xb7aee2f2
       34205000	      3419	80000c84	05534863	blt	x6,x21,80000cd4	  x6:0xe4c7977f x21:0x80009f84
       34215000	      3420	80000c88	014fec63	bltu	x31,x20,80000ca0	 x31:0x80009fc4 x20:0x000002ea
       34225000	      3421	80000c8c	00f37e33	and	x28,x6,x15	  x6:0xe4c7977f x15:0xc453cdec x28=0xc443856c
       34235000	      3422	80000c90	016e5093	srli	x1,x28,0x16	 x28:0xc443856c  x1=0x00000311
       34245000	      3423	80000c94	00000013	addi	x0,x0,0	  x0:0x00000000
       34255000	      3424	80000c98	004e9213	slli	x4,x29,0x4	 x29:0x00000001  x4=0x00000010
       34265000	      3425	80000c9c	0040b2b3	sltu	x5,x1,x4	  x1:0x00000311  x4:0x00000010  x5=0x00000000
       34275000	      3426	80000ca0	027bd063	bge	x23,x7,80000cc0	 x23:0x00000001  x7:0x794c0000
       34285000	      3427	80000ca4	32127993	andi	x19,x4,801	  x4:0x00000010 x19=0x00000000
       34295000	      3428	80000ca8	00fd5533	srl	x10,x26,x15	 x26:0x00ffffff x15:0xc453cdec x10=0x00000fff
       34305000	      3429	80000cac	0096f8b3	and	x17,x13,x9	 x13:0x00000000  x9:0x00000000 x17=0x00000000
       34315000	      3430	80000cb0	20b67213	andi	x4,x12,523	 x12:0xffffffda  x4=0x0000020a
       34325000	      3431	80000cb4	0034bcb3	sltu	x25,x9,x3	  x9:0x00000000  x3:0x00000000 x25=0x00000000
       34335000	      3432	80000cb8	032f0663	beq	x30,x18,80000ce4	 x30:0x20000000 x18:0xc453d191
       34345000	      3433	80000cbc	012dfa33	and	x20,x27,x18	 x27:0x00003435 x18:0xc453d191 x20=0x00001011
       34355000	      3434	80000cc0	02e5de63	bge	x11,x14,80000cfc	 x11:0x000003a5 x14:0x26324c24
       34365000	      3435	80000cc4	40dd8db3	sub	x27,x27,x13	 x27:0x00003435 x13:0x00000000 x27=0x00003435
       34375000	      3436	80000cc8	4085d3b3	sra	x7,x11,x8	 x11:0x000003a5  x8:0xb7aee2f2  x7=0x00000000
       34385000	      3437	80000ccc	00115a63	bge	x2,x1,80000ce0	  x2:0xb7aee122  x1:0x00000311
       34395000	      3438	80000cd0	4074dd33	sra	x26,x9,x7	  x9:0x00000000  x7:0x00000000 x26=0x00000000
       34405000	      3439	80000cd4	00fa9a13	slli	x20,x21,0xf	 x21:0x80009f84 x20=0x4fc20000
       34415000	      3440	80000cd8	cc11fd13	andi	x26,x3,-831	  x3:0x00000000 x26=0x00000000
       34425000	      3441	80000cdc	01269c13	slli	x24,x13,0x12	 x13:0x00000000 x24=0x00000000
       34435000	      3442	80000ce0	006c1313	slli	x6,x24,0x6	 x24:0x00000000  x6=0x00000000
       34445000	      3443	80000ce4	011bd513	srli	x10,x23,0x11	 x23:0x00000001 x10=0x00000000
       34455000	      3444	80000ce8	01e85013	srli	x0,x16,0x1e	 x16:0xffffffda
       34465000	      3445	80000cec	989a0e13	addi	x28,x20,-1655	 x20:0x4fc20000 x28=0x4fc1f989
       34475000	      3446	80000cf0	03680463	beq	x16,x22,80000d18	 x16:0xffffffda x22:0x00000001
       34485000	      3447	80000cf4	000a0633	add	x12,x20,x0	 x20:0x4fc20000  x0:0x00000000 x12=0x4fc20000
       34495000	      3448	80000cf8	0001e863	bltu	x3,x0,80000d08	  x3:0x00000000  x0:0x00000000
       34505000	      3449	80000cfc	5cf02c93	slti	x25,x0,1487	  x0:0x00000000 x25=0x00000001
       34515000	      3450	80000d00	00e1bf33	sltu	x30,x3,x14	  x3:0x00000000 x14:0x26324c24 x30=0x00000001
       34525000	      3451	80000d04	386f7c13	andi	x24,x30,902	 x30:0x00000001 x24=0x00000000
       34535000	      3452	80000d08	013d9493	slli	x9,x27,0x13	 x27:0x00003435  x9=0xa1a80000
       34545000	      3453	80000d0c	418653b3	sra	x7,x12,x24	 x12:0x4fc20000 x24:0x00000000  x7=0x4fc20000
       34555000	      3454	80000d10	00000013	addi	x0,x0,0	  x0:0x00000000
       34565000	      3455	80000d14	02c1ec63	bltu	x3,x12,80000d4c	  x3:0x00000000 x12:0x4fc20000
       34575000	      3456	00000000	00000013	addi	x0,x0,0	  x0:0x00000000
       34585000	      3457	80000d48	00000013	addi	x0,x0,0	  x0:0x00000000
       34595000	      3458	80000d4c	b60a4193	xori	x3,x20,-1184	 x20:0x4fc20000  x3=0xb03dfb60
       34605000	      3459	80000d50	04846863	bltu	x8,x8,80000da0	  x8:0xb7aee2f2  x8:0xb7aee2f2
       34615000	      3460	80000d54	119b4b13	xori	x22,x22,281	 x22:0x00000001 x22=0x00000118
       34625000	      3461	80000d58	04aa8063	beq	x21,x10,80000d98	 x21:0x80009f84 x10:0x00000000
       34635000	      3462	80000d5c	01d70c63	beq	x14,x29,80000d74	 x14:0x26324c24 x29:0x00000001
       34645000	      3463	80000d60	41f50f33	sub	x30,x10,x31	 x10:0x00000000 x31:0x80009fc4 x30=0x7fff603c
       34655000	      3464	80000d64	417a8333	sub	x6,x21,x23	 x21:0x80009f84 x23:0x00000001  x6=0x80009f83
       34665000	      3465	80000d68	0149cc63	blt	x19,x20,80000d80	 x19:0x00000000 x20:0x4fc20000
       34675000	      3466	00000000	00000013	addi	x0,x0,0	  x0:0x00000000
       34685000	      3467	80000d7c	00000013	addi	x0,x0,0	  x0:0x00000000
       34695000	      3468	80000d80	b5f3c493	xori	x9,x7,-1185	  x7:0x4fc20000  x9=0xb03dfb5f
       34705000	      3469	80000d84	050ef063	bgeu	x29,x16,80000dc4	 x29:0x00000001 x16:0xffffffda
       34715000	      3470	80000d88	03270c63	beq	x14,x18,80000dc0	 x14:0x26324c24 x18:0xc453d191
       34725000	      3471	80000d8c	008346b3	xor	x13,x6,x8	  x6:0x80009f83  x8:0xb7aee2f2 x13=0x37ae7d71
       34735000	      3472	80000d90	018858b3	srl	x17,x16,x24	 x16:0xffffffda x24:0x00000000 x17=0xffffffda
       34745000	      3473	80000d94	40e3d593	srai	x11,x7,0xe	  x7:0x4fc20000 x11=0x00013f08
       34755000	      3474	80000d98	3518b613	sltiu	x12,x17,849	 x17:0xffffffda x12=0x00000000
       34765000	      3475	80000d9c	416f8e33	sub	x28,x31,x22	 x31:0x80009fc4 x22:0x00000118 x28=0x80009eac
       34775000	      3476	80000da0	003313b3	sll	x7,x6,x3	  x6:0x80009f83  x3:0xb03dfb60  x7=0x80009f83
       34785000	      3477	80000da4	00b401b3	add	x3,x8,x11	  x8:0xb7aee2f2 x11:0x00013f08  x3=0xb7b021fa
       34795000	      3478	80000da8	00000013	addi	x0,x0,0	  x0:0x00000000
       34805000	      3479	80000dac	00000013	addi	x0,x0,0	  x0:0x00000000
       34815000	      3480	80000db0	0137b733	sltu	x14,x15,x19	 x15:0xc453cdec x19:0x00000000 x14=0x00000000
       34825000	      3481	80000db4	0171d533	srl	x10,x3,x23	  x3:0xb7b021fa x23:0x00000001 x10=0x5bd810fd
       34835000	      3482	80000db8	00039393	slli	x7,x7,0x0	  x7:0x80009f83  x7=0x80009f83
       34845000	      3483	80000dbc	02a1ee63	bltu	x3,x10,80000df8	  x3:0xb7b021fa x10:0x5bd810fd
       34855000	      3484	80000dc0	0d80c3b7	lui	x7,0xd80c	  x7=0x0d80c000
       34865000	      3485	80000dc4	01b3f3b3	and	x7,x7,x27	  x7:0x0d80c000 x27:0x00003435  x7=0x00000000
       34875000	      3486	80000dc8	0048db13	srli	x22,x17,0x4	 x17:0xffffffda x22=0x0ffffffd
       34885000	      3487	80000dcc	00000013	addi	x0,x0,0	  x0:0x00000000
       34895000	      3488	80000dd0	03b64a63	blt	x12,x27,80000e04	 x12:0x00000000 x27:0x00003435
       34905000	      3489	00000000	00000013	addi	x0,x0,0	  x0:0x00000000
       34915000	      3490	80000e00	00000013	addi	x0,x0,0	  x0:0x00000000
       34925000	      3491	80000e04	047a8063	beq	x21,x7,80000e44	 x21:0x80009f84  x7:0x00000000
       34935000	      3492	80000e08	01cabf33	sltu	x30,x21,x28	 x21:0x80009f84 x28:0x80009eac x30=0x00000000
       34945000	      3493	80000e0c	1bec6613	ori	x12,x24,446	 x24:0x00000000 x12=0x000001be
       34955000	      3494	80000e10	004455b3	srl	x11,x8,x4	  x8:0xb7aee2f2  x4:0x0000020a x11=0x002debb8
       34965000	      3495	80000e14	00900a33	add	x20,x0,x9	  x0:0x00000000  x9:0xb03dfb5f x20=0xb03dfb5f
       34975000	      3496	80000e18	4a8c47b7	lui	x15,0x4a8c4	 x15=0x4a8c4000
       34985000	      3497	80000e1c	007618b3	sll	x17,x12,x7	 x12:0x000001be  x7:0x00000000 x17=0x000001be
       34995000	      3498	80000e20	00e83c33	sltu	x24,x16,x14	 x16:0xffffffda x14:0x00000000 x24=0x00000000
       35005000	      3499	80000e24	b92db497	auipc	x9,0xb92db	  x9=0x392dbe20
       35015000	      3500	80000e28	01a25a13	srli	x20,x4,0x1a	  x4:0x0000020a x20=0x00000000
       35025000	      3501	80000e2c	00000013	addi	x0,x0,0	  x0:0x00000000
       35035000	      3502	80000e30	05f4f663	bgeu	x9,x31,80000e7c	  x9:0x392dbe20 x31:0x80009fc4
       35045000	      3503	80000e34	011d8833	add	x16,x27,x17	 x27:0x00003435 x17:0x000001be x16=0x000035f3
       35055000	      3504	80000e38	019c5913	srli	x18,x24,0x19	 x24:0x00000000 x18=0x00000000
       35065000	      3505	80000e3c	03ecd663	bge	x25,x30,80000e68	 x25:0x00000001 x30:0x00000000
       35075000	      3506	00000000	00000013	addi	x0,x0,0	  x0:0x00000000
       35085000	      3507	80000e64	00000013	addi	x0,x0,0	  x0:0x00000000
       35095000	      3508	80000e68	f2b24d13	xori	x26,x4,-213	  x4:0x0000020a x26=0xfffffd21
       35105000	      3509	80000e6c	8512d937	lui	x18,0x8512d	 x18=0x8512d000
       35115000	      3510	80000e70	01412833	slt	x16,x2,x20	  x2:0xb7aee122 x20:0x00000000 x16=0x00000001
       35125000	      3511	80000e74	33890813	addi	x16,x18,824	 x18:0x8512d000 x16=0x8512d338
       35135000	      3512	80000e78	d0d5b537	lui	x10,0xd0d5b	 x10=0xd0d5b000
       35145000	      3513	80000e7c	cad78a13	addi	x20,x15,-851	 x15:0x4a8c4000 x20=0x4a8c3cad
       35155000	      3514	80000e80	01e08c63	beq	x1,x30,80000e98	  x1:0x00000311 x30:0x00000000
       35165000	      3515	80000e84	9ed93593	sltiu	x11,x18,-1555	 x18:0x8512d000 x11=0x00000001
       35175000	      3516	80000e88	01461e33	sll	x28,x12,x20	 x12:0x000001be x20:0x4a8c3cad x28=0x0037c000
       35185000	      3517	80000e8c	40e25a13	srai	x20,x4,0xe	  x4:0x0000020a x20=0x00000000
       35195000	      3518	80000e90	02bc5e63	bge	x24,x11,80000ecc	 x24:0x00000000 x11:0x00000001
       35205000	      3519	80000e94	00b19cb3	sll	x25,x3,x11	  x3:0xb7b021fa x11:0x00000001 x25=0x6f6043f4
       35215000	      3520	80000e98	00000013	addi	x0,x0,0	  x0:0x00000000
       35225000	      3521	80000e9c	04bc8663	beq	x25,x11,80000ee8	 x25:0x6f6043f4 x11:0x00000001
       35235000	      3522	80000ea0	009614b3	sll	x9,x12,x9	 x12:0x000001be  x9:0x392dbe20  x9=0x000001be
       35245000	      3523	80000ea4	41055eb3	sra	x29,x10,x16	 x10:0xd0d5b000 x16:0x8512d338 x29=0xffffffd0
       35255000	      3524	80000ea8	00000013	addi	x0,x0,0	  x0:0x00000000
       35265000	      3525	80000eac	01fa9c13	slli	x24,x21,0x1f	 x21:0x80009f84 x24=0x00000000
       35275000	      3526	80000eb0	cfe86593	ori	x11,x16,-770	 x16:0x8512d338 x11=0xfffffffe
       35285000	      3527	80000eb4	40b65eb3	sra	x29,x12,x11	 x12:0x000001be x11:0xfffffffe x29=0x00000000
       35295000	      3528	80000eb8	01adbd33	sltu	x26,x27,x26	 x27:0x00003435 x26:0xfffffd21 x26=0x00000001
       35305000	      3529	80000ebc	00634033	xor	x0,x6,x6	  x6:0x80009f83  x6:0x80009f83
       35315000	      3530	80000ec0	00000013	addi	x0,x0,0	  x0:0x00000000
       35325000	      3531	80000ec4	00000013	addi	x0,x0,0	  x0:0x00000000
       35335000	      3532	80000ec8	3eb9a197	auipc	x3,0x3eb9a	  x3=0xbeb9aec4
       35345000	      3533	80000ecc	4164d013	srai	x0,x9,0x16	  x9:0x000001be
       35355000	      3534	80000ed0	41685413	srai	x8,x16,0x16	 x16:0x8512d338  x8=0xfffffe14
       35365000	      3535	80000ed4	01c507b3	add	x15,x10,x28	 x10:0xd0d5b000 x28:0x0037c000 x15=0xd10d7000
       35375000	      3536	80000ed8	015de1b3	or	x3,x27,x21	 x27:0x00003435 x21:0x80009f84  x3=0x8000bfb5
       35385000	      3537	80000edc	024f6663	bltu	x30,x4,80000f08	 x30:0x00000000  x4:0x0000020a
       35395000	      3538	00000000	00000013	addi	x0,x0,0	  x0:0x00000000
       35405000	      3539	80000f04	00000013	addi	x0,x0,0	  x0:0x00000000
       35415000	      3540	80000f08	0143cc63	blt	x7,x20,80000f20	  x7:0x00000000 x20:0x00000000
       35425000	      3541	80000f0c	76b07d13	andi	x26,x0,1899	  x0:0x00000000 x26=0x00000000
       35435000	      3542	80000f10	01c0a933	slt	x18,x1,x28	  x1:0x00000311 x28:0x0037c000 x18=0x00000001
       35445000	      3543	80000f14	0007fa63	bgeu	x15,x0,80000f28	 x15:0xd10d7000  x0:0x00000000
       35455000	      3544	00000000	00000013	addi	x0,x0,0	  x0:0x00000000
       35465000	      3545	80000f24	00000013	addi	x0,x0,0	  x0:0x00000000
       35475000	      3546	80000f28	4b1e3937	lui	x18,0x4b1e3	 x18=0x4b1e3000
       35485000	      3547	80000f2c	01ace7b3	or	x15,x25,x26	 x25:0x6f6043f4 x26:0x00000000 x15=0x6f6043f4
       35495000	      3548	80000f30	007da833	slt	x16,x27,x7	 x27:0x00003435  x7:0x00000000 x16=0x00000000
       35505000	      3549	80000f34	ff654393	xori	x7,x10,-10	 x10:0xd0d5b000  x7=0x2f2a4ff6
       35515000	      3550	80000f38	d6f230b7	lui	x1,0xd6f23	  x1=0xd6f23000
       35525000	      3551	80000f3c	0139d0b3	srl	x1,x19,x19	 x19:0x00000000 x19:0x00000000  x1=0x00000000
       35535000	      3552	80000f40	02d88c63	beq	x17,x13,80000f78	 x17:0x000001be x13:0x37ae7d71
       35545000	      3553	80000f44	00786db3	or	x27,x16,x7	 x16:0x00000000  x7:0x2f2a4ff6 x27=0x2f2a4ff6
       35555000	      3554	80000f48	01dcf733	and	x14,x25,x29	 x25:0x6f6043f4 x29:0x00000000 x14=0x00000000
       35565000	      3555	80000f4c	02e2c263	blt	x5,x14,80000f70	  x5:0x00000000 x14:0x00000000
       35575000	      3556	80000f50	40a1d8b3	sra	x17,x3,x10	  x3:0x8000bfb5 x10:0xd0d5b000 x17=0x8000bfb5
       35585000	      3557	80000f54	00000013	addi	x0,x0,0	  x0:0x00000000
       35595000	      3558	80000f58	01d74633	xor	x12,x14,x29	 x14:0x00000000 x29:0x00000000 x12=0x00000000
       35605000	      3559	80000f5c	03d0f863	bgeu	x1,x29,80000f8c	  x1:0x00000000 x29:0x00000000
       35615000	      3560	00000000	00000013	addi	x0,x0,0	  x0:0x00000000
       35625000	      3561	80000f88	00000013	addi	x0,x0,0	  x0:0x00000000
       35635000	      3562	80000f8c	01101a33	sll	x20,x0,x17	  x0:0x00000000 x17:0x8000bfb5 x20=0x00000000
       35645000	      3563	80000f90	00000013	addi	x0,x0,0	  x0:0x00000000
       35655000	      3564	80000f94	fbc26a13	ori	x20,x4,-68	  x4:0x0000020a x20=0xffffffbe
       35665000	      3565	80000f98	584c7d93	andi	x27,x24,1412	 x24:0x00000000 x27=0x00000000
       35675000	      3566	80000f9c	03a06263	bltu	x0,x26,80000fc0	  x0:0x00000000 x26:0x00000000
       35685000	      3567	80000fa0	01a85833	srl	x16,x16,x26	 x16:0x00000000 x26:0x00000000 x16=0x00000000
       35695000	      3568	80000fa4	03e75063	bge	x14,x30,80000fc4	 x14:0x00000000 x30:0x00000000
       35705000	      3569	00000000	00000013	addi	x0,x0,0	  x0:0x00000000
       35715000	      3570	80000fc0	00000013	addi	x0,x0,0	  x0:0x00000000
       35725000	      3571	80000fc4	00974033	xor	x0,x14,x9	 x14:0x00000000  x9:0x000001be
       35735000	      3572	80000fc8	2b103193	sltiu	x3,x0,689	  x0:0x00000000  x3=0x00000001
       35745000	      3573	80000fcc	16f43493	sltiu	x9,x8,367	  x8:0xfffffe14  x9=0x00000000
       35755000	      3574	80000fd0	405486b3	sub	x13,x9,x5	  x9:0x00000000  x5:0x00000000 x13=0x00000000
       35765000	      3575	80000fd4	00000013	addi	x0,x0,0	  x0:0x00000000
       35775000	      3576	80000fd8	003f24b3	slt	x9,x30,x3	 x30:0x00000000  x3:0x00000001  x9=0x00000001
       35785000	      3577	80000fdc	04b3e863	bltu	x7,x11,8000102c	  x7:0x2f2a4ff6 x11:0xfffffffe
       35795000	      3578	00000000	00000013	addi	x0,x0,0	  x0:0x00000000
       35805000	      3579	80001028	00000013	addi	x0,x0,0	  x0:0x00000000
       35815000	      3580	8000102c	00727333	and	x6,x4,x7	  x4:0x0000020a  x7:0x2f2a4ff6  x6=0x00000202
       35825000	      3581	80001030	01f774b3	and	x9,x14,x31	 x14:0x00000000 x31:0x80009fc4  x9=0x00000000
       35835000	      3582	80001034	96934493	xori	x9,x6,-1687	  x6:0x00000202  x9=0xfffffb6b
       35845000	      3583	80001038	0127cdb3	xor	x27,x15,x18	 x15:0x6f6043f4 x18:0x4b1e3000 x27=0x247e73f4
       35855000	      3584	8000103c	04bc0063	beq	x24,x11,8000107c	 x24:0x00000000 x11:0xfffffffe
       35865000	      3585	80001040	40bb5313	srai	x6,x22,0xb	 x22:0x0ffffffd  x6=0x0001ffff
       35875000	      3586	80001044	5c287013	andi	x0,x16,1474	 x16:0x00000000
       35885000	      3587	80001048	03b16263	bltu	x2,x27,8000106c	  x2:0xb7aee122 x27:0x247e73f4
       35895000	      3588	8000104c	3ee33b93	sltiu	x23,x6,1006	  x6:0x0001ffff x23=0x00000000
       35905000	      3589	80001050	01269863	bne	x13,x18,80001060	 x13:0x00000000 x18:0x4b1e3000
       35915000	      3590	00000000	00000013	addi	x0,x0,0	  x0:0x00000000
       35925000	      3591	8000105c	00000013	addi	x0,x0,0	  x0:0x00000000
       35935000	      3592	80001060	3330c413	xori	x8,x1,819	  x1:0x00000000  x8=0x00000333
       35945000	      3593	80001064	00c24c63	blt	x4,x12,8000107c	  x4:0x0000020a x12:0x00000000
       35955000	      3594	80001068	0061ad33	slt	x26,x3,x6	  x3:0x00000001  x6:0x0001ffff x26=0x00000001
       35965000	      3595	8000106c	0150f633	and	x12,x1,x21	  x1:0x00000000 x21:0x80009f84 x12=0x00000000
       35975000	      3596	80001070	11f9fc17	auipc	x24,0x11f9f	 x24=0x91fa006c
       35985000	      3597	80001074	010b4033	xor	x0,x22,x16	 x22:0x0ffffffd x16:0x00000000
       35995000	      3598	80001078	401d04b3	sub	x9,x26,x1	 x26:0x00000001  x1:0x00000000  x9=0x00000001
       36005000	      3599	8000107c	00db3233	sltu	x4,x22,x13	 x22:0x0ffffffd x13:0x00000000  x4=0x00000000
       36015000	      3600	80001080	0251cc63	blt	x3,x5,800010b8	  x3:0x00000001  x5:0x00000000
       36025000	      3601	80001084	0156ec63	bltu	x13,x21,8000109c	 x13:0x00000000 x21:0x80009f84
       36035000	      3602	00000000	00000013	addi	x0,x0,0	  x0:0x00000000
       36045000	      3603	80001098	00000013	addi	x0,x0,0	  x0:0x00000000
       36055000	      3604	8000109c	01275813	srli	x16,x14,0x12	 x14:0x00000000 x16=0x00000000
       36065000	      3605	800010a0	8d8ce613	ori	x12,x25,-1832	 x25:0x6f6043f4 x12=0xfffffbfc
       36075000	      3606	800010a4	5e00f537	lui	x10,0x5e00f	 x10=0x5e00f000
       36085000	      3607	800010a8	00000013	addi	x0,x0,0	  x0:0x00000000
       36095000	      3608	800010ac	412fdf33	sra	x30,x31,x18	 x31:0x80009fc4 x18:0x4b1e3000 x30=0x80009fc4
       36105000	      3609	800010b0	13b0fa13	andi	x20,x1,315	  x1:0x00000000 x20=0x00000000
       36115000	      3610	800010b4	00000013	addi	x0,x0,0	  x0:0x00000000
       36125000	      3611	800010b8	019827b3	slt	x15,x16,x25	 x16:0x00000000 x25:0x6f6043f4 x15=0x00000001
       36135000	      3612	800010bc	03c3f863	bgeu	x7,x28,800010ec	  x7:0x2f2a4ff6 x28:0x0037c000
       36145000	      3613	00000000	00000013	addi	x0,x0,0	  x0:0x00000000
       36155000	      3614	800010e8	00000013	addi	x0,x0,0	  x0:0x00000000
       36165000	      3615	800010ec	40750cb3	sub	x25,x10,x7	 x10:0x5e00f000  x7:0x2f2a4ff6 x25=0x2ed6a00a
       36175000	      3616	800010f0	00000013	addi	x0,x0,0	  x0:0x00000000
       36185000	      3617	800010f4	051ad863	bge	x21,x17,80001144	 x21:0x80009f84 x17:0x8000bfb5
       36195000	      3618	800010f8	0007abb3	slt	x23,x15,x0	 x15:0x00000001  x0:0x00000000 x23=0x00000000
       36205000	      3619	800010fc	4163df13	srai	x30,x7,0x16	  x7:0x2f2a4ff6 x30=0x000000bc
       36215000	      3620	80001100	0037ec63	bltu	x15,x3,80001118	 x15:0x00000001  x3:0x00000001
       36225000	      3621	80001104	7bc40637	lui	x12,0x7bc40	 x12=0x7bc40000
       36235000	      3622	80001108	d5581b37	lui	x22,0xd5581	 x22=0xd5581000
       36245000	      3623	8000110c	014f37b3	sltu	x15,x30,x20	 x30:0x000000bc x20:0x00000000 x15=0x00000000
       36255000	      3624	80001110	016b8533	add	x10,x23,x22	 x23:0x00000000 x22:0xd5581000 x10=0xd5581000
       36265000	      3625	80001114	00204863	blt	x0,x2,80001124	  x0:0x00000000  x2:0xb7aee122
       36275000	      3626	80001118	a9234e93	xori	x29,x6,-1390	  x6:0x0001ffff x29=0xfffe056d
       36285000	      3627	8000111c	81597413	andi	x8,x18,-2027	 x18:0x4b1e3000  x8=0x4b1e3000
       36295000	      3628	80001120	531df313	andi	x6,x27,1329	 x27:0x247e73f4  x6=0x00000130
       36305000	      3629	80001124	0128e3b3	or	x7,x17,x18	 x17:0x8000bfb5 x18:0x4b1e3000  x7=0xcb1ebfb5
       36315000	      3630	80001128	0b546093	ori	x1,x8,181	  x8:0x4b1e3000  x1=0x4b1e30b5
       36325000	      3631	8000112c	006199b3	sll	x19,x3,x6	  x3:0x00000001  x6:0x00000130 x19=0x00010000
       36335000	      3632	80001130	a5997613	andi	x12,x18,-1447	 x18:0x4b1e3000 x12=0x4b1e3000
       36345000	      3633	80001134	00a7ec63	bltu	x15,x10,8000114c	 x15:0x00000000 x10:0xd5581000
       36355000	      3634	00000000	00000013	addi	x0,x0,0	  x0:0x00000000
       36365000	      3635	80001148	00000013	addi	x0,x0,0	  x0:0x00000000
       36375000	      3636	8000114c	f7de6713	ori	x14,x28,-131	 x28:0x0037c000 x14=0xffffff7d
       36385000	      3637	80001150	b1e2a713	slti	x14,x5,-1250	  x5:0x00000000 x14=0x00000000
       36395000	      3638	80001154	00000013	addi	x0,x0,0	  x0:0x00000000
       36405000	      3639	80001158	0322da63	bge	x5,x18,8000118c	  x5:0x00000000 x18:0x4b1e3000
       36415000	      3640	8000115c	03184663	blt	x16,x17,80001188	 x16:0x00000000 x17:0x8000bfb5
       36425000	      3641	80001160	0181d9b3	srl	x19,x3,x24	  x3:0x00000001 x24:0x91fa006c x19=0x00000000
       36435000	      3642	80001164	0cf0f313	andi	x6,x1,207	  x1:0x4b1e30b5  x6=0x00000085
       36445000	      3643	80001168	038b5263	bge	x22,x24,8000118c	 x22:0xd5581000 x24:0x91fa006c
       36455000	      3644	00000000	00000013	addi	x0,x0,0	  x0:0x00000000
       36465000	      3645	80001188	00000013	addi	x0,x0,0	  x0:0x00000000
       36475000	      3646	8000118c	017c5833	srl	x16,x24,x23	 x24:0x91fa006c x23:0x00000000 x16=0x91fa006c
       36485000	      3647	80001190	00721813	slli	x16,x4,0x7	  x4:0x00000000 x16=0x00000000
       36495000	      3648	80001194	40e8d933	sra	x18,x17,x14	 x17:0x8000bfb5 x14:0x00000000 x18=0x8000bfb5
       36505000	      3649	80001198	8490b313	sltiu	x6,x1,-1975	  x1:0x4b1e30b5  x6=0x00000001
       36515000	      3650	8000119c	4025d413	srai	x8,x11,0x2	 x11:0xfffffffe  x8=0xffffffff
       36525000	      3651	800011a0	02775463	bge	x14,x7,800011c8	 x14:0x00000000  x7:0xcb1ebfb5
       36535000	      3652	00000000	00000013	addi	x0,x0,0	  x0:0x00000000
       36545000	      3653	800011c4	00000013	addi	x0,x0,0	  x0:0x00000000
       36555000	      3654	800011c8	04cf8063	beq	x31,x12,80001208	 x31:0x80009fc4 x12:0x4b1e3000
       36565000	      3655	800011cc	011e7933	and	x18,x28,x17	 x28:0x0037c000 x17:0x8000bfb5 x18=0x00008000
       36575000	      3656	800011d0	80228213	addi	x4,x5,-2046	  x5:0x00000000  x4=0xfffff802
       36585000	      3657	800011d4	00e951b3	srl	x3,x18,x14	 x18:0x00008000 x14:0x00000000  x3=0x00008000
       36595000	      3658	800011d8	00f7b9b3	sltu	x19,x15,x15	 x15:0x00000000 x15:0x00000000 x19=0x00000000
       36605000	      3659	800011dc	013e07b3	add	x15,x28,x19	 x28:0x0037c000 x19:0x00000000 x15=0x0037c000
       36615000	      3660	800011e0	cce9bd13	sltiu	x26,x19,-818	 x19:0x00000000 x26=0x00000001
       36625000	      3661	800011e4	0490d063	bge	x1,x9,80001224	  x1:0x4b1e30b5  x9:0x00000001
       36635000	      3662	00000000	00000013	addi	x0,x0,0	  x0:0x00000000
       36645000	      3663	80001220	00000013	addi	x0,x0,0	  x0:0x00000000
       36655000	      3664	80001224	011ae7b3	or	x15,x21,x17	 x21:0x80009f84 x17:0x8000bfb5 x15=0x8000bfb5
       36665000	      3665	80001228	03cf5c63	bge	x30,x28,80001260	 x30:0x000000bc x28:0x0037c000
       36675000	      3666	8000122c	00d5ec63	bltu	x11,x13,80001244	 x11:0xfffffffe x13:0x00000000
       36685000	      3667	80001230	40d6db33	sra	x22,x13,x13	 x13:0x00000000 x13:0x00000000 x22=0x00000000
       36695000	      3668	80001234	00e646b3	xor	x13,x12,x14	 x12:0x4b1e3000 x14:0x00000000 x13=0x4b1e3000
       36705000	      3669	80001238	403dde33	sra	x28,x27,x3	 x27:0x247e73f4  x3:0x00008000 x28=0x247e73f4
       36715000	      3670	8000123c	01e2b7b3	sltu	x15,x5,x30	  x5:0x00000000 x30:0x000000bc x15=0x00000001
       36725000	      3671	80001240	00000013	addi	x0,x0,0	  x0:0x00000000
       36735000	      3672	80001244	fb68f293	andi	x5,x17,-74	 x17:0x8000bfb5  x5=0x8000bfb4
       36745000	      3673	80001248	04d6c063	blt	x13,x13,80001288	 x13:0x4b1e3000 x13:0x4b1e3000
       36755000	      3674	8000124c	00e53733	sltu	x14,x10,x14	 x10:0xd5581000 x14:0x00000000 x14=0x00000000
       36765000	      3675	80001250	94ab7693	andi	x13,x22,-1718	 x22:0x00000000 x13=0x00000000
       36775000	      3676	80001254	006a7d33	and	x26,x20,x6	 x20:0x00000000  x6:0x00000001 x26=0x00000000
       36785000	      3677	80001258	0184f9b3	and	x19,x9,x24	  x9:0x00000001 x24:0x91fa006c x19=0x00000000
       36795000	      3678	8000125c	01340c63	beq	x8,x19,80001274	  x8:0xffffffff x19:0x00000000
       36805000	      3679	80001260	00239a63	bne	x7,x2,80001274	  x7:0xcb1ebfb5  x2:0xb7aee122
       36815000	      3680	00000000	00000013	addi	x0,x0,0	  x0:0x00000000
       36825000	      3681	80001270	00000013	addi	x0,x0,0	  x0:0x00000000
       36835000	      3682	80001274	1319ba13	sltiu	x20,x19,305	 x19:0x00000000 x20=0x00000001
       36845000	      3683	80001278	015bb5b3	sltu	x11,x23,x21	 x23:0x00000000 x21:0x80009f84 x11=0x00000001
       36855000	      3684	8000127c	7fa8cf37	lui	x30,0x7fa8c	 x30=0x7fa8c000
       36865000	      3685	80001280	4143d213	srai	x4,x7,0x14	  x7:0xcb1ebfb5  x4=0xfffffcb1
       36875000	      3686	80001284	000084b3	add	x9,x1,x0	  x1:0x4b1e30b5  x0:0x00000000  x9=0x4b1e30b5
       36885000	      3687	80001288	003a9433	sll	x8,x21,x3	 x21:0x80009f84  x3:0x00008000  x8=0x80009f84
       36895000	      3688	8000128c	01daf863	bgeu	x21,x29,8000129c	 x21:0x80009f84 x29:0xfffe056d
       36905000	      3689	80001290	41a2d513	srai	x10,x5,0x1a	  x5:0x8000bfb4 x10=0xffffffe0
       36915000	      3690	80001294	0a477093	andi	x1,x14,164	 x14:0x00000000  x1=0x00000000
       36925000	      3691	80001298	98f34637	lui	x12,0x98f34	 x12=0x98f34000
       36935000	      3692	8000129c	7c668b93	addi	x23,x13,1990	 x13:0x00000000 x23=0x000007c6
       36945000	      3693	800012a0	44f52d97	auipc	x27,0x44f52	 x27=0xc4f5329c
       36955000	      3694	800012a4	3adff513	andi	x10,x31,941	 x31:0x80009fc4 x10=0x00000384
       36965000	      3695	800012a8	5c9d4093	xori	x1,x26,1481	 x26:0x00000000  x1=0x000005c9
       36975000	      3696	800012ac	40aa0233	sub	x4,x20,x10	 x20:0x00000001 x10:0x00000384  x4=0xfffffc7d
       36985000	      3697	800012b0	01ef5cb3	srl	x25,x30,x30	 x30:0x7fa8c000 x30:0x7fa8c000 x25=0x7fa8c000
       36995000	      3698	800012b4	00398533	add	x10,x19,x3	 x19:0x00000000  x3:0x00008000 x10=0x00008000
       37005000	      3699	800012b8	c22e7313	andi	x6,x28,-990	 x28:0x247e73f4  x6=0x247e7020
       37015000	      3700	800012bc	2b902693	slti	x13,x0,697	  x0:0x00000000 x13=0x00000001
       37025000	      3701	800012c0	00e3bdb3	sltu	x27,x7,x14	  x7:0xcb1ebfb5 x14:0x00000000 x27=0x00000000
       37035000	      3702	800012c4	0199d433	srl	x8,x19,x25	 x19:0x00000000 x25:0x7fa8c000  x8=0x00000000
       37045000	      3703	800012c8	0181e9b3	or	x19,x3,x24	  x3:0x00008000 x24:0x91fa006c x19=0x91fa806c
       37055000	      3704	800012cc	2816ab93	slti	x23,x13,641	 x13:0x00000001 x23=0x00000001
       37065000	      3705	800012d0	72dd3337	lui	x6,0x72dd3	  x6=0x72dd3000
       37075000	      3706	800012d4	04c0e863	bltu	x1,x12,80001324	  x1:0x000005c9 x12:0x98f34000
       37085000	      3707	00000000	00000013	addi	x0,x0,0	  x0:0x00000000
       37095000	      3708	80001320	00000013	addi	x0,x0,0	  x0:0x00000000
       37105000	      3709	80001324	00af60b3	or	x1,x30,x10	 x30:0x7fa8c000 x10:0x00008000  x1=0x7fa8c000
       37115000	      3710	80001328	018e2a33	slt	x20,x28,x24	 x28:0x247e73f4 x24:0x91fa006c x20=0x00000000
       37125000	      3711	8000132c	3770c393	xori	x7,x1,887	  x1:0x7fa8c000  x7=0x7fa8c377
       37135000	      3712	80001330	01f9e033	or	x0,x19,x31	 x19:0x91fa806c x31:0x80009fc4
       37145000	      3713	80001334	532e7613	andi	x12,x28,1330	 x28:0x247e73f4 x12=0x00000130
       37155000	      3714	80001338	4f3cae93	slti	x29,x25,1267	 x25:0x7fa8c000 x29=0x00000000
       37165000	      3715	8000133c	008a96b3	sll	x13,x21,x8	 x21:0x80009f84  x8:0x00000000 x13=0x80009f84
       37175000	      3716	80001340	10167a63	bgeu	x12,x1,80001454	 x12:0x00000130  x1:0x7fa8c000
       37185000	      3717	80001344	5c94e613	ori	x12,x9,1481	  x9:0x4b1e30b5 x12=0x4b1e35fd
       37195000	      3718	80001348	eb746c13	ori	x24,x8,-329	  x8:0x00000000 x24=0xfffffeb7
       37205000	      3719	8000134c	0113aa33	slt	x20,x7,x17	  x7:0x7fa8c377 x17:0x8000bfb5 x20=0x00000000
       37215000	      3720	80001350	01046db3	or	x27,x8,x16	  x8:0x00000000 x16:0x00000000 x27=0x00000000
       37225000	      3721	80001354	01c07533	and	x10,x0,x28	  x0:0x00000000 x28:0x247e73f4 x10=0x00000000
       37235000	      3722	80001358	12d61863	bne	x12,x13,80001488	 x12:0x4b1e35fd x13:0x80009f84
       37245000	      3723	00000000	00000013	addi	x0,x0,0	  x0:0x00000000
       37255000	      3724	80001484	00000013	addi	x0,x0,0	  x0:0x00000000
       37265000	      3725	80001488	054d7063	bgeu	x26,x20,800014c8	 x26:0x00000000 x20:0x00000000
       37275000	      3726	00000000	00000013	addi	x0,x0,0	  x0:0x00000000
       37285000	      3727	800014c4	00000013	addi	x0,x0,0	  x0:0x00000000
       37295000	      3728	800014c8	03d28463	beq	x5,x29,800014f0	  x5:0x8000bfb4 x29:0x00000000
       37305000	      3729	800014cc	00d46c63	bltu	x8,x13,800014e4	  x8:0x00000000 x13:0x80009f84
       37315000	      3730	00000000	00000013	addi	x0,x0,0	  x0:0x00000000
       37325000	      3731	800014e0	00000013	addi	x0,x0,0	  x0:0x00000000
       37335000	      3732	800014e4	40e6d833	sra	x16,x13,x14	 x13:0x80009f84 x14:0x00000000 x16=0x80009f84
       37345000	      3733	800014e8	018d15b3	sll	x11,x26,x24	 x26:0x00000000 x24:0xfffffeb7 x11=0x00000000
       37355000	      3734	800014ec	41ac5f13	srai	x30,x24,0x1a	 x24:0xfffffeb7 x30=0xffffffff
       37365000	      3735	800014f0	01aead33	slt	x26,x29,x26	 x29:0x00000000 x26:0x00000000 x26=0x00000000
       37375000	      3736	800014f4	00214c63	blt	x2,x2,8000150c	  x2:0xb7aee122  x2:0xb7aee122
       37385000	      3737	800014f8	02f4c663	blt	x9,x15,80001524	  x9:0x4b1e30b5 x15:0x00000001
       37395000	      3738	800014fc	05fdd063	bge	x27,x31,8000153c	 x27:0x00000000 x31:0x80009fc4
       37405000	      3739	00000000	00000013	addi	x0,x0,0	  x0:0x00000000
       37415000	      3740	80001538	00000013	addi	x0,x0,0	  x0:0x00000000
       37425000	      3741	8000153c	95b1b293	sltiu	x5,x3,-1701	  x3:0x00008000  x5=0x00000001
       37435000	      3742	80001540	01ba1833	sll	x16,x20,x27	 x20:0x00000000 x27:0x00000000 x16=0x00000000
       37445000	      3743	80001544	01751913	slli	x18,x10,0x17	 x10:0x00000000 x18=0x00000000
       37455000	      3744	80001548	017dda33	srl	x20,x27,x23	 x27:0x00000000 x23:0x00000001 x20=0x00000000
       37465000	      3745	8000154c	02d05e63	bge	x0,x13,80001588	  x0:0x00000000 x13:0x80009f84
       37475000	      3746	00000000	00000013	addi	x0,x0,0	  x0:0x00000000
       37485000	      3747	80001584	00000013	addi	x0,x0,0	  x0:0x00000000
       37495000	      3748	80001588	01885c63	bge	x16,x24,800015a0	 x16:0x00000000 x24:0xfffffeb7
       37505000	      3749	00000000	00000013	addi	x0,x0,0	  x0:0x00000000
       37515000	      3750	8000159c	00000013	addi	x0,x0,0	  x0:0x00000000
       37525000	      3751	800015a0	03d14c63	blt	x2,x29,800015d8	  x2:0xb7aee122 x29:0x00000000
       37535000	      3752	00000000	00000013	addi	x0,x0,0	  x0:0x00000000
       37545000	      3753	800015d4	00000013	addi	x0,x0,0	  x0:0x00000000
       37555000	      3754	800015d8	00e095b3	sll	x11,x1,x14	  x1:0x7fa8c000 x14:0x00000000 x11=0x7fa8c000
       37565000	      3755	800015dc	ce8fa193	slti	x3,x31,-792	 x31:0x80009fc4  x3=0x00000001
       37575000	      3756	800015e0	01e43933	sltu	x18,x8,x30	  x8:0x00000000 x30:0xffffffff x18=0x00000001
       37585000	      3757	800015e4	00e2a4b3	slt	x9,x5,x14	  x5:0x00000001 x14:0x00000000  x9=0x00000000
       37595000	      3758	800015e8	02857663	bgeu	x10,x8,80001614	 x10:0x00000000  x8:0x00000000
       37605000	      3759	00000000	00000013	addi	x0,x0,0	  x0:0x00000000
       37615000	      3760	80001610	00000013	addi	x0,x0,0	  x0:0x00000000
       37625000	      3761	80001614	05558863	beq	x11,x21,80001664	 x11:0x7fa8c000 x21:0x80009f84
       37635000	      3762	80001618	05c79063	bne	x15,x28,80001658	 x15:0x00000001 x28:0x247e73f4
       37645000	      3763	00000000	00000013	addi	x0,x0,0	  x0:0x00000000
       37655000	      3764	80001654	00000013	addi	x0,x0,0	  x0:0x00000000
       37665000	      3765	80001658	1693a213	slti	x4,x7,361	  x7:0x7fa8c377  x4=0x00000000
       37675000	      3766	8000165c	41c30933	sub	x18,x6,x28	  x6:0x72dd3000 x28:0x247e73f4 x18=0x4e5ebc0c
       37685000	      3767	80001660	0099ec63	bltu	x19,x9,80001678	 x19:0x91fa806c  x9:0x00000000
       37695000	      3768	80001664	0129cc33	xor	x24,x19,x18	 x19:0x91fa806c x18:0x4e5ebc0c x24=0xdfa43c60
       37705000	      3769	80001668	0087d733	srl	x14,x15,x8	 x15:0x00000001  x8:0x00000000 x14=0x00000001
       37715000	      3770	8000166c	0243d663	bge	x7,x4,80001698	  x7:0x7fa8c377  x4:0x00000000
       37725000	      3771	00000000	00000013	addi	x0,x0,0	  x0:0x00000000
       37735000	      3772	80001694	00000013	addi	x0,x0,0	  x0:0x00000000
       37745000	      3773	80001698	001238b3	sltu	x17,x4,x1	  x4:0x00000000  x1:0x7fa8c000 x17=0x00000001
       37755000	      3774	8000169c	e979fa13	andi	x20,x19,-361	 x19:0x91fa806c x20=0x91fa8004
       37765000	      3775	800016a0	00338b33	add	x22,x7,x3	  x7:0x7fa8c377  x3:0x00000001 x22=0x7fa8c378
       37775000	      3776	800016a4	9ab69997	auipc	x19,0x9ab69	 x19=0x1ab6a6a0
       37785000	      3777	800016a8	01eb11b3	sll	x3,x22,x30	 x22:0x7fa8c378 x30:0xffffffff  x3=0x00000000
       37795000	      3778	800016ac	01b059b3	srl	x19,x0,x27	  x0:0x00000000 x27:0x00000000 x19=0x00000000
       37805000	      3779	800016b0	d7e84313	xori	x6,x16,-642	 x16:0x00000000  x6=0xfffffd7e
       37815000	      3780	800016b4	00d401b3	add	x3,x8,x13	  x8:0x00000000 x13:0x80009f84  x3=0x80009f84
       37825000	      3781	800016b8	001db933	sltu	x18,x27,x1	 x27:0x00000000  x1:0x7fa8c000 x18=0x00000001
       37835000	      3782	800016bc	019681b3	add	x3,x13,x25	 x13:0x80009f84 x25:0x7fa8c000  x3=0xffa95f84
       37845000	      3783	800016c0	0665b293	sltiu	x5,x11,102	 x11:0x7fa8c000  x5=0x00000000
       37855000	      3784	800016c4	f5ee6793	ori	x15,x28,-162	 x28:0x247e73f4 x15=0xfffffffe
       37865000	      3785	800016c8	0092d813	srli	x16,x5,0x9	  x5:0x00000000 x16=0x00000000
       37875000	      3786	800016cc	00bead33	slt	x26,x29,x11	 x29:0x00000000 x11:0x7fa8c000 x26=0x00000001
       37885000	      3787	800016d0	5a767c13	andi	x24,x12,1447	 x12:0x4b1e35fd x24=0x000005a5
       37895000	      3788	800016d4	eb242a13	slti	x20,x8,-334	  x8:0x00000000 x20=0x00000000
       37905000	      3789	800016d8	79a50213	addi	x4,x10,1946	 x10:0x00000000  x4=0x0000079a
       37915000	      3790	800016dc	4f256593	ori	x11,x10,1266	 x10:0x00000000 x11=0x000004f2
       37925000	      3791	800016e0	416d8233	sub	x4,x27,x22	 x27:0x00000000 x22:0x7fa8c378  x4=0x80573c88
       37935000	      3792	800016e4	01a56a63	bltu	x10,x26,800016f8	 x10:0x00000000 x26:0x00000001
       37945000	      3793	00000000	00000013	addi	x0,x0,0	  x0:0x00000000
       37955000	      3794	800016f4	00000013	addi	x0,x0,0	  x0:0x00000000
       37965000	      3795	800016f8	11c70a63	beq	x14,x28,8000180c	 x14:0x00000001 x28:0x247e73f4
       37975000	      3796	800016fc	00007397	auipc	x7,0x7	  x7=0x800086f8
       37985000	      3797	80001700	0df38393	addi	x7,x7,223	  x7:0x800086f8  x7=0x800087d7
       37995000	      3798	80001704	01cc6533	or	x10,x24,x28	 x24:0x000005a5 x28:0x247e73f4 x10=0x247e77f5
       38005000	      3799	80001708	01938023	sb	x25,0(x7)	  x7:0x800087d7 x25:0x7fa8c000 PA:0x800087d7
       38015000	      3800	8000170c	00b3ce83	lbu	x29,11(x7)	  x7:0x800087d7 x29=0x00000099 PA:0x800087e2
       38025000	      3801	80001710	00c38303	lb	x6,12(x7)	  x7:0x800087d7  x6=0xffffff98 PA:0x800087e3
       38035000	      3802	80001714	011384a3	sb	x17,9(x7)	  x7:0x800087d7 x17:0x00000001 PA:0x800087e0
       38045000	      3803	80001718	5acfa997	auipc	x19,0x5acfa	 x19=0xdacfb714
       38055000	      3804	8000171c	485e7a13	andi	x20,x28,1157	 x28:0x247e73f4 x20=0x00000084
       38065000	      3805	80001720	10383b93	sltiu	x23,x16,259	 x16:0x00000000 x23=0x00000001
       38075000	      3806	80001724	ff43c583	lbu	x11,-12(x7)	  x7:0x800087d7 x11=0x00000080 PA:0x800087cb
       38085000	      3807	80001728	087a6c13	ori	x24,x20,135	 x20:0x00000084 x24=0x00000087
       38095000	      3808	8000172c	ffa3c983	lbu	x19,-6(x7)	  x7:0x800087d7 x19=0x0000008a PA:0x800087d1
       38105000	      3809	80001730	1662cc93	xori	x25,x5,358	  x5:0x00000000 x25=0x00000166
       38115000	      3810	80001734	ff538f23	sb	x21,-2(x7)	  x7:0x800087d7 x21:0x80009f84 PA:0x800087d5
       38125000	      3811	80001738	cd64aa13	slti	x20,x9,-810	  x9:0x00000000 x20=0x00000000
       38135000	      3812	8000173c	ffb39983	lh	x19,-5(x7)	  x7:0x800087d7 x19=0xffff8889 PA:0x800087d2
       38145000	      3813	80001740	01027a33	and	x20,x4,x16	  x4:0x80573c88 x16:0x00000000 x20=0x00000000
       38155000	      3814	80001744	ffc38b03	lb	x22,-4(x7)	  x7:0x800087d7 x22=0xffffff88 PA:0x800087d3
       38165000	      3815	80001748	ff93d783	lhu	x15,-7(x7)	  x7:0x800087d7 x15=0x00008a8b PA:0x800087d0
       38175000	      3816	8000174c	ff13c303	lbu	x6,-15(x7)	  x7:0x800087d7  x6=0x00000083 PA:0x800087c8
       38185000	      3817	80001750	a6ba4d93	xori	x27,x20,-1429	 x20:0x00000000 x27=0xfffffa6b
       38195000	      3818	80001754	ffd3c483	lbu	x9,-3(x7)	  x7:0x800087d7  x9=0x0000008f PA:0x800087d4
       38205000	      3819	80001758	00738983	lb	x19,7(x7)	  x7:0x800087d7 x19=0xffffff95 PA:0x800087de
       38215000	      3820	8000175c	e3a5fdb7	lui	x27,0xe3a5f	 x27=0xe3a5f000
       38225000	      3821	80001760	009385a3	sb	x9,11(x7)	  x7:0x800087d7  x9:0x0000008f PA:0x800087e2
       38235000	      3822	80001764	0093a803	lw	x16,9(x7)	  x7:0x800087d7 x16=0x988f9a01 PA:0x800087e0
       38245000	      3823	80001768	741910b7	lui	x1,0x74191	  x1=0x74191000
       38255000	      3824	8000176c	0103ce03	lbu	x28,16(x7)	  x7:0x800087d7 x28=0x0000009c PA:0x800087e7
       38265000	      3825	80001770	c3d63213	sltiu	x4,x12,-963	 x12:0x4b1e35fd  x4=0x00000001
       38275000	      3826	80001774	0093a483	lw	x9,9(x7)	  x7:0x800087d7  x9=0x988f9a01 PA:0x800087e0
       38285000	      3827	80001778	ff83c503	lbu	x10,-8(x7)	  x7:0x800087d7 x10=0x00000084 PA:0x800087cf
       38295000	      3828	8000177c	9e4c3eb7	lui	x29,0x9e4c3	 x29=0x9e4c3000
       38305000	      3829	80001780	00f3de83	lhu	x29,15(x7)	  x7:0x800087d7 x29=0x00009c9d PA:0x800087e6
       38315000	      3830	80001784	41220cb3	sub	x25,x4,x18	  x4:0x00000001 x18:0x00000001 x25=0x00000000
       38325000	      3831	80001788	410d58b3	sra	x17,x26,x16	 x26:0x00000001 x16:0x988f9a01 x17=0x00000000
       38335000	      3832	8000178c	dc2bb413	sltiu	x8,x23,-574	 x23:0x00000001  x8=0x00000001
       38345000	      3833	80001790	011004b3	add	x9,x0,x17	  x0:0x00000000 x17:0x00000000  x9=0x00000000
       38355000	      3834	80001794	ff63c583	lbu	x11,-10(x7)	  x7:0x800087d7 x11=0x00000086 PA:0x800087cd
       38365000	      3835	00000000	00000013	addi	x0,x0,0	  x0:0x00000000
       38375000	      3836	80001798	00bbddb3	srl	x27,x23,x11	 x23:0x00000001 x11:0x00000086 x27=0x00000000
       38385000	      3837	8000179c	00638323	sb	x6,6(x7)	  x7:0x800087d7  x6:0x00000083 PA:0x800087dd
       38395000	      3838	800017a0	ff93c603	lbu	x12,-7(x7)	  x7:0x800087d7 x12=0x0000008b PA:0x800087d0
       38405000	      3839	800017a4	ffa38923	sb	x26,-14(x7)	  x7:0x800087d7 x26:0x00000001 PA:0x800087c9
       38415000	      3840	800017a8	00c397a3	sh	x12,15(x7)	  x7:0x800087d7 x12:0x0000008b PA:0x800087e6
       38425000	      3841	800017ac	00000013	addi	x0,x0,0	  x0:0x00000000
       38435000	      3842	800017b0	2d99eb93	ori	x23,x19,729	 x19:0xffffff95 x23=0xffffffdd
       38445000	      3843	800017b4	ff738d03	lb	x26,-9(x7)	  x7:0x800087d7 x26=0xffffff85 PA:0x800087ce
       38455000	      3844	800017b8	ff53d803	lhu	x16,-11(x7)	  x7:0x800087d7 x16=0x00008687 PA:0x800087cc
       38465000	      3845	800017bc	00000013	addi	x0,x0,0	  x0:0x00000000
       38475000	      3846	800017c0	fff38b23	sb	x31,-10(x7)	  x7:0x800087d7 x31:0x80009fc4 PA:0x800087cd
       38485000	      3847	800017c4	ea376993	ori	x19,x14,-349	 x14:0x00000001 x19=0xfffffea3
       38495000	      3848	800017c8	ff73ce83	lbu	x29,-9(x7)	  x7:0x800087d7 x29=0x00000085 PA:0x800087ce
       38505000	      3849	800017cc	ff638a23	sb	x22,-12(x7)	  x7:0x800087d7 x22:0xffffff88 PA:0x800087cb
       38515000	      3850	800017d0	01914cb3	xor	x25,x2,x25	  x2:0xb7aee122 x25:0x00000000 x25=0xb7aee122
       38525000	      3851	800017d4	00c38003	lb	x0,12(x7)	  x7:0x800087d7 PA:0x800087e3
       38535000	      3852	800017d8	419dd933	sra	x18,x27,x25	 x27:0x00000000 x25:0xb7aee122 x18=0x00000000
       38545000	      3853	800017dc	02b07063	bgeu	x0,x11,800017fc	  x0:0x00000000 x11:0x00000086
       38555000	      3854	800017e0	0096a7b3	slt	x15,x13,x9	 x13:0x80009f84  x9:0x00000000 x15=0x00000001
       38565000	      3855	800017e4	017af033	and	x0,x21,x23	 x21:0x80009f84 x23:0xffffffdd
       38575000	      3856	800017e8	01d6d4b3	srl	x9,x13,x29	 x13:0x80009f84 x29:0x00000085  x9=0x040004fc
       38585000	      3857	800017ec	012e2433	slt	x8,x28,x18	 x28:0x0000009c x18:0x00000000  x8=0x00000000
       38595000	      3858	800017f0	6a5ff813	andi	x16,x31,1701	 x31:0x80009fc4 x16=0x00000684
       38605000	      3859	800017f4	21baa993	slti	x19,x21,539	 x21:0x80009f84 x19=0x00000001
       38615000	      3860	800017f8	004e3eb3	sltu	x29,x28,x4	 x28:0x0000009c  x4:0x00000001 x29=0x00000000
       38625000	      3861	800017fc	41365393	srai	x7,x12,0x13	 x12:0x0000008b  x7=0x00000000
       38635000	      3862	80001800	00613433	sltu	x8,x2,x6	  x2:0xb7aee122  x6:0x00000083  x8=0x00000000
       38645000	      3863	80001804	07b5bb13	sltiu	x22,x11,123	 x11:0x00000086 x22=0x00000000
       38655000	      3864	80001808	00e789b3	add	x19,x15,x14	 x15:0x00000001 x14:0x00000001 x19=0x00000002
       38665000	      3865	8000180c	0189fc63	bgeu	x19,x24,80001824	 x19:0x00000002 x24:0x00000087
       38675000	      3866	80001810	710dee13	ori	x28,x27,1808	 x27:0x00000000 x28=0x00000710
       38685000	      3867	80001814	00ad8863	beq	x27,x10,80001824	 x27:0x00000000 x10:0x00000084
       38695000	      3868	80001818	024d7663	bgeu	x26,x4,80001844	 x26:0xffffff85  x4:0x00000001
       38705000	      3869	00000000	00000013	addi	x0,x0,0	  x0:0x00000000
       38715000	      3870	80001840	00000013	addi	x0,x0,0	  x0:0x00000000
       38725000	      3871	80001844	01fe3cb3	sltu	x25,x28,x31	 x28:0x00000710 x31:0x80009fc4 x25=0x00000001
       38735000	      3872	80001848	007d4c63	blt	x26,x7,80001860	 x26:0xffffff85  x7:0x00000000
       38745000	      3873	00000000	00000013	addi	x0,x0,0	  x0:0x00000000
       38755000	      3874	8000185c	00000013	addi	x0,x0,0	  x0:0x00000000
       38765000	      3875	80001860	0426d663	bge	x13,x2,800018ac	 x13:0x80009f84  x2:0xb7aee122
       38775000	      3876	80001864	9fe7a617	auipc	x12,0x9fe7a	 x12=0x1fe7b860
       38785000	      3877	80001868	f0694217	auipc	x4,0xf0694	  x4=0x70695864
       38795000	      3878	8000186c	900d8f17	auipc	x30,0x900d8	 x30=0x100d9868
       38805000	      3879	80001870	409a5213	srai	x4,x20,0x9	 x20:0x00000000  x4=0x00000000
       38815000	      3880	80001874	0457e063	bltu	x15,x5,800018b4	 x15:0x00000001  x5:0x00000000
       38825000	      3881	80001878	0395c663	blt	x11,x25,800018a4	 x11:0x00000086 x25:0x00000001
       38835000	      3882	8000187c	d6860693	addi	x13,x12,-664	 x12:0x1fe7b860 x13=0x1fe7b5c8
       38845000	      3883	80001880	00869793	slli	x15,x13,0x8	 x13:0x1fe7b5c8 x15=0xe7b5c800
       38855000	      3884	80001884	010a56b3	srl	x13,x20,x16	 x20:0x00000000 x16:0x00000684 x13=0x00000000
       38865000	      3885	80001888	012284b3	add	x9,x5,x18	  x5:0x00000000 x18:0x00000000  x9=0x00000000
       38875000	      3886	8000188c	524dbb93	sltiu	x23,x27,1316	 x27:0x00000000 x23=0x00000001
       38885000	      3887	80001890	01fd72b3	and	x5,x26,x31	 x26:0xffffff85 x31:0x80009fc4  x5=0x80009f84
       38895000	      3888	80001894	011eda13	srli	x20,x29,0x11	 x29:0x00000000 x20=0x00000000
       38905000	      3889	80001898	00000013	addi	x0,x0,0	  x0:0x00000000
       38915000	      3890	8000189c	01651733	sll	x14,x10,x22	 x10:0x00000084 x22:0x00000000 x14=0x00000084
       38925000	      3891	800018a0	051d9063	bne	x27,x17,800018e0	 x27:0x00000000 x17:0x00000000
       38935000	      3892	800018a4	e74aa913	slti	x18,x21,-396	 x21:0x80009f84 x18=0x00000001
       38945000	      3893	800018a8	00907d33	and	x26,x0,x9	  x0:0x00000000  x9:0x00000000 x26=0x00000000
       38955000	      3894	800018ac	013202b3	add	x5,x4,x19	  x4:0x00000000 x19:0x00000002  x5=0x00000002
       38965000	      3895	800018b0	01c734b3	sltu	x9,x14,x28	 x14:0x00000084 x28:0x00000710  x9=0x00000001
       38975000	      3896	800018b4	41020233	sub	x4,x4,x16	  x4:0x00000000 x16:0x00000684  x4=0xfffff97c
       38985000	      3897	800018b8	66e54b13	xori	x22,x10,1646	 x10:0x00000084 x22=0x000006ea
       38995000	      3898	800018bc	01f1e433	or	x8,x3,x31	  x3:0xffa95f84 x31:0x80009fc4  x8=0xffa9dfc4
       39005000	      3899	800018c0	0db36e13	ori	x28,x6,219	  x6:0x00000083 x28=0x000000db
       39015000	      3900	800018c4	41e68733	sub	x14,x13,x30	 x13:0x00000000 x30:0x100d9868 x14=0xeff26798
       39025000	      3901	800018c8	01b12733	slt	x14,x2,x27	  x2:0xb7aee122 x27:0x00000000 x14=0x00000001
       39035000	      3902	800018cc	00000013	addi	x0,x0,0	  x0:0x00000000
       39045000	      3903	800018d0	a86afb13	andi	x22,x21,-1402	 x21:0x80009f84 x22=0x80009a84
       39055000	      3904	800018d4	01741233	sll	x4,x8,x23	  x8:0xffa9dfc4 x23:0x00000001  x4=0xff53bf88
       39065000	      3905	800018d8	41995bb3	sra	x23,x18,x25	 x18:0x00000001 x25:0x00000001 x23=0x00000000
       39075000	      3906	800018dc	01d41f33	sll	x30,x8,x29	  x8:0xffa9dfc4 x29:0x00000000 x30=0xffa9dfc4
       39085000	      3907	800018e0	039f8e63	beq	x31,x25,8000191c	 x31:0x80009fc4 x25:0x00000001
       39095000	      3908	800018e4	005a0c63	beq	x20,x5,800018fc	 x20:0x00000000  x5:0x00000002
       39105000	      3909	800018e8	40370833	sub	x16,x14,x3	 x14:0x00000001  x3:0xffa95f84 x16=0x0056a07d
       39115000	      3910	800018ec	02f54863	blt	x10,x15,8000191c	 x10:0x00000084 x15:0xe7b5c800
       39125000	      3911	800018f0	008a02b3	add	x5,x20,x8	 x20:0x00000000  x8:0xffa9dfc4  x5=0xffa9dfc4
       39135000	      3912	800018f4	01593733	sltu	x14,x18,x21	 x18:0x00000001 x21:0x80009f84 x14=0x00000001
       39145000	      3913	800018f8	01ad0a33	add	x20,x26,x26	 x26:0x00000000 x26:0x00000000 x20=0x00000000
       39155000	      3914	800018fc	00f8ccb3	xor	x25,x17,x15	 x17:0x00000000 x15:0xe7b5c800 x25=0xe7b5c800
       39165000	      3915	80001900	615d2813	slti	x16,x26,1557	 x26:0x00000000 x16=0x00000001
       39175000	      3916	80001904	0184ec63	bltu	x9,x24,8000191c	  x9:0x00000001 x24:0x00000087
       39185000	      3917	00000000	00000013	addi	x0,x0,0	  x0:0x00000000
       39195000	      3918	80001918	00000013	addi	x0,x0,0	  x0:0x00000000
       39205000	      3919	8000191c	010a4733	xor	x14,x20,x16	 x20:0x00000000 x16:0x00000001 x14=0x00000001
       39215000	      3920	80001920	45a70993	addi	x19,x14,1114	 x14:0x00000001 x19=0x0000045b
       39225000	      3921	80001924	4084d693	srai	x13,x9,0x8	  x9:0x00000001 x13=0x00000000
       39235000	      3922	80001928	0225dc63	bge	x11,x2,80001960	 x11:0x00000086  x2:0xb7aee122
       39245000	      3923	00000000	00000013	addi	x0,x0,0	  x0:0x00000000
       39255000	      3924	8000195c	00000013	addi	x0,x0,0	  x0:0x00000000
       39265000	      3925	80001960	fe6acf13	xori	x30,x21,-26	 x21:0x80009f84 x30=0x7fff6062
       39275000	      3926	80001964	00ced9b3	srl	x19,x29,x12	 x29:0x00000000 x12:0x1fe7b860 x19=0x00000000
       39285000	      3927	80001968	0188b3b3	sltu	x7,x17,x24	 x17:0x00000000 x24:0x00000087  x7=0x00000001
       39295000	      3928	8000196c	019bbd33	sltu	x26,x23,x25	 x23:0x00000000 x25:0xe7b5c800 x26=0x00000001
       39305000	      3929	80001970	01331793	slli	x15,x6,0x13	  x6:0x00000083 x15=0x04180000
       39315000	      3930	80001974	f37dbe93	sltiu	x29,x27,-201	 x27:0x00000000 x29=0x00000001
       39325000	      3931	80001978	03269a63	bne	x13,x18,800019ac	 x13:0x00000000 x18:0x00000001
       39335000	      3932	00000000	00000013	addi	x0,x0,0	  x0:0x00000000
       39345000	      3933	800019a8	00000013	addi	x0,x0,0	  x0:0x00000000
       39355000	      3934	800019ac	417b8233	sub	x4,x23,x23	 x23:0x00000000 x23:0x00000000  x4=0x00000000
       39365000	      3935	800019b0	0140a633	slt	x12,x1,x20	  x1:0x74191000 x20:0x00000000 x12=0x00000000
       39375000	      3936	800019b4	025cc063	blt	x25,x5,800019d4	 x25:0xe7b5c800  x5:0xffa9dfc4
       39385000	      3937	00000000	00000013	addi	x0,x0,0	  x0:0x00000000
       39395000	      3938	800019d0	00000013	addi	x0,x0,0	  x0:0x00000000
       39405000	      3939	800019d4	40d90eb3	sub	x29,x18,x13	 x18:0x00000001 x13:0x00000000 x29=0x00000001
       39415000	      3940	800019d8	031a5463	bge	x20,x17,80001a00	 x20:0x00000000 x17:0x00000000
       39425000	      3941	00000000	00000013	addi	x0,x0,0	  x0:0x00000000
       39435000	      3942	800019fc	00000013	addi	x0,x0,0	  x0:0x00000000
       39445000	      3943	80001a00	b50bc813	xori	x16,x23,-1200	 x23:0x00000000 x16=0xfffffb50
       39455000	      3944	80001a04	0571f063	bgeu	x3,x23,80001a44	  x3:0xffa95f84 x23:0x00000000
       39465000	      3945	00000000	00000013	addi	x0,x0,0	  x0:0x00000000
       39475000	      3946	80001a40	00000013	addi	x0,x0,0	  x0:0x00000000
       39485000	      3947	80001a44	051d0863	beq	x26,x17,80001a94	 x26:0x00000001 x17:0x00000000
       39495000	      3948	80001a48	b9f6c613	xori	x12,x13,-1121	 x13:0x00000000 x12=0xfffffb9f
       39505000	      3949	80001a4c	016c85b3	add	x11,x25,x22	 x25:0xe7b5c800 x22:0x80009a84 x11=0x67b66284
       39515000	      3950	80001a50	0430f663	bgeu	x1,x3,80001a9c	  x1:0x74191000  x3:0xffa95f84
       39525000	      3951	80001a54	015d9193	slli	x3,x27,0x15	 x27:0x00000000  x3=0x00000000
       39535000	      3952	80001a58	87adb397	auipc	x7,0x87adb	  x7=0x07adca54
       39545000	      3953	80001a5c	b8a6f593	andi	x11,x13,-1142	 x13:0x00000000 x11=0x00000000
       39555000	      3954	80001a60	41bdde93	srai	x29,x27,0x1b	 x27:0x00000000 x29=0x00000000
       39565000	      3955	80001a64	009f5833	srl	x16,x30,x9	 x30:0x7fff6062  x9:0x00000001 x16=0x3fffb031
       39575000	      3956	80001a68	00000013	addi	x0,x0,0	  x0:0x00000000
       39585000	      3957	80001a6c	4b5bc093	xori	x1,x23,1205	 x23:0x00000000  x1=0x000004b5
       39595000	      3958	80001a70	024d7663	bgeu	x26,x4,80001a9c	 x26:0x00000001  x4:0x00000000
       39605000	      3959	00000000	00000013	addi	x0,x0,0	  x0:0x00000000
       39615000	      3960	80001a98	00000013	addi	x0,x0,0	  x0:0x00000000
       39625000	      3961	80001a9c	01bd3db3	sltu	x27,x26,x27	 x26:0x00000001 x27:0x00000000 x27=0x00000000
       39635000	      3962	80001aa0	01b21c63	bne	x4,x27,80001ab8	  x4:0x00000000 x27:0x00000000
       39645000	      3963	80001aa4	04ae8063	beq	x29,x10,80001ae4	 x29:0x00000000 x10:0x00000084
       39655000	      3964	80001aa8	1a2f8713	addi	x14,x31,418	 x31:0x80009fc4 x14=0x8000a166
       39665000	      3965	80001aac	01622433	slt	x8,x4,x22	  x4:0x00000000 x22:0x80009a84  x8=0x00000000
       39675000	      3966	80001ab0	827df693	andi	x13,x27,-2009	 x27:0x00000000 x13=0x00000000
       39685000	      3967	80001ab4	01256eb3	or	x29,x10,x18	 x10:0x00000084 x18:0x00000001 x29=0x00000085
       39695000	      3968	80001ab8	00e74b33	xor	x22,x14,x14	 x14:0x8000a166 x14:0x8000a166 x22=0x00000000
       39705000	      3969	80001abc	00fcbcb3	sltu	x25,x25,x15	 x25:0xe7b5c800 x15:0x04180000 x25=0x00000000
       39715000	      3970	80001ac0	0118c1b3	xor	x3,x17,x17	 x17:0x00000000 x17:0x00000000  x3=0x00000000
       39725000	      3971	80001ac4	000b7d33	and	x26,x22,x0	 x22:0x00000000  x0:0x00000000 x26=0x00000000
       39735000	      3972	80001ac8	00de48b3	xor	x17,x28,x13	 x28:0x000000db x13:0x00000000 x17=0x000000db
       39745000	      3973	80001acc	00580c63	beq	x16,x5,80001ae4	 x16:0x3fffb031  x5:0xffa9dfc4
       39755000	      3974	80001ad0	6dae2813	slti	x16,x28,1754	 x28:0x000000db x16=0x00000001
       39765000	      3975	80001ad4	39db7097	auipc	x1,0x39db7	  x1=0xb9db8ad0
       39775000	      3976	80001ad8	00bd8d33	add	x26,x27,x11	 x27:0x00000000 x11:0x00000000 x26=0x00000000
       39785000	      3977	80001adc	664ed797	auipc	x15,0x664ed	 x15=0xe64eead8
       39795000	      3978	80001ae0	0073ee33	or	x28,x7,x7	  x7:0x07adca54  x7:0x07adca54 x28=0x07adca54
       39805000	      3979	80001ae4	04388063	beq	x17,x3,80001b24	 x17:0x000000db  x3:0x00000000
       39815000	      3980	80001ae8	9fdfe493	ori	x9,x31,-1539	 x31:0x80009fc4  x9=0xfffffffd
       39825000	      3981	80001aec	407506b3	sub	x13,x10,x7	 x10:0x00000084  x7:0x07adca54 x13=0xf8523630
       39835000	      3982	80001af0	00f7f863	bgeu	x15,x15,80001b00	 x15:0xe64eead8 x15:0xe64eead8
       39845000	      3983	00000000	00000013	addi	x0,x0,0	  x0:0x00000000
       39855000	      3984	80001afc	00000013	addi	x0,x0,0	  x0:0x00000000
       39865000	      3985	80001b00	e78c7813	andi	x16,x24,-392	 x24:0x00000087 x16=0x00000000
       39875000	      3986	80001b04	00de9293	slli	x5,x29,0xd	 x29:0x00000085  x5=0x0010a000
       39885000	      3987	80001b08	725d5597	auipc	x11,0x725d5	 x11=0xf25d6b04
       39895000	      3988	80001b0c	03245a63	bge	x8,x18,80001b40	  x8:0x00000000 x18:0x00000001
       39905000	      3989	80001b10	00b9e8b3	or	x17,x19,x11	 x19:0x00000000 x11:0xf25d6b04 x17=0xf25d6b04
       39915000	      3990	80001b14	01a75f33	srl	x30,x14,x26	 x14:0x8000a166 x26:0x00000000 x30=0x8000a166
       39925000	      3991	80001b18	61c4c593	xori	x11,x9,1564	  x9:0xfffffffd x11=0xfffff9e1
       39935000	      3992	80001b1c	40335c33	sra	x24,x6,x3	  x6:0x00000083  x3:0x00000000 x24=0x00000083
       39945000	      3993	80001b20	8fd6ed93	ori	x27,x13,-1795	 x13:0xf8523630 x27=0xfffffefd
       39955000	      3994	80001b24	418054b3	sra	x9,x0,x24	  x0:0x00000000 x24:0x00000083  x9=0x00000000
       39965000	      3995	80001b28	40e2d413	srai	x8,x5,0xe	  x5:0x0010a000  x8=0x00000042
       39975000	      3996	80001b2c	416485b3	sub	x11,x9,x22	  x9:0x00000000 x22:0x00000000 x11=0x00000000
       39985000	      3997	80001b30	02f57663	bgeu	x10,x15,80001b5c	 x10:0x00000084 x15:0xe64eead8
       39995000	      3998	80001b34	00000013	addi	x0,x0,0	  x0:0x00000000
       40005000	      3999	80001b38	01d32833	slt	x16,x6,x29	  x6:0x00000083 x29:0x00000085 x16=0x00000001
       40015000	      4000	80001b3c	401ed433	sra	x8,x29,x1	 x29:0x00000085  x1:0xb9db8ad0  x8=0x00000000
       40025000	      4001	80001b40	1a792493	slti	x9,x18,423	 x18:0x00000001  x9=0x00000001
       40035000	      4002	80001b44	04a60863	beq	x12,x10,80001b94	 x12:0xfffffb9f x10:0x00000084
       40045000	      4003	80001b48	3402cb93	xori	x23,x5,832	  x5:0x0010a000 x23=0x0010a340
       40055000	      4004	80001b4c	ef7a8a13	addi	x20,x21,-265	 x21:0x80009f84 x20=0x80009e7b
       40065000	      4005	80001b50	017facb3	slt	x25,x31,x23	 x31:0x80009fc4 x23:0x0010a340 x25=0x00000001
       40075000	      4006	80001b54	cd7a6e93	ori	x29,x20,-809	 x20:0x80009e7b x29=0xfffffeff
       40085000	      4007	80001b58	842c7a13	andi	x20,x24,-1982	 x24:0x00000083 x20=0x00000002
       40095000	      4008	80001b5c	0012ec63	bltu	x5,x1,80001b74	  x5:0x0010a000  x1:0xb9db8ad0
       40105000	      4009	00000000	00000013	addi	x0,x0,0	  x0:0x00000000
       40115000	      4010	80001b70	00000013	addi	x0,x0,0	  x0:0x00000000
       40125000	      4011	80001b74	e474e637	lui	x12,0xe474e	 x12=0xe474e000
       40135000	      4012	80001b78	013a5d13	srli	x26,x20,0x13	 x20:0x00000002 x26=0x00000000
       40145000	      4013	80001b7c	a522e013	ori	x0,x5,-1454	  x5:0x0010a000
       40155000	      4014	80001b80	00955f33	srl	x30,x10,x9	 x10:0x00000084  x9:0x00000001 x30=0x00000042
       40165000	      4015	80001b84	001001b3	add	x3,x0,x1	  x0:0x00000000  x1:0xb9db8ad0  x3=0xb9db8ad0
       40175000	      4016	80001b88	402f5893	srai	x17,x30,0x2	 x30:0x00000042 x17=0x00000010
       40185000	      4017	80001b8c	03cece63	blt	x29,x28,80001bc8	 x29:0xfffffeff x28:0x07adca54
       40195000	      4018	00000000	00000013	addi	x0,x0,0	  x0:0x00000000
       40205000	      4019	80001bc4	00000013	addi	x0,x0,0	  x0:0x00000000
       40215000	      4020	80001bc8	00000013	addi	x0,x0,0	  x0:0x00000000
       40225000	      4021	80001bcc	00db4233	xor	x4,x22,x13	 x22:0x00000000 x13:0xf8523630  x4=0xf8523630
       40235000	      4022	80001bd0	1375c063	blt	x11,x23,80001cf0	 x11:0x00000000 x23:0x0010a340
       40245000	      4023	00000000	00000013	addi	x0,x0,0	  x0:0x00000000
       40255000	      4024	80001cec	00000013	addi	x0,x0,0	  x0:0x00000000
       40265000	      4025	80001cf0	004d4c63	blt	x26,x4,80001d08	 x26:0x00000000  x4:0xf8523630
       40275000	      4026	80001cf4	027e4663	blt	x28,x7,80001d20	 x28:0x07adca54  x7:0x07adca54
       40285000	      4027	80001cf8	41090533	sub	x10,x18,x16	 x18:0x00000001 x16:0x00000001 x10=0x00000000
       40295000	      4028	80001cfc	401d86b3	sub	x13,x27,x1	 x27:0xfffffefd  x1:0xb9db8ad0 x13=0x4624742d
       40305000	      4029	80001d00	01516a33	or	x20,x2,x21	  x2:0xb7aee122 x21:0x80009f84 x20=0xb7aeffa6
       40315000	      4030	80001d04	40ff5b93	srai	x23,x30,0xf	 x30:0x00000042 x23=0x00000000
       40325000	      4031	80001d08	00e6c863	blt	x13,x14,80001d18	 x13:0x4624742d x14:0x8000a166
       40335000	      4032	80001d0c	01fd4c63	blt	x26,x31,80001d24	 x26:0x00000000 x31:0x80009fc4
       40345000	      4033	80001d10	008c18b3	sll	x17,x24,x8	 x24:0x00000083  x8:0x00000000 x17=0x00000083
       40355000	      4034	80001d14	022b9063	bne	x23,x2,80001d34	 x23:0x00000000  x2:0xb7aee122
       40365000	      4035	00000000	00000013	addi	x0,x0,0	  x0:0x00000000
       40375000	      4036	80001d30	00000013	addi	x0,x0,0	  x0:0x00000000
       40385000	      4037	80001d34	00bff233	and	x4,x31,x11	 x31:0x80009fc4 x11:0x00000000  x4=0x00000000
       40395000	      4038	80001d38	00ca0eb3	add	x29,x20,x12	 x20:0xb7aeffa6 x12:0xe474e000 x29=0x9c23dfa6
       40405000	      4039	80001d3c	02b48e63	beq	x9,x11,80001d78	  x9:0x00000001 x11:0x00000000
       40415000	      4040	80001d40	0284f663	bgeu	x9,x8,80001d6c	  x9:0x00000001  x8:0x00000000
       40425000	      4041	00000000	00000013	addi	x0,x0,0	  x0:0x00000000
       40435000	      4042	80001d68	00000013	addi	x0,x0,0	  x0:0x00000000
       40445000	      4043	80001d6c	00e57bb3	and	x23,x10,x14	 x10:0x00000000 x14:0x8000a166 x23=0x00000000
       40455000	      4044	80001d70	010ce233	or	x4,x25,x16	 x25:0x00000001 x16:0x00000001  x4=0x00000001
       40465000	      4045	80001d74	0067cc33	xor	x24,x15,x6	 x15:0xe64eead8  x6:0x00000083 x24=0xe64eea5b
       40475000	      4046	80001d78	415d08b3	sub	x17,x26,x21	 x26:0x00000000 x21:0x80009f84 x17=0x7fff607c
       40485000	      4047	80001d7c	ce39c313	xori	x6,x19,-797	 x19:0x00000000  x6=0xfffffce3
       40495000	      4048	80001d80	41ae0d33	sub	x26,x28,x26	 x28:0x07adca54 x26:0x00000000 x26=0x07adca54
       40505000	      4049	80001d84	005a5e33	srl	x28,x20,x5	 x20:0xb7aeffa6  x5:0x0010a000 x28=0xb7aeffa6
       40515000	      4050	80001d88	024c4e63	blt	x24,x4,80001dc4	 x24:0xe64eea5b  x4:0x00000001
       40525000	      4051	00000000	00000013	addi	x0,x0,0	  x0:0x00000000
       40535000	      4052	80001dc0	00000013	addi	x0,x0,0	  x0:0x00000000
       40545000	      4053	80001dc4	0035ab33	slt	x22,x11,x3	 x11:0x00000000  x3:0xb9db8ad0 x22=0x00000000
       40555000	      4054	80001dc8	15e00813	addi	x16,x0,350	  x0:0x00000000 x16=0x0000015e
       40565000	      4055	80001dcc	c30d6593	ori	x11,x26,-976	 x26:0x07adca54 x11=0xfffffe74
       40575000	      4056	80001dd0	00221cb3	sll	x25,x4,x2	  x4:0x00000001  x2:0xb7aee122 x25=0x00000004
       40585000	      4057	80001dd4	0113a2b3	slt	x5,x7,x17	  x7:0x07adca54 x17:0x7fff607c  x5=0x00000001
       40595000	      4058	80001dd8	04ed4863	blt	x26,x14,80001e28	 x26:0x07adca54 x14:0x8000a166
       40605000	      4059	80001ddc	03c2d263	bge	x5,x28,80001e00	  x5:0x00000001 x28:0xb7aeffa6
       40615000	      4060	00000000	00000013	addi	x0,x0,0	  x0:0x00000000
       40625000	      4061	80001dfc	00000013	addi	x0,x0,0	  x0:0x00000000
       40635000	      4062	80001e00	666f2593	slti	x11,x30,1638	 x30:0x00000042 x11=0x00000001
       40645000	      4063	80001e04	40a6dd13	srai	x26,x13,0xa	 x13:0x4624742d x26=0x0011891d
       40655000	      4064	80001e08	a2bc5537	lui	x10,0xa2bc5	 x10=0xa2bc5000
       40665000	      4065	80001e0c	39448393	addi	x7,x9,916	  x9:0x00000001  x7=0x00000395
       40675000	      4066	80001e10	82cceb17	auipc	x22,0x82cce	 x22=0x02ccfe0c
       40685000	      4067	80001e14	01e7fa63	bgeu	x15,x30,80001e28	 x15:0xe64eead8 x30:0x00000042
       40695000	      4068	00000000	00000013	addi	x0,x0,0	  x0:0x00000000
       40705000	      4069	80001e24	00000013	addi	x0,x0,0	  x0:0x00000000
       40715000	      4070	80001e28	00610233	add	x4,x2,x6	  x2:0xb7aee122  x6:0xfffffce3  x4=0xb7aede05
       40725000	      4071	80001e2c	00c71013	slli	x0,x14,0xc	 x14:0x8000a166
       40735000	      4072	80001e30	009325b3	slt	x11,x6,x9	  x6:0xfffffce3  x9:0x00000001 x11=0x00000001
       40745000	      4073	80001e34	02ab0c63	beq	x22,x10,80001e6c	 x22:0x02ccfe0c x10:0xa2bc5000
       40755000	      4074	80001e38	01630863	beq	x6,x22,80001e48	  x6:0xfffffce3 x22:0x02ccfe0c
       40765000	      4075	80001e3c	1bdb8493	addi	x9,x23,445	 x23:0x00000000  x9=0x000001bd
       40775000	      4076	80001e40	010ecb33	xor	x22,x29,x16	 x29:0x9c23dfa6 x16:0x0000015e x22=0x9c23def8
       40785000	      4077	80001e44	00f3df33	srl	x30,x7,x15	  x7:0x00000395 x15:0xe64eead8 x30=0x00000000
       40795000	      4078	80001e48	0139ab33	slt	x22,x19,x19	 x19:0x00000000 x19:0x00000000 x22=0x00000000
       40805000	      4079	80001e4c	0002e6b3	or	x13,x5,x0	  x5:0x00000001  x0:0x00000000 x13=0x00000001
       40815000	      4080	80001e50	01c97bb3	and	x23,x18,x28	 x18:0x00000001 x28:0xb7aeffa6 x23=0x00000000
       40825000	      4081	80001e54	054f8663	beq	x31,x20,80001ea0	 x31:0x80009fc4 x20:0xb7aeffa6
       40835000	      4082	80001e58	3cc66b13	ori	x22,x12,972	 x12:0xe474e000 x22=0xe474e3cc
       40845000	      4083	80001e5c	030be263	bltu	x23,x16,80001e80	 x23:0x00000000 x16:0x0000015e
       40855000	      4084	00000000	00000013	addi	x0,x0,0	  x0:0x00000000
       40865000	      4085	80001e7c	00000013	addi	x0,x0,0	  x0:0x00000000
       40875000	      4086	80001e80	32054513	xori	x10,x10,800	 x10:0xa2bc5000 x10=0xa2bc5320
       40885000	      4087	80001e84	032dc663	blt	x27,x18,80001eb0	 x27:0xfffffefd x18:0x00000001
       40895000	      4088	00000000	00000013	addi	x0,x0,0	  x0:0x00000000
       40905000	      4089	80001eac	00000013	addi	x0,x0,0	  x0:0x00000000
       40915000	      4090	80001eb0	41c05813	srai	x16,x0,0x1c	  x0:0x00000000 x16=0x00000000
       40925000	      4091	80001eb4	01cd0533	add	x10,x26,x28	 x26:0x0011891d x28:0xb7aeffa6 x10=0xb7c088c3
       40935000	      4092	80001eb8	411a5cb3	sra	x25,x20,x17	 x20:0xb7aeffa6 x17:0x7fff607c x25=0xfffffffb
       40945000	      4093	80001ebc	009514b3	sll	x9,x10,x9	 x10:0xb7c088c3  x9:0x000001bd  x9=0x60000000
       40955000	      4094	80001ec0	016370b3	and	x1,x6,x22	  x6:0xfffffce3 x22:0xe474e3cc  x1=0xe474e0c0
       40965000	      4095	80001ec4	c31fa513	slti	x10,x31,-975	 x31:0x80009fc4 x10=0x00000001
       40975000	      4096	80001ec8	40b1d793	srai	x15,x3,0xb	  x3:0xb9db8ad0 x15=0xfff73b71
       40985000	      4097	80001ecc	349b4093	xori	x1,x22,841	 x22:0xe474e3cc  x1=0xe474e085
       40995000	      4098	80001ed0	00e6de93	srli	x29,x13,0xe	 x13:0x00000001 x29=0x00000000
       41005000	      4099	80001ed4	40c2d1b3	sra	x3,x5,x12	  x5:0x00000001 x12:0xe474e000  x3=0x00000001
       41015000	      4100	80001ed8	41d5d313	srai	x6,x11,0x1d	 x11:0x00000001  x6=0x00000000
       41025000	      4101	80001edc	00ff9c63	bne	x31,x15,80001ef4	 x31:0x80009fc4 x15:0xfff73b71
       41035000	      4102	00000000	00000013	addi	x0,x0,0	  x0:0x00000000
       41045000	      4103	80001ef0	00000013	addi	x0,x0,0	  x0:0x00000000
       41055000	      4104	80001ef4	00ac0bb3	add	x23,x24,x10	 x24:0xe64eea5b x10:0x00000001 x23=0xe64eea5c
       41065000	      4105	80001ef8	0011c7b3	xor	x15,x3,x1	  x3:0x00000001  x1:0xe474e085 x15=0xe474e084
       41075000	      4106	80001efc	40a88e33	sub	x28,x17,x10	 x17:0x7fff607c x10:0x00000001 x28=0x7fff607b
       41085000	      4107	80001f00	f53b8d93	addi	x27,x23,-173	 x23:0xe64eea5c x27=0xe64ee9af
       41095000	      4108	80001f04	058a1063	bne	x20,x24,80001f44	 x20:0xb7aeffa6 x24:0xe64eea5b
       41105000	      4109	00000000	00000013	addi	x0,x0,0	  x0:0x00000000
       41115000	      4110	80001f40	00000013	addi	x0,x0,0	  x0:0x00000000
       41125000	      4111	80001f44	003dfb33	and	x22,x27,x3	 x27:0xe64ee9af  x3:0x00000001 x22=0x00000001
       41135000	      4112	80001f48	01f09a63	bne	x1,x31,80001f5c	  x1:0xe474e085 x31:0x80009fc4
       41145000	      4113	00000000	00000013	addi	x0,x0,0	  x0:0x00000000
       41155000	      4114	80001f58	00000013	addi	x0,x0,0	  x0:0x00000000
       41165000	      4115	80001f5c	89ffb293	sltiu	x5,x31,-1889	 x31:0x80009fc4  x5=0x00000001
       41175000	      4116	80001f60	01abb9b3	sltu	x19,x23,x26	 x23:0xe64eea5c x26:0x0011891d x19=0x00000000
       41185000	      4117	80001f64	012b3e33	sltu	x28,x22,x18	 x22:0x00000001 x18:0x00000001 x28=0x00000000
       41195000	      4118	80001f68	00541213	slli	x4,x8,0x5	  x8:0x00000000  x4=0x00000000
       41205000	      4119	80001f6c	e56a7e93	andi	x29,x20,-426	 x20:0xb7aeffa6 x29=0xb7aefe06
       41215000	      4120	80001f70	fc697097	auipc	x1,0xfc697	  x1=0x7c698f6c
       41225000	      4121	80001f74	a0cb2613	slti	x12,x22,-1524	 x22:0x00000001 x12=0x00000000
       41235000	      4122	80001f78	2f8e7d93	andi	x27,x28,760	 x28:0x00000000 x27=0x00000000
       41245000	      4123	80001f7c	02c79063	bne	x15,x12,80001f9c	 x15:0xe474e084 x12:0x00000000
       41255000	      4124	00000000	00000013	addi	x0,x0,0	  x0:0x00000000
       41265000	      4125	80001f98	00000013	addi	x0,x0,0	  x0:0x00000000
       41275000	      4126	80001f9c	019f3f33	sltu	x30,x30,x25	 x30:0x00000000 x25:0xfffffffb x30=0x00000001
       41285000	      4127	80001fa0	2a6e6b93	ori	x23,x28,678	 x28:0x00000000 x23=0x000002a6
       41295000	      4128	80001fa4	011575b3	and	x11,x10,x17	 x10:0x00000001 x17:0x7fff607c x11=0x00000000
       41305000	      4129	80001fa8	0198f9b3	and	x19,x17,x25	 x17:0x7fff607c x25:0xfffffffb x19=0x7fff6078
       41315000	      4130	80001fac	407dd693	srai	x13,x27,0x7	 x27:0x00000000 x13=0x00000000
       41325000	      4131	80001fb0	0181a433	slt	x8,x3,x24	  x3:0x00000001 x24:0xe64eea5b  x8=0x00000000
       41335000	      4132	80001fb4	41e1d633	sra	x12,x3,x30	  x3:0x00000001 x30:0x00000001 x12=0x00000000
       41345000	      4133	80001fb8	e159e793	ori	x15,x19,-491	 x19:0x7fff6078 x15=0xfffffe7d
       41355000	      4134	80001fbc	0761b713	sltiu	x14,x3,118	  x3:0x00000001 x14=0x00000001
       41365000	      4135	80001fc0	00000013	addi	x0,x0,0	  x0:0x00000000
       41375000	      4136	80001fc4	00371993	slli	x19,x14,0x3	 x14:0x00000001 x19=0x00000008
       41385000	      4137	80001fc8	2849c017	auipc	x0,0x2849c	
       41395000	      4138	80001fcc	c06aa813	slti	x16,x21,-1018	 x21:0x80009f84 x16=0x00000001
       41405000	      4139	80001fd0	41e8d333	sra	x6,x17,x30	 x17:0x7fff607c x30:0x00000001  x6=0x3fffb03e
       41415000	      4140	80001fd4	408b8eb3	sub	x29,x23,x8	 x23:0x000002a6  x8:0x00000000 x29=0x000002a6
       41425000	      4141	80001fd8	bab04c93	xori	x25,x0,-1109	  x0:0x00000000 x25=0xfffffbab
       41435000	      4142	80001fdc	0117fc63	bgeu	x15,x17,80001ff4	 x15:0xfffffe7d x17:0x7fff607c
       41445000	      4143	00000000	00000013	addi	x0,x0,0	  x0:0x00000000
       41455000	      4144	80001ff0	00000013	addi	x0,x0,0	  x0:0x00000000
       41465000	      4145	80001ff4	a0efe693	ori	x13,x31,-1522	 x31:0x80009fc4 x13=0xffffffce
       41475000	      4146	80001ff8	05acd663	bge	x25,x26,80002044	 x25:0xfffffbab x26:0x0011891d
       41485000	      4147	80001ffc	019a93b3	sll	x7,x21,x25	 x21:0x80009f84 x25:0xfffffbab  x7=0x04fc2000
       41495000	      4148	80002000	021ad663	bge	x21,x1,8000202c	 x21:0x80009f84  x1:0x7c698f6c
       41505000	      4149	80002004	406c0a33	sub	x20,x24,x6	 x24:0xe64eea5b  x6:0x3fffb03e x20=0xa64f3a1d
       41515000	      4150	80002008	eb82e013	ori	x0,x5,-328	  x5:0x00000001
       41525000	      4151	8000200c	c0742713	slti	x14,x8,-1017	  x8:0x00000000 x14=0x00000000
       41535000	      4152	80002010	00000013	addi	x0,x0,0	  x0:0x00000000
       41545000	      4153	80002014	01c999b3	sll	x19,x19,x28	 x19:0x00000008 x28:0x00000000 x19=0x00000008
       41555000	      4154	80002018	40a601b3	sub	x3,x12,x10	 x12:0x00000000 x10:0x00000001  x3=0xffffffff
       41565000	      4155	8000201c	00204433	xor	x8,x0,x2	  x0:0x00000000  x2:0xb7aee122  x8=0xb7aee122
       41575000	      4156	80002020	a566ba13	sltiu	x20,x13,-1450	 x13:0xffffffce x20=0x00000000
       41585000	      4157	80002024	419a5f13	srai	x30,x20,0x19	 x20:0x00000000 x30=0x00000000
       41595000	      4158	80002028	04a2f863	bgeu	x5,x10,80002078	  x5:0x00000001 x10:0x00000001
       41605000	      4159	00000000	00000013	addi	x0,x0,0	  x0:0x00000000
       41615000	      4160	80002074	00000013	addi	x0,x0,0	  x0:0x00000000
       41625000	      4161	80002078	41db5793	srai	x15,x22,0x1d	 x22:0x00000001 x15=0x00000000
       41635000	      4162	8000207c	0094fcb3	and	x25,x9,x9	  x9:0x60000000  x9:0x60000000 x25=0x60000000
       41645000	      4163	80002080	00b44c63	blt	x8,x11,80002098	  x8:0xb7aee122 x11:0x00000000
       41655000	      4164	00000000	00000013	addi	x0,x0,0	  x0:0x00000000
       41665000	      4165	80002094	00000013	addi	x0,x0,0	  x0:0x00000000
       41675000	      4166	80002098	00800863	beq	x0,x8,800020a8	  x0:0x00000000  x8:0xb7aee122
       41685000	      4167	8000209c	0499bd13	sltiu	x26,x19,73	 x19:0x00000008 x26=0x00000001
       41695000	      4168	800020a0	93a14993	xori	x19,x2,-1734	  x2:0xb7aee122 x19=0x48511818
       41705000	      4169	800020a4	028ad663	bge	x21,x8,800020d0	 x21:0x80009f84  x8:0xb7aee122
       41715000	      4170	800020a8	0045d833	srl	x16,x11,x4	 x11:0x00000000  x4:0x00000000 x16=0x00000000
       41725000	      4171	800020ac	00f89c13	slli	x24,x17,0xf	 x17:0x7fff607c x24=0xb03e0000
       41735000	      4172	800020b0	34e3c913	xori	x18,x7,846	  x7:0x04fc2000 x18=0x04fc234e
       41745000	      4173	800020b4	41a084b3	sub	x9,x1,x26	  x1:0x7c698f6c x26:0x00000001  x9=0x7c698f6b
       41755000	      4174	800020b8	0087d213	srli	x4,x15,0x8	 x15:0x00000000  x4=0x00000000
       41765000	      4175	800020bc	00000013	addi	x0,x0,0	  x0:0x00000000
       41775000	      4176	800020c0	05487063	bgeu	x16,x20,80002100	 x16:0x00000000 x20:0x00000000
       41785000	      4177	00000000	00000013	addi	x0,x0,0	  x0:0x00000000
       41795000	      4178	800020fc	00000013	addi	x0,x0,0	  x0:0x00000000
       41805000	      4179	80002100	03960663	beq	x12,x25,8000212c	 x12:0x00000000 x25:0x60000000
       41815000	      4180	80002104	00059033	sll	x0,x11,x0	 x11:0x00000000  x0:0x00000000
       41825000	      4181	80002108	a7980f13	addi	x30,x16,-1415	 x16:0x00000000 x30=0xfffffa79
       41835000	      4182	8000210c	9e0a5397	auipc	x7,0x9e0a5	  x7=0x1e0a7108
       41845000	      4183	80002110	01a78e33	add	x28,x15,x26	 x15:0x00000000 x26:0x00000001 x28=0x00000001
       41855000	      4184	80002114	009f1713	slli	x14,x30,0x9	 x30:0xfffffa79 x14=0xfff4f200
       41865000	      4185	80002118	76df4713	xori	x14,x30,1901	 x30:0xfffffa79 x14=0xfffffd14
       41875000	      4186	8000211c	c974cb93	xori	x23,x9,-873	  x9:0x7c698f6b x23=0x839673fc
       41885000	      4187	80002120	00499593	slli	x11,x19,0x4	 x19:0x48511818 x11=0x85118180
       41895000	      4188	80002124	0393cc63	blt	x7,x25,8000215c	  x7:0x1e0a7108 x25:0x60000000
       41905000	      4189	00000000	00000013	addi	x0,x0,0	  x0:0x00000000
       41915000	      4190	80002158	00000013	addi	x0,x0,0	  x0:0x00000000
       41925000	      4191	8000215c	96cfcb93	xori	x23,x31,-1684	 x31:0x80009fc4 x23=0x7fff66a8
       41935000	      4192	80002160	03d26093	ori	x1,x4,61	  x4:0x00000000  x1=0x0000003d
       41945000	      4193	80002164	0085ccb3	xor	x25,x11,x8	 x11:0x85118180  x8:0xb7aee122 x25=0x32bf60a2
       41955000	      4194	80002168	01df2533	slt	x10,x30,x29	 x30:0xfffffa79 x29:0x000002a6 x10=0x00000001
       41965000	      4195	8000216c	05396063	bltu	x18,x19,800021ac	 x18:0x04fc234e x19:0x48511818
       41975000	      4196	00000000	00000013	addi	x0,x0,0	  x0:0x00000000
       41985000	      4197	800021a8	00000013	addi	x0,x0,0	  x0:0x00000000
       41995000	      4198	800021ac	3f8cfd93	andi	x27,x25,1016	 x25:0x32bf60a2 x27=0x000000a0
       42005000	      4199	800021b0	41d2da33	sra	x20,x5,x29	  x5:0x00000001 x29:0x000002a6 x20=0x00000000
       42015000	      4200	800021b4	013d8863	beq	x27,x19,800021c4	 x27:0x000000a0 x19:0x48511818
       42025000	      4201	800021b8	009a4d33	xor	x26,x20,x9	 x20:0x00000000  x9:0x7c698f6b x26=0x7c698f6b
       42035000	      4202	800021bc	41cd02b3	sub	x5,x26,x28	 x26:0x7c698f6b x28:0x00000001  x5=0x7c698f6a
       42045000	      4203	800021c0	8f4ee713	ori	x14,x29,-1804	 x29:0x000002a6 x14=0xfffffaf6
       42055000	      4204	800021c4	732dcdb7	lui	x27,0x732dc	 x27=0x732dc000
       42065000	      4205	800021c8	00f48933	add	x18,x9,x15	  x9:0x7c698f6b x15:0x00000000 x18=0x7c698f6b
       42075000	      4206	800021cc	02f75863	bge	x14,x15,800021fc	 x14:0xfffffaf6 x15:0x00000000
       42085000	      4207	800021d0	01935233	srl	x4,x6,x25	  x6:0x3fffb03e x25:0x32bf60a2  x4=0x0fffec0f
       42095000	      4208	800021d4	aff1f297	auipc	x5,0xaff1f	  x5=0x2ff211d0
       42105000	      4209	800021d8	f067e913	ori	x18,x15,-250	 x15:0x00000000 x18=0xffffff06
       42115000	      4210	800021dc	693f8593	addi	x11,x31,1683	 x31:0x80009fc4 x11=0x8000a657
       42125000	      4211	800021e0	01144863	blt	x8,x17,800021f0	  x8:0xb7aee122 x17:0x7fff607c
       42135000	      4212	00000000	00000013	addi	x0,x0,0	  x0:0x00000000
       42145000	      4213	800021ec	00000013	addi	x0,x0,0	  x0:0x00000000
       42155000	      4214	800021f0	f093e713	ori	x14,x7,-247	  x7:0x1e0a7108 x14=0xffffff09
       42165000	      4215	800021f4	0424c063	blt	x9,x2,80002234	  x9:0x7c698f6b  x2:0xb7aee122
       42175000	      4216	800021f8	40098cb3	sub	x25,x19,x0	 x19:0x48511818  x0:0x00000000 x25=0x48511818
       42185000	      4217	800021fc	0272fc63	bgeu	x5,x7,80002234	  x5:0x2ff211d0  x7:0x1e0a7108
       42195000	      4218	00000000	00000013	addi	x0,x0,0	  x0:0x00000000
       42205000	      4219	80002230	00000013	addi	x0,x0,0	  x0:0x00000000
       42215000	      4220	80002234	2aa83d93	sltiu	x27,x16,682	 x16:0x00000000 x27=0x00000001
       42225000	      4221	80002238	04245863	bge	x8,x2,80002288	  x8:0xb7aee122  x2:0xb7aee122
       42235000	      4222	00000000	00000013	addi	x0,x0,0	  x0:0x00000000
       42245000	      4223	80002284	00000013	addi	x0,x0,0	  x0:0x00000000
       42255000	      4224	80002288	07108063	beq	x1,x17,800022e8	  x1:0x0000003d x17:0x7fff607c
       42265000	      4225	8000228c	24fe4b93	xori	x23,x28,591	 x28:0x00000001 x23=0x0000024e
       42275000	      4226	80002290	016a0f33	add	x30,x20,x22	 x20:0x00000000 x22:0x00000001 x30=0x00000001
       42285000	      4227	80002294	85119217	auipc	x4,0x85119	  x4=0x0511b290
       42295000	      4228	80002298	00005797	auipc	x15,0x5	 x15=0x80007294
       42305000	      4229	8000229c	97478793	addi	x15,x15,-1676	 x15:0x80007294 x15=0x80006c08
       42315000	      4230	800022a0	01a1c233	xor	x4,x3,x26	  x3:0xffffffff x26:0x7c698f6b  x4=0x83967094
       42325000	      4231	800022a4	ebf78793	addi	x15,x15,-321	 x15:0x80006c08 x15=0x80006ac7
       42335000	      4232	800022a8	013bf0b3	and	x1,x23,x19	 x23:0x0000024e x19:0x48511818  x1=0x00000008
       42345000	      4233	800022ac	00000013	addi	x0,x0,0	  x0:0x00000000
       42355000	      4234	800022b0	01cea433	slt	x8,x29,x28	 x29:0x000002a6 x28:0x00000001  x8=0x00000000
       42365000	      4235	800022b4	7673c093	xori	x1,x7,1895	  x7:0x1e0a7108  x1=0x1e0a766f
       42375000	      4236	800022b8	76008f37	lui	x30,0x76008	 x30=0x76008000
       42385000	      4237	800022bc	141780e7	jalr	x1,x15,321	 x15:0x80006ac7  x1=0x800022bc
       42395000	      4238	00000000	00000013	addi	x0,x0,0	  x0:0x00000000
       42405000	      4239	80006c08	00000013	addi	x0,x0,0	  x0:0x00000000
       42415000	      4240	80006c0c	00c19263	bne	x3,x12,80006c10	  x3:0xffffffff x12:0x00000000
       42425000	      4241	00000000	00000013	addi	x0,x0,0	  x0:0x00000000
       42435000	      4242	80006c0c	00000013	addi	x0,x0,0	  x0:0x00000000
       42445000	      4243	80006c10	fdca8a93	addi	x21,x21,-36	 x21:0x80009f84 x21=0x80009f60
       42455000	      4244	80006c14	01eb3433	sltu	x8,x22,x30	 x22:0x00000001 x30:0x76008000  x8=0x00000001
       42465000	      4245	80006c18	001aa223	sw	x1,4(x21)	 x21:0x80009f60  x1:0x800022bc PA:0x80009f64
       42475000	      4246	80006c1c	6b3d7a13	andi	x20,x26,1715	 x26:0x7c698f6b x20=0x00000623
       42485000	      4247	80006c20	416d8e33	sub	x28,x27,x22	 x27:0x00000001 x22:0x00000001 x28=0x00000000
       42495000	      4248	80006c24	36753993	sltiu	x19,x10,871	 x10:0x00000001 x19=0x00000001
       42505000	      4249	80006c28	00ba1333	sll	x6,x20,x11	 x20:0x00000623 x11:0x8000a657  x6=0x11800000
       42515000	      4250	80006c2c	13d398b7	lui	x17,0x13d39	 x17=0x13d39000
       42525000	      4251	80006c30	a590b617	auipc	x12,0xa590b	 x12=0x25911c2c
       42535000	      4252	80006c34	01f67e63	bgeu	x12,x31,80006c50	 x12:0x25911c2c x31:0x80009fc4
       42545000	      4253	80006c38	0117a533	slt	x10,x15,x17	 x15:0x80006ac7 x17:0x13d39000 x10=0x00000001
       42555000	      4254	80006c3c	01ada3b3	slt	x7,x27,x26	 x27:0x00000001 x26:0x7c698f6b  x7=0x00000001
       42565000	      4255	80006c40	27e221b7	lui	x3,0x27e22	  x3=0x27e22000
       42575000	      4256	80006c44	3cb14d13	xori	x26,x2,971	  x2:0xb7aee122 x26=0xb7aee2e9
       42585000	      4257	80006c48	414d5bb3	sra	x23,x26,x20	 x26:0xb7aee2e9 x20:0x00000623 x23=0xf6f5dc5d
       42595000	      4258	80006c4c	01ebb3b3	sltu	x7,x23,x30	 x23:0xf6f5dc5d x30:0x76008000  x7=0x00000000
       42605000	      4259	80006c50	c35fb0ef	jal	x1,80006c50	  x1=0x80006c50
       42615000	      4260	00000000	00000013	addi	x0,x0,0	  x0:0x00000000
       42625000	      4261	80002880	00000013	addi	x0,x0,0	  x0:0x00000000
       42635000	      4262	80002884	01e48e33	add	x28,x9,x30	  x9:0x7c698f6b x30:0x76008000 x28=0xf26a0f6b
       42645000	      4263	80002888	df648313	addi	x6,x9,-522	  x9:0x7c698f6b  x6=0x7c698d61
       42655000	      4264	8000288c	00b18863	beq	x3,x11,8000289c	  x3:0x27e22000 x11:0x8000a657
       42665000	      4265	80002890	db144313	xori	x6,x8,-591	  x8:0x00000001  x6=0xfffffdb0
       42675000	      4266	80002894	01324db3	xor	x27,x4,x19	  x4:0x83967094 x19:0x00000001 x27=0x83967095
       42685000	      4267	80002898	415501b3	sub	x3,x10,x21	 x10:0x00000001 x21:0x80009f60  x3=0x7fff60a1
       42695000	      4268	8000289c	ff8a8a93	addi	x21,x21,-8	 x21:0x80009f60 x21=0x80009f58
       42705000	      4269	800028a0	0b3fce13	xori	x28,x31,179	 x31:0x80009fc4 x28=0x80009f77
       42715000	      4270	800028a4	24341597	auipc	x11,0x24341	 x11=0xa43438a0
       42725000	      4271	800028a8	001aa223	sw	x1,4(x21)	 x21:0x80009f58  x1:0x80006c50 PA:0x80009f5c
       42735000	      4272	800028ac	b899a517	auipc	x10,0xb899a	 x10=0x3899c8a8
       42745000	      4273	800028b0	01001a13	slli	x20,x0,0x10	  x0:0x00000000 x20=0x00000000
       42755000	      4274	800028b4	00f1f033	and	x0,x3,x15	  x3:0x7fff60a1 x15:0x80006ac7
       42765000	      4275	800028b8	00dd4333	xor	x6,x26,x13	 x26:0xb7aee2e9 x13:0xffffffce  x6=0x48511d27
       42775000	      4276	800028bc	7eeb7b93	andi	x23,x22,2030	 x22:0x00000001 x23=0x00000000
       42785000	      4277	800028c0	00000013	addi	x0,x0,0	  x0:0x00000000
       42795000	      4278	800028c4	415c09b3	sub	x19,x24,x21	 x24:0xb03e0000 x21:0x80009f58 x19=0x303d60a8
       42805000	      4279	800028c8	b7854e13	xori	x28,x10,-1160	 x10:0x3899c8a8 x28=0xc76633d0
       42815000	      4280	800028cc	01e21863	bne	x4,x30,800028dc	  x4:0x83967094 x30:0x76008000
       42825000	      4281	00000000	00000013	addi	x0,x0,0	  x0:0x00000000
       42835000	      4282	800028d8	00000013	addi	x0,x0,0	  x0:0x00000000
       42845000	      4283	800028dc	3f5020ef	jal	x1,800028dc	  x1=0x800028dc
       42855000	      4284	00000000	00000013	addi	x0,x0,0	  x0:0x00000000
       42865000	      4285	800054cc	00000013	addi	x0,x0,0	  x0:0x00000000
       42875000	      4286	800054d0	01228a63	beq	x5,x18,800054e4	  x5:0x2ff211d0 x18:0xffffff06
       42885000	      4287	800054d4	001bf233	and	x4,x23,x1	 x23:0x00000000  x1:0x800028dc  x4=0x00000000
       42895000	      4288	800054d8	2c0e2613	slti	x12,x28,704	 x28:0xc76633d0 x12=0x00000001
       42905000	      4289	800054dc	0002d293	srli	x5,x5,0x0	  x5:0x2ff211d0  x5=0x2ff211d0
       42915000	      4290	800054e0	00845533	srl	x10,x8,x8	  x8:0x00000001  x8:0x00000001 x10=0x00000000
       42925000	      4291	800054e4	fe0a8a93	addi	x21,x21,-32	 x21:0x80009f58 x21=0x80009f38
       42935000	      4292	800054e8	001aa223	sw	x1,4(x21)	 x21:0x80009f38  x1:0x800028dc PA:0x80009f3c
       42945000	      4293	800054ec	af0cf613	andi	x12,x25,-1296	 x25:0x48511818 x12=0x48511810
       42955000	      4294	800054f0	00b55233	srl	x4,x10,x11	 x10:0x00000000 x11:0xa43438a0  x4=0x00000000
       42965000	      4295	800054f4	409cd613	srai	x12,x25,0x9	 x25:0x48511818 x12=0x0024288c
       42975000	      4296	800054f8	0155ff33	and	x30,x11,x21	 x11:0xa43438a0 x21:0x80009f38 x30=0x80001820
       42985000	      4297	800054fc	000ff863	bgeu	x31,x0,8000550c	 x31:0x80009fc4  x0:0x00000000
       42995000	      4298	00000000	00000013	addi	x0,x0,0	  x0:0x00000000
       43005000	      4299	80005508	00000013	addi	x0,x0,0	  x0:0x00000000
       43015000	      4300	8000550c	0c8000ef	jal	x1,8000550c	  x1=0x8000550c
       43025000	      4301	00000000	00000013	addi	x0,x0,0	  x0:0x00000000
       43035000	      4302	800055d0	00000013	addi	x0,x0,0	  x0:0x00000000
       43045000	      4303	800055d4	0171e8b3	or	x17,x3,x23	  x3:0x7fff60a1 x23:0x00000000 x17=0x7fff60a1
       43055000	      4304	800055d8	005ac263	blt	x21,x5,800055dc	 x21:0x80009f38  x5:0x2ff211d0
       43065000	      4305	00000000	00000013	addi	x0,x0,0	  x0:0x00000000
       43075000	      4306	800055d8	00000013	addi	x0,x0,0	  x0:0x00000000
       43085000	      4307	800055dc	fe8a8a93	addi	x21,x21,-24	 x21:0x80009f38 x21=0x80009f20
       43095000	      4308	800055e0	b007c893	xori	x17,x15,-1280	 x15:0x80006ac7 x17=0x7fff91c7
       43105000	      4309	800055e4	001aa223	sw	x1,4(x21)	 x21:0x80009f20  x1:0x8000550c PA:0x80009f24
       43115000	      4310	800055e8	00899333	sll	x6,x19,x8	 x19:0x303d60a8  x8:0x00000001  x6=0x607ac150
       43125000	      4311	800055ec	8aa2a013	slti	x0,x5,-1878	  x5:0x2ff211d0
       43135000	      4312	800055f0	41270433	sub	x8,x14,x18	 x14:0xffffff09 x18:0xffffff06  x8=0x00000003
       43145000	      4313	800055f4	00003797	auipc	x15,0x3	 x15=0x800085f0
       43155000	      4314	800055f8	2d678793	addi	x15,x15,726	 x15:0x800085f0 x15=0x800088c6
       43165000	      4315	800055fc	01f29db3	sll	x27,x5,x31	  x5:0x2ff211d0 x31:0x80009fc4 x27=0xff211d00
       43175000	      4316	80005600	0ee7a503	lw	x10,238(x15)	 x15:0x800088c6 x10=0x9c6e9e9f PA:0x800089b4
       43185000	      4317	80005604	04679b23	sh	x6,86(x15)	 x15:0x800088c6  x6:0x607ac150 PA:0x8000891c
       43195000	      4318	80005608	03a781a3	sb	x26,35(x15)	 x15:0x800088c6 x26:0xb7aee2e9 PA:0x800088e9
       43205000	      4319	8000560c	0b17c683	lbu	x13,177(x15)	 x15:0x800088c6 x13=0x0000005c PA:0x80008977
       43215000	      4320	80005610	01cba4b3	slt	x9,x23,x28	 x23:0x00000000 x28:0xc76633d0  x9=0x00000000
       43225000	      4321	80005614	f9379923	sh	x19,-110(x15)	 x15:0x800088c6 x19:0x303d60a8 PA:0x80008858
       43235000	      4322	80005618	54903693	sltiu	x13,x0,1353	  x0:0x00000000 x13=0x00000001
       43245000	      4323	8000561c	011455b3	srl	x11,x8,x17	  x8:0x00000003 x17:0x7fff91c7 x11=0x00000000
       43255000	      4324	80005620	0e6789a3	sb	x6,243(x15)	 x15:0x800088c6  x6:0x607ac150 PA:0x800089b9
       43265000	      4325	80005624	006230b3	sltu	x1,x4,x6	  x4:0x00000000  x6:0x607ac150  x1=0x00000001
       43275000	      4326	80005628	08d78703	lb	x14,141(x15)	 x15:0x800088c6 x14=0x00000038 PA:0x80008953
       43285000	      4327	8000562c	0bf7c683	lbu	x13,191(x15)	 x15:0x800088c6 x13=0x0000006e PA:0x80008985
       43295000	      4328	80005630	12aefd93	andi	x27,x29,298	 x29:0x000002a6 x27=0x00000022
       43305000	      4329	80005634	0fe78c03	lb	x24,254(x15)	 x15:0x800088c6 x24=0xffffffaf PA:0x800089c4
       43315000	      4330	80005638	01b05b93	srli	x23,x0,0x1b	  x0:0x00000000 x23=0x00000000
       43325000	      4331	8000563c	f757c203	lbu	x4,-139(x15)	 x15:0x800088c6  x4=0x00000020 PA:0x8000883b
       43335000	      4332	80005640	274d2193	slti	x3,x26,628	 x26:0xb7aee2e9  x3=0x00000001
       43345000	      4333	80005644	0093da13	srli	x20,x7,0x9	  x7:0x00000000 x20=0x00000000
       43355000	      4334	80005648	fcd78c03	lb	x24,-51(x15)	 x15:0x800088c6 x24=0x00000078 PA:0x80008893
       43365000	      4335	8000564c	0d778e83	lb	x29,215(x15)	 x15:0x800088c6 x29=0xffffff86 PA:0x8000899d
       43375000	      4336	80005650	0c878e23	sb	x8,220(x15)	 x15:0x800088c6  x8:0x00000003 PA:0x800089a2
       43385000	      4337	80005654	0056f933	and	x18,x13,x5	 x13:0x0000006e  x5:0x2ff211d0 x18=0x00000040
       43395000	      4338	80005658	40510333	sub	x6,x2,x5	  x2:0xb7aee122  x5:0x2ff211d0  x6=0x87bccf52
       43405000	      4339	8000565c	09378aa3	sb	x19,149(x15)	 x15:0x800088c6 x19:0x303d60a8 PA:0x8000895b
       43415000	      4340	80005660	40c05013	srai	x0,x0,0xc	  x0:0x00000000
       43425000	      4341	80005664	00a29933	sll	x18,x5,x10	  x5:0x2ff211d0 x10:0x9c6e9e9f x18=0x00000000
       43435000	      4342	80005668	0fc79023	sh	x28,224(x15)	 x15:0x800088c6 x28:0xc76633d0 PA:0x800089a6
       43445000	      4343	8000566c	07278423	sb	x18,104(x15)	 x15:0x800088c6 x18:0x00000000 PA:0x8000892e
       43455000	      4344	80005670	00a50233	add	x4,x10,x10	 x10:0x9c6e9e9f x10:0x9c6e9e9f  x4=0x38dd3d3e
       43465000	      4345	80005674	04d78403	lb	x8,77(x15)	 x15:0x800088c6  x8=0xfffffff8 PA:0x80008913
       43475000	      4346	80005678	f7479203	lh	x4,-140(x15)	 x15:0x800088c6  x4=0x00002021 PA:0x8000883a
       43485000	      4347	8000567c	015c5033	srl	x0,x24,x21	 x24:0x00000078 x21:0x80009f20
       43495000	      4348	80005680	0cf78c03	lb	x24,207(x15)	 x15:0x800088c6 x24=0x0000007e PA:0x80008995
       43505000	      4349	80005684	0b178423	sb	x17,168(x15)	 x15:0x800088c6 x17:0x7fff91c7 PA:0x8000896e
       43515000	      4350	80005688	414155b3	sra	x11,x2,x20	  x2:0xb7aee122 x20:0x00000000 x11=0xb7aee122
       43525000	      4351	8000568c	0ab78483	lb	x9,171(x15)	 x15:0x800088c6  x9=0x0000005a PA:0x80008971
       43535000	      4352	80005690	01cb5293	srli	x5,x22,0x1c	 x22:0x00000001  x5=0x00000000
       43545000	      4353	80005694	00926933	or	x18,x4,x9	  x4:0x00002021  x9:0x0000005a x18=0x0000207b
       43555000	      4354	80005698	02178a03	lb	x20,33(x15)	 x15:0x800088c6 x20=0xffffffcc PA:0x800088e7
       43565000	      4355	8000569c	00003497	auipc	x9,0x3	  x9=0x80008698
       43575000	      4356	800056a0	fa448493	addi	x9,x9,-92	  x9:0x80008698  x9=0x8000863c
       43585000	      4357	800056a4	fd248303	lb	x6,-46(x9)	  x9:0x8000863c  x6=0xffffffc5 PA:0x8000860e
       43595000	      4358	800056a8	411cd913	srai	x18,x25,0x11	 x25:0x48511818 x18=0x00002428
       43605000	      4359	800056ac	fea4d803	lhu	x16,-22(x9)	  x9:0x8000863c x16=0x0000dcdd PA:0x80008626
       43615000	      4360	800056b0	8a460393	addi	x7,x12,-1884	 x12:0x0024288c  x7=0x00242130
       43625000	      4361	800056b4	008396b3	sll	x13,x7,x8	  x7:0x00242130  x8:0xfffffff8 x13=0x30000000
       43635000	      4362	800056b8	01a45c33	srl	x24,x8,x26	  x8:0xfffffff8 x26:0xb7aee2e9 x24=0x007fffff
       43645000	      4363	800056bc	03d49323	sh	x29,38(x9)	  x9:0x8000863c x29:0xffffff86 PA:0x80008662
       43655000	      4364	800056c0	fdd4c703	lbu	x14,-35(x9)	  x9:0x8000863c x14=0x000000d2 PA:0x80008619
       43665000	      4365	800056c4	fc14c803	lbu	x16,-63(x9)	  x9:0x8000863c x16=0x000000b6 PA:0x800085fd
       43675000	      4366	800056c8	007f83b3	add	x7,x31,x7	 x31:0x80009fc4  x7:0x00242130  x7=0x8024c0f4
       43685000	      4367	800056cc	69e5f517	auipc	x10,0x69e5f	 x10=0xe9e646c8
       43695000	      4368	800056d0	fe04a183	lw	x3,-32(x9)	  x9:0x8000863c  x3=0xd4d5d6d7 PA:0x8000861c
       43705000	      4369	800056d4	00b4b933	sltu	x18,x9,x11	  x9:0x8000863c x11:0xb7aee122 x18=0x00000001
       43715000	      4370	800056d8	ff048aa3	sb	x16,-11(x9)	  x9:0x8000863c x16:0x000000b6 PA:0x80008631
       43725000	      4371	800056dc	ffa48003	lb	x0,-6(x9)	  x9:0x8000863c PA:0x80008636
       43735000	      4372	800056e0	fee49a03	lh	x20,-18(x9)	  x9:0x8000863c x20=0x00000000 PA:0x8000862a
       43745000	      4373	800056e4	40b1d9b3	sra	x19,x3,x11	  x3:0xd4d5d6d7 x11:0xb7aee122 x19=0xf53575b5
       43755000	      4374	800056e8	0304cb03	lbu	x22,48(x9)	  x9:0x8000863c x22=0x00000027 PA:0x8000866c
       43765000	      4375	800056ec	40035833	sra	x16,x6,x0	  x6:0xffffffc5  x0:0x00000000 x16=0xffffffc5
       43775000	      4376	800056f0	eabb6b13	ori	x22,x22,-341	 x22:0x00000027 x22=0xfffffeaf
       43785000	      4377	800056f4	fdb48d83	lb	x27,-37(x9)	  x9:0x8000863c x27=0xffffffcc PA:0x80008617
       43795000	      4378	800056f8	0114a623	sw	x17,12(x9)	  x9:0x8000863c x17:0x7fff91c7 PA:0x80008648
       43805000	      4379	800056fc	fef4c083	lbu	x1,-17(x9)	  x9:0x8000863c  x1=0x00000000 PA:0x8000862b
       43815000	      4380	80005700	fc348d23	sb	x3,-38(x9)	  x9:0x8000863c  x3:0xd4d5d6d7 PA:0x80008616
       43825000	      4381	80005704	7487e913	ori	x18,x15,1864	 x15:0x800088c6 x18=0x80008fce
       43835000	      4382	80005708	0224dd83	lhu	x27,34(x9)	  x9:0x8000863c x27=0x00001415 PA:0x8000865e
       43845000	      4383	8000570c	fb15f393	andi	x7,x11,-79	 x11:0xb7aee122  x7=0xb7aee120
       43855000	      4384	80005710	fd04c383	lbu	x7,-48(x9)	  x9:0x8000863c  x7=0x000000c7 PA:0x8000860c
       43865000	      4385	80005714	61bce813	ori	x16,x25,1563	 x25:0x48511818 x16=0x48511e1b
       43875000	      4386	80005718	01677cb3	and	x25,x14,x22	 x14:0x000000d2 x22:0xfffffeaf x25=0x00000082
       43885000	      4387	8000571c	fd44ce03	lbu	x28,-44(x9)	  x9:0x8000863c x28=0x000000cb PA:0x80008610
       43895000	      4388	80005720	00003317	auipc	x6,0x3	  x6=0x8000871c
       43905000	      4389	80005724	f9b30313	addi	x6,x6,-101	  x6:0x8000871c  x6=0x800086b7
       43915000	      4390	80005728	0a930383	lb	x7,169(x6)	  x6:0x800086b7  x7=0x0000001b PA:0x80008760
       43925000	      4391	8000572c	00000013	addi	x0,x0,0	  x0:0x00000000
       43935000	      4392	80005730	0a030203	lb	x4,160(x6)	  x6:0x800086b7  x4=0x0000000c PA:0x80008757
       43945000	      4393	80005734	07630d83	lb	x27,118(x6)	  x6:0x800086b7 x27=0xffffffe6 PA:0x8000872d
       43955000	      4394	80005738	f3f309a3	sb	x31,-205(x6)	  x6:0x800086b7 x31:0x80009fc4 PA:0x800085ea
       43965000	      4395	8000573c	f0530003	lb	x0,-251(x6)	  x6:0x800086b7 PA:0x800085bc
       43975000	      4396	80005740	f5134b03	lbu	x22,-175(x6)	  x6:0x800086b7 x22=0x000000c3 PA:0x80008608
       43985000	      4397	80005744	0f030f03	lb	x30,240(x6)	  x6:0x800086b7 x30=0x0000005c PA:0x800087a7
       43995000	      4398	80005748	016871b3	and	x3,x16,x22	 x16:0x48511e1b x22:0x000000c3  x3=0x00000003
       44005000	      4399	8000574c	07234483	lbu	x9,114(x6)	  x6:0x800086b7  x9=0x000000e2 PA:0x80008729
       44015000	      4400	80005750	440e6c93	ori	x25,x28,1088	 x28:0x000000cb x25=0x000004cb
       44025000	      4401	80005754	f9030b23	sb	x16,-106(x6)	  x6:0x800086b7 x16:0x48511e1b PA:0x8000864d
       44035000	      4402	80005758	00da47b3	xor	x15,x20,x13	 x20:0x00000000 x13:0x30000000 x15=0x30000000
       44045000	      4403	8000575c	25006d13	ori	x26,x0,592	  x0:0x00000000 x26=0x00000250
       44055000	      4404	80005760	00fb1433	sll	x8,x22,x15	 x22:0x000000c3 x15:0x30000000  x8=0x000000c3
       44065000	      4405	80005764	6d85b713	sltiu	x14,x11,1752	 x11:0xb7aee122 x14=0x00000000
       44075000	      4406	80005768	78d12393	slti	x7,x2,1933	  x2:0xb7aee122  x7=0x00000001
       44085000	      4407	8000576c	008c53b3	srl	x7,x24,x8	 x24:0x007fffff  x8:0x000000c3  x7=0x000fffff
       44095000	      4408	80005770	fd734683	lbu	x13,-41(x6)	  x6:0x800086b7 x13=0x00000045 PA:0x8000868e
       44105000	      4409	80005774	fb730b23	sb	x23,-74(x6)	  x6:0x800086b7 x23:0x00000000 PA:0x8000866d
       44115000	      4410	80005778	05e30283	lb	x5,94(x6)	  x6:0x800086b7  x5=0xffffffce PA:0x80008715
       44125000	      4411	8000577c	15afc413	xori	x8,x31,346	 x31:0x80009fc4  x8=0x80009e9e
       44135000	      4412	80005780	00edf433	and	x8,x27,x14	 x27:0xffffffe6 x14:0x00000000  x8=0x00000000
       44145000	      4413	80005784	03434083	lbu	x1,52(x6)	  x6:0x800086b7  x1=0x000000a0 PA:0x800086eb
       44155000	      4414	80005788	03034403	lbu	x8,48(x6)	  x6:0x800086b7  x8=0x0000009c PA:0x800086e7
       44165000	      4415	00000000	00000013	addi	x0,x0,0	  x0:0x00000000
       44175000	      4416	8000578c	04834403	lbu	x8,72(x6)	  x6:0x800086b7  x8=0x000000b4 PA:0x800086ff
       44185000	      4417	80005790	0c3322a3	sw	x3,197(x6)	  x6:0x800086b7  x3:0x00000003 PA:0x8000877c
       44195000	      4418	80005794	00dbadb3	slt	x27,x23,x13	 x23:0x00000000 x13:0x00000045 x27=0x00000001
       44205000	      4419	80005798	0ab30b23	sb	x11,182(x6)	  x6:0x800086b7 x11:0xb7aee122 PA:0x8000876d
       44215000	      4420	8000579c	f4330e03	lb	x28,-189(x6)	  x6:0x800086b7 x28=0xffffffb1 PA:0x800085fa
       44225000	      4421	800057a0	884db513	sltiu	x10,x27,-1916	 x27:0x00000001 x10=0x00000001
       44235000	      4422	800057a4	a5072597	auipc	x11,0xa5072	 x11=0x250777a0
       44245000	      4423	800057a8	dd9bae93	slti	x29,x23,-551	 x23:0x00000000 x29=0x00000000
       44255000	      4424	800057ac	0d430e23	sb	x20,220(x6)	  x6:0x800086b7 x20:0x00000000 PA:0x80008793
       44265000	      4425	800057b0	085317a3	sh	x5,143(x6)	  x6:0x800086b7  x5:0xffffffce PA:0x80008746
       44275000	      4426	800057b4	04330e23	sb	x3,92(x6)	  x6:0x800086b7  x3:0x00000003 PA:0x80008713
       44285000	      4427	800057b8	02334b03	lbu	x22,35(x6)	  x6:0x800086b7 x22=0x00000091 PA:0x800086da
       44295000	      4428	800057bc	f6a305a3	sb	x10,-149(x6)	  x6:0x800086b7 x10:0x00000001 PA:0x80008622
       44305000	      4429	800057c0	644f7093	andi	x1,x30,1604	 x30:0x0000005c  x1=0x00000044
       44315000	      4430	800057c4	0cb30323	sb	x11,198(x6)	  x6:0x800086b7 x11:0x250777a0 PA:0x8000877d
       44325000	      4431	800057c8	fea30c23	sb	x10,-8(x6)	  x6:0x800086b7 x10:0x00000001 PA:0x800086af
       44335000	      4432	800057cc	fff30983	lb	x19,-1(x6)	  x6:0x800086b7 x19=0x0000006d PA:0x800086b6
       44345000	      4433	800057d0	0d630583	lb	x11,214(x6)	  x6:0x800086b7 x11=0x00000046 PA:0x8000878d
       44355000	      4434	800057d4	00003d97	auipc	x27,0x3	 x27=0x800087d0
       44365000	      4435	800057d8	4e1d8d93	addi	x27,x27,1249	 x27:0x800087d0 x27=0x80008cb1
       44375000	      4436	800057dc	bbedc883	lbu	x17,-1090(x27)	 x27:0x80008cb1 x17=0x00000054 PA:0x8000886f
       44385000	      4437	800057e0	00000013	addi	x0,x0,0	  x0:0x00000000
       44395000	      4438	800057e4	0142b1b3	sltu	x3,x5,x20	  x5:0xffffffce x20:0x00000000  x3=0x00000000
       44405000	      4439	800057e8	415e58b3	sra	x17,x28,x21	 x28:0xffffffb1 x21:0x80009f20 x17=0xffffffb1
       44415000	      4440	800057ec	01041e33	sll	x28,x8,x16	  x8:0x000000b4 x16:0x48511e1b x28=0xa0000000
       44425000	      4441	800057f0	f39d9e03	lh	x28,-199(x27)	 x27:0x80008cb1 x28=0xffffd0d1 PA:0x80008bea
       44435000	      4442	800057f4	d75ac837	lui	x16,0xd75ac	 x16=0xd75ac000
       44445000	      4443	800057f8	f09d9183	lh	x3,-247(x27)	 x27:0x80008cb1  x3=0xffffa0a1 PA:0x80008bba
       44455000	      4444	800057fc	004dac33	slt	x24,x27,x4	 x27:0x80008cb1  x4:0x0000000c x24=0x00000001
       44465000	      4445	80005800	00000013	addi	x0,x0,0	  x0:0x00000000
       44475000	      4446	80005804	334dc303	lbu	x6,820(x27)	 x27:0x80008cb1  x6=0x000000ce PA:0x80008fe5
       44485000	      4447	80005808	01269e93	slli	x29,x13,0x12	 x13:0x00000045 x29=0x01140000
       44495000	      4448	8000580c	41278cb3	sub	x25,x15,x18	 x15:0x30000000 x18:0x80008fce x25=0xafff7032
       44505000	      4449	80005810	e7d8aa13	slti	x20,x17,-387	 x17:0xffffffb1 x20=0x00000000
       44515000	      4450	80005814	cf3dd403	lhu	x8,-781(x27)	 x27:0x80008cb1  x8=0x00008e8f PA:0x800089a4
       44525000	      4451	80005818	2d0dcd03	lbu	x26,720(x27)	 x27:0x80008cb1 x26=0x0000006a PA:0x80008f81
       44535000	      4452	8000581c	2670e013	ori	x0,x1,615	  x1:0x00000044
       44545000	      4453	80005820	00b2c2b3	xor	x5,x5,x11	  x5:0xffffffce x11:0x00000046  x5=0xffffff88
       44555000	      4454	80005824	0a7d8923	sb	x7,178(x27)	 x27:0x80008cb1  x7:0x000fffff PA:0x80008d63
       44565000	      4455	80005828	dbbda3a3	sw	x27,-601(x27)	 x27:0x80008cb1 x27:0x80008cb1 PA:0x80008a58
       44575000	      4456	8000582c	01e463b3	or	x7,x8,x30	  x8:0x00008e8f x30:0x0000005c  x7=0x00008edf
       44585000	      4457	80005830	406a5593	srai	x11,x20,0x6	 x20:0x00000000 x11=0x00000000
       44595000	      4458	80005834	d034f993	andi	x19,x9,-765	  x9:0x000000e2 x19=0x00000002
       44605000	      4459	80005838	01ebd8b3	srl	x17,x23,x30	 x23:0x00000000 x30:0x0000005c x17=0x00000000
       44615000	      4460	8000583c	c80dc683	lbu	x13,-896(x27)	 x27:0x80008cb1 x13=0x0000001a PA:0x80008931
       44625000	      4461	80005840	f45dc703	lbu	x14,-187(x27)	 x27:0x80008cb1 x14=0x000000dd PA:0x80008bf6
       44635000	      4462	80005844	00b81393	slli	x7,x16,0xb	 x16:0xd75ac000  x7=0xd6000000
       44645000	      4463	80005848	01a15b33	srl	x22,x2,x26	  x2:0xb7aee122 x26:0x0000006a x22=0x002debb8
       44655000	      4464	8000584c	90524693	xori	x13,x4,-1787	  x4:0x0000000c x13=0xfffff909
       44665000	      4465	80005850	00a9d8b3	srl	x17,x19,x10	 x19:0x00000002 x10:0x00000001 x17=0x00000001
       44675000	      4466	80005854	cefd9da3	sh	x15,-773(x27)	 x27:0x80008cb1 x15:0x30000000 PA:0x800089ac
       44685000	      4467	80005858	d8ed8683	lb	x13,-626(x27)	 x27:0x80008cb1 x13=0x00000000 PA:0x80008a3f
       44695000	      4468	8000585c	00003f17	auipc	x30,0x3	 x30=0x80008858
       44705000	      4469	80005860	16ff0f13	addi	x30,x30,367	 x30:0x80008858 x30=0x800089c7
       44715000	      4470	80005864	fe9f0e83	lb	x29,-23(x30)	 x30:0x800089c7 x29=0xffffff9b PA:0x800089b0
       44725000	      4471	00000000	00000013	addi	x0,x0,0	  x0:0x00000000
       44735000	      4472	80005868	00cedd93	srli	x27,x29,0xc	 x29:0xffffff9b x27=0x000fffff
       44745000	      4473	8000586c	f74f4c03	lbu	x24,-140(x30)	 x30:0x800089c7 x24=0x00000020 PA:0x8000893b
       44755000	      4474	80005870	fddf0e23	sb	x29,-36(x30)	 x30:0x800089c7 x29:0xffffff9b PA:0x800089a3
       44765000	      4475	80005874	4e698293	addi	x5,x19,1254	 x19:0x00000002  x5=0x000004e8
       44775000	      4476	80005878	f7df4283	lbu	x5,-131(x30)	 x30:0x800089c7  x5=0x0000002f PA:0x80008944
       44785000	      4477	8000587c	fe9f4183	lbu	x3,-23(x30)	 x30:0x800089c7  x3=0x0000009b PA:0x800089b0
       44795000	      4478	00000000	00000013	addi	x0,x0,0	  x0:0x00000000
       44805000	      4479	80005880	f63f4603	lbu	x12,-157(x30)	 x30:0x800089c7 x12=0x00000011 PA:0x8000892a
       44815000	      4480	80005884	0d5f4c83	lbu	x25,213(x30)	 x30:0x800089c7 x25=0x00000087 PA:0x80008a9c
       44825000	      4481	80005888	00818933	add	x18,x3,x8	  x3:0x0000009b  x8:0x00008e8f x18=0x00008f2a
       44835000	      4482	8000588c	fbef0303	lb	x6,-66(x30)	 x30:0x800089c7  x6=0x0000006e PA:0x80008985
       44845000	      4483	80005890	e527ad93	slti	x27,x15,-430	 x15:0x30000000 x27=0x00000000
       44855000	      4484	80005894	f5ef0903	lb	x18,-162(x30)	 x30:0x800089c7 x18=0x0000000e PA:0x80008925
       44865000	      4485	80005898	044f4503	lbu	x10,68(x30)	 x30:0x800089c7 x10=0x000000f0 PA:0x80008a0b
       44875000	      4486	8000589c	6be73413	sltiu	x8,x14,1726	 x14:0x000000dd  x8=0x00000001
       44885000	      4487	800058a0	41b5de13	srai	x28,x11,0x1b	 x11:0x00000000 x28=0x00000000
       44895000	      4488	800058a4	008f0603	lb	x12,8(x30)	 x30:0x800089c7 x12=0xffffffb4 PA:0x800089cf
       44905000	      4489	800058a8	00856633	or	x12,x10,x8	 x10:0x000000f0  x8:0x00000001 x12=0x000000f1
       44915000	      4490	800058ac	f6bf0823	sb	x11,-144(x30)	 x30:0x800089c7 x11:0x00000000 PA:0x80008937
       44925000	      4491	800058b0	41aa8333	sub	x6,x21,x26	 x21:0x80009f20 x26:0x0000006a  x6=0x80009eb6
       44935000	      4492	800058b4	04df1da3	sh	x13,91(x30)	 x30:0x800089c7 x13:0x00000000 PA:0x80008a22
       44945000	      4493	800058b8	020f0683	lb	x13,32(x30)	 x30:0x800089c7 x13=0xffffffcc PA:0x800089e7
       44955000	      4494	800058bc	90838393	addi	x7,x7,-1784	  x7:0xd6000000  x7=0xd5fff908
       44965000	      4495	800058c0	2439bb13	sltiu	x22,x19,579	 x19:0x00000002 x22=0x00000001
       44975000	      4496	800058c4	41e2d293	srai	x5,x5,0x1e	  x5:0x0000002f  x5=0x00000000
       44985000	      4497	800058c8	0139ebb3	or	x23,x19,x19	 x19:0x00000002 x19:0x00000002 x23=0x00000002
       44995000	      4498	800058cc	008be5b3	or	x11,x23,x8	 x23:0x00000002  x8:0x00000001 x11=0x00000003
       45005000	      4499	800058d0	fbef4203	lbu	x4,-66(x30)	 x30:0x800089c7  x4=0x0000006e PA:0x80008985
       45015000	      4500	800058d4	032f4583	lbu	x11,50(x30)	 x30:0x800089c7 x11=0x000000e2 PA:0x800089f9
       45025000	      4501	800058d8	3884d537	lui	x10,0x3884d	 x10=0x3884d000
       45035000	      4502	800058dc	40ec58b3	sra	x17,x24,x14	 x24:0x00000020 x14:0x000000dd x17=0x00000000
       45045000	      4503	800058e0	b0593a37	lui	x20,0xb0593	 x20=0xb0593000
       45055000	      4504	800058e4	00795b33	srl	x22,x18,x7	 x18:0x0000000e  x7:0xd5fff908 x22=0x00000000
       45065000	      4505	800058e8	fe8f4703	lbu	x14,-24(x30)	 x30:0x800089c7 x14=0x00000094 PA:0x800089af
       45075000	      4506	800058ec	76cb3db7	lui	x27,0x76cb3	 x27=0x76cb3000
       45085000	      4507	800058f0	0bef4603	lbu	x12,190(x30)	 x30:0x800089c7 x12=0x0000006e PA:0x80008a85
       45095000	      4508	800058f4	fa0f0783	lb	x15,-96(x30)	 x30:0x800089c7 x15=0x0000004c PA:0x80008967
       45105000	      4509	800058f8	00735993	srli	x19,x6,0x7	  x6:0x80009eb6 x19=0x0100013d
       45115000	      4510	800058fc	052f01a3	sb	x18,67(x30)	 x30:0x800089c7 x18:0x0000000e PA:0x80008a0a
       45125000	      4511	80005900	fe4f07a3	sb	x4,-17(x30)	 x30:0x800089c7  x4:0x0000006e PA:0x800089b6
       45135000	      4512	80005904	fdff5283	lhu	x5,-33(x30)	 x30:0x800089c7  x5=0x000033d0 PA:0x800089a6
       45145000	      4513	80005908	fd9f4083	lbu	x1,-39(x30)	 x30:0x800089c7  x1=0x0000008b PA:0x800089a0
       45155000	      4514	8000590c	4437b097	auipc	x1,0x4437b	  x1=0xc4380908
       45165000	      4515	80005910	0b0f0183	lb	x3,176(x30)	 x30:0x800089c7  x3=0x0000005c PA:0x80008a77
       45175000	      4516	80005914	49884713	xori	x14,x16,1176	 x16:0xd75ac000 x14=0xd75ac498
       45185000	      4517	80005918	41eed633	sra	x12,x29,x30	 x29:0xffffff9b x30:0x800089c7 x12=0xffffffff
       45195000	      4518	8000591c	40df07b3	sub	x15,x30,x13	 x30:0x800089c7 x13:0xffffffcc x15=0x800089fb
       45205000	      4519	80005920	02647e63	bgeu	x8,x6,8000595c	  x8:0x00000001  x6:0x80009eb6
       45215000	      4520	80005924	03577063	bgeu	x14,x21,80005944	 x14:0xd75ac498 x21:0x80009f20
       45225000	      4521	00000000	00000013	addi	x0,x0,0	  x0:0x00000000
       45235000	      4522	80005940	00000013	addi	x0,x0,0	  x0:0x00000000
       45245000	      4523	80005944	c8786e93	ori	x29,x16,-889	 x16:0xd75ac000 x29=0xfffffc87
       45255000	      4524	80005948	0178f9b3	and	x19,x17,x23	 x17:0x00000000 x23:0x00000002 x19=0x00000000
       45265000	      4525	8000594c	40f2d3b3	sra	x7,x5,x15	  x5:0x000033d0 x15:0x800089fb  x7=0x00000000
       45275000	      4526	80005950	00c91f13	slli	x30,x18,0xc	 x18:0x0000000e x30=0x0000e000
       45285000	      4527	80005954	f2c27813	andi	x16,x4,-212	  x4:0x0000006e x16=0x0000002c
       45295000	      4528	80005958	01bf9833	sll	x16,x31,x27	 x31:0x80009fc4 x27:0x76cb3000 x16=0x80009fc4
       45305000	      4529	8000595c	0123abb3	slt	x23,x7,x18	  x7:0x00000000 x18:0x0000000e x23=0x00000001
       45315000	      4530	80005960	055b7463	bgeu	x22,x21,800059a8	 x22:0x00000000 x21:0x80009f20
       45325000	      4531	80005964	003d9f33	sll	x30,x27,x3	 x27:0x76cb3000  x3:0x0000005c x30=0x00000000
       45335000	      4532	80005968	010fc7b3	xor	x15,x31,x16	 x31:0x80009fc4 x16:0x80009fc4 x15=0x00000000
       45345000	      4533	8000596c	0f87e463	bltu	x15,x24,80005a54	 x15:0x00000000 x24:0x00000020
       45355000	      4534	00000000	00000013	addi	x0,x0,0	  x0:0x00000000
       45365000	      4535	80005a50	00000013	addi	x0,x0,0	  x0:0x00000000
       45375000	      4536	80005a54	41b35eb3	sra	x29,x6,x27	  x6:0x80009eb6 x27:0x76cb3000 x29=0x80009eb6
       45385000	      4537	80005a58	01f6d1b3	srl	x3,x13,x31	 x13:0xffffffcc x31:0x80009fc4  x3=0x0ffffffc
       45395000	      4538	80005a5c	8ac02d93	slti	x27,x0,-1876	  x0:0x00000000 x27=0x00000000
       45405000	      4539	80005a60	00e93eb3	sltu	x29,x18,x14	 x18:0x0000000e x14:0xd75ac498 x29=0x00000001
       45415000	      4540	80005a64	02794263	blt	x18,x7,80005a88	 x18:0x0000000e  x7:0x00000000
       45425000	      4541	80005a68	046fd263	bge	x31,x6,80005aac	 x31:0x80009fc4  x6:0x80009eb6
       45435000	      4542	00000000	00000013	addi	x0,x0,0	  x0:0x00000000
       45445000	      4543	80005aa8	00000013	addi	x0,x0,0	  x0:0x00000000
       45455000	      4544	80005aac	f06f2e13	slti	x28,x30,-250	 x30:0x00000000 x28=0x00000000
       45465000	      4545	80005ab0	a26db613	sltiu	x12,x27,-1498	 x27:0x00000000 x12=0x00000001
       45475000	      4546	80005ab4	00000013	addi	x0,x0,0	  x0:0x00000000
       45485000	      4547	80005ab8	c8543d93	sltiu	x27,x8,-891	  x8:0x00000001 x27=0x00000001
       45495000	      4548	80005abc	e66ce713	ori	x14,x25,-410	 x25:0x00000087 x14=0xfffffee7
       45505000	      4549	80005ac0	01d89213	slli	x4,x17,0x1d	 x17:0x00000000  x4=0x00000000
       45515000	      4550	80005ac4	10242c93	slti	x25,x8,258	  x8:0x00000001 x25=0x00000001
       45525000	      4551	80005ac8	00159c63	bne	x11,x1,80005ae0	 x11:0x000000e2  x1:0xc4380908
       45535000	      4552	00000000	00000013	addi	x0,x0,0	  x0:0x00000000
       45545000	      4553	80005adc	00000013	addi	x0,x0,0	  x0:0x00000000
       45555000	      4554	80005ae0	014a41b3	xor	x3,x20,x20	 x20:0xb0593000 x20:0xb0593000  x3=0x00000000
       45565000	      4555	80005ae4	00a08eb3	add	x29,x1,x10	  x1:0xc4380908 x10:0x3884d000 x29=0xfcbcd908
       45575000	      4556	80005ae8	01da3e33	sltu	x28,x20,x29	 x20:0xb0593000 x29:0xfcbcd908 x28=0x00000001
       45585000	      4557	80005aec	01b982b3	add	x5,x19,x27	 x19:0x00000000 x27:0x00000001  x5=0x00000001
       45595000	      4558	80005af0	03239463	bne	x7,x18,80005b18	  x7:0x00000000 x18:0x0000000e
       45605000	      4559	00000000	00000013	addi	x0,x0,0	  x0:0x00000000
       45615000	      4560	80005b14	00000013	addi	x0,x0,0	  x0:0x00000000
       45625000	      4561	80005b18	04284663	blt	x16,x2,80005b64	 x16:0x80009fc4  x2:0xb7aee122
       45635000	      4562	00000000	00000013	addi	x0,x0,0	  x0:0x00000000
       45645000	      4563	80005b60	00000013	addi	x0,x0,0	  x0:0x00000000
       45655000	      4564	80005b64	00000013	addi	x0,x0,0	  x0:0x00000000
       45665000	      4565	80005b68	411b58b3	sra	x17,x22,x17	 x22:0x00000000 x17:0x00000000 x17=0x00000000
       45675000	      4566	80005b6c	b9a64c97	auipc	x25,0xb9a64	 x25=0x39a69b68
       45685000	      4567	80005b70	00000013	addi	x0,x0,0	  x0:0x00000000
       45695000	      4568	80005b74	011bf6b3	and	x13,x23,x17	 x23:0x00000001 x17:0x00000000 x13=0x00000000
       45705000	      4569	80005b78	bf4e1837	lui	x16,0xbf4e1	 x16=0xbf4e1000
       45715000	      4570	80005b7c	40c2dc33	sra	x24,x5,x12	  x5:0x00000001 x12:0x00000001 x24=0x00000000
       45725000	      4571	80005b80	0232da63	bge	x5,x3,80005bb4	  x5:0x00000001  x3:0x00000000
       45735000	      4572	00000000	00000013	addi	x0,x0,0	  x0:0x00000000
       45745000	      4573	80005bb0	00000013	addi	x0,x0,0	  x0:0x00000000
       45755000	      4574	80005bb4	06eac863	blt	x21,x14,80005c24	 x21:0x80009f20 x14:0xfffffee7
       45765000	      4575	00000000	00000013	addi	x0,x0,0	  x0:0x00000000
       45775000	      4576	80005c20	00000013	addi	x0,x0,0	  x0:0x00000000
       45785000	      4577	80005c24	6f14f213	andi	x4,x9,1777	  x9:0x000000e2  x4=0x000000e0
       45795000	      4578	80005c28	00a25b13	srli	x22,x4,0xa	  x4:0x000000e0 x22=0x00000000
       45805000	      4579	80005c2c	00e46c63	bltu	x8,x14,80005c44	  x8:0x00000001 x14:0xfffffee7
       45815000	      4580	00000000	00000013	addi	x0,x0,0	  x0:0x00000000
       45825000	      4581	80005c40	00000013	addi	x0,x0,0	  x0:0x00000000
       45835000	      4582	80005c44	0031b7b3	sltu	x15,x3,x3	  x3:0x00000000  x3:0x00000000 x15=0x00000000
       45845000	      4583	80005c48	0166c663	blt	x13,x22,80005c54	 x13:0x00000000 x22:0x00000000
       45855000	      4584	80005c4c	01be9e93	slli	x29,x29,0x1b	 x29:0xfcbcd908 x29=0x40000000
       45865000	      4585	80005c50	03ef6663	bltu	x30,x30,80005c7c	 x30:0x00000000 x30:0x00000000
       45875000	      4586	80005c54	f393b293	sltiu	x5,x7,-199	  x7:0x00000000  x5=0x00000001
       45885000	      4587	80005c58	40105793	srai	x15,x0,0x1	  x0:0x00000000 x15=0x00000000
       45895000	      4588	80005c5c	05837663	bgeu	x6,x24,80005ca8	  x6:0x80009eb6 x24:0x00000000
       45905000	      4589	00000000	00000013	addi	x0,x0,0	  x0:0x00000000
       45915000	      4590	80005ca4	00000013	addi	x0,x0,0	  x0:0x00000000
       45925000	      4591	80005ca8	36ceab93	slti	x23,x29,876	 x29:0x40000000 x23=0x00000000
       45935000	      4592	80005cac	263170b7	lui	x1,0x26317	  x1=0x26317000
       45945000	      4593	80005cb0	01ce3f33	sltu	x30,x28,x28	 x28:0x00000001 x28:0x00000001 x30=0x00000000
       45955000	      4594	80005cb4	58524717	auipc	x14,0x58524	 x14=0xd8529cb0
       45965000	      4595	80005cb8	01d2b2b3	sltu	x5,x5,x29	  x5:0x00000001 x29:0x40000000  x5=0x00000001
       45975000	      4596	80005cbc	00000013	addi	x0,x0,0	  x0:0x00000000
       45985000	      4597	80005cc0	7b3b8a17	auipc	x20,0x7b3b8	 x20=0xfb3bdcbc
       45995000	      4598	80005cc4	0176d863	bge	x13,x23,80005cd4	 x13:0x00000000 x23:0x00000000
       46005000	      4599	00000000	00000013	addi	x0,x0,0	  x0:0x00000000
       46015000	      4600	80005cd0	00000013	addi	x0,x0,0	  x0:0x00000000
       46025000	      4601	80005cd4	2351e693	ori	x13,x3,565	  x3:0x00000000 x13=0x00000235
       46035000	      4602	80005cd8	02404e63	blt	x0,x4,80005d14	  x0:0x00000000  x4:0x000000e0
       46045000	      4603	00000000	00000013	addi	x0,x0,0	  x0:0x00000000
       46055000	      4604	80005d10	00000013	addi	x0,x0,0	  x0:0x00000000
       46065000	      4605	80005d14	04518463	beq	x3,x5,80005d5c	  x3:0x00000000  x5:0x00000001
       46075000	      4606	80005d18	35092993	slti	x19,x18,848	 x18:0x0000000e x19=0x00000001
       46085000	      4607	80005d1c	40ecd613	srai	x12,x25,0xe	 x25:0x39a69b68 x12=0x0000e69a
       46095000	      4608	80005d20	01757633	and	x12,x10,x23	 x10:0x3884d000 x23:0x00000000 x12=0x00000000
       46105000	      4609	80005d24	02b28063	beq	x5,x11,80005d44	  x5:0x00000001 x11:0x000000e2
       46115000	      4610	80005d28	01103233	sltu	x4,x0,x17	  x0:0x00000000 x17:0x00000000  x4=0x00000000
       46125000	      4611	80005d2c	5357c313	xori	x6,x15,1333	 x15:0x00000000  x6=0x00000535
       46135000	      4612	80005d30	02849263	bne	x9,x8,80005d54	  x9:0x000000e2  x8:0x00000001
       46145000	      4613	00000000	00000013	addi	x0,x0,0	  x0:0x00000000
       46155000	      4614	80005d50	00000013	addi	x0,x0,0	  x0:0x00000000
       46165000	      4615	80005d54	013c15b3	sll	x11,x24,x19	 x24:0x00000000 x19:0x00000001 x11=0x00000000
       46175000	      4616	80005d58	00e590b3	sll	x1,x11,x14	 x11:0x00000000 x14:0xd8529cb0  x1=0x00000000
       46185000	      4617	80005d5c	00dba7b3	slt	x15,x23,x13	 x23:0x00000000 x13:0x00000235 x15=0x00000001
       46195000	      4618	80005d60	3cf6f513	andi	x10,x13,975	 x13:0x00000235 x10=0x00000205
       46205000	      4619	80005d64	00b2dd13	srli	x26,x5,0xb	  x5:0x00000001 x26=0x00000000
       46215000	      4620	80005d68	03ae7e63	bgeu	x28,x26,80005da4	 x28:0x00000001 x26:0x00000000
       46225000	      4621	00000000	00000013	addi	x0,x0,0	  x0:0x00000000
       46235000	      4622	80005da0	00000013	addi	x0,x0,0	  x0:0x00000000
       46245000	      4623	80005da4	01350233	add	x4,x10,x19	 x10:0x00000205 x19:0x00000001  x4=0x00000206
       46255000	      4624	80005da8	04a93393	sltiu	x7,x18,74	 x18:0x0000000e  x7=0x00000001
       46265000	      4625	80005dac	1a8590b7	lui	x1,0x1a859	  x1=0x1a859000
       46275000	      4626	80005db0	8a34ad13	slti	x26,x9,-1885	  x9:0x000000e2 x26=0x00000000
       46285000	      4627	80005db4	05f7d063	bge	x15,x31,80005df4	 x15:0x00000001 x31:0x80009fc4
       46295000	      4628	00000000	00000013	addi	x0,x0,0	  x0:0x00000000
       46305000	      4629	80005df0	00000013	addi	x0,x0,0	  x0:0x00000000
       46315000	      4630	80005df4	02ae1c63	bne	x28,x10,80005e2c	 x28:0x00000001 x10:0x00000205
       46325000	      4631	00000000	00000013	addi	x0,x0,0	  x0:0x00000000
       46335000	      4632	80005e28	00000013	addi	x0,x0,0	  x0:0x00000000
       46345000	      4633	80005e2c	00354eb3	xor	x29,x10,x3	 x10:0x00000205  x3:0x00000000 x29=0x00000205
       46355000	      4634	80005e30	40fe54b3	sra	x9,x28,x15	 x28:0x00000001 x15:0x00000001  x9=0x00000000
       46365000	      4635	80005e34	003143b3	xor	x7,x2,x3	  x2:0xb7aee122  x3:0x00000000  x7=0xb7aee122
       46375000	      4636	80005e38	942c8d93	addi	x27,x25,-1726	 x25:0x39a69b68 x27=0x39a694aa
       46385000	      4637	80005e3c	408fd633	sra	x12,x31,x8	 x31:0x80009fc4  x8:0x00000001 x12=0xc0004fe2
       46395000	      4638	80005e40	c54aef13	ori	x30,x21,-940	 x21:0x80009f20 x30=0xffffff74
       46405000	      4639	80005e44	00000013	addi	x0,x0,0	  x0:0x00000000
       46415000	      4640	80005e48	04fb7663	bgeu	x22,x15,80005e94	 x22:0x00000000 x15:0x00000001
       46425000	      4641	80005e4c	e1e0c493	xori	x9,x1,-482	  x1:0x1a859000  x9=0xe57a6e1e
       46435000	      4642	80005e50	00083933	sltu	x18,x16,x0	 x16:0xbf4e1000  x0:0x00000000 x18=0x00000000
       46445000	      4643	80005e54	0073da33	srl	x20,x7,x7	  x7:0xb7aee122  x7:0xb7aee122 x20=0x2debb848
       46455000	      4644	80005e58	00000013	addi	x0,x0,0	  x0:0x00000000
       46465000	      4645	80005e5c	04ee8663	beq	x29,x14,80005ea8	 x29:0x00000205 x14:0xd8529cb0
       46475000	      4646	80005e60	00000013	addi	x0,x0,0	  x0:0x00000000
       46485000	      4647	80005e64	0197cc63	blt	x15,x25,80005e7c	 x15:0x00000001 x25:0x39a69b68
       46495000	      4648	00000000	00000013	addi	x0,x0,0	  x0:0x00000000
       46505000	      4649	80005e78	00000013	addi	x0,x0,0	  x0:0x00000000
       46515000	      4650	80005e7c	05da5663	bge	x20,x29,80005ec8	 x20:0x2debb848 x29:0x00000205
       46525000	      4651	00000000	00000013	addi	x0,x0,0	  x0:0x00000000
       46535000	      4652	80005ec4	00000013	addi	x0,x0,0	  x0:0x00000000
       46545000	      4653	80005ec8	d3707993	andi	x19,x0,-713	  x0:0x00000000 x19=0x00000000
       46555000	      4654	80005ecc	482a3c37	lui	x24,0x482a3	 x24=0x482a3000
       46565000	      4655	80005ed0	3570c593	xori	x11,x1,855	  x1:0x1a859000 x11=0x1a859357
       46575000	      4656	80005ed4	34bd3613	sltiu	x12,x26,843	 x26:0x00000000 x12=0x00000001
       46585000	      4657	80005ed8	9e59af17	auipc	x30,0x9e59a	 x30=0x1e59fed4
       46595000	      4658	80005edc	0166c4b3	xor	x9,x13,x22	 x13:0x00000235 x22:0x00000000  x9=0x00000235
       46605000	      4659	80005ee0	09a40c93	addi	x25,x8,154	  x8:0x00000001 x25=0x0000009b
       46615000	      4660	80005ee4	0222e263	bltu	x5,x2,80005f08	  x5:0x00000001  x2:0xb7aee122
       46625000	      4661	00000000	00000013	addi	x0,x0,0	  x0:0x00000000
       46635000	      4662	80005f04	00000013	addi	x0,x0,0	  x0:0x00000000
       46645000	      4663	80005f08	0041d4b3	srl	x9,x3,x4	  x3:0x00000000  x4:0x00000206  x9=0x00000000
       46655000	      4664	80005f0c	5cc12237	lui	x4,0x5cc12	  x4=0x5cc12000
       46665000	      4665	80005f10	454f3713	sltiu	x14,x30,1108	 x30:0x1e59fed4 x14=0x00000000
       46675000	      4666	80005f14	de620f13	addi	x30,x4,-538	  x4:0x5cc12000 x30=0x5cc11de6
       46685000	      4667	80005f18	01321433	sll	x8,x4,x19	  x4:0x5cc12000 x19:0x00000000  x8=0x5cc12000
       46695000	      4668	80005f1c	01e1c9b3	xor	x19,x3,x30	  x3:0x00000000 x30:0x5cc11de6 x19=0x5cc11de6
       46705000	      4669	80005f20	01f17733	and	x14,x2,x31	  x2:0xb7aee122 x31:0x80009fc4 x14=0x80008100
       46715000	      4670	80005f24	01052a33	slt	x20,x10,x16	 x10:0x00000205 x16:0xbf4e1000 x20=0x00000000
       46725000	      4671	80005f28	005e2bb3	slt	x23,x28,x5	 x28:0x00000001  x5:0x00000001 x23=0x00000000
       46735000	      4672	80005f2c	b2927793	andi	x15,x4,-1239	  x4:0x5cc12000 x15=0x5cc12000
       46745000	      4673	80005f30	03ef6263	bltu	x30,x30,80005f54	 x30:0x5cc11de6 x30:0x5cc11de6
       46755000	      4674	80005f34	40050d33	sub	x26,x10,x0	 x10:0x00000205  x0:0x00000000 x26=0x00000205
       46765000	      4675	80005f38	00a31a13	slli	x20,x6,0xa	  x6:0x00000535 x20=0x0014d400
       46775000	      4676	80005f3c	01bcc433	xor	x8,x25,x27	 x25:0x0000009b x27:0x39a694aa  x8=0x39a69431
       46785000	      4677	80005f40	01037a33	and	x20,x6,x16	  x6:0x00000535 x16:0xbf4e1000 x20=0x00000000
       46795000	      4678	80005f44	05ca6463	bltu	x20,x28,80005f8c	 x20:0x00000000 x28:0x00000001
       46805000	      4679	00000000	00000013	addi	x0,x0,0	  x0:0x00000000
       46815000	      4680	80005f88	00000013	addi	x0,x0,0	  x0:0x00000000
       46825000	      4681	80005f8c	0094da63	bge	x9,x9,80005fa0	  x9:0x00000000  x9:0x00000000
       46835000	      4682	00000000	00000013	addi	x0,x0,0	  x0:0x00000000
       46845000	      4683	80005f9c	00000013	addi	x0,x0,0	  x0:0x00000000
       46855000	      4684	80005fa0	0027bcb3	sltu	x25,x15,x2	 x15:0x5cc12000  x2:0xb7aee122 x25=0x00000001
       46865000	      4685	80005fa4	8ac42497	auipc	x9,0x8ac42	  x9=0x0ac47fa0
       46875000	      4686	80005fa8	404c0e33	sub	x28,x24,x4	 x24:0x482a3000  x4:0x5cc12000 x28=0xeb691000
       46885000	      4687	80005fac	037e6863	bltu	x28,x23,80005fdc	 x28:0xeb691000 x23:0x00000000
       46895000	      4688	80005fb0	79694d37	lui	x26,0x79694	 x26=0x79694000
       46905000	      4689	80005fb4	03154e63	blt	x10,x17,80005ff0	 x10:0x00000205 x17:0x00000000
       46915000	      4690	80005fb8	4000d033	sra	x0,x1,x0	  x1:0x1a859000  x0:0x00000000
       46925000	      4691	80005fbc	815fbd93	sltiu	x27,x31,-2027	 x31:0x80009fc4 x27=0x00000001
       46935000	      4692	80005fc0	636e2bb7	lui	x23,0x636e2	 x23=0x636e2000
       46945000	      4693	80005fc4	c064e497	auipc	x9,0xc064e	  x9=0x40653fc0
       46955000	      4694	80005fc8	008ab933	sltu	x18,x21,x8	 x21:0x80009f20  x8:0x39a69431 x18=0x00000000
       46965000	      4695	80005fcc	03b2ca63	blt	x5,x27,80006000	  x5:0x00000001 x27:0x00000001
       46975000	      4696	80005fd0	00000013	addi	x0,x0,0	  x0:0x00000000
       46985000	      4697	80005fd4	41045313	srai	x6,x8,0x10	  x8:0x39a69431  x6=0x000039a6
       46995000	      4698	80005fd8	00d29d33	sll	x26,x5,x13	  x5:0x00000001 x13:0x00000235 x26=0x00200000
       47005000	      4699	80005fdc	00ae9613	slli	x12,x29,0xa	 x29:0x00000205 x12=0x00081400
       47015000	      4700	80005fe0	beb0f293	andi	x5,x1,-1045	  x1:0x1a859000  x5=0x1a859000
       47025000	      4701	80005fe4	00000013	addi	x0,x0,0	  x0:0x00000000
       47035000	      4702	80005fe8	f8e56293	ori	x5,x10,-114	 x10:0x00000205  x5=0xffffff8f
       47045000	      4703	80005fec	01bc0e63	beq	x24,x27,80006008	 x24:0x482a3000 x27:0x00000001
       47055000	      4704	80005ff0	00000013	addi	x0,x0,0	  x0:0x00000000
       47065000	      4705	80005ff4	40e4d4b3	sra	x9,x9,x14	  x9:0x40653fc0 x14:0x80008100  x9=0x40653fc0
       47075000	      4706	80005ff8	0074d2b3	srl	x5,x9,x7	  x9:0x40653fc0  x7:0xb7aee122  x5=0x10194ff0
       47085000	      4707	80005ffc	01d500b3	add	x1,x10,x29	 x10:0x00000205 x29:0x00000205  x1=0x0000040a
       47095000	      4708	80006000	405e83b3	sub	x7,x29,x5	 x29:0x00000205  x5:0x10194ff0  x7=0xefe6b215
       47105000	      4709	80006004	007b4bb3	xor	x23,x22,x7	 x22:0x00000000  x7:0xefe6b215 x23=0xefe6b215
       47115000	      4710	80006008	416d5f13	srai	x30,x26,0x16	 x26:0x00200000 x30=0x00000000
       47125000	      4711	8000600c	dd6e6b93	ori	x23,x28,-554	 x28:0xeb691000 x23=0xfffffdd6
       47135000	      4712	80006010	00000013	addi	x0,x0,0	  x0:0x00000000
       47145000	      4713	80006014	cc49c7b7	lui	x15,0xcc49c	 x15=0xcc49c000
       47155000	      4714	80006018	402fd513	srai	x10,x31,0x2	 x31:0x80009fc4 x10=0xe00027f1
       47165000	      4715	8000601c	2795a937	lui	x18,0x2795a	 x18=0x2795a000
       47175000	      4716	80006020	0373c863	blt	x7,x23,80006050	  x7:0xefe6b215 x23:0xfffffdd6
       47185000	      4717	00000000	00000013	addi	x0,x0,0	  x0:0x00000000
       47195000	      4718	8000604c	00000013	addi	x0,x0,0	  x0:0x00000000
       47205000	      4719	80006050	0c4afa63	bgeu	x21,x4,80006124	 x21:0x80009f20  x4:0x5cc12000
       47215000	      4720	00000000	00000013	addi	x0,x0,0	  x0:0x00000000
       47225000	      4721	80006120	00000013	addi	x0,x0,0	  x0:0x00000000
       47235000	      4722	80006124	022af263	bgeu	x21,x2,80006148	 x21:0x80009f20  x2:0xb7aee122
       47245000	      4723	80006128	0142d893	srli	x17,x5,0x14	  x5:0x10194ff0 x17=0x00000101
       47255000	      4724	8000612c	e0f7fd13	andi	x26,x15,-497	 x15:0xcc49c000 x26=0xcc49c000
       47265000	      4725	80006130	01c65cb3	srl	x25,x12,x28	 x12:0x00081400 x28:0xeb691000 x25=0x00081400
       47275000	      4726	80006134	01a56e33	or	x28,x10,x26	 x10:0xe00027f1 x26:0xcc49c000 x28=0xec49e7f1
       47285000	      4727	80006138	41c38f33	sub	x30,x7,x28	  x7:0xefe6b215 x28:0xec49e7f1 x30=0x039cca24
       47295000	      4728	8000613c	40d50a33	sub	x20,x10,x13	 x10:0xe00027f1 x13:0x00000235 x20=0xe00025bc
       47305000	      4729	80006140	01b01633	sll	x12,x0,x27	  x0:0x00000000 x27:0x00000001 x12=0x00000000
       47315000	      4730	80006144	582ef693	andi	x13,x29,1410	 x29:0x00000205 x13=0x00000000
       47325000	      4731	80006148	01b35393	srli	x7,x6,0x1b	  x6:0x000039a6  x7=0x00000000
       47335000	      4732	8000614c	0324d463	bge	x9,x18,80006174	  x9:0x40653fc0 x18:0x2795a000
       47345000	      4733	00000000	00000013	addi	x0,x0,0	  x0:0x00000000
       47355000	      4734	80006170	00000013	addi	x0,x0,0	  x0:0x00000000
       47365000	      4735	80006174	03b75263	bge	x14,x27,80006198	 x14:0x80008100 x27:0x00000001
       47375000	      4736	80006178	a9ab0d13	addi	x26,x22,-1382	 x22:0x00000000 x26=0xfffffa9a
       47385000	      4737	8000617c	05036863	bltu	x6,x16,800061cc	  x6:0x000039a6 x16:0xbf4e1000
       47395000	      4738	00000000	00000013	addi	x0,x0,0	  x0:0x00000000
       47405000	      4739	800061c8	00000013	addi	x0,x0,0	  x0:0x00000000
       47415000	      4740	800061cc	bc1bc793	xori	x15,x23,-1087	 x23:0xfffffdd6 x15=0x00000617
       47425000	      4741	800061d0	010c7333	and	x6,x24,x16	 x24:0x482a3000 x16:0xbf4e1000  x6=0x080a1000
       47435000	      4742	800061d4	013491b3	sll	x3,x9,x19	  x9:0x40653fc0 x19:0x5cc11de6  x3=0x194ff000
       47445000	      4743	800061d8	5ddcd397	auipc	x7,0x5ddcd	  x7=0xdddd31d4
       47455000	      4744	800061dc	02411863	bne	x2,x4,8000620c	  x2:0xb7aee122  x4:0x5cc12000
       47465000	      4745	00000000	00000013	addi	x0,x0,0	  x0:0x00000000
       47475000	      4746	80006208	00000013	addi	x0,x0,0	  x0:0x00000000
       47485000	      4747	8000620c	88844913	xori	x18,x8,-1912	  x8:0x39a69431 x18=0xc6596cb9
       47495000	      4748	80006210	014db033	sltu	x0,x27,x20	 x27:0x00000001 x20:0xe00025bc
       47505000	      4749	80006214	04846663	bltu	x8,x8,80006260	  x8:0x39a69431  x8:0x39a69431
       47515000	      4750	80006218	00b0d593	srli	x11,x1,0xb	  x1:0x0000040a x11=0x00000000
       47525000	      4751	8000621c	031f1c63	bne	x30,x17,80006254	 x30:0x039cca24 x17:0x00000101
       47535000	      4752	00000000	00000013	addi	x0,x0,0	  x0:0x00000000
       47545000	      4753	80006250	00000013	addi	x0,x0,0	  x0:0x00000000
       47555000	      4754	80006254	d322e393	ori	x7,x5,-718	  x5:0x10194ff0  x7=0xfffffff2
       47565000	      4755	80006258	26436293	ori	x5,x6,612	  x6:0x080a1000  x5=0x080a1264
       47575000	      4756	8000625c	00000013	addi	x0,x0,0	  x0:0x00000000
       47585000	      4757	80006260	e9990613	addi	x12,x18,-359	 x18:0xc6596cb9 x12=0xc6596b52
       47595000	      4758	80006264	03bbf663	bgeu	x23,x27,80006290	 x23:0xfffffdd6 x27:0x00000001
       47605000	      4759	00000000	00000013	addi	x0,x0,0	  x0:0x00000000
       47615000	      4760	8000628c	00000013	addi	x0,x0,0	  x0:0x00000000
       47625000	      4761	80006290	6def2913	slti	x18,x30,1758	 x30:0x039cca24 x18=0x00000000
       47635000	      4762	80006294	00000013	addi	x0,x0,0	  x0:0x00000000
       47645000	      4763	80006298	79876e13	ori	x28,x14,1944	 x14:0x80008100 x28=0x80008798
       47655000	      4764	8000629c	003d05b3	add	x11,x26,x3	 x26:0xfffffa9a  x3:0x194ff000 x11=0x194fea9a
       47665000	      4765	800062a0	00c61313	slli	x6,x12,0xc	 x12:0xc6596b52  x6=0x96b52000
       47675000	      4766	800062a4	01f828b3	slt	x17,x16,x31	 x16:0xbf4e1000 x31:0x80009fc4 x17=0x00000000
       47685000	      4767	800062a8	015053b3	srl	x7,x0,x21	  x0:0x00000000 x21:0x80009f20  x7=0x00000000
       47695000	      4768	800062ac	16ef6393	ori	x7,x30,366	 x30:0x039cca24  x7=0x039ccb6e
       47705000	      4769	800062b0	567a2793	slti	x15,x20,1383	 x20:0xe00025bc x15=0x00000001
       47715000	      4770	800062b4	2486e713	ori	x14,x13,584	 x13:0x00000000 x14=0x00000248
       47725000	      4771	800062b8	01bfdb93	srli	x23,x31,0x1b	 x31:0x80009fc4 x23=0x00000010
       47735000	      4772	800062bc	0495f863	bgeu	x11,x9,8000630c	 x11:0x194fea9a  x9:0x40653fc0
       47745000	      4773	800062c0	40278533	sub	x10,x15,x2	 x15:0x00000001  x2:0xb7aee122 x10=0x48511edf
       47755000	      4774	800062c4	05c94263	blt	x18,x28,80006308	 x18:0x00000000 x28:0x80008798
       47765000	      4775	800062c8	40fa5cb3	sra	x25,x20,x15	 x20:0xe00025bc x15:0x00000001 x25=0xf00012de
       47775000	      4776	800062cc	00bf24b3	slt	x9,x30,x11	 x30:0x039cca24 x11:0x194fea9a  x9=0x00000001
       47785000	      4777	800062d0	a3cfa793	slti	x15,x31,-1476	 x31:0x80009fc4 x15=0x00000001
       47795000	      4778	800062d4	af1c0213	addi	x4,x24,-1295	 x24:0x482a3000  x4=0x482a2af1
       47805000	      4779	800062d8	6ff0feb7	lui	x29,0x6ff0f	 x29=0x6ff0f000
       47815000	      4780	800062dc	79eefc13	andi	x24,x29,1950	 x29:0x6ff0f000 x24=0x00000000
       47825000	      4781	800062e0	004ae1b3	or	x3,x21,x4	 x21:0x80009f20  x4:0x482a2af1  x3=0xc82abff1
       47835000	      4782	800062e4	62a6b393	sltiu	x7,x13,1578	 x13:0x00000000  x7=0x00000001
       47845000	      4783	800062e8	00090bb3	add	x23,x18,x0	 x18:0x00000000  x0:0x00000000 x23=0x00000000
       47855000	      4784	800062ec	00669663	bne	x13,x6,800062f8	 x13:0x00000000  x6:0x96b52000
       47865000	      4785	00000000	00000013	addi	x0,x0,0	  x0:0x00000000
       47875000	      4786	800062f4	00000013	addi	x0,x0,0	  x0:0x00000000
       47885000	      4787	800062f8	7b293793	sltiu	x15,x18,1970	 x18:0x00000000 x15=0x00000001
       47895000	      4788	800062fc	40ce5933	sra	x18,x28,x12	 x28:0x80008798 x12:0xc6596b52 x18=0xffffe000
       47905000	      4789	80006300	b264bd93	sltiu	x27,x9,-1242	  x9:0x00000001 x27=0x00000001
       47915000	      4790	80006304	02734663	blt	x6,x7,80006330	  x6:0x96b52000  x7:0x00000001
       47925000	      4791	00000000	00000013	addi	x0,x0,0	  x0:0x00000000
       47935000	      4792	8000632c	00000013	addi	x0,x0,0	  x0:0x00000000
       47945000	      4793	80006330	005a53b3	srl	x7,x20,x5	 x20:0xe00025bc  x5:0x080a1264  x7=0x0e00025b
       47955000	      4794	80006334	14a53393	sltiu	x7,x10,330	 x10:0x48511edf  x7=0x00000000
       47965000	      4795	80006338	007112b3	sll	x5,x2,x7	  x2:0xb7aee122  x7:0x00000000  x5=0xb7aee122
       47975000	      4796	8000633c	4199deb3	sra	x29,x19,x25	 x19:0x5cc11de6 x25:0xf00012de x29=0x00000001
       47985000	      4797	80006340	00fbf6b3	and	x13,x23,x15	 x23:0x00000000 x15:0x00000001 x13=0x00000000
       47995000	      4798	80006344	bbf55597	auipc	x11,0xbbf55	 x11=0x3bf5b340
       48005000	      4799	80006348	00b34233	xor	x4,x6,x11	  x6:0x96b52000 x11:0x3bf5b340  x4=0xad409340
       48015000	      4800	8000634c	01c773b3	and	x7,x14,x28	 x14:0x00000248 x28:0x80008798  x7=0x00000208
       48025000	      4801	80006350	8bc280b7	lui	x1,0x8bc28	  x1=0x8bc28000
       48035000	      4802	80006354	0068d513	srli	x10,x17,0x6	 x17:0x00000000 x10=0x00000000
       48045000	      4803	80006358	aec73793	sltiu	x15,x14,-1300	 x14:0x00000248 x15=0x00000001
       48055000	      4804	8000635c	00c84c63	blt	x16,x12,80006374	 x16:0xbf4e1000 x12:0xc6596b52
       48065000	      4805	00000000	00000013	addi	x0,x0,0	  x0:0x00000000
       48075000	      4806	80006370	00000013	addi	x0,x0,0	  x0:0x00000000
       48085000	      4807	80006374	01119d33	sll	x26,x3,x17	  x3:0xc82abff1 x17:0x00000000 x26=0xc82abff1
       48095000	      4808	80006378	017461b3	or	x3,x8,x23	  x8:0x39a69431 x23:0x00000000  x3=0x39a69431
       48105000	      4809	8000637c	00000013	addi	x0,x0,0	  x0:0x00000000
       48115000	      4810	80006380	b08a2013	slti	x0,x20,-1272	 x20:0xe00025bc
       48125000	      4811	80006384	01a8fa63	bgeu	x17,x26,80006398	 x17:0x00000000 x26:0xc82abff1
       48135000	      4812	80006388	03f3f863	bgeu	x7,x31,800063b8	  x7:0x00000208 x31:0x80009fc4
       48145000	      4813	8000638c	f54e6213	ori	x4,x28,-172	 x28:0x80008798  x4=0xffffffdc
       48155000	      4814	80006390	03735a63	bge	x6,x23,800063c4	  x6:0x96b52000 x23:0x00000000
       48165000	      4815	80006394	0046d5b3	srl	x11,x13,x4	 x13:0x00000000  x4:0xffffffdc x11=0x00000000
       48175000	      4816	80006398	00d99013	slli	x0,x19,0xd	 x19:0x5cc11de6
       48185000	      4817	8000639c	01772433	slt	x8,x14,x23	 x14:0x00000248 x23:0x00000000  x8=0x00000000
       48195000	      4818	800063a0	017c36b3	sltu	x13,x24,x23	 x24:0x00000000 x23:0x00000000 x13=0x00000000
       48205000	      4819	800063a4	e84d3417	auipc	x8,0xe84d3	  x8=0x684d93a0
       48215000	      4820	800063a8	0457d663	bge	x15,x5,800063f4	 x15:0x00000001  x5:0xb7aee122
       48225000	      4821	00000000	00000013	addi	x0,x0,0	  x0:0x00000000
       48235000	      4822	800063f0	00000013	addi	x0,x0,0	  x0:0x00000000
       48245000	      4823	800063f4	03646e63	bltu	x8,x22,80006430	  x8:0x684d93a0 x22:0x00000000
       48255000	      4824	800063f8	016eb733	sltu	x14,x29,x22	 x29:0x00000001 x22:0x00000000 x14=0x00000000
       48265000	      4825	800063fc	00c00863	beq	x0,x12,8000640c	  x0:0x00000000 x12:0xc6596b52
       48275000	      4826	80006400	0588d463	bge	x17,x24,80006448	 x17:0x00000000 x24:0x00000000
       48285000	      4827	00000000	00000013	addi	x0,x0,0	  x0:0x00000000
       48295000	      4828	80006444	00000013	addi	x0,x0,0	  x0:0x00000000
       48305000	      4829	80006448	2cb5e413	ori	x8,x11,715	 x11:0x00000000  x8=0x000002cb
       48315000	      4830	8000644c	8238a513	slti	x10,x17,-2013	 x17:0x00000000 x10=0x00000000
       48325000	      4831	80006450	006d3e33	sltu	x28,x26,x6	 x26:0xc82abff1  x6:0x96b52000 x28=0x00000000
       48335000	      4832	80006454	00e5f233	and	x4,x11,x14	 x11:0x00000000 x14:0x00000000  x4=0x00000000
       48345000	      4833	80006458	028ef263	bgeu	x29,x8,8000647c	 x29:0x00000001  x8:0x000002cb
       48355000	      4834	8000645c	01085493	srli	x9,x16,0x10	 x16:0xbf4e1000  x9=0x0000bf4e
       48365000	      4835	80006460	01810333	add	x6,x2,x24	  x2:0xb7aee122 x24:0x00000000  x6=0xb7aee122
       48375000	      4836	80006464	4954ab13	slti	x22,x9,1173	  x9:0x0000bf4e x22=0x00000000
       48385000	      4837	80006468	f1344913	xori	x18,x8,-237	  x8:0x000002cb x18=0xfffffdd8
       48395000	      4838	8000646c	40f25d13	srai	x26,x4,0xf	  x4:0x00000000 x26=0x00000000
       48405000	      4839	80006470	01e68f33	add	x30,x13,x30	 x13:0x00000000 x30:0x039cca24 x30=0x039cca24
       48415000	      4840	80006474	01f9f7b3	and	x15,x19,x31	 x19:0x5cc11de6 x31:0x80009fc4 x15=0x00001dc4
       48425000	      4841	80006478	5cf1ec17	auipc	x24,0x5cf1e	 x24=0xdcf24474
       48435000	      4842	8000647c	04fe9663	bne	x29,x15,800064c8	 x29:0x00000001 x15:0x00001dc4
       48445000	      4843	00000000	00000013	addi	x0,x0,0	  x0:0x00000000
       48455000	      4844	800064c4	00000013	addi	x0,x0,0	  x0:0x00000000
       48465000	      4845	800064c8	04386063	bltu	x16,x3,80006508	 x16:0xbf4e1000  x3:0x39a69431
       48475000	      4846	800064cc	010709b3	add	x19,x14,x16	 x14:0x00000000 x16:0xbf4e1000 x19=0xbf4e1000
       48485000	      4847	800064d0	02dee863	bltu	x29,x13,80006500	 x29:0x00000001 x13:0x00000000
       48495000	      4848	800064d4	82638913	addi	x18,x7,-2010	  x7:0x00000208 x18=0xfffffa2e
       48505000	      4849	800064d8	0100bb33	sltu	x22,x1,x16	  x1:0x8bc28000 x16:0xbf4e1000 x22=0x00000001
       48515000	      4850	800064dc	2d97af13	slti	x30,x15,729	 x15:0x00001dc4 x30=0x00000000
       48525000	      4851	800064e0	002068b3	or	x17,x0,x2	  x0:0x00000000  x2:0xb7aee122 x17=0xb7aee122
       48535000	      4852	800064e4	4115d513	srai	x10,x11,0x11	 x11:0x00000000 x10=0x00000000
       48545000	      4853	800064e8	0096cc33	xor	x24,x13,x9	 x13:0x00000000  x9:0x0000bf4e x24=0x0000bf4e
       48555000	      4854	800064ec	01b49813	slli	x16,x9,0x1b	  x9:0x0000bf4e x16=0x70000000
       48565000	      4855	800064f0	01acd1b3	srl	x3,x25,x26	 x25:0xf00012de x26:0x00000000  x3=0xf00012de
       48575000	      4856	800064f4	01317333	and	x6,x2,x19	  x2:0xb7aee122 x19:0xbf4e1000  x6=0xb70e0000
       48585000	      4857	800064f8	3bd97b93	andi	x23,x18,957	 x18:0xfffffa2e x23=0x0000022c
       48595000	      4858	800064fc	010c0a63	beq	x24,x16,80006510	 x24:0x0000bf4e x16:0x70000000
       48605000	      4859	80006500	021f1863	bne	x30,x1,80006530	 x30:0x00000000  x1:0x8bc28000
       48615000	      4860	00000000	00000013	addi	x0,x0,0	  x0:0x00000000
       48625000	      4861	8000652c	00000013	addi	x0,x0,0	  x0:0x00000000
       48635000	      4862	80006530	d9938c93	addi	x25,x7,-615	  x7:0x00000208 x25=0xffffffa1
       48645000	      4863	80006534	0169cd33	xor	x26,x19,x22	 x19:0xbf4e1000 x22:0x00000001 x26=0xbf4e1001
       48655000	      4864	80006538	023d7263	bgeu	x26,x3,8000655c	 x26:0xbf4e1001  x3:0xf00012de
       48665000	      4865	8000653c	0809cb93	xori	x23,x19,128	 x19:0xbf4e1000 x23=0xbf4e1080
       48675000	      4866	80006540	02cfee63	bltu	x31,x12,8000657c	 x31:0x80009fc4 x12:0xc6596b52
       48685000	      4867	00000000	00000013	addi	x0,x0,0	  x0:0x00000000
       48695000	      4868	80006578	00000013	addi	x0,x0,0	  x0:0x00000000
       48705000	      4869	8000657c	006f8d33	add	x26,x31,x6	 x31:0x80009fc4  x6:0xb70e0000 x26=0x370e9fc4
       48715000	      4870	80006580	008592b3	sll	x5,x11,x8	 x11:0x00000000  x8:0x000002cb  x5=0x00000000
       48725000	      4871	80006584	04d34463	blt	x6,x13,800065cc	  x6:0xb70e0000 x13:0x00000000
       48735000	      4872	00000000	00000013	addi	x0,x0,0	  x0:0x00000000
       48745000	      4873	800065c8	00000013	addi	x0,x0,0	  x0:0x00000000
       48755000	      4874	800065cc	013300b3	add	x1,x6,x19	  x6:0xb70e0000 x19:0xbf4e1000  x1=0x765c1000
       48765000	      4875	800065d0	7e96a693	slti	x13,x13,2025	 x13:0x00000000 x13=0x00000001
       48775000	      4876	800065d4	b3a1a093	slti	x1,x3,-1222	  x3:0xf00012de  x1=0x00000001
       48785000	      4877	800065d8	017caa33	slt	x20,x25,x23	 x25:0xffffffa1 x23:0xbf4e1080 x20=0x00000000
       48795000	      4878	800065dc	00161d93	slli	x27,x12,0x1	 x12:0xc6596b52 x27=0x8cb2d6a4
       48805000	      4879	800065e0	0266f663	bgeu	x13,x6,8000660c	 x13:0x00000001  x6:0xb70e0000
       48815000	      4880	800065e4	00445e93	srli	x29,x8,0x4	  x8:0x000002cb x29=0x0000002c
       48825000	      4881	800065e8	41a85193	srai	x3,x16,0x1a	 x16:0x70000000  x3=0x0000001c
       48835000	      4882	800065ec	97cc6893	ori	x17,x24,-1668	 x24:0x0000bf4e x17=0xffffff7e
       48845000	      4883	800065f0	0333ea63	bltu	x7,x19,80006624	  x7:0x00000208 x19:0xbf4e1000
       48855000	      4884	00000000	00000013	addi	x0,x0,0	  x0:0x00000000
       48865000	      4885	80006620	00000013	addi	x0,x0,0	  x0:0x00000000
       48875000	      4886	80006624	41835393	srai	x7,x6,0x18	  x6:0xb70e0000  x7=0xffffffb7
       48885000	      4887	80006628	03cc4c63	blt	x24,x28,80006660	 x24:0x0000bf4e x28:0x00000000
       48895000	      4888	8000662c	03547863	bgeu	x8,x21,8000665c	  x8:0x000002cb x21:0x80009f20
       48905000	      4889	80006630	ebe8a913	slti	x18,x17,-322	 x17:0xffffff7e x18=0x00000000
       48915000	      4890	80006634	01f463b3	or	x7,x8,x31	  x8:0x000002cb x31:0x80009fc4  x7=0x80009fcf
       48925000	      4891	80006638	0090c733	xor	x14,x1,x9	  x1:0x00000001  x9:0x0000bf4e x14=0x0000bf4f
       48935000	      4892	8000663c	0268d863	bge	x17,x6,8000666c	 x17:0xffffff7e  x6:0xb70e0000
       48945000	      4893	00000000	00000013	addi	x0,x0,0	  x0:0x00000000
       48955000	      4894	80006668	00000013	addi	x0,x0,0	  x0:0x00000000
       48965000	      4895	8000666c	9a07a213	slti	x4,x15,-1632	 x15:0x00001dc4  x4=0x00000000
       48975000	      4896	80006670	dd36a037	lui	x0,0xdd36a	
       48985000	      4897	80006674	0091eb33	or	x22,x3,x9	  x3:0x0000001c  x9:0x0000bf4e x22=0x0000bf5e
       48995000	      4898	80006678	017ea333	slt	x6,x29,x23	 x29:0x0000002c x23:0xbf4e1080  x6=0x00000000
       49005000	      4899	8000667c	26020393	addi	x7,x4,608	  x4:0x00000000  x7=0x00000260
       49015000	      4900	80006680	00201e13	slli	x28,x0,0x2	  x0:0x00000000 x28=0x00000000
       49025000	      4901	80006684	7b2bff17	auipc	x30,0x7b2bf	 x30=0xfb2c5680
       49035000	      4902	80006688	0317e813	ori	x16,x15,49	 x15:0x00001dc4 x16=0x00001df5
       49045000	      4903	8000668c	006ade93	srli	x29,x21,0x6	 x21:0x80009f20 x29=0x0200027c
       49055000	      4904	80006690	0056de13	srli	x28,x13,0x5	 x13:0x00000001 x28=0x00000000
       49065000	      4905	80006694	407e5393	srai	x7,x28,0x7	 x28:0x00000000  x7=0x00000000
       49075000	      4906	80006698	005bd233	srl	x4,x23,x5	 x23:0xbf4e1080  x5:0x00000000  x4=0xbf4e1080
       49085000	      4907	8000669c	016959b3	srl	x19,x18,x22	 x18:0x00000000 x22:0x0000bf5e x19=0x00000000
       49095000	      4908	800066a0	065f40b7	lui	x1,0x65f4	  x1=0x065f4000
       49105000	      4909	800066a4	0000ce33	xor	x28,x1,x0	  x1:0x065f4000  x0:0x00000000 x28=0x065f4000
       49115000	      4910	800066a8	41ab81b3	sub	x3,x23,x26	 x23:0xbf4e1080 x26:0x370e9fc4  x3=0x883f70bc
       49125000	      4911	800066ac	0589fa63	bgeu	x19,x24,80006700	 x19:0x00000000 x24:0x0000bf4e
       49135000	      4912	800066b0	40960233	sub	x4,x12,x9	 x12:0xc6596b52  x9:0x0000bf4e  x4=0xc658ac04
       49145000	      4913	800066b4	077bcc63	blt	x23,x23,8000672c	 x23:0xbf4e1080 x23:0xbf4e1080
       49155000	      4914	800066b8	11404193	xori	x3,x0,276	  x0:0x00000000  x3=0x00000114
       49165000	      4915	800066bc	0139af33	slt	x30,x19,x19	 x19:0x00000000 x19:0x00000000 x30=0x00000000
       49175000	      4916	800066c0	043e8a63	beq	x29,x3,80006714	 x29:0x0200027c  x3:0x00000114
       49185000	      4917	800066c4	00baae33	slt	x28,x21,x11	 x21:0x80009f20 x11:0x00000000 x28=0x00000001
       49195000	      4918	800066c8	016b5833	srl	x16,x22,x22	 x22:0x0000bf5e x22:0x0000bf5e x16=0x00000000
       49205000	      4919	800066cc	da92e213	ori	x4,x5,-599	  x5:0x00000000  x4=0xfffffda9
       49215000	      4920	800066d0	00706333	or	x6,x0,x7	  x0:0x00000000  x7:0x00000000  x6=0x00000000
       49225000	      4921	800066d4	00c6d533	srl	x10,x13,x12	 x13:0x00000001 x12:0xc6596b52 x10=0x00000000
       49235000	      4922	800066d8	015ff2b3	and	x5,x31,x21	 x31:0x80009fc4 x21:0x80009f20  x5=0x80009f00
       49245000	      4923	800066dc	41618eb3	sub	x29,x3,x22	  x3:0x00000114 x22:0x0000bf5e x29=0xffff41b6
       49255000	      4924	800066e0	c188a013	slti	x0,x17,-1000	 x17:0xffffff7e
       49265000	      4925	800066e4	405a5b93	srai	x23,x20,0x5	 x20:0x00000000 x23=0x00000000
       49275000	      4926	800066e8	01637663	bgeu	x6,x22,800066f4	  x6:0x00000000 x22:0x0000bf5e
       49285000	      4927	800066ec	d60a7593	andi	x11,x20,-672	 x20:0x00000000 x11=0x00000000
       49295000	      4928	800066f0	4060d193	srai	x3,x1,0x6	  x1:0x065f4000  x3=0x00197d00
       49305000	      4929	800066f4	cfdfe0ef	jal	x1,800066f4	  x1=0x800066f4
       49315000	      4930	00000000	00000013	addi	x0,x0,0	  x0:0x00000000
       49325000	      4931	800053ec	00000013	addi	x0,x0,0	  x0:0x00000000
       49335000	      4932	800053f0	018f1a63	bne	x30,x24,80005404	 x30:0x00000000 x24:0x0000bf4e
       49345000	      4933	00000000	00000013	addi	x0,x0,0	  x0:0x00000000
       49355000	      4934	80005400	00000013	addi	x0,x0,0	  x0:0x00000000
       49365000	      4935	80005404	fc0a8a93	addi	x21,x21,-64	 x21:0x80009f20 x21=0x80009ee0
       49375000	      4936	80005408	aaed8c93	addi	x25,x27,-1362	 x27:0x8cb2d6a4 x25=0x8cb2d152
       49385000	      4937	8000540c	00411833	sll	x16,x2,x4	  x2:0xb7aee122  x4:0xfffffda9 x16=0x5dc24400
       49395000	      4938	80005410	00a39193	slli	x3,x7,0xa	  x7:0x00000000  x3=0x00000000
       49405000	      4939	80005414	001aa223	sw	x1,4(x21)	 x21:0x80009ee0  x1:0x800066f4 PA:0x80009ee4
       49415000	      4940	80005418	415e5d13	srai	x26,x28,0x15	 x28:0x00000001 x26=0x00000000
       49425000	      4941	8000541c	cba43413	sltiu	x8,x8,-838	  x8:0x000002cb  x8=0x00000001
       49435000	      4942	80005420	40c95733	sra	x14,x18,x12	 x18:0x00000000 x12:0xc6596b52 x14=0x00000000
       49445000	      4943	80005424	59bfab93	slti	x23,x31,1435	 x31:0x80009fc4 x23=0x00000001
       49455000	      4944	80005428	4bf08837	lui	x16,0x4bf08	 x16=0x4bf08000
       49465000	      4945	8000542c	00d289b3	add	x19,x5,x13	  x5:0x80009f00 x13:0x00000001 x19=0x80009f01
       49475000	      4946	80005430	02b61863	bne	x12,x11,80005460	 x12:0xc6596b52 x11:0x00000000
       49485000	      4947	00000000	00000013	addi	x0,x0,0	  x0:0x00000000
       49495000	      4948	8000545c	00000013	addi	x0,x0,0	  x0:0x00000000
       49505000	      4949	80005460	000fe733	or	x14,x31,x0	 x31:0x80009fc4  x0:0x00000000 x14=0x80009fc4
       49515000	      4950	80005464	0179f9b3	and	x19,x19,x23	 x19:0x80009f01 x23:0x00000001 x19=0x00000001
       49525000	      4951	80005468	4c588293	addi	x5,x17,1221	 x17:0xffffff7e  x5=0x00000443
       49535000	      4952	8000546c	413c8833	sub	x16,x25,x19	 x25:0x8cb2d152 x19:0x00000001 x16=0x8cb2d151
       49545000	      4953	80005470	0173df33	srl	x30,x7,x23	  x7:0x00000000 x23:0x00000001 x30=0x00000000
       49555000	      4954	80005474	f3b41eb7	lui	x29,0xf3b41	 x29=0xf3b41000
       49565000	      4955	80005478	01a1db13	srli	x22,x3,0x1a	  x3:0x00000000 x22=0x00000000
       49575000	      4956	8000547c	01339313	slli	x6,x7,0x13	  x7:0x00000000  x6=0x00000000
       49585000	      4957	80005480	41510933	sub	x18,x2,x21	  x2:0xb7aee122 x21:0x80009ee0 x18=0x37ae4242
       49595000	      4958	80005484	00cd20b3	slt	x1,x26,x12	 x26:0x00000000 x12:0xc6596b52  x1=0x00000000
       49605000	      4959	80005488	01cade33	srl	x28,x21,x28	 x21:0x80009ee0 x28:0x00000001 x28=0x40004f70
       49615000	      4960	8000548c	01de8863	beq	x29,x29,8000549c	 x29:0xf3b41000 x29:0xf3b41000
       49625000	      4961	00000000	00000013	addi	x0,x0,0	  x0:0x00000000
       49635000	      4962	80005498	00000013	addi	x0,x0,0	  x0:0x00000000
       49645000	      4963	8000549c	1f01c593	xori	x11,x3,496	  x3:0x00000000 x11=0x000001f0
       49655000	      4964	800054a0	00fc96b3	sll	x13,x25,x15	 x25:0x8cb2d152 x15:0x00001dc4 x13=0xcb2d1520
       49665000	      4965	800054a4	004aa083	lw	x1,4(x21)	 x21:0x80009ee0  x1=0x800066f4 PA:0x80009ee4
       49675000	      4966	800054a8	00e7f6b3	and	x13,x15,x14	 x15:0x00001dc4 x14:0x80009fc4 x13=0x00001dc4
       49685000	      4967	800054ac	01d94c33	xor	x24,x18,x29	 x18:0x37ae4242 x29:0xf3b41000 x24=0xc41a5242
       49695000	      4968	800054b0	0143f9b3	and	x19,x7,x20	  x7:0x00000000 x20:0x00000000 x19=0x00000000
       49705000	      4969	800054b4	00819c13	slli	x24,x3,0x8	  x3:0x00000000 x24=0x00000000
       49715000	      4970	800054b8	ba64a993	slti	x19,x9,-1114	  x9:0x0000bf4e x19=0x00000000
       49725000	      4971	800054bc	040a8a93	addi	x21,x21,64	 x21:0x80009ee0 x21=0x80009f20
       49735000	      4972	800054c0	41ba54b3	sra	x9,x20,x27	 x20:0x00000000 x27:0x8cb2d6a4  x9=0x00000000
       49745000	      4973	800054c4	4156d9b3	sra	x19,x13,x21	 x13:0x00001dc4 x21:0x80009f20 x19=0x00001dc4
       49755000	      4974	800054c8	00108a13	addi	x20,x1,1	  x1:0x800066f4 x20=0x800066f5
       49765000	      4975	800054cc	000a0a67	jalr	x20,x20,0	 x20:0x800066f5 x20=0x800054cc
       49775000	      4976	00000000	00000013	addi	x0,x0,0	  x0:0x00000000
       49785000	      4977	800066f4	00000013	addi	x0,x0,0	  x0:0x00000000
       49795000	      4978	800066f8	73996d93	ori	x27,x18,1849	 x18:0x37ae4242 x27=0x37ae477b
       49805000	      4979	800066fc	fa9cf4b7	lui	x9,0xfa9cf	  x9=0xfa9cf000
       49815000	      4980	80006700	01335913	srli	x18,x6,0x13	  x6:0x00000000 x18=0x00000000
       49825000	      4981	80006704	0449f863	bgeu	x19,x4,80006754	 x19:0x00001dc4  x4:0xfffffda9
       49835000	      4982	80006708	aeb44493	xori	x9,x8,-1301	  x8:0x00000001  x9=0xfffffaea
       49845000	      4983	8000670c	01a5b5b3	sltu	x11,x11,x26	 x11:0x000001f0 x26:0x00000000 x11=0x00000000
       49855000	      4984	80006710	04396663	bltu	x18,x3,8000675c	 x18:0x00000000  x3:0x00000000
       49865000	      4985	80006714	47c50793	addi	x15,x10,1148	 x10:0x00000000 x15=0x0000047c
       49875000	      4986	80006718	6dbc7293	andi	x5,x24,1755	 x24:0x00000000  x5=0x00000000
       49885000	      4987	8000671c	00000013	addi	x0,x0,0	  x0:0x00000000
       49895000	      4988	80006720	006c5533	srl	x10,x24,x6	 x24:0x00000000  x6:0x00000000 x10=0x00000000
       49905000	      4989	80006724	01b611b3	sll	x3,x12,x27	 x12:0xc6596b52 x27:0x37ae477b  x3=0x90000000
       49915000	      4990	80006728	1e557813	andi	x16,x10,485	 x10:0x00000000 x16=0x00000000
       49925000	      4991	8000672c	02665e63	bge	x12,x6,80006768	 x12:0xc6596b52  x6:0x00000000
       49935000	      4992	80006730	00a11d93	slli	x27,x2,0xa	  x2:0xb7aee122 x27=0xbb848800
       49945000	      4993	80006734	f9c5ca13	xori	x20,x11,-100	 x11:0x00000000 x20=0xffffff9c
       49955000	      4994	80006738	72e82c97	auipc	x25,0x72e82	 x25=0xf2e88734
       49965000	      4995	8000673c	0316c263	blt	x13,x17,80006760	 x13:0x00001dc4 x17:0xffffff7e
       49975000	      4996	80006740	013dd4b3	srl	x9,x27,x19	 x27:0xbb848800 x19:0x00001dc4  x9=0x0bb84880
       49985000	      4997	80006744	00000013	addi	x0,x0,0	  x0:0x00000000
       49995000	      4998	80006748	aeb92913	slti	x18,x18,-1301	 x18:0x00000000 x18=0x00000000
       50005000	      4999	8000674c	00000013	addi	x0,x0,0	  x0:0x00000000
       50015000	      5000	80006750	012909b3	add	x19,x18,x18	 x18:0x00000000 x18:0x00000000 x19=0x00000000
       50025000	      5001	80006754	044ee063	bltu	x29,x4,80006794	 x29:0xf3b41000  x4:0xfffffda9
       50035000	      5002	00000000	00000013	addi	x0,x0,0	  x0:0x00000000
       50045000	      5003	80006790	00000013	addi	x0,x0,0	  x0:0x00000000
       50055000	      5004	80006794	0034c7b3	xor	x15,x9,x3	  x9:0x0bb84880  x3:0x90000000 x15=0x9bb84880
       50065000	      5005	80006798	048fc663	blt	x31,x8,800067e4	 x31:0x80009fc4  x8:0x00000001
       50075000	      5006	00000000	00000013	addi	x0,x0,0	  x0:0x00000000
       50085000	      5007	800067e0	00000013	addi	x0,x0,0	  x0:0x00000000
       50095000	      5008	800067e4	00b79213	slli	x4,x15,0xb	 x15:0x9bb84880  x4=0xc2440000
       50105000	      5009	800067e8	01fb91b3	sll	x3,x23,x31	 x23:0x00000001 x31:0x80009fc4  x3=0x00000010
       50115000	      5010	800067ec	00000013	addi	x0,x0,0	  x0:0x00000000
       50125000	      5011	800067f0	00c73bb3	sltu	x23,x14,x12	 x14:0x80009fc4 x12:0xc6596b52 x23=0x00000001
       50135000	      5012	800067f4	012b8333	add	x6,x23,x18	 x23:0x00000001 x18:0x00000000  x6=0x00000001
       50145000	      5013	800067f8	05277063	bgeu	x14,x18,80006838	 x14:0x80009fc4 x18:0x00000000
       50155000	      5014	00000000	00000013	addi	x0,x0,0	  x0:0x00000000
       50165000	      5015	80006834	00000013	addi	x0,x0,0	  x0:0x00000000
       50175000	      5016	80006838	00f6d233	srl	x4,x13,x15	 x13:0x00001dc4 x15:0x9bb84880  x4=0x00001dc4
       50185000	      5017	8000683c	0239c063	blt	x19,x3,8000685c	 x19:0x00000000  x3:0x00000010
       50195000	      5018	00000000	00000013	addi	x0,x0,0	  x0:0x00000000
       50205000	      5019	80006858	00000013	addi	x0,x0,0	  x0:0x00000000
       50215000	      5020	8000685c	00cfc663	blt	x31,x12,80006868	 x31:0x80009fc4 x12:0xc6596b52
       50225000	      5021	00000000	00000013	addi	x0,x0,0	  x0:0x00000000
       50235000	      5022	80006864	00000013	addi	x0,x0,0	  x0:0x00000000
       50245000	      5023	80006868	015034b3	sltu	x9,x0,x21	  x0:0x00000000 x21:0x80009f20  x9=0x00000001
       50255000	      5024	8000686c	00a808b3	add	x17,x16,x10	 x16:0x00000000 x10:0x00000000 x17=0x00000000
       50265000	      5025	80006870	026a7263	bgeu	x20,x6,80006894	 x20:0xffffff9c  x6:0x00000001
       50275000	      5026	00000000	00000013	addi	x0,x0,0	  x0:0x00000000
       50285000	      5027	80006890	00000013	addi	x0,x0,0	  x0:0x00000000
       50295000	      5028	80006894	01cd6c33	or	x24,x26,x28	 x26:0x00000000 x28:0x40004f70 x24=0x40004f70
       50305000	      5029	80006898	2745e597	auipc	x11,0x2745e	 x11=0xa7464894
       50315000	      5030	8000689c	0f09ea63	bltu	x19,x16,80006990	 x19:0x00000000 x16:0x00000000
       50325000	      5031	800068a0	10ecf063	bgeu	x25,x14,800069a0	 x25:0xf2e88734 x14:0x80009fc4
       50335000	      5032	00000000	00000013	addi	x0,x0,0	  x0:0x00000000
       50345000	      5033	8000699c	00000013	addi	x0,x0,0	  x0:0x00000000
       50355000	      5034	800069a0	00000013	addi	x0,x0,0	  x0:0x00000000
       50365000	      5035	800069a4	40b65f33	sra	x30,x12,x11	 x12:0xc6596b52 x11:0xa7464894 x30=0xfffffc65
       50375000	      5036	800069a8	3707cc13	xori	x24,x15,880	 x15:0x9bb84880 x24=0x9bb84bf0
       50385000	      5037	800069ac	01c4b733	sltu	x14,x9,x28	  x9:0x00000001 x28:0x40004f70 x14=0x00000001
       50395000	      5038	800069b0	fc9c4713	xori	x14,x24,-55	 x24:0x9bb84bf0 x14=0x6447b439
       50405000	      5039	800069b4	00304d33	xor	x26,x0,x3	  x0:0x00000000  x3:0x00000010 x26=0x00000010
       50415000	      5040	800069b8	019522b3	slt	x5,x10,x25	 x10:0x00000000 x25:0xf2e88734  x5=0x00000000
       50425000	      5041	800069bc	015aee33	or	x28,x21,x21	 x21:0x80009f20 x21:0x80009f20 x28=0x80009f20
       50435000	      5042	800069c0	41fc0db3	sub	x27,x24,x31	 x24:0x9bb84bf0 x31:0x80009fc4 x27=0x1bb7ac2c
       50445000	      5043	800069c4	0108d093	srli	x1,x17,0x10	 x17:0x00000000  x1=0x00000000
       50455000	      5044	800069c8	41da5733	sra	x14,x20,x29	 x20:0xffffff9c x29:0xf3b41000 x14=0xffffff9c
       50465000	      5045	800069cc	002162b3	or	x5,x2,x2	  x2:0xb7aee122  x2:0xb7aee122  x5=0xb7aee122
       50475000	      5046	800069d0	01c882b3	add	x5,x17,x28	 x17:0x00000000 x28:0x80009f20  x5=0x80009f20
       50485000	      5047	800069d4	05478a63	beq	x15,x20,80006a28	 x15:0x9bb84880 x20:0xffffff9c
       50495000	      5048	800069d8	00337cb3	and	x25,x6,x3	  x6:0x00000001  x3:0x00000010 x25=0x00000000
       50505000	      5049	800069dc	0079edb3	or	x27,x19,x7	 x19:0x00000000  x7:0x00000000 x27=0x00000000
       50515000	      5050	800069e0	01e2eb33	or	x22,x5,x30	  x5:0x80009f20 x30:0xfffffc65 x22=0xffffff65
       50525000	      5051	800069e4	417b0f33	sub	x30,x22,x23	 x22:0xffffff65 x23:0x00000001 x30=0xffffff64
       50535000	      5052	800069e8	008e5bb3	srl	x23,x28,x8	 x28:0x80009f20  x8:0x00000001 x23=0x40004f90
       50545000	      5053	800069ec	002792b3	sll	x5,x15,x2	 x15:0x9bb84880  x2:0xb7aee122  x5=0x6ee12200
       50555000	      5054	800069f0	bc0fc0ef	jal	x1,800069f0	  x1=0x800069f0
       50565000	      5055	00000000	00000013	addi	x0,x0,0	  x0:0x00000000
       50575000	      5056	80002dac	00000013	addi	x0,x0,0	  x0:0x00000000
       50585000	      5057	80002db0	402c0e33	sub	x28,x24,x2	 x24:0x9bb84bf0  x2:0xb7aee122 x28=0xe4096ace
       50595000	      5058	80002db4	00465313	srli	x6,x12,0x4	 x12:0xc6596b52  x6=0x0c6596b5
       50605000	      5059	80002db8	01135eb3	srl	x29,x6,x17	  x6:0x0c6596b5 x17:0x00000000 x29=0x0c6596b5
       50615000	      5060	80002dbc	410a3793	sltiu	x15,x20,1040	 x20:0xffffff9c x15=0x00000000
       50625000	      5061	80002dc0	ff0a8a93	addi	x21,x21,-16	 x21:0x80009f20 x21=0x80009f10
       50635000	      5062	80002dc4	00491d33	sll	x26,x18,x4	 x18:0x00000000  x4:0x00001dc4 x26=0x00000000
       50645000	      5063	80002dc8	01479533	sll	x10,x15,x20	 x15:0x00000000 x20:0xffffff9c x10=0x00000000
       50655000	      5064	80002dcc	ac020193	addi	x3,x4,-1344	  x4:0x00001dc4  x3=0x00001884
       50665000	      5065	80002dd0	e8fc8d93	addi	x27,x25,-369	 x25:0x00000000 x27=0xfffffe8f
       50675000	      5066	80002dd4	011a81b3	add	x3,x21,x17	 x21:0x80009f10 x17:0x00000000  x3=0x80009f10
       50685000	      5067	80002dd8	001aa223	sw	x1,4(x21)	 x21:0x80009f10  x1:0x800069f0 PA:0x80009f14
       50695000	      5068	80002ddc	408484b3	sub	x9,x9,x8	  x9:0x00000001  x8:0x00000001  x9=0x00000000
       50705000	      5069	80002de0	00000397	auipc	x7,0x0	  x7=0x80002ddc
       50715000	      5070	80002de4	09438393	addi	x7,x7,148	  x7:0x80002ddc  x7=0x80002e70
       50725000	      5071	80002de8	01df30b3	sltu	x1,x30,x29	 x30:0xffffff64 x29:0x0c6596b5  x1=0x00000000
       50735000	      5072	80002dec	9946a237	lui	x4,0x9946a	  x4=0x9946a000
       50745000	      5073	80002df0	01e9a9b3	slt	x19,x19,x30	 x19:0x00000000 x30:0xffffff64 x19=0x00000000
       50755000	      5074	80002df4	00970833	add	x16,x14,x9	 x14:0xffffff9c  x9:0x00000000 x16=0xffffff9c
       50765000	      5075	80002df8	00fc5e33	srl	x28,x24,x15	 x24:0x9bb84bf0 x15:0x00000000 x28=0x9bb84bf0
       50775000	      5076	80002dfc	3da38393	addi	x7,x7,986	  x7:0x80002e70  x7=0x8000324a
       50785000	      5077	80002e00	50de0537	lui	x10,0x50de0	 x10=0x50de0000
       50795000	      5078	80002e04	43b2a993	slti	x19,x5,1083	  x5:0x6ee12200 x19=0x00000000
       50805000	      5079	80002e08	c27380e7	jalr	x1,x7,-985	  x7:0x8000324a  x1=0x80002e08
       50815000	      5080	00000000	00000013	addi	x0,x0,0	  x0:0x00000000
       50825000	      5081	80002e70	00000013	addi	x0,x0,0	  x0:0x00000000
       50835000	      5082	80002e74	fd4a8a93	addi	x21,x21,-44	 x21:0x80009f10 x21=0x80009ee4
       50845000	      5083	80002e78	003a06b3	add	x13,x20,x3	 x20:0xffffff9c  x3:0x80009f10 x13=0x80009eac
       50855000	      5084	80002e7c	005fa9b3	slt	x19,x31,x5	 x31:0x80009fc4  x5:0x6ee12200 x19=0x00000001
       50865000	      5085	80002e80	001aa223	sw	x1,4(x21)	 x21:0x80009ee4  x1:0x80002e08 PA:0x80009ee8
       50875000	      5086	80002e84	414a0cb3	sub	x25,x20,x20	 x20:0xffffff9c x20:0xffffff9c x25=0x00000000
       50885000	      5087	80002e88	6dcb6013	ori	x0,x22,1756	 x22:0xffffff65
       50895000	      5088	80002e8c	010439b3	sltu	x19,x8,x16	  x8:0x00000001 x16:0xffffff9c x19=0x00000001
       50905000	      5089	80002e90	412a5c33	sra	x24,x20,x18	 x20:0xffffff9c x18:0x00000000 x24=0xffffff9c
       50915000	      5090	80002e94	1c19f813	andi	x16,x19,449	 x19:0x00000001 x16=0x00000001
       50925000	      5091	80002e98	b6504e93	xori	x29,x0,-1179	  x0:0x00000000 x29=0xfffffb65
       50935000	      5092	80002e9c	00006097	auipc	x1,0x6	  x1=0x80008e98
       50945000	      5093	80002ea0	dc208093	addi	x1,x1,-574	  x1:0x80008e98  x1=0x80008c5a
       50955000	      5094	80002ea4	00b29c93	slli	x25,x5,0xb	  x5:0x6ee12200 x25=0x09100000
       50965000	      5095	80002ea8	00000013	addi	x0,x0,0	  x0:0x00000000
       50975000	      5096	80002eac	01fdfb33	and	x22,x27,x31	 x27:0xfffffe8f x31:0x80009fc4 x22=0x80009e84
       50985000	      5097	80002eb0	bf42f4b7	lui	x9,0xbf42f	  x9=0xbf42f000
       50995000	      5098	80002eb4	00d861b3	or	x3,x16,x13	 x16:0x00000001 x13:0x80009eac  x3=0x80009ead
       51005000	      5099	80002eb8	401f0e33	sub	x28,x30,x1	 x30:0xffffff64  x1:0x80008c5a x28=0x7fff730a
       51015000	      5100	80002ebc	ebcc7713	andi	x14,x24,-324	 x24:0xffffff9c x14=0xfffffe9c
       51025000	      5101	80002ec0	be5d4813	xori	x16,x26,-1051	 x26:0x00000000 x16=0xfffffbe5
       51035000	      5102	80002ec4	01409003	lh	x0,20(x1)	  x1:0x80008c5a PA:0x80008c6e
       51045000	      5103	80002ec8	d2a33993	sltiu	x19,x6,-726	  x6:0x0c6596b5 x19=0x00000001
       51055000	      5104	80002ecc	00565e33	srl	x28,x12,x5	 x12:0xc6596b52  x5:0x6ee12200 x28=0xc6596b52
       51065000	      5105	80002ed0	01009213	slli	x4,x1,0x10	  x1:0x80008c5a  x4=0x8c5a0000
       51075000	      5106	80002ed4	00000013	addi	x0,x0,0	  x0:0x00000000
       51085000	      5107	80002ed8	f770ab23	sw	x23,-138(x1)	  x1:0x80008c5a x23:0x40004f90 PA:0x80008bd0
       51095000	      5108	80002edc	034087a3	sb	x20,47(x1)	  x1:0x80008c5a x20:0xffffff9c PA:0x80008c89
       51105000	      5109	80002ee0	f4d08783	lb	x15,-179(x1)	  x1:0x80008c5a x15=0xffffff8c PA:0x80008ba7
       51115000	      5110	80002ee4	ed808e13	addi	x28,x1,-296	  x1:0x80008c5a x28=0x80008b32
       51125000	      5111	80002ee8	01215cb3	srl	x25,x2,x18	  x2:0xb7aee122 x18:0x00000000 x25=0xb7aee122
       51135000	      5112	80002eec	02908423	sb	x9,40(x1)	  x1:0x80008c5a  x9:0xbf42f000 PA:0x80008c82
       51145000	      5113	80002ef0	00ac9013	slli	x0,x25,0xa	 x25:0xb7aee122
       51155000	      5114	80002ef4	01fd84b3	add	x9,x27,x31	 x27:0xfffffe8f x31:0x80009fc4  x9=0x80009e53
       51165000	      5115	80002ef8	fbe0d383	lhu	x7,-66(x1)	  x1:0x80008c5a  x7=0x00000203 PA:0x80008c18
       51175000	      5116	80002efc	32ce8213	addi	x4,x29,812	 x29:0xfffffb65  x4=0xfffffe91
       51185000	      5117	80002f00	c8cc3993	sltiu	x19,x24,-884	 x24:0xffffff9c x19=0x00000000
       51195000	      5118	80002f04	37033c37	lui	x24,0x37033	 x24=0x37033000
       51205000	      5119	80002f08	09809883	lh	x17,152(x1)	  x1:0x80008c5a x17=0xffffd8d9 PA:0x80008cf2
       51215000	      5120	80002f0c	0a70c203	lbu	x4,167(x1)	  x1:0x80008c5a  x4=0x000000ea PA:0x80008d01
       51225000	      5121	80002f10	f9a0cb83	lbu	x23,-102(x1)	  x1:0x80008c5a x23=0x000000df PA:0x80008bf4
       51235000	      5122	80002f14	011c9db3	sll	x27,x25,x17	 x25:0xb7aee122 x17:0xffffd8d9 x27=0x44000000
       51245000	      5123	80002f18	00fa6633	or	x12,x20,x15	 x20:0xffffff9c x15:0xffffff8c x12=0xffffff9c
       51255000	      5124	80002f1c	f790c583	lbu	x11,-135(x1)	  x1:0x80008c5a x11=0x00000040 PA:0x80008bd3
       51265000	      5125	80002f20	00ca92b3	sll	x5,x21,x12	 x21:0x80009ee4 x12:0xffffff9c  x5=0x40000000
       51275000	      5126	80002f24	0882fc13	andi	x24,x5,136	  x5:0x40000000 x24=0x00000000
       51285000	      5127	80002f28	01793933	sltu	x18,x18,x23	 x18:0x00000000 x23:0x000000df x18=0x00000001
       51295000	      5128	80002f2c	843e0493	addi	x9,x28,-1981	 x28:0x80008b32  x9=0x80008375
       51305000	      5129	80002f30	41325cb3	sra	x25,x4,x19	  x4:0x000000ea x19:0x00000000 x25=0x000000ea
       51315000	      5130	80002f34	049089a3	sb	x9,83(x1)	  x1:0x80008c5a  x9:0x80008375 PA:0x80008cad
       51325000	      5131	80002f38	0610c503	lbu	x10,97(x1)	  x1:0x80008c5a x10=0x000000a0 PA:0x80008cbb
       51335000	      5132	80002f3c	00006a17	auipc	x20,0x6	 x20=0x80008f38
       51345000	      5133	80002f40	ec7a0a13	addi	x20,x20,-313	 x20:0x80008f38 x20=0x80008dff
       51355000	      5134	80002f44	04fa0723	sb	x15,78(x20)	 x20:0x80008dff x15:0xffffff8c PA:0x80008e4d
       51365000	      5135	80002f48	003c8cb3	add	x25,x25,x3	 x25:0x000000ea  x3:0x80009ead x25=0x80009f97
       51375000	      5136	80002f4c	fa8a0783	lb	x15,-88(x20)	 x20:0x80008dff x15=0xffffff8c PA:0x80008da7
       51385000	      5137	80002f50	0059f633	and	x12,x19,x5	 x19:0x00000000  x5:0x40000000 x12=0x00000000
       51395000	      5138	80002f54	f69a0523	sb	x9,-150(x20)	 x20:0x80008dff  x9:0x80008375 PA:0x80008d69
       51405000	      5139	80002f58	ffda1903	lh	x18,-3(x20)	 x20:0x80008dff x18=0xffff8e75 PA:0x80008dfc
       51415000	      5140	80002f5c	00000013	addi	x0,x0,0	  x0:0x00000000
       51425000	      5141	80002f60	08ea0803	lb	x16,142(x20)	 x20:0x80008dff x16=0x00000076 PA:0x80008e8d
       51435000	      5142	80002f64	f31a0183	lb	x3,-207(x20)	 x20:0x80008dff  x3=0x0000001b PA:0x80008d30
       51445000	      5143	80002f68	41ddd6b3	sra	x13,x27,x29	 x27:0x44000000 x29:0xfffffb65 x13=0x02200000
       51455000	      5144	80002f6c	00539c93	slli	x25,x7,0x5	  x7:0x00000203 x25=0x00004060
       51465000	      5145	80002f70	01088333	add	x6,x17,x16	 x17:0xffffd8d9 x16:0x00000076  x6=0xffffd94f
       51475000	      5146	80002f74	01faec33	or	x24,x21,x31	 x21:0x80009ee4 x31:0x80009fc4 x24=0x80009fe4
       51485000	      5147	80002f78	40345633	sra	x12,x8,x3	  x8:0x00000001  x3:0x0000001b x12=0x00000000
       51495000	      5148	80002f7c	4ac00593	addi	x11,x0,1196	  x0:0x00000000 x11=0x000004ac
       51505000	      5149	80002f80	0bda0603	lb	x12,189(x20)	 x20:0x80008dff x12=0xffffffa7 PA:0x80008ebc
       51515000	      5150	80002f84	015c7233	and	x4,x24,x21	 x24:0x80009fe4 x21:0x80009ee4  x4=0x80009ee4
       51525000	      5151	80002f88	f49a1ca3	sh	x9,-167(x20)	 x20:0x80008dff  x9:0x80008375 PA:0x80008d58
       51535000	      5152	80002f8c	f72a0403	lb	x8,-142(x20)	 x20:0x80008dff  x8=0x0000005a PA:0x80008d71
       51545000	      5153	80002f90	19494713	xori	x14,x18,404	 x18:0xffff8e75 x14=0xffff8fe1
       51555000	      5154	80002f94	4c234e93	xori	x29,x6,1218	  x6:0xffffd94f x29=0xffffdd8d
       51565000	      5155	80002f98	00ae39b3	sltu	x19,x28,x10	 x28:0x80008b32 x10:0x000000a0 x19=0x00000000
       51575000	      5156	80002f9c	30f6bf13	sltiu	x30,x13,783	 x13:0x02200000 x30=0x00000000
       51585000	      5157	80002fa0	f52a4203	lbu	x4,-174(x20)	 x20:0x80008dff  x4=0x0000003a PA:0x80008d51
       51595000	      5158	80002fa4	009c1c93	slli	x25,x24,0x9	 x24:0x80009fe4 x25=0x013fc800
       51605000	      5159	80002fa8	01151333	sll	x6,x10,x17	 x10:0x000000a0 x17:0xffffd8d9  x6=0x40000000
       51615000	      5160	80002fac	749b3517	auipc	x10,0x749b3	 x10=0xf49b5fa8
       51625000	      5161	80002fb0	fe0a4683	lbu	x13,-32(x20)	 x20:0x80008dff x13=0x000000c4 PA:0x80008ddf
       51635000	      5162	80002fb4	00005c17	auipc	x24,0x5	 x24=0x80007fb0
       51645000	      5163	80002fb8	188c0c13	addi	x24,x24,392	 x24:0x80007fb0 x24=0x80008138
       51655000	      5164	80002fbc	00f45893	srli	x17,x8,0xf	  x8:0x0000005a x17=0x00000000
       51665000	      5165	80002fc0	4053d393	srai	x7,x7,0x5	  x7:0x00000203  x7=0x00000010
       51675000	      5166	80002fc4	00b09433	sll	x8,x1,x11	  x1:0x80008c5a x11:0x000004ac  x8=0x08c5a000
       51685000	      5167	80002fc8	fe0c09a3	sb	x0,-13(x24)	 x24:0x80008138  x0:0x00000000 PA:0x8000812b
       51695000	      5168	80002fcc	00ac5b83	lhu	x23,10(x24)	 x24:0x80008138 x23=0x000000f9 PA:0x80008142
       51705000	      5169	80002fd0	009c1723	sh	x9,14(x24)	 x24:0x80008138  x9:0x80008375 PA:0x80008146
       51715000	      5170	80002fd4	008c0b03	lb	x22,8(x24)	 x24:0x80008138 x22=0xffffffa8 PA:0x80008140
       51725000	      5171	80002fd8	ffcc5303	lhu	x6,-4(x24)	 x24:0x80008138  x6=0x0000eeef PA:0x80008134
       51735000	      5172	80002fdc	ff3c4403	lbu	x8,-13(x24)	 x24:0x80008138  x8=0x00000000 PA:0x8000812b
       51745000	      5173	80002fe0	01c7d413	srli	x8,x15,0x1c	 x15:0xffffff8c  x8=0x0000000f
       51755000	      5174	80002fe4	fe5c1f23	sh	x5,-2(x24)	 x24:0x80008138  x5:0x40000000 PA:0x80008136
       51765000	      5175	80002fe8	01914e33	xor	x28,x2,x25	  x2:0xb7aee122 x25:0x013fc800 x28=0xb6912922
       51775000	      5176	80002fec	010c4903	lbu	x18,16(x24)	 x24:0x80008138 x18=0x00000003 PA:0x80008148
       51785000	      5177	80002ff0	407457b3	sra	x15,x8,x7	  x8:0x0000000f  x7:0x00000010 x15=0x00000000
       51795000	      5178	80002ff4	01c66b33	or	x22,x12,x28	 x12:0xffffffa7 x28:0xb6912922 x22=0xffffffa7
       51805000	      5179	80002ff8	4197d7b3	sra	x15,x15,x25	 x15:0x00000000 x25:0x013fc800 x15=0x00000000
       51815000	      5180	80002ffc	002c4b03	lbu	x22,2(x24)	 x24:0x80008138 x22=0x000000f1 PA:0x8000813a
       51825000	      5181	80003000	ff0c0003	lb	x0,-16(x24)	 x24:0x80008138 PA:0x80008128
       51835000	      5182	80003004	00ac0423	sb	x10,8(x24)	 x24:0x80008138 x10:0xf49b5fa8 PA:0x80008140
       51845000	      5183	80003008	ff4c0483	lb	x9,-12(x24)	 x24:0x80008138  x9=0xffffffe7 PA:0x8000812c
       51855000	      5184	8000300c	012c0723	sb	x18,14(x24)	 x24:0x80008138 x18:0x00000003 PA:0x80008146
       51865000	      5185	80003010	00cc1483	lh	x9,12(x24)	 x24:0x80008138  x9=0x00000000 PA:0x80008144
       51875000	      5186	80003014	011c1523	sh	x17,10(x24)	 x24:0x80008138 x17:0x00000000 PA:0x80008142
       51885000	      5187	80003018	012c0823	sb	x18,16(x24)	 x24:0x80008138 x18:0x00000003 PA:0x80008148
       51895000	      5188	8000301c	00fc0b03	lb	x22,15(x24)	 x24:0x80008138 x22=0xffffff83 PA:0x80008147
       51905000	      5189	80003020	ffac1d03	lh	x26,-6(x24)	 x24:0x80008138 x26=0xffff83e9 PA:0x80008132
       51915000	      5190	80003024	fe6c1c23	sh	x6,-8(x24)	 x24:0x80008138  x6:0x0000eeef PA:0x80008130
       51925000	      5191	80003028	013c1623	sh	x19,12(x24)	 x24:0x80008138 x19:0x00000000 PA:0x80008144
       51935000	      5192	8000302c	40c15e93	srai	x29,x2,0xc	  x2:0xb7aee122 x29=0xfffb7aee
       51945000	      5193	80003030	00fc4303	lbu	x6,15(x24)	 x24:0x80008138  x6=0x00000083 PA:0x80008147
       51955000	      5194	80003034	ffac1783	lh	x15,-6(x24)	 x24:0x80008138 x15=0xffff83e9 PA:0x80008132
       51965000	      5195	80003038	00345233	srl	x4,x8,x3	  x8:0x0000000f  x3:0x0000001b  x4=0x00000000
       51975000	      5196	8000303c	017c0523	sb	x23,10(x24)	 x24:0x80008138 x23:0x000000f9 PA:0x80008142
       51985000	      5197	80003040	005c4e83	lbu	x29,5(x24)	 x24:0x80008138 x29=0x000000f6 PA:0x8000813d
       51995000	      5198	80003044	ff4c0b23	sb	x20,-10(x24)	 x24:0x80008138 x20:0x80008dff PA:0x8000812e
       52005000	      5199	80003048	fe6c0da3	sb	x6,-5(x24)	 x24:0x80008138  x6:0x00000083 PA:0x80008133
       52015000	      5200	8000304c	40dbd013	srai	x0,x23,0xd	 x23:0x000000f9
       52025000	      5201	80003050	ff4c09a3	sb	x20,-13(x24)	 x24:0x80008138 x20:0x80008dff PA:0x8000812b
       52035000	      5202	80003054	ffbc4903	lbu	x18,-5(x24)	 x24:0x80008138 x18=0x00000083 PA:0x80008133
       52045000	      5203	80003058	00005997	auipc	x19,0x5	 x19=0x80008054
       52055000	      5204	8000305c	68998993	addi	x19,x19,1673	 x19:0x80008054 x19=0x800086dd
       52065000	      5205	80003060	010c9933	sll	x18,x25,x16	 x25:0x013fc800 x16:0x00000076 x18=0x00000000
       52075000	      5206	80003064	a9c9c683	lbu	x13,-1380(x19)	 x19:0x800086dd x13=0x00000032 PA:0x80008179
       52085000	      5207	80003068	c1e98f23	sb	x30,-994(x19)	 x19:0x800086dd x30:0x00000000 PA:0x800082fb
       52095000	      5208	8000306c	01106cb3	or	x25,x0,x17	  x0:0x00000000 x17:0x00000000 x25=0x00000000
       52105000	      5209	80003070	ce89c203	lbu	x4,-792(x19)	 x19:0x800086dd  x4=0x0000007e PA:0x800083c5
       52115000	      5210	80003074	011a6533	or	x10,x20,x17	 x20:0x80008dff x17:0x00000000 x10=0x80008dff
       52125000	      5211	80003078	ec298b23	sb	x2,-298(x19)	 x19:0x800086dd  x2:0xb7aee122 PA:0x800085b3
       52135000	      5212	8000307c	01419233	sll	x4,x3,x20	  x3:0x0000001b x20:0x80008dff  x4=0x80000000
       52145000	      5213	80003080	b7b9c303	lbu	x6,-1157(x19)	 x19:0x800086dd  x6=0x00000013 PA:0x80008258
       52155000	      5214	80003084	b7c98323	sb	x28,-1178(x19)	 x19:0x800086dd x28:0xb6912922 PA:0x80008243
       52165000	      5215	80003088	40a38933	sub	x18,x7,x10	  x7:0x00000010 x10:0x80008dff x18=0x7fff7211
       52175000	      5216	8000308c	fd29c683	lbu	x13,-46(x19)	 x19:0x800086dd x13=0x00000001 PA:0x800086af
       52185000	      5217	80003090	beb9cf03	lbu	x30,-1045(x19)	 x19:0x800086dd x30=0x00000083 PA:0x800082c8
       52195000	      5218	80003094	fc99d583	lhu	x11,-55(x19)	 x19:0x800086dd x11=0x00005c5d PA:0x800086a6
       52205000	      5219	80003098	f2e9ce83	lbu	x29,-210(x19)	 x19:0x800086dd x29=0x000000c0 PA:0x8000860b
       52215000	      5220	8000309c	615d6593	ori	x11,x26,1557	 x26:0xffff83e9 x11=0xffff87fd
       52225000	      5221	800030a0	a4098f23	sb	x0,-1442(x19)	 x19:0x800086dd  x0:0x00000000 PA:0x8000813b
       52235000	      5222	800030a4	b2498323	sb	x4,-1242(x19)	 x19:0x800086dd  x4:0x80000000 PA:0x80008203
       52245000	      5223	800030a8	f1c9ce03	lbu	x28,-228(x19)	 x19:0x800086dd x28=0x000000b2 PA:0x800085f9
       52255000	      5224	800030ac	c129c483	lbu	x9,-1006(x19)	 x19:0x800086dd  x9=0x000000a4 PA:0x800082ef
       52265000	      5225	800030b0	fe233e13	sltiu	x28,x6,-30	  x6:0x00000013 x28=0x00000001
       52275000	      5226	800030b4	f5598903	lb	x18,-171(x19)	 x19:0x800086dd x18=0xffffffe9 PA:0x80008632
       52285000	      5227	800030b8	5bd1a913	slti	x18,x3,1469	  x3:0x0000001b x18=0x00000001
       52295000	      5228	800030bc	b4198423	sb	x1,-1208(x19)	 x19:0x800086dd  x1:0x80008c5a PA:0x80008225
       52305000	      5229	800030c0	01c072b3	and	x5,x0,x28	  x0:0x00000000 x28:0x00000001  x5=0x00000000
       52315000	      5230	800030c4	d4799383	lh	x7,-697(x19)	 x19:0x800086dd  x7=0xffffdedf PA:0x80008424
       52325000	      5231	800030c8	40e55233	sra	x4,x10,x14	 x10:0x80008dff x14:0xffff8fe1  x4=0xc00046ff
       52335000	      5232	800030cc	0050a2b3	slt	x5,x1,x5	  x1:0x80008c5a  x5:0x00000000  x5=0x00000001
       52345000	      5233	800030d0	01cc5e33	srl	x28,x24,x28	 x24:0x80008138 x28:0x00000001 x28=0x4000409c
       52355000	      5234	800030d4	01815513	srli	x10,x2,0x18	  x2:0xb7aee122 x10=0x000000b7
       52365000	      5235	800030d8	bde4b017	auipc	x0,0xbde4b	
       52375000	      5236	800030dc	0939a183	lw	x3,147(x19)	 x19:0x800086dd  x3=0x28292a2b PA:0x80008770
       52385000	      5237	800030e0	00fa2333	slt	x6,x20,x15	 x20:0x80008dff x15:0xffff83e9  x6=0x00000001
       52395000	      5238	800030e4	009f7c33	and	x24,x30,x9	 x30:0x00000083  x9:0x000000a4 x24=0x00000080
       52405000	      5239	800030e8	0106edb3	or	x27,x13,x16	 x13:0x00000001 x16:0x00000076 x27=0x00000077
       52415000	      5240	800030ec	a5998923	sb	x25,-1454(x19)	 x19:0x800086dd x25:0x00000000 PA:0x8000812f
       52425000	      5241	800030f0	de39d903	lhu	x18,-541(x19)	 x19:0x800086dd x18=0x00007a7b PA:0x800084c0
       52435000	      5242	800030f4	b2498483	lb	x9,-1244(x19)	 x19:0x800086dd  x9=0xffffffba PA:0x80008201
       52445000	      5243	800030f8	db982b13	slti	x22,x16,-583	 x16:0x00000076 x22=0x00000000
       52455000	      5244	800030fc	a4f99c83	lh	x25,-1457(x19)	 x19:0x800086dd x25=0xffffe6e7 PA:0x8000812c
       52465000	      5245	80003100	00deacb3	slt	x25,x29,x13	 x29:0x000000c0 x13:0x00000001 x25=0x00000000
       52475000	      5246	80003104	006e22b3	slt	x5,x28,x6	 x28:0x4000409c  x6:0x00000001  x5=0x00000000
       52485000	      5247	80003108	c3f9ad03	lw	x26,-961(x19)	 x19:0x800086dd x26=0xd4d5d6d7 PA:0x8000831c
       52495000	      5248	8000310c	00000013	addi	x0,x0,0	  x0:0x00000000
       52505000	      5249	80003110	1e6f3b17	auipc	x22,0x1e6f3	 x22=0x9e6f610c
       52515000	      5250	80003114	f8798523	sb	x7,-118(x19)	 x19:0x800086dd  x7:0xffffdedf PA:0x80008667
       52525000	      5251	80003118	13a9c903	lbu	x18,314(x19)	 x19:0x800086dd x18=0x000000cc PA:0x80008817
       52535000	      5252	8000311c	04a98a03	lb	x20,74(x19)	 x19:0x800086dd x20=0xffffffdc PA:0x80008727
       52545000	      5253	80003120	0679c203	lbu	x4,103(x19)	 x19:0x800086dd  x4=0x000000ff PA:0x80008744
       52555000	      5254	80003124	009c1093	slli	x1,x24,0x9	 x24:0x00000080  x1=0x00010000
       52565000	      5255	80003128	ee19de03	lhu	x28,-287(x19)	 x19:0x800086dd x28=0x00007475 PA:0x800085be
       52575000	      5256	8000312c	016ba733	slt	x14,x23,x22	 x23:0x000000f9 x22:0x9e6f610c x14=0x00000000
       52585000	      5257	80003130	13199c83	lh	x25,305(x19)	 x19:0x800086dd x25=0xffffc4c5 PA:0x8000880e
       52595000	      5258	80003134	40b5da33	sra	x20,x11,x11	 x11:0xffff87fd x11:0xffff87fd x20=0xffffffff
       52605000	      5259	80003138	00cbc533	xor	x10,x23,x12	 x23:0x000000f9 x12:0xffffffa7 x10=0xffffff5e
       52615000	      5260	8000313c	00f18933	add	x18,x3,x15	  x3:0x28292a2b x15:0xffff83e9 x18=0x2828ae14
       52625000	      5261	80003140	41d75e93	srai	x29,x14,0x1d	 x14:0x00000000 x29=0x00000000
       52635000	      5262	80003144	9a3e6697	auipc	x13,0x9a3e6	 x13=0x1a3e9140
       52645000	      5263	80003148	00e85393	srli	x7,x16,0xe	 x16:0x00000076  x7=0x00000000
       52655000	      5264	8000314c	4f9e2393	slti	x7,x28,1273	 x28:0x00007475  x7=0x00000000
       52665000	      5265	80003150	ea85ad93	slti	x27,x11,-344	 x11:0xffff87fd x27=0x00000001
       52675000	      5266	80003154	015674b3	and	x9,x12,x21	 x12:0xffffffa7 x21:0x80009ee4  x9=0x80009ea4
       52685000	      5267	80003158	01f740b3	xor	x1,x14,x31	 x14:0x00000000 x31:0x80009fc4  x1=0x80009fc4
       52695000	      5268	8000315c	d29aa913	slti	x18,x21,-727	 x21:0x80009ee4 x18=0x00000001
       52705000	      5269	80003160	418084b3	sub	x9,x1,x24	  x1:0x80009fc4 x24:0x00000080  x9=0x80009f44
       52715000	      5270	80003164	00189033	sll	x0,x17,x1	 x17:0x00000000  x1:0x80009fc4
       52725000	      5271	80003168	00c21513	slli	x10,x4,0xc	  x4:0x000000ff x10=0x000ff000
       52735000	      5272	8000316c	000e0cb3	add	x25,x28,x0	 x28:0x00007475  x0:0x00000000 x25=0x00007475
       52745000	      5273	80003170	897a2a13	slti	x20,x20,-1897	 x20:0xffffffff x20=0x00000000
       52755000	      5274	80003174	99dd6193	ori	x3,x26,-1635	 x26:0xd4d5d6d7  x3=0xffffffdf
       52765000	      5275	80003178	001c4c63	blt	x24,x1,80003190	 x24:0x00000080  x1:0x80009fc4
       52775000	      5276	8000317c	40ea5db3	sra	x27,x20,x14	 x20:0x00000000 x14:0x00000000 x27=0x00000000
       52785000	      5277	80003180	00352033	slt	x0,x10,x3	 x10:0x000ff000  x3:0xffffffdf
       52795000	      5278	80003184	a8a84c17	auipc	x24,0xa8a84	 x24=0x28a87180
       52805000	      5279	80003188	010d8433	add	x8,x27,x16	 x27:0x00000000 x16:0x00000076  x8=0x00000076
       52815000	      5280	8000318c	0487c263	blt	x15,x8,800031d0	 x15:0xffff83e9  x8:0x00000076
       52825000	      5281	00000000	00000013	addi	x0,x0,0	  x0:0x00000000
       52835000	      5282	800031cc	00000013	addi	x0,x0,0	  x0:0x00000000
       52845000	      5283	800031d0	74de2017	auipc	x0,0x74de2	
       52855000	      5284	800031d4	9febc013	xori	x0,x23,-1538	 x23:0x000000f9
       52865000	      5285	800031d8	f7947393	andi	x7,x8,-135	  x8:0x00000076  x7=0x00000070
       52875000	      5286	800031dc	0004f733	and	x14,x9,x0	  x9:0x80009f44  x0:0x00000000 x14=0x00000000
       52885000	      5287	800031e0	01cd01b3	add	x3,x26,x28	 x26:0xd4d5d6d7 x28:0x00007475  x3=0xd4d64b4c
       52895000	      5288	800031e4	36a6be93	sltiu	x29,x13,874	 x13:0x1a3e9140 x29=0x00000000
       52905000	      5289	800031e8	1a80a4b7	lui	x9,0x1a80a	  x9=0x1a80a000
       52915000	      5290	800031ec	02efe463	bltu	x31,x14,80003214	 x31:0x80009fc4 x14:0x00000000
       52925000	      5291	800031f0	00df0263	beq	x30,x13,800031f4	 x30:0x00000083 x13:0x1a3e9140
       52935000	      5292	800031f4	f4f32893	slti	x17,x6,-177	  x6:0x00000001 x17=0x00000000
       52945000	      5293	800031f8	409487b3	sub	x15,x9,x9	  x9:0x1a80a000  x9:0x1a80a000 x15=0x00000000
       52955000	      5294	800031fc	41705cb3	sra	x25,x0,x23	  x0:0x00000000 x23:0x000000f9 x25=0x00000000
       52965000	      5295	80003200	92f1d637	lui	x12,0x92f1d	 x12=0x92f1d000
       52975000	      5296	80003204	00271733	sll	x14,x14,x2	 x14:0x00000000  x2:0xb7aee122 x14=0x00000000
       52985000	      5297	80003208	40700f33	sub	x30,x0,x7	  x0:0x00000000  x7:0x00000070 x30=0xffffff90
       52995000	      5298	8000320c	01ae5513	srli	x10,x28,0x1a	 x28:0x00007475 x10=0x00000000
       53005000	      5299	80003210	0420d463	bge	x1,x2,80003258	  x1:0x80009fc4  x2:0xb7aee122
       53015000	      5300	80003214	01f49313	slli	x6,x9,0x1f	  x9:0x1a80a000  x6=0x00000000
       53025000	      5301	80003218	02981863	bne	x16,x9,80003248	 x16:0x00000076  x9:0x1a80a000
       53035000	      5302	00000000	00000013	addi	x0,x0,0	  x0:0x00000000
       53045000	      5303	80003244	00000013	addi	x0,x0,0	  x0:0x00000000
       53055000	      5304	80003248	05799263	bne	x19,x23,8000328c	 x19:0x800086dd x23:0x000000f9
       53065000	      5305	00000000	00000013	addi	x0,x0,0	  x0:0x00000000
       53075000	      5306	80003288	00000013	addi	x0,x0,0	  x0:0x00000000
       53085000	      5307	8000328c	00f05263	bge	x0,x15,80003290	  x0:0x00000000 x15:0x00000000
       53095000	      5308	00000000	00000013	addi	x0,x0,0	  x0:0x00000000
       53105000	      5309	8000328c	00000013	addi	x0,x0,0	  x0:0x00000000
       53115000	      5310	80003290	012c8663	beq	x25,x18,8000329c	 x25:0x00000000 x18:0x00000001
       53125000	      5311	80003294	02f27e63	bgeu	x4,x15,800032d0	  x4:0x000000ff x15:0x00000000
       53135000	      5312	00000000	00000013	addi	x0,x0,0	  x0:0x00000000
       53145000	      5313	800032cc	00000013	addi	x0,x0,0	  x0:0x00000000
       53155000	      5314	800032d0	057e4463	blt	x28,x23,80003318	 x28:0x00007475 x23:0x000000f9
       53165000	      5315	800032d4	da8c0593	addi	x11,x24,-600	 x24:0x28a87180 x11=0x28a86f28
       53175000	      5316	800032d8	8d33f913	andi	x18,x7,-1837	  x7:0x00000070 x18=0x00000050
       53185000	      5317	800032dc	40060233	sub	x4,x12,x0	 x12:0x92f1d000  x0:0x00000000  x4=0x92f1d000
       53195000	      5318	800032e0	64864c13	xori	x24,x12,1608	 x12:0x92f1d000 x24=0x92f1d648
       53205000	      5319	800032e4	00959863	bne	x11,x9,800032f4	 x11:0x28a86f28  x9:0x1a80a000
       53215000	      5320	00000000	00000013	addi	x0,x0,0	  x0:0x00000000
       53225000	      5321	800032f0	00000013	addi	x0,x0,0	  x0:0x00000000
       53235000	      5322	800032f4	00db1593	slli	x11,x22,0xd	 x22:0x9e6f610c x11=0xec218000
       53245000	      5323	800032f8	00169b33	sll	x22,x13,x1	 x13:0x1a3e9140  x1:0x80009fc4 x22=0xa3e91400
       53255000	      5324	800032fc	113ef393	andi	x7,x29,275	 x29:0x00000000  x7=0x00000000
       53265000	      5325	80003300	01e69413	slli	x8,x13,0x1e	 x13:0x1a3e9140  x8=0x00000000
       53275000	      5326	80003304	00a1a9b3	slt	x19,x3,x10	  x3:0xd4d64b4c x10:0x00000000 x19=0x00000001
       53285000	      5327	80003308	1591c913	xori	x18,x3,345	  x3:0xd4d64b4c x18=0xd4d64a15
       53295000	      5328	8000330c	f6b46c93	ori	x25,x8,-149	  x8:0x00000000 x25=0xffffff6b
       53305000	      5329	80003310	013bda63	bge	x23,x19,80003324	 x23:0x000000f9 x19:0x00000001
       53315000	      5330	00000000	00000013	addi	x0,x0,0	  x0:0x00000000
       53325000	      5331	80003320	00000013	addi	x0,x0,0	  x0:0x00000000
       53335000	      5332	80003324	0216c663	blt	x13,x1,80003350	 x13:0x1a3e9140  x1:0x80009fc4
       53345000	      5333	80003328	0050b933	sltu	x18,x1,x5	  x1:0x80009fc4  x5:0x00000000 x18=0x00000000
       53355000	      5334	8000332c	483e2837	lui	x16,0x483e2	 x16=0x483e2000
       53365000	      5335	80003330	0e0d8693	addi	x13,x27,224	 x27:0x00000000 x13=0x000000e0
       53375000	      5336	80003334	00e81293	slli	x5,x16,0xe	 x16:0x483e2000  x5=0x88000000
       53385000	      5337	80003338	00b2d263	bge	x5,x11,8000333c	  x5:0x88000000 x11:0xec218000
       53395000	      5338	8000333c	41f958b3	sra	x17,x18,x31	 x18:0x00000000 x31:0x80009fc4 x17=0x00000000
       53405000	      5339	80003340	00b20463	beq	x4,x11,80003348	  x4:0x92f1d000 x11:0xec218000
       53415000	      5340	80003344	04ac0463	beq	x24,x10,8000338c	 x24:0x92f1d648 x10:0x00000000
       53425000	      5341	80003348	7eb66d37	lui	x26,0x7eb66	 x26=0x7eb66000
       53435000	      5342	8000334c	05dd9263	bne	x27,x29,80003390	 x27:0x00000000 x29:0x00000000
       53445000	      5343	80003350	0019cc63	blt	x19,x1,80003368	 x19:0x00000001  x1:0x80009fc4
       53455000	      5344	80003354	01dbe263	bltu	x23,x29,80003358	 x23:0x000000f9 x29:0x00000000
       53465000	      5345	80003358	003ae663	bltu	x21,x3,80003364	 x21:0x80009ee4  x3:0xd4d64b4c
       53475000	      5346	00000000	00000013	addi	x0,x0,0	  x0:0x00000000
       53485000	      5347	80003360	00000013	addi	x0,x0,0	  x0:0x00000000
       53495000	      5348	80003364	018c0863	beq	x24,x24,80003374	 x24:0x92f1d648 x24:0x92f1d648
       53505000	      5349	00000000	00000013	addi	x0,x0,0	  x0:0x00000000
       53515000	      5350	80003370	00000013	addi	x0,x0,0	  x0:0x00000000
       53525000	      5351	80003374	0098bd33	sltu	x26,x17,x9	 x17:0x00000000  x9:0x1a80a000 x26=0x00000001
       53535000	      5352	80003378	a08bc093	xori	x1,x23,-1528	 x23:0x000000f9  x1=0xfffffaf1
       53545000	      5353	8000337c	0391ce63	blt	x3,x25,800033b8	  x3:0xd4d64b4c x25:0xffffff6b
       53555000	      5354	00000000	00000013	addi	x0,x0,0	  x0:0x00000000
       53565000	      5355	800033b4	00000013	addi	x0,x0,0	  x0:0x00000000
       53575000	      5356	800033b8	03c4f863	bgeu	x9,x28,800033e8	  x9:0x1a80a000 x28:0x00007475
       53585000	      5357	00000000	00000013	addi	x0,x0,0	  x0:0x00000000
       53595000	      5358	800033e4	00000013	addi	x0,x0,0	  x0:0x00000000
       53605000	      5359	800033e8	0127e9b3	or	x19,x15,x18	 x15:0x00000000 x18:0x00000000 x19=0x00000000
       53615000	      5360	800033ec	68ad8f17	auipc	x30,0x68ad8	 x30=0xe8adb3e8
       53625000	      5361	800033f0	00826633	or	x12,x4,x8	  x4:0x92f1d000  x8:0x00000000 x12=0x92f1d000
       53635000	      5362	800033f4	00f3e463	bltu	x7,x15,800033fc	  x7:0x00000000 x15:0x00000000
       53645000	      5363	800033f8	01215a13	srli	x20,x2,0x12	  x2:0xb7aee122 x20=0x00002deb
       53655000	      5364	800033fc	002075b3	and	x11,x0,x2	  x0:0x00000000  x2:0xb7aee122 x11=0x00000000
       53665000	      5365	80003400	407e0333	sub	x6,x28,x7	 x28:0x00007475  x7:0x00000000  x6=0x00007475
       53675000	      5366	80003404	03ca4063	blt	x20,x28,80003424	 x20:0x00002deb x28:0x00007475
       53685000	      5367	00000000	00000013	addi	x0,x0,0	  x0:0x00000000
       53695000	      5368	80003420	00000013	addi	x0,x0,0	  x0:0x00000000
       53705000	      5369	80003424	05abe797	auipc	x15,0x5abe	 x15=0x85ac1420
       53715000	      5370	80003428	04f48463	beq	x9,x15,80003470	  x9:0x1a80a000 x15:0x85ac1420
       53725000	      5371	8000342c	04867463	bgeu	x12,x8,80003474	 x12:0x92f1d000  x8:0x00000000
       53735000	      5372	00000000	00000013	addi	x0,x0,0	  x0:0x00000000
       53745000	      5373	80003470	00000013	addi	x0,x0,0	  x0:0x00000000
       53755000	      5374	80003474	0265e463	bltu	x11,x6,8000349c	 x11:0x00000000  x6:0x00007475
       53765000	      5375	00000000	00000013	addi	x0,x0,0	  x0:0x00000000
       53775000	      5376	80003498	00000013	addi	x0,x0,0	  x0:0x00000000
       53785000	      5377	8000349c	00000013	addi	x0,x0,0	  x0:0x00000000
       53795000	      5378	800034a0	04552013	slti	x0,x10,69	 x10:0x00000000
       53805000	      5379	800034a4	5e202793	slti	x15,x0,1506	  x0:0x00000000 x15=0x00000001
       53815000	      5380	800034a8	014794b3	sll	x9,x15,x20	 x15:0x00000001 x20:0x00002deb  x9=0x00000800
       53825000	      5381	800034ac	c52dde37	lui	x28,0xc52dd	 x28=0xc52dd000
       53835000	      5382	800034b0	e9c8f613	andi	x12,x17,-356	 x17:0x00000000 x12=0x00000000
       53845000	      5383	800034b4	007b0693	addi	x13,x22,7	 x22:0xa3e91400 x13=0xa3e91407
       53855000	      5384	800034b8	18dcce93	xori	x29,x25,397	 x25:0xffffff6b x29=0xfffffee6
       53865000	      5385	800034bc	00721e93	slli	x29,x4,0x7	  x4:0x92f1d000 x29=0x78e80000
       53875000	      5386	800034c0	01146cb3	or	x25,x8,x17	  x8:0x00000000 x17:0x00000000 x25=0x00000000
       53885000	      5387	800034c4	01f15e33	srl	x28,x2,x31	  x2:0xb7aee122 x31:0x80009fc4 x28=0x0b7aee12
       53895000	      5388	800034c8	00f49eb3	sll	x29,x9,x15	  x9:0x00000800 x15:0x00000001 x29=0x00001000
       53905000	      5389	800034cc	7ef9c093	xori	x1,x19,2031	 x19:0x00000000  x1=0x000007ef
       53915000	      5390	800034d0	002dd093	srli	x1,x27,0x2	 x27:0x00000000  x1=0x00000000
       53925000	      5391	800034d4	044c0263	beq	x24,x4,80003518	 x24:0x92f1d648  x4:0x92f1d000
       53935000	      5392	800034d8	98434b93	xori	x23,x6,-1660	  x6:0x00007475 x23=0xffff8df1
       53945000	      5393	800034dc	0379ca63	blt	x19,x23,80003510	 x19:0x00000000 x23:0xffff8df1
       53955000	      5394	800034e0	271d0893	addi	x17,x26,625	 x26:0x00000001 x17=0x00000272
       53965000	      5395	800034e4	41305a33	sra	x20,x0,x19	  x0:0x00000000 x19:0x00000000 x20=0x00000000
       53975000	      5396	800034e8	413188b3	sub	x17,x3,x19	  x3:0xd4d64b4c x19:0x00000000 x17=0xd4d64b4c
       53985000	      5397	800034ec	045d1463	bne	x26,x5,80003534	 x26:0x00000001  x5:0x88000000
       53995000	      5398	00000000	00000013	addi	x0,x0,0	  x0:0x00000000
       54005000	      5399	80003530	00000013	addi	x0,x0,0	  x0:0x00000000
       54015000	      5400	80003534	00511463	bne	x2,x5,8000353c	  x2:0xb7aee122  x5:0x88000000
       54025000	      5401	00000000	00000013	addi	x0,x0,0	  x0:0x00000000
       54035000	      5402	80003538	00000013	addi	x0,x0,0	  x0:0x00000000
       54045000	      5403	8000353c	006fdc93	srli	x25,x31,0x6	 x31:0x80009fc4 x25=0x0200027f
       54055000	      5404	80003540	0224e863	bltu	x9,x2,80003570	  x9:0x00000800  x2:0xb7aee122
       54065000	      5405	00000000	00000013	addi	x0,x0,0	  x0:0x00000000
       54075000	      5406	8000356c	00000013	addi	x0,x0,0	  x0:0x00000000
       54085000	      5407	80003570	02eb1663	bne	x22,x14,8000359c	 x22:0xa3e91400 x14:0x00000000
       54095000	      5408	00000000	00000013	addi	x0,x0,0	  x0:0x00000000
       54105000	      5409	80003598	00000013	addi	x0,x0,0	  x0:0x00000000
       54115000	      5410	8000359c	0142d093	srli	x1,x5,0x14	  x5:0x88000000  x1=0x00000880
       54125000	      5411	800035a0	970de617	auipc	x12,0x970de	 x12=0x170e159c
       54135000	      5412	800035a4	41c75813	srai	x16,x14,0x1c	 x14:0x00000000 x16=0x00000000
       54145000	      5413	800035a8	00f81a63	bne	x16,x15,800035bc	 x16:0x00000000 x15:0x00000001
       54155000	      5414	00000000	00000013	addi	x0,x0,0	  x0:0x00000000
       54165000	      5415	800035b8	00000013	addi	x0,x0,0	  x0:0x00000000
       54175000	      5416	800035bc	4178dc13	srai	x24,x17,0x17	 x17:0xd4d64b4c x24=0xffffffa9
       54185000	      5417	800035c0	015f76b3	and	x13,x30,x21	 x30:0xe8adb3e8 x21:0x80009ee4 x13=0x800092e0
       54195000	      5418	800035c4	001405b3	add	x11,x8,x1	  x8:0x00000000  x1:0x00000880 x11=0x00000880
       54205000	      5419	800035c8	01213033	sltu	x0,x2,x18	  x2:0xb7aee122 x18:0x00000000
       54215000	      5420	800035cc	40ed09b3	sub	x19,x26,x14	 x26:0x00000001 x14:0x00000000 x19=0x00000001
       54225000	      5421	800035d0	02f7f063	bgeu	x15,x15,800035f0	 x15:0x00000001 x15:0x00000001
       54235000	      5422	00000000	00000013	addi	x0,x0,0	  x0:0x00000000
       54245000	      5423	800035ec	00000013	addi	x0,x0,0	  x0:0x00000000
       54255000	      5424	800035f0	01a89613	slli	x12,x17,0x1a	 x17:0xd4d64b4c x12=0x30000000
       54265000	      5425	800035f4	05d51463	bne	x10,x29,8000363c	 x10:0x00000000 x29:0x00001000
       54275000	      5426	00000000	00000013	addi	x0,x0,0	  x0:0x00000000
       54285000	      5427	80003638	00000013	addi	x0,x0,0	  x0:0x00000000
       54295000	      5428	8000363c	017b9cb3	sll	x25,x23,x23	 x23:0xffff8df1 x23:0xffff8df1 x25=0x1be20000
       54305000	      5429	80003640	005cc333	xor	x6,x25,x5	 x25:0x1be20000  x5:0x88000000  x6=0x93e20000
       54315000	      5430	80003644	0037c5b3	xor	x11,x15,x3	 x15:0x00000001  x3:0xd4d64b4c x11=0xd4d64b4d
       54325000	      5431	80003648	0e1b60b7	lui	x1,0xe1b6	  x1=0x0e1b6000
       54335000	      5432	8000364c	00c55a13	srli	x20,x10,0xc	 x10:0x00000000 x20=0x00000000
       54345000	      5433	80003650	418153b3	sra	x7,x2,x24	  x2:0xb7aee122 x24:0xffffffa9  x7=0xffdbd770
       54355000	      5434	80003654	016ce4b3	or	x9,x25,x22	 x25:0x1be20000 x22:0xa3e91400  x9=0xbbeb1400
       54365000	      5435	80003658	053d9063	bne	x27,x19,80003698	 x27:0x00000000 x19:0x00000001
       54375000	      5436	00000000	00000013	addi	x0,x0,0	  x0:0x00000000
       54385000	      5437	80003694	00000013	addi	x0,x0,0	  x0:0x00000000
       54395000	      5438	80003698	00fb9cb3	sll	x25,x23,x15	 x23:0xffff8df1 x15:0x00000001 x25=0xffff1be2
       54405000	      5439	8000369c	0352ca63	blt	x5,x21,800036d0	  x5:0x88000000 x21:0x80009ee4
       54415000	      5440	800036a0	02ca4863	blt	x20,x12,800036d0	 x20:0x00000000 x12:0x30000000
       54425000	      5441	00000000	00000013	addi	x0,x0,0	  x0:0x00000000
       54435000	      5442	800036cc	00000013	addi	x0,x0,0	  x0:0x00000000
       54445000	      5443	800036d0	014d9913	slli	x18,x27,0x14	 x27:0x00000000 x18=0x00000000
       54455000	      5444	800036d4	002999b3	sll	x19,x19,x2	 x19:0x00000001  x2:0xb7aee122 x19=0x00000004
       54465000	      5445	800036d8	41425713	srai	x14,x4,0x14	  x4:0x92f1d000 x14=0xfffff92f
       54475000	      5446	800036dc	018106b3	add	x13,x2,x24	  x2:0xb7aee122 x24:0xffffffa9 x13=0xb7aee0cb
       54485000	      5447	800036e0	00075d13	srli	x26,x14,0x0	 x14:0xfffff92f x26=0xfffff92f
       54495000	      5448	800036e4	4067dcb3	sra	x25,x15,x6	 x15:0x00000001  x6:0x93e20000 x25=0x00000001
       54505000	      5449	800036e8	402c02b3	sub	x5,x24,x2	 x24:0xffffffa9  x2:0xb7aee122  x5=0x48511e87
       54515000	      5450	800036ec	417258b3	sra	x17,x4,x23	  x4:0x92f1d000 x23:0xffff8df1 x17=0xffffc978
       54525000	      5451	800036f0	02680063	beq	x16,x6,80003710	 x16:0x00000000  x6:0x93e20000
       54535000	      5452	800036f4	016e7433	and	x8,x28,x22	 x28:0x0b7aee12 x22:0xa3e91400  x8=0x03680400
       54545000	      5453	800036f8	0020d4b3	srl	x9,x1,x2	  x1:0x0e1b6000  x2:0xb7aee122  x9=0x0386d800
       54555000	      5454	800036fc	01d3f2b3	and	x5,x7,x29	  x7:0xffdbd770 x29:0x00001000  x5=0x00001000
       54565000	      5455	80003700	b9a43093	sltiu	x1,x8,-1126	  x8:0x03680400  x1=0x00000001
       54575000	      5456	80003704	8990b8b7	lui	x17,0x8990b	 x17=0x8990b000
       54585000	      5457	80003708	1f0cc413	xori	x8,x25,496	 x25:0x00000001  x8=0x000001f1
       54595000	      5458	8000370c	b2a60893	addi	x17,x12,-1238	 x12:0x30000000 x17=0x2ffffb2a
       54605000	      5459	80003710	098a3693	sltiu	x13,x20,152	 x20:0x00000000 x13=0x00000001
       54615000	      5460	80003714	89337313	andi	x6,x6,-1901	  x6:0x93e20000  x6=0x93e20000
       54625000	      5461	80003718	eb08e393	ori	x7,x17,-336	 x17:0x2ffffb2a  x7=0xffffffba
       54635000	      5462	8000371c	009b9e13	slli	x28,x23,0x9	 x23:0xffff8df1 x28=0xff1be200
       54645000	      5463	80003720	c5e08797	auipc	x15,0xc5e08	 x15=0x45e0b71c
       54655000	      5464	80003724	8ace7b93	andi	x23,x28,-1876	 x28:0xff1be200 x23=0xff1be000
       54665000	      5465	80003728	00e04333	xor	x6,x0,x14	  x0:0x00000000 x14:0xfffff92f  x6=0xfffff92f
       54675000	      5466	8000372c	0104f2b3	and	x5,x9,x16	  x9:0x0386d800 x16:0x00000000  x5=0x00000000
       54685000	      5467	80003730	31cb3493	sltiu	x9,x22,796	 x22:0xa3e91400  x9=0x00000000
       54695000	      5468	80003734	01f18463	beq	x3,x31,8000373c	  x3:0xd4d64b4c x31:0x80009fc4
       54705000	      5469	80003738	ede3b337	lui	x6,0xede3b	  x6=0xede3b000
       54715000	      5470	8000373c	411c0bb3	sub	x23,x24,x17	 x24:0xffffffa9 x17:0x2ffffb2a x23=0xd000047f
       54725000	      5471	80003740	d628f593	andi	x11,x17,-670	 x17:0x2ffffb2a x11=0x2ffff922
       54735000	      5472	80003744	85acbc97	auipc	x25,0x85acb	 x25=0x05ace740
       54745000	      5473	80003748	016f9a63	bne	x31,x22,8000375c	 x31:0x80009fc4 x22:0xa3e91400
       54755000	      5474	00000000	00000013	addi	x0,x0,0	  x0:0x00000000
       54765000	      5475	80003758	00000013	addi	x0,x0,0	  x0:0x00000000
       54775000	      5476	8000375c	01e80833	add	x16,x16,x30	 x16:0x00000000 x30:0xe8adb3e8 x16=0xe8adb3e8
       54785000	      5477	80003760	01716233	or	x4,x2,x23	  x2:0xb7aee122 x23:0xd000047f  x4=0xf7aee57f
       54795000	      5478	80003764	00000013	addi	x0,x0,0	  x0:0x00000000
       54805000	      5479	80003768	008a0f33	add	x30,x20,x8	 x20:0x00000000  x8:0x000001f1 x30=0x000001f1
       54815000	      5480	8000376c	729bc513	xori	x10,x23,1833	 x23:0xd000047f x10=0xd0000356
       54825000	      5481	80003770	e6451837	lui	x16,0xe6451	 x16=0xe6451000
       54835000	      5482	80003774	016aac33	slt	x24,x21,x22	 x21:0x80009ee4 x22:0xa3e91400 x24=0x00000001
       54845000	      5483	80003778	8861e293	ori	x5,x3,-1914	  x3:0xd4d64b4c  x5=0xfffffbce
       54855000	      5484	8000377c	416f55b3	sra	x11,x30,x22	 x30:0x000001f1 x22:0xa3e91400 x11=0x000001f1
       54865000	      5485	80003780	00579293	slli	x5,x15,0x5	 x15:0x45e0b71c  x5=0xbc16e380
       54875000	      5486	80003784	40635193	srai	x3,x6,0x6	  x6:0xede3b000  x3=0xffb78ec0
       54885000	      5487	80003788	02105463	bge	x0,x1,800037b0	  x0:0x00000000  x1:0x00000001
       54895000	      5488	8000378c	00f45db3	srl	x27,x8,x15	  x8:0x000001f1 x15:0x45e0b71c x27=0x00000000
       54905000	      5489	80003790	416ed913	srai	x18,x29,0x16	 x29:0x00001000 x18=0x00000000
       54915000	      5490	80003794	406783b3	sub	x7,x15,x6	 x15:0x45e0b71c  x6:0xede3b000  x7=0x57fd071c
       54925000	      5491	80003798	019854b3	srl	x9,x16,x25	 x16:0xe6451000 x25:0x05ace740  x9=0xe6451000
       54935000	      5492	8000379c	05178663	beq	x15,x17,800037e8	 x15:0x45e0b71c x17:0x2ffffb2a
       54945000	      5493	800037a0	00d9c6b3	xor	x13,x19,x13	 x19:0x00000004 x13:0x00000001 x13=0x00000005
       54955000	      5494	800037a4	05d4d263	bge	x9,x29,800037e8	  x9:0xe6451000 x29:0x00001000
       54965000	      5495	800037a8	05d96463	bltu	x18,x29,800037f0	 x18:0x00000000 x29:0x00001000
       54975000	      5496	00000000	00000013	addi	x0,x0,0	  x0:0x00000000
       54985000	      5497	800037ec	00000013	addi	x0,x0,0	  x0:0x00000000
       54995000	      5498	800037f0	008e9c63	bne	x29,x8,80003808	 x29:0x00001000  x8:0x000001f1
       55005000	      5499	00000000	00000013	addi	x0,x0,0	  x0:0x00000000
       55015000	      5500	80003804	00000013	addi	x0,x0,0	  x0:0x00000000
       55025000	      5501	80003808	41ecd533	sra	x10,x25,x30	 x25:0x05ace740 x30:0x000001f1 x10=0x000002d6
       55035000	      5502	8000380c	00e88a63	beq	x17,x14,80003820	 x17:0x2ffffb2a x14:0xfffff92f
       55045000	      5503	80003810	413b0cb3	sub	x25,x22,x19	 x22:0xa3e91400 x19:0x00000004 x25=0xa3e913fc
       55055000	      5504	80003814	00c25263	bge	x4,x12,80003818	  x4:0xf7aee57f x12:0x30000000
       55065000	      5505	80003818	4182d833	sra	x16,x5,x24	  x5:0xbc16e380 x24:0x00000001 x16=0xde0b71c0
       55075000	      5506	8000381c	01641f33	sll	x30,x8,x22	  x8:0x000001f1 x22:0xa3e91400 x30=0x000001f1
       55085000	      5507	80003820	40630e33	sub	x28,x6,x6	  x6:0xede3b000  x6:0xede3b000 x28=0x00000000
       55095000	      5508	80003824	001c9db3	sll	x27,x25,x1	 x25:0xa3e913fc  x1:0x00000001 x27=0x47d227f8
       55105000	      5509	80003828	7e982537	lui	x10,0x7e982	 x10=0x7e982000
       55115000	      5510	8000382c	aa5dec37	lui	x24,0xaa5de	 x24=0xaa5de000
       55125000	      5511	80003830	019d78b3	and	x17,x26,x25	 x26:0xfffff92f x25:0xa3e913fc x17=0xa3e9112c
       55135000	      5512	80003834	001eabb3	slt	x23,x29,x1	 x29:0x00001000  x1:0x00000001 x23=0x00000000
       55145000	      5513	80003838	00e83433	sltu	x8,x16,x14	 x16:0xde0b71c0 x14:0xfffff92f  x8=0x00000001
       55155000	      5514	8000383c	41bb5833	sra	x16,x22,x27	 x22:0xa3e91400 x27:0x47d227f8 x16=0xffffffa3
       55165000	      5515	80003840	04a6f063	bgeu	x13,x10,80003880	 x13:0x00000005 x10:0x7e982000
       55175000	      5516	80003844	043fc263	blt	x31,x3,80003888	 x31:0x80009fc4  x3:0xffb78ec0
       55185000	      5517	00000000	00000013	addi	x0,x0,0	  x0:0x00000000
       55195000	      5518	80003884	00000013	addi	x0,x0,0	  x0:0x00000000
       55205000	      5519	80003888	406bda13	srai	x20,x23,0x6	 x23:0x00000000 x20=0x00000000
       55215000	      5520	8000388c	026d6e97	auipc	x29,0x26d6	 x29=0x826d9888
       55225000	      5521	80003890	32712b93	slti	x23,x2,807	  x2:0xb7aee122 x23=0x00000001
       55235000	      5522	80003894	002f46b3	xor	x13,x30,x2	 x30:0x000001f1  x2:0xb7aee122 x13=0xb7aee0d3
       55245000	      5523	80003898	9e2c61b7	lui	x3,0x9e2c6	  x3=0x9e2c6000
       55255000	      5524	8000389c	02546663	bltu	x8,x5,800038c8	  x8:0x00000001  x5:0xbc16e380
       55265000	      5525	00000000	00000013	addi	x0,x0,0	  x0:0x00000000
       55275000	      5526	800038c4	00000013	addi	x0,x0,0	  x0:0x00000000
       55285000	      5527	800038c8	445b4093	xori	x1,x22,1093	 x22:0xa3e91400  x1=0xa3e91045
       55295000	      5528	800038cc	019b9863	bne	x23,x25,800038dc	 x23:0x00000001 x25:0xa3e913fc
       55305000	      5529	00000000	00000013	addi	x0,x0,0	  x0:0x00000000
       55315000	      5530	800038d8	00000013	addi	x0,x0,0	  x0:0x00000000
       55325000	      5531	800038dc	aeb5cc93	xori	x25,x11,-1301	 x11:0x000001f1 x25=0xfffffb1a
       55335000	      5532	800038e0	00000013	addi	x0,x0,0	  x0:0x00000000
       55345000	      5533	800038e4	712c8b13	addi	x22,x25,1810	 x25:0xfffffb1a x22=0x0000022c
       55355000	      5534	800038e8	019d7db3	and	x27,x26,x25	 x26:0xfffff92f x25:0xfffffb1a x27=0xfffff90a
       55365000	      5535	800038ec	007a66b3	or	x13,x20,x7	 x20:0x00000000  x7:0x57fd071c x13=0x57fd071c
       55375000	      5536	800038f0	e60c4217	auipc	x4,0xe60c4	  x4=0x660c78ec
       55385000	      5537	800038f4	04877263	bgeu	x14,x8,80003938	 x14:0xfffff92f  x8:0x00000001
       55395000	      5538	00000000	00000013	addi	x0,x0,0	  x0:0x00000000
       55405000	      5539	80003934	00000013	addi	x0,x0,0	  x0:0x00000000
       55415000	      5540	80003938	01247663	bgeu	x8,x18,80003944	  x8:0x00000001 x18:0x00000000
       55425000	      5541	00000000	00000013	addi	x0,x0,0	  x0:0x00000000
       55435000	      5542	80003940	00000013	addi	x0,x0,0	  x0:0x00000000
       55445000	      5543	80003944	01f99313	slli	x6,x19,0x1f	 x19:0x00000004  x6=0x00000000
       55455000	      5544	80003948	040df463	bgeu	x27,x0,80003990	 x27:0xfffff90a  x0:0x00000000
       55465000	      5545	00000000	00000013	addi	x0,x0,0	  x0:0x00000000
       55475000	      5546	8000398c	00000013	addi	x0,x0,0	  x0:0x00000000
       55485000	      5547	80003990	37d0c913	xori	x18,x1,893	  x1:0xa3e91045 x18=0xa3e91338
       55495000	      5548	80003994	00ad7db3	and	x27,x26,x10	 x26:0xfffff92f x10:0x7e982000 x27=0x7e982000
       55505000	      5549	80003998	1b99d797	auipc	x15,0x1b99d	 x15=0x9b9a0994
       55515000	      5550	8000399c	00cb4f33	xor	x30,x22,x12	 x22:0x0000022c x12:0x30000000 x30=0x3000022c
       55525000	      5551	800039a0	0ff46c63	bltu	x8,x31,80003a98	  x8:0x00000001 x31:0x80009fc4
       55535000	      5552	00000000	00000013	addi	x0,x0,0	  x0:0x00000000
       55545000	      5553	80003a94	00000013	addi	x0,x0,0	  x0:0x00000000
       55555000	      5554	80003a98	019f5893	srli	x17,x30,0x19	 x30:0x3000022c x17=0x00000018
       55565000	      5555	80003a9c	6d37ee93	ori	x29,x15,1747	 x15:0x9b9a0994 x29=0x9b9a0fd7
       55575000	      5556	80003aa0	00000013	addi	x0,x0,0	  x0:0x00000000
       55585000	      5557	80003aa4	00733f33	sltu	x30,x6,x7	  x6:0x00000000  x7:0x57fd071c x30=0x00000001
       55595000	      5558	80003aa8	b023ad13	slti	x26,x7,-1278	  x7:0x57fd071c x26=0x00000000
       55605000	      5559	80003aac	039c6c63	bltu	x24,x25,80003ae4	 x24:0xaa5de000 x25:0xfffffb1a
       55615000	      5560	00000000	00000013	addi	x0,x0,0	  x0:0x00000000
       55625000	      5561	80003ae0	00000013	addi	x0,x0,0	  x0:0x00000000
       55635000	      5562	80003ae4	fcb1e193	ori	x3,x3,-53	  x3:0x9e2c6000  x3=0xffffffcb
       55645000	      5563	80003ae8	bd3e6717	auipc	x14,0xbd3e6	 x14=0x3d3e9ae4
       55655000	      5564	80003aec	32c32813	slti	x16,x6,812	  x6:0x00000000 x16=0x00000001
       55665000	      5565	80003af0	03127063	bgeu	x4,x17,80003b10	  x4:0x660c78ec x17:0x00000018
       55675000	      5566	00000000	00000013	addi	x0,x0,0	  x0:0x00000000
       55685000	      5567	80003b0c	00000013	addi	x0,x0,0	  x0:0x00000000
       55695000	      5568	80003b10	004468b3	or	x17,x8,x4	  x8:0x00000001  x4:0x660c78ec x17=0x660c78ed
       55705000	      5569	80003b14	00cd2033	slt	x0,x26,x12	 x26:0x00000000 x12:0x30000000
       55715000	      5570	80003b18	01819813	slli	x16,x3,0x18	  x3:0xffffffcb x16=0xcb000000
       55725000	      5571	80003b1c	4ab3a393	slti	x7,x7,1195	  x7:0x57fd071c  x7=0x00000000
       55735000	      5572	80003b20	015e6233	or	x4,x28,x21	 x28:0x00000000 x21:0x80009ee4  x4=0x80009ee4
       55745000	      5573	80003b24	01b9dc13	srli	x24,x19,0x1b	 x19:0x00000004 x24=0x00000000
       55755000	      5574	80003b28	1ff80893	addi	x17,x16,511	 x16:0xcb000000 x17=0xcb0001ff
       55765000	      5575	80003b2c	00c09893	slli	x17,x1,0xc	  x1:0xa3e91045 x17=0x91045000
       55775000	      5576	80003b30	0148e263	bltu	x17,x20,80003b34	 x17:0x91045000 x20:0x00000000
       55785000	      5577	80003b34	0032d913	srli	x18,x5,0x3	  x5:0xbc16e380 x18=0x1782dc70
       55795000	      5578	80003b38	0236e463	bltu	x13,x3,80003b60	 x13:0x57fd071c  x3:0xffffffcb
       55805000	      5579	00000000	00000013	addi	x0,x0,0	  x0:0x00000000
       55815000	      5580	80003b5c	00000013	addi	x0,x0,0	  x0:0x00000000
       55825000	      5581	80003b60	df272417	auipc	x8,0xdf272	  x8=0x5f275b5c
       55835000	      5582	80003b64	416754b3	sra	x9,x14,x22	 x14:0x3d3e9ae4 x22:0x0000022c  x9=0x0003d3e9
       55845000	      5583	80003b68	411e50b3	sra	x1,x28,x17	 x28:0x00000000 x17:0x91045000  x1=0x00000000
       55855000	      5584	80003b6c	012bc333	xor	x6,x23,x18	 x23:0x00000001 x18:0x1782dc70  x6=0x1782dc71
       55865000	      5585	80003b70	f66acd93	xori	x27,x21,-154	 x21:0x80009ee4 x27=0x7fff6182
       55875000	      5586	80003b74	0be87993	andi	x19,x16,190	 x16:0xcb000000 x19=0x00000000
       55885000	      5587	80003b78	00000013	addi	x0,x0,0	  x0:0x00000000
       55895000	      5588	80003b7c	d58f9937	lui	x18,0xd58f9	 x18=0xd58f9000
       55905000	      5589	80003b80	80503713	sltiu	x14,x0,-2043	  x0:0x00000000 x14=0x00000001
       55915000	      5590	80003b84	022f7463	bgeu	x30,x2,80003bac	 x30:0x00000001  x2:0xb7aee122
       55925000	      5591	80003b88	01585193	srli	x3,x16,0x15	 x16:0xcb000000  x3=0x00000658
       55935000	      5592	80003b8c	0542d463	bge	x5,x20,80003bd4	  x5:0xbc16e380 x20:0x00000000
       55945000	      5593	80003b90	02fbf063	bgeu	x23,x15,80003bb0	 x23:0x00000001 x15:0x9b9a0994
       55955000	      5594	80003b94	dda96413	ori	x8,x18,-550	 x18:0xd58f9000  x8=0xfffffdda
       55965000	      5595	80003b98	00a54233	xor	x4,x10,x10	 x10:0x7e982000 x10:0x7e982000  x4=0x00000000
       55975000	      5596	80003b9c	fb097b93	andi	x23,x18,-80	 x18:0xd58f9000 x23=0xd58f9000
       55985000	      5597	80003ba0	00c2d733	srl	x14,x5,x12	  x5:0xbc16e380 x12:0x30000000 x14=0xbc16e380
       55995000	      5598	80003ba4	05e60863	beq	x12,x30,80003bf4	 x12:0x30000000 x30:0x00000001
       56005000	      5599	80003ba8	00941263	bne	x8,x9,80003bac	  x8:0xfffffdda  x9:0x0003d3e9
       56015000	      5600	00000000	00000013	addi	x0,x0,0	  x0:0x00000000
       56025000	      5601	80003ba8	00000013	addi	x0,x0,0	  x0:0x00000000
       56035000	      5602	80003bac	89564b93	xori	x23,x12,-1899	 x12:0x30000000 x23=0xcffff895
       56045000	      5603	80003bb0	003b8b33	add	x22,x23,x3	 x23:0xcffff895  x3:0x00000658 x22=0xcffffeed
       56055000	      5604	80003bb4	045e5463	bge	x28,x5,80003bfc	 x28:0x00000000  x5:0xbc16e380
       56065000	      5605	00000000	00000013	addi	x0,x0,0	  x0:0x00000000
       56075000	      5606	80003bf8	00000013	addi	x0,x0,0	  x0:0x00000000
       56085000	      5607	80003bfc	134c8213	addi	x4,x25,308	 x25:0xfffffb1a  x4=0xfffffc4e
       56095000	      5608	80003c00	01bb0233	add	x4,x22,x27	 x22:0xcffffeed x27:0x7fff6182  x4=0x4fff606f
       56105000	      5609	80003c04	6765e993	ori	x19,x11,1654	 x11:0x000001f1 x19=0x000007f7
       56115000	      5610	80003c08	09fb2837	lui	x16,0x9fb2	 x16=0x09fb2000
       56125000	      5611	80003c0c	00d219b3	sll	x19,x4,x13	  x4:0x4fff606f x13:0x57fd071c x19=0xf0000000
       56135000	      5612	80003c10	00039833	sll	x16,x7,x0	  x7:0x00000000  x0:0x00000000 x16=0x00000000
       56145000	      5613	80003c14	01e7b1b3	sltu	x3,x15,x30	 x15:0x9b9a0994 x30:0x00000001  x3=0x00000000
       56155000	      5614	80003c18	ff41cb93	xori	x23,x3,-12	  x3:0x00000000 x23=0xfffffff4
       56165000	      5615	80003c1c	01a1e863	bltu	x3,x26,80003c2c	  x3:0x00000000 x26:0x00000000
       56175000	      5616	80003c20	5f5e2893	slti	x17,x28,1525	 x28:0x00000000 x17=0x00000001
       56185000	      5617	80003c24	0029a6b3	slt	x13,x19,x2	 x19:0xf0000000  x2:0xb7aee122 x13=0x00000000
       56195000	      5618	80003c28	41415033	sra	x0,x2,x20	  x2:0xb7aee122 x20:0x00000000
       56205000	      5619	80003c2c	002da2b3	slt	x5,x27,x2	 x27:0x7fff6182  x2:0xb7aee122  x5=0x00000000
       56215000	      5620	80003c30	00409c13	slli	x24,x1,0x4	  x1:0x00000000 x24=0x00000000
       56225000	      5621	80003c34	4189dd33	sra	x26,x19,x24	 x19:0xf0000000 x24:0x00000000 x26=0xf0000000
       56235000	      5622	80003c38	004aa083	lw	x1,4(x21)	 x21:0x80009ee4  x1=0x80002e08 PA:0x80009ee8
       56245000	      5623	80003c3c	00586433	or	x8,x16,x5	 x16:0x00000000  x5:0x00000000  x8=0x00000000
       56255000	      5624	80003c40	01c471b3	and	x3,x8,x28	  x8:0x00000000 x28:0x00000000  x3=0x00000000
       56265000	      5625	80003c44	01a8d313	srli	x6,x17,0x1a	 x17:0x00000001  x6=0x00000000
       56275000	      5626	80003c48	02ca8a93	addi	x21,x21,44	 x21:0x80009ee4 x21=0x80009f10
       56285000	      5627	80003c4c	40578833	sub	x16,x15,x5	 x15:0x9b9a0994  x5:0x00000000 x16=0x9b9a0994
       56295000	      5628	80003c50	00000013	addi	x0,x0,0	  x0:0x00000000
       56305000	      5629	80003c54	007c5e13	srli	x28,x24,0x7	 x24:0x00000000 x28=0x00000000
       56315000	      5630	80003c58	01e59c13	slli	x24,x11,0x1e	 x11:0x000001f1 x24=0x40000000
       56325000	      5631	80003c5c	d2f289b7	lui	x19,0xd2f28	 x19=0xd2f28000
       56335000	      5632	80003c60	00108c93	addi	x25,x1,1	  x1:0x80002e08 x25=0x80002e09
       56345000	      5633	80003c64	000c8ce7	jalr	x25,x25,0	 x25:0x80002e09 x25=0x80003c64
       56355000	      5634	00000000	00000013	addi	x0,x0,0	  x0:0x00000000
       56365000	      5635	80002e08	00000013	addi	x0,x0,0	  x0:0x00000000
       56375000	      5636	80002e0c	01c1e033	or	x0,x3,x28	  x3:0x00000000 x28:0x00000000
       56385000	      5637	80002e10	419dda13	srai	x20,x27,0x19	 x27:0x7fff6182 x20=0x0000003f
       56395000	      5638	80002e14	00000013	addi	x0,x0,0	  x0:0x00000000
       56405000	      5639	80002e18	41ccd5b3	sra	x11,x25,x28	 x25:0x80003c64 x28:0x00000000 x11=0x80003c64
       56415000	      5640	80002e1c	195ef593	andi	x11,x29,405	 x29:0x9b9a0fd7 x11=0x00000195
       56425000	      5641	80002e20	0094d863	bge	x9,x9,80002e30	  x9:0x0003d3e9  x9:0x0003d3e9
       56435000	      5642	00000000	00000013	addi	x0,x0,0	  x0:0x00000000
       56445000	      5643	80002e2c	00000013	addi	x0,x0,0	  x0:0x00000000
       56455000	      5644	80002e30	00037c63	bgeu	x6,x0,80002e48	  x6:0x00000000  x0:0x00000000
       56465000	      5645	00000000	00000013	addi	x0,x0,0	  x0:0x00000000
       56475000	      5646	80002e44	00000013	addi	x0,x0,0	  x0:0x00000000
       56485000	      5647	80002e48	83788593	addi	x11,x17,-1993	 x17:0x00000001 x11=0xfffff838
       56495000	      5648	80002e4c	00cd51b3	srl	x3,x26,x12	 x26:0xf0000000 x12:0x30000000  x3=0xf0000000
       56505000	      5649	80002e50	004aa083	lw	x1,4(x21)	 x21:0x80009f10  x1=0x800069f0 PA:0x80009f14
       56515000	      5650	80002e54	01559233	sll	x4,x11,x21	 x11:0xfffff838 x21:0x80009f10  x4=0xf8380000
       56525000	      5651	80002e58	01c1feb3	and	x29,x3,x28	  x3:0xf0000000 x28:0x00000000 x29=0x00000000
       56535000	      5652	80002e5c	010a8a93	addi	x21,x21,16	 x21:0x80009f10 x21=0x80009f20
       56545000	      5653	80002e60	24da7913	andi	x18,x20,589	 x20:0x0000003f x18=0x0000000d
       56555000	      5654	80002e64	4094d513	srai	x10,x9,0x9	  x9:0x0003d3e9 x10=0x000001e9
       56565000	      5655	80002e68	7e95b613	sltiu	x12,x11,2025	 x11:0xfffff838 x12=0x00000000
       56575000	      5656	80002e6c	00008293	addi	x5,x1,0	  x1:0x800069f0  x5=0x800069f0
       56585000	      5657	80002e70	000282e7	jalr	x5,x5,0	  x5:0x800069f0  x5=0x80002e70
       56595000	      5658	00000000	00000013	addi	x0,x0,0	  x0:0x00000000
       56605000	      5659	800069f0	00000013	addi	x0,x0,0	  x0:0x00000000
       56615000	      5660	800069f4	41368b33	sub	x22,x13,x19	 x13:0x00000000 x19:0xd2f28000 x22=0x2d0d8000
       56625000	      5661	800069f8	010f5693	srli	x13,x30,0x10	 x30:0x00000001 x13=0x00000000
       56635000	      5662	800069fc	410b5d33	sra	x26,x22,x16	 x22:0x2d0d8000 x16:0x9b9a0994 x26=0x000002d0
       56645000	      5663	80006a00	2d91f413	andi	x8,x3,729	  x3:0xf0000000  x8=0x00000000
       56655000	      5664	80006a04	8867c493	xori	x9,x15,-1914	 x15:0x9b9a0994  x9=0x6465f112
       56665000	      5665	80006a08	007a5713	srli	x14,x20,0x7	 x20:0x0000003f x14=0x00000000
       56675000	      5666	80006a0c	05cbf063	bgeu	x23,x28,80006a4c	 x23:0xfffffff4 x28:0x00000000
       56685000	      5667	00000000	00000013	addi	x0,x0,0	  x0:0x00000000
       56695000	      5668	80006a48	00000013	addi	x0,x0,0	  x0:0x00000000
       56705000	      5669	80006a4c	001ae033	or	x0,x21,x1	 x21:0x80009f20  x1:0x800069f0
       56715000	      5670	80006a50	017100b3	add	x1,x2,x23	  x2:0xb7aee122 x23:0xfffffff4  x1=0xb7aee116
       56725000	      5671	80006a54	02d81c63	bne	x16,x13,80006a8c	 x16:0x9b9a0994 x13:0x00000000
       56735000	      5672	00000000	00000013	addi	x0,x0,0	  x0:0x00000000
       56745000	      5673	80006a88	00000013	addi	x0,x0,0	  x0:0x00000000
       56755000	      5674	80006a8c	03bb9463	bne	x23,x27,80006ab4	 x23:0xfffffff4 x27:0x7fff6182
       56765000	      5675	00000000	00000013	addi	x0,x0,0	  x0:0x00000000
       56775000	      5676	80006ab0	00000013	addi	x0,x0,0	  x0:0x00000000
       56785000	      5677	80006ab4	00cc5633	srl	x12,x24,x12	 x24:0x40000000 x12:0x00000000 x12=0x40000000
       56795000	      5678	80006ab8	00701a63	bne	x0,x7,80006acc	  x0:0x00000000  x7:0x00000000
       56805000	      5679	80006abc	408552b3	sra	x5,x10,x8	 x10:0x000001e9  x8:0x00000000  x5=0x000001e9
       56815000	      5680	80006ac0	01fbdc93	srli	x25,x23,0x1f	 x23:0xfffffff4 x25=0x00000001
       56825000	      5681	80006ac4	011228b3	slt	x17,x4,x17	  x4:0xf8380000 x17:0x00000001 x17=0x00000001
       56835000	      5682	80006ac8	b8296613	ori	x12,x18,-1150	 x18:0x0000000d x12=0xfffffb8f
       56845000	      5683	80006acc	00a5f3b3	and	x7,x11,x10	 x11:0xfffff838 x10:0x000001e9  x7=0x00000028
       56855000	      5684	80006ad0	01b7c4b3	xor	x9,x15,x27	 x15:0x9b9a0994 x27:0x7fff6182  x9=0xe4656816
       56865000	      5685	80006ad4	00879593	slli	x11,x15,0x8	 x15:0x9b9a0994 x11=0x9a099400
       56875000	      5686	80006ad8	01f55c93	srli	x25,x10,0x1f	 x10:0x000001e9 x25=0x00000000
       56885000	      5687	80006adc	e04c1d17	auipc	x26,0xe04c1	 x26=0x604c7ad8
       56895000	      5688	80006ae0	00dd36b3	sltu	x13,x26,x13	 x26:0x604c7ad8 x13:0x00000000 x13=0x00000000
       56905000	      5689	80006ae4	00d54f33	xor	x30,x10,x13	 x10:0x000001e9 x13:0x00000000 x30=0x000001e9
       56915000	      5690	80006ae8	02295263	bge	x18,x2,80006b0c	 x18:0x0000000d  x2:0xb7aee122
       56925000	      5691	00000000	00000013	addi	x0,x0,0	  x0:0x00000000
       56935000	      5692	80006b08	00000013	addi	x0,x0,0	  x0:0x00000000
       56945000	      5693	80006b0c	00312633	slt	x12,x2,x3	  x2:0xb7aee122  x3:0xf0000000 x12=0x00000001
       56955000	      5694	80006b10	0059b633	sltu	x12,x19,x5	 x19:0xd2f28000  x5:0x000001e9 x12=0x00000000
       56965000	      5695	80006b14	00000013	addi	x0,x0,0	  x0:0x00000000
       56975000	      5696	80006b18	00000013	addi	x0,x0,0	  x0:0x00000000
       56985000	      5697	80006b1c	40eb0e33	sub	x28,x22,x14	 x22:0x2d0d8000 x14:0x00000000 x28=0x2d0d8000
       56995000	      5698	80006b20	0193d713	srli	x14,x7,0x19	  x7:0x00000028 x14=0x00000000
       57005000	      5699	80006b24	0157c233	xor	x4,x15,x21	 x15:0x9b9a0994 x21:0x80009f20  x4=0x1b9a96b4
       57015000	      5700	80006b28	1d28f693	andi	x13,x17,466	 x17:0x00000001 x13=0x00000000
       57025000	      5701	80006b2c	015ef533	and	x10,x29,x21	 x29:0x00000000 x21:0x80009f20 x10=0x00000000
       57035000	      5702	80006b30	00000013	addi	x0,x0,0	  x0:0x00000000
       57045000	      5703	80006b34	04774663	blt	x14,x7,80006b80	 x14:0x00000000  x7:0x00000028
       57055000	      5704	00000000	00000013	addi	x0,x0,0	  x0:0x00000000
       57065000	      5705	80006b7c	00000013	addi	x0,x0,0	  x0:0x00000000
       57075000	      5706	80006b80	01775b33	srl	x22,x14,x23	 x14:0x00000000 x23:0xfffffff4 x22=0x00000000
       57085000	      5707	80006b84	40588f33	sub	x30,x17,x5	 x17:0x00000001  x5:0x000001e9 x30=0xfffffe18
       57095000	      5708	80006b88	01f2de33	srl	x28,x5,x31	  x5:0x000001e9 x31:0x80009fc4 x28=0x0000001e
       57105000	      5709	80006b8c	2e410913	addi	x18,x2,740	  x2:0xb7aee122 x18=0xb7aee406
       57115000	      5710	80006b90	009d93b3	sll	x7,x27,x9	 x27:0x7fff6182  x9:0xe4656816  x7=0x60800000
       57125000	      5711	80006b94	40a45393	srai	x7,x8,0xa	  x8:0x00000000  x7=0x00000000
       57135000	      5712	80006b98	012b4e63	blt	x22,x18,80006bb4	 x22:0x00000000 x18:0xb7aee406
       57145000	      5713	80006b9c	02ce4a63	blt	x28,x12,80006bd0	 x28:0x0000001e x12:0x00000000
       57155000	      5714	80006ba0	00f71433	sll	x8,x14,x15	 x14:0x00000000 x15:0x9b9a0994  x8=0x00000000
       57165000	      5715	80006ba4	00778e33	add	x28,x15,x7	 x15:0x9b9a0994  x7:0x00000000 x28=0x9b9a0994
       57175000	      5716	80006ba8	c57c7513	andi	x10,x24,-937	 x24:0x40000000 x10=0x40000000
       57185000	      5717	80006bac	017ec5b3	xor	x11,x29,x23	 x29:0x00000000 x23:0xfffffff4 x11=0xfffffff4
       57195000	      5718	80006bb0	41f05233	sra	x4,x0,x31	  x0:0x00000000 x31:0x80009fc4  x4=0x00000000
       57205000	      5719	80006bb4	00db1e63	bne	x22,x13,80006bd0	 x22:0x00000000 x13:0x00000000
       57215000	      5720	80006bb8	41e30d33	sub	x26,x6,x30	  x6:0x00000000 x30:0xfffffe18 x26=0x000001e8
       57225000	      5721	80006bbc	8c570637	lui	x12,0x8c570	 x12=0x8c570000
       57235000	      5722	80006bc0	4de07593	andi	x11,x0,1246	  x0:0x00000000 x11=0x00000000
       57245000	      5723	80006bc4	015b1663	bne	x22,x21,80006bd0	 x22:0x00000000 x21:0x80009f20
       57255000	      5724	00000000	00000013	addi	x0,x0,0	  x0:0x00000000
       57265000	      5725	80006bcc	00000013	addi	x0,x0,0	  x0:0x00000000
       57275000	      5726	80006bd0	0098d8b3	srl	x17,x17,x9	 x17:0x00000001  x9:0xe4656816 x17=0x00000000
       57285000	      5727	80006bd4	00000013	addi	x0,x0,0	  x0:0x00000000
       57295000	      5728	80006bd8	0044f6b3	and	x13,x9,x4	  x9:0xe4656816  x4:0x00000000 x13=0x00000000
       57305000	      5729	80006bdc	004aa083	lw	x1,4(x21)	 x21:0x80009f20  x1=0x8000550c PA:0x80009f24
       57315000	      5730	80006be0	016be2b3	or	x5,x23,x22	 x23:0xfffffff4 x22:0x00000000  x5=0xfffffff4
       57325000	      5731	80006be4	0081d9b3	srl	x19,x3,x8	  x3:0xf0000000  x8:0x00000000 x19=0xf0000000
       57335000	      5732	80006be8	002e63b3	or	x7,x28,x2	 x28:0x9b9a0994  x2:0xb7aee122  x7=0xbfbee9b6
       57345000	      5733	80006bec	e592cd37	lui	x26,0xe592c	 x26=0xe592c000
       57355000	      5734	80006bf0	018a8a93	addi	x21,x21,24	 x21:0x80009f20 x21=0x80009f38
       57365000	      5735	80006bf4	40598c33	sub	x24,x19,x5	 x19:0xf0000000  x5:0xfffffff4 x24=0xf000000c
       57375000	      5736	80006bf8	401dda33	sra	x20,x27,x1	 x27:0x7fff6182  x1:0x8000550c x20=0x0007fff6
       57385000	      5737	80006bfc	0b23d217	auipc	x4,0xb23d	  x4=0x8b243bf8
       57395000	      5738	80006c00	00f9e3b3	or	x7,x19,x15	 x19:0xf0000000 x15:0x9b9a0994  x7=0xfb9a0994
       57405000	      5739	80006c04	00108593	addi	x11,x1,1	  x1:0x8000550c x11=0x8000550d
       57415000	      5740	80006c08	000585e7	jalr	x11,x11,0	 x11:0x8000550d x11=0x80006c08
       57425000	      5741	00000000	00000013	addi	x0,x0,0	  x0:0x00000000
       57435000	      5742	8000550c	00000013	addi	x0,x0,0	  x0:0x00000000
       57445000	      5743	80005510	00e0f733	and	x14,x1,x14	  x1:0x8000550c x14:0x00000000 x14=0x00000000
       57455000	      5744	80005514	00fd2233	slt	x4,x26,x15	 x26:0xe592c000 x15:0x9b9a0994  x4=0x00000000
       57465000	      5745	80005518	01ad5313	srli	x6,x26,0x1a	 x26:0xe592c000  x6=0x00000039
       57475000	      5746	8000551c	02cfde63	bge	x31,x12,80005558	 x31:0x80009fc4 x12:0x8c570000
       57485000	      5747	80005520	7e87a397	auipc	x7,0x7e87a	  x7=0xfe87f51c
       57495000	      5748	80005524	f9452b13	slti	x22,x10,-108	 x10:0x40000000 x22=0x00000000
       57505000	      5749	80005528	002fde63	bge	x31,x2,80005544	 x31:0x80009fc4  x2:0xb7aee122
       57515000	      5750	8000552c	73f2a597	auipc	x11,0x73f2a	 x11=0xf3f2f528
       57525000	      5751	80005530	05510463	beq	x2,x21,80005578	  x2:0xb7aee122 x21:0x80009f38
       57535000	      5752	80005534	bcb30613	addi	x12,x6,-1077	  x6:0x00000039 x12=0xfffffc04
       57545000	      5753	80005538	0020ec33	or	x24,x1,x2	  x1:0x8000550c  x2:0xb7aee122 x24=0xb7aef52e
       57555000	      5754	8000553c	005302b3	add	x5,x6,x5	  x6:0x00000039  x5:0xfffffff4  x5=0x0000002d
       57565000	      5755	80005540	006d6a63	bltu	x26,x6,80005554	 x26:0xe592c000  x6:0x00000039
       57575000	      5756	80005544	00980633	add	x12,x16,x9	 x16:0x9b9a0994  x9:0xe4656816 x12=0x7fff71aa
       57585000	      5757	80005548	00f1b233	sltu	x4,x3,x15	  x3:0xf0000000 x15:0x9b9a0994  x4=0x00000000
       57595000	      5758	8000554c	02b9cc63	blt	x19,x11,80005584	 x19:0xf0000000 x11:0xf3f2f528
       57605000	      5759	00000000	00000013	addi	x0,x0,0	  x0:0x00000000
       57615000	      5760	80005580	00000013	addi	x0,x0,0	  x0:0x00000000
       57625000	      5761	80005584	40b0d8b3	sra	x17,x1,x11	  x1:0x8000550c x11:0xf3f2f528 x17=0xff800055
       57635000	      5762	80005588	871fed13	ori	x26,x31,-1935	 x31:0x80009fc4 x26=0xfffffff5
       57645000	      5763	8000558c	8f167793	andi	x15,x12,-1807	 x12:0x7fff71aa x15=0x7fff70a0
       57655000	      5764	80005590	fed6b693	sltiu	x13,x13,-19	 x13:0x00000000 x13=0x00000001
       57665000	      5765	80005594	11a46217	auipc	x4,0x11a46	  x4=0x91a4b590
       57675000	      5766	80005598	008bf863	bgeu	x23,x8,800055a8	 x23:0xfffffff4  x8:0x00000000
       57685000	      5767	00000000	00000013	addi	x0,x0,0	  x0:0x00000000
       57695000	      5768	800055a4	00000013	addi	x0,x0,0	  x0:0x00000000
       57705000	      5769	800055a8	2111f013	andi	x0,x3,529	  x3:0xf0000000
       57715000	      5770	800055ac	01ae9613	slli	x12,x29,0x1a	 x29:0x00000000 x12=0x00000000
       57725000	      5771	800055b0	01bd0f33	add	x30,x26,x27	 x26:0xfffffff5 x27:0x7fff6182 x30=0x7fff6177
       57735000	      5772	800055b4	008666b3	or	x13,x12,x8	 x12:0x00000000  x8:0x00000000 x13=0x00000000
       57745000	      5773	800055b8	0137d6b3	srl	x13,x15,x19	 x15:0x7fff70a0 x19:0xf0000000 x13=0x7fff70a0
       57755000	      5774	800055bc	004aa083	lw	x1,4(x21)	 x21:0x80009f38  x1=0x800028dc PA:0x80009f3c
       57765000	      5775	800055c0	c7f42f37	lui	x30,0xc7f42	 x30=0xc7f42000
       57775000	      5776	800055c4	020a8a93	addi	x21,x21,32	 x21:0x80009f38 x21=0x80009f58
       57785000	      5777	800055c8	3c1f0313	addi	x6,x30,961	 x30:0xc7f42000  x6=0xc7f423c1
       57795000	      5778	800055cc	00108a13	addi	x20,x1,1	  x1:0x800028dc x20=0x800028dd
       57805000	      5779	800055d0	000a0a67	jalr	x20,x20,0	 x20:0x800028dd x20=0x800055d0
       57815000	      5780	00000000	00000013	addi	x0,x0,0	  x0:0x00000000
       57825000	      5781	800028dc	00000013	addi	x0,x0,0	  x0:0x00000000
       57835000	      5782	800028e0	41e6d7b3	sra	x15,x13,x30	 x13:0x7fff70a0 x30:0xc7f42000 x15=0x7fff70a0
       57845000	      5783	800028e4	7ef7e413	ori	x8,x15,2031	 x15:0x7fff70a0  x8=0x7fff77ef
       57855000	      5784	800028e8	01e35c93	srli	x25,x6,0x1e	  x6:0xc7f423c1 x25=0x00000003
       57865000	      5785	800028ec	019195b3	sll	x11,x3,x25	  x3:0xf0000000 x25:0x00000003 x11=0x80000000
       57875000	      5786	800028f0	00b48633	add	x12,x9,x11	  x9:0xe4656816 x11:0x80000000 x12=0x64656816
       57885000	      5787	800028f4	d9426e13	ori	x28,x4,-620	  x4:0x91a4b590 x28=0xfffffd94
       57895000	      5788	800028f8	6927aa37	lui	x20,0x6927a	 x20=0x6927a000
       57905000	      5789	800028fc	0160ad33	slt	x26,x1,x22	  x1:0x800028dc x22:0x00000000 x26=0x00000001
       57915000	      5790	80002900	c6ecb393	sltiu	x7,x25,-914	 x25:0x00000003  x7=0x00000001
       57925000	      5791	80002904	45106b17	auipc	x22,0x45106	 x22=0xc5108900
       57935000	      5792	80002908	018d63b3	or	x7,x26,x24	 x26:0x00000001 x24:0xb7aef52e  x7=0xb7aef52f
       57945000	      5793	8000290c	400f8733	sub	x14,x31,x0	 x31:0x80009fc4  x0:0x00000000 x14=0x80009fc4
       57955000	      5794	80002910	41c9d713	srai	x14,x19,0x1c	 x19:0xf0000000 x14=0xffffffff
       57965000	      5795	80002914	75ac7f13	andi	x30,x24,1882	 x24:0xb7aef52e x30=0x0000050a
       57975000	      5796	80002918	00000013	addi	x0,x0,0	  x0:0x00000000
       57985000	      5797	8000291c	01e747b3	xor	x15,x14,x30	 x14:0xffffffff x30:0x0000050a x15=0xfffffaf5
       57995000	      5798	80002920	025f4a63	blt	x30,x5,80002954	 x30:0x0000050a  x5:0x0000002d
       58005000	      5799	80002924	00475333	srl	x6,x14,x4	 x14:0xffffffff  x4:0x91a4b590  x6=0x0000ffff
       58015000	      5800	80002928	40f881b3	sub	x3,x17,x15	 x17:0xff800055 x15:0xfffffaf5  x3=0xff800560
       58025000	      5801	8000292c	000485b3	add	x11,x9,x0	  x9:0xe4656816  x0:0x00000000 x11=0xe4656816
       58035000	      5802	80002930	03cfd063	bge	x31,x28,80002950	 x31:0x80009fc4 x28:0xfffffd94
       58045000	      5803	80002934	01729e63	bne	x5,x23,80002950	  x5:0x0000002d x23:0xfffffff4
       58055000	      5804	00000000	00000013	addi	x0,x0,0	  x0:0x00000000
       58065000	      5805	8000294c	00000013	addi	x0,x0,0	  x0:0x00000000
       58075000	      5806	80002950	20033313	sltiu	x6,x6,512	  x6:0x0000ffff  x6=0x00000000
       58085000	      5807	80002954	bf196e93	ori	x29,x18,-1039	 x18:0xb7aee406 x29=0xfffffff7
       58095000	      5808	80002958	a0664617	auipc	x12,0xa0664	 x12=0x20666954
       58105000	      5809	8000295c	00a44933	xor	x18,x8,x10	  x8:0x7fff77ef x10:0x40000000 x18=0x3fff77ef
       58115000	      5810	80002960	018b5433	srl	x8,x22,x24	 x22:0xc5108900 x24:0xb7aef52e  x8=0x00031442
       58125000	      5811	80002964	10d06593	ori	x11,x0,269	  x0:0x00000000 x11=0x0000010d
       58135000	      5812	80002968	bd517d13	andi	x26,x2,-1067	  x2:0xb7aee122 x26=0xb7aee100
       58145000	      5813	8000296c	12ec7017	auipc	x0,0x12ec7	
       58155000	      5814	80002970	26bbd237	lui	x4,0x26bbd	  x4=0x26bbd000
       58165000	      5815	80002974	000cda63	bge	x25,x0,80002988	 x25:0x00000003  x0:0x00000000
       58175000	      5816	00000000	00000013	addi	x0,x0,0	  x0:0x00000000
       58185000	      5817	80002984	00000013	addi	x0,x0,0	  x0:0x00000000
       58195000	      5818	80002988	416b51b3	sra	x3,x22,x22	 x22:0xc5108900 x22:0xc5108900  x3=0xc5108900
       58205000	      5819	8000298c	89d0b693	sltiu	x13,x1,-1891	  x1:0x800028dc x13=0x00000001
       58215000	      5820	80002990	04635263	bge	x6,x6,800029d4	  x6:0x00000000  x6:0x00000000
       58225000	      5821	00000000	00000013	addi	x0,x0,0	  x0:0x00000000
       58235000	      5822	800029d0	00000013	addi	x0,x0,0	  x0:0x00000000
       58245000	      5823	800029d4	01e30c63	beq	x6,x30,800029ec	  x6:0x00000000 x30:0x0000050a
       58255000	      5824	800029d8	66031eb7	lui	x29,0x66031	 x29=0x66031000
       58265000	      5825	800029dc	0231c663	blt	x3,x3,80002a08	  x3:0xc5108900  x3:0xc5108900
       58275000	      5826	800029e0	01b471b3	and	x3,x8,x27	  x8:0x00031442 x27:0x7fff6182  x3=0x00030002
       58285000	      5827	800029e4	442c80b7	lui	x1,0x442c8	  x1=0x442c8000
       58295000	      5828	800029e8	00e449b3	xor	x19,x8,x14	  x8:0x00031442 x14:0xffffffff x19=0xfffcebbd
       58305000	      5829	800029ec	00000013	addi	x0,x0,0	  x0:0x00000000
       58315000	      5830	800029f0	00e44633	xor	x12,x8,x14	  x8:0x00031442 x14:0xffffffff x12=0xfffcebbd
       58325000	      5831	800029f4	413358b3	sra	x17,x6,x19	  x6:0x00000000 x19:0xfffcebbd x17=0x00000000
       58335000	      5832	800029f8	01ad8c63	beq	x27,x26,80002a10	 x27:0x7fff6182 x26:0xb7aee100
       58345000	      5833	800029fc	009e2d33	slt	x26,x28,x9	 x28:0xfffffd94  x9:0xe4656816 x26=0x00000000
       58355000	      5834	80002a00	69590a13	addi	x20,x18,1685	 x18:0x3fff77ef x20=0x3fff7e84
       58365000	      5835	80002a04	003c1f33	sll	x30,x24,x3	 x24:0xb7aef52e  x3:0x00030002 x30=0xdebbd4b8
       58375000	      5836	80002a08	024e1e97	auipc	x29,0x24e1	 x29=0x824e3a04
       58385000	      5837	80002a0c	03eaee63	bltu	x21,x30,80002a48	 x21:0x80009f58 x30:0xdebbd4b8
       58395000	      5838	00000000	00000013	addi	x0,x0,0	  x0:0x00000000
       58405000	      5839	80002a44	00000013	addi	x0,x0,0	  x0:0x00000000
       58415000	      5840	80002a48	60e5ac13	slti	x24,x11,1550	 x11:0x0000010d x24=0x00000001
       58425000	      5841	80002a4c	01d05833	srl	x16,x0,x29	  x0:0x00000000 x29:0x824e3a04 x16=0x00000000
       58435000	      5842	80002a50	854e2413	slti	x8,x28,-1964	 x28:0xfffffd94  x8=0x00000000
       58445000	      5843	80002a54	906ca693	slti	x13,x25,-1786	 x25:0x00000003 x13=0x00000000
       58455000	      5844	80002a58	02298863	beq	x19,x2,80002a88	 x19:0xfffcebbd  x2:0xb7aee122
       58465000	      5845	80002a5c	00000013	addi	x0,x0,0	  x0:0x00000000
       58475000	      5846	80002a60	65f24f13	xori	x30,x4,1631	  x4:0x26bbd000 x30=0x26bbd65f
       58485000	      5847	80002a64	01a041b3	xor	x3,x0,x26	  x0:0x00000000 x26:0x00000000  x3=0x00000000
       58495000	      5848	80002a68	5cccc913	xori	x18,x25,1484	 x25:0x00000003 x18=0x000005cf
       58505000	      5849	80002a6c	40a002b3	sub	x5,x0,x10	  x0:0x00000000 x10:0x40000000  x5=0xc0000000
       58515000	      5850	80002a70	7c69c213	xori	x4,x19,1990	 x19:0xfffcebbd  x4=0xfffcec7b
       58525000	      5851	80002a74	01394663	blt	x18,x19,80002a80	 x18:0x000005cf x19:0xfffcebbd
       58535000	      5852	80002a78	01b9ed33	or	x26,x19,x27	 x19:0xfffcebbd x27:0x7fff6182 x26=0xffffebbf
       58545000	      5853	80002a7c	41a10433	sub	x8,x2,x26	  x2:0xb7aee122 x26:0xffffebbf  x8=0xb7aef563
       58555000	      5854	80002a80	e540ec13	ori	x24,x1,-428	  x1:0x442c8000 x24=0xfffffe54
       58565000	      5855	80002a84	01095b33	srl	x22,x18,x16	 x18:0x000005cf x16:0x00000000 x22=0x000005cf
       58575000	      5856	80002a88	037ec463	blt	x29,x23,80002ab0	 x29:0x824e3a04 x23:0xfffffff4
       58585000	      5857	00000000	00000013	addi	x0,x0,0	  x0:0x00000000
       58595000	      5858	80002aac	00000013	addi	x0,x0,0	  x0:0x00000000
       58605000	      5859	80002ab0	712eeb13	ori	x22,x29,1810	 x29:0x824e3a04 x22=0x824e3f16
       58615000	      5860	80002ab4	d479ec97	auipc	x25,0xd479e	 x25=0x547a0ab0
       58625000	      5861	80002ab8	4188d633	sra	x12,x17,x24	 x17:0x00000000 x24:0xfffffe54 x12=0x00000000
       58635000	      5862	80002abc	03bf4263	blt	x30,x27,80002ae0	 x30:0x26bbd65f x27:0x7fff6182
       58645000	      5863	00000000	00000013	addi	x0,x0,0	  x0:0x00000000
       58655000	      5864	80002adc	00000013	addi	x0,x0,0	  x0:0x00000000
       58665000	      5865	80002ae0	01b40233	add	x4,x8,x27	  x8:0xb7aef563 x27:0x7fff6182  x4=0x37ae56e5
       58675000	      5866	80002ae4	00d6ce63	blt	x13,x13,80002b00	 x13:0x00000000 x13:0x00000000
       58685000	      5867	80002ae8	da4e7f13	andi	x30,x28,-604	 x28:0xfffffd94 x30=0xfffffd84
       58695000	      5868	80002aec	028e9063	bne	x29,x8,80002b0c	 x29:0x824e3a04  x8:0xb7aef563
       58705000	      5869	00000000	00000013	addi	x0,x0,0	  x0:0x00000000
       58715000	      5870	80002b08	00000013	addi	x0,x0,0	  x0:0x00000000
       58725000	      5871	80002b0c	62743e93	sltiu	x29,x8,1575	  x8:0xb7aef563 x29=0x00000000
       58735000	      5872	80002b10	0138ea63	bltu	x17,x19,80002b24	 x17:0x00000000 x19:0xfffcebbd
       58745000	      5873	00000000	00000013	addi	x0,x0,0	  x0:0x00000000
       58755000	      5874	80002b20	00000013	addi	x0,x0,0	  x0:0x00000000
       58765000	      5875	80002b24	01dba2b3	slt	x5,x23,x29	 x23:0xfffffff4 x29:0x00000000  x5=0x00000001
       58775000	      5876	80002b28	00000013	addi	x0,x0,0	  x0:0x00000000
       58785000	      5877	80002b2c	7651f697	auipc	x13,0x7651f	 x13=0xf6521b28
       58795000	      5878	80002b30	00bd8933	add	x18,x27,x11	 x27:0x7fff6182 x11:0x0000010d x18=0x7fff628f
       58805000	      5879	80002b34	5335eb93	ori	x23,x11,1331	 x11:0x0000010d x23=0x0000053f
       58815000	      5880	80002b38	21f2b413	sltiu	x8,x5,543	  x5:0x00000001  x8=0x00000001
       58825000	      5881	80002b3c	00006c97	auipc	x25,0x6	 x25=0x80008b38
       58835000	      5882	80002b40	cfbc8c93	addi	x25,x25,-773	 x25:0x80008b38 x25=0x80008833
       58845000	      5883	80002b44	011081b3	add	x3,x1,x17	  x1:0x442c8000 x17:0x00000000  x3=0x442c8000
       58855000	      5884	80002b48	00000013	addi	x0,x0,0	  x0:0x00000000
       58865000	      5885	80002b4c	fe7ccf03	lbu	x30,-25(x25)	 x25:0x80008833 x30=0x00000001 PA:0x8000881a
       58875000	      5886	80002b50	5df8c517	auipc	x10,0x5df8c	 x10=0xddf8eb4c
       58885000	      5887	80002b54	035c9283	lh	x5,53(x25)	 x25:0x80008833  x5=0x00005253 PA:0x80008868
       58895000	      5888	80002b58	01954033	xor	x0,x10,x25	 x10:0xddf8eb4c x25:0x80008833
       58905000	      5889	80002b5c	40f0d933	sra	x18,x1,x15	  x1:0x442c8000 x15:0xfffffaf5 x18=0x00000221
       58915000	      5890	80002b60	07cc8923	sb	x28,114(x25)	 x25:0x80008833 x28:0xfffffd94 PA:0x800088a5
       58925000	      5891	80002b64	402b7d93	andi	x27,x22,1026	 x22:0x824e3f16 x27=0x00000402
       58935000	      5892	80002b68	01e51db3	sll	x27,x10,x30	 x10:0xddf8eb4c x30:0x00000001 x27=0xbbf1d698
       58945000	      5893	80002b6c	017fee33	or	x28,x31,x23	 x31:0x80009fc4 x23:0x0000053f x28=0x80009fff
       58955000	      5894	80002b70	0107d9b3	srl	x19,x15,x16	 x15:0xfffffaf5 x16:0x00000000 x19=0xfffffaf5
       58965000	      5895	80002b74	00dc9fa3	sh	x13,31(x25)	 x25:0x80008833 x13:0xf6521b28 PA:0x80008852
       58975000	      5896	80002b78	416b8333	sub	x6,x23,x22	 x23:0x0000053f x22:0x824e3f16  x6=0x7db1c629
       58985000	      5897	80002b7c	b3196e13	ori	x28,x18,-1231	 x18:0x00000221 x28=0xfffffb31
       58995000	      5898	80002b80	9d5d6893	ori	x17,x26,-1579	 x26:0xffffebbf x17=0xfffffbff
       59005000	      5899	80002b84	016c9a13	slli	x20,x25,0x16	 x25:0x80008833 x20=0x0cc00000
       59015000	      5900	80002b88	019c96a3	sh	x25,13(x25)	 x25:0x80008833 x25:0x80008833 PA:0x80008840
       59025000	      5901	80002b8c	0e2c96a3	sh	x2,237(x25)	 x25:0x80008833  x2:0xb7aee122 PA:0x80008920
       59035000	      5902	80002b90	22696913	ori	x18,x18,550	 x18:0x00000221 x18=0x00000227
       59045000	      5903	80002b94	011203b3	add	x7,x4,x17	  x4:0x37ae56e5 x17:0xfffffbff  x7=0x37ae52e4
       59055000	      5904	80002b98	00d3f7b3	and	x15,x7,x13	  x7:0x37ae52e4 x13:0xf6521b28 x15=0x36021220
       59065000	      5905	80002b9c	b25bb813	sltiu	x16,x23,-1243	 x23:0x0000053f x16=0x00000001
       59075000	      5906	80002ba0	4183d633	sra	x12,x7,x24	  x7:0x37ae52e4 x24:0xfffffe54 x12=0x0000037a
       59085000	      5907	80002ba4	0d4cc383	lbu	x7,212(x25)	 x25:0x80008833  x7=0x000000ec PA:0x80008907
       59095000	      5908	80002ba8	0dccc603	lbu	x12,220(x25)	 x25:0x80008833 x12=0x000000f4 PA:0x8000890f
       59105000	      5909	80002bac	00f046b3	xor	x13,x0,x15	  x0:0x00000000 x15:0x36021220 x13=0x36021220
       59115000	      5910	80002bb0	39ceb637	lui	x12,0x39ceb	 x12=0x39ceb000
       59125000	      5911	80002bb4	006cc403	lbu	x8,6(x25)	 x25:0x80008833  x8=0x00000022 PA:0x80008839
       59135000	      5912	80002bb8	0b0c8023	sb	x16,160(x25)	 x25:0x80008833 x16:0x00000001 PA:0x800088d3
       59145000	      5913	80002bbc	00000013	addi	x0,x0,0	  x0:0x00000000
       59155000	      5914	80002bc0	05dc8023	sb	x29,64(x25)	 x25:0x80008833 x29:0x00000000 PA:0x80008873
       59165000	      5915	80002bc4	05dcce03	lbu	x28,93(x25)	 x25:0x80008833 x28=0x0000007b PA:0x80008890
       59175000	      5916	80002bc8	01771e13	slli	x28,x14,0x17	 x14:0xffffffff x28=0xff800000
       59185000	      5917	80002bcc	007d0833	add	x16,x26,x7	 x26:0xffffebbf  x7:0x000000ec x16=0xffffecab
       59195000	      5918	80002bd0	0171f7b3	and	x15,x3,x23	  x3:0x442c8000 x23:0x0000053f x15=0x00000000
       59205000	      5919	80002bd4	02786263	bltu	x16,x7,80002bf8	 x16:0xffffecab  x7:0x000000ec
       59215000	      5920	80002bd8	01739013	slli	x0,x7,0x17	  x7:0x000000ec
       59225000	      5921	80002bdc	4117d213	srai	x4,x15,0x11	 x15:0x00000000  x4=0x00000000
       59235000	      5922	80002be0	c0a4e493	ori	x9,x9,-1014	  x9:0xe4656816  x9=0xfffffc1e
       59245000	      5923	80002be4	510d1237	lui	x4,0x510d1	  x4=0x510d1000
       59255000	      5924	80002be8	01304bb3	xor	x23,x0,x19	  x0:0x00000000 x19:0xfffffaf5 x23=0xfffffaf5
       59265000	      5925	80002bec	03b09e63	bne	x1,x27,80002c28	  x1:0x442c8000 x27:0xbbf1d698
       59275000	      5926	00000000	00000013	addi	x0,x0,0	  x0:0x00000000
       59285000	      5927	80002c24	00000013	addi	x0,x0,0	  x0:0x00000000
       59295000	      5928	80002c28	eb0ff537	lui	x10,0xeb0ff	 x10=0xeb0ff000
       59305000	      5929	80002c2c	01b18633	add	x12,x3,x27	  x3:0x442c8000 x27:0xbbf1d698 x12=0x001e5698
       59315000	      5930	80002c30	41f083b3	sub	x7,x1,x31	  x1:0x442c8000 x31:0x80009fc4  x7=0xc42be03c
       59325000	      5931	80002c34	b5a17093	andi	x1,x2,-1190	  x2:0xb7aee122  x1=0xb7aee102
       59335000	      5932	80002c38	0295f063	bgeu	x11,x9,80002c58	 x11:0x0000010d  x9:0xfffffc1e
       59345000	      5933	80002c3c	01a8e3b3	or	x7,x17,x26	 x17:0xfffffbff x26:0xffffebbf  x7=0xfffffbff
       59355000	      5934	80002c40	004f7e63	bgeu	x30,x4,80002c5c	 x30:0x00000001  x4:0x510d1000
       59365000	      5935	80002c44	80b9ca13	xori	x20,x19,-2037	 x19:0xfffffaf5 x20=0x000002fe
       59375000	      5936	80002c48	00d726b3	slt	x13,x14,x13	 x14:0xffffffff x13:0x36021220 x13=0x00000001
       59385000	      5937	80002c4c	403ed533	sra	x10,x29,x3	 x29:0x00000000  x3:0x442c8000 x10=0x00000000
       59395000	      5938	80002c50	018072b3	and	x5,x0,x24	  x0:0x00000000 x24:0xfffffe54  x5=0x00000000
       59405000	      5939	80002c54	00000013	addi	x0,x0,0	  x0:0x00000000
       59415000	      5940	80002c58	d573a813	slti	x16,x7,-681	  x7:0xfffffbff x16=0x00000001
       59425000	      5941	80002c5c	40645393	srai	x7,x8,0x6	  x8:0x00000022  x7=0x00000000
       59435000	      5942	80002c60	0145b633	sltu	x12,x11,x20	 x11:0x0000010d x20:0x000002fe x12=0x00000001
       59445000	      5943	80002c64	01a61513	slli	x10,x12,0x1a	 x12:0x00000001 x10=0x04000000
       59455000	      5944	80002c68	41fb8233	sub	x4,x23,x31	 x23:0xfffffaf5 x31:0x80009fc4  x4=0x7fff5b31
       59465000	      5945	80002c6c	57a23c93	sltiu	x25,x4,1402	  x4:0x7fff5b31 x25=0x00000000
       59475000	      5946	80002c70	01866b33	or	x22,x12,x24	 x12:0x00000001 x24:0xfffffe54 x22=0xfffffe55
       59485000	      5947	80002c74	511bb813	sltiu	x16,x23,1297	 x23:0xfffffaf5 x16=0x00000000
       59495000	      5948	80002c78	004aa083	lw	x1,4(x21)	 x21:0x80009f58  x1=0x80006c50 PA:0x80009f5c
       59505000	      5949	80002c7c	87fac897	auipc	x17,0x87fac	 x17=0x07faec78
       59515000	      5950	80002c80	008a8a93	addi	x21,x21,8	 x21:0x80009f58 x21=0x80009f60
       59525000	      5951	80002c84	003252b3	srl	x5,x4,x3	  x4:0x7fff5b31  x3:0x442c8000  x5=0x7fff5b31
       59535000	      5952	80002c88	000c1313	slli	x6,x24,0x0	 x24:0xfffffe54  x6=0xfffffe54
       59545000	      5953	80002c8c	00233433	sltu	x8,x6,x2	  x6:0xfffffe54  x2:0xb7aee122  x8=0x00000000
       59555000	      5954	80002c90	c9d33593	sltiu	x11,x6,-867	  x6:0xfffffe54 x11=0x00000000
       59565000	      5955	80002c94	00108a13	addi	x20,x1,1	  x1:0x80006c50 x20=0x80006c51
       59575000	      5956	80002c98	000a0a67	jalr	x20,x20,0	 x20:0x80006c51 x20=0x80002c98
       59585000	      5957	00000000	00000013	addi	x0,x0,0	  x0:0x00000000
       59595000	      5958	80006c50	00000013	addi	x0,x0,0	  x0:0x00000000
       59605000	      5959	80006c54	ffffd617	auipc	x12,0xffffd	 x12=0x80003c50
       59615000	      5960	80006c58	01460613	addi	x12,x12,20	 x12:0x80003c50 x12=0x80003c64
       59625000	      5961	80006c5c	01c3e2b3	or	x5,x7,x28	  x7:0x00000000 x28:0xff800000  x5=0xff800000
       59635000	      5962	80006c60	01800a33	add	x20,x0,x24	  x0:0x00000000 x24:0xfffffe54 x20=0xfffffe54
       59645000	      5963	80006c64	19760613	addi	x12,x12,407	 x12:0x80003c64 x12=0x80003dfb
       59655000	      5964	80006c68	40fb5093	srai	x1,x22,0xf	 x22:0xfffffe55  x1=0xffffffff
       59665000	      5965	80006c6c	ca383093	sltiu	x1,x16,-861	 x16:0x00000000  x1=0x00000001
       59675000	      5966	80006c70	6df92093	slti	x1,x18,1759	 x18:0x00000227  x1=0x00000001
       59685000	      5967	80006c74	e6a600e7	jalr	x1,x12,-406	 x12:0x80003dfb  x1=0x80006c74
       59695000	      5968	00000000	00000013	addi	x0,x0,0	  x0:0x00000000
       59705000	      5969	80003c64	00000013	addi	x0,x0,0	  x0:0x00000000
       59715000	      5970	80003c68	00a8c233	xor	x4,x17,x10	 x17:0x07faec78 x10:0x04000000  x4=0x03faec78
       59725000	      5971	80003c6c	b104c413	xori	x8,x9,-1264	  x9:0xfffffc1e  x8=0x0000070e
       59735000	      5972	80003c70	0064dc63	bge	x9,x6,80003c88	  x9:0xfffffc1e  x6:0xfffffe54
       59745000	      5973	80003c74	01fe25b3	slt	x11,x28,x31	 x28:0xff800000 x31:0x80009fc4 x11=0x00000000
       59755000	      5974	80003c78	01e63f33	sltu	x30,x12,x30	 x12:0x80003dfb x30:0x00000001 x30=0x00000000
       59765000	      5975	80003c7c	0174d493	srli	x9,x9,0x17	  x9:0xfffffc1e  x9=0x000001ff
       59775000	      5976	80003c80	4929e593	ori	x11,x19,1170	 x19:0xfffffaf5 x11=0xfffffef7
       59785000	      5977	80003c84	00a6a5b3	slt	x11,x13,x10	 x13:0x00000001 x10:0x04000000 x11=0x00000001
       59795000	      5978	80003c88	fe8a8a93	addi	x21,x21,-24	 x21:0x80009f60 x21=0x80009f48
       59805000	      5979	80003c8c	001aa223	sw	x1,4(x21)	 x21:0x80009f48  x1:0x80006c74 PA:0x80009f4c
       59815000	      5980	80003c90	4023d833	sra	x16,x7,x2	  x7:0x00000000  x2:0xb7aee122 x16=0x00000000
       59825000	      5981	80003c94	01a45233	srl	x4,x8,x26	  x8:0x0000070e x26:0xffffebbf  x4=0x00000000
       59835000	      5982	80003c98	01fe56b3	srl	x13,x28,x31	 x28:0xff800000 x31:0x80009fc4 x13=0x0ff80000
       59845000	      5983	80003c9c	017381b3	add	x3,x7,x23	  x7:0x00000000 x23:0xfffffaf5  x3=0xfffffaf5
       59855000	      5984	80003ca0	33032d93	slti	x27,x6,816	  x6:0xfffffe54 x27=0x00000001
       59865000	      5985	80003ca4	b8d34f13	xori	x30,x6,-1139	  x6:0xfffffe54 x30=0x000005d9
       59875000	      5986	80003ca8	41cd0bb3	sub	x23,x26,x28	 x26:0xffffebbf x28:0xff800000 x23=0x007febbf
       59885000	      5987	80003cac	41c90033	sub	x0,x18,x28	 x18:0x00000227 x28:0xff800000
       59895000	      5988	80003cb0	049000ef	jal	x1,80003cb0	  x1=0x80003cb0
       59905000	      5989	00000000	00000013	addi	x0,x0,0	  x0:0x00000000
       59915000	      5990	800044f4	00000013	addi	x0,x0,0	  x0:0x00000000
       59925000	      5991	800044f8	41140b33	sub	x22,x8,x17	  x8:0x0000070e x17:0x07faec78 x22=0xf8051a96
       59935000	      5992	800044fc	ff8a8a93	addi	x21,x21,-8	 x21:0x80009f48 x21=0x80009f40
       59945000	      5993	80004500	001aa223	sw	x1,4(x21)	 x21:0x80009f40  x1:0x80003cb0 PA:0x80009f44
       59955000	      5994	80004504	01fcf8b3	and	x17,x25,x31	 x25:0x00000000 x31:0x80009fc4 x17=0x00000000
       59965000	      5995	80004508	41e28433	sub	x8,x5,x30	  x5:0xff800000 x30:0x000005d9  x8=0xff7ffa27
       59975000	      5996	8000450c	00004917	auipc	x18,0x4	 x18=0x80008508
       59985000	      5997	80004510	62690913	addi	x18,x18,1574	 x18:0x80008508 x18=0x80008b2e
       59995000	      5998	80004514	f29909a3	sb	x9,-205(x18)	 x18:0x80008b2e  x9:0x000001ff PA:0x80008a61
       60005000	      5999	80004518	07390603	lb	x12,115(x18)	 x18:0x80008b2e x12=0xffffff8a PA:0x80008ba1
       60015000	      6000	8000451c	0c691a23	sh	x6,212(x18)	 x18:0x80008b2e  x6:0xfffffe54 PA:0x80008c02
       60025000	      6001	80004520	0062eb33	or	x22,x5,x6	  x5:0xff800000  x6:0xfffffe54 x22=0xfffffe54
       60035000	      6002	80004524	06c90fa3	sb	x12,127(x18)	 x18:0x80008b2e x12:0xffffff8a PA:0x80008bad
       60045000	      6003	80004528	03d92523	sw	x29,42(x18)	 x18:0x80008b2e x29:0x00000000 PA:0x80008b58
       60055000	      6004	8000452c	0f295a03	lhu	x20,242(x18)	 x18:0x80008b2e x20=0x00000a0b PA:0x80008c20
       60065000	      6005	80004530	f10908a3	sb	x16,-239(x18)	 x18:0x80008b2e x16:0x00000000 PA:0x80008a3f
       60075000	      6006	80004534	0f5903a3	sb	x21,231(x18)	 x18:0x80008b2e x21:0x80009f40 PA:0x80008c15
       60085000	      6007	80004538	01a92a03	lw	x20,26(x18)	 x18:0x80008b2e x20=0x30313233 PA:0x80008b48
       60095000	      6008	8000453c	408b8f33	sub	x30,x23,x8	 x23:0x007febbf  x8:0xff7ffa27 x30=0x00fff198
       60105000	      6009	80004540	fbb90e83	lb	x29,-69(x18)	 x18:0x80008b2e x29=0xffffffd2 PA:0x80008ae9
       60115000	      6010	80004544	da60a5b7	lui	x11,0xda60a	 x11=0xda60a000
       60125000	      6011	80004548	f7d90b03	lb	x22,-131(x18)	 x18:0x80008b2e x22=0xffffff90 PA:0x80008aab
       60135000	      6012	8000454c	00a95d83	lhu	x27,10(x18)	 x18:0x80008b2e x27=0x00002223 PA:0x80008b38
       60145000	      6013	80004550	02294203	lbu	x4,34(x18)	 x18:0x80008b2e  x4=0x0000003b PA:0x80008b50
       60155000	      6014	80004554	0ef90783	lb	x15,239(x18)	 x18:0x80008b2e x15=0x00000006 PA:0x80008c1d
       60165000	      6015	80004558	01d91813	slli	x16,x18,0x1d	 x18:0x80008b2e x16=0xc0000000
       60175000	      6016	8000455c	f5692383	lw	x7,-170(x18)	 x18:0x80008b2e  x7=0x6c6d6e6f PA:0x80008a84
       60185000	      6017	80004560	011b2a33	slt	x20,x22,x17	 x22:0xffffff90 x17:0x00000000 x20=0x00000001
       60195000	      6018	80004564	fb890b83	lb	x23,-72(x18)	 x18:0x80008b2e x23=0xffffffcd PA:0x80008ae6
       60205000	      6019	80004568	04292123	sw	x2,66(x18)	 x18:0x80008b2e  x2:0xb7aee122 PA:0x80008b70
       60215000	      6020	8000456c	0d794983	lbu	x19,215(x18)	 x18:0x80008b2e x19=0x000000ee PA:0x80008c05
       60225000	      6021	80004570	01b2e5b3	or	x11,x5,x27	  x5:0xff800000 x27:0x00002223 x11=0xff802223
       60235000	      6022	80004574	00000013	addi	x0,x0,0	  x0:0x00000000
       60245000	      6023	80004578	0a590383	lb	x7,165(x18)	 x18:0x80008b2e  x7=0x00000040 PA:0x80008bd3
       60255000	      6024	8000457c	920fe813	ori	x16,x31,-1760	 x31:0x80009fc4 x16=0xffffffe4
       60265000	      6025	80004580	0aa95b03	lhu	x22,170(x18)	 x18:0x80008b2e x22=0x0000c2c3 PA:0x80008bd8
       60275000	      6026	80004584	f9791123	sh	x23,-126(x18)	 x18:0x80008b2e x23:0xffffffcd PA:0x80008ab0
       60285000	      6027	80004588	f2f94683	lbu	x13,-209(x18)	 x18:0x80008b2e x13=0x00000046 PA:0x80008a5d
       60295000	      6028	8000458c	01262733	slt	x14,x12,x18	 x12:0xffffff8a x18:0x80008b2e x14=0x00000000
       60305000	      6029	80004590	0fe90403	lb	x8,254(x18)	 x18:0x80008b2e  x8=0x00000017 PA:0x80008c2c
       60315000	      6030	80004594	fb895203	lhu	x4,-72(x18)	 x18:0x80008b2e  x4=0x0000cccd PA:0x80008ae6
       60325000	      6031	80004598	fea904a3	sb	x10,-23(x18)	 x18:0x80008b2e x10:0x04000000 PA:0x80008b17
       60335000	      6032	8000459c	00000013	addi	x0,x0,0	  x0:0x00000000
       60345000	      6033	800045a0	f8892723	sw	x8,-114(x18)	 x18:0x80008b2e  x8:0x00000017 PA:0x80008abc
       60355000	      6034	800045a4	ff394e03	lbu	x28,-13(x18)	 x18:0x80008b2e x28=0x0000000a PA:0x80008b21
       60365000	      6035	800045a8	f7b90c83	lb	x25,-133(x18)	 x18:0x80008b2e x25=0xffffff92 PA:0x80008aa9
       60375000	      6036	800045ac	f3a95b03	lhu	x22,-198(x18)	 x18:0x80008b2e x22=0x00005253 PA:0x80008a68
       60385000	      6037	800045b0	0374e063	bltu	x9,x23,800045d0	  x9:0x000001ff x23:0xffffffcd
       60395000	      6038	00000000	00000013	addi	x0,x0,0	  x0:0x00000000
       60405000	      6039	800045cc	00000013	addi	x0,x0,0	  x0:0x00000000
       60415000	      6040	800045d0	00826833	or	x16,x4,x8	  x4:0x0000cccd  x8:0x00000017 x16=0x0000ccdf
       60425000	      6041	800045d4	05421463	bne	x4,x20,8000461c	  x4:0x0000cccd x20:0x00000001
       60435000	      6042	00000000	00000013	addi	x0,x0,0	  x0:0x00000000
       60445000	      6043	80004618	00000013	addi	x0,x0,0	  x0:0x00000000
       60455000	      6044	8000461c	008e68b3	or	x17,x28,x8	 x28:0x0000000a  x8:0x00000017 x17=0x0000001f
       60465000	      6045	80004620	03a39863	bne	x7,x26,80004650	  x7:0x00000040 x26:0xffffebbf
       60475000	      6046	00000000	00000013	addi	x0,x0,0	  x0:0x00000000
       60485000	      6047	8000464c	00000013	addi	x0,x0,0	  x0:0x00000000
       60495000	      6048	80004650	033df263	bgeu	x27,x19,80004674	 x27:0x00002223 x19:0x000000ee
       60505000	      6049	00000000	00000013	addi	x0,x0,0	  x0:0x00000000
       60515000	      6050	80004670	00000013	addi	x0,x0,0	  x0:0x00000000
       60525000	      6051	80004674	05cb7063	bgeu	x22,x28,800046b4	 x22:0x00005253 x28:0x0000000a
       60535000	      6052	00000000	00000013	addi	x0,x0,0	  x0:0x00000000
       60545000	      6053	800046b0	00000013	addi	x0,x0,0	  x0:0x00000000
       60555000	      6054	800046b4	66314313	xori	x6,x2,1635	  x2:0xb7aee122  x6=0xb7aee741
       60565000	      6055	800046b8	02020c63	beq	x4,x0,800046f0	  x4:0x0000cccd  x0:0x00000000
       60575000	      6056	800046bc	031f8c63	beq	x31,x17,800046f4	 x31:0x80009fc4 x17:0x0000001f
       60585000	      6057	800046c0	00040863	beq	x8,x0,800046d0	  x8:0x00000017  x0:0x00000000
       60595000	      6058	800046c4	41b581b3	sub	x3,x11,x27	 x11:0xff802223 x27:0x00002223  x3=0xff800000
       60605000	      6059	800046c8	03fcd263	bge	x25,x31,800046ec	 x25:0xffffff92 x31:0x80009fc4
       60615000	      6060	00000000	00000013	addi	x0,x0,0	  x0:0x00000000
       60625000	      6061	800046e8	00000013	addi	x0,x0,0	  x0:0x00000000
       60635000	      6062	800046ec	f4d24613	xori	x12,x4,-179	  x4:0x0000cccd x12=0xffff3380
       60645000	      6063	800046f0	00c758b3	srl	x17,x14,x12	 x14:0x00000000 x12:0xffff3380 x17=0x00000000
       60655000	      6064	800046f4	055b4463	blt	x22,x21,8000473c	 x22:0x00005253 x21:0x80009f40
       60665000	      6065	800046f8	41f582b3	sub	x5,x11,x31	 x11:0xff802223 x31:0x80009fc4  x5=0x7f7f825f
       60675000	      6066	800046fc	0040fe63	bgeu	x1,x4,80004718	  x1:0x80003cb0  x4:0x0000cccd
       60685000	      6067	00000000	00000013	addi	x0,x0,0	  x0:0x00000000
       60695000	      6068	80004714	00000013	addi	x0,x0,0	  x0:0x00000000
       60705000	      6069	80004718	41be8733	sub	x14,x29,x27	 x29:0xffffffd2 x27:0x00002223 x14=0xffffddaf
       60715000	      6070	8000471c	0097c263	blt	x15,x9,80004720	 x15:0x00000006  x9:0x000001ff
       60725000	      6071	00000000	00000013	addi	x0,x0,0	  x0:0x00000000
       60735000	      6072	8000471c	00000013	addi	x0,x0,0	  x0:0x00000000
       60745000	      6073	80004720	7eec3413	sltiu	x8,x24,2030	 x24:0xfffffe54  x8=0x00000000
       60755000	      6074	80004724	01c94463	blt	x18,x28,8000472c	 x18:0x80008b2e x28:0x0000000a
       60765000	      6075	00000000	00000013	addi	x0,x0,0	  x0:0x00000000
       60775000	      6076	80004728	00000013	addi	x0,x0,0	  x0:0x00000000
       60785000	      6077	8000472c	00c2c263	blt	x5,x12,80004730	  x5:0x7f7f825f x12:0xffff3380
       60795000	      6078	80004730	00000013	addi	x0,x0,0	  x0:0x00000000
       60805000	      6079	80004734	9dd3e993	ori	x19,x7,-1571	  x7:0x00000040 x19=0xfffff9dd
       60815000	      6080	80004738	40b85a13	srai	x20,x16,0xb	 x16:0x0000ccdf x20=0x00000019
       60825000	      6081	8000473c	0177d733	srl	x14,x15,x23	 x15:0x00000006 x23:0xffffffcd x14=0x00000000
       60835000	      6082	80004740	11600063	beq	x0,x22,80004840	  x0:0x00000000 x22:0x00005253
       60845000	      6083	80004744	41848833	sub	x16,x9,x24	  x9:0x000001ff x24:0xfffffe54 x16=0x000003ab
       60855000	      6084	80004748	019749b3	xor	x19,x14,x25	 x14:0x00000000 x25:0xffffff92 x19=0xffffff92
       60865000	      6085	8000474c	f5f7e293	ori	x5,x15,-161	 x15:0x00000006  x5=0xffffff5f
       60875000	      6086	80004750	01ad31b3	sltu	x3,x26,x26	 x26:0xffffebbf x26:0xffffebbf  x3=0x00000000
       60885000	      6087	80004754	820d0293	addi	x5,x26,-2016	 x26:0xffffebbf  x5=0xffffe3df
       60895000	      6088	80004758	016d51b3	srl	x3,x26,x22	 x26:0xffffebbf x22:0x00005253  x3=0x00001fff
       60905000	      6089	8000475c	00ca9333	sll	x6,x21,x12	 x21:0x80009f40 x12:0xffff3380  x6=0x80009f40
       60915000	      6090	80004760	40615513	srai	x10,x2,0x6	  x2:0xb7aee122 x10=0xfedebb84
       60925000	      6091	80004764	018b7033	and	x0,x22,x24	 x22:0x00005253 x24:0xfffffe54
       60935000	      6092	80004768	010d1793	slli	x15,x26,0x10	 x26:0xffffebbf x15=0xebbf0000
       60945000	      6093	8000476c	00a43733	sltu	x14,x8,x10	  x8:0x00000000 x10:0xfedebb84 x14=0x00000001
       60955000	      6094	80004770	012d1e93	slli	x29,x26,0x12	 x26:0xffffebbf x29=0xaefc0000
       60965000	      6095	80004774	002cd463	bge	x25,x2,8000477c	 x25:0xffffff92  x2:0xb7aee122
       60975000	      6096	00000000	00000013	addi	x0,x0,0	  x0:0x00000000
       60985000	      6097	80004778	00000013	addi	x0,x0,0	  x0:0x00000000
       60995000	      6098	8000477c	0f419a63	bne	x3,x20,80004870	  x3:0x00001fff x20:0x00000019
       61005000	      6099	00000000	00000013	addi	x0,x0,0	  x0:0x00000000
       61015000	      6100	8000486c	00000013	addi	x0,x0,0	  x0:0x00000000
       61025000	      6101	80004870	0005c7b3	xor	x15,x11,x0	 x11:0xff802223  x0:0x00000000 x15=0xff802223
       61035000	      6102	80004874	0126d9b3	srl	x19,x13,x18	 x13:0x00000046 x18:0x80008b2e x19=0x00000000
       61045000	      6103	80004878	000f1c63	bne	x30,x0,80004890	 x30:0x00fff198  x0:0x00000000
       61055000	      6104	00000000	00000013	addi	x0,x0,0	  x0:0x00000000
       61065000	      6105	8000488c	00000013	addi	x0,x0,0	  x0:0x00000000
       61075000	      6106	80004890	01738f33	add	x30,x7,x23	  x7:0x00000040 x23:0xffffffcd x30=0x0000000d
       61085000	      6107	80004894	00281263	bne	x16,x2,80004898	 x16:0x000003ab  x2:0xb7aee122
       61095000	      6108	00000000	00000013	addi	x0,x0,0	  x0:0x00000000
       61105000	      6109	80004894	00000013	addi	x0,x0,0	  x0:0x00000000
       61115000	      6110	80004898	10dbf263	bgeu	x23,x13,8000499c	 x23:0xffffffcd x13:0x00000046
       61125000	      6111	00000000	00000013	addi	x0,x0,0	  x0:0x00000000
       61135000	      6112	80004998	00000013	addi	x0,x0,0	  x0:0x00000000
       61145000	      6113	8000499c	4097d9b3	sra	x19,x15,x9	 x15:0xff802223  x9:0x000001ff x19=0xffffffff
       61155000	      6114	800049a0	01df63b3	or	x7,x30,x29	 x30:0x0000000d x29:0xaefc0000  x7=0xaefc000d
       61165000	      6115	800049a4	aea23893	sltiu	x17,x4,-1302	  x4:0x0000cccd x17=0x00000001
       61175000	      6116	800049a8	501e0c37	lui	x24,0x501e0	 x24=0x501e0000
       61185000	      6117	800049ac	7fdea513	slti	x10,x29,2045	 x29:0xaefc0000 x10=0x00000001
       61195000	      6118	800049b0	01459d33	sll	x26,x11,x20	 x11:0xff802223 x20:0x00000019 x26=0x46000000
       61205000	      6119	800049b4	00c934b3	sltu	x9,x18,x12	 x18:0x80008b2e x12:0xffff3380  x9=0x00000001
       61215000	      6120	800049b8	2bc6fe13	andi	x28,x13,700	 x13:0x00000046 x28=0x00000004
       61225000	      6121	800049bc	00ec87b3	add	x15,x25,x14	 x25:0xffffff92 x14:0x00000001 x15=0xffffff93
       61235000	      6122	800049c0	0234f413	andi	x8,x9,35	  x9:0x00000001  x8=0x00000001
       61245000	      6123	800049c4	01f47f33	and	x30,x8,x31	  x8:0x00000001 x31:0x80009fc4 x30=0x00000000
       61255000	      6124	800049c8	02865663	bge	x12,x8,800049f4	 x12:0xffff3380  x8:0x00000001
       61265000	      6125	800049cc	00000013	addi	x0,x0,0	  x0:0x00000000
       61275000	      6126	800049d0	cee24297	auipc	x5,0xcee24	  x5=0x4ee289cc
       61285000	      6127	800049d4	5c72e913	ori	x18,x5,1479	  x5:0x4ee289cc x18=0x4ee28dcf
       61295000	      6128	800049d8	0814c393	xori	x7,x9,129	  x9:0x00000001  x7=0x00000080
       61305000	      6129	800049dc	6debad13	slti	x26,x23,1758	 x23:0xffffffcd x26=0x00000001
       61315000	      6130	800049e0	9fd18017	auipc	x0,0x9fd18	
       61325000	      6131	800049e4	a1d50293	addi	x5,x10,-1507	 x10:0x00000001  x5=0xfffffa1e
       61335000	      6132	800049e8	00b3ad33	slt	x26,x7,x11	  x7:0x00000080 x11:0xff802223 x26=0x00000000
       61345000	      6133	800049ec	417d5833	sra	x16,x26,x23	 x26:0x00000000 x23:0xffffffcd x16=0x00000000
       61355000	      6134	800049f0	00ed1613	slli	x12,x26,0xe	 x26:0x00000000 x12=0x00000000
       61365000	      6135	800049f4	001fd413	srli	x8,x31,0x1	 x31:0x80009fc4  x8=0x40004fe2
       61375000	      6136	800049f8	22a54093	xori	x1,x10,554	 x10:0x00000001  x1=0x0000022b
       61385000	      6137	800049fc	40085833	sra	x16,x16,x0	 x16:0x00000000  x0:0x00000000 x16=0x00000000
       61395000	      6138	80004a00	5e819397	auipc	x7,0x5e819	  x7=0xde81d9fc
       61405000	      6139	80004a04	00e49c33	sll	x24,x9,x14	  x9:0x00000001 x14:0x00000001 x24=0x00000002
       61415000	      6140	80004a08	00000013	addi	x0,x0,0	  x0:0x00000000
       61425000	      6141	80004a0c	407a0693	addi	x13,x20,1031	 x20:0x00000019 x13=0x00000420
       61435000	      6142	80004a10	02a6f463	bgeu	x13,x10,80004a38	 x13:0x00000420 x10:0x00000001
       61445000	      6143	00000000	00000013	addi	x0,x0,0	  x0:0x00000000
       61455000	      6144	80004a34	00000013	addi	x0,x0,0	  x0:0x00000000
       61465000	      6145	80004a38	016bb233	sltu	x4,x23,x22	 x23:0xffffffcd x22:0x00005253  x4=0x00000000
       61475000	      6146	80004a3c	01ce9b33	sll	x22,x29,x28	 x29:0xaefc0000 x28:0x00000004 x22=0xefc00000
       61485000	      6147	80004a40	002ded33	or	x26,x27,x2	 x27:0x00002223  x2:0xb7aee122 x26=0xb7aee323
       61495000	      6148	80004a44	0388cc63	blt	x17,x24,80004a7c	 x17:0x00000001 x24:0x00000002
       61505000	      6149	00000000	00000013	addi	x0,x0,0	  x0:0x00000000
       61515000	      6150	80004a78	00000013	addi	x0,x0,0	  x0:0x00000000
       61525000	      6151	80004a7c	4ffb8d93	addi	x27,x23,1279	 x23:0xffffffcd x27=0x000004cc
       61535000	      6152	80004a80	004b2b33	slt	x22,x22,x4	 x22:0xefc00000  x4:0x00000000 x22=0x00000001
       61545000	      6153	80004a84	c6397293	andi	x5,x18,-925	 x18:0x4ee28dcf  x5=0x4ee28c43
       61555000	      6154	80004a88	41d9dbb3	sra	x23,x19,x29	 x19:0xffffffff x29:0xaefc0000 x23=0xffffffff
       61565000	      6155	80004a8c	02421263	bne	x4,x4,80004ab0	  x4:0x00000000  x4:0x00000000
       61575000	      6156	80004a90	00000013	addi	x0,x0,0	  x0:0x00000000
       61585000	      6157	80004a94	00050c63	beq	x10,x0,80004aac	 x10:0x00000001  x0:0x00000000
       61595000	      6158	80004a98	00b1fbb3	and	x23,x3,x11	  x3:0x00001fff x11:0xff802223 x23=0x00000223
       61605000	      6159	80004a9c	016d8863	beq	x27,x22,80004aac	 x27:0x000004cc x22:0x00000001
       61615000	      6160	80004aa0	00c16933	or	x18,x2,x12	  x2:0xb7aee122 x12:0x00000000 x18=0xb7aee122
       61625000	      6161	80004aa4	04426463	bltu	x4,x4,80004aec	  x4:0x00000000  x4:0x00000000
       61635000	      6162	80004aa8	1de66493	ori	x9,x12,478	 x12:0x00000000  x9=0x000001de
       61645000	      6163	80004aac	00000013	addi	x0,x0,0	  x0:0x00000000
       61655000	      6164	80004ab0	412053b3	sra	x7,x0,x18	  x0:0x00000000 x18:0xb7aee122  x7=0x00000000
       61665000	      6165	80004ab4	00a65693	srli	x13,x12,0xa	 x12:0x00000000 x13=0x00000000
       61675000	      6166	80004ab8	01621533	sll	x10,x4,x22	  x4:0x00000000 x22:0x00000001 x10=0x00000000
       61685000	      6167	80004abc	0003fe63	bgeu	x7,x0,80004ad8	  x7:0x00000000  x0:0x00000000
       61695000	      6168	00000000	00000013	addi	x0,x0,0	  x0:0x00000000
       61705000	      6169	80004ad4	00000013	addi	x0,x0,0	  x0:0x00000000
       61715000	      6170	80004ad8	4172dc93	srai	x25,x5,0x17	  x5:0x4ee28c43 x25=0x0000009d
       61725000	      6171	80004adc	018af8b3	and	x17,x21,x24	 x21:0x80009f40 x24:0x00000002 x17=0x00000000
       61735000	      6172	80004ae0	00db8e63	beq	x23,x13,80004afc	 x23:0x00000223 x13:0x00000000
       61745000	      6173	80004ae4	00e8d013	srli	x0,x17,0xe	 x17:0x00000000
       61755000	      6174	80004ae8	00000013	addi	x0,x0,0	  x0:0x00000000
       61765000	      6175	80004aec	402052b3	sra	x5,x0,x2	  x0:0x00000000  x2:0xb7aee122  x5=0x00000000
       61775000	      6176	80004af0	ec965f37	lui	x30,0xec965	 x30=0xec965000
       61785000	      6177	80004af4	008d3233	sltu	x4,x26,x8	 x26:0xb7aee323  x8:0x40004fe2  x4=0x00000000
       61795000	      6178	80004af8	410d5d33	sra	x26,x26,x16	 x26:0xb7aee323 x16:0x00000000 x26=0xb7aee323
       61805000	      6179	80004afc	1d106613	ori	x12,x0,465	  x0:0x00000000 x12=0x000001d1
       61815000	      6180	80004b00	41eb8933	sub	x18,x23,x30	 x23:0x00000223 x30:0xec965000 x18=0x1369b223
       61825000	      6181	80004b04	e97d3093	sltiu	x1,x26,-361	 x26:0xb7aee323  x1=0x00000001
       61835000	      6182	80004b08	00b5fc33	and	x24,x11,x11	 x11:0xff802223 x11:0xff802223 x24=0xff802223
       61845000	      6183	80004b0c	00bd1793	slli	x15,x26,0xb	 x26:0xb7aee323 x15=0x77191800
       61855000	      6184	80004b10	01b279b3	and	x19,x4,x27	  x4:0x00000000 x27:0x000004cc x19=0x00000000
       61865000	      6185	80004b14	2a4d4293	xori	x5,x26,676	 x26:0xb7aee323  x5=0xb7aee187
       61875000	      6186	80004b18	01651a13	slli	x20,x10,0x16	 x10:0x00000000 x20=0x00000000
       61885000	      6187	80004b1c	00000013	addi	x0,x0,0	  x0:0x00000000
       61895000	      6188	80004b20	01362233	slt	x4,x12,x19	 x12:0x000001d1 x19:0x00000000  x4=0x00000000
       61905000	      6189	80004b24	019d4f33	xor	x30,x26,x25	 x26:0xb7aee323 x25:0x0000009d x30=0xb7aee3be
       61915000	      6190	80004b28	0077f033	and	x0,x15,x7	 x15:0x77191800  x7:0x00000000
       61925000	      6191	80004b2c	0193e263	bltu	x7,x25,80004b30	  x7:0x00000000 x25:0x0000009d
       61935000	      6192	00000000	00000013	addi	x0,x0,0	  x0:0x00000000
       61945000	      6193	80004b2c	00000013	addi	x0,x0,0	  x0:0x00000000
       61955000	      6194	80004b30	419650b3	sra	x1,x12,x25	 x12:0x000001d1 x25:0x0000009d  x1=0x00000000
       61965000	      6195	80004b34	01109463	bne	x1,x17,80004b3c	  x1:0x00000000 x17:0x00000000
       61975000	      6196	80004b38	01741993	slli	x19,x8,0x17	  x8:0x40004fe2 x19=0xf1000000
       61985000	      6197	80004b3c	00000013	addi	x0,x0,0	  x0:0x00000000
       61995000	      6198	80004b40	00b89493	slli	x9,x17,0xb	 x17:0x00000000  x9=0x00000000
       62005000	      6199	80004b44	00000013	addi	x0,x0,0	  x0:0x00000000
       62015000	      6200	80004b48	41f3de13	srai	x28,x7,0x1f	  x7:0x00000000 x28=0x00000000
       62025000	      6201	80004b4c	01ed7833	and	x16,x26,x30	 x26:0xb7aee323 x30:0xb7aee3be x16=0xb7aee322
       62035000	      6202	80004b50	401502b3	sub	x5,x10,x1	 x10:0x00000000  x1:0x00000000  x5=0x00000000
       62045000	      6203	80004b54	000e12b3	sll	x5,x28,x0	 x28:0x00000000  x0:0x00000000  x5=0x00000000
       62055000	      6204	80004b58	00839463	bne	x7,x8,80004b60	  x7:0x00000000  x8:0x40004fe2
       62065000	      6205	00000000	00000013	addi	x0,x0,0	  x0:0x00000000
       62075000	      6206	80004b5c	00000013	addi	x0,x0,0	  x0:0x00000000
       62085000	      6207	80004b60	41855bb3	sra	x23,x10,x24	 x10:0x00000000 x24:0xff802223 x23=0x00000000
       62095000	      6208	80004b64	411d8bb3	sub	x23,x27,x17	 x27:0x000004cc x17:0x00000000 x23=0x000004cc
       62105000	      6209	80004b68	0172c6b3	xor	x13,x5,x23	  x5:0x00000000 x23:0x000004cc x13=0x000004cc
       62115000	      6210	80004b6c	40c5d613	srai	x12,x11,0xc	 x11:0xff802223 x12=0xfffff802
       62125000	      6211	80004b70	00000013	addi	x0,x0,0	  x0:0x00000000
       62135000	      6212	80004b74	53114b97	auipc	x23,0x53114	 x23=0xd3118b70
       62145000	      6213	80004b78	00328863	beq	x5,x3,80004b88	  x5:0x00000000  x3:0x00001fff
       62155000	      6214	80004b7c	01ae9e93	slli	x29,x29,0x1a	 x29:0xaefc0000 x29=0x00000000
       62165000	      6215	80004b80	0100a513	slti	x10,x1,16	  x1:0x00000000 x10=0x00000001
       62175000	      6216	80004b84	00959813	slli	x16,x11,0x9	 x11:0xff802223 x16=0x00444600
       62185000	      6217	80004b88	008e6e63	bltu	x28,x8,80004ba4	 x28:0x00000000  x8:0x40004fe2
       62195000	      6218	00000000	00000013	addi	x0,x0,0	  x0:0x00000000
       62205000	      6219	80004ba0	00000013	addi	x0,x0,0	  x0:0x00000000
       62215000	      6220	80004ba4	02d6f463	bgeu	x13,x13,80004bcc	 x13:0x000004cc x13:0x000004cc
       62225000	      6221	00000000	00000013	addi	x0,x0,0	  x0:0x00000000
       62235000	      6222	80004bc8	00000013	addi	x0,x0,0	  x0:0x00000000
       62245000	      6223	80004bcc	0edf5063	bge	x30,x13,80004cac	 x30:0xb7aee3be x13:0x000004cc
       62255000	      6224	80004bd0	0cef8a63	beq	x31,x14,80004ca4	 x31:0x80009fc4 x14:0x00000001
       62265000	      6225	80004bd4	00004e17	auipc	x28,0x4	 x28=0x80008bd0
       62275000	      6226	80004bd8	fb0e0e13	addi	x28,x28,-80	 x28:0x80008bd0 x28=0x80008b80
       62285000	      6227	80004bdc	347e4983	lbu	x19,839(x28)	 x28:0x80008b80 x19=0x000000ac PA:0x80008ec7
       62295000	      6228	80004be0	2c9e0023	sb	x9,704(x28)	 x28:0x80008b80  x9:0x00000000 PA:0x80008e40
       62305000	      6229	80004be4	cd6e4883	lbu	x17,-810(x28)	 x28:0x80008b80 x17=0x0000003d PA:0x80008856
       62315000	      6230	80004be8	2a5e0503	lb	x10,677(x28)	 x28:0x80008b80 x10=0x0000000e PA:0x80008e25
       62325000	      6231	80004bec	f8de4083	lbu	x1,-115(x28)	 x28:0x80008b80  x1=0x000000f6 PA:0x80008b0d
       62335000	      6232	80004bf0	270e0da3	sb	x16,635(x28)	 x28:0x80008b80 x16:0x00444600 PA:0x80008dfb
       62345000	      6233	80004bf4	402606b3	sub	x13,x12,x2	 x12:0xfffff802  x2:0xb7aee122 x13=0x485116e0
       62355000	      6234	80004bf8	face1c03	lh	x24,-84(x28)	 x28:0x80008b80 x24=0x00001617 PA:0x80008b2c
       62365000	      6235	80004bfc	41305313	srai	x6,x0,0x13	  x0:0x00000000  x6=0x00000000
       62375000	      6236	80004c00	13de4a03	lbu	x20,317(x28)	 x28:0x80008b80 x20=0x000000a6 PA:0x80008cbd
       62385000	      6237	80004c04	1c8e4e83	lbu	x29,456(x28)	 x28:0x80008b80 x29=0x00000033 PA:0x80008d48
       62395000	      6238	80004c08	fe3e4183	lbu	x3,-29(x28)	 x28:0x80008b80  x3=0x00000048 PA:0x80008b63
       62405000	      6239	80004c0c	06ce4783	lbu	x15,108(x28)	 x28:0x80008b80 x15=0x000000d7 PA:0x80008bec
       62415000	      6240	80004c10	01e19e93	slli	x29,x3,0x1e	  x3:0x00000048 x29=0x00000000
       62425000	      6241	80004c14	dbce1c83	lh	x25,-580(x28)	 x28:0x80008b80 x25=0x00002627 PA:0x8000893c
       62435000	      6242	80004c18	dd3e0da3	sb	x19,-549(x28)	 x28:0x80008b80 x19:0x000000ac PA:0x8000895b
       62445000	      6243	80004c1c	40810033	sub	x0,x2,x8	  x2:0xb7aee122  x8:0x40004fe2
       62455000	      6244	80004c20	38f2f293	andi	x5,x5,911	  x5:0x00000000  x5=0x00000000
       62465000	      6245	80004c24	2cef7513	andi	x10,x30,718	 x30:0xb7aee3be x10=0x0000028e
       62475000	      6246	80004c28	c7bbfc13	andi	x24,x23,-901	 x23:0xd3118b70 x24=0xd3118870
       62485000	      6247	80004c2c	01c5d893	srli	x17,x11,0x1c	 x11:0xff802223 x17=0x0000000f
       62495000	      6248	80004c30	d24e4983	lbu	x19,-732(x28)	 x28:0x80008b80 x19=0x0000008f PA:0x800088a4
       62505000	      6249	80004c34	01be4c03	lbu	x24,27(x28)	 x28:0x80008b80 x24=0x00000080 PA:0x80008b9b
       62515000	      6250	80004c38	3e5e4a03	lbu	x20,997(x28)	 x28:0x80008b80 x20=0x0000004e PA:0x80008f65
       62525000	      6251	80004c3c	424e5203	lhu	x4,1060(x28)	 x28:0x80008b80  x4=0x00008e8f PA:0x80008fa4
       62535000	      6252	80004c40	f82e4c03	lbu	x24,-126(x28)	 x28:0x80008b80 x24=0x000000e9 PA:0x80008b02
       62545000	      6253	80004c44	a878e393	ori	x7,x17,-1401	 x17:0x0000000f  x7=0xfffffa8f
       62555000	      6254	80004c48	415e4303	lbu	x6,1045(x28)	 x28:0x80008b80  x6=0x0000007e PA:0x80008f95
       62565000	      6255	80004c4c	36ae5a03	lhu	x20,874(x28)	 x28:0x80008b80 x20=0x0000d0d1 PA:0x80008eea
       62575000	      6256	80004c50	391e2a23	sw	x17,916(x28)	 x28:0x80008b80 x17:0x0000000f PA:0x80008f14
       62585000	      6257	80004c54	f83e0f03	lb	x30,-125(x28)	 x28:0x80008b80 x30=0xffffffe8 PA:0x80008b03
       62595000	      6258	80004c58	00a259b3	srl	x19,x4,x10	  x4:0x00008e8f x10:0x0000028e x19=0x00000002
       62605000	      6259	80004c5c	01f09033	sll	x0,x1,x31	  x1:0x000000f6 x31:0x80009fc4
       62615000	      6260	80004c60	01ee1313	slli	x6,x28,0x1e	 x28:0x80008b80  x6=0x00000000
       62625000	      6261	80004c64	e94e4203	lbu	x4,-364(x28)	 x28:0x80008b80  x4=0x00000022 PA:0x80008a14
       62635000	      6262	80004c68	00ea5213	srli	x4,x20,0xe	 x20:0x0000d0d1  x4=0x00000003
       62645000	      6263	80004c6c	03ae5883	lhu	x17,58(x28)	 x28:0x80008b80 x17=0x0000a0a1 PA:0x80008bba
       62655000	      6264	00000000	00000013	addi	x0,x0,0	  x0:0x00000000
       62665000	      6265	80004c70	8818a593	slti	x11,x17,-1919	 x17:0x0000a0a1 x11=0x00000000
       62675000	      6266	80004c74	01b92933	slt	x18,x18,x27	 x18:0x1369b223 x27:0x000004cc x18=0x00000000
       62685000	      6267	80004c78	3fce2a03	lw	x20,1020(x28)	 x28:0x80008b80 x20=0x64656667 PA:0x80008f7c
       62695000	      6268	80004c7c	001ef3b3	and	x7,x29,x1	 x29:0x00000000  x1:0x000000f6  x7=0x00000000
       62705000	      6269	80004c80	026e1b23	sh	x6,54(x28)	 x28:0x80008b80  x6:0x00000000 PA:0x80008bb6
       62715000	      6270	80004c84	1eee1283	lh	x5,494(x28)	 x28:0x80008b80  x5=0x00005455 PA:0x80008d6e
       62725000	      6271	80004c88	01cc2bb3	slt	x23,x24,x28	 x24:0x000000e9 x28:0x80008b80 x23=0x00000000
       62735000	      6272	80004c8c	0dde0183	lb	x3,221(x28)	 x28:0x80008b80  x3=0x00000046 PA:0x80008c5d
       62745000	      6273	80004c90	01b39713	slli	x14,x7,0x1b	  x7:0x00000000 x14=0x00000000
       62755000	      6274	80004c94	f08b8c17	auipc	x24,0xf08b8	 x24=0x708bcc90
       62765000	      6275	80004c98	00000013	addi	x0,x0,0	  x0:0x00000000
       62775000	      6276	80004c9c	01fa6db3	or	x27,x20,x31	 x20:0x64656667 x31:0x80009fc4 x27=0xe465ffe7
       62785000	      6277	80004ca0	01bee2b3	or	x5,x29,x27	 x29:0x00000000 x27:0xe465ffe7  x5=0xe465ffe7
       62795000	      6278	80004ca4	41c1d433	sra	x8,x3,x28	  x3:0x00000046 x28:0x80008b80  x8=0x00000046
       62805000	      6279	80004ca8	b649ec93	ori	x25,x19,-1180	 x19:0x00000002 x25=0xfffffb66
       62815000	      6280	80004cac	0181d613	srli	x12,x3,0x18	  x3:0x00000046 x12=0x00000000
       62825000	      6281	80004cb0	379c2593	slti	x11,x24,889	 x24:0x708bcc90 x11=0x00000000
       62835000	      6282	80004cb4	0043f7b3	and	x15,x7,x4	  x7:0x00000000  x4:0x00000003 x15=0x00000000
       62845000	      6283	80004cb8	4049dd13	srai	x26,x19,0x4	 x19:0x00000002 x26=0x00000000
       62855000	      6284	80004cbc	d59c7937	lui	x18,0xd59c7	 x18=0xd59c7000
       62865000	      6285	80004cc0	00003e97	auipc	x29,0x3	 x29=0x80007cbc
       62875000	      6286	80004cc4	59de8e93	addi	x29,x29,1437	 x29:0x80007cbc x29=0x80008259
       62885000	      6287	80004cc8	76134693	xori	x13,x6,1889	  x6:0x00000000 x13=0x00000761
       62895000	      6288	80004ccc	2404c937	lui	x18,0x2404c	 x18=0x2404c000
       62905000	      6289	80004cd0	5d256d93	ori	x27,x10,1490	 x10:0x0000028e x27=0x000007de
       62915000	      6290	80004cd4	fd0ecc83	lbu	x25,-48(x29)	 x29:0x80008259 x25=0x000000e2 PA:0x80008229
       62925000	      6291	80004cd8	367c3513	sltiu	x10,x24,871	 x24:0x708bcc90 x10=0x00000000
       62935000	      6292	80004cdc	f9bed183	lhu	x3,-101(x29)	 x29:0x80008259  x3=0x0000aeaf PA:0x800081f4
       62945000	      6293	80004ce0	00581c93	slli	x25,x16,0x5	 x16:0x00444600 x25=0x0888c000
       62955000	      6294	80004ce4	fd8e8b83	lb	x23,-40(x29)	 x29:0x80008259 x23=0xffffffea PA:0x80008231
       62965000	      6295	80004ce8	f2ee8c23	sb	x14,-200(x29)	 x29:0x80008259 x14:0x00000000 PA:0x80008191
       62975000	      6296	80004cec	0bfed403	lhu	x8,191(x29)	 x29:0x80008259  x8=0x0000d2d3 PA:0x80008318
       62985000	      6297	80004cf0	01ce7233	and	x4,x28,x28	 x28:0x80008b80 x28:0x80008b80  x4=0x80008b80
       62995000	      6298	80004cf4	40705413	srai	x8,x0,0x7	  x0:0x00000000  x8=0x00000000
       63005000	      6299	80004cf8	0c52b613	sltiu	x12,x5,197	  x5:0xe465ffe7 x12=0x00000000
       63015000	      6300	80004cfc	fd8e8383	lb	x7,-40(x29)	 x29:0x80008259  x7=0xffffffea PA:0x80008231
       63025000	      6301	80004d00	0e4aa393	slti	x7,x21,228	 x21:0x80009f40  x7=0x00000001
       63035000	      6302	80004d04	0e0e84a3	sb	x0,233(x29)	 x29:0x80008259  x0:0x00000000 PA:0x80008342
       63045000	      6303	80004d08	004e8903	lb	x18,4(x29)	 x29:0x80008259 x18=0x00000016 PA:0x8000825d
       63055000	      6304	80004d0c	01c2ee33	or	x28,x5,x28	  x5:0xe465ffe7 x28:0x80008b80 x28=0xe465ffe7
       63065000	      6305	80004d10	0ffe9b83	lh	x23,255(x29)	 x29:0x80008259 x23=0x00001213 PA:0x80008358
       63075000	      6306	80004d14	f66e8b83	lb	x23,-154(x29)	 x29:0x80008259 x23=0x00000074 PA:0x800081bf
       63085000	      6307	80004d18	4117db93	srai	x23,x15,0x11	 x15:0x00000000 x23=0x00000000
       63095000	      6308	80004d1c	0120c433	xor	x8,x1,x18	  x1:0x000000f6 x18:0x00000016  x8=0x000000e0
       63105000	      6309	80004d20	09ae8883	lb	x17,154(x29)	 x29:0x80008259 x17=0xffffffa8 PA:0x800082f3
       63115000	      6310	80004d24	f99ed183	lhu	x3,-103(x29)	 x29:0x80008259  x3=0x0000a8a9 PA:0x800081f2
       63125000	      6311	80004d28	00000013	addi	x0,x0,0	  x0:0x00000000
       63135000	      6312	80004d2c	00de1f33	sll	x30,x28,x13	 x28:0xe465ffe7 x13:0x00000761 x30=0xc8cbffce
       63145000	      6313	80004d30	32ee1017	auipc	x0,0x32ee1	
       63155000	      6314	80004d34	01594233	xor	x4,x18,x21	 x18:0x00000016 x21:0x80009f40  x4=0x80009f56
       63165000	      6315	80004d38	f92e8603	lb	x12,-110(x29)	 x29:0x80008259 x12=0xffffffa0 PA:0x800081eb
       63175000	      6316	80004d3c	00798b33	add	x22,x19,x7	 x19:0x00000002  x7:0x00000001 x22=0x00000003
       63185000	      6317	80004d40	0e0ec803	lbu	x16,224(x29)	 x29:0x80008259 x16=0x000000f2 PA:0x80008339
       63195000	      6318	80004d44	d269b313	sltiu	x6,x19,-730	 x19:0x00000002  x6=0x00000001
       63205000	      6319	80004d48	fa7e8e23	sb	x7,-68(x29)	 x29:0x80008259  x7:0x00000001 PA:0x80008215
       63215000	      6320	80004d4c	94b46f13	ori	x30,x8,-1717	  x8:0x000000e0 x30=0xfffff9eb
       63225000	      6321	80004d50	01b666b3	or	x13,x12,x27	 x12:0xffffffa0 x27:0x000007de x13=0xfffffffe
       63235000	      6322	80004d54	01d7d533	srl	x10,x15,x29	 x15:0x00000000 x29:0x80008259 x10=0x00000000
       63245000	      6323	80004d58	837ea413	slti	x8,x29,-1993	 x29:0x80008259  x8=0x00000001
       63255000	      6324	80004d5c	009e8323	sb	x9,6(x29)	 x29:0x80008259  x9:0x00000000 PA:0x8000825f
       63265000	      6325	80004d60	fe3ec483	lbu	x9,-29(x29)	 x29:0x80008259  x9=0x000000f7 PA:0x8000823c
       63275000	      6326	80004d64	0c2ec483	lbu	x9,194(x29)	 x29:0x80008259  x9=0x000000d0 PA:0x8000831b
       63285000	      6327	80004d68	ff45b893	sltiu	x17,x11,-12	 x11:0x00000000 x17=0x00000001
       63295000	      6328	80004d6c	002b4933	xor	x18,x22,x2	 x22:0x00000003  x2:0xb7aee122 x18=0xb7aee121
       63305000	      6329	80004d70	bcecaa13	slti	x20,x25,-1074	 x25:0x0888c000 x20=0x00000000
       63315000	      6330	80004d74	05ae8d03	lb	x26,90(x29)	 x29:0x80008259 x26=0x00000056 PA:0x800082b3
       63325000	      6331	80004d78	06aecc83	lbu	x25,106(x29)	 x29:0x80008259 x25=0x00000000 PA:0x800082c3
       63335000	      6332	80004d7c	0e8e8aa3	sb	x8,245(x29)	 x29:0x80008259  x8:0x00000001 PA:0x8000834e
       63345000	      6333	80004d80	044e8d23	sb	x4,90(x29)	 x29:0x80008259  x4:0x80009f56 PA:0x800082b3
       63355000	      6334	80004d84	f52e8d03	lb	x26,-174(x29)	 x29:0x80008259 x26=0x00000060 PA:0x800081ab
       63365000	      6335	80004d88	f9fe8f23	sb	x31,-98(x29)	 x29:0x80008259 x31:0x80009fc4 PA:0x800081f7
       63375000	      6336	80004d8c	f53e9983	lh	x19,-173(x29)	 x29:0x80008259 x19=0x00006667 PA:0x800081ac
       63385000	      6337	80004d90	0047a5b3	slt	x11,x15,x4	 x15:0x00000000  x4:0x80009f56 x11=0x00000000
       63395000	      6338	80004d94	0160b3b3	sltu	x7,x1,x22	  x1:0x000000f6 x22:0x00000003  x7=0x00000000
       63405000	      6339	80004d98	fcbe8e03	lb	x28,-53(x29)	 x29:0x80008259 x28=0xffffffdf PA:0x80008224
       63415000	      6340	80004d9c	077e8523	sb	x23,106(x29)	 x29:0x80008259 x23:0x00000000 PA:0x800082c3
       63425000	      6341	80004da0	01cf43b3	xor	x7,x30,x28	 x30:0xfffff9eb x28:0xffffffdf  x7=0x00000634
       63435000	      6342	80004da4	38a63093	sltiu	x1,x12,906	 x12:0xffffffa0  x1=0x00000000
       63445000	      6343	80004da8	000c6eb3	or	x29,x24,x0	 x24:0x708bcc90  x0:0x00000000 x29=0x708bcc90
       63455000	      6344	80004dac	014e9c33	sll	x24,x29,x20	 x29:0x708bcc90 x20:0x00000000 x24=0x708bcc90
       63465000	      6345	80004db0	2766a413	slti	x8,x13,630	 x13:0xfffffffe  x8=0x00000001
       63475000	      6346	80004db4	0307d263	bge	x15,x16,80004dd8	 x15:0x00000000 x16:0x000000f2
       63485000	      6347	80004db8	31b8b213	sltiu	x4,x17,795	 x17:0x00000001  x4=0x00000001
       63495000	      6348	80004dbc	02961c63	bne	x12,x9,80004df4	 x12:0xffffffa0  x9:0x000000d0
       63505000	      6349	00000000	00000013	addi	x0,x0,0	  x0:0x00000000
       63515000	      6350	80004df0	00000013	addi	x0,x0,0	  x0:0x00000000
       63525000	      6351	80004df4	40b2d1b3	sra	x3,x5,x11	  x5:0xe465ffe7 x11:0x00000000  x3=0xe465ffe7
       63535000	      6352	80004df8	007d1e63	bne	x26,x7,80004e14	 x26:0x00000060  x7:0x00000634
       63545000	      6353	00000000	00000013	addi	x0,x0,0	  x0:0x00000000
       63555000	      6354	80004e10	00000013	addi	x0,x0,0	  x0:0x00000000
       63565000	      6355	80004e14	8e99f397	auipc	x7,0x8e99f	  x7=0x0e9a3e10
       63575000	      6356	80004e18	039f1863	bne	x30,x25,80004e48	 x30:0xfffff9eb x25:0x00000000
       63585000	      6357	00000000	00000013	addi	x0,x0,0	  x0:0x00000000
       63595000	      6358	80004e44	00000013	addi	x0,x0,0	  x0:0x00000000
       63605000	      6359	80004e48	00c5b033	sltu	x0,x11,x12	 x11:0x00000000 x12:0xffffffa0
       63615000	      6360	80004e4c	036d4c63	blt	x26,x22,80004e84	 x26:0x00000060 x22:0x00000003
       63625000	      6361	80004e50	014bf463	bgeu	x23,x20,80004e58	 x23:0x00000000 x20:0x00000000
       63635000	      6362	00000000	00000013	addi	x0,x0,0	  x0:0x00000000
       63645000	      6363	80004e54	00000013	addi	x0,x0,0	  x0:0x00000000
       63655000	      6364	80004e58	5dbefb93	andi	x23,x29,1499	 x29:0x708bcc90 x23=0x00000490
       63665000	      6365	80004e5c	46cc2f37	lui	x30,0x46cc2	 x30=0x46cc2000
       63675000	      6366	80004e60	000716b3	sll	x13,x14,x0	 x14:0x00000000  x0:0x00000000 x13=0x00000000
       63685000	      6367	80004e64	018dd393	srli	x7,x27,0x18	 x27:0x000007de  x7=0x00000000
       63695000	      6368	80004e68	ad348d93	addi	x27,x9,-1325	  x9:0x000000d0 x27=0xfffffba3
       63705000	      6369	80004e6c	008af5b3	and	x11,x21,x8	 x21:0x80009f40  x8:0x00000001 x11=0x00000000
       63715000	      6370	80004e70	01751613	slli	x12,x10,0x17	 x10:0x00000000 x12=0x00000000
       63725000	      6371	80004e74	00cf0c63	beq	x30,x12,80004e8c	 x30:0x46cc2000 x12:0x00000000
       63735000	      6372	80004e78	224af913	andi	x18,x21,548	 x21:0x80009f40 x18=0x00000200
       63745000	      6373	80004e7c	019b5b93	srli	x23,x22,0x19	 x22:0x00000003 x23=0x00000000
       63755000	      6374	80004e80	034d1063	bne	x26,x20,80004ea0	 x26:0x00000060 x20:0x00000000
       63765000	      6375	00000000	00000013	addi	x0,x0,0	  x0:0x00000000
       63775000	      6376	80004e9c	00000013	addi	x0,x0,0	  x0:0x00000000
       63785000	      6377	80004ea0	0073fa33	and	x20,x7,x7	  x7:0x00000000  x7:0x00000000 x20=0x00000000
       63795000	      6378	80004ea4	05e2c863	blt	x5,x30,80004ef4	  x5:0xe465ffe7 x30:0x46cc2000
       63805000	      6379	00000000	00000013	addi	x0,x0,0	  x0:0x00000000
       63815000	      6380	80004ef0	00000013	addi	x0,x0,0	  x0:0x00000000
       63825000	      6381	80004ef4	40a9d313	srai	x6,x19,0xa	 x19:0x00006667  x6=0x00000019
       63835000	      6382	80004ef8	2253ce93	xori	x29,x7,549	  x7:0x00000000 x29=0x00000225
       63845000	      6383	80004efc	012f19b3	sll	x19,x30,x18	 x30:0x46cc2000 x18:0x00000200 x19=0x46cc2000
       63855000	      6384	80004f00	01bf1c93	slli	x25,x30,0x1b	 x30:0x46cc2000 x25=0x00000000
       63865000	      6385	80004f04	41e2d4b3	sra	x9,x5,x30	  x5:0xe465ffe7 x30:0x46cc2000  x9=0xe465ffe7
       63875000	      6386	80004f08	01a00733	add	x14,x0,x26	  x0:0x00000000 x26:0x00000060 x14=0x00000060
       63885000	      6387	80004f0c	05fc0863	beq	x24,x31,80004f5c	 x24:0x708bcc90 x31:0x80009fc4
       63895000	      6388	80004f10	00c79863	bne	x15,x12,80004f20	 x15:0x00000000 x12:0x00000000
       63905000	      6389	80004f14	a0184c13	xori	x24,x16,-1535	 x16:0x000000f2 x24=0xfffffaf3
       63915000	      6390	80004f18	00c594b3	sll	x9,x11,x12	 x11:0x00000000 x12:0x00000000  x9=0x00000000
       63925000	      6391	80004f1c	0018bc33	sltu	x24,x17,x1	 x17:0x00000001  x1:0x00000000 x24=0x00000000
       63935000	      6392	80004f20	0036ae33	slt	x28,x13,x3	 x13:0x00000000  x3:0xe465ffe7 x28=0x00000000
       63945000	      6393	80004f24	3d5467b7	lui	x15,0x3d546	 x15=0x3d546000
       63955000	      6394	80004f28	00797db3	and	x27,x18,x7	 x18:0x00000200  x7:0x00000000 x27=0x00000000
       63965000	      6395	80004f2c	110a1917	auipc	x18,0x110a1	 x18=0x910a5f28
       63975000	      6396	80004f30	0544c063	blt	x9,x20,80004f70	  x9:0x00000000 x20:0x00000000
       63985000	      6397	80004f34	00258a33	add	x20,x11,x2	 x11:0x00000000  x2:0xb7aee122 x20=0xb7aee122
       63995000	      6398	80004f38	03765263	bge	x12,x23,80004f5c	 x12:0x00000000 x23:0x00000000
       64005000	      6399	00000000	00000013	addi	x0,x0,0	  x0:0x00000000
       64015000	      6400	80004f58	00000013	addi	x0,x0,0	  x0:0x00000000
       64025000	      6401	80004f5c	8c2d8f37	lui	x30,0x8c2d8	 x30=0x8c2d8000
       64035000	      6402	80004f60	40178eb3	sub	x29,x15,x1	 x15:0x3d546000  x1:0x00000000 x29=0x3d546000
       64045000	      6403	80004f64	402bdf13	srai	x30,x23,0x2	 x23:0x00000000 x30=0x00000000
       64055000	      6404	80004f68	00a15613	srli	x12,x2,0xa	  x2:0xb7aee122 x12=0x002debb8
       64065000	      6405	80004f6c	01880e33	add	x28,x16,x24	 x16:0x000000f2 x24:0x00000000 x28=0x000000f2
       64075000	      6406	80004f70	00d5f7b3	and	x15,x11,x13	 x11:0x00000000 x13:0x00000000 x15=0x00000000
       64085000	      6407	80004f74	e0e4c397	auipc	x7,0xe0e4c	  x7=0x60e50f70
       64095000	      6408	80004f78	03945663	bge	x8,x25,80004fa4	  x8:0x00000001 x25:0x00000000
       64105000	      6409	00000000	00000013	addi	x0,x0,0	  x0:0x00000000
       64115000	      6410	80004fa0	00000013	addi	x0,x0,0	  x0:0x00000000
       64125000	      6411	80004fa4	03d71463	bne	x14,x29,80004fcc	 x14:0x00000060 x29:0x3d546000
       64135000	      6412	00000000	00000013	addi	x0,x0,0	  x0:0x00000000
       64145000	      6413	80004fc8	00000013	addi	x0,x0,0	  x0:0x00000000
       64155000	      6414	80004fcc	1e7649b7	lui	x19,0x1e764	 x19=0x1e764000
       64165000	      6415	80004fd0	73f28b13	addi	x22,x5,1855	  x5:0xe465ffe7 x22=0xe4660726
       64175000	      6416	80004fd4	01471793	slli	x15,x14,0x14	 x14:0x00000060 x15=0x06000000
       64185000	      6417	80004fd8	00ce2533	slt	x10,x28,x12	 x28:0x000000f2 x12:0x002debb8 x10=0x00000001
       64195000	      6418	80004fdc	02578c63	beq	x15,x5,80005014	 x15:0x06000000  x5:0xe465ffe7
       64205000	      6419	80004fe0	85a52393	slti	x7,x10,-1958	 x10:0x00000001  x7=0x00000000
       64215000	      6420	80004fe4	447f2a13	slti	x20,x30,1095	 x30:0x00000000 x20=0x00000001
       64225000	      6421	80004fe8	4152d333	sra	x6,x5,x21	  x5:0xe465ffe7 x21:0x80009f40  x6=0xe465ffe7
       64235000	      6422	80004fec	00000013	addi	x0,x0,0	  x0:0x00000000
       64245000	      6423	80004ff0	5f960d13	addi	x26,x12,1529	 x12:0x002debb8 x26=0x002df1b1
       64255000	      6424	80004ff4	19126e93	ori	x29,x4,401	  x4:0x00000001 x29=0x00000191
       64265000	      6425	80004ff8	008b23b3	slt	x7,x22,x8	 x22:0xe4660726  x8:0x00000001  x7=0x00000001
       64275000	      6426	80004ffc	007bf233	and	x4,x23,x7	 x23:0x00000000  x7:0x00000001  x4=0x00000000
       64285000	      6427	80005000	41295733	sra	x14,x18,x18	 x18:0x910a5f28 x18:0x910a5f28 x14=0xff910a5f
       64295000	      6428	80005004	4ef08397	auipc	x7,0x4ef08	  x7=0xcef0d000
       64305000	      6429	80005008	fb46a437	lui	x8,0xfb46a	  x8=0xfb46a000
       64315000	      6430	8000500c	00dd54b3	srl	x9,x26,x13	 x26:0x002df1b1 x13:0x00000000  x9=0x002df1b1
       64325000	      6431	80005010	84f72b13	slti	x22,x14,-1969	 x14:0xff910a5f x22=0x00000001
       64335000	      6432	80005014	b9b2c093	xori	x1,x5,-1125	  x5:0xe465ffe7  x1=0x1b9a047c
       64345000	      6433	80005018	011124b3	slt	x9,x2,x17	  x2:0xb7aee122 x17:0x00000001  x9=0x00000001
       64355000	      6434	8000501c	42032f13	slti	x30,x6,1056	  x6:0xe465ffe7 x30=0x00000001
       64365000	      6435	80005020	017d0c63	beq	x26,x23,80005038	 x26:0x002df1b1 x23:0x00000000
       64375000	      6436	80005024	01ffeb33	or	x22,x31,x31	 x31:0x80009fc4 x31:0x80009fc4 x22=0x80009fc4
       64385000	      6437	80005028	bf218393	addi	x7,x3,-1038	  x3:0xe465ffe7  x7=0xe465fbd9
       64395000	      6438	8000502c	01927333	and	x6,x4,x25	  x4:0x00000000 x25:0x00000000  x6=0x00000000
       64405000	      6439	80005030	d88603b7	lui	x7,0xd8860	  x7=0xd8860000
       64415000	      6440	80005034	00000013	addi	x0,x0,0	  x0:0x00000000
       64425000	      6441	80005038	0136f463	bgeu	x13,x19,80005040	 x13:0x00000000 x19:0x1e764000
       64435000	      6442	8000503c	013f5e93	srli	x29,x30,0x13	 x30:0x00000001 x29=0x00000000
       64445000	      6443	80005040	3b4a6497	auipc	x9,0x3b4a6	  x9=0xbb4ab03c
       64455000	      6444	80005044	41323b13	sltiu	x22,x4,1043	  x4:0x00000000 x22=0x00000001
       64465000	      6445	80005048	00cd9463	bne	x27,x12,80005050	 x27:0x00000000 x12:0x002debb8
       64475000	      6446	00000000	00000013	addi	x0,x0,0	  x0:0x00000000
       64485000	      6447	8000504c	00000013	addi	x0,x0,0	  x0:0x00000000
       64495000	      6448	80005050	401b8b33	sub	x22,x23,x1	 x23:0x00000000  x1:0x1b9a047c x22=0xe465fb84
       64505000	      6449	80005054	001815b3	sll	x11,x16,x1	 x16:0x000000f2  x1:0x1b9a047c x11=0x20000000
       64515000	      6450	80005058	00129793	slli	x15,x5,0x1	  x5:0xe465ffe7 x15=0xc8cbffce
       64525000	      6451	8000505c	03a1fc63	bgeu	x3,x26,80005094	  x3:0xe465ffe7 x26:0x002df1b1
       64535000	      6452	00000000	00000013	addi	x0,x0,0	  x0:0x00000000
       64545000	      6453	80005090	00000013	addi	x0,x0,0	  x0:0x00000000
       64555000	      6454	80005094	40dcdc13	srai	x24,x25,0xd	 x25:0x00000000 x24=0x00000000
       64565000	      6455	80005098	00000013	addi	x0,x0,0	  x0:0x00000000
       64575000	      6456	8000509c	6c4df493	andi	x9,x27,1732	 x27:0x00000000  x9=0x00000000
       64585000	      6457	800050a0	e9792813	slti	x16,x18,-361	 x18:0x910a5f28 x16=0x00000001
       64595000	      6458	800050a4	03a64c63	blt	x12,x26,800050dc	 x12:0x002debb8 x26:0x002df1b1
       64605000	      6459	00000000	00000013	addi	x0,x0,0	  x0:0x00000000
       64615000	      6460	800050d8	00000013	addi	x0,x0,0	  x0:0x00000000
       64625000	      6461	800050dc	1541fc93	andi	x25,x3,340	  x3:0xe465ffe7 x25=0x00000144
       64635000	      6462	800050e0	3fce9517	auipc	x10,0x3fce9	 x10=0xbfcee0dc
       64645000	      6463	800050e4	00f53f33	sltu	x30,x10,x15	 x10:0xbfcee0dc x15:0xc8cbffce x30=0x00000001
       64655000	      6464	800050e8	018bee63	bltu	x23,x24,80005104	 x23:0x00000000 x24:0x00000000
       64665000	      6465	800050ec	01a48863	beq	x9,x26,800050fc	  x9:0x00000000 x26:0x002df1b1
       64675000	      6466	800050f0	000e4263	blt	x28,x0,800050f4	 x28:0x000000f2  x0:0x00000000
       64685000	      6467	800050f4	013ad813	srli	x16,x21,0x13	 x21:0x80009f40 x16=0x00001000
       64695000	      6468	800050f8	f1f5cc13	xori	x24,x11,-225	 x11:0x20000000 x24=0xdfffff1f
       64705000	      6469	800050fc	40075a33	sra	x20,x14,x0	 x14:0xff910a5f  x0:0x00000000 x20=0xff910a5f
       64715000	      6470	80005100	009adc63	bge	x21,x9,80005118	 x21:0x80009f40  x9:0x00000000
       64725000	      6471	80005104	e02d6637	lui	x12,0xe02d6	 x12=0xe02d6000
       64735000	      6472	80005108	c133ce93	xori	x29,x7,-1005	  x7:0xd8860000 x29=0x2779fc13
       64745000	      6473	8000510c	031c2793	slti	x15,x24,49	 x24:0xdfffff1f x15=0x00000001
       64755000	      6474	80005110	41515733	sra	x14,x2,x21	  x2:0xb7aee122 x21:0x80009f40 x14=0xb7aee122
       64765000	      6475	80005114	0038a9b3	slt	x19,x17,x3	 x17:0x00000001  x3:0xe465ffe7 x19=0x00000000
       64775000	      6476	80005118	00a9c463	blt	x19,x10,80005120	 x19:0x00000000 x10:0xbfcee0dc
       64785000	      6477	8000511c	f8096513	ori	x10,x18,-128	 x18:0x910a5f28 x10=0xffffffa8
       64795000	      6478	80005120	00f5abb3	slt	x23,x11,x15	 x11:0x20000000 x15:0x00000001 x23=0x00000000
       64805000	      6479	80005124	01f67eb3	and	x29,x12,x31	 x12:0xe02d6000 x31:0x80009fc4 x29=0x80000000
       64815000	      6480	80005128	0129d013	srli	x0,x19,0x12	 x19:0x00000000
       64825000	      6481	8000512c	03caf063	bgeu	x21,x28,8000514c	 x21:0x80009f40 x28:0x000000f2
       64835000	      6482	00000000	00000013	addi	x0,x0,0	  x0:0x00000000
       64845000	      6483	80005148	00000013	addi	x0,x0,0	  x0:0x00000000
       64855000	      6484	8000514c	00e5abb3	slt	x23,x11,x14	 x11:0x20000000 x14:0xb7aee122 x23=0x00000000
       64865000	      6485	80005150	0003cd33	xor	x26,x7,x0	  x7:0xd8860000  x0:0x00000000 x26=0xd8860000
       64875000	      6486	80005154	af678893	addi	x17,x15,-1290	 x15:0x00000001 x17=0xfffffaf7
       64885000	      6487	80005158	89d17f13	andi	x30,x2,-1891	  x2:0xb7aee122 x30=0xb7aee000
       64895000	      6488	8000515c	406e5eb3	sra	x29,x28,x6	 x28:0x000000f2  x6:0x00000000 x29=0x000000f2
       64905000	      6489	80005160	0183d8b3	srl	x17,x7,x24	  x7:0xd8860000 x24:0xdfffff1f x17=0x00000001
       64915000	      6490	80005164	00000013	addi	x0,x0,0	  x0:0x00000000
       64925000	      6491	80005168	fce6fe13	andi	x28,x13,-50	 x13:0x00000000 x28=0x00000000
       64935000	      6492	8000516c	031a5c63	bge	x20,x17,800051a4	 x20:0xff910a5f x17:0x00000001
       64945000	      6493	80005170	010aadb3	slt	x27,x21,x16	 x21:0x80009f40 x16:0x00001000 x27=0x00000001
       64955000	      6494	80005174	0071de63	bge	x3,x7,80005190	  x3:0xe465ffe7  x7:0xd8860000
       64965000	      6495	00000000	00000013	addi	x0,x0,0	  x0:0x00000000
       64975000	      6496	8000518c	00000013	addi	x0,x0,0	  x0:0x00000000
       64985000	      6497	80005190	00904833	xor	x16,x0,x9	  x0:0x00000000  x9:0x00000000 x16=0x00000000
       64995000	      6498	80005194	9623e693	ori	x13,x7,-1694	  x7:0xd8860000 x13=0xfffff962
       65005000	      6499	80005198	02306663	bltu	x0,x3,800051c4	  x0:0x00000000  x3:0xe465ffe7
       65015000	      6500	00000000	00000013	addi	x0,x0,0	  x0:0x00000000
       65025000	      6501	800051c0	00000013	addi	x0,x0,0	  x0:0x00000000
       65035000	      6502	800051c4	01a1ce63	blt	x3,x26,800051e0	  x3:0xe465ffe7 x26:0xd8860000
       65045000	      6503	800051c8	01b30533	add	x10,x6,x27	  x6:0x00000000 x27:0x00000001 x10=0x00000001
       65055000	      6504	800051cc	77fb6893	ori	x17,x22,1919	 x22:0xe465fb84 x17=0xe465ffff
       65065000	      6505	800051d0	a3b23197	auipc	x3,0xa3b23	  x3=0x23b281cc
       65075000	      6506	800051d4	006217b3	sll	x15,x4,x6	  x4:0x00000000  x6:0x00000000 x15=0x00000000
       65085000	      6507	800051d8	00c69093	slli	x1,x13,0xc	 x13:0xfffff962  x1=0xff962000
       65095000	      6508	800051dc	e5208b93	addi	x23,x1,-430	  x1:0xff962000 x23=0xff961e52
       65105000	      6509	800051e0	0211c663	blt	x3,x1,8000520c	  x3:0x23b281cc  x1:0xff962000
       65115000	      6510	800051e4	84a74e93	xori	x29,x14,-1974	 x14:0xb7aee122 x29=0x48511968
       65125000	      6511	800051e8	01d41513	slli	x10,x8,0x1d	  x8:0xfb46a000 x10=0x00000000
       65135000	      6512	800051ec	057df863	bgeu	x27,x23,8000523c	 x27:0x00000001 x23:0xff961e52
       65145000	      6513	800051f0	01667db3	and	x27,x12,x22	 x12:0xe02d6000 x22:0xe465fb84 x27=0xe0256000
       65155000	      6514	800051f4	01876933	or	x18,x14,x24	 x14:0xb7aee122 x24:0xdfffff1f x18=0xffffff3f
       65165000	      6515	800051f8	cbf03213	sltiu	x4,x0,-833	  x0:0x00000000  x4=0x00000001
       65175000	      6516	800051fc	013b1d13	slli	x26,x22,0x13	 x22:0xe465fb84 x26=0xdc200000
       65185000	      6517	80005200	02758863	beq	x11,x7,80005230	 x11:0x20000000  x7:0xd8860000
       65195000	      6518	80005204	001ee1b3	or	x3,x29,x1	 x29:0x48511968  x1:0xff962000  x3=0xffd73968
       65205000	      6519	80005208	014c0863	beq	x24,x20,80005218	 x24:0xdfffff1f x20:0xff910a5f
       65215000	      6520	8000520c	270ec393	xori	x7,x29,624	 x29:0x48511968  x7=0x48511b18
       65225000	      6521	80005210	f3d96b93	ori	x23,x18,-195	 x18:0xffffff3f x23=0xffffff3f
       65235000	      6522	80005214	01da03b3	add	x7,x20,x29	 x20:0xff910a5f x29:0x48511968  x7=0x47e223c7
       65245000	      6523	80005218	00fb0263	beq	x22,x15,8000521c	 x22:0xe465fb84 x15:0x00000000
       65255000	      6524	8000521c	7e876817	auipc	x16,0x7e876	 x16=0xfe87b218
       65265000	      6525	80005220	41215493	srai	x9,x2,0x12	  x2:0xb7aee122  x9=0xffffedeb
       65275000	      6526	80005224	cb933513	sltiu	x10,x6,-839	  x6:0x00000000 x10=0x00000001
       65285000	      6527	80005228	f6cc4493	xori	x9,x24,-148	 x24:0xdfffff1f  x9=0x20000073
       65295000	      6528	8000522c	7823fe13	andi	x28,x7,1922	  x7:0x47e223c7 x28=0x00000382
       65305000	      6529	80005230	114d7893	andi	x17,x26,276	 x26:0xdc200000 x17=0x00000000
       65315000	      6530	80005234	009a1793	slli	x15,x20,0x9	 x20:0xff910a5f x15=0x2214be00
       65325000	      6531	80005238	030c0263	beq	x24,x16,8000525c	 x24:0xdfffff1f x16:0xfe87b218
       65335000	      6532	8000523c	01855c63	bge	x10,x24,80005254	 x10:0x00000001 x24:0xdfffff1f
       65345000	      6533	00000000	00000013	addi	x0,x0,0	  x0:0x00000000
       65355000	      6534	80005250	00000013	addi	x0,x0,0	  x0:0x00000000
       65365000	      6535	80005254	01fadbb3	srl	x23,x21,x31	 x21:0x80009f40 x31:0x80009fc4 x23=0x080009f4
       65375000	      6536	80005258	323d79b7	lui	x19,0x323d7	 x19=0x323d7000
       65385000	      6537	8000525c	d4192413	slti	x8,x18,-703	 x18:0xffffff3f  x8=0x00000000
       65395000	      6538	80005260	c18f8393	addi	x7,x31,-1000	 x31:0x80009fc4  x7=0x80009bdc
       65405000	      6539	80005264	41d9dc93	srai	x25,x19,0x1d	 x19:0x323d7000 x25=0x00000001
       65415000	      6540	80005268	01905f33	srl	x30,x0,x25	  x0:0x00000000 x25:0x00000001 x30=0x00000000
       65425000	      6541	8000526c	008694b3	sll	x9,x13,x8	 x13:0xfffff962  x8:0x00000000  x9=0xfffff962
       65435000	      6542	80005270	d2218017	auipc	x0,0xd2218	
       65445000	      6543	80005274	41ff5b93	srai	x23,x30,0x1f	 x30:0x00000000 x23=0x00000000
       65455000	      6544	80005278	005890b3	sll	x1,x17,x5	 x17:0x00000000  x5:0xe465ffe7  x1=0x00000000
       65465000	      6545	8000527c	b9db3013	sltiu	x0,x22,-1123	 x22:0xe465fb84
       65475000	      6546	80005280	00cbe233	or	x4,x23,x12	 x23:0x00000000 x12:0xe02d6000  x4=0xe02d6000
       65485000	      6547	80005284	01f484b3	add	x9,x9,x31	  x9:0xfffff962 x31:0x80009fc4  x9=0x80009926
       65495000	      6548	80005288	005697b3	sll	x15,x13,x5	 x13:0xfffff962  x5:0xe465ffe7 x15=0xfffcb100
       65505000	      6549	8000528c	49b2ab93	slti	x23,x5,1179	  x5:0xe465ffe7 x23=0x00000001
       65515000	      6550	80005290	00891d93	slli	x27,x18,0x8	 x18:0xffffff3f x27=0xffff3f00
       65525000	      6551	80005294	653e6713	ori	x14,x28,1619	 x28:0x00000382 x14=0x000007d3
       65535000	      6552	80005298	00c55333	srl	x6,x10,x12	 x10:0x00000001 x12:0xe02d6000  x6=0x00000001
       65545000	      6553	8000529c	01f8fcb3	and	x25,x17,x31	 x17:0x00000000 x31:0x80009fc4 x25=0x00000000
       65555000	      6554	800052a0	0574e863	bltu	x9,x23,800052f0	  x9:0x80009926 x23:0x00000001
       65565000	      6555	800052a4	00fb8233	add	x4,x23,x15	 x23:0x00000001 x15:0xfffcb100  x4=0xfffcb101
       65575000	      6556	800052a8	022c9863	bne	x25,x2,800052d8	 x25:0x00000000  x2:0xb7aee122
       65585000	      6557	00000000	00000013	addi	x0,x0,0	  x0:0x00000000
       65595000	      6558	800052d4	00000013	addi	x0,x0,0	  x0:0x00000000
       65605000	      6559	800052d8	6a394513	xori	x10,x18,1699	 x18:0xffffff3f x10=0xfffff99c
       65615000	      6560	800052dc	80b14d13	xori	x26,x2,-2037	  x2:0xb7aee122 x26=0x48511929
       65625000	      6561	800052e0	03487c63	bgeu	x16,x20,80005318	 x16:0xfe87b218 x20:0xff910a5f
       65635000	      6562	800052e4	05afe063	bltu	x31,x26,80005324	 x31:0x80009fc4 x26:0x48511929
       65645000	      6563	800052e8	035b5463	bge	x22,x21,80005310	 x22:0xe465fb84 x21:0x80009f40
       65655000	      6564	00000000	00000013	addi	x0,x0,0	  x0:0x00000000
       65665000	      6565	8000530c	00000013	addi	x0,x0,0	  x0:0x00000000
       65675000	      6566	80005310	cacfc413	xori	x8,x31,-852	 x31:0x80009fc4  x8=0x7fff6368
       65685000	      6567	80005314	00da9733	sll	x14,x21,x13	 x21:0x80009f40 x13:0xfffff962 x14=0x00027d00
       65695000	      6568	80005318	0250da63	bge	x1,x5,8000534c	  x1:0x00000000  x5:0xe465ffe7
       65705000	      6569	00000000	00000013	addi	x0,x0,0	  x0:0x00000000
       65715000	      6570	80005348	00000013	addi	x0,x0,0	  x0:0x00000000
       65725000	      6571	8000534c	00304263	blt	x0,x3,80005350	  x0:0x00000000  x3:0xffd73968
       65735000	      6572	80005350	0141fe33	and	x28,x3,x20	  x3:0xffd73968 x20:0xff910a5f x28=0xff910848
       65745000	      6573	80005354	01ec7b33	and	x22,x24,x30	 x24:0xdfffff1f x30:0x00000000 x22=0x00000000
       65755000	      6574	80005358	06c40413	addi	x8,x8,108	  x8:0x7fff6368  x8=0x7fff63d4
       65765000	      6575	8000535c	417207b3	sub	x15,x4,x23	  x4:0xfffcb101 x23:0x00000001 x15=0xfffcb100
       65775000	      6576	80005360	32a42e13	slti	x28,x8,810	  x8:0x7fff63d4 x28=0x00000000
       65785000	      6577	80005364	02cd6c63	bltu	x26,x12,8000539c	 x26:0x48511929 x12:0xe02d6000
       65795000	      6578	00000000	00000013	addi	x0,x0,0	  x0:0x00000000
       65805000	      6579	80005398	00000013	addi	x0,x0,0	  x0:0x00000000
       65815000	      6580	8000539c	0078e7b3	or	x15,x17,x7	 x17:0x00000000  x7:0x80009bdc x15=0x80009bdc
       65825000	      6581	800053a0	00000013	addi	x0,x0,0	  x0:0x00000000
       65835000	      6582	800053a4	00000013	addi	x0,x0,0	  x0:0x00000000
       65845000	      6583	800053a8	00277933	and	x18,x14,x2	 x14:0x00027d00  x2:0xb7aee122 x18=0x00026100
       65855000	      6584	800053ac	01455e63	bge	x10,x20,800053c8	 x10:0xfffff99c x20:0xff910a5f
       65865000	      6585	00000000	00000013	addi	x0,x0,0	  x0:0x00000000
       65875000	      6586	800053c4	00000013	addi	x0,x0,0	  x0:0x00000000
       65885000	      6587	800053c8	f0b94a13	xori	x20,x18,-245	 x18:0x00026100 x20=0xfffd9e0b
       65895000	      6588	800053cc	01ca9263	bne	x21,x28,800053d0	 x21:0x80009f40 x28:0x00000000
       65905000	      6589	00000000	00000013	addi	x0,x0,0	  x0:0x00000000
       65915000	      6590	800053cc	00000013	addi	x0,x0,0	  x0:0x00000000
       65925000	      6591	800053d0	00449433	sll	x8,x9,x4	  x9:0x80009926  x4:0xfffcb101  x8=0x0001324c
       65935000	      6592	800053d4	004aa083	lw	x1,4(x21)	 x21:0x80009f40  x1=0x80003cb0 PA:0x80009f44
       65945000	      6593	800053d8	008a8a93	addi	x21,x21,8	 x21:0x80009f40 x21=0x80009f48
       65955000	      6594	800053dc	dc430c13	addi	x24,x6,-572	  x6:0x00000001 x24=0xfffffdc5
       65965000	      6595	800053e0	006c6a33	or	x20,x24,x6	 x24:0xfffffdc5  x6:0x00000001 x20=0xfffffdc5
       65975000	      6596	800053e4	ab9f7493	andi	x9,x30,-1351	 x30:0x00000000  x9=0x00000000
       65985000	      6597	800053e8	00108213	addi	x4,x1,1	  x1:0x80003cb0  x4=0x80003cb1
       65995000	      6598	800053ec	00020267	jalr	x4,x4,0	  x4:0x80003cb1  x4=0x800053ec
       66005000	      6599	00000000	00000013	addi	x0,x0,0	  x0:0x00000000
       66015000	      6600	80003cb0	00000013	addi	x0,x0,0	  x0:0x00000000
       66025000	      6601	80003cb4	00005717	auipc	x14,0x5	 x14=0x80008cb0
       66035000	      6602	80003cb8	ee970713	addi	x14,x14,-279	 x14:0x80008cb0 x14=0x80008b99
       66045000	      6603	80003cbc	004575b3	and	x11,x10,x4	 x10:0xfffff99c  x4:0x800053ec x11=0x8000518c
       66055000	      6604	80003cc0	01e9d513	srli	x10,x19,0x1e	 x19:0x323d7000 x10=0x00000000
       66065000	      6605	80003cc4	02d71c83	lh	x25,45(x14)	 x14:0x80008b99 x25=0xffffacad PA:0x80008bc6
       66075000	      6606	80003cc8	fea70223	sb	x10,-28(x14)	 x14:0x80008b99 x10:0x00000000 PA:0x80008b7d
       66085000	      6607	80003ccc	01171ba3	sh	x17,23(x14)	 x14:0x80008b99 x17:0x00000000 PA:0x80008bb0
       66095000	      6608	80003cd0	01270c83	lb	x25,18(x14)	 x14:0x80008b99 x25=0xffffff90 PA:0x80008bab
       66105000	      6609	80003cd4	005b71b3	and	x3,x22,x5	 x22:0x00000000  x5:0xe465ffe7  x3=0x00000000
       66115000	      6610	80003cd8	02d71883	lh	x17,45(x14)	 x14:0x80008b99 x17=0xffffacad PA:0x80008bc6
       66125000	      6611	80003cdc	ff674683	lbu	x13,-10(x14)	 x14:0x80008b99 x13=0x00000074 PA:0x80008b8f
       66135000	      6612	00000000	00000013	addi	x0,x0,0	  x0:0x00000000
       66145000	      6613	80003ce0	fcd75183	lhu	x3,-51(x14)	 x14:0x80008b99  x3=0x00004c4d PA:0x80008b66
       66155000	      6614	80003ce4	01ca35b3	sltu	x11,x20,x28	 x20:0xfffffdc5 x28:0x00000000 x11=0x00000000
       66165000	      6615	80003ce8	fc674d83	lbu	x27,-58(x14)	 x14:0x80008b99 x27=0x00000044 PA:0x80008b5f
       66175000	      6616	80003cec	dc862997	auipc	x19,0xdc862	 x19=0x5c865ce8
       66185000	      6617	80003cf0	fef70683	lb	x13,-17(x14)	 x14:0x80008b99 x13=0x00000073 PA:0x80008b88
       66195000	      6618	80003cf4	ff570823	sb	x21,-16(x14)	 x14:0x80008b99 x21:0x80009f48 PA:0x80008b89
       66205000	      6619	80003cf8	ffe74783	lbu	x15,-2(x14)	 x14:0x80008b99 x15=0x0000007c PA:0x80008b97
       66215000	      6620	80003cfc	00b72503	lw	x10,11(x14)	 x14:0x80008b99 x10=0x8c8d8e8f PA:0x80008ba4
       66225000	      6621	80003d00	02474b83	lbu	x23,36(x14)	 x14:0x80008b99 x23=0x000000a6 PA:0x80008bbd
       66235000	      6622	80003d04	0125c0b3	xor	x1,x11,x18	 x11:0x00000000 x18:0x00026100  x1=0x00026100
       66245000	      6623	80003d08	03e709a3	sb	x30,51(x14)	 x14:0x80008b99 x30:0x00000000 PA:0x80008bcc
       66255000	      6624	80003d0c	00000013	addi	x0,x0,0	  x0:0x00000000
       66265000	      6625	80003d10	24e9a913	slti	x18,x19,590	 x19:0x5c865ce8 x18=0x00000000
       66275000	      6626	80003d14	03070983	lb	x19,48(x14)	 x14:0x80008b99 x19=0xffffffb2 PA:0x80008bc9
       66285000	      6627	80003d18	00000013	addi	x0,x0,0	  x0:0x00000000
       66295000	      6628	80003d1c	00000013	addi	x0,x0,0	  x0:0x00000000
       66305000	      6629	80003d20	019a9cb3	sll	x25,x21,x25	 x21:0x80009f48 x25:0xffffff90 x25=0x9f480000
       66315000	      6630	80003d24	01175383	lhu	x7,17(x14)	 x14:0x80008b99  x7=0x00009091 PA:0x80008baa
       66325000	      6631	80003d28	8a843d93	sltiu	x27,x8,-1880	  x8:0x0001324c x27=0x00000001
       66335000	      6632	80003d2c	ff870803	lb	x16,-8(x14)	 x14:0x80008b99 x16=0x0000007a PA:0x80008b91
       66345000	      6633	80003d30	fce704a3	sb	x14,-55(x14)	 x14:0x80008b99 x14:0x80008b99 PA:0x80008b62
       66355000	      6634	80003d34	01551f33	sll	x30,x10,x21	 x10:0x8c8d8e8f x21:0x80009f48 x30=0x8d8e8f00
       66365000	      6635	80003d38	a6942413	slti	x8,x8,-1431	  x8:0x0001324c  x8=0x00000000
       66375000	      6636	80003d3c	03470683	lb	x13,52(x14)	 x14:0x80008b99 x13=0xffffffb6 PA:0x80008bcd
       66385000	      6637	80003d40	014f3033	sltu	x0,x30,x20	 x30:0x8d8e8f00 x20:0xfffffdc5
       66395000	      6638	80003d44	feb70003	lb	x0,-21(x14)	 x14:0x80008b99 PA:0x80008b84
       66405000	      6639	80003d48	41795c93	srai	x25,x18,0x17	 x18:0x00000000 x25=0x00000000
       66415000	      6640	80003d4c	00f958b3	srl	x17,x18,x15	 x18:0x00000000 x15:0x0000007c x17=0x00000000
       66425000	      6641	80003d50	fee70123	sb	x14,-30(x14)	 x14:0x80008b99 x14:0x80008b99 PA:0x80008b7b
       66435000	      6642	80003d54	03371da3	sh	x19,59(x14)	 x14:0x80008b99 x19:0xffffffb2 PA:0x80008bd4
       66445000	      6643	80003d58	01205413	srli	x8,x0,0x12	  x0:0x00000000  x8=0x00000000
       66455000	      6644	80003d5c	40c9d313	srai	x6,x19,0xc	 x19:0xffffffb2  x6=0xffffffff
       66465000	      6645	80003d60	fc171aa3	sh	x1,-43(x14)	 x14:0x80008b99  x1:0x00026100 PA:0x80008b6e
       66475000	      6646	80003d64	00370e03	lb	x28,3(x14)	 x14:0x80008b99 x28=0xffffff87 PA:0x80008b9c
       66485000	      6647	80003d68	01f78263	beq	x15,x31,80003d6c	 x15:0x0000007c x31:0x80009fc4
       66495000	      6648	80003d6c	41935a33	sra	x20,x6,x25	  x6:0xffffffff x25:0x00000000 x20=0xffffffff
       66505000	      6649	80003d70	40d78833	sub	x16,x15,x13	 x15:0x0000007c x13:0xffffffb6 x16=0x000000c6
       66515000	      6650	80003d74	022ef663	bgeu	x29,x2,80003da0	 x29:0x48511968  x2:0xb7aee122
       66525000	      6651	80003d78	8b2e6b13	ori	x22,x28,-1870	 x28:0xffffff87 x22=0xffffffb7
       66535000	      6652	80003d7c	5bc20793	addi	x15,x4,1468	  x4:0x800053ec x15=0x800059a8
       66545000	      6653	80003d80	01937b33	and	x22,x6,x25	  x6:0xffffffff x25:0x00000000 x22=0x00000000
       66555000	      6654	80003d84	40135413	srai	x8,x6,0x1	  x6:0xffffffff  x8=0xffffffff
       66565000	      6655	80003d88	38bf2493	slti	x9,x30,907	 x30:0x8d8e8f00  x9=0x00000001
       66575000	      6656	80003d8c	01a6d6b3	srl	x13,x13,x26	 x13:0xffffffb6 x26:0x48511929 x13=0x007fffff
       66585000	      6657	80003d90	003bdd33	srl	x26,x23,x3	 x23:0x000000a6  x3:0x00004c4d x26=0x00000000
       66595000	      6658	80003d94	8d742413	slti	x8,x8,-1833	  x8:0xffffffff  x8=0x00000000
       66605000	      6659	80003d98	41fc5e93	srai	x29,x24,0x1f	 x24:0xfffffdc5 x29=0xffffffff
       66615000	      6660	80003d9c	a3360713	addi	x14,x12,-1485	 x12:0xe02d6000 x14=0xe02d5a33
       66625000	      6661	80003da0	01365c93	srli	x25,x12,0x13	 x12:0xe02d6000 x25=0x00001c05
       66635000	      6662	80003da4	0072db13	srli	x22,x5,0x7	  x5:0xe465ffe7 x22=0x01c8cbff
       66645000	      6663	80003da8	0193b2b3	sltu	x5,x7,x25	  x7:0x00009091 x25:0x00001c05  x5=0x00000000
       66655000	      6664	80003dac	015b6533	or	x10,x22,x21	 x22:0x01c8cbff x21:0x80009f48 x10=0x81c8dfff
       66665000	      6665	80003db0	04a35863	bge	x6,x10,80003e00	  x6:0xffffffff x10:0x81c8dfff
       66675000	      6666	00000000	00000013	addi	x0,x0,0	  x0:0x00000000
       66685000	      6667	80003dfc	00000013	addi	x0,x0,0	  x0:0x00000000
       66695000	      6668	80003e00	018e9c63	bne	x29,x24,80003e18	 x29:0xffffffff x24:0xfffffdc5
       66705000	      6669	00000000	00000013	addi	x0,x0,0	  x0:0x00000000
       66715000	      6670	80003e14	00000013	addi	x0,x0,0	  x0:0x00000000
       66725000	      6671	80003e18	f46eb513	sltiu	x10,x29,-186	 x29:0xffffffff x10=0x00000000
       66735000	      6672	80003e1c	4fd9a793	slti	x15,x19,1277	 x19:0xffffffb2 x15=0x00000001
       66745000	      6673	80003e20	a2f70413	addi	x8,x14,-1489	 x14:0xe02d5a33  x8=0xe02d5462
       66755000	      6674	80003e24	05994663	blt	x18,x25,80003e70	 x18:0x00000000 x25:0x00001c05
       66765000	      6675	00000000	00000013	addi	x0,x0,0	  x0:0x00000000
       66775000	      6676	80003e6c	00000013	addi	x0,x0,0	  x0:0x00000000
       66785000	      6677	80003e70	100e8063	beq	x29,x0,80003f70	 x29:0xffffffff  x0:0x00000000
       66795000	      6678	80003e74	00879793	slli	x15,x15,0x8	 x15:0x00000001 x15=0x00000100
       66805000	      6679	80003e78	011b1a33	sll	x20,x22,x17	 x22:0x01c8cbff x17:0x00000000 x20=0x01c8cbff
       66815000	      6680	80003e7c	00bf8f33	add	x30,x31,x11	 x31:0x80009fc4 x11:0x00000000 x30=0x80009fc4
       66825000	      6681	80003e80	10c28663	beq	x5,x12,80003f8c	  x5:0x00000000 x12:0xe02d6000
       66835000	      6682	80003e84	b0380813	addi	x16,x16,-1277	 x16:0x000000c6 x16=0xfffffbc9
       66845000	      6683	80003e88	668e0613	addi	x12,x28,1640	 x28:0xffffff87 x12=0x000005ef
       66855000	      6684	80003e8c	d6374b13	xori	x22,x14,-669	 x14:0xe02d5a33 x22=0x1fd2a750
       66865000	      6685	80003e90	0dc39a63	bne	x7,x28,80003f64	  x7:0x00009091 x28:0xffffff87
       66875000	      6686	00000000	00000013	addi	x0,x0,0	  x0:0x00000000
       66885000	      6687	80003f60	00000013	addi	x0,x0,0	  x0:0x00000000
       66895000	      6688	80003f64	05b7f863	bgeu	x15,x27,80003fb4	 x15:0x00000100 x27:0x00000001
       66905000	      6689	00000000	00000013	addi	x0,x0,0	  x0:0x00000000
       66915000	      6690	80003fb0	00000013	addi	x0,x0,0	  x0:0x00000000
       66925000	      6691	80003fb4	40220633	sub	x12,x4,x2	  x4:0x800053ec  x2:0xb7aee122 x12=0xc85172ca
       66935000	      6692	80003fb8	00000013	addi	x0,x0,0	  x0:0x00000000
       66945000	      6693	80003fbc	01da5e13	srli	x28,x20,0x1d	 x20:0x01c8cbff x28=0x00000000
       66955000	      6694	80003fc0	0582f063	bgeu	x5,x24,80004000	  x5:0x00000000 x24:0xfffffdc5
       66965000	      6695	80003fc4	00569e93	slli	x29,x13,0x5	 x13:0x007fffff x29=0x0fffffe0
       66975000	      6696	80003fc8	0039cdb3	xor	x27,x19,x3	 x19:0xffffffb2  x3:0x00004c4d x27=0xffffb3ff
       66985000	      6697	80003fcc	014b71b3	and	x3,x22,x20	 x22:0x1fd2a750 x20:0x01c8cbff  x3=0x01c08350
       66995000	      6698	80003fd0	0047de63	bge	x15,x4,80003fec	 x15:0x00000100  x4:0x800053ec
       67005000	      6699	00000000	00000013	addi	x0,x0,0	  x0:0x00000000
       67015000	      6700	80003fe8	00000013	addi	x0,x0,0	  x0:0x00000000
       67025000	      6701	80003fec	40275b33	sra	x22,x14,x2	 x14:0xe02d5a33  x2:0xb7aee122 x22=0xf80b568c
       67035000	      6702	80003ff0	96774993	xori	x19,x14,-1689	 x14:0xe02d5a33 x19=0x1fd2a354
       67045000	      6703	80003ff4	01fbc433	xor	x8,x23,x31	 x23:0x000000a6 x31:0x80009fc4  x8=0x80009f62
       67055000	      6704	80003ff8	410580b3	sub	x1,x11,x16	 x11:0x00000000 x16:0xfffffbc9  x1=0x00000437
       67065000	      6705	80003ffc	90aa8093	addi	x1,x21,-1782	 x21:0x80009f48  x1=0x80009852
       67075000	      6706	80004000	01a04463	blt	x0,x26,80004008	  x0:0x00000000 x26:0x00000000
       67085000	      6707	80004004	41fad0b3	sra	x1,x21,x31	 x21:0x80009f48 x31:0x80009fc4  x1=0xf80009f4
       67095000	      6708	80004008	01e747b3	xor	x15,x14,x30	 x14:0xe02d5a33 x30:0x80009fc4 x15=0x602dc5f7
       67105000	      6709	8000400c	e5c44f17	auipc	x30,0xe5c44	 x30=0x65c48008
       67115000	      6710	80004010	014a8863	beq	x21,x20,80004020	 x21:0x80009f48 x20:0x01c8cbff
       67125000	      6711	80004014	011ba4b3	slt	x9,x23,x17	 x23:0x000000a6 x17:0x00000000  x9=0x00000000
       67135000	      6712	80004018	1e4dad93	slti	x27,x27,484	 x27:0xffffb3ff x27=0x00000001
       67145000	      6713	8000401c	03348063	beq	x9,x19,8000403c	  x9:0x00000000 x19:0x1fd2a354
       67155000	      6714	80004020	039b8e63	beq	x23,x25,8000405c	 x23:0x000000a6 x25:0x00001c05
       67165000	      6715	80004024	8eb81937	lui	x18,0x8eb81	 x18=0x8eb81000
       67175000	      6716	80004028	01b1f9b3	and	x19,x3,x27	  x3:0x01c08350 x27:0x00000001 x19=0x00000000
       67185000	      6717	8000402c	00889833	sll	x16,x17,x8	 x17:0x00000000  x8:0x80009f62 x16=0x00000000
       67195000	      6718	80004030	01421533	sll	x10,x4,x20	  x4:0x800053ec x20:0x01c8cbff x10=0x00000000
       67205000	      6719	80004034	04461063	bne	x12,x4,80004074	 x12:0xc85172ca  x4:0x800053ec
       67215000	      6720	00000000	00000013	addi	x0,x0,0	  x0:0x00000000
       67225000	      6721	80004070	00000013	addi	x0,x0,0	  x0:0x00000000
       67235000	      6722	80004074	0000fa63	bgeu	x1,x0,80004088	  x1:0xf80009f4  x0:0x00000000
       67245000	      6723	00000000	00000013	addi	x0,x0,0	  x0:0x00000000
       67255000	      6724	80004084	00000013	addi	x0,x0,0	  x0:0x00000000
       67265000	      6725	80004088	0194e433	or	x8,x9,x25	  x9:0x00000000 x25:0x00001c05  x8=0x00001c05
       67275000	      6726	8000408c	01398733	add	x14,x19,x19	 x19:0x00000000 x19:0x00000000 x14=0x00000000
       67285000	      6727	80004090	41bf54b3	sra	x9,x30,x27	 x30:0x65c48008 x27:0x00000001  x9=0x32e24004
       67295000	      6728	80004094	01514e63	blt	x2,x21,800040b0	  x2:0xb7aee122 x21:0x80009f48
       67305000	      6729	80004098	02064263	blt	x12,x0,800040bc	 x12:0xc85172ca  x0:0x00000000
       67315000	      6730	00000000	00000013	addi	x0,x0,0	  x0:0x00000000
       67325000	      6731	800040b8	00000013	addi	x0,x0,0	  x0:0x00000000
       67335000	      6732	800040bc	65e5b413	sltiu	x8,x11,1630	 x11:0x00000000  x8=0x00000001
       67345000	      6733	800040c0	010592b3	sll	x5,x11,x16	 x11:0x00000000 x16:0x00000000  x5=0x00000000
       67355000	      6734	800040c4	fdc52b13	slti	x22,x10,-36	 x10:0x00000000 x22=0x00000000
       67365000	      6735	800040c8	01c5ce33	xor	x28,x11,x28	 x11:0x00000000 x28:0x00000000 x28=0x00000000
       67375000	      6736	800040cc	4108ddb3	sra	x27,x17,x16	 x17:0x00000000 x16:0x00000000 x27=0x00000000
       67385000	      6737	800040d0	00711463	bne	x2,x7,800040d8	  x2:0xb7aee122  x7:0x00009091
       67395000	      6738	00000000	00000013	addi	x0,x0,0	  x0:0x00000000
       67405000	      6739	800040d4	00000013	addi	x0,x0,0	  x0:0x00000000
       67415000	      6740	800040d8	01ea8863	beq	x21,x30,800040e8	 x21:0x80009f48 x30:0x65c48008
       67425000	      6741	800040dc	008fd033	srl	x0,x31,x8	 x31:0x80009fc4  x8:0x00000001
       67435000	      6742	800040e0	008d9a63	bne	x27,x8,800040f4	 x27:0x00000000  x8:0x00000001
       67445000	      6743	00000000	00000013	addi	x0,x0,0	  x0:0x00000000
       67455000	      6744	800040f0	00000013	addi	x0,x0,0	  x0:0x00000000
       67465000	      6745	800040f4	02ab0c13	addi	x24,x22,42	 x22:0x00000000 x24=0x0000002a
       67475000	      6746	800040f8	01cef433	and	x8,x29,x28	 x29:0x0fffffe0 x28:0x00000000  x8=0x00000000
       67485000	      6747	800040fc	03eaf063	bgeu	x21,x30,8000411c	 x21:0x80009f48 x30:0x65c48008
       67495000	      6748	00000000	00000013	addi	x0,x0,0	  x0:0x00000000
       67505000	      6749	80004118	00000013	addi	x0,x0,0	  x0:0x00000000
       67515000	      6750	8000411c	0050be33	sltu	x28,x1,x5	  x1:0xf80009f4  x5:0x00000000 x28=0x00000000
       67525000	      6751	80004120	08080e63	beq	x16,x0,800041bc	 x16:0x00000000  x0:0x00000000
       67535000	      6752	00000000	00000013	addi	x0,x0,0	  x0:0x00000000
       67545000	      6753	800041b8	00000013	addi	x0,x0,0	  x0:0x00000000
       67555000	      6754	800041bc	0168dc13	srli	x24,x17,0x16	 x17:0x00000000 x24=0x00000000
       67565000	      6755	800041c0	43966413	ori	x8,x12,1081	 x12:0xc85172ca  x8=0xc85176fb
       67575000	      6756	800041c4	009b96b3	sll	x13,x23,x9	 x23:0x000000a6  x9:0x32e24004 x13=0x00000a60
       67585000	      6757	800041c8	41b0de33	sra	x28,x1,x27	  x1:0xf80009f4 x27:0x00000000 x28=0xf80009f4
       67595000	      6758	800041cc	00f207b3	add	x15,x4,x15	  x4:0x800053ec x15:0x602dc5f7 x15=0xe02e19e3
       67605000	      6759	800041d0	01788333	add	x6,x17,x23	 x17:0x00000000 x23:0x000000a6  x6=0x000000a6
       67615000	      6760	800041d4	e8d00893	addi	x17,x0,-371	  x0:0x00000000 x17=0xfffffe8d
       67625000	      6761	800041d8	001e2eb3	slt	x29,x28,x1	 x28:0xf80009f4  x1:0xf80009f4 x29=0x00000000
       67635000	      6762	800041dc	01919393	slli	x7,x3,0x19	  x3:0x01c08350  x7=0xa0000000
       67645000	      6763	800041e0	053f6663	bltu	x30,x19,8000422c	 x30:0x65c48008 x19:0x00000000
       67655000	      6764	800041e4	0174d3b3	srl	x7,x9,x23	  x9:0x32e24004 x23:0x000000a6  x7=0x00cb8900
       67665000	      6765	800041e8	015aaeb3	slt	x29,x21,x21	 x21:0x80009f48 x21:0x80009f48 x29=0x00000000
       67675000	      6766	800041ec	a6096593	ori	x11,x18,-1440	 x18:0x8eb81000 x11=0xfffffa60
       67685000	      6767	800041f0	02cae263	bltu	x21,x12,80004214	 x21:0x80009f48 x12:0xc85172ca
       67695000	      6768	00000000	00000013	addi	x0,x0,0	  x0:0x00000000
       67705000	      6769	80004210	00000013	addi	x0,x0,0	  x0:0x00000000
       67715000	      6770	80004214	002a9613	slli	x12,x21,0x2	 x21:0x80009f48 x12=0x00027d20
       67725000	      6771	80004218	011a9b13	slli	x22,x21,0x11	 x21:0x80009f48 x22=0x3e900000
       67735000	      6772	8000421c	17e98e93	addi	x29,x19,382	 x19:0x00000000 x29=0x0000017e
       67745000	      6773	80004220	f04b6513	ori	x10,x22,-252	 x22:0x3e900000 x10=0xffffff04
       67755000	      6774	80004224	ba9c2593	slti	x11,x24,-1111	 x24:0x00000000 x11=0x00000000
       67765000	      6775	80004228	71dcce93	xori	x29,x25,1821	 x25:0x00001c05 x29=0x00001b18
       67775000	      6776	8000422c	b910ab13	slti	x22,x1,-1135	  x1:0xf80009f4 x22=0x00000001
       67785000	      6777	80004230	01577d33	and	x26,x14,x21	 x14:0x00000000 x21:0x80009f48 x26=0x00000000
       67795000	      6778	80004234	003049b3	xor	x19,x0,x3	  x0:0x00000000  x3:0x01c08350 x19=0x01c08350
       67805000	      6779	80004238	b3e98593	addi	x11,x19,-1218	 x19:0x01c08350 x11=0x01c07e8e
       67815000	      6780	8000423c	016751b3	srl	x3,x14,x22	 x14:0x00000000 x22:0x00000001  x3=0x00000000
       67825000	      6781	80004240	01ef0463	beq	x30,x30,80004248	 x30:0x65c48008 x30:0x65c48008
       67835000	      6782	00000000	00000013	addi	x0,x0,0	  x0:0x00000000
       67845000	      6783	80004244	00000013	addi	x0,x0,0	  x0:0x00000000
       67855000	      6784	80004248	7bd93013	sltiu	x0,x18,1981	 x18:0x8eb81000
       67865000	      6785	8000424c	014944b3	xor	x9,x18,x20	 x18:0x8eb81000 x20:0x01c8cbff  x9=0x8f70dbff
       67875000	      6786	80004250	01db7db3	and	x27,x22,x29	 x22:0x00000001 x29:0x00001b18 x27=0x00000000
       67885000	      6787	80004254	8cd0c413	xori	x8,x1,-1843	  x1:0xf80009f4  x8=0x07fff139
       67895000	      6788	80004258	002950b3	srl	x1,x18,x2	 x18:0x8eb81000  x2:0xb7aee122  x1=0x23ae0400
       67905000	      6789	8000425c	ca262293	slti	x5,x12,-862	 x12:0x00027d20  x5=0x00000000
       67915000	      6790	80004260	0032cb33	xor	x22,x5,x3	  x5:0x00000000  x3:0x00000000 x22=0x00000000
       67925000	      6791	80004264	007df8b3	and	x17,x27,x7	 x27:0x00000000  x7:0x00cb8900 x17=0x00000000
       67935000	      6792	80004268	3906b293	sltiu	x5,x13,912	 x13:0x00000a60  x5=0x00000000
       67945000	      6793	8000426c	00159263	bne	x11,x1,80004270	 x11:0x01c07e8e  x1:0x23ae0400
       67955000	      6794	00000000	00000013	addi	x0,x0,0	  x0:0x00000000
       67965000	      6795	8000426c	00000013	addi	x0,x0,0	  x0:0x00000000
       67975000	      6796	80004270	0127ebb3	or	x23,x15,x18	 x15:0xe02e19e3 x18:0x8eb81000 x23=0xeebe19e3
       67985000	      6797	80004274	00e30863	beq	x6,x14,80004284	  x6:0x000000a6 x14:0x00000000
       67995000	      6798	80004278	abf50b37	lui	x22,0xabf50	 x22=0xabf50000
       68005000	      6799	8000427c	03346c63	bltu	x8,x19,800042b4	  x8:0x07fff139 x19:0x01c08350
       68015000	      6800	80004280	01d4d0b3	srl	x1,x9,x29	  x9:0x8f70dbff x29:0x00001b18  x1=0x0000008f
       68025000	      6801	80004284	01b916b3	sll	x13,x18,x27	 x18:0x8eb81000 x27:0x00000000 x13=0x8eb81000
       68035000	      6802	80004288	00a8bdb3	sltu	x27,x17,x10	 x17:0x00000000 x10:0xffffff04 x27=0x00000001
       68045000	      6803	8000428c	cc6c3d13	sltiu	x26,x24,-826	 x24:0x00000000 x26=0x00000001
       68055000	      6804	80004290	017028b3	slt	x17,x0,x23	  x0:0x00000000 x23:0xeebe19e3 x17=0x00000000
       68065000	      6805	80004294	00bfa833	slt	x16,x31,x11	 x31:0x80009fc4 x11:0x01c07e8e x16=0x00000001
       68075000	      6806	80004298	019511b3	sll	x3,x10,x25	 x10:0xffffff04 x25:0x00001c05  x3=0xffffe080
       68085000	      6807	8000429c	01040c63	beq	x8,x16,800042b4	  x8:0x07fff139 x16:0x00000001
       68095000	      6808	800042a0	01dd21b3	slt	x3,x26,x29	 x26:0x00000001 x29:0x00001b18  x3=0x00000001
       68105000	      6809	800042a4	d5226037	lui	x0,0xd5226	
       68115000	      6810	800042a8	b3a0bd93	sltiu	x27,x1,-1222	  x1:0x0000008f x27=0x00000001
       68125000	      6811	800042ac	0184a533	slt	x10,x9,x24	  x9:0x8f70dbff x24:0x00000000 x10=0x00000001
       68135000	      6812	800042b0	014ad613	srli	x12,x21,0x14	 x21:0x80009f48 x12=0x00000800
       68145000	      6813	800042b4	0173eeb3	or	x29,x7,x23	  x7:0x00cb8900 x23:0xeebe19e3 x29=0xeeff99e3
       68155000	      6814	800042b8	00fd20b3	slt	x1,x26,x15	 x26:0x00000001 x15:0xe02e19e3  x1=0x00000000
       68165000	      6815	800042bc	01aac8b3	xor	x17,x21,x26	 x21:0x80009f48 x26:0x00000001 x17=0x80009f49
       68175000	      6816	800042c0	4026d613	srai	x12,x13,0x2	 x13:0x8eb81000 x12=0xe3ae0400
       68185000	      6817	800042c4	653f7393	andi	x7,x30,1619	 x30:0x65c48008  x7=0x00000000
       68195000	      6818	800042c8	41b75a33	sra	x20,x14,x27	 x14:0x00000000 x27:0x00000001 x20=0x00000000
       68205000	      6819	800042cc	05299663	bne	x19,x18,80004318	 x19:0x01c08350 x18:0x8eb81000
       68215000	      6820	00000000	00000013	addi	x0,x0,0	  x0:0x00000000
       68225000	      6821	80004314	00000013	addi	x0,x0,0	  x0:0x00000000
       68235000	      6822	80004318	02eaa413	slti	x8,x21,46	 x21:0x80009f48  x8=0x00000001
       68245000	      6823	8000431c	ed6f9eb7	lui	x29,0xed6f9	 x29=0xed6f9000
       68255000	      6824	80004320	01f2ce63	blt	x5,x31,8000433c	  x5:0x00000000 x31:0x80009fc4
       68265000	      6825	80004324	0047ceb3	xor	x29,x15,x4	 x15:0xe02e19e3  x4:0x800053ec x29=0x602e4a0f
       68275000	      6826	80004328	294a8513	addi	x10,x21,660	 x21:0x80009f48 x10=0x8000a1dc
       68285000	      6827	8000432c	02ea1e63	bne	x20,x14,80004368	 x20:0x00000000 x14:0x00000000
       68295000	      6828	80004330	64b84c13	xori	x24,x16,1611	 x16:0x00000001 x24=0x0000064a
       68305000	      6829	80004334	416dd613	srai	x12,x27,0x16	 x27:0x00000001 x12=0x00000000
       68315000	      6830	80004338	0231f663	bgeu	x3,x3,80004364	  x3:0x00000001  x3:0x00000001
       68325000	      6831	00000000	00000013	addi	x0,x0,0	  x0:0x00000000
       68335000	      6832	80004360	00000013	addi	x0,x0,0	  x0:0x00000000
       68345000	      6833	80004364	008afc63	bgeu	x21,x8,8000437c	 x21:0x80009f48  x8:0x00000001
       68355000	      6834	00000000	00000013	addi	x0,x0,0	  x0:0x00000000
       68365000	      6835	80004378	00000013	addi	x0,x0,0	  x0:0x00000000
       68375000	      6836	8000437c	0137c3b3	xor	x7,x15,x19	 x15:0xe02e19e3 x19:0x01c08350  x7=0xe1ee9ab3
       68385000	      6837	80004380	41a8d393	srai	x7,x17,0x1a	 x17:0x80009f49  x7=0xffffffe0
       68395000	      6838	80004384	00000013	addi	x0,x0,0	  x0:0x00000000
       68405000	      6839	80004388	7af83293	sltiu	x5,x16,1967	 x16:0x00000001  x5=0x00000001
       68415000	      6840	8000438c	41115093	srai	x1,x2,0x11	  x2:0xb7aee122  x1=0xffffdbd7
       68425000	      6841	80004390	011e5e93	srli	x29,x28,0x11	 x28:0xf80009f4 x29=0x00007c00
       68435000	      6842	80004394	04945863	bge	x8,x9,800043e4	  x8:0x00000001  x9:0x8f70dbff
       68445000	      6843	00000000	00000013	addi	x0,x0,0	  x0:0x00000000
       68455000	      6844	800043e0	00000013	addi	x0,x0,0	  x0:0x00000000
       68465000	      6845	800043e4	013e13b3	sll	x7,x28,x19	 x28:0xf80009f4 x19:0x01c08350  x7=0x09f40000
       68475000	      6846	800043e8	41f65e13	srai	x28,x12,0x1f	 x12:0x00000000 x28=0x00000000
       68485000	      6847	800043ec	5f8cb313	sltiu	x6,x25,1528	 x25:0x00001c05  x6=0x00000000
       68495000	      6848	800043f0	4fa83b13	sltiu	x22,x16,1274	 x16:0x00000001 x22=0x00000001
       68505000	      6849	800043f4	0083b933	sltu	x18,x7,x8	  x7:0x09f40000  x8:0x00000001 x18=0x00000000
       68515000	      6850	800043f8	05901863	bne	x0,x25,80004448	  x0:0x00000000 x25:0x00001c05
       68525000	      6851	00000000	00000013	addi	x0,x0,0	  x0:0x00000000
       68535000	      6852	80004444	00000013	addi	x0,x0,0	  x0:0x00000000
       68545000	      6853	80004448	3dc9f393	andi	x7,x19,988	 x19:0x01c08350  x7=0x00000350
       68555000	      6854	8000444c	0175a7b3	slt	x15,x11,x23	 x11:0x01c07e8e x23:0xeebe19e3 x15=0x00000000
       68565000	      6855	80004450	006701b3	add	x3,x14,x6	 x14:0x00000000  x6:0x00000000  x3=0x00000000
       68575000	      6856	80004454	01101cb3	sll	x25,x0,x17	  x0:0x00000000 x17:0x80009f49 x25=0x00000000
       68585000	      6857	80004458	4e262013	slti	x0,x12,1250	 x12:0x00000000
       68595000	      6858	8000445c	0078ac33	slt	x24,x17,x7	 x17:0x80009f49  x7:0x00000350 x24=0x00000001
       68605000	      6859	80004460	07a2c063	blt	x5,x26,800044c0	  x5:0x00000001 x26:0x00000001
       68615000	      6860	80004464	b63aad93	slti	x27,x21,-1181	 x21:0x80009f48 x27=0x00000001
       68625000	      6861	80004468	44617793	andi	x15,x2,1094	  x2:0xb7aee122 x15=0x00000002
       68635000	      6862	8000446c	013e5393	srli	x7,x28,0x13	 x28:0x00000000  x7=0x00000000
       68645000	      6863	80004470	006ec2b3	xor	x5,x29,x6	 x29:0x00007c00  x6:0x00000000  x5=0x00007c00
       68655000	      6864	80004474	00000013	addi	x0,x0,0	  x0:0x00000000
       68665000	      6865	80004478	9911b993	sltiu	x19,x3,-1647	  x3:0x00000000 x19=0x00000001
       68675000	      6866	8000447c	3d657993	andi	x19,x10,982	 x10:0x8000a1dc x19=0x000001d4
       68685000	      6867	80004480	a5e12793	slti	x15,x2,-1442	  x2:0xb7aee122 x15=0x00000001
       68695000	      6868	80004484	29876c37	lui	x24,0x29876	 x24=0x29876000
       68705000	      6869	80004488	013ed333	srl	x6,x29,x19	 x29:0x00007c00 x19:0x000001d4  x6=0x00000000
       68715000	      6870	8000448c	00d95593	srli	x11,x18,0xd	 x18:0x00000000 x11=0x00000000
       68725000	      6871	80004490	fffff517	auipc	x10,0xfffff	 x10=0x8000348c
       68735000	      6872	80004494	80c50513	addi	x10,x10,-2036	 x10:0x8000348c x10=0x80002c98
       68745000	      6873	80004498	31950513	addi	x10,x10,793	 x10:0x80002c98 x10=0x80002fb1
       68755000	      6874	8000449c	41755393	srai	x7,x10,0x17	 x10:0x80002fb1  x7=0xffffff00
       68765000	      6875	800044a0	00f09b33	sll	x22,x1,x15	  x1:0xffffdbd7 x15:0x00000001 x22=0xffffb7ae
       68775000	      6876	800044a4	ce8500e7	jalr	x1,x10,-792	 x10:0x80002fb1  x1=0x800044a4
       68785000	      6877	00000000	00000013	addi	x0,x0,0	  x0:0x00000000
       68795000	      6878	80002c98	00000013	addi	x0,x0,0	  x0:0x00000000
       68805000	      6879	80002c9c	01bef1b3	and	x3,x29,x27	 x29:0x00007c00 x27:0x00000001  x3=0x00000000
       68815000	      6880	80002ca0	fcca8a93	addi	x21,x21,-52	 x21:0x80009f48 x21=0x80009f14
       68825000	      6881	80002ca4	00771db3	sll	x27,x14,x7	 x14:0x00000000  x7:0xffffff00 x27=0x00000000
       68835000	      6882	80002ca8	0000c533	xor	x10,x1,x0	  x1:0x800044a4  x0:0x00000000 x10=0x800044a4
       68845000	      6883	80002cac	001aa223	sw	x1,4(x21)	 x21:0x80009f14  x1:0x800044a4 PA:0x80009f18
       68855000	      6884	80002cb0	0112d2b3	srl	x5,x5,x17	  x5:0x00007c00 x17:0x80009f49  x5=0x0000003e
       68865000	      6885	80002cb4	40945493	srai	x9,x8,0x9	  x8:0x00000001  x9=0x00000000
       68875000	      6886	80002cb8	405fd6b3	sra	x13,x31,x5	 x31:0x80009fc4  x5:0x0000003e x13=0xfffffffe
       68885000	      6887	80002cbc	b7bc8213	addi	x4,x25,-1157	 x25:0x00000000  x4=0xfffffb7b
       68895000	      6888	80002cc0	012f1263	bne	x30,x18,80002cc4	 x30:0x65c48008 x18:0x00000000
       68905000	      6889	00000000	00000013	addi	x0,x0,0	  x0:0x00000000
       68915000	      6890	80002cc0	00000013	addi	x0,x0,0	  x0:0x00000000
       68925000	      6891	80002cc4	01f996b3	sll	x13,x19,x31	 x19:0x000001d4 x31:0x80009fc4 x13=0x00001d40
       68935000	      6892	80002cc8	401e57b3	sra	x15,x28,x1	 x28:0x00000000  x1:0x800044a4 x15=0x00000000
       68945000	      6893	80002ccc	9d6de493	ori	x9,x27,-1578	 x27:0x00000000  x9=0xfffff9d6
       68955000	      6894	80002cd0	0040e263	bltu	x1,x4,80002cd4	  x1:0x800044a4  x4:0xfffffb7b
       68965000	      6895	00000000	00000013	addi	x0,x0,0	  x0:0x00000000
       68975000	      6896	80002cd0	00000013	addi	x0,x0,0	  x0:0x00000000
       68985000	      6897	80002cd4	005f9733	sll	x14,x31,x5	 x31:0x80009fc4  x5:0x0000003e x14=0x00000000
       68995000	      6898	80002cd8	e2564597	auipc	x11,0xe2564	 x11=0x62566cd4
       69005000	      6899	80002cdc	000a3d33	sltu	x26,x20,x0	 x20:0x00000000  x0:0x00000000 x26=0x00000000
       69015000	      6900	80002ce0	4235e793	ori	x15,x11,1059	 x11:0x62566cd4 x15=0x62566cf7
       69025000	      6901	80002ce4	00f9f933	and	x18,x19,x15	 x19:0x000001d4 x15:0x62566cf7 x18=0x000000d4
       69035000	      6902	80002ce8	014bdeb3	srl	x29,x23,x20	 x23:0xeebe19e3 x20:0x00000000 x29=0xeebe19e3
       69045000	      6903	80002cec	00a4f333	and	x6,x9,x10	  x9:0xfffff9d6 x10:0x800044a4  x6=0x80004084
       69055000	      6904	80002cf0	43f54193	xori	x3,x10,1087	 x10:0x800044a4  x3=0x8000409b
       69065000	      6905	80002cf4	01d212b3	sll	x5,x4,x29	  x4:0xfffffb7b x29:0xeebe19e3  x5=0xffffdbd8
       69075000	      6906	80002cf8	41225733	sra	x14,x4,x18	  x4:0xfffffb7b x18:0x000000d4 x14=0xffffffff
       69085000	      6907	80002cfc	03d51c63	bne	x10,x29,80002d34	 x10:0x800044a4 x29:0xeebe19e3
       69095000	      6908	00000000	00000013	addi	x0,x0,0	  x0:0x00000000
       69105000	      6909	80002d30	00000013	addi	x0,x0,0	  x0:0x00000000
       69115000	      6910	80002d34	006e2333	slt	x6,x28,x6	 x28:0x00000000  x6:0x80004084  x6=0x00000000
       69125000	      6911	80002d38	00001793	slli	x15,x0,0x0	  x0:0x00000000 x15=0x00000000
       69135000	      6912	80002d3c	015ad1b3	srl	x3,x21,x21	 x21:0x80009f14 x21:0x80009f14  x3=0x00000800
       69145000	      6913	80002d40	406b5913	srai	x18,x22,0x6	 x22:0xffffb7ae x18=0xfffffede
       69155000	      6914	80002d44	03821c63	bne	x4,x24,80002d7c	  x4:0xfffffb7b x24:0x29876000
       69165000	      6915	00000000	00000013	addi	x0,x0,0	  x0:0x00000000
       69175000	      6916	80002d78	00000013	addi	x0,x0,0	  x0:0x00000000
       69185000	      6917	80002d7c	00ae4733	xor	x14,x28,x10	 x28:0x00000000 x10:0x800044a4 x14=0x800044a4
       69195000	      6918	80002d80	00558433	add	x8,x11,x5	 x11:0x62566cd4  x5:0xffffdbd8  x8=0x625648ac
       69205000	      6919	80002d84	56c23513	sltiu	x10,x4,1388	  x4:0xfffffb7b x10=0x00000000
       69215000	      6920	80002d88	004aa083	lw	x1,4(x21)	 x21:0x80009f14  x1=0x800044a4 PA:0x80009f18
       69225000	      6921	80002d8c	034a8a93	addi	x21,x21,52	 x21:0x80009f14 x21=0x80009f48
       69235000	      6922	80002d90	01cd56b3	srl	x13,x26,x28	 x26:0x00000000 x28:0x00000000 x13=0x00000000
       69245000	      6923	80002d94	0136ba33	sltu	x20,x13,x19	 x13:0x00000000 x19:0x000001d4 x20=0x00000001
       69255000	      6924	80002d98	00dca6b3	slt	x13,x25,x13	 x25:0x00000000 x13:0x00000000 x13=0x00000000
       69265000	      6925	80002d9c	007b66b3	or	x13,x22,x7	 x22:0xffffb7ae  x7:0xffffff00 x13=0xffffffae
       69275000	      6926	80002da0	c3c8f593	andi	x11,x17,-964	 x17:0x80009f49 x11=0x80009c08
       69285000	      6927	80002da4	40d581b3	sub	x3,x11,x13	 x11:0x80009c08 x13:0xffffffae  x3=0x80009c5a
       69295000	      6928	80002da8	00008313	addi	x6,x1,0	  x1:0x800044a4  x6=0x800044a4
       69305000	      6929	80002dac	00030367	jalr	x6,x6,0	  x6:0x800044a4  x6=0x80002dac
       69315000	      6930	00000000	00000013	addi	x0,x0,0	  x0:0x00000000
       69325000	      6931	800044a4	00000013	addi	x0,x0,0	  x0:0x00000000
       69335000	      6932	800044a8	3e8eba37	lui	x20,0x3e8eb	 x20=0x3e8eb000
       69345000	      6933	800044ac	00d133b3	sltu	x7,x2,x13	  x2:0xb7aee122 x13:0xffffffae  x7=0x00000001
       69355000	      6934	800044b0	003dce63	blt	x27,x3,800044cc	 x27:0x00000000  x3:0x80009c5a
       69365000	      6935	800044b4	00000013	addi	x0,x0,0	  x0:0x00000000
       69375000	      6936	800044b8	01044d33	xor	x26,x8,x16	  x8:0x625648ac x16:0x00000001 x26=0x625648ad
       69385000	      6937	800044bc	40a20d93	addi	x27,x4,1034	  x4:0xfffffb7b x27=0xffffff85
       69395000	      6938	800044c0	00bf56b3	srl	x13,x30,x11	 x30:0x65c48008 x11:0x80009c08 x13=0x0065c480
       69405000	      6939	800044c4	936d8db7	lui	x27,0x936d8	 x27=0x936d8000
       69415000	      6940	800044c8	011c8633	add	x12,x25,x17	 x25:0x00000000 x17:0x80009f49 x12=0x80009f49
       69425000	      6941	800044cc	85e93793	sltiu	x15,x18,-1954	 x18:0xfffffede x15=0x00000000
       69435000	      6942	800044d0	013376b3	and	x13,x6,x19	  x6:0x80002dac x19:0x000001d4 x13=0x00000184
       69445000	      6943	800044d4	00000013	addi	x0,x0,0	  x0:0x00000000
       69455000	      6944	800044d8	44490013	addi	x0,x18,1092	 x18:0xfffffede
       69465000	      6945	800044dc	01d36b33	or	x22,x6,x29	  x6:0x80002dac x29:0xeebe19e3 x22=0xeebe3def
       69475000	      6946	800044e0	00542333	slt	x6,x8,x5	  x8:0x625648ac  x5:0xffffdbd8  x6=0x00000000
       69485000	      6947	800044e4	004aa083	lw	x1,4(x21)	 x21:0x80009f48  x1=0x80006c74 PA:0x80009f4c
       69495000	      6948	800044e8	018a8a93	addi	x21,x21,24	 x21:0x80009f48 x21=0x80009f60
       69505000	      6949	800044ec	00829e93	slli	x29,x5,0x8	  x5:0xffffdbd8 x29=0xffdbd800
       69515000	      6950	800044f0	00008813	addi	x16,x1,0	  x1:0x80006c74 x16=0x80006c74
       69525000	      6951	800044f4	00080867	jalr	x16,x16,0	 x16:0x80006c74 x16=0x800044f4
       69535000	      6952	00000000	00000013	addi	x0,x0,0	  x0:0x00000000
       69545000	      6953	80006c74	00000013	addi	x0,x0,0	  x0:0x00000000
       69555000	      6954	80006c78	e24fbe13	sltiu	x28,x31,-476	 x31:0x80009fc4 x28=0x00000001
       69565000	      6955	80006c7c	00618033	add	x0,x3,x6	  x3:0x80009c5a  x6:0x00000000
       69575000	      6956	80006c80	429b87b7	lui	x15,0x429b8	 x15=0x429b8000
       69585000	      6957	80006c84	05bac463	blt	x21,x27,80006ccc	 x21:0x80009f60 x27:0x936d8000
       69595000	      6958	00000000	00000013	addi	x0,x0,0	  x0:0x00000000
       69605000	      6959	80006cc8	00000013	addi	x0,x0,0	  x0:0x00000000
       69615000	      6960	80006ccc	4a30e817	auipc	x16,0x4a30e	 x16=0xca314cc8
       69625000	      6961	80006cd0	70692013	slti	x0,x18,1798	 x18:0xfffffede
       69635000	      6962	80006cd4	0124b833	sltu	x16,x9,x18	  x9:0xfffff9d6 x18:0xfffffede x16=0x00000001
       69645000	      6963	80006cd8	00aef9b3	and	x19,x29,x10	 x29:0xffdbd800 x10:0x00000000 x19=0x00000000
       69655000	      6964	80006cdc	e9f22513	slti	x10,x4,-353	  x4:0xfffffb7b x10=0x00000001
       69665000	      6965	80006ce0	008dd1b3	srl	x3,x27,x8	 x27:0x936d8000  x8:0x625648ac  x3=0x000936d8
       69675000	      6966	80006ce4	0104b933	sltu	x18,x9,x16	  x9:0xfffff9d6 x16:0x00000001 x18=0x00000000
       69685000	      6967	80006ce8	004aa083	lw	x1,4(x21)	 x21:0x80009f60  x1=0x800022bc PA:0x80009f64
       69695000	      6968	80006cec	024a8a93	addi	x21,x21,36	 x21:0x80009f60 x21=0x80009f84
       69705000	      6969	80006cf0	f6c5fb93	andi	x23,x11,-148	 x11:0x80009c08 x23=0x80009c08
       69715000	      6970	80006cf4	007c6f33	or	x30,x24,x7	 x24:0x29876000  x7:0x00000001 x30=0x29876001
       69725000	      6971	80006cf8	017f9813	slli	x16,x31,0x17	 x31:0x80009fc4 x16=0xe2000000
       69735000	      6972	80006cfc	00ad98b3	sll	x17,x27,x10	 x27:0x936d8000 x10:0x00000001 x17=0x26db0000
       69745000	      6973	80006d00	00008c93	addi	x25,x1,0	  x1:0x800022bc x25=0x800022bc
       69755000	      6974	80006d04	000c8ce7	jalr	x25,x25,0	 x25:0x800022bc x25=0x80006d04
       69765000	      6975	00000000	00000013	addi	x0,x0,0	  x0:0x00000000
       69775000	      6976	800022bc	00000013	addi	x0,x0,0	  x0:0x00000000
       69785000	      6977	800022c0	019729b3	slt	x19,x14,x25	 x14:0x800044a4 x25:0x80006d04 x19=0x00000001
       69795000	      6978	800022c4	04826663	bltu	x4,x8,80002310	  x4:0xfffffb7b  x8:0x625648ac
       69805000	      6979	800022c8	034edc63	bge	x29,x20,80002300	 x29:0xffdbd800 x20:0x3e8eb000
       69815000	      6980	800022cc	4e5c0413	addi	x8,x24,1253	 x24:0x29876000  x8=0x298764e5
       69825000	      6981	800022d0	00e09e93	slli	x29,x1,0xe	  x1:0x800022bc x29=0x08af0000
       69835000	      6982	800022d4	004ea033	slt	x0,x29,x4	 x29:0x08af0000  x4:0xfffffb7b
       69845000	      6983	800022d8	01290c33	add	x24,x18,x18	 x18:0x00000000 x18:0x00000000 x24=0x00000000
       69855000	      6984	800022dc	addb6693	ori	x13,x22,-1315	 x22:0xeebe3def x13=0xffffffff
       69865000	      6985	800022e0	6ba498b7	lui	x17,0x6ba49	 x17=0x6ba49000
       69875000	      6986	800022e4	598fb493	sltiu	x9,x31,1432	 x31:0x80009fc4  x9=0x00000000
       69885000	      6987	800022e8	00000013	addi	x0,x0,0	  x0:0x00000000
       69895000	      6988	800022ec	015ba7b3	slt	x15,x23,x21	 x23:0x80009c08 x21:0x80009f84 x15=0x00000001
       69905000	      6989	800022f0	416f5933	sra	x18,x30,x22	 x30:0x29876001 x22:0xeebe3def x18=0x0000530e
       69915000	      6990	800022f4	02de4663	blt	x28,x13,80002320	 x28:0x00000001 x13:0xffffffff
       69925000	      6991	800022f8	00f056b3	srl	x13,x0,x15	  x0:0x00000000 x15:0x00000001 x13=0x00000000
       69935000	      6992	800022fc	30e3aa13	slti	x20,x7,782	  x7:0x00000001 x20=0x00000001
       69945000	      6993	80002300	00e98f33	add	x30,x19,x14	 x19:0x00000001 x14:0x800044a4 x30=0x800044a5
       69955000	      6994	80002304	cd3f4413	xori	x8,x30,-813	 x30:0x800044a5  x8=0x7fffb876
       69965000	      6995	80002308	4f853097	auipc	x1,0x4f853	  x1=0xcf855304
       69975000	      6996	8000230c	022d4e63	blt	x26,x2,80002348	 x26:0x625648ad  x2:0xb7aee122
       69985000	      6997	80002310	00000013	addi	x0,x0,0	  x0:0x00000000
       69995000	      6998	80002314	414c5b93	srai	x23,x24,0x14	 x24:0x00000000 x23=0x00000000
       70005000	      6999	80002318	01e19033	sll	x0,x3,x30	  x3:0x000936d8 x30:0x800044a5
       70015000	      7000	8000231c	01f19c33	sll	x24,x3,x31	  x3:0x000936d8 x31:0x80009fc4 x24=0x00936d80
       70025000	      7001	80002320	005df7b3	and	x15,x27,x5	 x27:0x936d8000  x5:0xffffdbd8 x15=0x936d8000
       70035000	      7002	80002324	007aa3b3	slt	x7,x21,x7	 x21:0x80009f84  x7:0x00000001  x7=0x00000001
       70045000	      7003	80002328	4072d033	sra	x0,x5,x7	  x5:0xffffdbd8  x7:0x00000001
       70055000	      7004	8000232c	01e45c13	srli	x24,x8,0x1e	  x8:0x7fffb876 x24=0x00000001
       70065000	      7005	80002330	006bcdb3	xor	x27,x23,x6	 x23:0x00000000  x6:0x00000000 x27=0x00000000
       70075000	      7006	80002334	2e6392b7	lui	x5,0x2e639	  x5=0x2e639000
       70085000	      7007	80002338	29c7b893	sltiu	x17,x15,668	 x15:0x936d8000 x17=0x00000000
       70095000	      7008	8000233c	00000013	addi	x0,x0,0	  x0:0x00000000
       70105000	      7009	80002340	0096d3b3	srl	x7,x13,x9	 x13:0x00000000  x9:0x00000000  x7=0x00000000
       70115000	      7010	80002344	00026733	or	x14,x4,x0	  x4:0xfffffb7b  x0:0x00000000 x14=0xfffffb7b
       70125000	      7011	80002348	00cf8c63	beq	x31,x12,80002360	 x31:0x80009fc4 x12:0x80009f49
       70135000	      7012	8000234c	0016cc33	xor	x24,x13,x1	 x13:0x00000000  x1:0xcf855304 x24=0xcf855304
       70145000	      7013	80002350	0030c833	xor	x16,x1,x3	  x1:0xcf855304  x3:0x000936d8 x16=0xcf8c65dc
       70155000	      7014	80002354	04e6c663	blt	x13,x14,800023a0	 x13:0x00000000 x14:0xfffffb7b
       70165000	      7015	80002358	03a97a63	bgeu	x18,x26,8000238c	 x18:0x0000530e x26:0x625648ad
       70175000	      7016	8000235c	9880f993	andi	x19,x1,-1656	  x1:0xcf855304 x19=0xcf855100
       70185000	      7017	80002360	416f5b13	srai	x22,x30,0x16	 x30:0x800044a5 x22=0xfffffe00
       70195000	      7018	80002364	00695a13	srli	x20,x18,0x6	 x18:0x0000530e x20=0x0000014c
       70205000	      7019	80002368	01d3d1b3	srl	x3,x7,x29	  x7:0x00000000 x29:0x08af0000  x3=0x00000000
       70215000	      7020	8000236c	ab7c8613	addi	x12,x25,-1353	 x25:0x80006d04 x12=0x800067bb
       70225000	      7021	80002370	40cd04b3	sub	x9,x26,x12	 x26:0x625648ad x12:0x800067bb  x9=0xe255e0f2
       70235000	      7022	80002374	419ad3b3	sra	x7,x21,x25	 x21:0x80009f84 x25:0x80006d04  x7=0xf80009f8
       70245000	      7023	80002378	41030433	sub	x8,x6,x16	  x6:0x00000000 x16:0xcf8c65dc  x8=0x30739a24
       70255000	      7024	8000237c	83492893	slti	x17,x18,-1996	 x18:0x0000530e x17=0x00000000
       70265000	      7025	80002380	02266663	bltu	x12,x2,800023ac	 x12:0x800067bb  x2:0xb7aee122
       70275000	      7026	00000000	00000013	addi	x0,x0,0	  x0:0x00000000
       70285000	      7027	800023a8	00000013	addi	x0,x0,0	  x0:0x00000000
       70295000	      7028	800023ac	41e106b3	sub	x13,x2,x30	  x2:0xb7aee122 x30:0x800044a5 x13=0x37ae9c7d
       70305000	      7029	800023b0	0019b6b3	sltu	x13,x19,x1	 x19:0xcf855100  x1:0xcf855304 x13=0x00000001
       70315000	      7030	800023b4	03f76263	bltu	x14,x31,800023d8	 x14:0xfffffb7b x31:0x80009fc4
       70325000	      7031	800023b8	01ce1d13	slli	x26,x28,0x1c	 x28:0x00000001 x26=0x10000000
       70335000	      7032	800023bc	01024433	xor	x8,x4,x16	  x4:0xfffffb7b x16:0xcf8c65dc  x8=0x30739ea7
       70345000	      7033	800023c0	40e5d893	srai	x17,x11,0xe	 x11:0x80009c08 x17=0xfffe0002
       70355000	      7034	800023c4	00f278b3	and	x17,x4,x15	  x4:0xfffffb7b x15:0x936d8000 x17=0x936d8000
       70365000	      7035	800023c8	75c4e293	ori	x5,x9,1884	  x9:0xe255e0f2  x5=0xe255e7fe
       70375000	      7036	800023cc	02039e63	bne	x7,x0,80002408	  x7:0xf80009f8  x0:0x00000000
       70385000	      7037	00000000	00000013	addi	x0,x0,0	  x0:0x00000000
       70395000	      7038	80002404	00000013	addi	x0,x0,0	  x0:0x00000000
       70405000	      7039	80002408	04f35063	bge	x6,x15,80002448	  x6:0x00000000 x15:0x936d8000
       70415000	      7040	00000000	00000013	addi	x0,x0,0	  x0:0x00000000
       70425000	      7041	80002444	00000013	addi	x0,x0,0	  x0:0x00000000
       70435000	      7042	80002448	e7a9f013	andi	x0,x19,-390	 x19:0xcf855100
       70445000	      7043	8000244c	01e1a433	slt	x8,x3,x30	  x3:0x00000000 x30:0x800044a5  x8=0x00000000
       70455000	      7044	80002450	03316793	ori	x15,x2,51	  x2:0xb7aee122 x15=0xb7aee133
       70465000	      7045	80002454	033f2013	slti	x0,x30,51	 x30:0x800044a5
       70475000	      7046	80002458	01dd1413	slli	x8,x26,0x1d	 x26:0x10000000  x8=0x00000000
       70485000	      7047	8000245c	419b0633	sub	x12,x22,x25	 x22:0xfffffe00 x25:0x80006d04 x12=0x7fff90fc
       70495000	      7048	80002460	003665b3	or	x11,x12,x3	 x12:0x7fff90fc  x3:0x00000000 x11=0x7fff90fc
       70505000	      7049	80002464	00e1c5b3	xor	x11,x3,x14	  x3:0x00000000 x14:0xfffffb7b x11=0xfffffb7b
       70515000	      7050	80002468	404bd697	auipc	x13,0x404bd	 x13=0xc04bf464
       70525000	      7051	8000246c	d3293393	sltiu	x7,x18,-718	 x18:0x0000530e  x7=0x00000001
       70535000	      7052	80002470	252c2c93	slti	x25,x24,594	 x24:0xcf855304 x25=0x00000001
       70545000	      7053	80002474	1eaa2e13	slti	x28,x20,490	 x20:0x0000014c x28=0x00000001
       70555000	      7054	80002478	006f5c63	bge	x30,x6,80002490	 x30:0x800044a5  x6:0x00000000
       70565000	      7055	8000247c	01800c63	beq	x0,x24,80002494	  x0:0x00000000 x24:0xcf855304
       70575000	      7056	80002480	41ffda33	sra	x20,x31,x31	 x31:0x80009fc4 x31:0x80009fc4 x20=0xf80009fc
       70585000	      7057	80002484	01e38c63	beq	x7,x30,8000249c	  x7:0x00000001 x30:0x800044a5
       70595000	      7058	80002488	01edd633	srl	x12,x27,x30	 x27:0x00000000 x30:0x800044a5 x12=0x00000000
       70605000	      7059	8000248c	22bdfe17	auipc	x28,0x22bdf	 x28=0xa2be1488
       70615000	      7060	80002490	41425e93	srai	x29,x4,0x14	  x4:0xfffffb7b x29=0xffffffff
       70625000	      7061	80002494	01d87e33	and	x28,x16,x29	 x16:0xcf8c65dc x29:0xffffffff x28=0xcf8c65dc
       70635000	      7062	80002498	03091063	bne	x18,x16,800024b8	 x18:0x0000530e x16:0xcf8c65dc
       70645000	      7063	00000000	00000013	addi	x0,x0,0	  x0:0x00000000
       70655000	      7064	800024b4	00000013	addi	x0,x0,0	  x0:0x00000000
       70665000	      7065	800024b8	40ba0333	sub	x6,x20,x11	 x20:0xf80009fc x11:0xfffffb7b  x6=0xf8000e81
       70675000	      7066	800024bc	55028993	addi	x19,x5,1360	  x5:0xe255e7fe x19=0xe255ed4e
       70685000	      7067	800024c0	029cde63	bge	x25,x9,800024fc	 x25:0x00000001  x9:0xe255e0f2
       70695000	      7068	00000000	00000013	addi	x0,x0,0	  x0:0x00000000
       70705000	      7069	800024f8	00000013	addi	x0,x0,0	  x0:0x00000000
       70715000	      7070	800024fc	ff16f913	andi	x18,x13,-15	 x13:0xc04bf464 x18=0xc04bf460
       70725000	      7071	80002500	07634f13	xori	x30,x6,118	  x6:0xf8000e81 x30=0xf8000ef7
       70735000	      7072	80002504	8c22c613	xori	x12,x5,-1854	  x5:0xe255e7fe x12=0x1daa1f3c
       70745000	      7073	80002508	01c31893	slli	x17,x6,0x1c	  x6:0xf8000e81 x17=0x10000000
       70755000	      7074	8000250c	62ac3317	auipc	x6,0x62ac3	  x6=0xe2ac5508
       70765000	      7075	80002510	01d05293	srli	x5,x0,0x1d	  x0:0x00000000  x5=0x00000000
       70775000	      7076	80002514	ae7b4313	xori	x6,x22,-1305	 x22:0xfffffe00  x6=0x000004e7
       70785000	      7077	80002518	009433b3	sltu	x7,x8,x9	  x8:0x00000000  x9:0xe255e0f2  x7=0x00000001
       70795000	      7078	8000251c	005728b3	slt	x17,x14,x5	 x14:0xfffffb7b  x5:0x00000000 x17=0x00000001
       70805000	      7079	80002520	045fd863	bge	x31,x5,80002570	 x31:0x80009fc4  x5:0x00000000
       70815000	      7080	80002524	00000013	addi	x0,x0,0	  x0:0x00000000
       70825000	      7081	80002528	01b871b3	and	x3,x16,x27	 x16:0xcf8c65dc x27:0x00000000  x3=0x00000000
       70835000	      7082	8000252c	05d6c663	blt	x13,x29,80002578	 x13:0xc04bf464 x29:0xffffffff
       70845000	      7083	00000000	00000013	addi	x0,x0,0	  x0:0x00000000
       70855000	      7084	80002574	00000013	addi	x0,x0,0	  x0:0x00000000
       70865000	      7085	80002578	03889c63	bne	x17,x24,800025b0	 x17:0x00000001 x24:0xcf855304
       70875000	      7086	00000000	00000013	addi	x0,x0,0	  x0:0x00000000
       70885000	      7087	800025ac	00000013	addi	x0,x0,0	  x0:0x00000000
       70895000	      7088	800025b0	00e772b3	and	x5,x14,x14	 x14:0xfffffb7b x14:0xfffffb7b  x5=0xfffffb7b
       70905000	      7089	800025b4	45e14c93	xori	x25,x2,1118	  x2:0xb7aee122 x25=0xb7aee57c
       70915000	      7090	800025b8	045be663	bltu	x23,x5,80002604	 x23:0x00000000  x5:0xfffffb7b
       70925000	      7091	00000000	00000013	addi	x0,x0,0	  x0:0x00000000
       70935000	      7092	80002600	00000013	addi	x0,x0,0	  x0:0x00000000
       70945000	      7093	80002604	0f919463	bne	x3,x25,800026ec	  x3:0x00000000 x25:0xb7aee57c
       70955000	      7094	00000000	00000013	addi	x0,x0,0	  x0:0x00000000
       70965000	      7095	800026e8	00000013	addi	x0,x0,0	  x0:0x00000000
       70975000	      7096	800026ec	02b80263	beq	x16,x11,80002710	 x16:0xcf8c65dc x11:0xfffffb7b
       70985000	      7097	800026f0	04d19863	bne	x3,x13,80002740	  x3:0x00000000 x13:0xc04bf464
       70995000	      7098	00000000	00000013	addi	x0,x0,0	  x0:0x00000000
       71005000	      7099	8000273c	00000013	addi	x0,x0,0	  x0:0x00000000
       71015000	      7100	80002740	56768213	addi	x4,x13,1383	 x13:0xc04bf464  x4=0xc04bf9cb
       71025000	      7101	80002744	01fb2933	slt	x18,x22,x31	 x22:0xfffffe00 x31:0x80009fc4 x18=0x00000000
       71035000	      7102	80002748	011a0a33	add	x20,x20,x17	 x20:0xf80009fc x17:0x00000001 x20=0xf80009fd
       71045000	      7103	8000274c	052a9863	bne	x21,x18,8000279c	 x21:0x80009f84 x18:0x00000000
       71055000	      7104	00000000	00000013	addi	x0,x0,0	  x0:0x00000000
       71065000	      7105	80002798	00000013	addi	x0,x0,0	  x0:0x00000000
       71075000	      7106	8000279c	4482be93	sltiu	x29,x5,1096	  x5:0xfffffb7b x29=0x00000000
       71085000	      7107	800027a0	032bd663	bge	x23,x18,800027cc	 x23:0x00000000 x18:0x00000000
       71095000	      7108	00000000	00000013	addi	x0,x0,0	  x0:0x00000000
       71105000	      7109	800027c8	00000013	addi	x0,x0,0	  x0:0x00000000
       71115000	      7110	800027cc	590f2c13	slti	x24,x30,1424	 x30:0xf8000ef7 x24=0x00000001
       71125000	      7111	800027d0	a977e413	ori	x8,x15,-1385	 x15:0xb7aee133  x8=0xfffffbb7
       71135000	      7112	800027d4	007301b3	add	x3,x6,x7	  x6:0x000004e7  x7:0x00000001  x3=0x000004e8
       71145000	      7113	800027d8	ba80ab13	slti	x22,x1,-1112	  x1:0xcf855304 x22=0x00000001
       71155000	      7114	800027dc	01a97333	and	x6,x18,x26	 x18:0x00000000 x26:0x10000000  x6=0x00000000
       71165000	      7115	800027e0	010064b3	or	x9,x0,x16	  x0:0x00000000 x16:0xcf8c65dc  x9=0xcf8c65dc
       71175000	      7116	800027e4	02c2e463	bltu	x5,x12,8000280c	  x5:0xfffffb7b x12:0x1daa1f3c
       71185000	      7117	800027e8	fc928993	addi	x19,x5,-55	  x5:0xfffffb7b x19=0xfffffb44
       71195000	      7118	800027ec	40a65633	sra	x12,x12,x10	 x12:0x1daa1f3c x10:0x00000001 x12=0x0ed50f9e
       71205000	      7119	800027f0	50ce0e13	addi	x28,x28,1292	 x28:0xcf8c65dc x28=0xcf8c6ae8
       71215000	      7120	800027f4	41a75413	srai	x8,x14,0x1a	 x14:0xfffffb7b  x8=0xffffffff
       71225000	      7121	800027f8	00ea8c33	add	x24,x21,x14	 x21:0x80009f84 x14:0xfffffb7b x24=0x80009aff
       71235000	      7122	800027fc	f594f497	auipc	x9,0xf594f	  x9=0x759517f8
       71245000	      7123	80002800	008bd863	bge	x23,x8,80002810	 x23:0x00000000  x8:0xffffffff
       71255000	      7124	00000000	00000013	addi	x0,x0,0	  x0:0x00000000
       71265000	      7125	8000280c	00000013	addi	x0,x0,0	  x0:0x00000000
       71275000	      7126	80002810	00000013	addi	x0,x0,0	  x0:0x00000000
       71285000	      7127	80002814	019cfeb3	and	x29,x25,x25	 x25:0xb7aee57c x25:0xb7aee57c x29=0xb7aee57c
       71295000	      7128	80002818	aede2513	slti	x10,x28,-1299	 x28:0xcf8c6ae8 x10=0x00000001
       71305000	      7129	8000281c	a3d3b213	sltiu	x4,x7,-1475	  x7:0x00000001  x4=0x00000001
       71315000	      7130	80002820	00245833	srl	x16,x8,x2	  x8:0xffffffff  x2:0xb7aee122 x16=0x3fffffff
       71325000	      7131	80002824	01af3d33	sltu	x26,x30,x26	 x30:0xf8000ef7 x26:0x10000000 x26=0x00000000
       71335000	      7132	80002828	00659333	sll	x6,x11,x6	 x11:0xfffffb7b  x6:0x00000000  x6=0xfffffb7b
       71345000	      7133	8000282c	00184db3	xor	x27,x16,x1	 x16:0x3fffffff  x1:0xcf855304 x27=0xf07aacfb
       71355000	      7134	80002830	00000013	addi	x0,x0,0	  x0:0x00000000
       71365000	      7135	80002834	006a0e63	beq	x20,x6,80002850	 x20:0xf80009fd  x6:0xfffffb7b
       71375000	      7136	80002838	0135b833	sltu	x16,x11,x19	 x11:0xfffffb7b x19:0xfffffb44 x16=0x00000000
       71385000	      7137	8000283c	00cb1513	slli	x10,x22,0xc	 x22:0x00000001 x10=0x00001000
       71395000	      7138	80002840	03642993	slti	x19,x8,54	  x8:0xffffffff x19=0x00000001
       71405000	      7139	80002844	01379933	sll	x18,x15,x19	 x15:0xb7aee133 x19:0x00000001 x18=0x6f5dc266
       71415000	      7140	80002848	26476f13	ori	x30,x14,612	 x14:0xfffffb7b x30=0xfffffb7f
       71425000	      7141	8000284c	00773533	sltu	x10,x14,x7	 x14:0xfffffb7b  x7:0x00000001 x10=0x00000000
       71435000	      7142	80002850	001d9393	slli	x7,x27,0x1	 x27:0xf07aacfb  x7=0xe0f559f6
       71445000	      7143	80002854	000905b3	add	x11,x18,x0	 x18:0x6f5dc266  x0:0x00000000 x11=0x6f5dc266
       71455000	      7144	80002858	0051da63	bge	x3,x5,8000286c	  x3:0x000004e8  x5:0xfffffb7b
       71465000	      7145	00000000	00000013	addi	x0,x0,0	  x0:0x00000000
       71475000	      7146	80002868	00000013	addi	x0,x0,0	  x0:0x00000000
       71485000	      7147	8000286c	01f0c7b3	xor	x15,x1,x31	  x1:0xcf855304 x31:0x80009fc4 x15=0x4f85ccc0
       71495000	      7148	80002870	00000117	auipc	x2,0x0	  x2=0x8000286c
       71505000	      7149	80002874	00c10113	addi	x2,x2,12	  x2:0x8000286c  x2=0x80002878
       71515000	      7150	80002878	00010067	jalr	x0,x2,0	  x2:0x80002878
       71525000	      7151	00000000	00000013	addi	x0,x0,0	  x0:0x00000000
       71535000	      7152	80002878	00000013	addi	x0,x0,0	  x0:0x00000000
       71545000	      7153	8000287c	00100193	addi	x3,x0,1	  x0:0x00000000  x3=0x00000001
       71555000	      7154	80002880	00000073	ecall	
       71565000	      7155	80002884	01e48e33	add	x28,x9,x30	  x9:0x759517f8 x30:0xfffffb7f x28=0x75951377
