		Time			Cycle	PC		Insn	Decoded instruction	Register and memory contents
          65000	         5	80000004	00000293	addi	x5,x0,0	  x0:0x00000000  x5=0x00000000
          75000	         6	80000008	00000313	addi	x6,x0,0	  x0:0x00000000  x6=0x00000000
          85000	         7	8000000c	00628263	beq	x5,x6,80000010	  x5:0x00000000  x6:0x00000000
          95000	         8	00000000	00000013	addi	x0,x0,0	  x0:0x00000000
         105000	         9	8000000c	00000013	addi	x0,x0,0	  x0:0x00000000
         115000	        10	80000010	00000617	auipc	x12,0x0	 x12=0x8000000c
         125000	        11	80000014	00c60613	addi	x12,x12,12	 x12:0x8000000c x12=0x80000018
         135000	        12	80000018	00060067	jalr	x0,x12,0	 x12:0x80000018
         145000	        13	00000000	00000013	addi	x0,x0,0	  x0:0x00000000
         155000	        14	80000018	00000013	addi	x0,x0,0	  x0:0x00000000
         165000	        15	8000001c	400003b7	lui	x7,0x40000	  x7=0x40000000
         175000	        16	80000020	10038393	addi	x7,x7,256	  x7:0x40000000  x7=0x40000100
         185000	        17	80000024	00000013	addi	x0,x0,0	  x0:0x00000000
         195000	        18	80000028	0000ad17	auipc	x26,0xa	 x26=0x8000a024
         205000	        19	8000002c	fa0d0d13	addi	x26,x26,-96	 x26:0x8000a024 x26=0x80009fc4
         215000	        20	80000030	00007397	auipc	x7,0x7	  x7=0x8000702c
         225000	        21	80000034	c8038393	addi	x7,x7,-896	  x7:0x8000702c  x7=0x80006cac
         235000	        22	80000038	0003e393	ori	x7,x7,0	  x7:0x80006cac  x7=0x80006cac
         245000	        23	8000003c	00000013	addi	x0,x0,0	  x0:0x00000000
         255000	        24	80000040	00000397	auipc	x7,0x0	  x7=0x8000003c
         265000	        25	80000044	02038393	addi	x7,x7,32	  x7:0x8000003c  x7=0x8000005c
         275000	        26	80000048	00000013	addi	x0,x0,0	  x0:0x00000000
         285000	        27	8000004c	00000013	addi	x0,x0,0	  x0:0x00000000
         295000	        28	80000050	000023b7	lui	x7,0x2	  x7=0x00002000
         305000	        29	80000054	80038393	addi	x7,x7,-2048	  x7:0x00002000  x7=0x00001800
         315000	        30	80000058	00000013	addi	x0,x0,0	  x0:0x00000000
         325000	        31	8000005c	00000013	addi	x0,x0,0	  x0:0x00000000
         335000	        32	80000060	00200013	addi	x0,x0,2	  x0:0x00000000
         345000	        33	80000064	00900093	addi	x1,x0,9	  x0:0x00000000  x1=0x00000009
         355000	        34	80000068	ffb90137	lui	x2,0xffb90	  x2=0xffb90000
         365000	        35	8000006c	61a10113	addi	x2,x2,1562	  x2:0xffb90000  x2=0xffb9061a
         375000	        36	80000070	15c5e1b7	lui	x3,0x15c5e	  x3=0x15c5e000
         385000	        37	80000074	d1118193	addi	x3,x3,-751	  x3:0x15c5e000  x3=0x15c5dd11
         395000	        38	80000078	9f3ff237	lui	x4,0x9f3ff	  x4=0x9f3ff000
         405000	        39	8000007c	c6520213	addi	x4,x4,-923	  x4:0x9f3ff000  x4=0x9f3fec65
         415000	        40	80000080	00d00293	addi	x5,x0,13	  x0:0x00000000  x5=0x0000000d
         425000	        41	80000084	f2296337	lui	x6,0xf2296	  x6=0xf2296000
         435000	        42	80000088	05330313	addi	x6,x6,83	  x6:0xf2296000  x6=0xf2296053
         445000	        43	8000008c	f046a3b7	lui	x7,0xf046a	  x7=0xf046a000
         455000	        44	80000090	32138393	addi	x7,x7,801	  x7:0xf046a000  x7=0xf046a321
         465000	        45	80000094	f9aab437	lui	x8,0xf9aab	  x8=0xf9aab000
         475000	        46	80000098	66440413	addi	x8,x8,1636	  x8:0xf9aab000  x8=0xf9aab664
         485000	        47	8000009c	8f50d4b7	lui	x9,0x8f50d	  x9=0x8f50d000
         495000	        48	800000a0	74048493	addi	x9,x9,1856	  x9:0x8f50d000  x9=0x8f50d740
         505000	        49	800000a4	00f00513	addi	x10,x0,15	  x0:0x00000000 x10=0x0000000f
         515000	        50	800000a8	2ffb85b7	lui	x11,0x2ffb8	 x11=0x2ffb8000
         525000	        51	800000ac	95c58593	addi	x11,x11,-1700	 x11:0x2ffb8000 x11=0x2ffb795c
         535000	        52	800000b0	00000613	addi	x12,x0,0	  x0:0x00000000 x12=0x00000000
         545000	        53	800000b4	00400693	addi	x13,x0,4	  x0:0x00000000 x13=0x00000004
         555000	        54	800000b8	f6bac737	lui	x14,0xf6bac	 x14=0xf6bac000
         565000	        55	800000bc	65b70713	addi	x14,x14,1627	 x14:0xf6bac000 x14=0xf6bac65b
         575000	        56	800000c0	fbb66837	lui	x16,0xfbb66	 x16=0xfbb66000
         585000	        57	800000c4	aea80813	addi	x16,x16,-1302	 x16:0xfbb66000 x16=0xfbb65aea
         595000	        58	800000c8	00000893	addi	x17,x0,0	  x0:0x00000000 x17=0x00000000
         605000	        59	800000cc	15f8c937	lui	x18,0x15f8c	 x18=0x15f8c000
         615000	        60	800000d0	75f90913	addi	x18,x18,1887	 x18:0x15f8c000 x18=0x15f8c75f
         625000	        61	800000d4	00b00993	addi	x19,x0,11	  x0:0x00000000 x19=0x0000000b
         635000	        62	800000d8	f6391a37	lui	x20,0xf6391	 x20=0xf6391000
         645000	        63	800000dc	e13a0a13	addi	x20,x20,-493	 x20:0xf6391000 x20=0xf6390e13
         655000	        64	800000e0	f6b01ab7	lui	x21,0xf6b01	 x21=0xf6b01000
         665000	        65	800000e4	573a8a93	addi	x21,x21,1395	 x21:0xf6b01000 x21=0xf6b01573
         675000	        66	800000e8	80000b37	lui	x22,0x80000	 x22=0x80000000
         685000	        67	800000ec	00900b93	addi	x23,x0,9	  x0:0x00000000 x23=0x00000009
         695000	        68	800000f0	ae55fc37	lui	x24,0xae55f	 x24=0xae55f000
         705000	        69	800000f4	23ac0c13	addi	x24,x24,570	 x24:0xae55f000 x24=0xae55f23a
         715000	        70	800000f8	408ebcb7	lui	x25,0x408eb	 x25=0x408eb000
         725000	        71	800000fc	476c8c93	addi	x25,x25,1142	 x25:0x408eb000 x25=0x408eb476
         735000	        72	80000100	00f00d93	addi	x27,x0,15	  x0:0x00000000 x27=0x0000000f
         745000	        73	80000104	00200e13	addi	x28,x0,2	  x0:0x00000000 x28=0x00000002
         755000	        74	80000108	80000eb7	lui	x29,0x80000	 x29=0x80000000
         765000	        75	8000010c	00d00f13	addi	x30,x0,13	  x0:0x00000000 x30=0x0000000d
         775000	        76	80000110	00a00f93	addi	x31,x0,10	  x0:0x00000000 x31=0x0000000a
         785000	        77	80000114	0000a797	auipc	x15,0xa	 x15=0x8000a110
         795000	        78	80000118	e7478793	addi	x15,x15,-396	 x15:0x8000a110 x15=0x80009f84
         805000	        79	8000011c	00008f97	auipc	x31,0x8	 x31=0x80008118
         815000	        80	80000120	77af8f93	addi	x31,x31,1914	 x31:0x80008118 x31=0x80008892
         825000	        81	80000124	239f9a23	sh	x25,564(x31)	 x31:0x80008892 x25:0x408eb476 PA:0x80008ac6
         835000	        82	80000128	0cbfce83	lbu	x29,203(x31)	 x31:0x80008892 x29=0x0000008e PA:0x8000895d
         845000	        83	8000012c	01a25113	srli	x2,x4,0x1a	  x4:0x9f3fec65  x2=0x00000027
         855000	        84	80000130	007dc333	xor	x6,x27,x7	 x27:0x0000000f  x7:0xf046a321  x6=0xf046a32e
         865000	        85	80000134	010d5e13	srli	x28,x26,0x10	 x26:0x80009fc4 x28=0x00008000
         875000	        86	80000138	0054b1b3	sltu	x3,x9,x5	  x9:0x8f50d740  x5:0x0000000d  x3=0x00000000
         885000	        87	8000013c	01a19e33	sll	x28,x3,x26	  x3:0x00000000 x26:0x80009fc4 x28=0x00000000
         895000	        88	80000140	612f9d83	lh	x27,1554(x31)	 x31:0x80008892 x27=0x0000656d PA:0x80008ea4
         905000	        89	80000144	aeab0113	addi	x2,x22,-1302	 x22:0x80000000  x2=0x7ffffaea
         915000	        90	80000148	00367133	and	x2,x12,x3	 x12:0x00000000  x3:0x00000000  x2=0x00000000
         925000	        91	8000014c	54270393	addi	x7,x14,1346	 x14:0xf6bac65b  x7=0xf6bacb9d
         935000	        92	80000150	6cd0b593	sltiu	x11,x1,1741	  x1:0x00000009 x11=0x00000001
         945000	        93	80000154	3d5faf23	sw	x21,990(x31)	 x31:0x80008892 x21:0xf6b01573 PA:0x80008c70
         955000	        94	80000158	024fdd83	lhu	x27,36(x31)	 x31:0x80008892 x27=0x00005a8e PA:0x800088b6
         965000	        95	8000015c	2c3f8523	sb	x3,714(x31)	 x31:0x80008892  x3:0x00000000 PA:0x80008b5c
         975000	        96	80000160	94560293	addi	x5,x12,-1723	 x12:0x00000000  x5=0xfffff945
         985000	        97	80000164	59bf8e03	lb	x28,1435(x31)	 x31:0x80008892 x28=0xffffff88 PA:0x80008e2d
         995000	        98	80000168	00bc0433	add	x8,x24,x11	 x24:0xae55f23a x11:0x00000001  x8=0xae55f23b
        1005000	        99	8000016c	30db4e93	xori	x29,x22,781	 x22:0x80000000 x29=0x8000030d
        1015000	       100	80000170	009f5513	srli	x10,x30,0x9	 x30:0x0000000d x10=0x00000000
        1025000	       101	80000174	002fb533	sltu	x10,x31,x2	 x31:0x80008892  x2:0x00000000 x10=0x00000000
        1035000	       102	80000178	3c4f8aa3	sb	x4,981(x31)	 x31:0x80008892  x4:0x9f3fec65 PA:0x80008c67
        1045000	       103	8000017c	33bf8c83	lb	x25,827(x31)	 x31:0x80008892 x25=0x0000001b PA:0x80008bcd
        1055000	       104	80000180	3f2f8923	sb	x18,1010(x31)	 x31:0x80008892 x18:0x15f8c75f PA:0x80008c84
        1065000	       105	80000184	587f9423	sh	x7,1416(x31)	 x31:0x80008892  x7:0xf6bacb9d PA:0x80008e1a
        1075000	       106	80000188	01632733	slt	x14,x6,x22	  x6:0xf046a32e x22:0x80000000 x14=0x00000000
        1085000	       107	8000018c	00000013	addi	x0,x0,0	  x0:0x00000000
        1095000	       108	80000190	2defc083	lbu	x1,734(x31)	 x31:0x80008892  x1=0x0000007a PA:0x80008b70
        1105000	       109	80000194	15fa7813	andi	x16,x20,351	 x20:0xf6390e13 x16=0x00000013
        1115000	       110	80000198	8f440893	addi	x17,x8,-1804	  x8:0xae55f23b x17=0xae55eb2f
        1125000	       111	8000019c	53fc8693	addi	x13,x25,1343	 x25:0x0000001b x13=0x0000055a
        1135000	       112	800001a0	6bcf8f23	sb	x28,1726(x31)	 x31:0x80008892 x28:0xffffff88 PA:0x80008f50
        1145000	       113	800001a4	59dfa323	sw	x29,1414(x31)	 x31:0x80008892 x29:0x8000030d PA:0x80008e18
        1155000	       114	800001a8	249e0937	lui	x18,0x249e0	 x18=0x249e0000
        1165000	       115	800001ac	2d9f8883	lb	x17,729(x31)	 x31:0x80008892 x17=0xffffff91 PA:0x80008b6b
        1175000	       116	800001b0	00008397	auipc	x7,0x8	  x7=0x800081ac
        1185000	       117	800001b4	75938393	addi	x7,x7,1881	  x7:0x800081ac  x7=0x80008905
        1195000	       118	800001b8	f02ee513	ori	x10,x29,-254	 x29:0x8000030d x10=0xffffff0f
        1205000	       119	800001bc	00000013	addi	x0,x0,0	  x0:0x00000000
        1215000	       120	800001c0	09438023	sb	x20,128(x7)	  x7:0x80008905 x20:0xf6390e13 PA:0x80008985
        1225000	       121	800001c4	0c539f83	lh	x31,197(x7)	  x7:0x80008905 x31=0x00000755 PA:0x800089ca
        1235000	       122	800001c8	03538483	lb	x9,53(x7)	  x7:0x80008905  x9=0xffffffb0 PA:0x8000893a
        1245000	       123	800001cc	08a38b03	lb	x22,138(x7)	  x7:0x80008905 x22=0xffffff9a PA:0x8000898f
        1255000	       124	800001d0	fbb38323	sb	x27,-90(x7)	  x7:0x80008905 x27:0x00005a8e PA:0x800088ab
        1265000	       125	800001d4	032392a3	sh	x18,37(x7)	  x7:0x80008905 x18:0x249e0000 PA:0x8000892a
        1275000	       126	800001d8	096395a3	sh	x22,139(x7)	  x7:0x80008905 x22:0xffffff9a PA:0x80008990
        1285000	       127	800001dc	f483ca03	lbu	x20,-184(x7)	  x7:0x80008905 x20=0x000000d0 PA:0x8000884d
        1295000	       128	00000000	00000013	addi	x0,x0,0	  x0:0x00000000
        1305000	       129	800001e0	0f43c703	lbu	x14,244(x7)	  x7:0x80008905 x14=0x000000ef PA:0x800089f9
        1315000	       130	800001e4	0fa38983	lb	x19,250(x7)	  x7:0x80008905 x19=0x00000028 PA:0x800089ff
        1325000	       131	800001e8	337e6e93	ori	x29,x28,823	 x28:0xffffff88 x29=0xffffffbf
        1335000	       132	800001ec	f683c683	lbu	x13,-152(x7)	  x7:0x80008905 x13=0x000000c2 PA:0x8000886d
        1345000	       133	800001f0	08739aa3	sh	x7,149(x7)	  x7:0x80008905  x7:0x80008905 PA:0x8000899a
        1355000	       134	800001f4	f34393a3	sh	x20,-217(x7)	  x7:0x80008905 x20:0x000000d0 PA:0x8000882c
        1365000	       135	800001f8	00d59013	slli	x0,x11,0xd	 x11:0x00000001
        1375000	       136	800001fc	0633d703	lhu	x14,99(x7)	  x7:0x80008905 x14=0x00003047 PA:0x80008968
        1385000	       137	80000200	02838023	sb	x8,32(x7)	  x7:0x80008905  x8:0xae55f23b PA:0x80008925
        1395000	       138	80000204	51277f93	andi	x31,x14,1298	 x14:0x00003047 x31=0x00000002
        1405000	       139	80000208	005399a3	sh	x5,19(x7)	  x7:0x80008905  x5:0xfffff945 PA:0x80008918
        1415000	       140	8000020c	0d238303	lb	x6,210(x7)	  x7:0x80008905  x6=0xffffff9f PA:0x800089d7
        1425000	       141	80000210	06938a23	sb	x9,116(x7)	  x7:0x80008905  x9:0xffffffb0 PA:0x80008979
        1435000	       142	80000214	41eadd93	srai	x27,x21,0x1e	 x21:0xf6b01573 x27=0xffffffff
        1445000	       143	80000218	4068d833	sra	x16,x17,x6	 x17:0xffffff91  x6:0xffffff9f x16=0xffffffff
        1455000	       144	8000021c	00a38723	sb	x10,14(x7)	  x7:0x80008905 x10:0xffffff0f PA:0x80008913
        1465000	       145	80000220	04638123	sb	x6,66(x7)	  x7:0x80008905  x6:0xffffff9f PA:0x80008947
        1475000	       146	80000224	408fddb3	sra	x27,x31,x8	 x31:0x00000002  x8:0xae55f23b x27=0x00000000
        1485000	       147	80000228	015539b3	sltu	x19,x10,x21	 x10:0xffffff0f x21:0xf6b01573 x19=0x00000000
        1495000	       148	8000022c	00e0ccb3	xor	x25,x1,x14	  x1:0x0000007a x14:0x00003047 x25=0x0000303d
        1505000	       149	80000230	01c90933	add	x18,x18,x28	 x18:0x249e0000 x28:0xffffff88 x18=0x249dff88
        1515000	       150	80000234	bc854993	xori	x19,x10,-1080	 x10:0xffffff0f x19=0x000004c7
        1525000	       151	80000238	0463c703	lbu	x14,70(x7)	  x7:0x80008905 x14=0x000000af PA:0x8000894b
        1535000	       152	8000023c	f7b3c683	lbu	x13,-133(x7)	  x7:0x80008905 x13=0x000000c6 PA:0x80008880
        1545000	       153	80000240	00c3c403	lbu	x8,12(x7)	  x7:0x80008905  x8=0x00000002 PA:0x80008911
        1555000	       154	80000244	11f38023	sb	x31,256(x7)	  x7:0x80008905 x31:0x00000002 PA:0x80008a05
        1565000	       155	80000248	0150acb3	slt	x25,x1,x21	  x1:0x0000007a x21:0xf6b01573 x25=0x00000000
        1575000	       156	8000024c	eb69b893	sltiu	x17,x19,-330	 x19:0x000004c7 x17=0x00000001
        1585000	       157	80000250	0323ce03	lbu	x28,50(x7)	  x7:0x80008905 x28=0x000000c2 PA:0x80008937
        1595000	       158	80000254	fc238803	lb	x16,-62(x7)	  x7:0x80008905 x16=0x0000000f PA:0x800088c7
        1605000	       159	80000258	00009117	auipc	x2,0x9	  x2=0x80009254
        1615000	       160	8000025c	a0e10113	addi	x2,x2,-1522	  x2:0x80009254  x2=0x80008c62
        1625000	       161	80000260	00189d93	slli	x27,x17,0x1	 x17:0x00000001 x27=0x00000002
        1635000	       162	80000264	01699ab3	sll	x21,x19,x22	 x19:0x000004c7 x22:0xffffff9a x21=0x1c000000
        1645000	       163	80000268	00895513	srli	x10,x18,0x8	 x18:0x249dff88 x10=0x00249dff
        1655000	       164	8000026c	ffd14c83	lbu	x25,-3(x2)	  x2:0x80008c62 x25=0x000000ae PA:0x80008c5f
        1665000	       165	80000270	11bb4497	auipc	x9,0x11bb4	  x9=0x91bb426c
        1675000	       166	80000274	019d9913	slli	x18,x27,0x19	 x27:0x00000002 x18=0x04000000
        1685000	       167	80000278	00211383	lh	x7,2(x2)	  x2:0x80008c62  x7=0x00007739 PA:0x80008c64
        1695000	       168	8000027c	004ee2b3	or	x5,x29,x4	 x29:0xffffffbf  x4:0x9f3fec65  x5=0xffffffff
        1705000	       169	80000280	00b14383	lbu	x7,11(x2)	  x2:0x80008c62  x7=0x000000b7 PA:0x80008c6d
        1715000	       170	80000284	dda4e193	ori	x3,x9,-550	  x9:0x91bb426c  x3=0xfffffffe
        1725000	       171	80000288	400adc13	srai	x24,x21,0x0	 x21:0x1c000000 x24=0x1c000000
        1735000	       172	8000028c	ff111d23	sh	x17,-6(x2)	  x2:0x80008c62 x17:0x00000001 PA:0x80008c5c
        1745000	       173	80000290	225b58b7	lui	x17,0x225b5	 x17=0x225b5000
        1755000	       174	80000294	6e2c0693	addi	x13,x24,1762	 x24:0x1c000000 x13=0x1c0006e2
        1765000	       175	80000298	01c10723	sb	x28,14(x2)	  x2:0x80008c62 x28:0x000000c2 PA:0x80008c70
        1775000	       176	8000029c	37ef2b93	slti	x23,x30,894	 x30:0x0000000d x23=0x00000001
        1785000	       177	800002a0	00e461b3	or	x3,x8,x14	  x8:0x00000002 x14:0x000000af  x3=0x000000af
        1795000	       178	800002a4	00ab0eb3	add	x29,x22,x10	 x22:0xffffff9a x10:0x00249dff x29=0x00249d99
        1805000	       179	800002a8	01589c33	sll	x24,x17,x21	 x17:0x225b5000 x21:0x1c000000 x24=0x225b5000
        1815000	       180	800002ac	00f14f83	lbu	x31,15(x2)	  x2:0x80008c62 x31=0x00000015 PA:0x80008c71
        1825000	       181	800002b0	ff414503	lbu	x10,-12(x2)	  x2:0x80008c62 x10=0x0000006d PA:0x80008c56
        1835000	       182	800002b4	0e892193	slti	x3,x18,232	 x18:0x04000000  x3=0x00000000
        1845000	       183	800002b8	ff815403	lhu	x8,-8(x2)	  x2:0x80008c62  x8=0x0000bece PA:0x80008c5a
        1855000	       184	800002bc	ff314a03	lbu	x20,-13(x2)	  x2:0x80008c62 x20=0x00000071 PA:0x80008c55
        1865000	       185	800002c0	cccf5f37	lui	x30,0xcccf5	 x30=0xcccf5000
        1875000	       186	800002c4	ff411823	sh	x20,-16(x2)	  x2:0x80008c62 x20:0x00000071 PA:0x80008c52
        1885000	       187	800002c8	ff110203	lb	x4,-15(x2)	  x2:0x80008c62  x4=0x00000000 PA:0x80008c53
        1895000	       188	800002cc	01367033	and	x0,x12,x19	 x12:0x00000000 x19:0x000004c7
        1905000	       189	800002d0	00ec5013	srli	x0,x24,0xe	 x24:0x225b5000
        1915000	       190	800002d4	599901b7	lui	x3,0x59990	  x3=0x59990000
        1925000	       191	800002d8	00fd3cb3	sltu	x25,x26,x15	 x26:0x80009fc4 x15:0x80009f84 x25=0x00000000
        1935000	       192	800002dc	ffe12683	lw	x13,-2(x2)	  x2:0x80008c62 x13=0x4eafafbe PA:0x80008c60
        1945000	       193	800002e0	00009117	auipc	x2,0x9	  x2=0x800092dc
        1955000	       194	800002e4	9dd10113	addi	x2,x2,-1571	  x2:0x800092dc  x2=0x80008cb9
        1965000	       195	800002e8	00b11183	lh	x3,11(x2)	  x2:0x80008cb9  x3=0x00006725 PA:0x80008cc4
        1975000	       196	800002ec	00014e83	lbu	x29,0(x2)	  x2:0x80008cb9 x29=0x0000005e PA:0x80008cb9
        1985000	       197	800002f0	e22dfd93	andi	x27,x27,-478	 x27:0x00000002 x27=0x00000002
        1995000	       198	800002f4	ff514a03	lbu	x20,-11(x2)	  x2:0x80008cb9 x20=0x00000067 PA:0x80008cae
        2005000	       199	800002f8	fff11ba3	sh	x31,-9(x2)	  x2:0x80008cb9 x31:0x00000015 PA:0x80008cb0
        2015000	       200	800002fc	00f11503	lh	x10,15(x2)	  x2:0x80008cb9 x10=0xffffd1e2 PA:0x80008cc8
        2025000	       201	80000300	ff311403	lh	x8,-13(x2)	  x2:0x80008cb9  x8=0x00002db7 PA:0x80008cac
        2035000	       202	80000304	57c4a893	slti	x17,x9,1404	  x9:0x91bb426c x17=0x00000001
        2045000	       203	80000308	01868eb3	add	x29,x13,x24	 x13:0x4eafafbe x24:0x225b5000 x29=0x710affbe
        2055000	       204	8000030c	01b48b33	add	x22,x9,x27	  x9:0x91bb426c x27:0x00000002 x22=0x91bb426e
        2065000	       205	80000310	ff610b83	lb	x23,-10(x2)	  x2:0x80008cb9 x23=0x0000005f PA:0x80008caf
        2075000	       206	80000314	ffa10b23	sb	x26,-10(x2)	  x2:0x80008cb9 x26:0x80009fc4 PA:0x80008caf
        2085000	       207	80000318	19ba3993	sltiu	x19,x20,411	 x20:0x00000067 x19=0x00000001
        2095000	       208	8000031c	01710123	sb	x23,2(x2)	  x2:0x80008cb9 x23:0x0000005f PA:0x80008cbb
        2105000	       209	80000320	41a2d493	srai	x9,x5,0x1a	  x5:0xffffffff  x9=0xffffffff
        2115000	       210	80000324	41d15333	sra	x6,x2,x29	  x2:0x80008cb9 x29:0x710affbe  x6=0xfffffffe
        2125000	       211	80000328	00410e83	lb	x29,4(x2)	  x2:0x80008cb9 x29=0x0000007d PA:0x80008cbd
        2135000	       212	8000032c	00010b83	lb	x23,0(x2)	  x2:0x80008cb9 x23=0x0000005e PA:0x80008cb9
        2145000	       213	80000330	ff214883	lbu	x17,-14(x2)	  x2:0x80008cb9 x17=0x000000ec PA:0x80008cab
        2155000	       214	80000334	00414f03	lbu	x30,4(x2)	  x2:0x80008cb9 x30=0x0000007d PA:0x80008cbd
        2165000	       215	80000338	cb663693	sltiu	x13,x12,-842	 x12:0x00000000 x13=0x00000001
        2175000	       216	8000033c	00b51f33	sll	x30,x10,x11	 x10:0xffffd1e2 x11:0x00000001 x30=0xffffa3c4
        2185000	       217	80000340	ffd11703	lh	x14,-3(x2)	  x2:0x80008cb9 x14=0xffffdb7a PA:0x80008cb6
        2195000	       218	80000344	01f34fb3	xor	x31,x6,x31	  x6:0xfffffffe x31:0x00000015 x31=0xffffffeb
        2205000	       219	80000348	0065db93	srli	x23,x11,0x6	 x11:0x00000001 x23=0x00000000
        2215000	       220	8000034c	ff414a83	lbu	x21,-12(x2)	  x2:0x80008cb9 x21=0x0000002d PA:0x80008cad
        2225000	       221	80000350	00008117	auipc	x2,0x8	  x2=0x8000834c
        2235000	       222	80000354	71e10113	addi	x2,x2,1822	  x2:0x8000834c  x2=0x80008a6a
        2245000	       223	80000358	00710383	lb	x7,7(x2)	  x2:0x80008a6a  x7=0xffffffbe PA:0x80008a71
        2255000	       224	8000035c	00436533	or	x10,x6,x4	  x6:0xfffffffe  x4:0x00000000 x10=0xfffffffe
        2265000	       225	80000360	008ad293	srli	x5,x21,0x8	 x21:0x0000002d  x5=0x00000000
        2275000	       226	80000364	fe111823	sh	x1,-16(x2)	  x2:0x80008a6a  x1:0x0000007a PA:0x80008a5a
        2285000	       227	80000368	9b27ab13	slti	x22,x15,-1614	 x15:0x80009f84 x22=0x00000001
        2295000	       228	8000036c	ff410f83	lb	x31,-12(x2)	  x2:0x80008a6a x31=0x0000001b PA:0x80008a5e
        2305000	       229	80000370	00b100a3	sb	x11,1(x2)	  x2:0x80008a6a x11:0x00000001 PA:0x80008a6b
        2315000	       230	80000374	00c10583	lb	x11,12(x2)	  x2:0x80008a6a x11=0x00000007 PA:0x80008a76
        2325000	       231	80000378	008105a3	sb	x8,11(x2)	  x2:0x80008a6a  x8:0x00002db7 PA:0x80008a75
        2335000	       232	8000037c	e15f6993	ori	x19,x30,-491	 x30:0xffffa3c4 x19=0xffffffd5
        2345000	       233	80000380	010de033	or	x0,x27,x16	 x27:0x00000002 x16:0x0000000f
        2355000	       234	80000384	01211123	sh	x18,2(x2)	  x2:0x80008a6a x18:0x04000000 PA:0x80008a6c
        2365000	       235	80000388	01231f33	sll	x30,x6,x18	  x6:0xfffffffe x18:0x04000000 x30=0xfffffffe
        2375000	       236	8000038c	fec10e23	sb	x12,-4(x2)	  x2:0x80008a6a x12:0x00000000 PA:0x80008a66
        2385000	       237	80000390	00514383	lbu	x7,5(x2)	  x2:0x80008a6a  x7=0x000000d6 PA:0x80008a6f
        2395000	       238	80000394	01d10223	sb	x29,4(x2)	  x2:0x80008a6a x29:0x0000007d PA:0x80008a6e
        2405000	       239	80000398	015ad913	srli	x18,x21,0x15	 x21:0x0000002d x18=0x00000000
        2415000	       240	8000039c	ff314483	lbu	x9,-13(x2)	  x2:0x80008a6a  x9=0x0000007a PA:0x80008a5d
        2425000	       241	800003a0	ffc14303	lbu	x6,-4(x2)	  x2:0x80008a6a  x6=0x00000000 PA:0x80008a66
        2435000	       242	800003a4	00a11c83	lh	x25,10(x2)	  x2:0x80008a6a x25=0xffffb733 PA:0x80008a74
        2445000	       243	800003a8	00f14203	lbu	x4,15(x2)	  x2:0x80008a6a  x4=0x0000007e PA:0x80008a79
        2455000	       244	800003ac	01e12123	sw	x30,2(x2)	  x2:0x80008a6a x30:0xfffffffe PA:0x80008a6c
        2465000	       245	800003b0	00615f03	lhu	x30,6(x2)	  x2:0x80008a6a x30=0x0000beca PA:0x80008a70
        2475000	       246	800003b4	41308fb3	sub	x31,x1,x19	  x1:0x0000007a x19:0xffffffd5 x31=0x000000a5
        2485000	       247	800003b8	ffe10303	lb	x6,-2(x2)	  x2:0x80008a6a  x6=0xffffffd7 PA:0x80008a68
        2495000	       248	800003bc	ff114803	lbu	x16,-15(x2)	  x2:0x80008a6a x16=0x00000000 PA:0x80008a5b
        2505000	       249	800003c0	ffa12a03	lw	x20,-6(x2)	  x2:0x80008a6a x20=0xd7007c42 PA:0x80008a64
        2515000	       250	800003c4	00b10c03	lb	x24,11(x2)	  x2:0x80008a6a x24=0xffffffb7 PA:0x80008a75
        2525000	       251	00000000	00000013	addi	x0,x0,0	  x0:0x00000000
        2535000	       252	800003c8	ceec6713	ori	x14,x24,-786	 x24:0xffffffb7 x14=0xffffffff
        2545000	       253	800003cc	01014183	lbu	x3,16(x2)	  x2:0x80008a6a  x3=0x00000091 PA:0x80008a7a
        2555000	       254	800003d0	01712523	sw	x23,10(x2)	  x2:0x80008a6a x23:0x00000000 PA:0x80008a74
        2565000	       255	800003d4	013b3333	sltu	x6,x22,x19	 x22:0x00000001 x19:0xffffffd5  x6=0x00000001
        2575000	       256	800003d8	fe811923	sh	x8,-14(x2)	  x2:0x80008a6a  x8:0x00002db7 PA:0x80008a5c
        2585000	       257	800003dc	41b48733	sub	x14,x9,x27	  x9:0x0000007a x27:0x00000002 x14=0x00000078
        2595000	       258	800003e0	fe310ca3	sb	x3,-7(x2)	  x2:0x80008a6a  x3:0x00000091 PA:0x80008a63
        2605000	       259	800003e4	00b14583	lbu	x11,11(x2)	  x2:0x80008a6a x11=0x00000000 PA:0x80008a75
        2615000	       260	800003e8	ffe10e83	lb	x29,-2(x2)	  x2:0x80008a6a x29=0xffffffd7 PA:0x80008a68
        2625000	       261	800003ec	fe610e23	sb	x6,-4(x2)	  x2:0x80008a6a  x6:0x00000001 PA:0x80008a66
        2635000	       262	800003f0	ff214703	lbu	x14,-14(x2)	  x2:0x80008a6a x14=0x000000b7 PA:0x80008a5c
        2645000	       263	800003f4	00008117	auipc	x2,0x8	  x2=0x800083f0
        2655000	       264	800003f8	40f10113	addi	x2,x2,1039	  x2:0x800083f0  x2=0x800087ff
        2665000	       265	800003fc	ed310483	lb	x9,-301(x2)	  x2:0x800087ff  x9=0xffffffbc PA:0x800086d2
        2675000	       266	80000400	a2b103a3	sb	x11,-1497(x2)	  x2:0x800087ff x11:0x00000000 PA:0x80008226
        2685000	       267	80000404	95510423	sb	x21,-1720(x2)	  x2:0x800087ff x21:0x0000002d PA:0x80008147
        2695000	       268	80000408	744acf93	xori	x31,x21,1860	 x21:0x0000002d x31=0x00000769
        2705000	       269	8000040c	00000013	addi	x0,x0,0	  x0:0x00000000
        2715000	       270	80000410	d9515b03	lhu	x22,-619(x2)	  x2:0x800087ff x22=0x0000907c PA:0x80008594
        2725000	       271	80000414	00660433	add	x8,x12,x6	 x12:0x00000000  x6:0x00000001  x8=0x00000001
        2735000	       272	80000418	01935cb3	srl	x25,x6,x25	  x6:0x00000001 x25:0xffffb733 x25=0x00000000
        2745000	       273	8000041c	abd12b83	lw	x23,-1347(x2)	  x2:0x800087ff x23=0xf6b05d7a PA:0x800082bc
        2755000	       274	80000420	008d5a13	srli	x20,x26,0x8	 x26:0x80009fc4 x20=0x0080009f
        2765000	       275	80000424	cbe112a3	sh	x30,-859(x2)	  x2:0x800087ff x30:0x0000beca PA:0x800084a4
        2775000	       276	80000428	fff120a3	sw	x31,-31(x2)	  x2:0x800087ff x31:0x00000769 PA:0x800087e0
        2785000	       277	8000042c	00bf2c33	slt	x24,x30,x11	 x30:0x0000beca x11:0x00000000 x24=0x00000000
        2795000	       278	80000430	ac65ab93	slti	x23,x11,-1338	 x11:0x00000000 x23=0x00000000
        2805000	       279	80000434	a7f10f23	sb	x31,-1410(x2)	  x2:0x800087ff x31:0x00000769 PA:0x8000827d
        2815000	       280	80000438	007ea733	slt	x14,x29,x7	 x29:0xffffffd7  x7:0x000000d6 x14=0x00000001
        2825000	       281	8000043c	a1f15403	lhu	x8,-1505(x2)	  x2:0x800087ff  x8=0x0000ae15 PA:0x8000821e
        2835000	       282	80000440	32155897	auipc	x17,0x32155	 x17=0xb215543c
        2845000	       283	80000444	fe310a83	lb	x21,-29(x2)	  x2:0x800087ff x21=0x00000000 PA:0x800087e2
        2855000	       284	80000448	39a72593	slti	x11,x14,922	 x14:0x00000001 x11=0x00000001
        2865000	       285	8000044c	00fb63b3	or	x7,x22,x15	 x22:0x0000907c x15:0x80009f84  x7=0x80009ffc
        2875000	       286	80000450	ea315283	lhu	x5,-349(x2)	  x2:0x800087ff  x5=0x0000f0f6 PA:0x800086a2
        2885000	       287	80000454	fcc10e03	lb	x28,-52(x2)	  x2:0x800087ff x28=0xffffffe4 PA:0x800087cb
        2895000	       288	80000458	40b3d533	sra	x10,x7,x11	  x7:0x80009ffc x11:0x00000001 x10=0xc0004ffe
        2905000	       289	8000045c	958115a3	sh	x24,-1717(x2)	  x2:0x800087ff x24:0x00000000 PA:0x8000814a
        2915000	       290	80000460	00b183b3	add	x7,x3,x11	  x3:0x00000091 x11:0x00000001  x7=0x00000092
        2925000	       291	80000464	454bee13	ori	x28,x23,1108	 x23:0x00000000 x28=0x00000454
        2935000	       292	80000468	0009d9b3	srl	x19,x19,x0	 x19:0xffffffd5  x0:0x00000000 x19=0xffffffd5
        2945000	       293	8000046c	01b296b3	sll	x13,x5,x27	  x5:0x0000f0f6 x27:0x00000002 x13=0x0003c3d8
        2955000	       294	80000470	4b38ac37	lui	x24,0x4b38a	 x24=0x4b38a000
        2965000	       295	80000474	ad493193	sltiu	x3,x18,-1324	 x18:0x00000000  x3=0x00000001
        2975000	       296	80000478	91b10983	lb	x19,-1765(x2)	  x2:0x800087ff x19=0x0000005e PA:0x8000811a
        2985000	       297	8000047c	01d3d533	srl	x10,x7,x29	  x7:0x00000092 x29:0xffffffd7 x10=0x00000000
        2995000	       298	80000480	52debe13	sltiu	x28,x29,1325	 x29:0xffffffd7 x28=0x00000000
        3005000	       299	80000484	97e14883	lbu	x17,-1666(x2)	  x2:0x800087ff x17=0x000000fd PA:0x8000817d
        3015000	       300	80000488	0025a533	slt	x10,x11,x2	 x11:0x00000001  x2:0x800087ff x10=0x00000000
        3025000	       301	8000048c	a8711483	lh	x9,-1401(x2)	  x2:0x800087ff  x9=0xffffb725 PA:0x80008286
        3035000	       302	80000490	d6a10383	lb	x7,-662(x2)	  x2:0x800087ff  x7=0x00000063 PA:0x80008569
        3045000	       303	80000494	8c310c23	sb	x3,-1832(x2)	  x2:0x800087ff  x3:0x00000001 PA:0x800080d7
        3055000	       304	80000498	01985193	srli	x3,x16,0x19	 x16:0x00000000  x3=0x00000000
        3065000	       305	8000049c	afe10423	sb	x30,-1304(x2)	  x2:0x800087ff x30:0x0000beca PA:0x800082e7
        3075000	       306	800004a0	5b0aeb13	ori	x22,x21,1456	 x21:0x00000000 x22=0x000005b0
        3085000	       307	800004a4	d7210283	lb	x5,-654(x2)	  x2:0x800087ff  x5=0xffffff96 PA:0x80008571
        3095000	       308	800004a8	00008a97	auipc	x21,0x8	 x21=0x800084a4
        3105000	       309	800004ac	264a8a93	addi	x21,x21,612	 x21:0x800084a4 x21=0x80008708
        3115000	       310	800004b0	c46a9583	lh	x11,-954(x21)	 x21:0x80008708 x11=0x000013ab PA:0x8000834e
        3125000	       311	800004b4	00000013	addi	x0,x0,0	  x0:0x00000000
        3135000	       312	800004b8	0071d213	srli	x4,x3,0x7	  x3:0x00000000  x4=0x00000000
        3145000	       313	800004bc	bc0a9483	lh	x9,-1088(x21)	 x21:0x80008708  x9=0xffffbcc8 PA:0x800082c8
        3155000	       314	800004c0	5df06593	ori	x11,x0,1503	  x0:0x00000000 x11=0x000005df
        3165000	       315	800004c4	0127f833	and	x16,x15,x18	 x15:0x80009f84 x18:0x00000000 x16=0x00000000
        3175000	       316	800004c8	002b9fb3	sll	x31,x23,x2	 x23:0x00000000  x2:0x800087ff x31=0x00000000
        3185000	       317	800004cc	01341bb3	sll	x23,x8,x19	  x8:0x0000ae15 x19:0x0000005e x23=0x40000000
        3195000	       318	800004d0	de5a8f23	sb	x5,-514(x21)	 x21:0x80008708  x5:0xffffff96 PA:0x80008506
        3205000	       319	800004d4	b94aa823	sw	x20,-1136(x21)	 x21:0x80008708 x20:0x0080009f PA:0x80008298
        3215000	       320	800004d8	f64a8a03	lb	x20,-156(x21)	 x21:0x80008708 x20=0x00000031 PA:0x8000866c
        3225000	       321	800004dc	0196c533	xor	x10,x13,x25	 x13:0x0003c3d8 x25:0x00000000 x10=0x0003c3d8
        3235000	       322	800004e0	01bd40b3	xor	x1,x26,x27	 x26:0x80009fc4 x27:0x00000002  x1=0x80009fc6
        3245000	       323	800004e4	cc5a8fa3	sb	x5,-801(x21)	 x21:0x80008708  x5:0xffffff96 PA:0x800083e7
        3255000	       324	800004e8	41d508b3	sub	x17,x10,x29	 x10:0x0003c3d8 x29:0xffffffd7 x17=0x0003c401
        3265000	       325	800004ec	9a2a9803	lh	x16,-1630(x21)	 x21:0x80008708 x16=0x000066c0 PA:0x800080aa
        3275000	       326	00000000	00000013	addi	x0,x0,0	  x0:0x00000000
        3285000	       327	800004f0	0101e3b3	or	x7,x3,x16	  x3:0x00000000 x16:0x000066c0  x7=0x000066c0
        3295000	       328	800004f4	01c9a6b3	slt	x13,x19,x28	 x19:0x0000005e x28:0x00000000 x13=0x00000000
        3305000	       329	800004f8	0008e833	or	x16,x17,x0	 x17:0x0003c401  x0:0x00000000 x16=0x0003c401
        3315000	       330	800004fc	018d6bb3	or	x23,x26,x24	 x26:0x80009fc4 x24:0x4b38a000 x23=0xcb38bfc4
        3325000	       331	80000500	41c58e33	sub	x28,x11,x28	 x11:0x000005df x28:0x00000000 x28=0x000005df
        3335000	       332	80000504	523b8837	lui	x16,0x523b8	 x16=0x523b8000
        3345000	       333	80000508	a35a8a03	lb	x20,-1483(x21)	 x21:0x80008708 x20=0x00000000 PA:0x8000813d
        3355000	       334	8000050c	00000013	addi	x0,x0,0	  x0:0x00000000
        3365000	       335	80000510	09aa8583	lb	x11,154(x21)	 x21:0x80008708 x11=0x00000059 PA:0x800087a2
        3375000	       336	80000514	4460ca37	lui	x20,0x4460c	 x20=0x4460c000
        3385000	       337	80000518	00ff7333	and	x6,x30,x15	 x30:0x0000beca x15:0x80009f84  x6=0x00009e80
        3395000	       338	8000051c	7f613293	sltiu	x5,x2,2038	  x2:0x800087ff  x5=0x00000000
        3405000	       339	80000520	003595b3	sll	x11,x11,x3	 x11:0x00000059  x3:0x00000000 x11=0x00000059
        3415000	       340	80000524	0035b033	sltu	x0,x11,x3	 x11:0x00000059  x3:0x00000000
        3425000	       341	80000528	bf07d697	auipc	x13,0xbf07d	 x13=0x3f07d524
        3435000	       342	8000052c	b0ba86a3	sb	x11,-1267(x21)	 x21:0x80008708 x11:0x00000059 PA:0x80008215
        3445000	       343	80000530	a24d0a13	addi	x20,x26,-1500	 x26:0x80009fc4 x20=0x800099e8
        3455000	       344	80000534	183a7e93	andi	x29,x20,387	 x20:0x800099e8 x29=0x00000180
        3465000	       345	80000538	000ff533	and	x10,x31,x0	 x31:0x00000000  x0:0x00000000 x10=0x00000000
        3475000	       346	8000053c	0179a433	slt	x8,x19,x23	 x19:0x0000005e x23:0xcb38bfc4  x8=0x00000000
        3485000	       347	80000540	00504cb3	xor	x25,x0,x5	  x0:0x00000000  x5:0x00000000 x25=0x00000000
        3495000	       348	80000544	0128f233	and	x4,x17,x18	 x17:0x0003c401 x18:0x00000000  x4=0x00000000
        3505000	       349	80000548	981a8c83	lb	x25,-1663(x21)	 x21:0x80008708 x25=0xffffff95 PA:0x80008089
        3515000	       350	8000054c	010f61b3	or	x3,x30,x16	 x30:0x0000beca x16:0x523b8000  x3=0x523bbeca
        3525000	       351	80000550	cf5a8b03	lb	x22,-779(x21)	 x21:0x80008708 x22=0xffffffa8 PA:0x800083fd
        3535000	       352	80000554	004515b3	sll	x11,x10,x4	 x10:0x00000000  x4:0x00000000 x11=0x00000000
        3545000	       353	80000558	02777c63	bgeu	x14,x7,80000590	 x14:0x00000001  x7:0x000066c0
        3555000	       354	8000055c	918aca13	xori	x20,x21,-1768	 x21:0x80008708 x20=0x7fff7e10
        3565000	       355	80000560	0040fc63	bgeu	x1,x4,80000578	  x1:0x80009fc6  x4:0x00000000
        3575000	       356	00000000	00000013	addi	x0,x0,0	  x0:0x00000000
        3585000	       357	80000574	00000013	addi	x0,x0,0	  x0:0x00000000
        3595000	       358	80000578	6b4d4e13	xori	x28,x26,1716	 x26:0x80009fc4 x28=0x80009970
        3605000	       359	8000057c	008f9133	sll	x2,x31,x8	 x31:0x00000000  x8:0x00000000  x2=0x00000000
        3615000	       360	80000580	042b1463	bne	x22,x2,800005c8	 x22:0xffffffa8  x2:0x00000000
        3625000	       361	00000000	00000013	addi	x0,x0,0	  x0:0x00000000
        3635000	       362	800005c4	00000013	addi	x0,x0,0	  x0:0x00000000
        3645000	       363	800005c8	02378063	beq	x15,x3,800005e8	 x15:0x80009f84  x3:0x523bbeca
        3655000	       364	800005cc	d4fdc113	xori	x2,x27,-689	 x27:0x00000002  x2=0xfffffd4d
        3665000	       365	800005d0	05921063	bne	x4,x25,80000610	  x4:0x00000000 x25:0xffffff95
        3675000	       366	00000000	00000013	addi	x0,x0,0	  x0:0x00000000
        3685000	       367	8000060c	00000013	addi	x0,x0,0	  x0:0x00000000
        3695000	       368	80000610	00000013	addi	x0,x0,0	  x0:0x00000000
        3705000	       369	80000614	0090ce63	blt	x1,x9,80000630	  x1:0x80009fc6  x9:0xffffbcc8
        3715000	       370	00000000	00000013	addi	x0,x0,0	  x0:0x00000000
        3725000	       371	8000062c	00000013	addi	x0,x0,0	  x0:0x00000000
        3735000	       372	80000630	006b3cb3	sltu	x25,x22,x6	 x22:0xffffffa8  x6:0x00009e80 x25=0x00000000
        3745000	       373	80000634	6e042413	slti	x8,x8,1760	  x8:0x00000000  x8=0x00000001
        3755000	       374	80000638	224f3f17	auipc	x30,0x224f3	 x30=0xa24f3634
        3765000	       375	8000063c	4047d233	sra	x4,x15,x4	 x15:0x80009f84  x4:0x00000000  x4=0x80009f84
        3775000	       376	80000640	00420863	beq	x4,x4,80000650	  x4:0x80009f84  x4:0x80009f84
        3785000	       377	00000000	00000013	addi	x0,x0,0	  x0:0x00000000
        3795000	       378	8000064c	00000013	addi	x0,x0,0	  x0:0x00000000
        3805000	       379	80000650	00b74fb3	xor	x31,x14,x11	 x14:0x00000001 x11:0x00000000 x31=0x00000001
        3815000	       380	80000654	036bce63	blt	x23,x22,80000690	 x23:0xcb38bfc4 x22:0xffffffa8
        3825000	       381	00000000	00000013	addi	x0,x0,0	  x0:0x00000000
        3835000	       382	8000068c	00000013	addi	x0,x0,0	  x0:0x00000000
        3845000	       383	80000690	0119a6b3	slt	x13,x19,x17	 x19:0x0000005e x17:0x0003c401 x13=0x00000001
        3855000	       384	80000694	02ed9663	bne	x27,x14,800006c0	 x27:0x00000002 x14:0x00000001
        3865000	       385	00000000	00000013	addi	x0,x0,0	  x0:0x00000000
        3875000	       386	800006bc	00000013	addi	x0,x0,0	  x0:0x00000000
        3885000	       387	800006c0	014c1e13	slli	x28,x24,0x14	 x24:0x4b38a000 x28=0x00000000
        3895000	       388	800006c4	41ba5fb3	sra	x31,x20,x27	 x20:0x7fff7e10 x27:0x00000002 x31=0x1fffdf84
        3905000	       389	800006c8	40175433	sra	x8,x14,x1	 x14:0x00000001  x1:0x80009fc6  x8=0x00000000
        3915000	       390	800006cc	00000013	addi	x0,x0,0	  x0:0x00000000
        3925000	       391	800006d0	4050dcb3	sra	x25,x1,x5	  x1:0x80009fc6  x5:0x00000000 x25=0x80009fc6
        3935000	       392	800006d4	00bc9113	slli	x2,x25,0xb	 x25:0x80009fc6  x2=0x04fe3000
        3945000	       393	800006d8	41bdde93	srai	x29,x27,0x1b	 x27:0x00000002 x29=0x00000000
        3955000	       394	800006dc	011a5193	srli	x3,x20,0x11	 x20:0x7fff7e10  x3=0x00003fff
        3965000	       395	800006e0	d4652293	slti	x5,x10,-698	 x10:0x00000000  x5=0x00000000
        3975000	       396	800006e4	e7b72e17	auipc	x28,0xe7b72	 x28=0x67b726e0
        3985000	       397	800006e8	01439863	bne	x7,x20,800006f8	  x7:0x000066c0 x20:0x7fff7e10
        3995000	       398	00000000	00000013	addi	x0,x0,0	  x0:0x00000000
        4005000	       399	800006f4	00000013	addi	x0,x0,0	  x0:0x00000000
        4015000	       400	800006f8	012cc663	blt	x25,x18,80000704	 x25:0x80009fc6 x18:0x00000000
        4025000	       401	00000000	00000013	addi	x0,x0,0	  x0:0x00000000
        4035000	       402	80000700	00000013	addi	x0,x0,0	  x0:0x00000000
        4045000	       403	80000704	00985413	srli	x8,x16,0x9	 x16:0x523b8000  x8=0x00291dc0
        4055000	       404	80000708	003d0663	beq	x26,x3,80000714	 x26:0x80009fc4  x3:0x00003fff
        4065000	       405	8000070c	8361aa93	slti	x21,x3,-1994	  x3:0x00003fff x21=0x00000000
        4075000	       406	80000710	00901133	sll	x2,x0,x9	  x0:0x00000000  x9:0xffffbcc8  x2=0x00000000
        4085000	       407	80000714	11596493	ori	x9,x18,277	 x18:0x00000000  x9=0x00000115
        4095000	       408	80000718	0125dc63	bge	x11,x18,80000730	 x11:0x00000000 x18:0x00000000
        4105000	       409	00000000	00000013	addi	x0,x0,0	  x0:0x00000000
        4115000	       410	8000072c	00000013	addi	x0,x0,0	  x0:0x00000000
        4125000	       411	80000730	00865093	srli	x1,x12,0x8	 x12:0x00000000  x1=0x00000000
        4135000	       412	80000734	34d5f013	andi	x0,x11,845	 x11:0x00000000
        4145000	       413	80000738	00d5a133	slt	x2,x11,x13	 x11:0x00000000 x13:0x00000001  x2=0x00000001
        4155000	       414	8000073c	003a2ab3	slt	x21,x20,x3	 x20:0x7fff7e10  x3:0x00003fff x21=0x00000000
        4165000	       415	80000740	40f40a33	sub	x20,x8,x15	  x8:0x00291dc0 x15:0x80009f84 x20=0x80287e3c
        4175000	       416	80000744	6ea3e113	ori	x2,x7,1770	  x7:0x000066c0  x2=0x000066ea
        4185000	       417	80000748	05036263	bltu	x6,x16,8000078c	  x6:0x00009e80 x16:0x523b8000
        4195000	       418	00000000	00000013	addi	x0,x0,0	  x0:0x00000000
        4205000	       419	80000788	00000013	addi	x0,x0,0	  x0:0x00000000
        4215000	       420	8000078c	c662f513	andi	x10,x5,-922	  x5:0x00000000 x10=0x00000000
        4225000	       421	80000790	00cd94b3	sll	x9,x27,x12	 x27:0x00000002 x12:0x00000000  x9=0x00000002
        4235000	       422	80000794	01065a13	srli	x20,x12,0x10	 x12:0x00000000 x20=0x00000000
        4245000	       423	80000798	01d05863	bge	x0,x29,800007a8	  x0:0x00000000 x29:0x00000000
        4255000	       424	00000000	00000013	addi	x0,x0,0	  x0:0x00000000
        4265000	       425	800007a4	00000013	addi	x0,x0,0	  x0:0x00000000
        4275000	       426	800007a8	407e5913	srai	x18,x28,0x7	 x28:0x67b726e0 x18=0x00cf6e4d
        4285000	       427	800007ac	02508663	beq	x1,x5,800007d8	  x1:0x00000000  x5:0x00000000
        4295000	       428	00000000	00000013	addi	x0,x0,0	  x0:0x00000000
        4305000	       429	800007d4	00000013	addi	x0,x0,0	  x0:0x00000000
        4315000	       430	800007d8	025f9863	bne	x31,x5,80000808	 x31:0x1fffdf84  x5:0x00000000
        4325000	       431	00000000	00000013	addi	x0,x0,0	  x0:0x00000000
        4335000	       432	80000804	00000013	addi	x0,x0,0	  x0:0x00000000
        4345000	       433	80000808	017af333	and	x6,x21,x23	 x21:0x00000000 x23:0xcb38bfc4  x6=0x00000000
        4355000	       434	8000080c	09cefa13	andi	x20,x29,156	 x29:0x00000000 x20=0x00000000
        4365000	       435	80000810	00f11433	sll	x8,x2,x15	  x2:0x000066ea x15:0x80009f84  x8=0x00066ea0
        4375000	       436	80000814	d5926493	ori	x9,x4,-679	  x4:0x80009f84  x9=0xffffffdd
        4385000	       437	80000818	40198b33	sub	x22,x19,x1	 x19:0x0000005e  x1:0x00000000 x22=0x0000005e
        4395000	       438	8000081c	2f404f17	auipc	x30,0x2f404	 x30=0xaf404818
        4405000	       439	80000820	01c68e63	beq	x13,x28,8000083c	 x13:0x00000001 x28:0x67b726e0
        4415000	       440	80000824	7b236093	ori	x1,x6,1970	  x6:0x00000000  x1=0x000007b2
        4425000	       441	80000828	0e367593	andi	x11,x12,227	 x12:0x00000000 x11=0x00000000
        4435000	       442	8000082c	00680033	add	x0,x16,x6	 x16:0x523b8000  x6:0x00000000
        4445000	       443	80000830	003d6463	bltu	x26,x3,80000838	 x26:0x80009fc4  x3:0x00003fff
        4455000	       444	80000834	403fd933	sra	x18,x31,x3	 x31:0x1fffdf84  x3:0x00003fff x18=0x00000000
        4465000	       445	80000838	ba86ff93	andi	x31,x13,-1112	 x13:0x00000001 x31=0x00000000
        4475000	       446	8000083c	00b143b3	xor	x7,x2,x11	  x2:0x000066ea x11:0x00000000  x7=0x000066ea
        4485000	       447	80000840	401f0f33	sub	x30,x30,x1	 x30:0xaf404818  x1:0x000007b2 x30=0xaf404066
        4495000	       448	80000844	5d113b93	sltiu	x23,x2,1489	  x2:0x000066ea x23=0x00000000
        4505000	       449	80000848	01b35313	srli	x6,x6,0x1b	  x6:0x00000000  x6=0x00000000
        4515000	       450	8000084c	02007e63	bgeu	x0,x0,80000888	  x0:0x00000000  x0:0x00000000
        4525000	       451	00000000	00000013	addi	x0,x0,0	  x0:0x00000000
        4535000	       452	80000884	00000013	addi	x0,x0,0	  x0:0x00000000
        4545000	       453	80000888	c11c8c93	addi	x25,x25,-1007	 x25:0x80009fc6 x25=0x80009bd7
        4555000	       454	8000088c	0163a9b3	slt	x19,x7,x22	  x7:0x000066ea x22:0x0000005e x19=0x00000000
        4565000	       455	80000890	011ce833	or	x16,x25,x17	 x25:0x80009bd7 x17:0x0003c401 x16=0x8003dfd7
        4575000	       456	80000894	00776863	bltu	x14,x7,800008a4	 x14:0x00000001  x7:0x000066ea
        4585000	       457	00000000	00000013	addi	x0,x0,0	  x0:0x00000000
        4595000	       458	800008a0	00000013	addi	x0,x0,0	  x0:0x00000000
        4605000	       459	800008a4	12bc0693	addi	x13,x24,299	 x24:0x4b38a000 x13=0x4b38a12b
        4615000	       460	800008a8	00979533	sll	x10,x15,x9	 x15:0x80009f84  x9:0xffffffdd x10=0x80000000
        4625000	       461	800008ac	01e4aeb3	slt	x29,x9,x30	  x9:0xffffffdd x30:0xaf404066 x29=0x00000000
        4635000	       462	800008b0	13d34393	xori	x7,x6,317	  x6:0x00000000  x7=0x0000013d
        4645000	       463	800008b4	002a4863	blt	x20,x2,800008c4	 x20:0x00000000  x2:0x000066ea
        4655000	       464	00000000	00000013	addi	x0,x0,0	  x0:0x00000000
        4665000	       465	800008c0	00000013	addi	x0,x0,0	  x0:0x00000000
        4675000	       466	800008c4	0087b3b3	sltu	x7,x15,x8	 x15:0x80009f84  x8:0x00066ea0  x7=0x00000000
        4685000	       467	800008c8	9ff0ab13	slti	x22,x1,-1537	  x1:0x000007b2 x22=0x00000000
        4695000	       468	800008cc	0046d863	bge	x13,x4,800008dc	 x13:0x4b38a12b  x4:0x80009f84
        4705000	       469	00000000	00000013	addi	x0,x0,0	  x0:0x00000000
        4715000	       470	800008d8	00000013	addi	x0,x0,0	  x0:0x00000000
        4725000	       471	800008dc	004133b3	sltu	x7,x2,x4	  x2:0x000066ea  x4:0x80009f84  x7=0x00000001
        4735000	       472	800008e0	03248063	beq	x9,x18,80000900	  x9:0xffffffdd x18:0x00000000
        4745000	       473	800008e4	5ab0eb93	ori	x23,x1,1451	  x1:0x000007b2 x23=0x000007bb
        4755000	       474	800008e8	01e66bb3	or	x23,x12,x30	 x12:0x00000000 x30:0xaf404066 x23=0xaf404066
        4765000	       475	800008ec	01a8e8b3	or	x17,x17,x26	 x17:0x0003c401 x26:0x80009fc4 x17=0x8003dfc5
        4775000	       476	800008f0	fb773513	sltiu	x10,x14,-73	 x14:0x00000001 x10=0x00000001
        4785000	       477	800008f4	008cedb3	or	x27,x25,x8	 x25:0x80009bd7  x8:0x00066ea0 x27=0x8006fff7
        4795000	       478	800008f8	00260c33	add	x24,x12,x2	 x12:0x00000000  x2:0x000066ea x24=0x000066ea
        4805000	       479	800008fc	973d0693	addi	x13,x26,-1677	 x26:0x80009fc4 x13=0x80009937
        4815000	       480	80000900	0147d663	bge	x15,x20,8000090c	 x15:0x80009f84 x20:0x00000000
        4825000	       481	80000904	a377a9b7	lui	x19,0xa377a	 x19=0xa377a000
        4835000	       482	80000908	8ae39837	lui	x16,0x8ae39	 x16=0x8ae39000
        4845000	       483	8000090c	007cec63	bltu	x25,x7,80000924	 x25:0x80009bd7  x7:0x00000001
        4855000	       484	80000910	009f5263	bge	x30,x9,80000914	 x30:0xaf404066  x9:0xffffffdd
        4865000	       485	80000914	074dfa63	bgeu	x27,x20,80000988	 x27:0x8006fff7 x20:0x00000000
        4875000	       486	00000000	00000013	addi	x0,x0,0	  x0:0x00000000
        4885000	       487	80000984	00000013	addi	x0,x0,0	  x0:0x00000000
        4895000	       488	80000988	0092eb33	or	x22,x5,x9	  x5:0x00000000  x9:0xffffffdd x22=0xffffffdd
        4905000	       489	8000098c	019ad393	srli	x7,x21,0x19	 x21:0x00000000  x7=0x00000000
        4915000	       490	80000990	01a69c63	bne	x13,x26,800009a8	 x13:0x80009937 x26:0x80009fc4
        4925000	       491	00000000	00000013	addi	x0,x0,0	  x0:0x00000000
        4935000	       492	800009a4	00000013	addi	x0,x0,0	  x0:0x00000000
        4945000	       493	800009a8	04efe063	bltu	x31,x14,800009e8	 x31:0x00000000 x14:0x00000001
        4955000	       494	00000000	00000013	addi	x0,x0,0	  x0:0x00000000
        4965000	       495	800009e4	00000013	addi	x0,x0,0	  x0:0x00000000
        4975000	       496	800009e8	001b4433	xor	x8,x22,x1	 x22:0xffffffdd  x1:0x000007b2  x8=0xfffff86f
        4985000	       497	800009ec	00c98333	add	x6,x19,x12	 x19:0xa377a000 x12:0x00000000  x6=0xa377a000
        4995000	       498	800009f0	25378413	addi	x8,x15,595	 x15:0x80009f84  x8=0x8000a1d7
        5005000	       499	800009f4	41e7d6b3	sra	x13,x15,x30	 x15:0x80009f84 x30:0xaf404066 x13=0xfe00027e
        5015000	       500	800009f8	004e9db3	sll	x27,x29,x4	 x29:0x00000000  x4:0x80009f84 x27=0x00000000
        5025000	       501	800009fc	00cd9f93	slli	x31,x27,0xc	 x27:0x00000000 x31=0x00000000
        5035000	       502	80000a00	746dcf93	xori	x31,x27,1862	 x27:0x00000000 x31=0x00000746
        5045000	       503	80000a04	00d41513	slli	x10,x8,0xd	  x8:0x8000a1d7 x10=0x143ae000
        5055000	       504	80000a08	77a6ab13	slti	x22,x13,1914	 x13:0xfe00027e x22=0x00000001
        5065000	       505	80000a0c	010901b3	add	x3,x18,x16	 x18:0x00000000 x16:0x8ae39000  x3=0x8ae39000
        5075000	       506	80000a10	01953e33	sltu	x28,x10,x25	 x10:0x143ae000 x25:0x80009bd7 x28=0x00000001
        5085000	       507	80000a14	415855b3	sra	x11,x16,x21	 x16:0x8ae39000 x21:0x00000000 x11=0x8ae39000
        5095000	       508	80000a18	00f174b3	and	x9,x2,x15	  x2:0x000066ea x15:0x80009f84  x9=0x00000680
        5105000	       509	80000a1c	40a8dd93	srai	x27,x17,0xa	 x17:0x8003dfc5 x27=0xffe000f7
        5115000	       510	80000a20	052f4263	blt	x30,x18,80000a64	 x30:0xaf404066 x18:0x00000000
        5125000	       511	00000000	00000013	addi	x0,x0,0	  x0:0x00000000
        5135000	       512	80000a60	00000013	addi	x0,x0,0	  x0:0x00000000
        5145000	       513	80000a64	01819fb3	sll	x31,x3,x24	  x3:0x8ae39000 x24:0x000066ea x31=0x8e400000
        5155000	       514	80000a68	4176d033	sra	x0,x13,x23	 x13:0xfe00027e x23:0xaf404066
        5165000	       515	80000a6c	daaad337	lui	x6,0xdaaad	  x6=0xdaaad000
        5175000	       516	80000a70	00ccd663	bge	x25,x12,80000a7c	 x25:0x80009bd7 x12:0x00000000
        5185000	       517	80000a74	36b34493	xori	x9,x6,875	  x6:0xdaaad000  x9=0xdaaad36b
        5195000	       518	80000a78	16680c37	lui	x24,0x16680	 x24=0x16680000
        5205000	       519	80000a7c	9ab9ac97	auipc	x25,0x9ab9a	 x25=0x1ab9aa78
        5215000	       520	80000a80	01851513	slli	x10,x10,0x18	 x10:0x143ae000 x10=0x00000000
        5225000	       521	80000a84	40dbd513	srai	x10,x23,0xd	 x23:0xaf404066 x10=0xfffd7a02
        5235000	       522	80000a88	01656863	bltu	x10,x22,80000a98	 x10:0xfffd7a02 x22:0x00000001
        5245000	       523	80000a8c	0381ec63	bltu	x3,x24,80000ac4	  x3:0x8ae39000 x24:0x16680000
        5255000	       524	80000a90	40885bb3	sra	x23,x16,x8	 x16:0x8ae39000  x8:0x8000a1d7 x23=0xffffff15
        5265000	       525	80000a94	0267d663	bge	x15,x6,80000ac0	 x15:0x80009f84  x6:0xdaaad000
        5275000	       526	80000a98	0133dc63	bge	x7,x19,80000ab0	  x7:0x00000000 x19:0xa377a000
        5285000	       527	00000000	00000013	addi	x0,x0,0	  x0:0x00000000
        5295000	       528	80000aac	00000013	addi	x0,x0,0	  x0:0x00000000
        5305000	       529	80000ab0	2f93a493	slti	x9,x7,761	  x7:0x00000000  x9=0x00000001
        5315000	       530	80000ab4	017f02b3	add	x5,x30,x23	 x30:0xaf404066 x23:0xffffff15  x5=0xaf403f7b
        5325000	       531	80000ab8	042fe263	bltu	x31,x2,80000afc	 x31:0x8e400000  x2:0x000066ea
        5335000	       532	80000abc	77bab393	sltiu	x7,x21,1915	 x21:0x00000000  x7=0x00000001
        5345000	       533	80000ac0	000e4663	blt	x28,x0,80000acc	 x28:0x00000001  x0:0x00000000
        5355000	       534	80000ac4	40eb0bb3	sub	x23,x22,x14	 x22:0x00000001 x14:0x00000001 x23=0x00000000
        5365000	       535	80000ac8	645a0413	addi	x8,x20,1605	 x20:0x00000000  x8=0x00000645
        5375000	       536	80000acc	413c81b3	sub	x3,x25,x19	 x25:0x1ab9aa78 x19:0xa377a000  x3=0x77420a78
        5385000	       537	80000ad0	003b5313	srli	x6,x22,0x3	 x22:0x00000001  x6=0x00000000
        5395000	       538	80000ad4	009e0463	beq	x28,x9,80000adc	 x28:0x00000001  x9:0x00000001
        5405000	       539	00000000	00000013	addi	x0,x0,0	  x0:0x00000000
        5415000	       540	80000ad8	00000013	addi	x0,x0,0	  x0:0x00000000
        5425000	       541	80000adc	00000013	addi	x0,x0,0	  x0:0x00000000
        5435000	       542	80000ae0	f27aa213	slti	x4,x21,-217	 x21:0x00000000  x4=0x00000000
        5445000	       543	80000ae4	00327e63	bgeu	x4,x3,80000b00	  x4:0x00000000  x3:0x77420a78
        5455000	       544	80000ae8	0158e333	or	x6,x17,x21	 x17:0x8003dfc5 x21:0x00000000  x6=0x8003dfc5
        5465000	       545	80000aec	00000013	addi	x0,x0,0	  x0:0x00000000
        5475000	       546	80000af0	0143d213	srli	x4,x7,0x14	  x7:0x00000001  x4=0x00000000
        5485000	       547	80000af4	486e0813	addi	x16,x28,1158	 x28:0x00000001 x16=0x00000487
        5495000	       548	80000af8	f7c9f9b7	lui	x19,0xf7c9f	 x19=0xf7c9f000
        5505000	       549	80000afc	90c1b493	sltiu	x9,x3,-1780	  x3:0x77420a78  x9=0x00000001
        5515000	       550	80000b00	023bc263	blt	x23,x3,80000b24	 x23:0x00000000  x3:0x77420a78
        5525000	       551	00000000	00000013	addi	x0,x0,0	  x0:0x00000000
        5535000	       552	80000b20	00000013	addi	x0,x0,0	  x0:0x00000000
        5545000	       553	80000b24	015936b3	sltu	x13,x18,x21	 x18:0x00000000 x21:0x00000000 x13=0x00000000
        5555000	       554	80000b28	4168d193	srai	x3,x17,0x16	 x17:0x8003dfc5  x3=0xfffffe00
        5565000	       555	80000b2c	023fee63	bltu	x31,x3,80000b68	 x31:0x8e400000  x3:0xfffffe00
        5575000	       556	00000000	00000013	addi	x0,x0,0	  x0:0x00000000
        5585000	       557	80000b64	00000013	addi	x0,x0,0	  x0:0x00000000
        5595000	       558	80000b68	01009213	slli	x4,x1,0x10	  x1:0x000007b2  x4=0x07b20000
        5605000	       559	80000b6c	9a6ccf17	auipc	x30,0x9a6cc	 x30=0x1a6ccb68
        5615000	       560	80000b70	00c98833	add	x16,x19,x12	 x19:0xf7c9f000 x12:0x00000000 x16=0xf7c9f000
        5625000	       561	80000b74	00691a93	slli	x21,x18,0x6	 x18:0x00000000 x21=0x00000000
        5635000	       562	80000b78	fe7e8693	addi	x13,x29,-25	 x29:0x00000000 x13=0xffffffe7
        5645000	       563	80000b7c	0093f833	and	x16,x7,x9	  x7:0x00000001  x9:0x00000001 x16=0x00000001
        5655000	       564	80000b80	01767b33	and	x22,x12,x23	 x12:0x00000000 x23:0x00000000 x22=0x00000000
        5665000	       565	80000b84	61a6a393	slti	x7,x13,1562	 x13:0xffffffe7  x7=0x00000001
        5675000	       566	80000b88	41bd0ab3	sub	x21,x26,x27	 x26:0x80009fc4 x27:0xffe000f7 x21=0x80209ecd
        5685000	       567	80000b8c	40b402b3	sub	x5,x8,x11	  x8:0x00000645 x11:0x8ae39000  x5=0x751c7645
        5695000	       568	80000b90	009770b3	and	x1,x14,x9	 x14:0x00000001  x9:0x00000001  x1=0x00000001
        5705000	       569	80000b94	19988f13	addi	x30,x17,409	 x17:0x8003dfc5 x30=0x8003e15e
        5715000	       570	80000b98	0062cbb3	xor	x23,x5,x6	  x5:0x751c7645  x6:0x8003dfc5 x23=0xf51fa980
        5725000	       571	80000b9c	0263d863	bge	x7,x6,80000bcc	  x7:0x00000001  x6:0x8003dfc5
        5735000	       572	00000000	00000013	addi	x0,x0,0	  x0:0x00000000
        5745000	       573	80000bc8	00000013	addi	x0,x0,0	  x0:0x00000000
        5755000	       574	80000bcc	3490e917	auipc	x18,0x3490e	 x18=0xb490ebc8
        5765000	       575	80000bd0	0032e1b3	or	x3,x5,x3	  x5:0x751c7645  x3:0xfffffe00  x3=0xfffffe45
        5775000	       576	80000bd4	ea9c3117	auipc	x2,0xea9c3	  x2=0x6a9c3bd0
        5785000	       577	80000bd8	911f3913	sltiu	x18,x30,-1775	 x30:0x8003e15e x18=0x00000001
        5795000	       578	80000bdc	0158e663	bltu	x17,x21,80000be8	 x17:0x8003dfc5 x21:0x80209ecd
        5805000	       579	00000000	00000013	addi	x0,x0,0	  x0:0x00000000
        5815000	       580	80000be4	00000013	addi	x0,x0,0	  x0:0x00000000
        5825000	       581	80000be8	00000013	addi	x0,x0,0	  x0:0x00000000
        5835000	       582	80000bec	f07ae393	ori	x7,x21,-249	 x21:0x80209ecd  x7=0xffffffcf
        5845000	       583	80000bf0	c8537893	andi	x17,x6,-891	  x6:0x8003dfc5 x17=0x8003dc85
        5855000	       584	80000bf4	00d48463	beq	x9,x13,80000bfc	  x9:0x00000001 x13:0xffffffe7
        5865000	       585	80000bf8	013d1ab3	sll	x21,x26,x19	 x26:0x80009fc4 x19:0xf7c9f000 x21=0x80009fc4
        5875000	       586	80000bfc	0049bdb3	sltu	x27,x19,x4	 x19:0xf7c9f000  x4:0x07b20000 x27=0x00000000
        5885000	       587	80000c00	01111713	slli	x14,x2,0x11	  x2:0x6a9c3bd0 x14=0x77a00000
        5895000	       588	80000c04	e00c7e17	auipc	x28,0xe00c7	 x28=0x600c7c00
        5905000	       589	80000c08	017e0933	add	x18,x28,x23	 x28:0x600c7c00 x23:0xf51fa980 x18=0x552c2580
        5915000	       590	80000c0c	016352b3	srl	x5,x6,x22	  x6:0x8003dfc5 x22:0x00000000  x5=0x8003dfc5
        5925000	       591	80000c10	00eafeb3	and	x29,x21,x14	 x21:0x80009fc4 x14:0x77a00000 x29=0x00000000
        5935000	       592	80000c14	171a3817	auipc	x16,0x171a3	 x16=0x971a3c10
        5945000	       593	80000c18	01690863	beq	x18,x22,80000c28	 x18:0x552c2580 x22:0x00000000
        5955000	       594	80000c1c	293c9597	auipc	x11,0x293c9	 x11=0xa93c9c18
        5965000	       595	80000c20	016e1863	bne	x28,x22,80000c30	 x28:0x600c7c00 x22:0x00000000
        5975000	       596	00000000	00000013	addi	x0,x0,0	  x0:0x00000000
        5985000	       597	80000c2c	00000013	addi	x0,x0,0	  x0:0x00000000
        5995000	       598	80000c30	0107ee33	or	x28,x15,x16	 x15:0x80009f84 x16:0x971a3c10 x28=0x971abf94
        6005000	       599	80000c34	414cd693	srai	x13,x25,0x14	 x25:0x1ab9aa78 x13=0x000001ab
        6015000	       600	80000c38	0268c663	blt	x17,x6,80000c64	 x17:0x8003dc85  x6:0x8003dfc5
        6025000	       601	00000000	00000013	addi	x0,x0,0	  x0:0x00000000
        6035000	       602	80000c60	00000013	addi	x0,x0,0	  x0:0x00000000
        6045000	       603	80000c64	405e5a13	srai	x20,x28,0x5	 x28:0x971abf94 x20=0xfcb8d5fc
        6055000	       604	80000c68	0076f6b3	and	x13,x13,x7	 x13:0x000001ab  x7:0xffffffcf x13=0x0000018b
        6065000	       605	80000c6c	57202e37	lui	x28,0x57202	 x28=0x57202000
        6075000	       606	80000c70	01074fb3	xor	x31,x14,x16	 x14:0x77a00000 x16:0x971a3c10 x31=0xe0ba3c10
        6085000	       607	80000c74	05dc9263	bne	x25,x29,80000cb8	 x25:0x1ab9aa78 x29:0x00000000
        6095000	       608	00000000	00000013	addi	x0,x0,0	  x0:0x00000000
        6105000	       609	80000cb4	00000013	addi	x0,x0,0	  x0:0x00000000
        6115000	       610	80000cb8	016f69b3	or	x19,x30,x22	 x30:0x8003e15e x22:0x00000000 x19=0x8003e15e
        6125000	       611	80000cbc	00dafa33	and	x20,x21,x13	 x21:0x80009fc4 x13:0x0000018b x20=0x00000180
        6135000	       612	80000cc0	05a7f063	bgeu	x15,x26,80000d00	 x15:0x80009f84 x26:0x80009fc4
        6145000	       613	80000cc4	004f4033	xor	x0,x30,x4	 x30:0x8003e15e  x4:0x07b20000
        6155000	       614	80000cc8	00b00233	add	x4,x0,x11	  x0:0x00000000 x11:0xa93c9c18  x4=0xa93c9c18
        6165000	       615	80000ccc	00000013	addi	x0,x0,0	  x0:0x00000000
        6175000	       616	80000cd0	023d5c63	bge	x26,x3,80000d08	 x26:0x80009fc4  x3:0xfffffe45
        6185000	       617	80000cd4	00000013	addi	x0,x0,0	  x0:0x00000000
        6195000	       618	80000cd8	04be4263	blt	x28,x11,80000d1c	 x28:0x57202000 x11:0xa93c9c18
        6205000	       619	80000cdc	03eb5863	bge	x22,x30,80000d0c	 x22:0x00000000 x30:0x8003e15e
        6215000	       620	00000000	00000013	addi	x0,x0,0	  x0:0x00000000
        6225000	       621	80000d08	00000013	addi	x0,x0,0	  x0:0x00000000
        6235000	       622	80000d0c	01839a93	slli	x21,x7,0x18	  x7:0xffffffcf x21=0xcf000000
        6245000	       623	80000d10	41cf0533	sub	x10,x30,x28	 x30:0x8003e15e x28:0x57202000 x10=0x28e3c15e
        6255000	       624	80000d14	04ab6463	bltu	x22,x10,80000d5c	 x22:0x00000000 x10:0x28e3c15e
        6265000	       625	00000000	00000013	addi	x0,x0,0	  x0:0x00000000
        6275000	       626	80000d58	00000013	addi	x0,x0,0	  x0:0x00000000
        6285000	       627	80000d5c	00527133	and	x2,x4,x5	  x4:0xa93c9c18  x5:0x8003dfc5  x2=0x80009c00
        6295000	       628	80000d60	0377f663	bgeu	x15,x23,80000d8c	 x15:0x80009f84 x23:0xf51fa980
        6305000	       629	80000d64	0156f863	bgeu	x13,x21,80000d74	 x13:0x0000018b x21:0xcf000000
        6315000	       630	80000d68	00569f13	slli	x30,x13,0x5	 x13:0x0000018b x30=0x00003160
        6325000	       631	80000d6c	01bce233	or	x4,x25,x27	 x25:0x1ab9aa78 x27:0x00000000  x4=0x1ab9aa78
        6335000	       632	80000d70	00000013	addi	x0,x0,0	  x0:0x00000000
        6345000	       633	80000d74	dfd90993	addi	x19,x18,-515	 x18:0x552c2580 x19=0x552c237d
        6355000	       634	80000d78	01ace263	bltu	x25,x26,80000d7c	 x25:0x1ab9aa78 x26:0x80009fc4
        6365000	       635	00000000	00000013	addi	x0,x0,0	  x0:0x00000000
        6375000	       636	80000d78	00000013	addi	x0,x0,0	  x0:0x00000000
        6385000	       637	80000d7c	d1386eb7	lui	x29,0xd1386	 x29=0xd1386000
        6395000	       638	80000d80	aa0da093	slti	x1,x27,-1376	 x27:0x00000000  x1=0x00000000
        6405000	       639	80000d84	41efd533	sra	x10,x31,x30	 x31:0xe0ba3c10 x30:0x00003160 x10=0xe0ba3c10
        6415000	       640	80000d88	0ffcca63	blt	x25,x31,80000e7c	 x25:0x1ab9aa78 x31:0xe0ba3c10
        6425000	       641	80000d8c	00000013	addi	x0,x0,0	  x0:0x00000000
        6435000	       642	80000d90	0ff65e63	bge	x12,x31,80000e8c	 x12:0x00000000 x31:0xe0ba3c10
        6445000	       643	00000000	00000013	addi	x0,x0,0	  x0:0x00000000
        6455000	       644	80000e88	00000013	addi	x0,x0,0	  x0:0x00000000
        6465000	       645	80000e8c	008de033	or	x0,x27,x8	 x27:0x00000000  x8:0x00000645
        6475000	       646	80000e90	016850b3	srl	x1,x16,x22	 x16:0x971a3c10 x22:0x00000000  x1=0x971a3c10
        6485000	       647	80000e94	918afa93	andi	x21,x21,-1768	 x21:0xcf000000 x21=0xcf000000
        6495000	       648	80000e98	96d1eb13	ori	x22,x3,-1683	  x3:0xfffffe45 x22=0xffffff6d
        6505000	       649	80000e9c	00865193	srli	x3,x12,0x8	 x12:0x00000000  x3=0x00000000
        6515000	       650	80000ea0	41aed433	sra	x8,x29,x26	 x29:0xd1386000 x26:0x80009fc4  x8=0xfd138600
        6525000	       651	80000ea4	000e5663	bge	x28,x0,80000eb0	 x28:0x57202000  x0:0x00000000
        6535000	       652	00000000	00000013	addi	x0,x0,0	  x0:0x00000000
        6545000	       653	80000eac	00000013	addi	x0,x0,0	  x0:0x00000000
        6555000	       654	80000eb0	a25d4697	auipc	x13,0xa25d4	 x13=0x225d4eac
        6565000	       655	80000eb4	00a96c63	bltu	x18,x10,80000ecc	 x18:0x552c2580 x10:0xe0ba3c10
        6575000	       656	00000000	00000013	addi	x0,x0,0	  x0:0x00000000
        6585000	       657	80000ec8	00000013	addi	x0,x0,0	  x0:0x00000000
        6595000	       658	80000ecc	01860cb3	add	x25,x12,x24	 x12:0x00000000 x24:0x16680000 x25=0x16680000
        6605000	       659	80000ed0	b14d2513	slti	x10,x26,-1260	 x26:0x80009fc4 x10=0x00000001
        6615000	       660	80000ed4	0032c263	blt	x5,x3,80000ed8	  x5:0x8003dfc5  x3:0x00000000
        6625000	       661	00000000	00000013	addi	x0,x0,0	  x0:0x00000000
        6635000	       662	80000ed4	00000013	addi	x0,x0,0	  x0:0x00000000
        6645000	       663	80000ed8	00a09493	slli	x9,x1,0xa	  x1:0x971a3c10  x9=0x68f04000
        6655000	       664	80000edc	00000013	addi	x0,x0,0	  x0:0x00000000
        6665000	       665	80000ee0	41aa5c93	srai	x25,x20,0x1a	 x20:0x00000180 x25=0x00000000
        6675000	       666	80000ee4	00e7de13	srli	x28,x15,0xe	 x15:0x80009f84 x28=0x00020002
        6685000	       667	80000ee8	41cad313	srai	x6,x21,0x1c	 x21:0xcf000000  x6=0xfffffffc
        6695000	       668	80000eec	407a56b3	sra	x13,x20,x7	 x20:0x00000180  x7:0xffffffcf x13=0x00000000
        6705000	       669	80000ef0	40625c33	sra	x24,x4,x6	  x4:0x1ab9aa78  x6:0xfffffffc x24=0x00000001
        6715000	       670	80000ef4	22b8c693	xori	x13,x17,555	 x17:0x8003dc85 x13=0x8003deae
        6725000	       671	80000ef8	eab38297	auipc	x5,0xeab38	  x5=0x6ab38ef4
        6735000	       672	80000efc	01766c63	bltu	x12,x23,80000f14	 x12:0x00000000 x23:0xf51fa980
        6745000	       673	00000000	00000013	addi	x0,x0,0	  x0:0x00000000
        6755000	       674	80000f10	00000013	addi	x0,x0,0	  x0:0x00000000
        6765000	       675	80000f14	00e79313	slli	x6,x15,0xe	 x15:0x80009f84  x6=0x27e10000
        6775000	       676	80000f18	20d5ec93	ori	x25,x11,525	 x11:0xa93c9c18 x25=0xa93c9e1d
        6785000	       677	80000f1c	00336a33	or	x20,x6,x3	  x6:0x27e10000  x3:0x00000000 x20=0x27e10000
        6795000	       678	80000f20	02528c63	beq	x5,x5,80000f58	  x5:0x6ab38ef4  x5:0x6ab38ef4
        6805000	       679	00000000	00000013	addi	x0,x0,0	  x0:0x00000000
        6815000	       680	80000f54	00000013	addi	x0,x0,0	  x0:0x00000000
        6825000	       681	80000f58	04566463	bltu	x12,x5,80000fa0	 x12:0x00000000  x5:0x6ab38ef4
        6835000	       682	00000000	00000013	addi	x0,x0,0	  x0:0x00000000
        6845000	       683	80000f9c	00000013	addi	x0,x0,0	  x0:0x00000000
        6855000	       684	80000fa0	01e55593	srli	x11,x10,0x1e	 x10:0x00000001 x11=0x00000000
        6865000	       685	80000fa4	048e4263	blt	x28,x8,80000fe8	 x28:0x00020002  x8:0xfd138600
        6875000	       686	80000fa8	00999a93	slli	x21,x19,0x9	 x19:0x552c237d x21=0x5846fa00
        6885000	       687	80000fac	012784b3	add	x9,x15,x18	 x15:0x80009f84 x18:0x552c2580  x9=0xd52cc504
        6895000	       688	80000fb0	00970f33	add	x30,x14,x9	 x14:0x77a00000  x9:0xd52cc504 x30=0x4cccc504
        6905000	       689	80000fb4	00a623b3	slt	x7,x12,x10	 x12:0x00000000 x10:0x00000001  x7=0x00000001
        6915000	       690	80000fb8	7a270b37	lui	x22,0x7a270	 x22=0x7a270000
        6925000	       691	80000fbc	00ea0133	add	x2,x20,x14	 x20:0x27e10000 x14:0x77a00000  x2=0x9f810000
        6935000	       692	80000fc0	410cd213	srai	x4,x25,0x10	 x25:0xa93c9e1d  x4=0xffffa93c
        6945000	       693	80000fc4	b2f8f913	andi	x18,x17,-1233	 x17:0x8003dc85 x18=0x8003d805
        6955000	       694	80000fc8	01ef0e63	beq	x30,x30,80000fe4	 x30:0x4cccc504 x30:0x4cccc504
        6965000	       695	00000000	00000013	addi	x0,x0,0	  x0:0x00000000
        6975000	       696	80000fe0	00000013	addi	x0,x0,0	  x0:0x00000000
        6985000	       697	80000fe4	64943493	sltiu	x9,x8,1609	  x8:0xfd138600  x9=0x00000000
        6995000	       698	80000fe8	01a0ce63	blt	x1,x26,80001004	  x1:0x971a3c10 x26:0x80009fc4
        7005000	       699	80000fec	01124863	blt	x4,x17,80000ffc	  x4:0xffffa93c x17:0x8003dc85
        7015000	       700	80000ff0	40960833	sub	x16,x12,x9	 x12:0x00000000  x9:0x00000000 x16=0x00000000
        7025000	       701	80000ff4	41095e93	srai	x29,x18,0x10	 x18:0x8003d805 x29=0xffff8003
        7035000	       702	80000ff8	009c4b33	xor	x22,x24,x9	 x24:0x00000001  x9:0x00000000 x22=0x00000001
        7045000	       703	80000ffc	01a131b3	sltu	x3,x2,x26	  x2:0x9f810000 x26:0x80009fc4  x3=0x00000000
        7055000	       704	80001000	11ace513	ori	x10,x25,282	 x25:0xa93c9e1d x10=0xa93c9f1f
        7065000	       705	80001004	01410cb3	add	x25,x2,x20	  x2:0x9f810000 x20:0x27e10000 x25=0xc7620000
        7075000	       706	80001008	e44ee413	ori	x8,x29,-444	 x29:0xffff8003  x8=0xfffffe47
        7085000	       707	8000100c	00b9fc63	bgeu	x19,x11,80001024	 x19:0x552c237d x11:0x00000000
        7095000	       708	00000000	00000013	addi	x0,x0,0	  x0:0x00000000
        7105000	       709	80001020	00000013	addi	x0,x0,0	  x0:0x00000000
        7115000	       710	80001024	2dade0b7	lui	x1,0x2dade	  x1=0x2dade000
        7125000	       711	80001028	00139513	slli	x10,x7,0x1	  x7:0x00000001 x10=0x00000002
        7135000	       712	8000102c	acc37513	andi	x10,x6,-1332	  x6:0x27e10000 x10=0x27e10000
        7145000	       713	80001030	009ff463	bgeu	x31,x9,80001038	 x31:0xe0ba3c10  x9:0x00000000
        7155000	       714	00000000	00000013	addi	x0,x0,0	  x0:0x00000000
        7165000	       715	80001034	00000013	addi	x0,x0,0	  x0:0x00000000
        7175000	       716	80001038	00140eb3	add	x29,x8,x1	  x8:0xfffffe47  x1:0x2dade000 x29=0x2dadde47
        7185000	       717	8000103c	01cc9893	slli	x17,x25,0x1c	 x25:0xc7620000 x17=0x00000000
        7195000	       718	80001040	0078ab33	slt	x22,x17,x7	 x17:0x00000000  x7:0x00000001 x22=0x00000001
        7205000	       719	80001044	008f9863	bne	x31,x8,80001054	 x31:0xe0ba3c10  x8:0xfffffe47
        7215000	       720	00000000	00000013	addi	x0,x0,0	  x0:0x00000000
        7225000	       721	80001050	00000013	addi	x0,x0,0	  x0:0x00000000
        7235000	       722	80001054	d8eda813	slti	x16,x27,-626	 x27:0x00000000 x16=0x00000000
        7245000	       723	80001058	05b8ca63	blt	x17,x27,800010ac	 x17:0x00000000 x27:0x00000000
        7255000	       724	8000105c	078b8263	beq	x23,x24,800010c0	 x23:0xf51fa980 x24:0x00000001
        7265000	       725	80001060	04068663	beq	x13,x0,800010ac	 x13:0x8003deae  x0:0x00000000
        7275000	       726	80001064	00fcf133	and	x2,x25,x15	 x25:0xc7620000 x15:0x80009f84  x2=0x80000000
        7285000	       727	80001068	9634f593	andi	x11,x9,-1693	  x9:0x00000000 x11=0x00000000
        7295000	       728	8000106c	4bb13213	sltiu	x4,x2,1211	  x2:0x80000000  x4=0x00000000
        7305000	       729	80001070	404289b3	sub	x19,x5,x4	  x5:0x6ab38ef4  x4:0x00000000 x19=0x6ab38ef4
        7315000	       730	80001074	00005597	auipc	x11,0x5	 x11=0x80006070
        7325000	       731	80001078	73058593	addi	x11,x11,1840	 x11:0x80006070 x11=0x800067a0
        7335000	       732	8000107c	191afa93	andi	x21,x21,401	 x21:0x5846fa00 x21=0x00000000
        7345000	       733	80001080	1c658593	addi	x11,x11,454	 x11:0x800067a0 x11=0x80006966
        7355000	       734	80001084	e074cc13	xori	x24,x9,-505	  x9:0x00000000 x24=0xfffffe07
        7365000	       735	80001088	01a18863	beq	x3,x26,80001098	  x3:0x00000000 x26:0x80009fc4
        7375000	       736	8000108c	002fabb3	slt	x23,x31,x2	 x31:0xe0ba3c10  x2:0x80000000 x23=0x00000000
        7385000	       737	80001090	40dbd6b3	sra	x13,x23,x13	 x23:0x00000000 x13:0x8003deae x13=0x00000000
        7395000	       738	80001094	41e55f33	sra	x30,x10,x30	 x10:0x27e10000 x30:0x4cccc504 x30=0x027e1000
        7405000	       739	80001098	e3b580e7	jalr	x1,x11,-453	 x11:0x80006966  x1=0x80001098
        7415000	       740	00000000	00000013	addi	x0,x0,0	  x0:0x00000000
        7425000	       741	800067a0	00000013	addi	x0,x0,0	  x0:0x00000000
        7435000	       742	800067a4	003d4463	blt	x26,x3,800067ac	 x26:0x80009fc4  x3:0x00000000
        7445000	       743	00000000	00000013	addi	x0,x0,0	  x0:0x00000000
        7455000	       744	800067a8	00000013	addi	x0,x0,0	  x0:0x00000000
        7465000	       745	800067ac	ff478793	addi	x15,x15,-12	 x15:0x80009f84 x15=0x80009f78
        7475000	       746	800067b0	0017a223	sw	x1,4(x15)	 x15:0x80009f78  x1:0x80001098 PA:0x80009f7c
        7485000	       747	800067b4	a9551737	lui	x14,0xa9551	 x14=0xa9551000
        7495000	       748	800067b8	21de4813	xori	x16,x28,541	 x28:0x00020002 x16=0x0002021f
        7505000	       749	800067bc	04284063	blt	x16,x2,800067fc	 x16:0x0002021f  x2:0x80000000
        7515000	       750	800067c0	0190ee63	bltu	x1,x25,800067dc	  x1:0x80001098 x25:0xc7620000
        7525000	       751	00000000	00000013	addi	x0,x0,0	  x0:0x00000000
        7535000	       752	800067d8	00000013	addi	x0,x0,0	  x0:0x00000000
        7545000	       753	800067dc	025bf063	bgeu	x23,x5,800067fc	 x23:0x00000000  x5:0x6ab38ef4
        7555000	       754	800067e0	01d04e63	blt	x0,x29,800067fc	  x0:0x00000000 x29:0x2dadde47
        7565000	       755	00000000	00000013	addi	x0,x0,0	  x0:0x00000000
        7575000	       756	800067f8	00000013	addi	x0,x0,0	  x0:0x00000000
        7585000	       757	800067fc	01c49493	slli	x9,x9,0x1c	  x9:0x00000000  x9=0x00000000
        7595000	       758	80006800	01f85b13	srli	x22,x16,0x1f	 x16:0x0002021f x22=0x00000000
        7605000	       759	80006804	0047a083	lw	x1,4(x15)	 x15:0x80009f78  x1=0x80001098 PA:0x80009f7c
        7615000	       760	80006808	00f8fa33	and	x20,x17,x15	 x17:0x00000000 x15:0x80009f78 x20=0x00000000
        7625000	       761	8000680c	3e1d0f17	auipc	x30,0x3e1d0	 x30=0xbe1d6808
        7635000	       762	80006810	97982313	slti	x6,x16,-1671	 x16:0x0002021f  x6=0x00000000
        7645000	       763	80006814	0060cdb3	xor	x27,x1,x6	  x1:0x80001098  x6:0x00000000 x27=0x80001098
        7655000	       764	80006818	00c78793	addi	x15,x15,12	 x15:0x80009f78 x15=0x80009f84
        7665000	       765	8000681c	00629313	slli	x6,x5,0x6	  x5:0x6ab38ef4  x6=0xace3bd00
        7675000	       766	80006820	00000013	addi	x0,x0,0	  x0:0x00000000
        7685000	       767	80006824	00ba3533	sltu	x10,x20,x11	 x20:0x00000000 x11:0x80006966 x10=0x00000001
        7695000	       768	80006828	00108093	addi	x1,x1,1	  x1:0x80001098  x1=0x80001099
        7705000	       769	8000682c	000080e7	jalr	x1,x1,0	  x1:0x80001099  x1=0x8000682c
        7715000	       770	00000000	00000013	addi	x0,x0,0	  x0:0x00000000
        7725000	       771	80001098	00000013	addi	x0,x0,0	  x0:0x00000000
        7735000	       772	8000109c	40dddb93	srai	x23,x27,0xd	 x27:0x80001098 x23=0xfffc0000
        7745000	       773	800010a0	003099b3	sll	x19,x1,x3	  x1:0x8000682c  x3:0x00000000 x19=0x8000682c
        7755000	       774	800010a4	011be033	or	x0,x23,x17	 x23:0xfffc0000 x17:0x00000000
        7765000	       775	800010a8	00be1193	slli	x3,x28,0xb	 x28:0x00020002  x3=0x10001000
        7775000	       776	800010ac	4d237593	andi	x11,x6,1234	  x6:0xace3bd00 x11=0x00000400
        7785000	       777	800010b0	0561c397	auipc	x7,0x561c	  x7=0x8561d0ac
        7795000	       778	800010b4	01499293	slli	x5,x19,0x14	 x19:0x8000682c  x5=0x82c00000
        7805000	       779	800010b8	89a9c113	xori	x2,x19,-1894	 x19:0x8000682c  x2=0x7fff90b6
        7815000	       780	800010bc	01561863	bne	x12,x21,800010cc	 x12:0x00000000 x21:0x00000000
        7825000	       781	800010c0	1445b913	sltiu	x18,x11,324	 x11:0x00000400 x18=0x00000000
        7835000	       782	800010c4	00def863	bgeu	x29,x13,800010d4	 x29:0x2dadde47 x13:0x00000000
        7845000	       783	00000000	00000013	addi	x0,x0,0	  x0:0x00000000
        7855000	       784	800010d0	00000013	addi	x0,x0,0	  x0:0x00000000
        7865000	       785	800010d4	00d590b3	sll	x1,x11,x13	 x11:0x00000400 x13:0x00000000  x1=0x00000400
        7875000	       786	800010d8	01d1c9b3	xor	x19,x3,x29	  x3:0x10001000 x29:0x2dadde47 x19=0x3dadce47
        7885000	       787	800010dc	40af82b3	sub	x5,x31,x10	 x31:0xe0ba3c10 x10:0x00000001  x5=0xe0ba3c0f
        7895000	       788	800010e0	00000013	addi	x0,x0,0	  x0:0x00000000
        7905000	       789	800010e4	6908cc93	xori	x25,x17,1680	 x17:0x00000000 x25=0x00000690
        7915000	       790	800010e8	00e6e433	or	x8,x13,x14	 x13:0x00000000 x14:0xa9551000  x8=0xa9551000
        7925000	       791	800010ec	61dc3893	sltiu	x17,x24,1565	 x24:0xfffffe07 x17=0x00000000
        7935000	       792	800010f0	00db0663	beq	x22,x13,800010fc	 x22:0x00000000 x13:0x00000000
        7945000	       793	00000000	00000013	addi	x0,x0,0	  x0:0x00000000
        7955000	       794	800010f8	00000013	addi	x0,x0,0	  x0:0x00000000
        7965000	       795	800010fc	01e39f33	sll	x30,x7,x30	  x7:0x8561d0ac x30:0xbe1d6808 x30=0x61d0ac00
        7975000	       796	80001100	40218eb3	sub	x29,x3,x2	  x3:0x10001000  x2:0x7fff90b6 x29=0x90007f4a
        7985000	       797	80001104	011bc463	blt	x23,x17,8000110c	 x23:0xfffc0000 x17:0x00000000
        7995000	       798	00000000	00000013	addi	x0,x0,0	  x0:0x00000000
        8005000	       799	80001108	00000013	addi	x0,x0,0	  x0:0x00000000
        8015000	       800	8000110c	41545a13	srai	x20,x8,0x15	  x8:0xa9551000 x20=0xfffffd4a
        8025000	       801	80001110	664d9237	lui	x4,0x664d9	  x4=0x664d9000
        8035000	       802	80001114	e6644697	auipc	x13,0xe6644	 x13=0x66645110
        8045000	       803	80001118	0091ee63	bltu	x3,x9,80001134	  x3:0x10001000  x9:0x00000000
        8055000	       804	8000111c	0583c463	blt	x7,x24,80001164	  x7:0x8561d0ac x24:0xfffffe07
        8065000	       805	00000000	00000013	addi	x0,x0,0	  x0:0x00000000
        8075000	       806	80001160	00000013	addi	x0,x0,0	  x0:0x00000000
        8085000	       807	80001164	01d38663	beq	x7,x29,80001170	  x7:0x8561d0ac x29:0x90007f4a
        8095000	       808	80001168	0321dc63	bge	x3,x18,800011a0	  x3:0x10001000 x18:0x00000000
        8105000	       809	00000000	00000013	addi	x0,x0,0	  x0:0x00000000
        8115000	       810	8000119c	00000013	addi	x0,x0,0	  x0:0x00000000
        8125000	       811	800011a0	00efbe97	auipc	x29,0xefb	 x29=0x80efc19c
        8135000	       812	800011a4	8406ecb7	lui	x25,0x8406e	 x25=0x8406e000
        8145000	       813	800011a8	03f60063	beq	x12,x31,800011c8	 x12:0x00000000 x31:0xe0ba3c10
        8155000	       814	800011ac	40b85993	srai	x19,x16,0xb	 x16:0x0002021f x19=0x00000040
        8165000	       815	800011b0	50240c13	addi	x24,x8,1282	  x8:0xa9551000 x24=0xa9551502
        8175000	       816	800011b4	410b5cb3	sra	x25,x22,x16	 x22:0x00000000 x16:0x0002021f x25=0x00000000
        8185000	       817	800011b8	0565e063	bltu	x11,x22,800011f8	 x11:0x00000400 x22:0x00000000
        8195000	       818	800011bc	0085f133	and	x2,x11,x8	 x11:0x00000400  x8:0xa9551000  x2=0x00000000
        8205000	       819	800011c0	04f54263	blt	x10,x15,80001204	 x10:0x00000001 x15:0x80009f84
        8215000	       820	800011c4	40c60db3	sub	x27,x12,x12	 x12:0x00000000 x12:0x00000000 x27=0x00000000
        8225000	       821	800011c8	e48ce593	ori	x11,x25,-440	 x25:0x00000000 x11=0xfffffe48
        8235000	       822	800011cc	00540533	add	x10,x8,x5	  x8:0xa9551000  x5:0xe0ba3c0f x10=0x8a0f4c0f
        8245000	       823	800011d0	02d44663	blt	x8,x13,800011fc	  x8:0xa9551000 x13:0x66645110
        8255000	       824	00000000	00000013	addi	x0,x0,0	  x0:0x00000000
        8265000	       825	800011f8	00000013	addi	x0,x0,0	  x0:0x00000000
        8275000	       826	800011fc	01950b33	add	x22,x10,x25	 x10:0x8a0f4c0f x25:0x00000000 x22=0x8a0f4c0f
        8285000	       827	80001200	00411093	slli	x1,x2,0x4	  x2:0x00000000  x1=0x00000000
        8295000	       828	80001204	00bd23b3	slt	x7,x26,x11	 x26:0x80009fc4 x11:0xfffffe48  x7=0x00000001
        8305000	       829	80001208	0149a233	slt	x4,x19,x20	 x19:0x00000040 x20:0xfffffd4a  x4=0x00000000
        8315000	       830	8000120c	2321b213	sltiu	x4,x3,562	  x3:0x10001000  x4=0x00000000
        8325000	       831	80001210	01bedd93	srli	x27,x29,0x1b	 x29:0x80efc19c x27=0x00000010
        8335000	       832	80001214	00ff9e63	bne	x31,x15,80001230	 x31:0xe0ba3c10 x15:0x80009f84
        8345000	       833	00000000	00000013	addi	x0,x0,0	  x0:0x00000000
        8355000	       834	8000122c	00000013	addi	x0,x0,0	  x0:0x00000000
        8365000	       835	80001230	01a50433	add	x8,x10,x26	 x10:0x8a0f4c0f x26:0x80009fc4  x8=0x0a0febd3
        8375000	       836	80001234	41a5dd93	srai	x27,x11,0x1a	 x11:0xfffffe48 x27=0xffffffff
        8385000	       837	80001238	ffd00597	auipc	x11,0xffd00	 x11=0x7fd01234
        8395000	       838	8000123c	032a6c63	bltu	x20,x18,80001274	 x20:0xfffffd4a x18:0x00000000
        8405000	       839	80001240	01cd3233	sltu	x4,x26,x28	 x26:0x80009fc4 x28:0x00020002  x4=0x00000000
        8415000	       840	80001244	00055f33	srl	x30,x10,x0	 x10:0x8a0f4c0f  x0:0x00000000 x30=0x8a0f4c0f
        8425000	       841	80001248	01941cb3	sll	x25,x8,x25	  x8:0x0a0febd3 x25:0x00000000 x25=0x0a0febd3
        8435000	       842	8000124c	006315b3	sll	x11,x6,x6	  x6:0xace3bd00  x6:0xace3bd00 x11=0xace3bd00
        8445000	       843	80001250	412d5693	srai	x13,x26,0x12	 x26:0x80009fc4 x13=0xffffe000
        8455000	       844	80001254	00e773b3	and	x7,x14,x14	 x14:0xa9551000 x14:0xa9551000  x7=0xa9551000
        8465000	       845	80001258	29400a93	addi	x21,x0,660	  x0:0x00000000 x21=0x00000294
        8475000	       846	8000125c	af69d737	lui	x14,0xaf69d	 x14=0xaf69d000
        8485000	       847	80001260	01ad0463	beq	x26,x26,80001268	 x26:0x80009fc4 x26:0x80009fc4
        8495000	       848	00000000	00000013	addi	x0,x0,0	  x0:0x00000000
        8505000	       849	80001264	00000013	addi	x0,x0,0	  x0:0x00000000
        8515000	       850	80001268	01568033	add	x0,x13,x21	 x13:0xffffe000 x21:0x00000294
        8525000	       851	8000126c	41dc8ab3	sub	x21,x25,x29	 x25:0x0a0febd3 x29:0x80efc19c x21=0x89202a37
        8535000	       852	80001270	009b0263	beq	x22,x9,80001274	 x22:0x8a0f4c0f  x9:0x00000000
        8545000	       853	80001274	01d0a8b3	slt	x17,x1,x29	  x1:0x00000000 x29:0x80efc19c x17=0x00000000
        8555000	       854	80001278	0b298a13	addi	x20,x19,178	 x19:0x00000040 x20=0x000000f2
        8565000	       855	8000127c	21e28937	lui	x18,0x21e28	 x18=0x21e28000
        8575000	       856	80001280	40fd80b3	sub	x1,x27,x15	 x27:0xffffffff x15:0x80009f84  x1=0x7fff607b
        8585000	       857	80001284	00c15f33	srl	x30,x2,x12	  x2:0x00000000 x12:0x00000000 x30=0x00000000
        8595000	       858	80001288	00b17db3	and	x27,x2,x11	  x2:0x00000000 x11:0xace3bd00 x27=0x00000000
        8605000	       859	8000128c	40ba5693	srai	x13,x20,0xb	 x20:0x000000f2 x13=0x00000000
        8615000	       860	80001290	0fac3413	sltiu	x8,x24,250	 x24:0xa9551502  x8=0x00000000
        8625000	       861	80001294	00754863	blt	x10,x7,800012a4	 x10:0x8a0f4c0f  x7:0xa9551000
        8635000	       862	00000000	00000013	addi	x0,x0,0	  x0:0x00000000
        8645000	       863	800012a0	00000013	addi	x0,x0,0	  x0:0x00000000
        8655000	       864	800012a4	9c50fc13	andi	x24,x1,-1595	  x1:0x7fff607b x24=0x7fff6041
        8665000	       865	800012a8	70fdaa13	slti	x20,x27,1807	 x27:0x00000000 x20=0x00000001
        8675000	       866	800012ac	d03a3013	sltiu	x0,x20,-765	 x20:0x00000001
        8685000	       867	800012b0	00937863	bgeu	x6,x9,800012c0	  x6:0xace3bd00  x9:0x00000000
        8695000	       868	00000000	00000013	addi	x0,x0,0	  x0:0x00000000
        8705000	       869	800012bc	00000013	addi	x0,x0,0	  x0:0x00000000
        8715000	       870	800012c0	59642293	slti	x5,x8,1430	  x8:0x00000000  x5=0x00000001
        8725000	       871	800012c4	042d4313	xori	x6,x26,66	 x26:0x80009fc4  x6=0x80009f86
        8735000	       872	800012c8	fe35a313	slti	x6,x11,-29	 x11:0xace3bd00  x6=0x00000001
        8745000	       873	800012cc	02348663	beq	x9,x3,800012f8	  x9:0x00000000  x3:0x10001000
        8755000	       874	800012d0	024cc263	blt	x25,x4,800012f4	 x25:0x0a0febd3  x4:0x00000000
        8765000	       875	800012d4	4111d713	srai	x14,x3,0x11	  x3:0x10001000 x14=0x00000800
        8775000	       876	800012d8	374d6093	ori	x1,x26,884	 x26:0x80009fc4  x1=0x80009ff4
        8785000	       877	800012dc	2f340113	addi	x2,x8,755	  x8:0x00000000  x2=0x000002f3
        8795000	       878	800012e0	04c90663	beq	x18,x12,8000132c	 x18:0x21e28000 x12:0x00000000
        8805000	       879	800012e4	01be6eb3	or	x29,x28,x27	 x28:0x00020002 x27:0x00000000 x29=0x00020002
        8815000	       880	800012e8	2932b117	auipc	x2,0x2932b	  x2=0xa932c2e4
        8825000	       881	800012ec	41c0d833	sra	x16,x1,x28	  x1:0x80009ff4 x28:0x00020002 x16=0xe00027fd
        8835000	       882	800012f0	ad1a0493	addi	x9,x20,-1327	 x20:0x00000001  x9=0xfffffad2
        8845000	       883	800012f4	01139863	bne	x7,x17,80001304	  x7:0xa9551000 x17:0x00000000
        8855000	       884	00000000	00000013	addi	x0,x0,0	  x0:0x00000000
        8865000	       885	80001300	00000013	addi	x0,x0,0	  x0:0x00000000
        8875000	       886	80001304	04fa5463	bge	x20,x15,8000134c	 x20:0x00000001 x15:0x80009f84
        8885000	       887	00000000	00000013	addi	x0,x0,0	  x0:0x00000000
        8895000	       888	80001348	00000013	addi	x0,x0,0	  x0:0x00000000
        8905000	       889	8000134c	419edbb3	sra	x23,x29,x25	 x29:0x00020002 x25:0x0a0febd3 x23=0x00000000
        8915000	       890	80001350	63260e93	addi	x29,x12,1586	 x12:0x00000000 x29=0x00000632
        8925000	       891	80001354	00000013	addi	x0,x0,0	  x0:0x00000000
        8935000	       892	80001358	401d0c33	sub	x24,x26,x1	 x26:0x80009fc4  x1:0x80009ff4 x24=0xffffffd0
        8945000	       893	8000135c	af794513	xori	x10,x18,-1289	 x18:0x21e28000 x10=0xde1d7af7
        8955000	       894	80001360	415cdbb3	sra	x23,x25,x21	 x25:0x0a0febd3 x21:0x89202a37 x23=0x00000014
        8965000	       895	80001364	75cb8113	addi	x2,x23,1884	 x23:0x00000014  x2=0x00000770
        8975000	       896	80001368	41d9dcb3	sra	x25,x19,x29	 x19:0x00000040 x29:0x00000632 x25=0x00000000
        8985000	       897	8000136c	002f1b13	slli	x22,x30,0x2	 x30:0x00000000 x22=0x00000000
        8995000	       898	80001370	009195b3	sll	x11,x3,x9	  x3:0x10001000  x9:0xfffffad2 x11=0x40000000
        9005000	       899	80001374	04246263	bltu	x8,x2,800013b8	  x8:0x00000000  x2:0x00000770
        9015000	       900	00000000	00000013	addi	x0,x0,0	  x0:0x00000000
        9025000	       901	800013b4	00000013	addi	x0,x0,0	  x0:0x00000000
        9035000	       902	800013b8	02bc7cb7	lui	x25,0x2bc7	 x25=0x02bc7000
        9045000	       903	800013bc	01a01e63	bne	x0,x26,800013d8	  x0:0x00000000 x26:0x80009fc4
        9055000	       904	00000000	00000013	addi	x0,x0,0	  x0:0x00000000
        9065000	       905	800013d4	00000013	addi	x0,x0,0	  x0:0x00000000
        9075000	       906	800013d8	714e6c37	lui	x24,0x714e6	 x24=0x714e6000
        9085000	       907	800013dc	01c118b3	sll	x17,x2,x28	  x2:0x00000770 x28:0x00020002 x17=0x00001dc0
        9095000	       908	800013e0	f9870913	addi	x18,x14,-104	 x14:0x00000800 x18=0x00000798
        9105000	       909	800013e4	02637e63	bgeu	x6,x6,80001420	  x6:0x00000001  x6:0x00000001
        9115000	       910	00000000	00000013	addi	x0,x0,0	  x0:0x00000000
        9125000	       911	8000141c	00000013	addi	x0,x0,0	  x0:0x00000000
        9135000	       912	80001420	d19e0313	addi	x6,x28,-743	 x28:0x00020002  x6=0x0001fd1b
        9145000	       913	80001424	01d7cc63	blt	x15,x29,8000143c	 x15:0x80009f84 x29:0x00000632
        9155000	       914	00000000	00000013	addi	x0,x0,0	  x0:0x00000000
        9165000	       915	80001438	00000013	addi	x0,x0,0	  x0:0x00000000
        9175000	       916	8000143c	0063f1b3	and	x3,x7,x6	  x7:0xa9551000  x6:0x0001fd1b  x3=0x00011000
        9185000	       917	80001440	04a67063	bgeu	x12,x10,80001480	 x12:0x00000000 x10:0xde1d7af7
        9195000	       918	80001444	005d25b3	slt	x11,x26,x5	 x26:0x80009fc4  x5:0x00000001 x11=0x00000001
        9205000	       919	80001448	00499433	sll	x8,x19,x4	 x19:0x00000040  x4:0x00000000  x8=0x00000040
        9215000	       920	8000144c	00000013	addi	x0,x0,0	  x0:0x00000000
        9225000	       921	80001450	8da8a293	slti	x5,x17,-1830	 x17:0x00001dc0  x5=0x00000000
        9235000	       922	80001454	01cd2f33	slt	x30,x26,x28	 x26:0x80009fc4 x28:0x00020002 x30=0x00000001
        9245000	       923	80001458	030a0063	beq	x20,x16,80001478	 x20:0x00000001 x16:0xe00027fd
        9255000	       924	8000145c	0355c993	xori	x19,x11,53	 x11:0x00000001 x19=0x00000034
        9265000	       925	80001460	00000013	addi	x0,x0,0	  x0:0x00000000
        9275000	       926	80001464	41ea84b3	sub	x9,x21,x30	 x21:0x89202a37 x30:0x00000001  x9=0x89202a36
        9285000	       927	80001468	01bea533	slt	x10,x29,x27	 x29:0x00000632 x27:0x00000000 x10=0x00000000
        9295000	       928	8000146c	02416263	bltu	x2,x4,80001490	  x2:0x00000770  x4:0x00000000
        9305000	       929	80001470	e79df213	andi	x4,x27,-391	 x27:0x00000000  x4=0x00000000
        9315000	       930	80001474	016ed2b3	srl	x5,x29,x22	 x29:0x00000632 x22:0x00000000  x5=0x00000632
        9325000	       931	80001478	00524033	xor	x0,x4,x5	  x4:0x00000000  x5:0x00000632
        9335000	       932	8000147c	02d53913	sltiu	x18,x10,45	 x10:0x00000000 x18=0x00000001
        9345000	       933	80001480	24e80293	addi	x5,x16,590	 x16:0xe00027fd  x5=0xe0002a4b
        9355000	       934	80001484	01a618b3	sll	x17,x12,x26	 x12:0x00000000 x26:0x80009fc4 x17=0x00000000
        9365000	       935	80001488	00931a93	slli	x21,x6,0x9	  x6:0x0001fd1b x21=0x03fa3600
        9375000	       936	8000148c	4d50aa37	lui	x20,0x4d50a	 x20=0x4d50a000
        9385000	       937	80001490	00d62033	slt	x0,x12,x13	 x12:0x00000000 x13:0x00000000
        9395000	       938	80001494	05388263	beq	x17,x19,800014d8	 x17:0x00000000 x19:0x00000034
        9405000	       939	80001498	01f69393	slli	x7,x13,0x1f	 x13:0x00000000  x7=0x00000000
        9415000	       940	8000149c	40ee8b33	sub	x22,x29,x14	 x29:0x00000632 x14:0x00000800 x22=0xfffffe32
        9425000	       941	800014a0	93684293	xori	x5,x16,-1738	 x16:0xe00027fd  x5=0x1fffdecb
        9435000	       942	800014a4	01f11833	sll	x16,x2,x31	  x2:0x00000770 x31:0xe0ba3c10 x16=0x07700000
        9445000	       943	800014a8	731a6b93	ori	x23,x20,1841	 x20:0x4d50a000 x23=0x4d50a731
        9455000	       944	800014ac	47b64393	xori	x7,x12,1147	 x12:0x00000000  x7=0x0000047b
        9465000	       945	800014b0	01cb8e33	add	x28,x23,x28	 x23:0x4d50a731 x28:0x00020002 x28=0x4d52a733
        9475000	       946	800014b4	05ccc063	blt	x25,x28,800014f4	 x25:0x02bc7000 x28:0x4d52a733
        9485000	       947	00000000	00000013	addi	x0,x0,0	  x0:0x00000000
        9495000	       948	800014f0	00000013	addi	x0,x0,0	  x0:0x00000000
        9505000	       949	800014f4	013230b3	sltu	x1,x4,x19	  x4:0x00000000 x19:0x00000034  x1=0x00000001
        9515000	       950	800014f8	019da733	slt	x14,x27,x25	 x27:0x00000000 x25:0x02bc7000 x14=0x00000001
        9525000	       951	800014fc	0375e063	bltu	x11,x23,8000151c	 x11:0x00000001 x23:0x4d50a731
        9535000	       952	00000000	00000013	addi	x0,x0,0	  x0:0x00000000
        9545000	       953	80001518	00000013	addi	x0,x0,0	  x0:0x00000000
        9555000	       954	8000151c	00a39863	bne	x7,x10,8000152c	  x7:0x0000047b x10:0x00000000
        9565000	       955	00000000	00000013	addi	x0,x0,0	  x0:0x00000000
        9575000	       956	80001528	00000013	addi	x0,x0,0	  x0:0x00000000
        9585000	       957	8000152c	00f2d1b3	srl	x3,x5,x15	  x5:0x1fffdecb x15:0x80009f84  x3=0x01fffdec
        9595000	       958	80001530	417854b3	sra	x9,x16,x23	 x16:0x07700000 x23:0x4d50a731  x9=0x000003b8
        9605000	       959	80001534	003a4e63	blt	x20,x3,80001550	 x20:0x4d50a000  x3:0x01fffdec
        9615000	       960	80001538	01fc79b3	and	x19,x24,x31	 x24:0x714e6000 x31:0xe0ba3c10 x19=0x600a2000
        9625000	       961	8000153c	00f62db3	slt	x27,x12,x15	 x12:0x00000000 x15:0x80009f84 x27=0x00000000
        9635000	       962	80001540	b04cb417	auipc	x8,0xb04cb	  x8=0x304cc53c
        9645000	       963	80001544	0ca63013	sltiu	x0,x12,202	 x12:0x00000000
        9655000	       964	80001548	00e10bb3	add	x23,x2,x14	  x2:0x00000770 x14:0x00000001 x23=0x00000771
        9665000	       965	8000154c	017f03b3	add	x7,x30,x23	 x30:0x00000001 x23:0x00000771  x7=0x00000772
        9675000	       966	80001550	03acec63	bltu	x25,x26,80001588	 x25:0x02bc7000 x26:0x80009fc4
        9685000	       967	00000000	00000013	addi	x0,x0,0	  x0:0x00000000
        9695000	       968	80001584	00000013	addi	x0,x0,0	  x0:0x00000000
        9705000	       969	80001588	0134f663	bgeu	x9,x19,80001594	  x9:0x000003b8 x19:0x600a2000
        9715000	       970	8000158c	def18293	addi	x5,x3,-529	  x3:0x01fffdec  x5=0x01fffbdb
        9725000	       971	80001590	bcf8e813	ori	x16,x17,-1073	 x17:0x00000000 x16=0xfffffbcf
        9735000	       972	80001594	00f0ec63	bltu	x1,x15,800015ac	  x1:0x00000001 x15:0x80009f84
        9745000	       973	00000000	00000013	addi	x0,x0,0	  x0:0x00000000
        9755000	       974	800015a8	00000013	addi	x0,x0,0	  x0:0x00000000
        9765000	       975	800015ac	010fd833	srl	x16,x31,x16	 x31:0xe0ba3c10 x16:0xfffffbcf x16=0x0001c174
        9775000	       976	800015b0	e43f2013	slti	x0,x30,-445	 x30:0x00000001
        9785000	       977	800015b4	03ca9663	bne	x21,x28,800015e0	 x21:0x03fa3600 x28:0x4d52a733
        9795000	       978	00000000	00000013	addi	x0,x0,0	  x0:0x00000000
        9805000	       979	800015dc	00000013	addi	x0,x0,0	  x0:0x00000000
        9815000	       980	800015e0	130e4263	blt	x28,x16,80001704	 x28:0x4d52a733 x16:0x0001c174
        9825000	       981	800015e4	04fcec63	bltu	x25,x15,8000163c	 x25:0x02bc7000 x15:0x80009f84
        9835000	       982	00000000	00000013	addi	x0,x0,0	  x0:0x00000000
        9845000	       983	80001638	00000013	addi	x0,x0,0	  x0:0x00000000
        9855000	       984	8000163c	01d04bb3	xor	x23,x0,x29	  x0:0x00000000 x29:0x00000632 x23=0x00000632
        9865000	       985	80001640	00007117	auipc	x2,0x7	  x2=0x8000863c
        9875000	       986	80001644	0cf10113	addi	x2,x2,207	  x2:0x8000863c  x2=0x8000870b
        9885000	       987	80001648	41275713	srai	x14,x14,0x12	 x14:0x00000001 x14=0x00000000
        9895000	       988	8000164c	4097d4b3	sra	x9,x15,x9	 x15:0x80009f84  x9:0x000003b8  x9=0xffffff80
        9905000	       989	80001650	09410c83	lb	x25,148(x2)	  x2:0x8000870b x25=0xffffff98 PA:0x8000879f
        9915000	       990	80001654	0ef100a3	sb	x15,225(x2)	  x2:0x8000870b x15:0x80009f84 PA:0x800087ec
        9925000	       991	80001658	f7414a83	lbu	x21,-140(x2)	  x2:0x8000870b x21=0x000000a5 PA:0x8000867f
        9935000	       992	8000165c	019d32b3	sltu	x5,x26,x25	 x26:0x80009fc4 x25:0xffffff98  x5=0x00000001
        9945000	       993	80001660	402e5e93	srai	x29,x28,0x2	 x28:0x4d52a733 x29=0x1354a9cc
        9955000	       994	80001664	c571a013	slti	x0,x3,-937	  x3:0x01fffdec
        9965000	       995	80001668	06d14e83	lbu	x29,109(x2)	  x2:0x8000870b x29=0x0000002e PA:0x80008778
        9975000	       996	8000166c	f8514c83	lbu	x25,-123(x2)	  x2:0x8000870b x25=0x00000035 PA:0x80008690
        9985000	       997	00000000	00000013	addi	x0,x0,0	  x0:0x00000000
        9995000	       998	80001670	f19111a3	sh	x25,-253(x2)	  x2:0x8000870b x25:0x00000035 PA:0x8000860e
       10005000	       999	80001674	41038c33	sub	x24,x7,x16	  x7:0x00000772 x16:0x0001c174 x24=0xfffe45fe
       10015000	      1000	80001678	0072aab3	slt	x21,x5,x7	  x5:0x00000001  x7:0x00000772 x21=0x00000001
       10025000	      1001	8000167c	f0512583	lw	x11,-251(x2)	  x2:0x8000870b x11=0x1362dc0f PA:0x80008610
       10035000	      1002	80001680	0be14003	lbu	x0,190(x2)	  x2:0x8000870b PA:0x800087c9
       10045000	      1003	80001684	ea448813	addi	x16,x9,-348	  x9:0xffffff80 x16=0xfffffe24
       10055000	      1004	80001688	fea10283	lb	x5,-22(x2)	  x2:0x8000870b  x5=0x00000074 PA:0x800086f5
       10065000	      1005	8000168c	f18116a3	sh	x24,-243(x2)	  x2:0x8000870b x24:0xfffe45fe PA:0x80008618
       10075000	      1006	80001690	41905e93	srai	x29,x0,0x19	  x0:0x00000000 x29=0x00000000
       10085000	      1007	80001694	00000013	addi	x0,x0,0	  x0:0x00000000
       10095000	      1008	80001698	fe515883	lhu	x17,-27(x2)	  x2:0x8000870b x17=0x0000579a PA:0x800086f0
       10105000	      1009	8000169c	04911203	lh	x4,73(x2)	  x2:0x8000870b  x4=0x00007131 PA:0x80008754
       10115000	      1010	800016a0	f9414683	lbu	x13,-108(x2)	  x2:0x8000870b x13=0x0000007f PA:0x8000869f
       10125000	      1011	800016a4	003b58b3	srl	x17,x22,x3	 x22:0xfffffe32  x3:0x01fffdec x17=0x000fffff
       10135000	      1012	800016a8	dcdd2293	slti	x5,x26,-563	 x26:0x80009fc4  x5=0x00000001
       10145000	      1013	800016ac	45fd8913	addi	x18,x27,1119	 x27:0x00000000 x18=0x0000045f
       10155000	      1014	800016b0	f7f10023	sb	x31,-160(x2)	  x2:0x8000870b x31:0xe0ba3c10 PA:0x8000866b
       10165000	      1015	800016b4	f0b11da3	sh	x11,-229(x2)	  x2:0x8000870b x11:0x1362dc0f PA:0x80008626
       10175000	      1016	800016b8	eb1a2413	slti	x8,x20,-335	 x20:0x4d50a000  x8=0x00000000
       10185000	      1017	800016bc	f6e10ea3	sb	x14,-131(x2)	  x2:0x8000870b x14:0x00000000 PA:0x80008688
       10195000	      1018	800016c0	00c77533	and	x10,x14,x12	 x14:0x00000000 x12:0x00000000 x10=0x00000000
       10205000	      1019	800016c4	07b10423	sb	x27,104(x2)	  x2:0x8000870b x27:0x00000000 PA:0x80008773
       10215000	      1020	800016c8	00260033	add	x0,x12,x2	 x12:0x00000000  x2:0x8000870b
       10225000	      1021	800016cc	41765433	sra	x8,x12,x23	 x12:0x00000000 x23:0x00000632  x8=0x00000000
       10235000	      1022	800016d0	fcf15c83	lhu	x25,-49(x2)	  x2:0x8000870b x25=0x000043b9 PA:0x800086da
       10245000	      1023	800016d4	0097b533	sltu	x10,x15,x9	 x15:0x80009f84  x9:0xffffff80 x10=0x00000001
       10255000	      1024	800016d8	03414e03	lbu	x28,52(x2)	  x2:0x8000870b x28=0x000000f3 PA:0x8000873f
       10265000	      1025	800016dc	405755b3	sra	x11,x14,x5	 x14:0x00000000  x5:0x00000001 x11=0x00000000
       10275000	      1026	800016e0	dd672213	slti	x4,x14,-554	 x14:0x00000000  x4=0x00000000
       10285000	      1027	800016e4	5c4b4213	xori	x4,x22,1476	 x22:0xfffffe32  x4=0xfffffbf6
       10295000	      1028	800016e8	05711c03	lh	x24,87(x2)	  x2:0x8000870b x24=0x00001646 PA:0x80008762
       10305000	      1029	800016ec	01410223	sb	x20,4(x2)	  x2:0x8000870b x20:0x4d50a000 PA:0x8000870f
       10315000	      1030	800016f0	0ec14a83	lbu	x21,236(x2)	  x2:0x8000870b x21=0x00000057 PA:0x800087f7
       10325000	      1031	800016f4	40a5d313	srai	x6,x11,0xa	 x11:0x00000000  x6=0x00000000
       10335000	      1032	800016f8	053dd463	bge	x27,x19,80001740	 x27:0x00000000 x19:0x600a2000
       10345000	      1033	800016fc	41c25cb3	sra	x25,x4,x28	  x4:0xfffffbf6 x28:0x000000f3 x25=0xffffffff
       10355000	      1034	80001700	01ce0e33	add	x28,x28,x28	 x28:0x000000f3 x28:0x000000f3 x28=0x000001e6
       10365000	      1035	80001704	010f92b3	sll	x5,x31,x16	 x31:0xe0ba3c10 x16:0xfffffe24  x5=0x0ba3c100
       10375000	      1036	80001708	012b4333	xor	x6,x22,x18	 x22:0xfffffe32 x18:0x0000045f  x6=0xfffffa6d
       10385000	      1037	8000170c	4b2eb193	sltiu	x3,x29,1202	 x29:0x00000000  x3=0x00000001
       10395000	      1038	80001710	9403b813	sltiu	x16,x7,-1728	  x7:0x00000772 x16=0x00000001
       10405000	      1039	80001714	41b38133	sub	x2,x7,x27	  x7:0x00000772 x27:0x00000000  x2=0x00000772
       10415000	      1040	80001718	33f6b093	sltiu	x1,x13,831	 x13:0x0000007f  x1=0x00000001
       10425000	      1041	8000171c	014a8e63	beq	x21,x20,80001738	 x21:0x00000057 x20:0x4d50a000
       10435000	      1042	80001720	41bd5e33	sra	x28,x26,x27	 x26:0x80009fc4 x27:0x00000000 x28=0x80009fc4
       10445000	      1043	80001724	03a9e663	bltu	x19,x26,80001750	 x19:0x600a2000 x26:0x80009fc4
       10455000	      1044	00000000	00000013	addi	x0,x0,0	  x0:0x00000000
       10465000	      1045	8000174c	00000013	addi	x0,x0,0	  x0:0x00000000
       10475000	      1046	80001750	00b28033	add	x0,x5,x11	  x5:0x0ba3c100 x11:0x00000000
       10485000	      1047	80001754	0176f663	bgeu	x13,x23,80001760	 x13:0x0000007f x23:0x00000632
       10495000	      1048	80001758	40db00b3	sub	x1,x22,x13	 x22:0xfffffe32 x13:0x0000007f  x1=0xfffffdb3
       10505000	      1049	8000175c	01a38eb3	add	x29,x7,x26	  x7:0x00000772 x26:0x80009fc4 x29=0x8000a736
       10515000	      1050	80001760	0546e663	bltu	x13,x20,800017ac	 x13:0x0000007f x20:0x4d50a000
       10525000	      1051	00000000	00000013	addi	x0,x0,0	  x0:0x00000000
       10535000	      1052	800017a8	00000013	addi	x0,x0,0	  x0:0x00000000
       10545000	      1053	800017ac	00bddeb3	srl	x29,x27,x11	 x27:0x00000000 x11:0x00000000 x29=0x00000000
       10555000	      1054	800017b0	021ff663	bgeu	x31,x1,800017dc	 x31:0xe0ba3c10  x1:0xfffffdb3
       10565000	      1055	800017b4	1dcf7a13	andi	x20,x30,476	 x30:0x00000001 x20=0x00000000
       10575000	      1056	800017b8	013a1c63	bne	x20,x19,800017d0	 x20:0x00000000 x19:0x600a2000
       10585000	      1057	00000000	00000013	addi	x0,x0,0	  x0:0x00000000
       10595000	      1058	800017cc	00000013	addi	x0,x0,0	  x0:0x00000000
       10605000	      1059	800017d0	00a99713	slli	x14,x19,0xa	 x19:0x600a2000 x14=0x28800000
       10615000	      1060	800017d4	008bc463	blt	x23,x8,800017dc	 x23:0x00000632  x8:0x00000000
       10625000	      1061	800017d8	41f75bb3	sra	x23,x14,x31	 x14:0x28800000 x31:0xe0ba3c10 x23=0x00002880
       10635000	      1062	800017dc	00000013	addi	x0,x0,0	  x0:0x00000000
       10645000	      1063	800017e0	015a2433	slt	x8,x20,x21	 x20:0x00000000 x21:0x00000057  x8=0x00000001
       10655000	      1064	800017e4	00000013	addi	x0,x0,0	  x0:0x00000000
       10665000	      1065	800017e8	038fc663	blt	x31,x24,80001814	 x31:0xe0ba3c10 x24:0x00001646
       10675000	      1066	00000000	00000013	addi	x0,x0,0	  x0:0x00000000
       10685000	      1067	80001810	00000013	addi	x0,x0,0	  x0:0x00000000
       10695000	      1068	80001814	009cb433	sltu	x8,x25,x9	 x25:0xffffffff  x9:0xffffff80  x8=0x00000000
       10705000	      1069	80001818	00005a97	auipc	x21,0x5	 x21=0x80006814
       10715000	      1070	8000181c	018a8a93	addi	x21,x21,24	 x21:0x80006814 x21=0x8000682c
       10725000	      1071	80001820	01001f93	slli	x31,x0,0x10	  x0:0x00000000 x31=0x00000000
       10735000	      1072	80001824	79ae2c93	slti	x25,x28,1946	 x28:0x80009fc4 x25=0x00000001
       10745000	      1073	80001828	d45a8a93	addi	x21,x21,-699	 x21:0x8000682c x21=0x80006571
       10755000	      1074	8000182c	84f43693	sltiu	x13,x8,-1969	  x8:0x00000000 x13=0x00000001
       10765000	      1075	80001830	01788133	add	x2,x17,x23	 x17:0x000fffff x23:0x00002880  x2=0x0010287f
       10775000	      1076	80001834	4e21cb93	xori	x23,x3,1250	  x3:0x00000001 x23=0x000004e3
       10785000	      1077	80001838	38f43093	sltiu	x1,x8,911	  x8:0x00000000  x1=0x00000001
       10795000	      1078	8000183c	00696b33	or	x22,x18,x6	 x18:0x0000045f  x6:0xfffffa6d x22=0xfffffe7f
       10805000	      1079	80001840	01707133	and	x2,x0,x23	  x0:0x00000000 x23:0x000004e3  x2=0x00000000
       10815000	      1080	80001844	00088733	add	x14,x17,x0	 x17:0x000fffff  x0:0x00000000 x14=0x000fffff
       10825000	      1081	80001848	c6252593	slti	x11,x10,-926	 x10:0x00000001 x11=0x00000000
       10835000	      1082	8000184c	2bba80e7	jalr	x1,x21,699	 x21:0x80006571  x1=0x8000184c
       10845000	      1083	00000000	00000013	addi	x0,x0,0	  x0:0x00000000
       10855000	      1084	8000682c	00000013	addi	x0,x0,0	  x0:0x00000000
       10865000	      1085	80006830	01554463	blt	x10,x21,80006838	 x10:0x00000001 x21:0x80006571
       10875000	      1086	80006834	41c2d393	srai	x7,x5,0x1c	  x5:0x0ba3c100  x7=0x00000000
       10885000	      1087	80006838	fe078793	addi	x15,x15,-32	 x15:0x80009f84 x15=0x80009f64
       10895000	      1088	8000683c	210db513	sltiu	x10,x27,528	 x27:0x00000000 x10=0x00000001
       10905000	      1089	80006840	0017a223	sw	x1,4(x15)	 x15:0x80009f64  x1:0x8000184c PA:0x80009f68
       10915000	      1090	80006844	2f396913	ori	x18,x18,755	 x18:0x0000045f x18=0x000006ff
       10925000	      1091	80006848	0126fdb3	and	x27,x13,x18	 x13:0x00000001 x18:0x000006ff x27=0x00000001
       10935000	      1092	8000684c	a6c0fe37	lui	x28,0xa6c0f	 x28=0xa6c0f000
       10945000	      1093	80006850	00000013	addi	x0,x0,0	  x0:0x00000000
       10955000	      1094	80006854	ffffb317	auipc	x6,0xffffb	  x6=0x80001850
       10965000	      1095	80006858	26030313	addi	x6,x6,608	  x6:0x80001850  x6=0x80001ab0
       10975000	      1096	8000685c	01653833	sltu	x16,x10,x22	 x10:0x00000001 x22:0xfffffe7f x16=0x00000001
       10985000	      1097	80006860	01f09e93	slli	x29,x1,0x1f	  x1:0x8000184c x29=0x00000000
       10995000	      1098	80006864	ec230313	addi	x6,x6,-318	  x6:0x80001ab0  x6=0x80001972
       11005000	      1099	80006868	0192b1b3	sltu	x3,x5,x25	  x5:0x0ba3c100 x25:0x00000001  x3=0x00000000
       11015000	      1100	8000686c	01611eb3	sll	x29,x2,x22	  x2:0x00000000 x22:0xfffffe7f x29=0x00000000
       11025000	      1101	80006870	40c48033	sub	x0,x9,x12	  x9:0xffffff80 x12:0x00000000
       11035000	      1102	80006874	13f300e7	jalr	x1,x6,319	  x6:0x80001972  x1=0x80006874
       11045000	      1103	00000000	00000013	addi	x0,x0,0	  x0:0x00000000
       11055000	      1104	80001ab0	00000013	addi	x0,x0,0	  x0:0x00000000
       11065000	      1105	80001ab4	42172413	slti	x8,x14,1057	 x14:0x000fffff  x8=0x00000000
       11075000	      1106	80001ab8	40495693	srai	x13,x18,0x4	 x18:0x000006ff x13=0x0000006f
       11085000	      1107	80001abc	40b30e33	sub	x28,x6,x11	  x6:0x80001972 x11:0x00000000 x28=0x80001972
       11095000	      1108	80001ac0	fd878793	addi	x15,x15,-40	 x15:0x80009f64 x15=0x80009f3c
       11105000	      1109	80001ac4	0017a223	sw	x1,4(x15)	 x15:0x80009f3c  x1:0x80006874 PA:0x80009f40
       11115000	      1110	80001ac8	018a24b3	slt	x9,x20,x24	 x20:0x00000000 x24:0x00001646  x9=0x00000001
       11125000	      1111	80001acc	ac3f2513	slti	x10,x30,-1341	 x30:0x00000001 x10=0x00000000
       11135000	      1112	80001ad0	9a6b0993	addi	x19,x22,-1626	 x22:0xfffffe7f x19=0xfffff825
       11145000	      1113	80001ad4	416582b3	sub	x5,x11,x22	 x11:0x00000000 x22:0xfffffe7f  x5=0x00000181
       11155000	      1114	80001ad8	2e72fe93	andi	x29,x5,743	  x5:0x00000181 x29=0x00000081
       11165000	      1115	80001adc	4e0bc213	xori	x4,x23,1248	 x23:0x000004e3  x4=0x00000003
       11175000	      1116	80001ae0	412301b3	sub	x3,x6,x18	  x6:0x80001972 x18:0x000006ff  x3=0x80001273
       11185000	      1117	80001ae4	4933b813	sltiu	x16,x7,1171	  x7:0x00000000 x16=0x00000001
       11195000	      1118	80001ae8	009bbc33	sltu	x24,x23,x9	 x23:0x000004e3  x9:0x00000001 x24=0x00000000
       11205000	      1119	80001aec	01185b93	srli	x23,x16,0x11	 x16:0x00000001 x23=0x00000000
       11215000	      1120	80001af0	605040ef	jal	x1,80001af0	  x1=0x80001af0
       11225000	      1121	00000000	00000013	addi	x0,x0,0	  x0:0x00000000
       11235000	      1122	800068f0	00000013	addi	x0,x0,0	  x0:0x00000000
       11245000	      1123	800068f4	400e86b3	sub	x13,x29,x0	 x29:0x00000081  x0:0x00000000 x13=0x00000081
       11255000	      1124	800068f8	fc478793	addi	x15,x15,-60	 x15:0x80009f3c x15=0x80009f00
       11265000	      1125	800068fc	525e4493	xori	x9,x28,1317	 x28:0x80001972  x9=0x80001c57
       11275000	      1126	80006900	bae24037	lui	x0,0xbae24	
       11285000	      1127	80006904	0017a223	sw	x1,4(x15)	 x15:0x80009f00  x1:0x80001af0 PA:0x80009f04
       11295000	      1128	80006908	007b1813	slli	x16,x22,0x7	 x22:0xfffffe7f x16=0xffff3f80
       11305000	      1129	8000690c	008cb933	sltu	x18,x25,x8	 x25:0x00000001  x8:0x00000000 x18=0x00000000
       11315000	      1130	80006910	010f91b3	sll	x3,x31,x16	 x31:0x00000000 x16:0xffff3f80  x3=0x00000000
       11325000	      1131	80006914	8eeab193	sltiu	x3,x21,-1810	 x21:0x80006571  x3=0x00000001
       11335000	      1132	80006918	ffffc297	auipc	x5,0xffffc	  x5=0x80002914
       11345000	      1133	8000691c	d4428293	addi	x5,x5,-700	  x5:0x80002914  x5=0x80002658
       11355000	      1134	80006920	ce228293	addi	x5,x5,-798	  x5:0x80002658  x5=0x8000233a
       11365000	      1135	80006924	00cc4833	xor	x16,x24,x12	 x24:0x00000000 x12:0x00000000 x16=0x00000000
       11375000	      1136	80006928	375d6f13	ori	x30,x26,885	 x26:0x80009fc4 x30=0x80009ff5
       11385000	      1137	8000692c	03e88893	addi	x17,x17,62	 x17:0x000fffff x17=0x0010003d
       11395000	      1138	80006930	3d854113	xori	x2,x10,984	 x10:0x00000000  x2=0x000003d8
       11405000	      1139	80006934	008133b3	sltu	x7,x2,x8	  x2:0x000003d8  x8:0x00000000  x7=0x00000000
       11415000	      1140	80006938	b0cac893	xori	x17,x21,-1268	 x21:0x80006571 x17=0x7fff9e7d
       11425000	      1141	8000693c	31f280e7	jalr	x1,x5,799	  x5:0x8000233a  x1=0x8000693c
       11435000	      1142	00000000	00000013	addi	x0,x0,0	  x0:0x00000000
       11445000	      1143	80002658	00000013	addi	x0,x0,0	  x0:0x00000000
       11455000	      1144	8000265c	fc878793	addi	x15,x15,-56	 x15:0x80009f00 x15=0x80009ec8
       11465000	      1145	80002660	41595f13	srai	x30,x18,0x15	 x18:0x00000000 x30=0x00000000
       11475000	      1146	80002664	01e42db3	slt	x27,x8,x30	  x8:0x00000000 x30:0x00000000 x27=0x00000000
       11485000	      1147	80002668	002e4fb3	xor	x31,x28,x2	 x28:0x80001972  x2:0x000003d8 x31=0x80001aaa
       11495000	      1148	8000266c	0017a223	sw	x1,4(x15)	 x15:0x80009ec8  x1:0x8000693c PA:0x80009ecc
       11505000	      1149	80002670	0f2a9197	auipc	x3,0xf2a9	  x3=0x8f2ab66c
       11515000	      1150	80002674	00e6c533	xor	x10,x13,x14	 x13:0x00000081 x14:0x000fffff x10=0x000fff7e
       11525000	      1151	80002678	015f79b3	and	x19,x30,x21	 x30:0x00000000 x21:0x80006571 x19=0x00000000
       11535000	      1152	8000267c	9ce0f113	andi	x2,x1,-1586	  x1:0x8000693c  x2=0x8000690c
       11545000	      1153	80002680	d6737413	andi	x8,x6,-665	  x6:0x80001972  x8=0x80001962
       11555000	      1154	80002684	01a48ab3	add	x21,x9,x26	  x9:0x80001c57 x26:0x80009fc4 x21=0x0000bc1b
       11565000	      1155	80002688	01385833	srl	x16,x16,x19	 x16:0x00000000 x19:0x00000000 x16=0x00000000
       11575000	      1156	8000268c	00002b97	auipc	x23,0x2	 x23=0x80004688
       11585000	      1157	80002690	dd0b8b93	addi	x23,x23,-560	 x23:0x80004688 x23=0x80004458
       11595000	      1158	80002694	0793a313	slti	x6,x7,121	  x7:0x00000000  x6=0x00000001
       11605000	      1159	80002698	d50b8b93	addi	x23,x23,-688	 x23:0x80004458 x23=0x800041a8
       11615000	      1160	8000269c	fc9ebc13	sltiu	x24,x29,-55	 x29:0x00000081 x24=0x00000001
       11625000	      1161	800026a0	0114e9b3	or	x19,x9,x17	  x9:0x80001c57 x17:0x7fff9e7d x19=0xffff9e7f
       11635000	      1162	800026a4	00c17a33	and	x20,x2,x12	  x2:0x8000690c x12:0x00000000 x20=0x00000000
       11645000	      1163	800026a8	2b0b80e7	jalr	x1,x23,688	 x23:0x800041a8  x1=0x800026a8
       11655000	      1164	00000000	00000013	addi	x0,x0,0	  x0:0x00000000
       11665000	      1165	80004458	00000013	addi	x0,x0,0	  x0:0x00000000
       11675000	      1166	8000445c	0031f263	bgeu	x3,x3,80004460	  x3:0x8f2ab66c  x3:0x8f2ab66c
       11685000	      1167	00000000	00000013	addi	x0,x0,0	  x0:0x00000000
       11695000	      1168	8000445c	00000013	addi	x0,x0,0	  x0:0x00000000
       11705000	      1169	80004460	fec78793	addi	x15,x15,-20	 x15:0x80009ec8 x15=0x80009eb4
       11715000	      1170	80004464	0017a223	sw	x1,4(x15)	 x15:0x80009eb4  x1:0x800026a8 PA:0x80009eb8
       11725000	      1171	80004468	40825eb3	sra	x29,x4,x8	  x4:0x00000003  x8:0x80001962 x29=0x00000000
       11735000	      1172	8000446c	014c8cb3	add	x25,x25,x20	 x25:0x00000001 x20:0x00000000 x25=0x00000001
       11745000	      1173	80004470	c9ca4593	xori	x11,x20,-868	 x20:0x00000000 x11=0xfffffc9c
       11755000	      1174	80004474	0053d913	srli	x18,x7,0x5	  x7:0x00000000 x18=0x00000000
       11765000	      1175	80004478	014d5b33	srl	x22,x26,x20	 x26:0x80009fc4 x20:0x00000000 x22=0x80009fc4
       11775000	      1176	8000447c	4178d333	sra	x6,x17,x23	 x17:0x7fff9e7d x23:0x800041a8  x6=0x007fff9e
       11785000	      1177	80004480	00005597	auipc	x11,0x5	 x11=0x8000947c
       11795000	      1178	80004484	95158593	addi	x11,x11,-1711	 x11:0x8000947c x11=0x80008dcd
       11805000	      1179	80004488	ff35d083	lhu	x1,-13(x11)	 x11:0x80008dcd  x1=0x00001c6a PA:0x80008dc0
       11815000	      1180	8000448c	0175a5a3	sw	x23,11(x11)	 x11:0x80008dcd x23:0x800041a8 PA:0x80008dd8
       11825000	      1181	80004490	c292cf13	xori	x30,x5,-983	  x5:0x8000233a x30=0x7fffdf13
       11835000	      1182	80004494	50a16913	ori	x18,x2,1290	  x2:0x8000690c x18=0x80006d0e
       11845000	      1183	80004498	ff858283	lb	x5,-8(x11)	 x11:0x80008dcd  x5=0x00000004 PA:0x80008dc5
       11855000	      1184	8000449c	019e39b3	sltu	x19,x28,x25	 x28:0x80001972 x25:0x00000001 x19=0x00000000
       11865000	      1185	800044a0	00258d83	lb	x27,2(x11)	 x11:0x80008dcd x27=0xfffffffb PA:0x80008dcf
       11875000	      1186	800044a4	ff15d803	lhu	x16,-15(x11)	 x11:0x80008dcd x16=0x0000fdc6 PA:0x80008dbe
       11885000	      1187	800044a8	926e0113	addi	x2,x28,-1754	 x28:0x80001972  x2=0x80001298
       11895000	      1188	800044ac	97f62f97	auipc	x31,0x97f62	 x31=0x17f664a8
       11905000	      1189	800044b0	00381c93	slli	x25,x16,0x3	 x16:0x0000fdc6 x25=0x0007ee30
       11915000	      1190	800044b4	005d56b3	srl	x13,x26,x5	 x26:0x80009fc4  x5:0x00000004 x13=0x080009fc
       11925000	      1191	800044b8	00428933	add	x18,x5,x4	  x5:0x00000004  x4:0x00000003 x18=0x00000007
       11935000	      1192	800044bc	00d59f83	lh	x31,13(x11)	 x11:0x80008dcd x31=0xffff8000 PA:0x80008dda
       11945000	      1193	800044c0	00f58223	sb	x15,4(x11)	 x11:0x80008dcd x15:0x80009eb4 PA:0x80008dd1
       11955000	      1194	800044c4	00000013	addi	x0,x0,0	  x0:0x00000000
       11965000	      1195	800044c8	0085c503	lbu	x10,8(x11)	 x11:0x80008dcd x10=0x000000c5 PA:0x80008dd5
       11975000	      1196	800044cc	41a9d6b3	sra	x13,x19,x26	 x19:0x00000000 x26:0x80009fc4 x13=0x00000000
       11985000	      1197	800044d0	ff358f23	sb	x19,-2(x11)	 x11:0x80008dcd x19:0x00000000 PA:0x80008dcb
       11995000	      1198	800044d4	000bcfb3	xor	x31,x23,x0	 x23:0x800041a8  x0:0x00000000 x31=0x800041a8
       12005000	      1199	800044d8	0105c703	lbu	x14,16(x11)	 x11:0x80008dcd x14=0x00000074 PA:0x80008ddd
       12015000	      1200	800044dc	00d46533	or	x10,x8,x13	  x8:0x80001962 x13:0x00000000 x10=0x80001962
       12025000	      1201	800044e0	1623b713	sltiu	x14,x7,354	  x7:0x00000000 x14=0x00000001
       12035000	      1202	800044e4	0020c933	xor	x18,x1,x2	  x1:0x00001c6a  x2:0x80001298 x18=0x80000ef2
       12045000	      1203	800044e8	787a0497	auipc	x9,0x787a0	  x9=0xf87a44e4
       12055000	      1204	800044ec	41675c93	srai	x25,x14,0x16	 x14:0x00000001 x25=0x00000000
       12065000	      1205	800044f0	ffc58403	lb	x8,-4(x11)	 x11:0x80008dcd  x8=0xffffff81 PA:0x80008dc9
       12075000	      1206	800044f4	00558683	lb	x13,5(x11)	 x11:0x80008dcd x13=0x00000001 PA:0x80008dd2
       12085000	      1207	800044f8	409c4e13	xori	x28,x24,1033	 x24:0x00000001 x28=0x00000408
       12095000	      1208	800044fc	00000013	addi	x0,x0,0	  x0:0x00000000
       12105000	      1209	80004500	40825293	srai	x5,x4,0x8	  x4:0x00000003  x5=0x00000000
       12115000	      1210	80004504	ffb5ce03	lbu	x28,-5(x11)	 x11:0x80008dcd x28=0x00000034 PA:0x80008dc8
       12125000	      1211	80004508	00b5de83	lhu	x29,11(x11)	 x11:0x80008dcd x29=0x000041a8 PA:0x80008dd8
       12135000	      1212	8000450c	01449233	sll	x4,x9,x20	  x9:0xf87a44e4 x20:0x00000000  x4=0xf87a44e4
       12145000	      1213	80004510	00b5d003	lhu	x0,11(x11)	 x11:0x80008dcd PA:0x80008dd8
       12155000	      1214	80004514	ff958c83	lb	x25,-7(x11)	 x11:0x80008dcd x25=0xfffffffe PA:0x80008dc6
       12165000	      1215	80004518	38b28513	addi	x10,x5,907	  x5:0x00000000 x10=0x0000038b
       12175000	      1216	8000451c	00c5c683	lbu	x13,12(x11)	 x11:0x80008dcd x13=0x00000041 PA:0x80008dd9
       12185000	      1217	80004520	92742d93	slti	x27,x8,-1753	  x8:0xffffff81 x27=0x00000000
       12195000	      1218	80004524	40545a13	srai	x20,x8,0x5	  x8:0xffffff81 x20=0xfffffffc
       12205000	      1219	80004528	11a36e93	ori	x29,x6,282	  x6:0x007fff9e x29=0x007fff9e
       12215000	      1220	8000452c	fe258a23	sb	x2,-12(x11)	 x11:0x80008dcd  x2:0x80001298 PA:0x80008dc1
       12225000	      1221	80004530	019586a3	sb	x25,13(x11)	 x11:0x80008dcd x25:0xfffffffe PA:0x80008dda
       12235000	      1222	80004534	0073f0b3	and	x1,x7,x7	  x7:0x00000000  x7:0x00000000  x1=0x00000000
       12245000	      1223	80004538	76808c13	addi	x24,x1,1896	  x1:0x00000000 x24=0x00000768
       12255000	      1224	8000453c	01429513	slli	x10,x5,0x14	  x5:0x00000000 x10=0x00000000
       12265000	      1225	80004540	a2150193	addi	x3,x10,-1503	 x10:0x00000000  x3=0xfffffa21
       12275000	      1226	80004544	ff95d903	lhu	x18,-7(x11)	 x11:0x80008dcd x18=0x00003dfe PA:0x80008dc6
       12285000	      1227	80004548	b6cfe237	lui	x4,0xb6cfe	  x4=0xb6cfe000
       12295000	      1228	8000454c	415a0cb3	sub	x25,x20,x21	 x20:0xfffffffc x21:0x0000bc1b x25=0xffff43e1
       12305000	      1229	80004550	ff15d883	lhu	x17,-15(x11)	 x11:0x80008dcd x17=0x0000fdc6 PA:0x80008dbe
       12315000	      1230	80004554	00004117	auipc	x2,0x4	  x2=0x80008550
       12325000	      1231	80004558	3b410113	addi	x2,x2,948	  x2:0x80008550  x2=0x80008904
       12335000	      1232	8000455c	012e5e93	srli	x29,x28,0x12	 x28:0x00000034 x29=0x00000000
       12345000	      1233	80004560	01a06e33	or	x28,x0,x26	  x0:0x00000000 x26:0x80009fc4 x28=0x80009fc4
       12355000	      1234	80004564	d1196193	ori	x3,x18,-751	 x18:0x00003dfe  x3=0xfffffdff
       12365000	      1235	80004568	00aab9b3	sltu	x19,x21,x10	 x21:0x0000bc1b x10:0x00000000 x19=0x00000000
       12375000	      1236	8000456c	fdb14283	lbu	x5,-37(x2)	  x2:0x80008904  x5=0x000000ad PA:0x800088df
       12385000	      1237	80004570	01015483	lhu	x9,16(x2)	  x2:0x80008904  x9=0x00004c00 PA:0x80008914
       12395000	      1238	80004574	005271b3	and	x3,x4,x5	  x4:0xb6cfe000  x5:0x000000ad  x3=0x00000000
       12405000	      1239	80004578	01010423	sb	x16,8(x2)	  x2:0x80008904 x16:0x0000fdc6 PA:0x8000890c
       12415000	      1240	8000457c	01211003	lh	x0,18(x2)	  x2:0x80008904 PA:0x80008916
       12425000	      1241	80004580	19d36337	lui	x6,0x19d36	  x6=0x19d36000
       12435000	      1242	80004584	2f656713	ori	x14,x10,758	 x10:0x00000000 x14=0x000002f6
       12445000	      1243	80004588	0147dd93	srli	x27,x15,0x14	 x15:0x80009eb4 x27=0x00000800
       12455000	      1244	8000458c	ff310aa3	sb	x19,-11(x2)	  x2:0x80008904 x19:0x00000000 PA:0x800088f9
       12465000	      1245	80004590	01a66333	or	x6,x12,x26	 x12:0x00000000 x26:0x80009fc4  x6=0x80009fc4
       12475000	      1246	80004594	fb0ce197	auipc	x3,0xfb0ce	  x3=0x7b0d2590
       12485000	      1247	80004598	6dd18c13	addi	x24,x3,1757	  x3:0x7b0d2590 x24=0x7b0d2c6d
       12495000	      1248	8000459c	ff211523	sh	x18,-22(x2)	  x2:0x80008904 x18:0x00003dfe PA:0x800088ee
       12505000	      1249	800045a0	01f2d233	srl	x4,x5,x31	  x5:0x000000ad x31:0x800041a8  x4=0x00000000
       12515000	      1250	800045a4	12333197	auipc	x3,0x12333	  x3=0x923375a0
       12525000	      1251	800045a8	01e41733	sll	x14,x8,x30	  x8:0xffffff81 x30:0x7fffdf13 x14=0xfc080000
       12535000	      1252	800045ac	010929b3	slt	x19,x18,x16	 x18:0x00003dfe x16:0x0000fdc6 x19=0x00000001
       12545000	      1253	800045b0	fd310983	lb	x19,-45(x2)	  x2:0x80008904 x19=0x0000005c PA:0x800088d7
       12555000	      1254	800045b4	41f7dcb3	sra	x25,x15,x31	 x15:0x80009eb4 x31:0x800041a8 x25=0xff80009e
       12565000	      1255	800045b8	00d14983	lbu	x19,13(x2)	  x2:0x80008904 x19=0x00000002 PA:0x80008911
       12575000	      1256	800045bc	ec74f413	andi	x8,x9,-313	  x9:0x00004c00  x8=0x00004c00
       12585000	      1257	800045c0	32b9ec37	lui	x24,0x32b9e	 x24=0x32b9e000
       12595000	      1258	800045c4	01eb8233	add	x4,x23,x30	 x23:0x800041a8 x30:0x7fffdf13  x4=0x000020bb
       12605000	      1259	800045c8	1a639497	auipc	x9,0x1a639	  x9=0x9a63d5c4
       12615000	      1260	800045cc	01702833	slt	x16,x0,x23	  x0:0x00000000 x23:0x800041a8 x16=0x00000000
       12625000	      1261	800045d0	01371f33	sll	x30,x14,x19	 x14:0xfc080000 x19:0x00000002 x30=0xf0200000
       12635000	      1262	800045d4	0067feb3	and	x29,x15,x6	 x15:0x80009eb4  x6:0x80009fc4 x29=0x80009e84
       12645000	      1263	800045d8	01bbad93	slti	x27,x23,27	 x23:0x800041a8 x27=0x00000001
       12655000	      1264	800045dc	039101a3	sb	x25,35(x2)	  x2:0x80008904 x25:0xff80009e PA:0x80008927
       12665000	      1265	800045e0	fee11303	lh	x6,-18(x2)	  x2:0x80008904  x6=0xffffa3c2 PA:0x800088f2
       12675000	      1266	800045e4	fd514d83	lbu	x27,-43(x2)	  x2:0x80008904 x27=0x000000d6 PA:0x800088d9
       12685000	      1267	800045e8	b76c6c93	ori	x25,x24,-1162	 x24:0x32b9e000 x25=0xfffffb76
       12695000	      1268	800045ec	141922b7	lui	x5,0x14192	  x5=0x14192000
       12705000	      1269	800045f0	e102a713	slti	x14,x5,-496	  x5:0x14192000 x14=0x00000000
       12715000	      1270	800045f4	01610ca3	sb	x22,25(x2)	  x2:0x80008904 x22:0x80009fc4 PA:0x8000891d
       12725000	      1271	800045f8	00443fb3	sltu	x31,x8,x4	  x8:0x00004c00  x4:0x000020bb x31=0x00000000
       12735000	      1272	800045fc	ff210d83	lb	x27,-14(x2)	  x2:0x80008904 x27=0xffffffa3 PA:0x800088f6
       12745000	      1273	80004600	00004117	auipc	x2,0x4	  x2=0x800085fc
       12755000	      1274	80004604	34610113	addi	x2,x2,838	  x2:0x800085fc  x2=0x80008942
       12765000	      1275	80004608	01310e83	lb	x29,19(x2)	  x2:0x80008942 x29=0xffffffd6 PA:0x80008955
       12775000	      1276	8000460c	79c98193	addi	x3,x19,1948	 x19:0x00000002  x3=0x0000079e
       12785000	      1277	80004610	02611d23	sh	x6,58(x2)	  x2:0x80008942  x6:0xffffa3c2 PA:0x8000897c
       12795000	      1278	80004614	017102a3	sb	x23,5(x2)	  x2:0x80008942 x23:0x800041a8 PA:0x80008947
       12805000	      1279	80004618	01d12523	sw	x29,10(x2)	  x2:0x80008942 x29:0xffffffd6 PA:0x8000894c
       12815000	      1280	8000461c	fef11723	sh	x15,-18(x2)	  x2:0x80008942 x15:0x80009eb4 PA:0x80008930
       12825000	      1281	80004620	02010b83	lb	x23,32(x2)	  x2:0x80008942 x23=0x0000000e PA:0x80008962
       12835000	      1282	80004624	fc7103a3	sb	x7,-57(x2)	  x2:0x80008942  x7:0x00000000 PA:0x80008909
       12845000	      1283	80004628	02411003	lh	x0,36(x2)	  x2:0x80008942 PA:0x80008966
       12855000	      1284	8000462c	01a59f33	sll	x30,x11,x26	 x11:0x80008dcd x26:0x80009fc4 x30=0x0008dcd0
       12865000	      1285	80004630	bbaefc13	andi	x24,x29,-1094	 x29:0xffffffd6 x24=0xfffffb92
       12875000	      1286	80004634	fee14683	lbu	x13,-18(x2)	  x2:0x80008942 x13=0x000000b4 PA:0x80008930
       12885000	      1287	80004638	03710d23	sb	x23,58(x2)	  x2:0x80008942 x23:0x0000000e PA:0x8000897c
       12895000	      1288	8000463c	ff811823	sh	x24,-16(x2)	  x2:0x80008942 x24:0xfffffb92 PA:0x80008932
       12905000	      1289	80004640	05067f13	andi	x30,x12,80	 x12:0x00000000 x30=0x00000000
       12915000	      1290	80004644	006c1b93	slli	x23,x24,0x6	 x24:0xfffffb92 x23=0xfffee480
       12925000	      1291	80004648	41ad08b3	sub	x17,x26,x26	 x26:0x80009fc4 x26:0x80009fc4 x17=0x00000000
       12935000	      1292	8000464c	01ef80b3	add	x1,x31,x30	 x31:0x00000000 x30:0x00000000  x1=0x00000000
       12945000	      1293	80004650	00401493	slli	x9,x0,0x4	  x0:0x00000000  x9=0x00000000
       12955000	      1294	80004654	01c15183	lhu	x3,28(x2)	  x2:0x80008942  x3=0x000030eb PA:0x8000895e
       12965000	      1295	80004658	fc514b83	lbu	x23,-59(x2)	  x2:0x80008942 x23=0x0000007a PA:0x80008907
       12975000	      1296	8000465c	685a7993	andi	x19,x20,1669	 x20:0xfffffffc x19=0x00000684
       12985000	      1297	80004660	4184d3b3	sra	x7,x9,x24	  x9:0x00000000 x24:0xfffffb92  x7=0x00000000
       12995000	      1298	80004664	019035b3	sltu	x11,x0,x25	  x0:0x00000000 x25:0xfffffb76 x11=0x00000001
       13005000	      1299	80004668	004c9e33	sll	x28,x25,x4	 x25:0xfffffb76  x4:0x000020bb x28=0xb0000000
       13015000	      1300	8000466c	01b10f83	lb	x31,27(x2)	  x2:0x80008942 x31=0xffffff8e PA:0x8000895d
       13025000	      1301	80004670	00593c33	sltu	x24,x18,x5	 x18:0x00003dfe  x5:0x14192000 x24=0x00000001
       13035000	      1302	80004674	019646b3	xor	x13,x12,x25	 x12:0x00000000 x25:0xfffffb76 x13=0xfffffb76
       13045000	      1303	80004678	fdc11503	lh	x10,-36(x2)	  x2:0x80008942 x10=0xffffb6af PA:0x8000891e
       13055000	      1304	8000467c	03610583	lb	x11,54(x2)	  x2:0x80008942 x11=0xffffffe0 PA:0x80008978
       13065000	      1305	00000000	00000013	addi	x0,x0,0	  x0:0x00000000
       13075000	      1306	80004680	00b5b6b3	sltu	x13,x11,x11	 x11:0xffffffe0 x11:0xffffffe0 x13=0x00000000
       13085000	      1307	80004684	fc012123	sw	x0,-62(x2)	  x2:0x80008942  x0:0x00000000 PA:0x80008904
       13095000	      1308	80004688	01b03833	sltu	x16,x0,x27	  x0:0x00000000 x27:0xffffffa3 x16=0x00000001
       13105000	      1309	8000468c	00b10a03	lb	x20,11(x2)	  x2:0x80008942 x20=0xffffffff PA:0x8000894d
       13115000	      1310	80004690	fc710b03	lb	x22,-57(x2)	  x2:0x80008942 x22=0x00000000 PA:0x80008909
       13125000	      1311	80004694	a39f2993	slti	x19,x30,-1479	 x30:0x00000000 x19=0x00000000
       13135000	      1312	80004698	b064a717	auipc	x14,0xb064a	 x14=0x3064e694
       13145000	      1313	8000469c	003103a3	sb	x3,7(x2)	  x2:0x80008942  x3:0x000030eb PA:0x80008949
       13155000	      1314	800046a0	fe714a03	lbu	x20,-25(x2)	  x2:0x80008942 x20=0x000000b5 PA:0x80008929
       13165000	      1315	00000000	00000013	addi	x0,x0,0	  x0:0x00000000
       13175000	      1316	800046a4	cb4b0813	addi	x16,x22,-844	 x22:0x00000000 x16=0xfffffcb4
       13185000	      1317	800046a8	fd310203	lb	x4,-45(x2)	  x2:0x80008942  x4=0x0000004c PA:0x80008915
       13195000	      1318	800046ac	03214083	lbu	x1,50(x2)	  x2:0x80008942  x1=0x00000081 PA:0x80008974
       13205000	      1319	800046b0	fc314303	lbu	x6,-61(x2)	  x2:0x80008942  x6=0x00000000 PA:0x80008905
       13215000	      1320	800046b4	41d20733	sub	x14,x4,x29	  x4:0x0000004c x29:0xffffffd6 x14=0x00000076
       13225000	      1321	800046b8	02214883	lbu	x17,34(x2)	  x2:0x80008942 x17=0x000000a5 PA:0x80008964
       13235000	      1322	800046bc	00004497	auipc	x9,0x4	  x9=0x800086b8
       13245000	      1323	800046c0	be748493	addi	x9,x9,-1049	  x9:0x800086b8  x9=0x8000829f
       13255000	      1324	800046c4	28c4cb83	lbu	x23,652(x9)	  x9:0x8000829f x23=0x00000038 PA:0x8000852b
       13265000	      1325	800046c8	ea74aea3	sw	x7,-323(x9)	  x9:0x8000829f  x7:0x00000000 PA:0x8000815c
       13275000	      1326	800046cc	57e4a2a3	sw	x30,1381(x9)	  x9:0x8000829f x30:0x00000000 PA:0x80008804
       13285000	      1327	800046d0	54749303	lh	x6,1351(x9)	  x9:0x8000829f  x6=0x00003792 PA:0x800087e6
       13295000	      1328	800046d4	00000013	addi	x0,x0,0	  x0:0x00000000
       13305000	      1329	800046d8	4384c103	lbu	x2,1080(x9)	  x9:0x8000829f  x2=0x00000063 PA:0x800086d7
       13315000	      1330	800046dc	0049f433	and	x8,x19,x4	 x19:0x00000000  x4:0x0000004c  x8=0x00000000
       13325000	      1331	800046e0	40cddb33	sra	x22,x27,x12	 x27:0xffffffa3 x12:0x00000000 x22=0xffffffa3
       13335000	      1332	800046e4	5155f993	andi	x19,x11,1301	 x11:0xffffffe0 x19=0x00000500
       13345000	      1333	800046e8	1939c593	xori	x11,x19,403	 x19:0x00000500 x11=0x00000493
       13355000	      1334	800046ec	cba28297	auipc	x5,0xcba28	  x5=0x4ba2c6e8
       13365000	      1335	800046f0	32549da3	sh	x5,827(x9)	  x9:0x8000829f  x5:0x4ba2c6e8 PA:0x800085da
       13375000	      1336	800046f4	41f65e33	sra	x28,x12,x31	 x12:0x00000000 x31:0xffffff8e x28=0x00000000
       13385000	      1337	800046f8	8bcf2413	slti	x8,x30,-1860	 x30:0x00000000  x8=0x00000000
       13395000	      1338	800046fc	e3648803	lb	x16,-458(x9)	  x9:0x8000829f x16=0xffffffdc PA:0x800080d5
       13405000	      1339	00000000	00000013	addi	x0,x0,0	  x0:0x00000000
       13415000	      1340	80004700	1f04c303	lbu	x6,496(x9)	  x9:0x8000829f  x6=0x000000a5 PA:0x8000848f
       13425000	      1341	80004704	40c756b3	sra	x13,x14,x12	 x14:0x00000076 x12:0x00000000 x13=0x00000076
       13435000	      1342	80004708	11148723	sb	x17,270(x9)	  x9:0x8000829f x17:0x000000a5 PA:0x800083ad
       13445000	      1343	8000470c	403206b3	sub	x13,x4,x3	  x4:0x0000004c  x3:0x000030eb x13=0xffffcf61
       13455000	      1344	80004710	32e486a3	sb	x14,813(x9)	  x9:0x8000829f x14:0x00000076 PA:0x800085cc
       13465000	      1345	80004714	13e48103	lb	x2,318(x9)	  x9:0x8000829f  x2=0xffffff97 PA:0x800083dd
       13475000	      1346	80004718	54c499a3	sh	x12,1363(x9)	  x9:0x8000829f x12:0x00000000 PA:0x800087f2
       13485000	      1347	8000471c	012ab833	sltu	x16,x21,x18	 x21:0x0000bc1b x18:0x00003dfe x16=0x00000000
       13495000	      1348	80004720	415edeb3	sra	x29,x29,x21	 x29:0xffffffd6 x21:0x0000bc1b x29=0xffffffff
       13505000	      1349	80004724	95e84b13	xori	x22,x16,-1698	 x16:0x00000000 x22=0xfffff95e
       13515000	      1350	80004728	53f49183	lh	x3,1343(x9)	  x9:0x8000829f  x3=0x0000361c PA:0x800087de
       13525000	      1351	8000472c	008ac6b3	xor	x13,x21,x8	 x21:0x0000bc1b  x8:0x00000000 x13=0x0000bc1b
       13535000	      1352	80004730	0824c983	lbu	x19,130(x9)	  x9:0x8000829f x19=0x000000e8 PA:0x80008321
       13545000	      1353	80004734	00c17a33	and	x20,x2,x12	  x2:0xffffff97 x12:0x00000000 x20=0x00000000
       13555000	      1354	80004738	1044ca03	lbu	x20,260(x9)	  x9:0x8000829f x20=0x00000045 PA:0x800083a3
       13565000	      1355	8000473c	4ac4c503	lbu	x10,1196(x9)	  x9:0x8000829f x10=0x000000b4 PA:0x8000874b
       13575000	      1356	80004740	3eb49ea3	sh	x11,1021(x9)	  x9:0x8000829f x11:0x00000493 PA:0x8000869c
       13585000	      1357	80004744	00004597	auipc	x11,0x4	 x11=0x80008740
       13595000	      1358	80004748	97e58593	addi	x11,x11,-1666	 x11:0x80008740 x11=0x800080be
       13605000	      1359	8000474c	0905cc03	lbu	x24,144(x11)	 x11:0x800080be x24=0x000000a7 PA:0x8000814e
       13615000	      1360	80004750	00bdbbb3	sltu	x23,x27,x11	 x27:0xffffffa3 x11:0x800080be x23=0x00000000
       13625000	      1361	80004754	04e59703	lh	x14,78(x11)	 x11:0x800080be x14=0xffffad5f PA:0x8000810c
       13635000	      1362	80004758	01a31db3	sll	x27,x6,x26	  x6:0x000000a5 x26:0x80009fc4 x27=0x00000a50
       13645000	      1363	8000475c	66422513	slti	x10,x4,1636	  x4:0x0000004c x10=0x00000001
       13655000	      1364	80004760	7b80c913	xori	x18,x1,1976	  x1:0x00000081 x18=0x00000739
       13665000	      1365	80004764	013b94b3	sll	x9,x23,x19	 x23:0x00000000 x19:0x000000e8  x9=0x00000000
       13675000	      1366	80004768	00d7ceb3	xor	x29,x15,x13	 x15:0x80009eb4 x13:0x0000bc1b x29=0x800022af
       13685000	      1367	8000476c	0e058ca3	sb	x0,249(x11)	 x11:0x800080be  x0:0x00000000 PA:0x800081b7
       13695000	      1368	80004770	fa55cf03	lbu	x30,-91(x11)	 x11:0x800080be x30=0x000000b9 PA:0x80008063
       13705000	      1369	80004774	06458203	lb	x4,100(x11)	 x11:0x800080be  x4=0xffffffdf PA:0x80008122
       13715000	      1370	80004778	07b5c503	lbu	x10,123(x11)	 x11:0x800080be x10=0x00000024 PA:0x80008139
       13725000	      1371	8000477c	40edda13	srai	x20,x27,0xe	 x27:0x00000a50 x20=0x00000000
       13735000	      1372	80004780	00a6f0b3	and	x1,x13,x10	 x13:0x0000bc1b x10:0x00000024  x1=0x00000000
       13745000	      1373	80004784	0e65a703	lw	x14,230(x11)	 x11:0x800080be x14=0xa4ca8822 PA:0x800081a4
       13755000	      1374	80004788	00195893	srli	x17,x18,0x1	 x18:0x00000739 x17=0x0000039c
       13765000	      1375	8000478c	01e5c483	lbu	x9,30(x11)	 x11:0x800080be  x9=0x00000068 PA:0x800080dc
       13775000	      1376	80004790	0a212393	slti	x7,x2,162	  x2:0xffffff97  x7=0x00000001
       13785000	      1377	80004794	fd0589a3	sb	x16,-45(x11)	 x11:0x800080be x16:0x00000000 PA:0x80008091
       13795000	      1378	80004798	0121c1b3	xor	x3,x3,x18	  x3:0x0000361c x18:0x00000739  x3=0x00003125
       13805000	      1379	8000479c	0100ec33	or	x24,x1,x16	  x1:0x00000000 x16:0x00000000 x24=0x00000000
       13815000	      1380	800047a0	0128c6b3	xor	x13,x17,x18	 x17:0x0000039c x18:0x00000739 x13=0x000004a5
       13825000	      1381	800047a4	02f58b83	lb	x23,47(x11)	 x11:0x800080be x23=0xffffff81 PA:0x800080ed
       13835000	      1382	800047a8	01138db3	add	x27,x7,x17	  x7:0x00000001 x17:0x0000039c x27=0x0000039d
       13845000	      1383	800047ac	01b8ceb3	xor	x29,x17,x27	 x17:0x0000039c x27:0x0000039d x29=0x00000001
       13855000	      1384	800047b0	6dcdfa13	andi	x20,x27,1756	 x27:0x0000039d x20=0x0000029c
       13865000	      1385	800047b4	00499493	slli	x9,x19,0x4	 x19:0x000000e8  x9=0x00000e80
       13875000	      1386	800047b8	ce398a13	addi	x20,x19,-797	 x19:0x000000e8 x20=0xfffffdcb
       13885000	      1387	800047bc	004ba133	slt	x2,x23,x4	 x23:0xffffff81  x4:0xffffffdf  x2=0x00000001
       13895000	      1388	800047c0	61adef17	auipc	x30,0x61ade	 x30=0xe1ae27bc
       13905000	      1389	800047c4	0fc5ca83	lbu	x21,252(x11)	 x11:0x800080be x21=0x00000066 PA:0x800081ba
       13915000	      1390	800047c8	caa22f13	slti	x30,x4,-854	  x4:0xffffffdf x30=0x00000000
       13925000	      1391	800047cc	02c59a83	lh	x21,44(x11)	 x11:0x800080be x21=0xffffd640 PA:0x800080ea
       13935000	      1392	800047d0	01f6e1b3	or	x3,x13,x31	 x13:0x000004a5 x31:0xffffff8e  x3=0xffffffaf
       13945000	      1393	800047d4	4b324e93	xori	x29,x4,1203	  x4:0xffffffdf x29=0xfffffb6c
       13955000	      1394	800047d8	0c95c083	lbu	x1,201(x11)	 x11:0x800080be  x1=0x000000c2 PA:0x80008187
       13965000	      1395	800047dc	412583b3	sub	x7,x11,x18	 x11:0x800080be x18:0x00000739  x7=0x80007985
       13975000	      1396	800047e0	0315cf83	lbu	x31,49(x11)	 x11:0x800080be x31=0x000000c3 PA:0x800080ef
       13985000	      1397	00000000	00000013	addi	x0,x0,0	  x0:0x00000000
       13995000	      1398	800047e4	41f7dd93	srai	x27,x15,0x1f	 x15:0x80009eb4 x27=0xffffffff
       14005000	      1399	800047e8	0ce58da3	sb	x14,219(x11)	 x11:0x800080be x14:0xa4ca8822 PA:0x80008199
       14015000	      1400	800047ec	1cc07513	andi	x10,x0,460	  x0:0x00000000 x10=0x00000000
       14025000	      1401	800047f0	31da7893	andi	x17,x20,797	 x20:0xfffffdcb x17=0x00000109
       14035000	      1402	800047f4	902ea513	slti	x10,x29,-1790	 x29:0xfffffb6c x10=0x00000000
       14045000	      1403	800047f8	0b858d83	lb	x27,184(x11)	 x11:0x800080be x27=0xfffffffd PA:0x80008176
       14055000	      1404	800047fc	0995ad23	sw	x25,154(x11)	 x11:0x800080be x25:0xfffffb76 PA:0x80008158
       14065000	      1405	80004800	00004697	auipc	x13,0x4	 x13=0x800087fc
       14075000	      1406	80004804	06668693	addi	x13,x13,102	 x13:0x800087fc x13=0x80008862
       14085000	      1407	80004808	0106da83	lhu	x21,16(x13)	 x13:0x80008862 x21=0x0000b104 PA:0x80008872
       14095000	      1408	00000000	00000013	addi	x0,x0,0	  x0:0x00000000
       14105000	      1409	8000480c	405ad133	sra	x2,x21,x5	 x21:0x0000b104  x5:0x4ba2c6e8  x2=0x000000b1
       14115000	      1410	80004810	00711533	sll	x10,x2,x7	  x2:0x000000b1  x7:0x80007985 x10=0x00001620
       14125000	      1411	80004814	01916433	or	x8,x2,x25	  x2:0x000000b1 x25:0xfffffb76  x8=0xfffffbf7
       14135000	      1412	80004818	ff268b23	sb	x18,-10(x13)	 x13:0x80008862 x18:0x00000739 PA:0x80008858
       14145000	      1413	8000481c	3c5d01b7	lui	x3,0x3c5d0	  x3=0x3c5d0000
       14155000	      1414	80004820	41f185b3	sub	x11,x3,x31	  x3:0x3c5d0000 x31:0x000000c3 x11=0x3c5cff3d
       14165000	      1415	80004824	01a3a233	slt	x4,x7,x26	  x7:0x80007985 x26:0x80009fc4  x4=0x00000001
       14175000	      1416	80004828	fe8689a3	sb	x8,-13(x13)	 x13:0x80008862  x8:0xfffffbf7 PA:0x80008855
       14185000	      1417	8000482c	ff968ea3	sb	x25,-3(x13)	 x13:0x80008862 x25:0xfffffb76 PA:0x8000885f
       14195000	      1418	80004830	08a14313	xori	x6,x2,138	  x2:0x000000b1  x6=0x0000003b
       14205000	      1419	80004834	00a510b3	sll	x1,x10,x10	 x10:0x00001620 x10:0x00001620  x1=0x00001620
       14215000	      1420	80004838	4112d213	srai	x4,x5,0x11	  x5:0x4ba2c6e8  x4=0x000025d1
       14225000	      1421	8000483c	00768983	lb	x19,7(x13)	 x13:0x80008862 x19=0x00000036 PA:0x80008869
       14235000	      1422	80004840	00b68123	sb	x11,2(x13)	 x13:0x80008862 x11:0x3c5cff3d PA:0x80008864
       14245000	      1423	80004844	bf413e93	sltiu	x29,x2,-1036	  x2:0x000000b1 x29=0x00000001
       14255000	      1424	80004848	416a5db3	sra	x27,x20,x22	 x20:0xfffffdcb x22:0xfffff95e x27=0xffffffff
       14265000	      1425	8000484c	00e6c283	lbu	x5,14(x13)	 x13:0x80008862  x5=0x00000089 PA:0x80008870
       14275000	      1426	80004850	0076cd83	lbu	x27,7(x13)	 x13:0x80008862 x27=0x00000036 PA:0x80008869
       14285000	      1427	80004854	1b182893	slti	x17,x16,433	 x16:0x00000000 x17=0x00000001
       14295000	      1428	80004858	7593b917	auipc	x18,0x7593b	 x18=0xf593f854
       14305000	      1429	8000485c	ffd6cc83	lbu	x25,-3(x13)	 x13:0x80008862 x25=0x00000076 PA:0x8000885f
       14315000	      1430	80004860	9c69a413	slti	x8,x19,-1594	 x19:0x00000036  x8=0x00000000
       14325000	      1431	80004864	20106337	lui	x6,0x20106	  x6=0x20106000
       14335000	      1432	80004868	ff86c183	lbu	x3,-8(x13)	 x13:0x80008862  x3=0x00000003 PA:0x8000885a
       14345000	      1433	8000486c	000f7f33	and	x30,x30,x0	 x30:0x00000000  x0:0x00000000 x30=0x00000000
       14355000	      1434	80004870	0086d283	lhu	x5,8(x13)	 x13:0x80008862  x5=0x0000f061 PA:0x8000886a
       14365000	      1435	80004874	00004117	auipc	x2,0x4	  x2=0x80008870
       14375000	      1436	80004878	31110113	addi	x2,x2,785	  x2:0x80008870  x2=0x80008b81
       14385000	      1437	8000487c	0bb10ba3	sb	x27,183(x2)	  x2:0x80008b81 x27:0x00000036 PA:0x80008c38
       14395000	      1438	80004880	dd0125a3	sw	x16,-565(x2)	  x2:0x80008b81 x16:0x00000000 PA:0x8000894c
       14405000	      1439	80004884	e7d2a417	auipc	x8,0xe7d2a	  x8=0x67d2e880
       14415000	      1440	80004888	000ee0b3	or	x1,x29,x0	 x29:0x00000001  x0:0x00000000  x1=0x00000001
       14425000	      1441	8000488c	fbb12e83	lw	x29,-69(x2)	  x2:0x80008b81 x29=0x42d973d1 PA:0x80008b3c
       14435000	      1442	80004890	0025f9b3	and	x19,x11,x2	 x11:0x3c5cff3d  x2:0x80008b81 x19=0x00008b01
       14445000	      1443	80004894	01589733	sll	x14,x17,x21	 x17:0x00000001 x21:0x0000b104 x14=0x00000010
       14455000	      1444	80004898	4007dd93	srai	x27,x15,0x0	 x15:0x80009eb4 x27=0x80009eb4
       14465000	      1445	8000489c	06f11083	lh	x1,111(x2)	  x2:0x80008b81  x1=0xffff8b03 PA:0x80008bf0
       14475000	      1446	800048a0	13c10c83	lb	x25,316(x2)	  x2:0x80008b81 x25=0x0000007d PA:0x80008cbd
       14485000	      1447	800048a4	836b3493	sltiu	x9,x22,-1994	 x22:0xfffff95e  x9=0x00000000
       14495000	      1448	800048a8	2a7b6993	ori	x19,x22,679	 x22:0xfffff95e x19=0xfffffbff
       14505000	      1449	800048ac	410a5913	srai	x18,x20,0x10	 x20:0xfffffdcb x18=0xffffffff
       14515000	      1450	800048b0	2d514e03	lbu	x28,725(x2)	  x2:0x80008b81 x28=0x00000005 PA:0x80008e56
       14525000	      1451	800048b4	00000013	addi	x0,x0,0	  x0:0x00000000
       14535000	      1452	800048b8	23110d23	sb	x17,570(x2)	  x2:0x80008b81 x17:0x00000001 PA:0x80008dbb
       14545000	      1453	800048bc	00000013	addi	x0,x0,0	  x0:0x00000000
       14555000	      1454	800048c0	d5910423	sb	x25,-696(x2)	  x2:0x80008b81 x25:0x0000007d PA:0x800088c9
       14565000	      1455	800048c4	004d3333	sltu	x6,x26,x4	 x26:0x80009fc4  x4:0x000025d1  x6=0x00000000
       14575000	      1456	800048c8	f09d7eb7	lui	x29,0xf09d7	 x29=0xf09d7000
       14585000	      1457	800048cc	00980533	add	x10,x16,x9	 x16:0x00000000  x9:0x00000000 x10=0x00000000
       14595000	      1458	800048d0	00000013	addi	x0,x0,0	  x0:0x00000000
       14605000	      1459	800048d4	01b423b3	slt	x7,x8,x27	  x8:0x67d2e880 x27:0x80009eb4  x7=0x00000000
       14615000	      1460	800048d8	22610a83	lb	x21,550(x2)	  x2:0x80008b81 x21=0x0000004f PA:0x80008da7
       14625000	      1461	800048dc	0bf10203	lb	x4,191(x2)	  x2:0x80008b81  x4=0x00000041 PA:0x80008c40
       14635000	      1462	800048e0	cf911f03	lh	x30,-775(x2)	  x2:0x80008b81 x30=0xffffdcbf PA:0x8000887a
       14645000	      1463	800048e4	1ee129a3	sw	x14,499(x2)	  x2:0x80008b81 x14:0x00000010 PA:0x80008d74
       14655000	      1464	800048e8	78283f37	lui	x30,0x78283	 x30=0x78283000
       14665000	      1465	800048ec	015f2533	slt	x10,x30,x21	 x30:0x78283000 x21:0x0000004f x10=0x00000000
       14675000	      1466	800048f0	12614a83	lbu	x21,294(x2)	  x2:0x80008b81 x21=0x00000071 PA:0x80008ca7
       14685000	      1467	800048f4	28714083	lbu	x1,647(x2)	  x2:0x80008b81  x1=0x00000067 PA:0x80008e08
       14695000	      1468	800048f8	9352b297	auipc	x5,0x9352b	  x5=0x1352f8f4
       14705000	      1469	800048fc	00531e33	sll	x28,x6,x5	  x6:0x00000000  x5:0x1352f8f4 x28=0x00000000
       14715000	      1470	80004900	00b19893	slli	x17,x3,0xb	  x3:0x00000003 x17=0x00001800
       14725000	      1471	80004904	f9ffbb93	sltiu	x23,x31,-97	 x31:0x000000c3 x23=0x00000001
       14735000	      1472	80004908	ee814c03	lbu	x24,-280(x2)	  x2:0x80008b81 x24=0x0000002e PA:0x80008a69
       14745000	      1473	8000490c	fd5111a3	sh	x21,-61(x2)	  x2:0x80008b81 x21:0x00000071 PA:0x80008b44
       14755000	      1474	80004910	01f1aab3	slt	x21,x3,x31	  x3:0x00000003 x31:0x000000c3 x21=0x00000001
       14765000	      1475	80004914	1e711aa3	sh	x7,501(x2)	  x2:0x80008b81  x7:0x00000000 PA:0x80008d76
       14775000	      1476	80004918	d8210383	lb	x7,-638(x2)	  x2:0x80008b81  x7=0x00000035 PA:0x80008903
       14785000	      1477	8000491c	eb911183	lh	x3,-327(x2)	  x2:0x80008b81  x3=0x00006f60 PA:0x80008a3a
       14795000	      1478	80004920	18c33d93	sltiu	x27,x6,396	  x6:0x00000000 x27=0x00000001
       14805000	      1479	80004924	f6c10e23	sb	x12,-132(x2)	  x2:0x80008b81 x12:0x00000000 PA:0x80008afd
       14815000	      1480	80004928	26698313	addi	x6,x19,614	 x19:0xfffffbff  x6=0xfffffe65
       14825000	      1481	8000492c	18910a23	sb	x9,404(x2)	  x2:0x80008b81  x9:0x00000000 PA:0x80008d15
       14835000	      1482	80004930	12b10283	lb	x5,299(x2)	  x2:0x80008b81  x5=0xffffffb7 PA:0x80008cac
       14845000	      1483	80004934	00003117	auipc	x2,0x3	  x2=0x80007930
       14855000	      1484	80004938	72e10113	addi	x2,x2,1838	  x2:0x80007930  x2=0x8000805e
       14865000	      1485	8000493c	01a65f13	srli	x30,x12,0x1a	 x12:0x00000000 x30=0x00000000
       14875000	      1486	80004940	0051da13	srli	x20,x3,0x5	  x3:0x00006f60 x20=0x0000037b
       14885000	      1487	80004944	ff910683	lb	x13,-7(x2)	  x2:0x8000805e x13=0xffffff80 PA:0x80008057
       14895000	      1488	80004948	01634fb3	xor	x31,x6,x22	  x6:0xfffffe65 x22:0xfffff95e x31=0x0000073b
       14905000	      1489	8000494c	769fe717	auipc	x14,0x769fe	 x14=0xf6a02948
       14915000	      1490	80004950	51ca7d93	andi	x27,x20,1308	 x20:0x0000037b x27=0x00000118
       14925000	      1491	80004954	fed10fa3	sb	x13,-1(x2)	  x2:0x8000805e x13:0xffffff80 PA:0x8000805d
       14935000	      1492	80004958	01d1c233	xor	x4,x3,x29	  x3:0x00006f60 x29:0xf09d7000  x4=0xf09d1f60
       14945000	      1493	8000495c	009ed233	srl	x4,x29,x9	 x29:0xf09d7000  x9:0x00000000  x4=0xf09d7000
       14955000	      1494	80004960	ff314503	lbu	x10,-13(x2)	  x2:0x8000805e x10=0x00000041 PA:0x80008051
       14965000	      1495	80004964	931d6437	lui	x8,0x931d6	  x8=0x931d6000
       14975000	      1496	80004968	40c1d2b3	sra	x5,x3,x12	  x3:0x00006f60 x12:0x00000000  x5=0x00006f60
       14985000	      1497	8000496c	01310223	sb	x19,4(x2)	  x2:0x8000805e x19:0xfffffbff PA:0x80008062
       14995000	      1498	80004970	00000013	addi	x0,x0,0	  x0:0x00000000
       15005000	      1499	80004974	15992913	slti	x18,x18,345	 x18:0xffffffff x18=0x00000001
       15015000	      1500	80004978	41fcd933	sra	x18,x25,x31	 x25:0x0000007d x31:0x0000073b x18=0x00000000
       15025000	      1501	8000497c	01c4cc33	xor	x24,x9,x28	  x9:0x00000000 x28:0x00000000 x24=0x00000000
       15035000	      1502	80004980	000b0533	add	x10,x22,x0	 x22:0xfffff95e  x0:0x00000000 x10=0xfffff95e
       15045000	      1503	80004984	005445b3	xor	x11,x8,x5	  x8:0x931d6000  x5:0x00006f60 x11=0x931d0f60
       15055000	      1504	80004988	26f47593	andi	x11,x8,623	  x8:0x931d6000 x11=0x00000000
       15065000	      1505	8000498c	3af0f813	andi	x16,x1,943	  x1:0x00000067 x16=0x00000027
       15075000	      1506	80004990	ff910ca3	sb	x25,-7(x2)	  x2:0x8000805e x25:0x0000007d PA:0x80008057
       15085000	      1507	80004994	ff710383	lb	x7,-9(x2)	  x2:0x8000805e  x7=0xffffffcb PA:0x80008055
       15095000	      1508	80004998	ed9f4993	xori	x19,x30,-295	 x30:0x00000000 x19=0xfffffed9
       15105000	      1509	8000499c	0052a4b3	slt	x9,x5,x5	  x5:0x00006f60  x5:0x00006f60  x9=0x00000000
       15115000	      1510	800049a0	2f4ea313	slti	x6,x29,756	 x29:0xf09d7000  x6=0x00000001
       15125000	      1511	800049a4	a0378813	addi	x16,x15,-1533	 x15:0x80009eb4 x16=0x800098b7
       15135000	      1512	800049a8	ff314683	lbu	x13,-13(x2)	  x2:0x8000805e x13=0x00000041 PA:0x80008051
       15145000	      1513	800049ac	00810383	lb	x7,8(x2)	  x2:0x8000805e  x7=0xffffffbc PA:0x80008066
       15155000	      1514	800049b0	00101813	slli	x16,x0,0x1	  x0:0x00000000 x16=0x00000000
       15165000	      1515	800049b4	00df9f93	slli	x31,x31,0xd	 x31:0x0000073b x31=0x00e76000
       15175000	      1516	800049b8	00c66033	or	x0,x12,x12	 x12:0x00000000 x12:0x00000000
       15185000	      1517	800049bc	01d02b33	slt	x22,x0,x29	  x0:0x00000000 x29:0xf09d7000 x22=0x00000000
       15195000	      1518	800049c0	ff110183	lb	x3,-15(x2)	  x2:0x8000805e  x3=0xfffffffd PA:0x8000804f
       15205000	      1519	800049c4	00d14183	lbu	x3,13(x2)	  x2:0x8000805e  x3=0x000000af PA:0x8000806b
       15215000	      1520	800049c8	01855a93	srli	x21,x10,0x18	 x10:0xfffff95e x21=0x000000ff
       15225000	      1521	800049cc	415bdc13	srai	x24,x23,0x15	 x23:0x00000001 x24=0x00000000
       15235000	      1522	800049d0	00e12d83	lw	x27,14(x2)	  x2:0x8000805e x27=0x8aad1859 PA:0x8000806c
       15245000	      1523	800049d4	ff914703	lbu	x14,-7(x2)	  x2:0x8000805e x14=0x0000007d PA:0x80008057
       15255000	      1524	800049d8	00004117	auipc	x2,0x4	  x2=0x800089d4
       15265000	      1525	800049dc	41110113	addi	x2,x2,1041	  x2:0x800089d4  x2=0x80008de5
       15275000	      1526	800049e0	fe410223	sb	x4,-28(x2)	  x2:0x80008de5  x4:0xf09d7000 PA:0x80008dc9
       15285000	      1527	800049e4	fd810723	sb	x24,-50(x2)	  x2:0x80008de5 x24:0x00000000 PA:0x80008db3
       15295000	      1528	800049e8	9c96a013	slti	x0,x13,-1591	 x13:0x00000041
       15305000	      1529	800049ec	002d9693	slli	x13,x27,0x2	 x27:0x8aad1859 x13=0x2ab46164
       15315000	      1530	800049f0	01529a13	slli	x20,x5,0x15	  x5:0x00006f60 x20=0xec000000
       15325000	      1531	800049f4	ffa11ea3	sh	x26,-3(x2)	  x2:0x80008de5 x26:0x80009fc4 PA:0x80008de2
       15335000	      1532	800049f8	000f1e13	slli	x28,x30,0x0	 x30:0x00000000 x28=0x00000000
       15345000	      1533	800049fc	00000013	addi	x0,x0,0	  x0:0x00000000
       15355000	      1534	80004a00	02d12fa3	sw	x13,63(x2)	  x2:0x80008de5 x13:0x2ab46164 PA:0x80008e24
       15365000	      1535	80004a04	02b12c83	lw	x25,43(x2)	  x2:0x80008de5 x25=0x9e6774bb PA:0x80008e10
       15375000	      1536	80004a08	fdc10da3	sb	x28,-37(x2)	  x2:0x80008de5 x28:0x00000000 PA:0x80008dc0
       15385000	      1537	80004a0c	01afbcb3	sltu	x25,x31,x26	 x31:0x00e76000 x26:0x80009fc4 x25=0x00000001
       15395000	      1538	80004a10	40d55013	srai	x0,x10,0xd	 x10:0xfffff95e
       15405000	      1539	80004a14	011e5333	srl	x6,x28,x17	 x28:0x00000000 x17:0x00001800  x6=0x00000000
       15415000	      1540	80004a18	ff014a83	lbu	x21,-16(x2)	  x2:0x80008de5 x21=0x000000c5 PA:0x80008dd5
       15425000	      1541	80004a1c	ffe10203	lb	x4,-2(x2)	  x2:0x80008de5  x4=0xffffff9f PA:0x80008de3
       15435000	      1542	80004a20	02111383	lh	x7,33(x2)	  x2:0x80008de5  x7=0xffffbf75 PA:0x80008e06
       15445000	      1543	80004a24	fca14283	lbu	x5,-54(x2)	  x2:0x80008de5  x5=0x000000a4 PA:0x80008daf
       15455000	      1544	80004a28	ff310fa3	sb	x19,-1(x2)	  x2:0x80008de5 x19:0xfffffed9 PA:0x80008de4
       15465000	      1545	80004a2c	014f4733	xor	x14,x30,x20	 x30:0x00000000 x20:0xec000000 x14=0xec000000
       15475000	      1546	80004a30	fe115503	lhu	x10,-31(x2)	  x2:0x80008de5 x10=0x00003dfe PA:0x80008dc6
       15485000	      1547	80004a34	41f8dc13	srai	x24,x17,0x1f	 x17:0x00001800 x24=0x00000000
       15495000	      1548	80004a38	41cb89b3	sub	x19,x23,x28	 x23:0x00000001 x28:0x00000000 x19=0x00000001
       15505000	      1549	80004a3c	03a106a3	sb	x26,45(x2)	  x2:0x80008de5 x26:0x80009fc4 PA:0x80008e12
       15515000	      1550	80004a40	00f10483	lb	x9,15(x2)	  x2:0x80008de5  x9=0x00000073 PA:0x80008df4
       15525000	      1551	80004a44	ffd14403	lbu	x8,-3(x2)	  x2:0x80008de5  x8=0x000000c4 PA:0x80008de2
       15535000	      1552	00000000	00000013	addi	x0,x0,0	  x0:0x00000000
       15545000	      1553	80004a48	fe814c03	lbu	x24,-24(x2)	  x2:0x80008de5 x24=0x0000001d PA:0x80008dcd
       15555000	      1554	80004a4c	03b108a3	sb	x27,49(x2)	  x2:0x80008de5 x27:0x8aad1859 PA:0x80008e16
       15565000	      1555	80004a50	40c95233	sra	x4,x18,x12	 x18:0x00000000 x12:0x00000000  x4=0x00000000
       15575000	      1556	80004a54	01010623	sb	x16,12(x2)	  x2:0x80008de5 x16:0x00000000 PA:0x80008df1
       15585000	      1557	80004a58	015f86b3	add	x13,x31,x21	 x31:0x00e76000 x21:0x000000c5 x13=0x00e760c5
       15595000	      1558	80004a5c	01814183	lbu	x3,24(x2)	  x2:0x80008de5  x3=0x00000004 PA:0x80008dfd
       15605000	      1559	80004a60	01e2d833	srl	x16,x5,x30	  x5:0x000000a4 x30:0x00000000 x16=0x000000a4
       15615000	      1560	80004a64	54153a93	sltiu	x21,x10,1345	 x10:0x00003dfe x21=0x00000000
       15625000	      1561	80004a68	010102a3	sb	x16,5(x2)	  x2:0x80008de5 x16:0x000000a4 PA:0x80008dea
       15635000	      1562	80004a6c	fc310223	sb	x3,-60(x2)	  x2:0x80008de5  x3:0x00000004 PA:0x80008da9
       15645000	      1563	80004a70	02010583	lb	x11,32(x2)	  x2:0x80008de5 x11=0x00000077 PA:0x80008e05
       15655000	      1564	80004a74	fe1107a3	sb	x1,-17(x2)	  x2:0x80008de5  x1:0x00000067 PA:0x80008dd4
       15665000	      1565	80004a78	ffc10703	lb	x14,-4(x2)	  x2:0x80008de5 x14=0xffffffbe PA:0x80008de1
       15675000	      1566	80004a7c	01006db3	or	x27,x0,x16	  x0:0x00000000 x16:0x000000a4 x27=0x000000a4
       15685000	      1567	80004a80	fea10483	lb	x9,-22(x2)	  x2:0x80008de5  x9=0xfffffffb PA:0x80008dcf
       15695000	      1568	80004a84	00d15203	lhu	x4,13(x2)	  x2:0x80008de5  x4=0x0000f07b PA:0x80008df2
       15705000	      1569	80004a88	01910b03	lb	x22,25(x2)	  x2:0x80008de5 x22=0xffffff83 PA:0x80008dfe
       15715000	      1570	80004a8c	009c50b3	srl	x1,x24,x9	 x24:0x0000001d  x9:0xfffffffb  x1=0x00000000
       15725000	      1571	80004a90	01d9b9b3	sltu	x19,x19,x29	 x19:0x00000001 x29:0xf09d7000 x19=0x00000001
       15735000	      1572	80004a94	ff312083	lw	x1,-13(x2)	  x2:0x80008de5  x1=0x80fe41a8 PA:0x80008dd8
       15745000	      1573	80004a98	41da5293	srai	x5,x20,0x1d	 x20:0xec000000  x5=0xffffffff
       15755000	      1574	80004a9c	04966463	bltu	x12,x9,80004ae4	 x12:0x00000000  x9:0xfffffffb
       15765000	      1575	00000000	00000013	addi	x0,x0,0	  x0:0x00000000
       15775000	      1576	80004ae0	00000013	addi	x0,x0,0	  x0:0x00000000
       15785000	      1577	80004ae4	004f4863	blt	x30,x4,80004af4	 x30:0x00000000  x4:0x0000f07b
       15795000	      1578	00000000	00000013	addi	x0,x0,0	  x0:0x00000000
       15805000	      1579	80004af0	00000013	addi	x0,x0,0	  x0:0x00000000
       15815000	      1580	80004af4	714ca313	slti	x6,x25,1812	 x25:0x00000001  x6=0x00000001
       15825000	      1581	80004af8	009b10b3	sll	x1,x22,x9	 x22:0xffffff83  x9:0xfffffffb  x1=0x18000000
       15835000	      1582	80004afc	d3eca113	slti	x2,x25,-706	 x25:0x00000001  x2=0x00000000
       15845000	      1583	80004b00	999cc393	xori	x7,x25,-1639	 x25:0x00000001  x7=0xfffff998
       15855000	      1584	80004b04	00470e33	add	x28,x14,x4	 x14:0xffffffbe  x4:0x0000f07b x28=0x0000f039
       15865000	      1585	80004b08	00811713	slli	x14,x2,0x8	  x2:0x00000000 x14=0x00000000
       15875000	      1586	80004b0c	0016c3b3	xor	x7,x13,x1	 x13:0x00e760c5  x1:0x18000000  x7=0x18e760c5
       15885000	      1587	80004b10	016a1b13	slli	x22,x20,0x16	 x20:0xec000000 x22=0x00000000
       15895000	      1588	80004b14	00c4d463	bge	x9,x12,80004b1c	  x9:0xfffffffb x12:0x00000000
       15905000	      1589	80004b18	01da0b33	add	x22,x20,x29	 x20:0xec000000 x29:0xf09d7000 x22=0xdc9d7000
       15915000	      1590	80004b1c	01ef2c33	slt	x24,x30,x30	 x30:0x00000000 x30:0x00000000 x24=0x00000000
       15925000	      1591	80004b20	c0cdcc13	xori	x24,x27,-1012	 x27:0x000000a4 x24=0xfffffca8
       15935000	      1592	80004b24	0031ba33	sltu	x20,x3,x3	  x3:0x00000004  x3:0x00000004 x20=0x00000000
       15945000	      1593	80004b28	681c7c37	lui	x24,0x681c7	 x24=0x681c7000
       15955000	      1594	80004b2c	01227e63	bgeu	x4,x18,80004b48	  x4:0x0000f07b x18:0x00000000
       15965000	      1595	00000000	00000013	addi	x0,x0,0	  x0:0x00000000
       15975000	      1596	80004b44	00000013	addi	x0,x0,0	  x0:0x00000000
       15985000	      1597	80004b48	2ab02c37	lui	x24,0x2ab02	 x24=0x2ab02000
       15995000	      1598	80004b4c	0050dcb3	srl	x25,x1,x5	  x1:0x18000000  x5:0xffffffff x25=0x00000000
       16005000	      1599	80004b50	01d26c63	bltu	x4,x29,80004b68	  x4:0x0000f07b x29:0xf09d7000
       16015000	      1600	00000000	00000013	addi	x0,x0,0	  x0:0x00000000
       16025000	      1601	80004b64	00000013	addi	x0,x0,0	  x0:0x00000000
       16035000	      1602	80004b68	00061663	bne	x12,x0,80004b74	 x12:0x00000000  x0:0x00000000
       16045000	      1603	80004b6c	01730ab3	add	x21,x6,x23	  x6:0x00000001 x23:0x00000001 x21=0x00000002
       16055000	      1604	80004b70	02928463	beq	x5,x9,80004b98	  x5:0xffffffff  x9:0xfffffffb
       16065000	      1605	80004b74	41b3d4b3	sra	x9,x7,x27	  x7:0x18e760c5 x27:0x000000a4  x9=0x018e760c
       16075000	      1606	80004b78	f33aba93	sltiu	x21,x21,-205	 x21:0x00000002 x21=0x00000001
       16085000	      1607	80004b7c	04715463	bge	x2,x7,80004bc4	  x2:0x00000000  x7:0x18e760c5
       16095000	      1608	80004b80	03206c63	bltu	x0,x18,80004bb8	  x0:0x00000000 x18:0x00000000
       16105000	      1609	80004b84	5cdded93	ori	x27,x27,1485	 x27:0x000000a4 x27=0x000005ed
       16115000	      1610	80004b88	01720f33	add	x30,x4,x23	  x4:0x0000f07b x23:0x00000001 x30=0x0000f07c
       16125000	      1611	80004b8c	41c0deb3	sra	x29,x1,x28	  x1:0x18000000 x28:0x0000f039 x29=0x0000000c
       16135000	      1612	80004b90	00c7ea63	bltu	x15,x12,80004ba4	 x15:0x80009eb4 x12:0x00000000
       16145000	      1613	80004b94	c96bec13	ori	x24,x23,-874	 x23:0x00000001 x24=0xfffffc97
       16155000	      1614	80004b98	04cf9663	bne	x31,x12,80004be4	 x31:0x00e76000 x12:0x00000000
       16165000	      1615	00000000	00000013	addi	x0,x0,0	  x0:0x00000000
       16175000	      1616	80004be0	00000013	addi	x0,x0,0	  x0:0x00000000
       16185000	      1617	80004be4	01ff9e33	sll	x28,x31,x31	 x31:0x00e76000 x31:0x00e76000 x28=0x00e76000
       16195000	      1618	80004be8	01df5733	srl	x14,x30,x29	 x30:0x0000f07c x29:0x0000000c x14=0x0000000f
       16205000	      1619	80004bec	e990ea93	ori	x21,x1,-359	  x1:0x18000000 x21=0xfffffe99
       16215000	      1620	80004bf0	02b29e63	bne	x5,x11,80004c2c	  x5:0xffffffff x11:0x00000077
       16225000	      1621	00000000	00000013	addi	x0,x0,0	  x0:0x00000000
       16235000	      1622	80004c28	00000013	addi	x0,x0,0	  x0:0x00000000
       16245000	      1623	80004c2c	04050663	beq	x10,x0,80004c78	 x10:0x00003dfe  x0:0x00000000
       16255000	      1624	80004c30	00fd5193	srli	x3,x26,0xf	 x26:0x80009fc4  x3=0x00010001
       16265000	      1625	80004c34	4f076313	ori	x6,x14,1264	 x14:0x0000000f  x6=0x000004ff
       16275000	      1626	80004c38	04541663	bne	x8,x5,80004c84	  x8:0x000000c4  x5:0xffffffff
       16285000	      1627	00000000	00000013	addi	x0,x0,0	  x0:0x00000000
       16295000	      1628	80004c80	00000013	addi	x0,x0,0	  x0:0x00000000
       16305000	      1629	80004c84	4088dc93	srai	x25,x17,0x8	 x17:0x00001800 x25=0x00000018
       16315000	      1630	80004c88	001c5e93	srli	x29,x24,0x1	 x24:0xfffffc97 x29=0x7ffffe4b
       16325000	      1631	80004c8c	04419463	bne	x3,x4,80004cd4	  x3:0x00010001  x4:0x0000f07b
       16335000	      1632	00000000	00000013	addi	x0,x0,0	  x0:0x00000000
       16345000	      1633	80004cd0	00000013	addi	x0,x0,0	  x0:0x00000000
       16355000	      1634	80004cd4	345f4393	xori	x7,x30,837	 x30:0x0000f07c  x7=0x0000f339
       16365000	      1635	80004cd8	0099ef33	or	x30,x19,x9	 x19:0x00000001  x9:0x018e760c x30=0x018e760d
       16375000	      1636	80004cdc	0c73fe97	auipc	x29,0xc73f	 x29=0x8c743cd8
       16385000	      1637	80004ce0	0222f063	bgeu	x5,x2,80004d00	  x5:0xffffffff  x2:0x00000000
       16395000	      1638	00000000	00000013	addi	x0,x0,0	  x0:0x00000000
       16405000	      1639	80004cfc	00000013	addi	x0,x0,0	  x0:0x00000000
       16415000	      1640	80004d00	05bf6663	bltu	x30,x27,80004d4c	 x30:0x018e760d x27:0x000005ed
       16425000	      1641	80004d04	01474033	xor	x0,x14,x20	 x14:0x0000000f x20:0x00000000
       16435000	      1642	80004d08	01681713	slli	x14,x16,0x16	 x16:0x000000a4 x14=0x29000000
       16445000	      1643	80004d0c	ee6c5f37	lui	x30,0xee6c5	 x30=0xee6c5000
       16455000	      1644	80004d10	c33d3813	sltiu	x16,x26,-973	 x26:0x80009fc4 x16=0x00000001
       16465000	      1645	80004d14	01fce833	or	x16,x25,x31	 x25:0x00000018 x31:0x00e76000 x16=0x00e76018
       16475000	      1646	80004d18	00709263	bne	x1,x7,80004d1c	  x1:0x18000000  x7:0x0000f339
       16485000	      1647	00000000	00000013	addi	x0,x0,0	  x0:0x00000000
       16495000	      1648	80004d18	00000013	addi	x0,x0,0	  x0:0x00000000
       16505000	      1649	80004d1c	004e5ab3	srl	x21,x28,x4	 x28:0x00e76000  x4:0x0000f07b x21=0x00000000
       16515000	      1650	80004d20	34fc4193	xori	x3,x24,847	 x24:0xfffffc97  x3=0xffffffd8
       16525000	      1651	80004d24	ce1a2893	slti	x17,x20,-799	 x20:0x00000000 x17=0x00000000
       16535000	      1652	80004d28	11ce2293	slti	x5,x28,284	 x28:0x00e76000  x5=0x00000000
       16545000	      1653	80004d2c	26b87293	andi	x5,x16,619	 x16:0x00e76018  x5=0x00000008
       16555000	      1654	80004d30	5ee57993	andi	x19,x10,1518	 x10:0x00003dfe x19=0x000005ee
       16565000	      1655	80004d34	04d2f463	bgeu	x5,x13,80004d7c	  x5:0x00000008 x13:0x00e760c5
       16575000	      1656	80004d38	db86ca93	xori	x21,x13,-584	 x13:0x00e760c5 x21=0xff189d7d
       16585000	      1657	80004d3c	407788b3	sub	x17,x15,x7	 x15:0x80009eb4  x7:0x0000f339 x17=0x7fffab7b
       16595000	      1658	80004d40	e5ac2a93	slti	x21,x24,-422	 x24:0xfffffc97 x21=0x00000001
       16605000	      1659	80004d44	00fe5e13	srli	x28,x28,0xf	 x28:0x00e76000 x28=0x000001ce
       16615000	      1660	80004d48	e99e6197	auipc	x3,0xe99e6	  x3=0x699ead44
       16625000	      1661	80004d4c	017f5333	srl	x6,x30,x23	 x30:0xee6c5000 x23:0x00000001  x6=0x77362800
       16635000	      1662	80004d50	002efe63	bgeu	x29,x2,80004d6c	 x29:0x8c743cd8  x2:0x00000000
       16645000	      1663	00000000	00000013	addi	x0,x0,0	  x0:0x00000000
       16655000	      1664	80004d68	00000013	addi	x0,x0,0	  x0:0x00000000
       16665000	      1665	80004d6c	54cf4317	auipc	x6,0x54cf4	  x6=0xd4cf8d68
       16675000	      1666	80004d70	01bf4a33	xor	x20,x30,x27	 x30:0xee6c5000 x27:0x000005ed x20=0xee6c55ed
       16685000	      1667	80004d74	009b8c63	beq	x23,x9,80004d8c	 x23:0x00000001  x9:0x018e760c
       16695000	      1668	80004d78	a1f56b93	ori	x23,x10,-1505	 x10:0x00003dfe x23=0xffffffff
       16705000	      1669	80004d7c	035d4e63	blt	x26,x21,80004db8	 x26:0x80009fc4 x21:0x00000001
       16715000	      1670	00000000	00000013	addi	x0,x0,0	  x0:0x00000000
       16725000	      1671	80004db4	00000013	addi	x0,x0,0	  x0:0x00000000
       16735000	      1672	80004db8	02698663	beq	x19,x6,80004de4	 x19:0x000005ee  x6:0xd4cf8d68
       16745000	      1673	80004dbc	79225597	auipc	x11,0x79225	 x11=0xf9229db8
       16755000	      1674	80004dc0	0176c2b3	xor	x5,x13,x23	 x13:0x00e760c5 x23:0xffffffff  x5=0xff189f3a
       16765000	      1675	80004dc4	99c67517	auipc	x10,0x99c67	 x10=0x19c6bdc0
       16775000	      1676	80004dc8	0099bc33	sltu	x24,x19,x9	 x19:0x000005ee  x9:0x018e760c x24=0x00000001
       16785000	      1677	80004dcc	d683af93	slti	x31,x7,-664	  x7:0x0000f339 x31=0x00000000
       16795000	      1678	80004dd0	01686f33	or	x30,x16,x22	 x16:0x00e76018 x22:0xdc9d7000 x30=0xdcff7018
       16805000	      1679	80004dd4	01122eb3	slt	x29,x4,x17	  x4:0x0000f07b x17:0x7fffab7b x29=0x00000001
       16815000	      1680	80004dd8	80063913	sltiu	x18,x12,-2048	 x12:0x00000000 x18=0x00000001
       16825000	      1681	80004ddc	cdcffc13	andi	x24,x31,-804	 x31:0x00000000 x24=0x00000000
       16835000	      1682	80004de0	b15ee293	ori	x5,x29,-1259	 x29:0x00000001  x5=0xfffffb15
       16845000	      1683	80004de4	00fd9533	sll	x10,x27,x15	 x27:0x000005ed x15:0x80009eb4 x10=0x5ed00000
       16855000	      1684	80004de8	01925263	bge	x4,x25,80004dec	  x4:0x0000f07b x25:0x00000018
       16865000	      1685	00000000	00000013	addi	x0,x0,0	  x0:0x00000000
       16875000	      1686	80004de8	00000013	addi	x0,x0,0	  x0:0x00000000
       16885000	      1687	80004dec	e32c2e93	slti	x29,x24,-462	 x24:0x00000000 x29=0x00000000
       16895000	      1688	80004df0	0443d663	bge	x7,x4,80004e3c	  x7:0x0000f339  x4:0x0000f07b
       16905000	      1689	00000000	00000013	addi	x0,x0,0	  x0:0x00000000
       16915000	      1690	80004e38	00000013	addi	x0,x0,0	  x0:0x00000000
       16925000	      1691	80004e3c	4b093b13	sltiu	x22,x18,1200	 x18:0x00000001 x22=0x00000001
       16935000	      1692	80004e40	01bc7663	bgeu	x24,x27,80004e4c	 x24:0x00000000 x27:0x000005ed
       16945000	      1693	80004e44	ec6dcd93	xori	x27,x27,-314	 x27:0x000005ed x27=0xfffffb2b
       16955000	      1694	80004e48	b5e23f93	sltiu	x31,x4,-1186	  x4:0x0000f07b x31=0x00000001
       16965000	      1695	80004e4c	ee946893	ori	x17,x8,-279	  x8:0x000000c4 x17=0xfffffeed
       16975000	      1696	80004e50	75ca7813	andi	x16,x20,1884	 x20:0xee6c55ed x16=0x0000054c
       16985000	      1697	80004e54	00413ab3	sltu	x21,x2,x4	  x2:0x00000000  x4:0x0000f07b x21=0x00000001
       16995000	      1698	80004e58	05e98863	beq	x19,x30,80004ea8	 x19:0x000005ee x30:0xdcff7018
       17005000	      1699	80004e5c	04486263	bltu	x16,x4,80004ea0	 x16:0x0000054c  x4:0x0000f07b
       17015000	      1700	00000000	00000013	addi	x0,x0,0	  x0:0x00000000
       17025000	      1701	80004e9c	00000013	addi	x0,x0,0	  x0:0x00000000
       17035000	      1702	80004ea0	0147fab3	and	x21,x15,x20	 x15:0x80009eb4 x20:0xee6c55ed x21=0x800014a4
       17045000	      1703	80004ea4	002913b3	sll	x7,x18,x2	 x18:0x00000001  x2:0x00000000  x7=0x00000001
       17055000	      1704	80004ea8	0073dc13	srli	x24,x7,0x7	  x7:0x00000001 x24=0x00000000
       17065000	      1705	80004eac	044b0863	beq	x22,x4,80004efc	 x22:0x00000001  x4:0x0000f07b
       17075000	      1706	80004eb0	0143d293	srli	x5,x7,0x14	  x7:0x00000001  x5=0x00000000
       17085000	      1707	80004eb4	e21aec13	ori	x24,x21,-479	 x21:0x800014a4 x24=0xfffffea5
       17095000	      1708	80004eb8	00e08e63	beq	x1,x14,80004ed4	  x1:0x18000000 x14:0x29000000
       17105000	      1709	80004ebc	003ddb33	srl	x22,x27,x3	 x27:0xfffffb2b  x3:0x699ead44 x22=0x0fffffb2
       17115000	      1710	80004ec0	82bfed93	ori	x27,x31,-2005	 x31:0x00000001 x27=0xfffff82b
       17125000	      1711	80004ec4	41d7d1b3	sra	x3,x15,x29	 x15:0x80009eb4 x29:0x00000000  x3=0x80009eb4
       17135000	      1712	80004ec8	00a11c63	bne	x2,x10,80004ee0	  x2:0x00000000 x10:0x5ed00000
       17145000	      1713	00000000	00000013	addi	x0,x0,0	  x0:0x00000000
       17155000	      1714	80004edc	00000013	addi	x0,x0,0	  x0:0x00000000
       17165000	      1715	80004ee0	010c6e63	bltu	x24,x16,80004efc	 x24:0xfffffea5 x16:0x0000054c
       17175000	      1716	80004ee4	00a094b3	sll	x9,x1,x10	  x1:0x18000000 x10:0x5ed00000  x9=0x18000000
       17185000	      1717	80004ee8	00000013	addi	x0,x0,0	  x0:0x00000000
       17195000	      1718	80004eec	407b5933	sra	x18,x22,x7	 x22:0x0fffffb2  x7:0x00000001 x18=0x07ffffd9
       17205000	      1719	80004ef0	e5616893	ori	x17,x2,-426	  x2:0x00000000 x17=0xfffffe56
       17215000	      1720	80004ef4	01f79ab3	sll	x21,x15,x31	 x15:0x80009eb4 x31:0x00000001 x21=0x00013d68
       17225000	      1721	80004ef8	4e27ae13	slti	x28,x15,1250	 x15:0x80009eb4 x28=0x00000001
       17235000	      1722	80004efc	5556c093	xori	x1,x13,1365	 x13:0x00e760c5  x1=0x00e76590
       17245000	      1723	80004f00	417203b3	sub	x7,x4,x23	  x4:0x0000f07b x23:0xffffffff  x7=0x0000f07c
       17255000	      1724	80004f04	9227a693	slti	x13,x15,-1758	 x15:0x80009eb4 x13=0x00000001
       17265000	      1725	80004f08	41148eb3	sub	x29,x9,x17	  x9:0x18000000 x17:0xfffffe56 x29=0x180001aa
       17275000	      1726	80004f0c	00128463	beq	x5,x1,80004f14	  x5:0x00000000  x1:0x00e76590
       17285000	      1727	80004f10	01d228b3	slt	x17,x4,x29	  x4:0x0000f07b x29:0x180001aa x17=0x00000001
       17295000	      1728	80004f14	9725bb13	sltiu	x22,x11,-1678	 x11:0xf9229db8 x22=0x00000001
       17305000	      1729	80004f18	e87e0213	addi	x4,x28,-377	 x28:0x00000001  x4=0xfffffe88
       17315000	      1730	80004f1c	0170e6b3	or	x13,x1,x23	  x1:0x00e76590 x23:0xffffffff x13=0xffffffff
       17325000	      1731	80004f20	01efd263	bge	x31,x30,80004f24	 x31:0x00000001 x30:0xdcff7018
       17335000	      1732	00000000	00000013	addi	x0,x0,0	  x0:0x00000000
       17345000	      1733	80004f20	00000013	addi	x0,x0,0	  x0:0x00000000
       17355000	      1734	80004f24	018991b3	sll	x3,x19,x24	 x19:0x000005ee x24:0xfffffea5  x3=0x0000bdc0
       17365000	      1735	80004f28	d3422f17	auipc	x30,0xd3422	 x30=0x53426f24
       17375000	      1736	80004f2c	00000013	addi	x0,x0,0	  x0:0x00000000
       17385000	      1737	80004f30	0394c063	blt	x9,x25,80004f50	  x9:0x18000000 x25:0x00000018
       17395000	      1738	80004f34	e1350c93	addi	x25,x10,-493	 x10:0x5ed00000 x25=0x5ecffe13
       17405000	      1739	80004f38	230caf13	slti	x30,x25,560	 x25:0x5ecffe13 x30=0x00000000
       17415000	      1740	80004f3c	001a5663	bge	x20,x1,80004f48	 x20:0xee6c55ed  x1:0x00e76590
       17425000	      1741	80004f40	0072c833	xor	x16,x5,x7	  x5:0x00000000  x7:0x0000f07c x16=0x0000f07c
       17435000	      1742	80004f44	00000013	addi	x0,x0,0	  x0:0x00000000
       17445000	      1743	80004f48	00fc6a63	bltu	x24,x15,80004f5c	 x24:0xfffffea5 x15:0x80009eb4
       17455000	      1744	80004f4c	c8a54417	auipc	x8,0xc8a54	  x8=0x48a58f48
       17465000	      1745	80004f50	011c5413	srli	x8,x24,0x11	 x24:0xfffffea5  x8=0x00007fff
       17475000	      1746	80004f54	4154d133	sra	x2,x9,x21	  x9:0x18000000 x21:0x00013d68  x2=0x00180000
       17485000	      1747	80004f58	039c9063	bne	x25,x25,80004f78	 x25:0x5ecffe13 x25:0x5ecffe13
       17495000	      1748	80004f5c	0585e463	bltu	x11,x24,80004fa4	 x11:0xf9229db8 x24:0xfffffea5
       17505000	      1749	00000000	00000013	addi	x0,x0,0	  x0:0x00000000
       17515000	      1750	80004fa0	00000013	addi	x0,x0,0	  x0:0x00000000
       17525000	      1751	80004fa4	05b3c263	blt	x7,x27,80004fe8	  x7:0x0000f07c x27:0xfffff82b
       17535000	      1752	80004fa8	052be663	bltu	x23,x18,80004ff4	 x23:0xffffffff x18:0x07ffffd9
       17545000	      1753	80004fac	bf2dfe37	lui	x28,0xbf2df	 x28=0xbf2df000
       17555000	      1754	80004fb0	03a79663	bne	x15,x26,80004fdc	 x15:0x80009eb4 x26:0x80009fc4
       17565000	      1755	00000000	00000013	addi	x0,x0,0	  x0:0x00000000
       17575000	      1756	80004fd8	00000013	addi	x0,x0,0	  x0:0x00000000
       17585000	      1757	80004fdc	bdcaf693	andi	x13,x21,-1060	 x21:0x00013d68 x13=0x00013948
       17595000	      1758	80004fe0	003cf533	and	x10,x25,x3	 x25:0x5ecffe13  x3:0x0000bdc0 x10=0x0000bc00
       17605000	      1759	80004fe4	000f5e33	srl	x28,x30,x0	 x30:0x00000000  x0:0x00000000 x28=0x00000000
       17615000	      1760	80004fe8	01595913	srli	x18,x18,0x15	 x18:0x07ffffd9 x18=0x0000003f
       17625000	      1761	80004fec	000d96b3	sll	x13,x27,x0	 x27:0xfffff82b  x0:0x00000000 x13=0xfffff82b
       17635000	      1762	80004ff0	04eb6463	bltu	x22,x14,80005038	 x22:0x00000001 x14:0x29000000
       17645000	      1763	00000000	00000013	addi	x0,x0,0	  x0:0x00000000
       17655000	      1764	80005034	00000013	addi	x0,x0,0	  x0:0x00000000
       17665000	      1765	80005038	40874e93	xori	x29,x14,1032	 x14:0x29000000 x29=0x29000408
       17675000	      1766	8000503c	00000013	addi	x0,x0,0	  x0:0x00000000
       17685000	      1767	80005040	00e8bc33	sltu	x24,x17,x14	 x17:0x00000001 x14:0x29000000 x24=0x00000001
       17695000	      1768	80005044	01992b33	slt	x22,x18,x25	 x18:0x0000003f x25:0x5ecffe13 x22=0x00000001
       17705000	      1769	80005048	00000013	addi	x0,x0,0	  x0:0x00000000
       17715000	      1770	8000504c	00194bb3	xor	x23,x18,x1	 x18:0x0000003f  x1:0x00e76590 x23=0x00e765af
       17725000	      1771	80005050	40bb8033	sub	x0,x23,x11	 x23:0x00e765af x11:0xf9229db8
       17735000	      1772	80005054	c677ab13	slti	x22,x15,-921	 x15:0x80009eb4 x22=0x00000001
       17745000	      1773	80005058	47c92113	slti	x2,x18,1148	 x18:0x0000003f  x2=0x00000001
       17755000	      1774	8000505c	036cd263	bge	x25,x22,80005080	 x25:0x5ecffe13 x22:0x00000001
       17765000	      1775	00000000	00000013	addi	x0,x0,0	  x0:0x00000000
       17775000	      1776	8000507c	00000013	addi	x0,x0,0	  x0:0x00000000
       17785000	      1777	80005080	004e1b33	sll	x22,x28,x4	 x28:0x00000000  x4:0xfffffe88 x22=0x00000000
       17795000	      1778	80005084	014ad1b3	srl	x3,x21,x20	 x21:0x00013d68 x20:0xee6c55ed  x3=0x00000009
       17805000	      1779	80005088	015f1393	slli	x7,x30,0x15	 x30:0x00000000  x7=0x00000000
       17815000	      1780	8000508c	00bb2eb3	slt	x29,x22,x11	 x22:0x00000000 x11:0xf9229db8 x29=0x00000000
       17825000	      1781	80005090	011a8db3	add	x27,x21,x17	 x21:0x00013d68 x17:0x00000001 x27=0x00013d69
       17835000	      1782	80005094	cb153113	sltiu	x2,x10,-847	 x10:0x0000bc00  x2=0x00000001
       17845000	      1783	80005098	02b4f463	bgeu	x9,x11,800050c0	  x9:0x18000000 x11:0xf9229db8
       17855000	      1784	8000509c	01d69863	bne	x13,x29,800050ac	 x13:0xfffff82b x29:0x00000000
       17865000	      1785	00000000	00000013	addi	x0,x0,0	  x0:0x00000000
       17875000	      1786	800050a8	00000013	addi	x0,x0,0	  x0:0x00000000
       17885000	      1787	800050ac	00b0f263	bgeu	x1,x11,800050b0	  x1:0x00e76590 x11:0xf9229db8
       17895000	      1788	800050b0	400b7d93	andi	x27,x22,1024	 x22:0x00000000 x27=0x00000000
       17905000	      1789	800050b4	01380263	beq	x16,x19,800050b8	 x16:0x0000f07c x19:0x000005ee
       17915000	      1790	800050b8	0d14b513	sltiu	x10,x9,209	  x9:0x18000000 x10=0x00000000
       17925000	      1791	800050bc	001d5fb3	srl	x31,x26,x1	 x26:0x80009fc4  x1:0x00e76590 x31=0x00008000
       17935000	      1792	800050c0	5f0fc397	auipc	x7,0x5f0fc	  x7=0xdf1010bc
       17945000	      1793	800050c4	01ff9313	slli	x6,x31,0x1f	 x31:0x00008000  x6=0x00000000
       17955000	      1794	800050c8	0183fa63	bgeu	x7,x24,800050dc	  x7:0xdf1010bc x24:0x00000001
       17965000	      1795	00000000	00000013	addi	x0,x0,0	  x0:0x00000000
       17975000	      1796	800050d8	00000013	addi	x0,x0,0	  x0:0x00000000
       17985000	      1797	800050dc	a88ef593	andi	x11,x29,-1400	 x29:0x00000000 x11=0x00000000
       17995000	      1798	800050e0	00bdd533	srl	x10,x27,x11	 x27:0x00000000 x11:0x00000000 x10=0x00000000
       18005000	      1799	800050e4	86beab93	slti	x23,x29,-1941	 x29:0x00000000 x23=0x00000000
       18015000	      1800	800050e8	412ada93	srai	x21,x21,0x12	 x21:0x00013d68 x21=0x00000000
       18025000	      1801	800050ec	f2e92f93	slti	x31,x18,-210	 x18:0x0000003f x31=0x00000000
       18035000	      1802	800050f0	00c27933	and	x18,x4,x12	  x4:0xfffffe88 x12:0x00000000 x18=0x00000000
       18045000	      1803	800050f4	01625193	srli	x3,x4,0x16	  x4:0xfffffe88  x3=0x000003ff
       18055000	      1804	800050f8	0291dc63	bge	x3,x9,80005130	  x3:0x000003ff  x9:0x18000000
       18065000	      1805	800050fc	41b0d313	srai	x6,x1,0x1b	  x1:0x00e76590  x6=0x00000000
       18075000	      1806	80005100	8cd80213	addi	x4,x16,-1843	 x16:0x0000f07c  x4=0x0000e949
       18085000	      1807	80005104	00975893	srli	x17,x14,0x9	 x14:0x29000000 x17=0x00148000
       18095000	      1808	80005108	01d7fdb3	and	x27,x15,x29	 x15:0x80009eb4 x29:0x00000000 x27=0x00000000
       18105000	      1809	8000510c	408c8733	sub	x14,x25,x8	 x25:0x5ecffe13  x8:0x00007fff x14=0x5ecf7e14
       18115000	      1810	80005110	410d85b3	sub	x11,x27,x16	 x27:0x00000000 x16:0x0000f07c x11=0xffff0f84
       18125000	      1811	80005114	a727bc13	sltiu	x24,x15,-1422	 x15:0x80009eb4 x24=0x00000001
       18135000	      1812	80005118	00b8b1b3	sltu	x3,x17,x11	 x17:0x00148000 x11:0xffff0f84  x3=0x00000001
       18145000	      1813	8000511c	00364033	xor	x0,x12,x3	 x12:0x00000000  x3:0x00000001
       18155000	      1814	80005120	c4c0f693	andi	x13,x1,-948	  x1:0x00e76590 x13=0x00e76400
       18165000	      1815	80005124	0045f663	bgeu	x11,x4,80005130	 x11:0xffff0f84  x4:0x0000e949
       18175000	      1816	00000000	00000013	addi	x0,x0,0	  x0:0x00000000
       18185000	      1817	8000512c	00000013	addi	x0,x0,0	  x0:0x00000000
       18195000	      1818	80005130	00b5bdb3	sltu	x27,x11,x11	 x11:0xffff0f84 x11:0xffff0f84 x27=0x00000000
       18205000	      1819	80005134	0007b9b3	sltu	x19,x15,x0	 x15:0x80009eb4  x0:0x00000000 x19=0x00000000
       18215000	      1820	80005138	00c2aeb3	slt	x29,x5,x12	  x5:0x00000000 x12:0x00000000 x29=0x00000000
       18225000	      1821	8000513c	402829b7	lui	x19,0x40282	 x19=0x40282000
       18235000	      1822	80005140	af4eaf93	slti	x31,x29,-1292	 x29:0x00000000 x31=0x00000000
       18245000	      1823	80005144	404cd9b3	sra	x19,x25,x4	 x25:0x5ecffe13  x4:0x0000e949 x19=0x002f67ff
       18255000	      1824	80005148	d7047993	andi	x19,x8,-656	  x8:0x00007fff x19=0x00007d70
       18265000	      1825	8000514c	c4f4ec93	ori	x25,x9,-945	  x9:0x18000000 x25=0xfffffc4f
       18275000	      1826	80005150	001e1b13	slli	x22,x28,0x1	 x28:0x00000000 x22=0x00000000
       18285000	      1827	80005154	0085ceb3	xor	x29,x11,x8	 x11:0xffff0f84  x8:0x00007fff x29=0xffff707b
       18295000	      1828	80005158	04636663	bltu	x6,x6,800051a4	  x6:0x00000000  x6:0x00000000
       18305000	      1829	8000515c	01b89433	sll	x8,x17,x27	 x17:0x00148000 x27:0x00000000  x8=0x00148000
       18315000	      1830	80005160	78a93a93	sltiu	x21,x18,1930	 x18:0x00000000 x21=0x00000001
       18325000	      1831	80005164	01272133	slt	x2,x14,x18	 x14:0x5ecf7e14 x18:0x00000000  x2=0x00000000
       18335000	      1832	80005168	be8a8713	addi	x14,x21,-1048	 x21:0x00000001 x14=0xfffffbe9
       18345000	      1833	8000516c	0027c263	blt	x15,x2,80005170	 x15:0x80009eb4  x2:0x00000000
       18355000	      1834	00000000	00000013	addi	x0,x0,0	  x0:0x00000000
       18365000	      1835	8000516c	00000013	addi	x0,x0,0	  x0:0x00000000
       18375000	      1836	80005170	01fea6b3	slt	x13,x29,x31	 x29:0xffff707b x31:0x00000000 x13=0x00000001
       18385000	      1837	80005174	ea2b8a93	addi	x21,x23,-350	 x23:0x00000000 x21=0xfffffea2
       18395000	      1838	80005178	13e2a093	slti	x1,x5,318	  x5:0x00000000  x1=0x00000001
       18405000	      1839	8000517c	04f36663	bltu	x6,x15,800051c8	  x6:0x00000000 x15:0x80009eb4
       18415000	      1840	00000000	00000013	addi	x0,x0,0	  x0:0x00000000
       18425000	      1841	800051c4	00000013	addi	x0,x0,0	  x0:0x00000000
       18435000	      1842	800051c8	0cfd7a63	bgeu	x26,x15,8000529c	 x26:0x80009fc4 x15:0x80009eb4
       18445000	      1843	00000000	00000013	addi	x0,x0,0	  x0:0x00000000
       18455000	      1844	80005298	00000013	addi	x0,x0,0	  x0:0x00000000
       18465000	      1845	8000529c	002abf33	sltu	x30,x21,x2	 x21:0xfffffea2  x2:0x00000000 x30=0x00000000
       18475000	      1846	800052a0	00b25c33	srl	x24,x4,x11	  x4:0x0000e949 x11:0xffff0f84 x24=0x00000e94
       18485000	      1847	800052a4	018d2433	slt	x8,x26,x24	 x26:0x80009fc4 x24:0x00000e94  x8=0x00000001
       18495000	      1848	800052a8	05a05663	bge	x0,x26,800052f4	  x0:0x00000000 x26:0x80009fc4
       18505000	      1849	00000000	00000013	addi	x0,x0,0	  x0:0x00000000
       18515000	      1850	800052f0	00000013	addi	x0,x0,0	  x0:0x00000000
       18525000	      1851	800052f4	00294eb3	xor	x29,x18,x2	 x18:0x00000000  x2:0x00000000 x29=0x00000000
       18535000	      1852	800052f8	0313e063	bltu	x7,x17,80005318	  x7:0xdf1010bc x17:0x00148000
       18545000	      1853	800052fc	006bdfb3	srl	x31,x23,x6	 x23:0x00000000  x6:0x00000000 x31=0x00000000
       18555000	      1854	80005300	05bef663	bgeu	x29,x27,8000534c	 x29:0x00000000 x27:0x00000000
       18565000	      1855	00000000	00000013	addi	x0,x0,0	  x0:0x00000000
       18575000	      1856	80005348	00000013	addi	x0,x0,0	  x0:0x00000000
       18585000	      1857	8000534c	c0c9a813	slti	x16,x19,-1012	 x19:0x00007d70 x16=0x00000000
       18595000	      1858	80005350	01d80ab3	add	x21,x16,x29	 x16:0x00000000 x29:0x00000000 x21=0x00000000
       18605000	      1859	80005354	02b8fe63	bgeu	x17,x11,80005390	 x17:0x00148000 x11:0xffff0f84
       18615000	      1860	80005358	00c11c63	bne	x2,x12,80005370	  x2:0x00000000 x12:0x00000000
       18625000	      1861	8000535c	41d2dc33	sra	x24,x5,x29	  x5:0x00000000 x29:0x00000000 x24=0x00000000
       18635000	      1862	80005360	00d9e263	bltu	x19,x13,80005364	 x19:0x00007d70 x13:0x00000001
       18645000	      1863	80005364	00065a93	srli	x21,x12,0x0	 x12:0x00000000 x21=0x00000000
       18655000	      1864	80005368	008056b3	srl	x13,x0,x8	  x0:0x00000000  x8:0x00000001 x13=0x00000000
       18665000	      1865	8000536c	6559a013	slti	x0,x19,1621	 x19:0x00007d70
       18675000	      1866	80005370	01349133	sll	x2,x9,x19	  x9:0x18000000 x19:0x00007d70  x2=0x00000000
       18685000	      1867	80005374	0000f933	and	x18,x1,x0	  x1:0x00000001  x0:0x00000000 x18=0x00000000
       18695000	      1868	80005378	006ce533	or	x10,x25,x6	 x25:0xfffffc4f  x6:0x00000000 x10=0xfffffc4f
       18705000	      1869	8000537c	001cd863	bge	x25,x1,8000538c	 x25:0xfffffc4f  x1:0x00000001
       18715000	      1870	80005380	00ba9013	slli	x0,x21,0xb	 x21:0x00000000
       18725000	      1871	80005384	401f0433	sub	x8,x30,x1	 x30:0x00000000  x1:0x00000001  x8=0xffffffff
       18735000	      1872	80005388	010f9493	slli	x9,x31,0x10	 x31:0x00000000  x9=0x00000000
       18745000	      1873	8000538c	02e4e493	ori	x9,x9,46	  x9:0x00000000  x9=0x0000002e
       18755000	      1874	80005390	40fa5a93	srai	x21,x20,0xf	 x20:0xee6c55ed x21=0xffffdcd8
       18765000	      1875	80005394	00da9a13	slli	x20,x21,0xd	 x21:0xffffdcd8 x20=0xfb9b0000
       18775000	      1876	80005398	02190c63	beq	x18,x1,800053d0	 x18:0x00000000  x1:0x00000001
       18785000	      1877	8000539c	b3210593	addi	x11,x2,-1230	  x2:0x00000000 x11=0xfffffb32
       18795000	      1878	800053a0	24dfe013	ori	x0,x31,589	 x31:0x00000000
       18805000	      1879	800053a4	025ae063	bltu	x21,x5,800053c4	 x21:0xffffdcd8  x5:0x00000000
       18815000	      1880	800053a8	01b0ea33	or	x20,x1,x27	  x1:0x00000001 x27:0x00000000 x20=0x00000001
       18825000	      1881	800053ac	013b1413	slli	x8,x22,0x13	 x22:0x00000000  x8=0x00000000
       18835000	      1882	800053b0	4183d3b3	sra	x7,x7,x24	  x7:0xdf1010bc x24:0x00000000  x7=0xdf1010bc
       18845000	      1883	800053b4	a6838d93	addi	x27,x7,-1432	  x7:0xdf1010bc x27=0xdf100b24
       18855000	      1884	800053b8	05b45463	bge	x8,x27,80005400	  x8:0x00000000 x27:0xdf100b24
       18865000	      1885	00000000	00000013	addi	x0,x0,0	  x0:0x00000000
       18875000	      1886	800053fc	00000013	addi	x0,x0,0	  x0:0x00000000
       18885000	      1887	80005400	0572d663	bge	x5,x23,8000544c	  x5:0x00000000 x23:0x00000000
       18895000	      1888	00000000	00000013	addi	x0,x0,0	  x0:0x00000000
       18905000	      1889	80005448	00000013	addi	x0,x0,0	  x0:0x00000000
       18915000	      1890	8000544c	d3545497	auipc	x9,0xd3545	  x9=0x5354a448
       18925000	      1891	80005450	00215663	bge	x2,x2,8000545c	  x2:0x00000000  x2:0x00000000
       18935000	      1892	00000000	00000013	addi	x0,x0,0	  x0:0x00000000
       18945000	      1893	80005458	00000013	addi	x0,x0,0	  x0:0x00000000
       18955000	      1894	8000545c	40a9d1b3	sra	x3,x19,x10	 x19:0x00007d70 x10:0xfffffc4f  x3=0x00000000
       18965000	      1895	80005460	002ba9b3	slt	x19,x23,x2	 x23:0x00000000  x2:0x00000000 x19=0x00000000
       18975000	      1896	80005464	0124f733	and	x14,x9,x18	  x9:0x5354a448 x18:0x00000000 x14=0x00000000
       18985000	      1897	80005468	05a8f463	bgeu	x17,x26,800054b0	 x17:0x00148000 x26:0x80009fc4
       18995000	      1898	8000546c	0007c263	blt	x15,x0,80005470	 x15:0x80009eb4  x0:0x00000000
       19005000	      1899	00000000	00000013	addi	x0,x0,0	  x0:0x00000000
       19015000	      1900	8000546c	00000013	addi	x0,x0,0	  x0:0x00000000
       19025000	      1901	80005470	00691133	sll	x2,x18,x6	 x18:0x00000000  x6:0x00000000  x2=0x00000000
       19035000	      1902	80005474	9b453513	sltiu	x10,x10,-1612	 x10:0xfffffc4f x10=0x00000000
       19045000	      1903	80005478	00f24e33	xor	x28,x4,x15	  x4:0x0000e949 x15:0x80009eb4 x28=0x800077fd
       19055000	      1904	8000547c	00588933	add	x18,x17,x5	 x17:0x00148000  x5:0x00000000 x18=0x00148000
       19065000	      1905	80005480	014e5c63	bge	x28,x20,80005498	 x28:0x800077fd x20:0x00000001
       19075000	      1906	80005484	00b98133	add	x2,x19,x11	 x19:0x00000000 x11:0xfffffb32  x2=0xfffffb32
       19085000	      1907	80005488	0054a1b3	slt	x3,x9,x5	  x9:0x5354a448  x5:0x00000000  x3=0x00000000
       19095000	      1908	8000548c	04b47663	bgeu	x8,x11,800054d8	  x8:0x00000000 x11:0xfffffb32
       19105000	      1909	80005490	008d9ab3	sll	x21,x27,x8	 x27:0xdf100b24  x8:0x00000000 x21=0xdf100b24
       19115000	      1910	80005494	04cdd663	bge	x27,x12,800054e0	 x27:0xdf100b24 x12:0x00000000
       19125000	      1911	80005498	4176db93	srai	x23,x13,0x17	 x13:0x00000000 x23=0x00000000
       19135000	      1912	8000549c	01af4c33	xor	x24,x30,x26	 x30:0x00000000 x26:0x80009fc4 x24=0x80009fc4
       19145000	      1913	800054a0	008ebb33	sltu	x22,x29,x8	 x29:0x00000000  x8:0x00000000 x22=0x00000000
       19155000	      1914	800054a4	04220463	beq	x4,x2,800054ec	  x4:0x0000e949  x2:0xfffffb32
       19165000	      1915	800054a8	013146b3	xor	x13,x2,x19	  x2:0xfffffb32 x19:0x00000000 x13=0xfffffb32
       19175000	      1916	800054ac	00529993	slli	x19,x5,0x5	  x5:0x00000000 x19=0x00000000
       19185000	      1917	800054b0	02e46063	bltu	x8,x14,800054d0	  x8:0x00000000 x14:0x00000000
       19195000	      1918	800054b4	00000013	addi	x0,x0,0	  x0:0x00000000
       19205000	      1919	800054b8	56e40593	addi	x11,x8,1390	  x8:0x00000000 x11=0x0000056e
       19215000	      1920	800054bc	00338b33	add	x22,x7,x3	  x7:0xdf1010bc  x3:0x00000000 x22=0xdf1010bc
       19225000	      1921	800054c0	01776a63	bltu	x14,x23,800054d4	 x14:0x00000000 x23:0x00000000
       19235000	      1922	800054c4	405b5013	srai	x0,x22,0x5	 x22:0xdf1010bc
       19245000	      1923	800054c8	01d2a433	slt	x8,x5,x29	  x5:0x00000000 x29:0x00000000  x8=0x00000000
       19255000	      1924	800054cc	019f3cb3	sltu	x25,x30,x25	 x30:0x00000000 x25:0xfffffc4f x25=0x00000001
       19265000	      1925	800054d0	01ecd213	srli	x4,x25,0x1e	 x25:0x00000001  x4=0x00000000
       19275000	      1926	800054d4	003c1263	bne	x24,x3,800054d8	 x24:0x80009fc4  x3:0x00000000
       19285000	      1927	00000000	00000013	addi	x0,x0,0	  x0:0x00000000
       19295000	      1928	800054d4	00000013	addi	x0,x0,0	  x0:0x00000000
       19305000	      1929	800054d8	009a14b3	sll	x9,x20,x9	 x20:0x00000001  x9:0x5354a448  x9=0x00000100
       19315000	      1930	800054dc	007141b3	xor	x3,x2,x7	  x2:0xfffffb32  x7:0xdf1010bc  x3=0x20efeb8e
       19325000	      1931	800054e0	40a6b337	lui	x6,0x40a6b	  x6=0x40a6b000
       19335000	      1932	800054e4	00dc6eb3	or	x29,x24,x13	 x24:0x80009fc4 x13:0xfffffb32 x29=0xfffffff6
       19345000	      1933	800054e8	e23e8d93	addi	x27,x29,-477	 x29:0xfffffff6 x27=0xfffffe19
       19355000	      1934	800054ec	0065c3b3	xor	x7,x11,x6	 x11:0x0000056e  x6:0x40a6b000  x7=0x40a6b56e
       19365000	      1935	800054f0	879f60b7	lui	x1,0x879f6	  x1=0x879f6000
       19375000	      1936	800054f4	7dc88a93	addi	x21,x17,2012	 x17:0x00148000 x21=0x001487dc
       19385000	      1937	800054f8	00a4d893	srli	x17,x9,0xa	  x9:0x00000100 x17=0x00000000
       19395000	      1938	800054fc	00189533	sll	x10,x17,x1	 x17:0x00000000  x1:0x879f6000 x10=0x00000000
       19405000	      1939	80005500	020e7663	bgeu	x28,x0,8000552c	 x28:0x800077fd  x0:0x00000000
       19415000	      1940	00000000	00000013	addi	x0,x0,0	  x0:0x00000000
       19425000	      1941	80005528	00000013	addi	x0,x0,0	  x0:0x00000000
       19435000	      1942	8000552c	01558933	add	x18,x11,x21	 x11:0x0000056e x21:0x001487dc x18=0x00148d4a
       19445000	      1943	80005530	01823db3	sltu	x27,x4,x24	  x4:0x00000000 x24:0x80009fc4 x27=0x00000001
       19455000	      1944	80005534	c3c42913	slti	x18,x8,-964	  x8:0x00000000 x18=0x00000000
       19465000	      1945	80005538	00bd7c63	bgeu	x26,x11,80005550	 x26:0x80009fc4 x11:0x0000056e
       19475000	      1946	00000000	00000013	addi	x0,x0,0	  x0:0x00000000
       19485000	      1947	8000554c	00000013	addi	x0,x0,0	  x0:0x00000000
       19495000	      1948	80005550	0174e263	bltu	x9,x23,80005554	  x9:0x00000100 x23:0x00000000
       19505000	      1949	80005554	0b1376b7	lui	x13,0xb137	 x13=0x0b137000
       19515000	      1950	80005558	034e7063	bgeu	x28,x20,80005578	 x28:0x800077fd x20:0x00000001
       19525000	      1951	00000000	00000013	addi	x0,x0,0	  x0:0x00000000
       19535000	      1952	80005574	00000013	addi	x0,x0,0	  x0:0x00000000
       19545000	      1953	80005578	04a41663	bne	x8,x10,800055c4	  x8:0x00000000 x10:0x00000000
       19555000	      1954	8000557c	00000013	addi	x0,x0,0	  x0:0x00000000
       19565000	      1955	80005580	02334c63	blt	x6,x3,800055b8	  x6:0x40a6b000  x3:0x20efeb8e
       19575000	      1956	80005584	01a55093	srli	x1,x10,0x1a	 x10:0x00000000  x1=0x00000000
       19585000	      1957	80005588	01ec0a33	add	x20,x24,x30	 x24:0x80009fc4 x30:0x00000000 x20=0x80009fc4
       19595000	      1958	8000558c	4ced7f17	auipc	x30,0x4ced7	 x30=0xccedc588
       19605000	      1959	80005590	40315db3	sra	x27,x2,x3	  x2:0xfffffb32  x3:0x20efeb8e x27=0xffffffff
       19615000	      1960	80005594	01c67b33	and	x22,x12,x28	 x12:0x00000000 x28:0x800077fd x22=0x00000000
       19625000	      1961	80005598	74e77d93	andi	x27,x14,1870	 x14:0x00000000 x27=0x00000000
       19635000	      1962	8000559c	015bd213	srli	x4,x23,0x15	 x23:0x00000000  x4=0x00000000
       19645000	      1963	800055a0	01fe5933	srl	x18,x28,x31	 x28:0x800077fd x31:0x00000000 x18=0x800077fd
       19655000	      1964	800055a4	014bc533	xor	x10,x23,x20	 x23:0x00000000 x20:0x80009fc4 x10=0x80009fc4
       19665000	      1965	800055a8	00000013	addi	x0,x0,0	  x0:0x00000000
       19675000	      1966	800055ac	f4602937	lui	x18,0xf4602	 x18=0xf4602000
       19685000	      1967	800055b0	413e5733	sra	x14,x28,x19	 x28:0x800077fd x19:0x00000000 x14=0x800077fd
       19695000	      1968	800055b4	0057b6b3	sltu	x13,x15,x5	 x15:0x80009eb4  x5:0x00000000 x13=0x00000000
       19705000	      1969	800055b8	00f50833	add	x16,x10,x15	 x10:0x80009fc4 x15:0x80009eb4 x16=0x00013e78
       19715000	      1970	800055bc	01deba33	sltu	x20,x29,x29	 x29:0xfffffff6 x29:0xfffffff6 x20=0x00000000
       19725000	      1971	800055c0	405f0033	sub	x0,x30,x5	 x30:0xccedc588  x5:0x00000000
       19735000	      1972	800055c4	ef454e93	xori	x29,x10,-268	 x10:0x80009fc4 x29=0x7fff6130
       19745000	      1973	800055c8	015e3933	sltu	x18,x28,x21	 x28:0x800077fd x21:0x001487dc x18=0x00000000
       19755000	      1974	800055cc	0165e233	or	x4,x11,x22	 x11:0x0000056e x22:0x00000000  x4=0x0000056e
       19765000	      1975	800055d0	d6ce6013	ori	x0,x28,-660	 x28:0x800077fd
       19775000	      1976	800055d4	02447463	bgeu	x8,x4,800055fc	  x8:0x00000000  x4:0x0000056e
       19785000	      1977	800055d8	05007463	bgeu	x0,x16,80005620	  x0:0x00000000 x16:0x00013e78
       19795000	      1978	800055dc	0108d713	srli	x14,x17,0x10	 x17:0x00000000 x14=0x00000000
       19805000	      1979	800055e0	008d1093	slli	x1,x26,0x8	 x26:0x80009fc4  x1=0x009fc400
       19815000	      1980	800055e4	403105b3	sub	x11,x2,x3	  x2:0xfffffb32  x3:0x20efeb8e x11=0xdf100fa4
       19825000	      1981	800055e8	70d67b13	andi	x22,x12,1805	 x12:0x00000000 x22=0x00000000
       19835000	      1982	800055ec	01275263	bge	x14,x18,800055f0	 x14:0x00000000 x18:0x00000000
       19845000	      1983	00000000	00000013	addi	x0,x0,0	  x0:0x00000000
       19855000	      1984	800055ec	00000013	addi	x0,x0,0	  x0:0x00000000
       19865000	      1985	800055f0	00e7cbb3	xor	x23,x15,x14	 x15:0x80009eb4 x14:0x00000000 x23=0x80009eb4
       19875000	      1986	800055f4	0042bab3	sltu	x21,x5,x4	  x5:0x00000000  x4:0x0000056e x21=0x00000001
       19885000	      1987	800055f8	00dc1233	sll	x4,x24,x13	 x24:0x80009fc4 x13:0x00000000  x4=0x80009fc4
       19895000	      1988	800055fc	7abbd717	auipc	x14,0x7abbd	 x14=0xfabc25f8
       19905000	      1989	80005600	0196efb3	or	x31,x13,x25	 x13:0x00000000 x25:0x00000001 x31=0x00000001
       19915000	      1990	80005604	004259b3	srl	x19,x4,x4	  x4:0x80009fc4  x4:0x80009fc4 x19=0x080009fc
       19925000	      1991	80005608	40c6dd93	srai	x27,x13,0xc	 x13:0x00000000 x27=0x00000000
       19935000	      1992	8000560c	6f856eb7	lui	x29,0x6f856	 x29=0x6f856000
       19945000	      1993	80005610	05928663	beq	x5,x25,8000565c	  x5:0x00000000 x25:0x00000001
       19955000	      1994	80005614	00d32f33	slt	x30,x6,x13	  x6:0x40a6b000 x13:0x00000000 x30=0x00000000
       19965000	      1995	80005618	00e16233	or	x4,x2,x14	  x2:0xfffffb32 x14:0xfabc25f8  x4=0xfffffffa
       19975000	      1996	8000561c	05307663	bgeu	x0,x19,80005668	  x0:0x00000000 x19:0x080009fc
       19985000	      1997	80005620	5c8ca913	slti	x18,x25,1480	 x25:0x00000001 x18=0x00000001
       19995000	      1998	80005624	0181a233	slt	x4,x3,x24	  x3:0x20efeb8e x24:0x80009fc4  x4=0x00000000
       20005000	      1999	80005628	01bc6463	bltu	x24,x27,80005630	 x24:0x80009fc4 x27:0x00000000
       20015000	      2000	8000562c	9192dc17	auipc	x24,0x9192d	 x24=0x11932628
       20025000	      2001	80005630	004bd013	srli	x0,x23,0x4	 x23:0x80009eb4
       20035000	      2002	80005634	15997113	andi	x2,x18,345	 x18:0x00000001  x2=0x00000001
       20045000	      2003	80005638	00e16db3	or	x27,x2,x14	  x2:0x00000001 x14:0xfabc25f8 x27=0xfabc25f9
       20055000	      2004	8000563c	01614b33	xor	x22,x2,x22	  x2:0x00000001 x22:0x00000000 x22=0x00000001
       20065000	      2005	80005640	01b55a63	bge	x10,x27,80005654	 x10:0x80009fc4 x27:0xfabc25f9
       20075000	      2006	80005644	035b0263	beq	x22,x21,80005668	 x22:0x00000001 x21:0x00000001
       20085000	      2007	00000000	00000013	addi	x0,x0,0	  x0:0x00000000
       20095000	      2008	80005664	00000013	addi	x0,x0,0	  x0:0x00000000
       20105000	      2009	80005668	4178da93	srai	x21,x17,0x17	 x17:0x00000000 x21=0x00000000
       20115000	      2010	8000566c	b53ffe13	andi	x28,x31,-1197	 x31:0x00000001 x28=0x00000001
       20125000	      2011	80005670	41265ab3	sra	x21,x12,x18	 x12:0x00000000 x18:0x00000001 x21=0x00000000
       20135000	      2012	80005674	000f0c63	beq	x30,x0,8000568c	 x30:0x00000000  x0:0x00000000
       20145000	      2013	00000000	00000013	addi	x0,x0,0	  x0:0x00000000
       20155000	      2014	80005688	00000013	addi	x0,x0,0	  x0:0x00000000
       20165000	      2015	8000568c	eaa72813	slti	x16,x14,-342	 x14:0xfabc25f8 x16=0x00000001
       20175000	      2016	80005690	019c4263	blt	x24,x25,80005694	 x24:0x11932628 x25:0x00000001
       20185000	      2017	80005694	026b1063	bne	x22,x6,800056b4	 x22:0x00000001  x6:0x40a6b000
       20195000	      2018	00000000	00000013	addi	x0,x0,0	  x0:0x00000000
       20205000	      2019	800056b0	00000013	addi	x0,x0,0	  x0:0x00000000
       20215000	      2020	800056b4	0016c9b3	xor	x19,x13,x1	 x13:0x00000000  x1:0x009fc400 x19=0x009fc400
       20225000	      2021	800056b8	38804413	xori	x8,x0,904	  x0:0x00000000  x8=0x00000388
       20235000	      2022	800056bc	019999b3	sll	x19,x19,x25	 x19:0x009fc400 x25:0x00000001 x19=0x013f8800
       20245000	      2023	800056c0	419e8bb3	sub	x23,x29,x25	 x29:0x6f856000 x25:0x00000001 x23=0x6f855fff
       20255000	      2024	800056c4	407458b3	sra	x17,x8,x7	  x8:0x00000388  x7:0x40a6b56e x17=0x00000000
       20265000	      2025	800056c8	0527c663	blt	x15,x18,80005714	 x15:0x80009eb4 x18:0x00000001
       20275000	      2026	00000000	00000013	addi	x0,x0,0	  x0:0x00000000
       20285000	      2027	80005710	00000013	addi	x0,x0,0	  x0:0x00000000
       20295000	      2028	80005714	04924863	blt	x4,x9,80005764	  x4:0x00000000  x9:0x00000100
       20305000	      2029	00000000	00000013	addi	x0,x0,0	  x0:0x00000000
       20315000	      2030	80005760	00000013	addi	x0,x0,0	  x0:0x00000000
       20325000	      2031	80005764	021e9063	bne	x29,x1,80005784	 x29:0x6f856000  x1:0x009fc400
       20335000	      2032	00000000	00000013	addi	x0,x0,0	  x0:0x00000000
       20345000	      2033	80005780	00000013	addi	x0,x0,0	  x0:0x00000000
       20355000	      2034	80005784	01fce8b3	or	x17,x25,x31	 x25:0x00000001 x31:0x00000001 x17=0x00000001
       20365000	      2035	80005788	05268463	beq	x13,x18,800057d0	 x13:0x00000000 x18:0x00000001
       20375000	      2036	8000578c	5ca52513	slti	x10,x10,1482	 x10:0x80009fc4 x10=0x00000001
       20385000	      2037	80005790	e12a4e17	auipc	x28,0xe12a4	 x28=0x612a978c
       20395000	      2038	80005794	006edc33	srl	x24,x29,x6	 x29:0x6f856000  x6:0x40a6b000 x24=0x6f856000
       20405000	      2039	80005798	0183e833	or	x16,x7,x24	  x7:0x40a6b56e x24:0x6f856000 x16=0x6fa7f56e
       20415000	      2040	8000579c	02096c63	bltu	x18,x0,800057d4	 x18:0x00000001  x0:0x00000000
       20425000	      2041	800057a0	00cc83b3	add	x7,x25,x12	 x25:0x00000001 x12:0x00000000  x7=0x00000001
       20435000	      2042	800057a4	016c5e93	srli	x29,x24,0x16	 x24:0x6f856000 x29=0x000001be
       20445000	      2043	800057a8	0163df13	srli	x30,x7,0x16	  x7:0x00000001 x30=0x00000000
       20455000	      2044	800057ac	d70fa393	slti	x7,x31,-656	 x31:0x00000001  x7=0x00000000
       20465000	      2045	800057b0	537d4313	xori	x6,x26,1335	 x26:0x80009fc4  x6=0x80009af3
       20475000	      2046	800057b4	022bd663	bge	x23,x2,800057e0	 x23:0x6f855fff  x2:0x00000001
       20485000	      2047	00000000	00000013	addi	x0,x0,0	  x0:0x00000000
       20495000	      2048	800057dc	00000013	addi	x0,x0,0	  x0:0x00000000
       20505000	      2049	800057e0	008e5bb3	srl	x23,x28,x8	 x28:0x612a978c  x8:0x00000388 x23=0x00612a97
       20515000	      2050	800057e4	8535b893	sltiu	x17,x11,-1965	 x11:0xdf100fa4 x17=0x00000001
       20525000	      2051	800057e8	05c74663	blt	x14,x28,80005834	 x14:0xfabc25f8 x28:0x612a978c
       20535000	      2052	00000000	00000013	addi	x0,x0,0	  x0:0x00000000
       20545000	      2053	80005830	00000013	addi	x0,x0,0	  x0:0x00000000
       20555000	      2054	80005834	02ae0063	beq	x28,x10,80005854	 x28:0x612a978c x10:0x00000001
       20565000	      2055	80005838	01ba81b3	add	x3,x21,x27	 x21:0x00000000 x27:0xfabc25f9  x3=0xfabc25f9
       20575000	      2056	8000583c	01250863	beq	x10,x18,8000584c	 x10:0x00000001 x18:0x00000001
       20585000	      2057	00000000	00000013	addi	x0,x0,0	  x0:0x00000000
       20595000	      2058	80005848	00000013	addi	x0,x0,0	  x0:0x00000000
       20605000	      2059	8000584c	04895663	bge	x18,x8,80005898	 x18:0x00000001  x8:0x00000388
       20615000	      2060	80005850	31930b93	addi	x23,x6,793	  x6:0x80009af3 x23=0x80009e0c
       20625000	      2061	80005854	005e8a63	beq	x29,x5,80005868	 x29:0x000001be  x5:0x00000000
       20635000	      2062	80005858	41685e33	sra	x28,x16,x22	 x16:0x6fa7f56e x22:0x00000001 x28=0x37d3fab7
       20645000	      2063	8000585c	5b17ef93	ori	x31,x15,1457	 x15:0x80009eb4 x31=0x80009fb5
       20655000	      2064	80005860	005820b3	slt	x1,x16,x5	 x16:0x6fa7f56e  x5:0x00000000  x1=0x00000000
       20665000	      2065	80005864	00000013	addi	x0,x0,0	  x0:0x00000000
       20675000	      2066	80005868	00566663	bltu	x12,x5,80005874	 x12:0x00000000  x5:0x00000000
       20685000	      2067	8000586c	03f5e463	bltu	x11,x31,80005894	 x11:0xdf100fa4 x31:0x80009fb5
       20695000	      2068	80005870	01537933	and	x18,x6,x21	  x6:0x80009af3 x21:0x00000000 x18=0x00000000
       20705000	      2069	80005874	01405993	srli	x19,x0,0x14	  x0:0x00000000 x19=0x00000000
       20715000	      2070	80005878	00000013	addi	x0,x0,0	  x0:0x00000000
       20725000	      2071	8000587c	01f04a33	xor	x20,x0,x31	  x0:0x00000000 x31:0x80009fb5 x20=0x80009fb5
       20735000	      2072	80005880	00e0b133	sltu	x2,x1,x14	  x1:0x00000000 x14:0xfabc25f8  x2=0x00000001
       20745000	      2073	80005884	00d24833	xor	x16,x4,x13	  x4:0x00000000 x13:0x00000000 x16=0x00000000
       20755000	      2074	80005888	05078263	beq	x15,x16,800058cc	 x15:0x80009eb4 x16:0x00000000
       20765000	      2075	8000588c	506bf293	andi	x5,x23,1286	 x23:0x80009e0c  x5=0x00000404
       20775000	      2076	80005890	013e9c63	bne	x29,x19,800058a8	 x29:0x000001be x19:0x00000000
       20785000	      2077	00000000	00000013	addi	x0,x0,0	  x0:0x00000000
       20795000	      2078	800058a4	00000013	addi	x0,x0,0	  x0:0x00000000
       20805000	      2079	800058a8	047b5863	bge	x22,x7,800058f8	 x22:0x00000001  x7:0x00000000
       20815000	      2080	00000000	00000013	addi	x0,x0,0	  x0:0x00000000
       20825000	      2081	800058f4	00000013	addi	x0,x0,0	  x0:0x00000000
       20835000	      2082	800058f8	00995b93	srli	x23,x18,0x9	 x18:0x00000000 x23=0x00000000
       20845000	      2083	800058fc	01633fb3	sltu	x31,x6,x22	  x6:0x80009af3 x22:0x00000001 x31=0x00000000
       20855000	      2084	80005900	5a43c493	xori	x9,x7,1444	  x7:0x00000000  x9=0x000005a4
       20865000	      2085	80005904	05a16463	bltu	x2,x26,8000594c	  x2:0x00000001 x26:0x80009fc4
       20875000	      2086	00000000	00000013	addi	x0,x0,0	  x0:0x00000000
       20885000	      2087	80005948	00000013	addi	x0,x0,0	  x0:0x00000000
       20895000	      2088	8000594c	0bc08c93	addi	x25,x1,188	  x1:0x00000000 x25=0x000000bc
       20905000	      2089	80005950	01edbf33	sltu	x30,x27,x30	 x27:0xfabc25f9 x30:0x00000000 x30=0x00000000
       20915000	      2090	80005954	68de4993	xori	x19,x28,1677	 x28:0x37d3fab7 x19=0x37d3fc3a
       20925000	      2091	80005958	01dc1bb3	sll	x23,x24,x29	 x24:0x6f856000 x29:0x000001be x23=0x00000000
       20935000	      2092	8000595c	00a7d263	bge	x15,x10,80005960	 x15:0x80009eb4 x10:0x00000001
       20945000	      2093	80005960	00fe24b3	slt	x9,x28,x15	 x28:0x37d3fab7 x15:0x80009eb4  x9=0x00000000
       20955000	      2094	80005964	00285993	srli	x19,x16,0x2	 x16:0x00000000 x19=0x00000000
       20965000	      2095	80005968	7411ef93	ori	x31,x3,1857	  x3:0xfabc25f9 x31=0xfabc27f9
       20975000	      2096	8000596c	0455e463	bltu	x11,x5,800059b4	 x11:0xdf100fa4  x5:0x00000404
       20985000	      2097	80005970	e0ebb013	sltiu	x0,x23,-498	 x23:0x00000000
       20995000	      2098	80005974	40325e33	sra	x28,x4,x3	  x4:0x00000000  x3:0xfabc25f9 x28=0x00000000
       21005000	      2099	80005978	013f5313	srli	x6,x30,0x13	 x30:0x00000000  x6=0x00000000
       21015000	      2100	8000597c	00f5ee33	or	x28,x11,x15	 x11:0xdf100fa4 x15:0x80009eb4 x28=0xdf109fb4
       21025000	      2101	80005980	6a8b3413	sltiu	x8,x22,1704	 x22:0x00000001  x8=0x00000001
       21035000	      2102	80005984	ca3665b7	lui	x11,0xca366	 x11=0xca366000
       21045000	      2103	80005988	9e796c93	ori	x25,x18,-1561	 x18:0x00000000 x25=0xfffff9e7
       21055000	      2104	8000598c	78e22893	slti	x17,x4,1934	  x4:0x00000000 x17=0x00000001
       21065000	      2105	80005990	00db92b3	sll	x5,x23,x13	 x23:0x00000000 x13:0x00000000  x5=0x00000000
       21075000	      2106	80005994	05510263	beq	x2,x21,800059d8	  x2:0x00000001 x21:0x00000000
       21085000	      2107	80005998	054ec463	blt	x29,x20,800059e0	 x29:0x000001be x20:0x80009fb5
       21095000	      2108	8000599c	c225fb13	andi	x22,x11,-990	 x11:0xca366000 x22=0xca366000
       21105000	      2109	800059a0	01085293	srli	x5,x16,0x10	 x16:0x00000000  x5=0x00000000
       21115000	      2110	800059a4	4e4791b7	lui	x3,0x4e479	  x3=0x4e479000
       21125000	      2111	800059a8	028e5263	bge	x28,x8,800059cc	 x28:0xdf109fb4  x8:0x00000001
       21135000	      2112	800059ac	01776263	bltu	x14,x23,800059b0	 x14:0xfabc25f8 x23:0x00000000
       21145000	      2113	800059b0	e074f513	andi	x10,x9,-505	  x9:0x00000000 x10=0x00000000
       21155000	      2114	800059b4	00f46663	bltu	x8,x15,800059c0	  x8:0x00000001 x15:0x80009eb4
       21165000	      2115	00000000	00000013	addi	x0,x0,0	  x0:0x00000000
       21175000	      2116	800059bc	00000013	addi	x0,x0,0	  x0:0x00000000
       21185000	      2117	800059c0	01b75863	bge	x14,x27,800059d0	 x14:0xfabc25f8 x27:0xfabc25f9
       21195000	      2118	800059c4	5a6fbb93	sltiu	x23,x31,1446	 x31:0xfabc27f9 x23=0x00000000
       21205000	      2119	800059c8	01f7ceb3	xor	x29,x15,x31	 x15:0x80009eb4 x31:0xfabc27f9 x29=0x7abcb94d
       21215000	      2120	800059cc	018dbeb3	sltu	x29,x27,x24	 x27:0xfabc25f9 x24:0x6f856000 x29=0x00000000
       21225000	      2121	800059d0	419509b3	sub	x19,x10,x25	 x10:0x00000000 x25:0xfffff9e7 x19=0x00000619
       21235000	      2122	800059d4	861fbd93	sltiu	x27,x31,-1951	 x31:0xfabc27f9 x27=0x00000001
       21245000	      2123	800059d8	ab29b193	sltiu	x3,x19,-1358	 x19:0x00000619  x3=0x00000001
       21255000	      2124	800059dc	00751733	sll	x14,x10,x7	 x10:0x00000000  x7:0x00000000 x14=0x00000000
       21265000	      2125	800059e0	0044e663	bltu	x9,x4,800059ec	  x9:0x00000000  x4:0x00000000
       21275000	      2126	800059e4	013f10b3	sll	x1,x30,x19	 x30:0x00000000 x19:0x00000619  x1=0x00000000
       21285000	      2127	800059e8	0137e233	or	x4,x15,x19	 x15:0x80009eb4 x19:0x00000619  x4=0x80009ebd
       21295000	      2128	800059ec	00ffaeb3	slt	x29,x31,x15	 x31:0xfabc27f9 x15:0x80009eb4 x29=0x00000000
       21305000	      2129	800059f0	002139b3	sltu	x19,x2,x2	  x2:0x00000001  x2:0x00000001 x19=0x00000000
       21315000	      2130	800059f4	01627a63	bgeu	x4,x22,80005a08	  x4:0x80009ebd x22:0xca366000
       21325000	      2131	800059f8	00a16db3	or	x27,x2,x10	  x2:0x00000001 x10:0x00000000 x27=0x00000001
       21335000	      2132	800059fc	00f5fbb3	and	x23,x11,x15	 x11:0xca366000 x15:0x80009eb4 x23=0x80000000
       21345000	      2133	80005a00	0018cfb3	xor	x31,x17,x1	 x17:0x00000001  x1:0x00000000 x31=0x00000001
       21355000	      2134	80005a04	006a9913	slli	x18,x21,0x6	 x21:0x00000000 x18=0x00000000
       21365000	      2135	80005a08	01e29293	slli	x5,x5,0x1e	  x5:0x00000000  x5=0x00000000
       21375000	      2136	80005a0c	01f05a33	srl	x20,x0,x31	  x0:0x00000000 x31:0x00000001 x20=0x00000000
       21385000	      2137	80005a10	01c99013	slli	x0,x19,0x1c	 x19:0x00000000
       21395000	      2138	80005a14	01953a33	sltu	x20,x10,x25	 x10:0x00000000 x25:0xfffff9e7 x20=0x00000001
       21405000	      2139	80005a18	054e6463	bltu	x28,x20,80005a60	 x28:0xdf109fb4 x20:0x00000001
       21415000	      2140	80005a1c	0043c0b3	xor	x1,x7,x4	  x7:0x00000000  x4:0x80009ebd  x1=0x80009ebd
       21425000	      2141	80005a20	a05c8913	addi	x18,x25,-1531	 x25:0xfffff9e7 x18=0xfffff3ec
       21435000	      2142	80005a24	00269e63	bne	x13,x2,80005a40	 x13:0x00000000  x2:0x00000001
       21445000	      2143	00000000	00000013	addi	x0,x0,0	  x0:0x00000000
       21455000	      2144	80005a3c	00000013	addi	x0,x0,0	  x0:0x00000000
       21465000	      2145	80005a40	009cda93	srli	x21,x25,0x9	 x25:0xfffff9e7 x21=0x007ffffc
       21475000	      2146	80005a44	c2bbc493	xori	x9,x23,-981	 x23:0x80000000  x9=0x7ffffc2b
       21485000	      2147	80005a48	02125663	bge	x4,x1,80005a74	  x4:0x80009ebd  x1:0x80009ebd
       21495000	      2148	00000000	00000013	addi	x0,x0,0	  x0:0x00000000
       21505000	      2149	80005a70	00000013	addi	x0,x0,0	  x0:0x00000000
       21515000	      2150	80005a74	0295d063	bge	x11,x9,80005a94	 x11:0xca366000  x9:0x7ffffc2b
       21525000	      2151	80005a78	00011eb3	sll	x29,x2,x0	  x2:0x00000001  x0:0x00000000 x29=0x00000001
       21535000	      2152	80005a7c	01e154b3	srl	x9,x2,x30	  x2:0x00000001 x30:0x00000000  x9=0x00000001
       21545000	      2153	80005a80	00e624b3	slt	x9,x12,x14	 x12:0x00000000 x14:0x00000000  x9=0x00000000
       21555000	      2154	80005a84	03ca0063	beq	x20,x28,80005aa4	 x20:0x00000001 x28:0xdf109fb4
       21565000	      2155	80005a88	01194833	xor	x16,x18,x17	 x18:0xfffff3ec x17:0x00000001 x16=0xfffff3ed
       21575000	      2156	80005a8c	030cee63	bltu	x25,x16,80005ac8	 x25:0xfffff9e7 x16:0xfffff3ed
       21585000	      2157	80005a90	00000013	addi	x0,x0,0	  x0:0x00000000
       21595000	      2158	80005a94	00763e33	sltu	x28,x12,x7	 x12:0x00000000  x7:0x00000000 x28=0x00000000
       21605000	      2159	80005a98	01342133	slt	x2,x8,x19	  x8:0x00000001 x19:0x00000000  x2=0x00000000
       21615000	      2160	80005a9c	013c6733	or	x14,x24,x19	 x24:0x6f856000 x19:0x00000000 x14=0x6f856000
       21625000	      2161	80005aa0	b33f0513	addi	x10,x30,-1229	 x30:0x00000000 x10=0xfffffb33
       21635000	      2162	80005aa4	010695b3	sll	x11,x13,x16	 x13:0x00000000 x16:0xfffff3ed x11=0x00000000
       21645000	      2163	80005aa8	403f5fb3	sra	x31,x30,x3	 x30:0x00000000  x3:0x00000001 x31=0x00000000
       21655000	      2164	80005aac	01015eb3	srl	x29,x2,x16	  x2:0x00000000 x16:0xfffff3ed x29=0x00000000
       21665000	      2165	80005ab0	00480bb3	add	x23,x16,x4	 x16:0xfffff3ed  x4:0x80009ebd x23=0x800092aa
       21675000	      2166	80005ab4	008eb833	sltu	x16,x29,x8	 x29:0x00000000  x8:0x00000001 x16=0x00000001
       21685000	      2167	80005ab8	00000013	addi	x0,x0,0	  x0:0x00000000
       21695000	      2168	80005abc	620abc93	sltiu	x25,x21,1568	 x21:0x007ffffc x25=0x00000000
       21705000	      2169	80005ac0	03808c63	beq	x1,x24,80005af8	  x1:0x80009ebd x24:0x6f856000
       21715000	      2170	80005ac4	0002d733	srl	x14,x5,x0	  x5:0x00000000  x0:0x00000000 x14=0x00000000
       21725000	      2171	80005ac8	4178db33	sra	x22,x17,x23	 x17:0x00000001 x23:0x800092aa x22=0x00000000
       21735000	      2172	80005acc	40875593	srai	x11,x14,0x8	 x14:0x00000000 x11=0x00000000
       21745000	      2173	80005ad0	a3226813	ori	x16,x4,-1486	  x4:0x80009ebd x16=0xfffffebf
       21755000	      2174	80005ad4	000c6333	or	x6,x24,x0	 x24:0x6f856000  x0:0x00000000  x6=0x6f856000
       21765000	      2175	80005ad8	00ae3233	sltu	x4,x28,x10	 x28:0x00000000 x10:0xfffffb33  x4=0x00000001
       21775000	      2176	80005adc	00d6a133	slt	x2,x13,x13	 x13:0x00000000 x13:0x00000000  x2=0x00000000
       21785000	      2177	80005ae0	41e1d093	srai	x1,x3,0x1e	  x3:0x00000001  x1=0x00000000
       21795000	      2178	80005ae4	ace29937	lui	x18,0xace29	 x18=0xace29000
       21805000	      2179	80005ae8	059fc663	blt	x31,x25,80005b34	 x31:0x00000000 x25:0x00000000
       21815000	      2180	80005aec	005f2f33	slt	x30,x30,x5	 x30:0x00000000  x5:0x00000000 x30=0x00000000
       21825000	      2181	80005af0	6601af13	slti	x30,x3,1632	  x3:0x00000001 x30=0x00000001
       21835000	      2182	80005af4	02568c63	beq	x13,x5,80005b2c	 x13:0x00000000  x5:0x00000000
       21845000	      2183	00000000	00000013	addi	x0,x0,0	  x0:0x00000000
       21855000	      2184	80005b28	00000013	addi	x0,x0,0	  x0:0x00000000
       21865000	      2185	80005b2c	019ace63	blt	x21,x25,80005b48	 x21:0x007ffffc x25:0x00000000
       21875000	      2186	80005b30	409b09b3	sub	x19,x22,x9	 x22:0x00000000  x9:0x00000000 x19=0x00000000
       21885000	      2187	80005b34	91361f37	lui	x30,0x91361	 x30=0x91361000
       21895000	      2188	80005b38	4b247013	andi	x0,x8,1202	  x8:0x00000001
       21905000	      2189	80005b3c	003c1f33	sll	x30,x24,x3	 x24:0x6f856000  x3:0x00000001 x30=0xdf0ac000
       21915000	      2190	80005b40	77e6ba93	sltiu	x21,x13,1918	 x13:0x00000000 x21=0x00000001
       21925000	      2191	80005b44	41a75033	sra	x0,x14,x26	 x14:0x00000000 x26:0x80009fc4
       21935000	      2192	80005b48	01e80db3	add	x27,x16,x30	 x16:0xfffffebf x30:0xdf0ac000 x27=0xdf0abebf
       21945000	      2193	80005b4c	016c75b3	and	x11,x24,x22	 x24:0x6f856000 x22:0x00000000 x11=0x00000000
       21955000	      2194	80005b50	0125a333	slt	x6,x11,x18	 x11:0x00000000 x18:0xace29000  x6=0x00000000
       21965000	      2195	80005b54	001b4263	blt	x22,x1,80005b58	 x22:0x00000000  x1:0x00000000
       21975000	      2196	80005b58	006593b3	sll	x7,x11,x6	 x11:0x00000000  x6:0x00000000  x7=0x00000000
       21985000	      2197	80005b5c	00305463	bge	x0,x3,80005b64	  x0:0x00000000  x3:0x00000001
       21995000	      2198	80005b60	40eedb13	srai	x22,x29,0xe	 x29:0x00000000 x22=0x00000000
       22005000	      2199	80005b64	00000013	addi	x0,x0,0	  x0:0x00000000
       22015000	      2200	80005b68	8592f493	andi	x9,x5,-1959	  x5:0x00000000  x9=0x00000000
       22025000	      2201	80005b6c	33a20237	lui	x4,0x33a20	  x4=0x33a20000
       22035000	      2202	80005b70	4f04c317	auipc	x6,0x4f04c	  x6=0xcf051b6c
       22045000	      2203	80005b74	05560663	beq	x12,x21,80005bc0	 x12:0x00000000 x21:0x00000001
       22055000	      2204	80005b78	f37df593	andi	x11,x27,-201	 x27:0xdf0abebf x11=0xdf0abe37
       22065000	      2205	80005b7c	000f5013	srli	x0,x30,0x0	 x30:0xdf0ac000
       22075000	      2206	80005b80	02da7063	bgeu	x20,x13,80005ba0	 x20:0x00000001 x13:0x00000000
       22085000	      2207	00000000	00000013	addi	x0,x0,0	  x0:0x00000000
       22095000	      2208	80005b9c	00000013	addi	x0,x0,0	  x0:0x00000000
       22105000	      2209	80005ba0	003fdc63	bge	x31,x3,80005bb8	 x31:0x00000000  x3:0x00000001
       22115000	      2210	80005ba4	018b02b3	add	x5,x22,x24	 x22:0x00000000 x24:0x6f856000  x5=0x6f856000
       22125000	      2211	80005ba8	05401663	bne	x0,x20,80005bf4	  x0:0x00000000 x20:0x00000001
       22135000	      2212	00000000	00000013	addi	x0,x0,0	  x0:0x00000000
       22145000	      2213	80005bf0	00000013	addi	x0,x0,0	  x0:0x00000000
       22155000	      2214	80005bf4	00605133	srl	x2,x0,x6	  x0:0x00000000  x6:0xcf051b6c  x2=0x00000000
       22165000	      2215	80005bf8	8d608e13	addi	x28,x1,-1834	  x1:0x00000000 x28=0xfffff8d6
       22175000	      2216	80005bfc	4193d693	srai	x13,x7,0x19	  x7:0x00000000 x13=0x00000000
       22185000	      2217	80005c00	02c74e63	blt	x14,x12,80005c3c	 x14:0x00000000 x12:0x00000000
       22195000	      2218	80005c04	01b7c9b3	xor	x19,x15,x27	 x15:0x80009eb4 x27:0xdf0abebf x19=0x5f0a200b
       22205000	      2219	80005c08	934b8413	addi	x8,x23,-1740	 x23:0x800092aa  x8=0x80008bde
       22215000	      2220	80005c0c	ad7e2593	slti	x11,x28,-1321	 x28:0xfffff8d6 x11=0x00000001
       22225000	      2221	80005c10	03d41063	bne	x8,x29,80005c30	  x8:0x80008bde x29:0x00000000
       22235000	      2222	00000000	00000013	addi	x0,x0,0	  x0:0x00000000
       22245000	      2223	80005c2c	00000013	addi	x0,x0,0	  x0:0x00000000
       22255000	      2224	80005c30	008a1293	slli	x5,x20,0x8	 x20:0x00000001  x5=0x00000100
       22265000	      2225	80005c34	79303b13	sltiu	x22,x0,1939	  x0:0x00000000 x22=0x00000001
       22275000	      2226	80005c38	02af8263	beq	x31,x10,80005c5c	 x31:0x00000000 x10:0xfffffb33
       22285000	      2227	80005c3c	400bd433	sra	x8,x23,x0	 x23:0x800092aa  x0:0x00000000  x8=0x800092aa
       22295000	      2228	80005c40	03edc063	blt	x27,x30,80005c60	 x27:0xdf0abebf x30:0xdf0ac000
       22305000	      2229	00000000	00000013	addi	x0,x0,0	  x0:0x00000000
       22315000	      2230	80005c5c	00000013	addi	x0,x0,0	  x0:0x00000000
       22325000	      2231	80005c60	037d9463	bne	x27,x23,80005c88	 x27:0xdf0abebf x23:0x800092aa
       22335000	      2232	00000000	00000013	addi	x0,x0,0	  x0:0x00000000
       22345000	      2233	80005c84	00000013	addi	x0,x0,0	  x0:0x00000000
       22355000	      2234	80005c88	0db52213	slti	x4,x10,219	 x10:0xfffffb33  x4=0x00000001
       22365000	      2235	80005c8c	4f8c9d97	auipc	x27,0x4f8c9	 x27=0xcf8cec88
       22375000	      2236	80005c90	05509463	bne	x1,x21,80005cd8	  x1:0x00000000 x21:0x00000001
       22385000	      2237	00000000	00000013	addi	x0,x0,0	  x0:0x00000000
       22395000	      2238	80005cd4	00000013	addi	x0,x0,0	  x0:0x00000000
       22405000	      2239	80005cd8	014cffb3	and	x31,x25,x20	 x25:0x00000000 x20:0x00000001 x31=0x00000000
       22415000	      2240	80005cdc	00f72033	slt	x0,x14,x15	 x14:0x00000000 x15:0x80009eb4
       22425000	      2241	80005ce0	01711893	slli	x17,x2,0x17	  x2:0x00000000 x17=0x00000000
       22435000	      2242	80005ce4	41efde33	sra	x28,x31,x30	 x31:0x00000000 x30:0xdf0ac000 x28=0x00000000
       22445000	      2243	80005ce8	01dfecb3	or	x25,x31,x29	 x31:0x00000000 x29:0x00000000 x25=0x00000000
       22455000	      2244	80005cec	03f07c63	bgeu	x0,x31,80005d24	  x0:0x00000000 x31:0x00000000
       22465000	      2245	00000000	00000013	addi	x0,x0,0	  x0:0x00000000
       22475000	      2246	80005d20	00000013	addi	x0,x0,0	  x0:0x00000000
       22485000	      2247	80005d24	0022ea63	bltu	x5,x2,80005d38	  x5:0x00000100  x2:0x00000000
       22495000	      2248	80005d28	0410c463	blt	x1,x1,80005d70	  x1:0x00000000  x1:0x00000000
       22505000	      2249	80005d2c	00000013	addi	x0,x0,0	  x0:0x00000000
       22515000	      2250	80005d30	010f7433	and	x8,x30,x16	 x30:0xdf0ac000 x16:0xfffffebf  x8=0xdf0ac000
       22525000	      2251	80005d34	01b01463	bne	x0,x27,80005d3c	  x0:0x00000000 x27:0xcf8cec88
       22535000	      2252	00000000	00000013	addi	x0,x0,0	  x0:0x00000000
       22545000	      2253	80005d38	00000013	addi	x0,x0,0	  x0:0x00000000
       22555000	      2254	80005d3c	7dfc3093	sltiu	x1,x24,2015	 x24:0x6f856000  x1=0x00000000
       22565000	      2255	80005d40	041dd663	bge	x27,x1,80005d8c	 x27:0xcf8cec88  x1:0x00000000
       22575000	      2256	80005d44	413d8ab3	sub	x21,x27,x19	 x27:0xcf8cec88 x19:0x5f0a200b x21=0x7082cc7d
       22585000	      2257	80005d48	fee7c213	xori	x4,x15,-18	 x15:0x80009eb4  x4=0x7fff615a
       22595000	      2258	80005d4c	3f1abb93	sltiu	x23,x21,1009	 x21:0x7082cc7d x23=0x00000000
       22605000	      2259	80005d50	00426863	bltu	x4,x4,80005d60	  x4:0x7fff615a  x4:0x7fff615a
       22615000	      2260	80005d54	8a2bc017	auipc	x0,0x8a2bc	
       22625000	      2261	80005d58	005f1e63	bne	x30,x5,80005d74	 x30:0xdf0ac000  x5:0x00000100
       22635000	      2262	00000000	00000013	addi	x0,x0,0	  x0:0x00000000
       22645000	      2263	80005d70	00000013	addi	x0,x0,0	  x0:0x00000000
       22655000	      2264	80005d74	0e08a313	slti	x6,x17,224	 x17:0x00000000  x6=0x00000001
       22665000	      2265	80005d78	42ac7a13	andi	x20,x24,1066	 x24:0x6f856000 x20=0x00000000
       22675000	      2266	80005d7c	00000013	addi	x0,x0,0	  x0:0x00000000
       22685000	      2267	80005d80	01244533	xor	x10,x8,x18	  x8:0xdf0ac000 x18:0xace29000 x10=0x73e85000
       22695000	      2268	80005d84	35f7ee13	ori	x28,x15,863	 x15:0x80009eb4 x28=0x80009fff
       22705000	      2269	80005d88	019e8c63	beq	x29,x25,80005da0	 x29:0x00000000 x25:0x00000000
       22715000	      2270	00000000	00000013	addi	x0,x0,0	  x0:0x00000000
       22725000	      2271	80005d9c	00000013	addi	x0,x0,0	  x0:0x00000000
       22735000	      2272	80005da0	052a6663	bltu	x20,x18,80005dec	 x20:0x00000000 x18:0xace29000
       22745000	      2273	00000000	00000013	addi	x0,x0,0	  x0:0x00000000
       22755000	      2274	80005de8	00000013	addi	x0,x0,0	  x0:0x00000000
       22765000	      2275	80005dec	bace2a93	slti	x21,x28,-1108	 x28:0x80009fff x21=0x00000001
       22775000	      2276	80005df0	41c0d813	srai	x16,x1,0x1c	  x1:0x00000000 x16=0x00000000
       22785000	      2277	80005df4	01e19293	slli	x5,x3,0x1e	  x3:0x00000001  x5=0x40000000
       22795000	      2278	80005df8	00415eb3	srl	x29,x2,x4	  x2:0x00000000  x4:0x7fff615a x29=0x00000000
       22805000	      2279	80005dfc	017c5c33	srl	x24,x24,x23	 x24:0x6f856000 x23:0x00000000 x24=0x6f856000
       22815000	      2280	80005e00	24056e97	auipc	x29,0x24056	 x29=0xa405bdfc
       22825000	      2281	80005e04	05c45663	bge	x8,x28,80005e50	  x8:0xdf0ac000 x28:0x80009fff
       22835000	      2282	00000000	00000013	addi	x0,x0,0	  x0:0x00000000
       22845000	      2283	80005e4c	00000013	addi	x0,x0,0	  x0:0x00000000
       22855000	      2284	80005e50	006ea6b3	slt	x13,x29,x6	 x29:0xa405bdfc  x6:0x00000001 x13=0x00000001
       22865000	      2285	80005e54	01c78033	add	x0,x15,x28	 x15:0x80009eb4 x28:0x80009fff
       22875000	      2286	80005e58	00ceea33	or	x20,x29,x12	 x29:0xa405bdfc x12:0x00000000 x20=0xa405bdfc
       22885000	      2287	80005e5c	41a4dcb3	sra	x25,x9,x26	  x9:0x00000000 x26:0x80009fc4 x25=0x00000000
       22895000	      2288	80005e60	00dcc6b3	xor	x13,x25,x13	 x25:0x00000000 x13:0x00000001 x13=0x00000001
       22905000	      2289	80005e64	005280b3	add	x1,x5,x5	  x5:0x40000000  x5:0x40000000  x1=0x80000000
       22915000	      2290	80005e68	ed987293	andi	x5,x16,-295	 x16:0x00000000  x5=0x00000000
       22925000	      2291	80005e6c	03c78063	beq	x15,x28,80005e8c	 x15:0x80009eb4 x28:0x80009fff
       22935000	      2292	80005e70	00d63cb3	sltu	x25,x12,x13	 x12:0x00000000 x13:0x00000001 x25=0x00000001
       22945000	      2293	80005e74	01d0dd93	srli	x27,x1,0x1d	  x1:0x80000000 x27=0x00000004
       22955000	      2294	80005e78	005a8c63	beq	x21,x5,80005e90	 x21:0x00000001  x5:0x00000000
       22965000	      2295	80005e7c	03fe6463	bltu	x28,x31,80005ea4	 x28:0x80009fff x31:0x00000000
       22975000	      2296	80005e80	004fd0b3	srl	x1,x31,x4	 x31:0x00000000  x4:0x7fff615a  x1=0x00000000
       22985000	      2297	80005e84	40cddc33	sra	x24,x27,x12	 x27:0x00000004 x12:0x00000000 x24=0x00000004
       22995000	      2298	80005e88	00c364b3	or	x9,x6,x12	  x6:0x00000001 x12:0x00000000  x9=0x00000001
       23005000	      2299	80005e8c	5b1ec513	xori	x10,x29,1457	 x29:0xa405bdfc x10=0xa405b84d
       23015000	      2300	80005e90	00811813	slli	x16,x2,0x8	  x2:0x00000000 x16=0x00000000
       23025000	      2301	80005e94	b3c2e517	auipc	x10,0xb3c2e	 x10=0x33c33e90
       23035000	      2302	80005e98	01763bb3	sltu	x23,x12,x23	 x12:0x00000000 x23:0x00000000 x23=0x00000000
       23045000	      2303	80005e9c	00133db3	sltu	x27,x6,x1	  x6:0x00000001  x1:0x00000000 x27=0x00000000
       23055000	      2304	80005ea0	02a91e63	bne	x18,x10,80005edc	 x18:0xace29000 x10:0x33c33e90
       23065000	      2305	00000000	00000013	addi	x0,x0,0	  x0:0x00000000
       23075000	      2306	80005ed8	00000013	addi	x0,x0,0	  x0:0x00000000
       23085000	      2307	80005edc	406f5713	srai	x14,x30,0x6	 x30:0xdf0ac000 x14=0xff7c2b00
       23095000	      2308	80005ee0	30672f13	slti	x30,x14,774	 x14:0xff7c2b00 x30=0x00000001
       23105000	      2309	80005ee4	39496db7	lui	x27,0x39496	 x27=0x39496000
       23115000	      2310	80005ee8	405f5333	sra	x6,x30,x5	 x30:0x00000001  x5:0x00000000  x6=0x00000001
       23125000	      2311	80005eec	0048c863	blt	x17,x4,80005efc	 x17:0x00000000  x4:0x7fff615a
       23135000	      2312	00000000	00000013	addi	x0,x0,0	  x0:0x00000000
       23145000	      2313	80005ef8	00000013	addi	x0,x0,0	  x0:0x00000000
       23155000	      2314	80005efc	001cd093	srli	x1,x25,0x1	 x25:0x00000001  x1=0x00000000
       23165000	      2315	80005f00	0496f263	bgeu	x13,x9,80005f44	 x13:0x00000001  x9:0x00000001
       23175000	      2316	00000000	00000013	addi	x0,x0,0	  x0:0x00000000
       23185000	      2317	80005f40	00000013	addi	x0,x0,0	  x0:0x00000000
       23195000	      2318	80005f44	0010f6b3	and	x13,x1,x1	  x1:0x00000000  x1:0x00000000 x13=0x00000000
       23205000	      2319	80005f48	89313013	sltiu	x0,x2,-1901	  x2:0x00000000
       23215000	      2320	80005f4c	53fe8213	addi	x4,x29,1343	 x29:0xa405bdfc  x4=0xa405c33b
       23225000	      2321	80005f50	01190a63	beq	x18,x17,80005f64	 x18:0xace29000 x17:0x00000000
       23235000	      2322	80005f54	00a541b3	xor	x3,x10,x10	 x10:0x33c33e90 x10:0x33c33e90  x3=0x00000000
       23245000	      2323	80005f58	01d54733	xor	x14,x10,x29	 x10:0x33c33e90 x29:0xa405bdfc x14=0x97c6836c
       23255000	      2324	80005f5c	004f1693	slli	x13,x30,0x4	 x30:0x00000001 x13=0x00000010
       23265000	      2325	80005f60	00000013	addi	x0,x0,0	  x0:0x00000000
       23275000	      2326	80005f64	00b66f33	or	x30,x12,x11	 x12:0x00000000 x11:0x00000001 x30=0x00000001
       23285000	      2327	80005f68	0a96f697	auipc	x13,0xa96f	 x13=0x8a974f64
       23295000	      2328	80005f6c	0083da93	srli	x21,x7,0x8	  x7:0x00000000 x21=0x00000000
       23305000	      2329	80005f70	0019b4b3	sltu	x9,x19,x1	 x19:0x5f0a200b  x1:0x00000000  x9=0x00000000
       23315000	      2330	80005f74	01f7d513	srli	x10,x15,0x1f	 x15:0x80009eb4 x10=0x00000001
       23325000	      2331	80005f78	427c7413	andi	x8,x24,1063	 x24:0x00000004  x8=0x00000004
       23335000	      2332	80005f7c	01a7da93	srli	x21,x15,0x1a	 x15:0x80009eb4 x21=0x00000020
       23345000	      2333	80005f80	00844e63	blt	x8,x8,80005f9c	  x8:0x00000004  x8:0x00000004
       23355000	      2334	80005f84	00c58833	add	x16,x11,x12	 x11:0x00000001 x12:0x00000000 x16=0x00000001
       23365000	      2335	80005f88	002e39b3	sltu	x19,x28,x2	 x28:0x80009fff  x2:0x00000000 x19=0x00000000
       23375000	      2336	80005f8c	01119593	slli	x11,x3,0x11	  x3:0x00000000 x11=0x00000000
       23385000	      2337	80005f90	4130ddb3	sra	x27,x1,x19	  x1:0x00000000 x19:0x00000000 x27=0x00000000
       23395000	      2338	80005f94	00109e33	sll	x28,x1,x1	  x1:0x00000000  x1:0x00000000 x28=0x00000000
       23405000	      2339	80005f98	04381463	bne	x16,x3,80005fe0	 x16:0x00000001  x3:0x00000000
       23415000	      2340	00000000	00000013	addi	x0,x0,0	  x0:0x00000000
       23425000	      2341	80005fdc	00000013	addi	x0,x0,0	  x0:0x00000000
       23435000	      2342	80005fe0	0072ccb3	xor	x25,x5,x7	  x5:0x00000000  x7:0x00000000 x25=0x00000000
       23445000	      2343	80005fe4	012513b3	sll	x7,x10,x18	 x10:0x00000001 x18:0xace29000  x7=0x00000001
       23455000	      2344	80005fe8	d4f90f13	addi	x30,x18,-689	 x18:0xace29000 x30=0xace28d4f
       23465000	      2345	80005fec	04641863	bne	x8,x6,8000603c	  x8:0x00000004  x6:0x00000001
       23475000	      2346	00000000	00000013	addi	x0,x0,0	  x0:0x00000000
       23485000	      2347	80006038	00000013	addi	x0,x0,0	  x0:0x00000000
       23495000	      2348	8000603c	00c7f2b3	and	x5,x15,x12	 x15:0x80009eb4 x12:0x00000000  x5=0x00000000
       23505000	      2349	80006040	01699293	slli	x5,x19,0x16	 x19:0x00000000  x5=0x00000000
       23515000	      2350	80006044	00724333	xor	x6,x4,x7	  x4:0xa405c33b  x7:0x00000001  x6=0xa405c33a
       23525000	      2351	80006048	01fc6833	or	x16,x24,x31	 x24:0x00000004 x31:0x00000000 x16=0x00000004
       23535000	      2352	8000604c	db873893	sltiu	x17,x14,-584	 x14:0x97c6836c x17=0x00000001
       23545000	      2353	80006050	000e69b3	or	x19,x28,x0	 x28:0x00000000  x0:0x00000000 x19=0x00000000
       23555000	      2354	80006054	40485ab3	sra	x21,x16,x4	 x16:0x00000004  x4:0xa405c33b x21=0x00000000
       23565000	      2355	80006058	a10af593	andi	x11,x21,-1520	 x21:0x00000000 x11=0x00000000
       23575000	      2356	8000605c	008921b3	slt	x3,x18,x8	 x18:0xace29000  x8:0x00000004  x3=0x00000001
       23585000	      2357	80006060	0193e2b3	or	x5,x7,x25	  x7:0x00000001 x25:0x00000000  x5=0x00000001
       23595000	      2358	80006064	009df233	and	x4,x27,x9	 x27:0x00000000  x9:0x00000000  x4=0x00000000
       23605000	      2359	80006068	00a85263	bge	x16,x10,8000606c	 x16:0x00000004 x10:0x00000001
       23615000	      2360	00000000	00000013	addi	x0,x0,0	  x0:0x00000000
       23625000	      2361	80006068	00000013	addi	x0,x0,0	  x0:0x00000000
       23635000	      2362	8000606c	58186d93	ori	x27,x16,1409	 x16:0x00000004 x27=0x00000585
       23645000	      2363	80006070	d13e8c93	addi	x25,x29,-749	 x29:0xa405bdfc x25=0xa405bb0f
       23655000	      2364	80006074	00711013	slli	x0,x2,0x7	  x2:0x00000000
       23665000	      2365	80006078	01c25263	bge	x4,x28,8000607c	  x4:0x00000000 x28:0x00000000
       23675000	      2366	00000000	00000013	addi	x0,x0,0	  x0:0x00000000
       23685000	      2367	80006078	00000013	addi	x0,x0,0	  x0:0x00000000
       23695000	      2368	8000607c	010261b3	or	x3,x4,x16	  x4:0x00000000 x16:0x00000004  x3=0x00000004
       23705000	      2369	80006080	4093da33	sra	x20,x7,x9	  x7:0x00000001  x9:0x00000000 x20=0x00000001
       23715000	      2370	80006084	006a1333	sll	x6,x20,x6	 x20:0x00000001  x6:0xa405c33a  x6=0x04000000
       23725000	      2371	80006088	40ca83b3	sub	x7,x21,x12	 x21:0x00000000 x12:0x00000000  x7=0x00000000
       23735000	      2372	8000608c	b96cba93	sltiu	x21,x25,-1130	 x25:0xa405bb0f x21=0x00000001
       23745000	      2373	80006090	0527c463	blt	x15,x18,800060d8	 x15:0x80009eb4 x18:0xace29000
       23755000	      2374	00000000	00000013	addi	x0,x0,0	  x0:0x00000000
       23765000	      2375	800060d4	00000013	addi	x0,x0,0	  x0:0x00000000
       23775000	      2376	800060d8	03f01263	bne	x0,x31,800060fc	  x0:0x00000000 x31:0x00000000
       23785000	      2377	800060dc	00000013	addi	x0,x0,0	  x0:0x00000000
       23795000	      2378	800060e0	01e09b13	slli	x22,x1,0x1e	  x1:0x00000000 x22=0x00000000
       23805000	      2379	800060e4	008b9033	sll	x0,x23,x8	 x23:0x00000000  x8:0x00000004
       23815000	      2380	800060e8	00fa7333	and	x6,x20,x15	 x20:0x00000001 x15:0x80009eb4  x6=0x00000000
       23825000	      2381	800060ec	0056dc63	bge	x13,x5,80006104	 x13:0x8a974f64  x5:0x00000001
       23835000	      2382	800060f0	01a29233	sll	x4,x5,x26	  x5:0x00000001 x26:0x80009fc4  x4=0x00000010
       23845000	      2383	800060f4	0022bcb3	sltu	x25,x5,x2	  x5:0x00000001  x2:0x00000000 x25=0x00000000
       23855000	      2384	800060f8	00c36e33	or	x28,x6,x12	  x6:0x00000000 x12:0x00000000 x28=0x00000000
       23865000	      2385	800060fc	00000013	addi	x0,x0,0	  x0:0x00000000
       23875000	      2386	80006100	41f7d493	srai	x9,x15,0x1f	 x15:0x80009eb4  x9=0xffffffff
       23885000	      2387	80006104	3128ac97	auipc	x25,0x3128a	 x25=0xb1290100
       23895000	      2388	80006108	25dd3313	sltiu	x6,x26,605	 x26:0x80009fc4  x6=0x00000000
       23905000	      2389	8000610c	00bc06b3	add	x13,x24,x11	 x24:0x00000004 x11:0x00000000 x13=0x00000004
       23915000	      2390	80006110	00a7fa33	and	x20,x15,x10	 x15:0x80009eb4 x10:0x00000001 x20=0x00000000
       23925000	      2391	80006114	020f7063	bgeu	x30,x0,80006134	 x30:0xace28d4f  x0:0x00000000
       23935000	      2392	00000000	00000013	addi	x0,x0,0	  x0:0x00000000
       23945000	      2393	80006130	00000013	addi	x0,x0,0	  x0:0x00000000
       23955000	      2394	80006134	8f78b413	sltiu	x8,x17,-1801	 x17:0x00000001  x8=0x00000001
       23965000	      2395	80006138	fbc22913	slti	x18,x4,-68	  x4:0x00000010 x18=0x00000000
       23975000	      2396	8000613c	50f82a13	slti	x20,x16,1295	 x16:0x00000004 x20=0x00000001
       23985000	      2397	80006140	417b8133	sub	x2,x23,x23	 x23:0x00000000 x23:0x00000000  x2=0x00000000
       23995000	      2398	80006144	01de2db3	slt	x27,x28,x29	 x28:0x00000000 x29:0xa405bdfc x27=0x00000000
       24005000	      2399	80006148	00000013	addi	x0,x0,0	  x0:0x00000000
       24015000	      2400	8000614c	97366093	ori	x1,x12,-1677	 x12:0x00000000  x1=0xfffff973
       24025000	      2401	80006150	deedec97	auipc	x25,0xdeede	 x25=0x5eee414c
       24035000	      2402	80006154	ace03c37	lui	x24,0xace03	 x24=0xace03000
       24045000	      2403	80006158	44596597	auipc	x11,0x44596	 x11=0xc459c154
       24055000	      2404	8000615c	016074b3	and	x9,x0,x22	  x0:0x00000000 x22:0x00000000  x9=0x00000000
       24065000	      2405	80006160	62f3e193	ori	x3,x7,1583	  x7:0x00000000  x3=0x0000062f
       24075000	      2406	80006164	01b96263	bltu	x18,x27,80006168	 x18:0x00000000 x27:0x00000000
       24085000	      2407	80006168	3ece4c17	auipc	x24,0x3ece4	 x24=0xbecea164
       24095000	      2408	8000616c	011b9433	sll	x8,x23,x17	 x23:0x00000000 x17:0x00000001  x8=0x00000000
       24105000	      2409	80006170	0017a333	slt	x6,x15,x1	 x15:0x80009eb4  x1:0xfffff973  x6=0x00000001
       24115000	      2410	80006174	01711833	sll	x16,x2,x23	  x2:0x00000000 x23:0x00000000 x16=0x00000000
       24125000	      2411	80006178	405384b3	sub	x9,x7,x5	  x7:0x00000000  x5:0x00000001  x9=0xffffffff
       24135000	      2412	8000617c	0152efb3	or	x31,x5,x21	  x5:0x00000001 x21:0x00000001 x31=0x00000001
       24145000	      2413	80006180	f3dea493	slti	x9,x29,-195	 x29:0xa405bdfc  x9=0x00000001
       24155000	      2414	80006184	410483b3	sub	x7,x9,x16	  x9:0x00000001 x16:0x00000000  x7=0x00000001
       24165000	      2415	80006188	00e8f0b3	and	x1,x17,x14	 x17:0x00000001 x14:0x97c6836c  x1=0x00000000
       24175000	      2416	8000618c	41fcd5b3	sra	x11,x25,x31	 x25:0x5eee414c x31:0x00000001 x11=0x2f7720a6
       24185000	      2417	80006190	00288a63	beq	x17,x2,800061a4	 x17:0x00000001  x2:0x00000000
       24195000	      2418	80006194	40a60f33	sub	x30,x12,x10	 x12:0x00000000 x10:0x00000001 x30=0xffffffff
       24205000	      2419	80006198	eed8a513	slti	x10,x17,-275	 x17:0x00000001 x10=0x00000000
       24215000	      2420	8000619c	00979433	sll	x8,x15,x9	 x15:0x80009eb4  x9:0x00000001  x8=0x00013d68
       24225000	      2421	800061a0	00cf19b3	sll	x19,x30,x12	 x30:0xffffffff x12:0x00000000 x19=0xffffffff
       24235000	      2422	800061a4	00d636b3	sltu	x13,x12,x13	 x12:0x00000000 x13:0x00000004 x13=0x00000001
       24245000	      2423	800061a8	00daa0b3	slt	x1,x21,x13	 x21:0x00000001 x13:0x00000001  x1=0x00000000
       24255000	      2424	800061ac	41255413	srai	x8,x10,0x12	 x10:0x00000000  x8=0x00000000
       24265000	      2425	800061b0	411489b3	sub	x19,x9,x17	  x9:0x00000001 x17:0x00000001 x19=0x00000000
       24275000	      2426	800061b4	45d46b93	ori	x23,x8,1117	  x8:0x00000000 x23=0x0000045d
       24285000	      2427	800061b8	049c4663	blt	x24,x9,80006204	 x24:0xbecea164  x9:0x00000001
       24295000	      2428	00000000	00000013	addi	x0,x0,0	  x0:0x00000000
       24305000	      2429	80006200	00000013	addi	x0,x0,0	  x0:0x00000000
       24315000	      2430	80006204	00000013	addi	x0,x0,0	  x0:0x00000000
       24325000	      2431	80006208	00355863	bge	x10,x3,80006218	 x10:0x00000000  x3:0x0000062f
       24335000	      2432	8000620c	58293813	sltiu	x16,x18,1410	 x18:0x00000000 x16=0x00000001
       24345000	      2433	80006210	40c0d033	sra	x0,x1,x12	  x1:0x00000000 x12:0x00000000
       24355000	      2434	80006214	7010a713	slti	x14,x1,1793	  x1:0x00000000 x14=0x00000001
       24365000	      2435	80006218	40a0db33	sra	x22,x1,x10	  x1:0x00000000 x10:0x00000000 x22=0x00000000
       24375000	      2436	8000621c	0121db13	srli	x22,x3,0x12	  x3:0x0000062f x22=0x00000000
       24385000	      2437	80006220	00ce41b3	xor	x3,x28,x12	 x28:0x00000000 x12:0x00000000  x3=0x00000000
       24395000	      2438	80006224	00d94a33	xor	x20,x18,x13	 x18:0x00000000 x13:0x00000001 x20=0x00000001
       24405000	      2439	80006228	0d9e4663	blt	x28,x25,800062f4	 x28:0x00000000 x25:0x5eee414c
       24415000	      2440	00000000	00000013	addi	x0,x0,0	  x0:0x00000000
       24425000	      2441	800062f0	00000013	addi	x0,x0,0	  x0:0x00000000
       24435000	      2442	800062f4	ca1f4837	lui	x16,0xca1f4	 x16=0xca1f4000
       24445000	      2443	800062f8	0de85c63	bge	x16,x30,800063d0	 x16:0xca1f4000 x30:0xffffffff
       24455000	      2444	800062fc	00002b97	auipc	x23,0x2	 x23=0x800082f8
       24465000	      2445	80006300	3abb8b93	addi	x23,x23,939	 x23:0x800082f8 x23=0x800086a3
       24475000	      2446	80006304	00af9ab3	sll	x21,x31,x10	 x31:0x00000001 x10:0x00000000 x21=0x00000001
       24485000	      2447	80006308	0004dfb3	srl	x31,x9,x0	  x9:0x00000001  x0:0x00000000 x31=0x00000001
       24495000	      2448	8000630c	014508b3	add	x17,x10,x20	 x10:0x00000000 x20:0x00000001 x17=0x00000001
       24505000	      2449	80006310	f59b9ba3	sh	x25,-169(x23)	 x23:0x800086a3 x25:0x5eee414c PA:0x800085fa
       24515000	      2450	80006314	407fd733	sra	x14,x31,x7	 x31:0x00000001  x7:0x00000001 x14=0x00000000
       24525000	      2451	80006318	f4235137	lui	x2,0xf4235	  x2=0xf4235000
       24535000	      2452	8000631c	b92b0f13	addi	x30,x22,-1134	 x22:0x00000000 x30=0xfffffb92
       24545000	      2453	80006320	f44b8d83	lb	x27,-188(x23)	 x23:0x800086a3 x27=0x0000003c PA:0x800085e7
       24555000	      2454	80006324	0deb8703	lb	x14,222(x23)	 x23:0x800086a3 x14=0x00000065 PA:0x80008781
       24565000	      2455	80006328	fbd56f93	ori	x31,x10,-67	 x10:0x00000000 x31=0xffffffbd
       24575000	      2456	8000632c	230ae093	ori	x1,x21,560	 x21:0x00000001  x1=0x00000231
       24585000	      2457	80006330	000b8583	lb	x11,0(x23)	 x23:0x800086a3 x11=0xfffffff0 PA:0x800086a3
       24595000	      2458	80006334	fd0b8a03	lb	x20,-48(x23)	 x23:0x800086a3 x20=0xffffff98 PA:0x80008673
       24605000	      2459	80006338	0a1b9003	lh	x0,161(x23)	 x23:0x800086a3 PA:0x80008744
       24615000	      2460	8000633c	40425113	srai	x2,x4,0x4	  x4:0x00000010  x2=0x00000001
       24625000	      2461	80006340	41b08cb3	sub	x25,x1,x27	  x1:0x00000231 x27:0x0000003c x25=0x000001f5
       24635000	      2462	80006344	0153c0b3	xor	x1,x7,x21	  x7:0x00000001 x21:0x00000001  x1=0x00000000
       24645000	      2463	80006348	01f19a13	slli	x20,x3,0x1f	  x3:0x00000000 x20=0x00000000
       24655000	      2464	8000634c	7a124993	xori	x19,x4,1953	  x4:0x00000010 x19=0x000007b1
       24665000	      2465	80006350	f8bb86a3	sb	x11,-115(x23)	 x23:0x800086a3 x11:0xfffffff0 PA:0x80008630
       24675000	      2466	80006354	fb2b8b03	lb	x22,-78(x23)	 x23:0x800086a3 x22=0xffffffbc PA:0x80008655
       24685000	      2467	80006358	e756ae93	slti	x29,x13,-395	 x13:0x00000001 x29=0x00000000
       24695000	      2468	8000635c	f47bdd83	lhu	x27,-185(x23)	 x23:0x800086a3 x27=0x00008bec PA:0x800085ea
       24705000	      2469	80006360	fddbd583	lhu	x11,-35(x23)	 x23:0x800086a3 x11=0x00002617 PA:0x80008680
       24715000	      2470	80006364	f6ab8c23	sb	x10,-136(x23)	 x23:0x800086a3 x10:0x00000000 PA:0x8000861b
       24725000	      2471	80006368	cf6af813	andi	x16,x21,-778	 x21:0x00000001 x16=0x00000000
       24735000	      2472	8000636c	f10b8e03	lb	x28,-240(x23)	 x23:0x800086a3 x28=0x00000040 PA:0x800085b3
       24745000	      2473	80006370	01662a33	slt	x20,x12,x22	 x12:0x00000000 x22:0xffffffbc x20=0x00000000
       24755000	      2474	80006374	058b8a03	lb	x20,88(x23)	 x23:0x800086a3 x20=0x00000046 PA:0x800086fb
       24765000	      2475	80006378	008f1fb3	sll	x31,x30,x8	 x30:0xfffffb92  x8:0x00000000 x31=0xfffffb92
       24775000	      2476	8000637c	00fe3b33	sltu	x22,x28,x15	 x28:0x00000040 x15:0x80009eb4 x22=0x00000001
       24785000	      2477	80006380	00f3c133	xor	x2,x7,x15	  x7:0x00000001 x15:0x80009eb4  x2=0x80009eb5
       24795000	      2478	80006384	00ebcf83	lbu	x31,14(x23)	 x23:0x800086a3 x31=0x000000e9 PA:0x800086b1
       24805000	      2479	00000000	00000013	addi	x0,x0,0	  x0:0x00000000
       24815000	      2480	80006388	00cfa333	slt	x6,x31,x12	 x31:0x000000e9 x12:0x00000000  x6=0x00000000
       24825000	      2481	8000638c	fd3b8f83	lb	x31,-45(x23)	 x23:0x800086a3 x31=0xffffffb5 PA:0x80008676
       24835000	      2482	80006390	00aa96b3	sll	x13,x21,x10	 x21:0x00000001 x10:0x00000000 x13=0x00000001
       24845000	      2483	80006394	8afdc913	xori	x18,x27,-1873	 x27:0x00008bec x18=0xffff7343
       24855000	      2484	80006398	0108f5b3	and	x11,x17,x16	 x17:0x00000001 x16:0x00000000 x11=0x00000000
       24865000	      2485	8000639c	25cab513	sltiu	x10,x21,604	 x21:0x00000001 x10=0x00000001
       24875000	      2486	800063a0	00000013	addi	x0,x0,0	  x0:0x00000000
       24885000	      2487	800063a4	05bb87a3	sb	x27,79(x23)	 x23:0x800086a3 x27:0x00008bec PA:0x800086f2
       24895000	      2488	800063a8	0027c433	xor	x8,x15,x2	 x15:0x80009eb4  x2:0x80009eb5  x8=0x00000001
       24905000	      2489	800063ac	09eb8203	lb	x4,158(x23)	 x23:0x800086a3  x4=0x00000027 PA:0x80008741
       24915000	      2490	800063b0	4068d8b3	sra	x17,x17,x6	 x17:0x00000001  x6:0x00000000 x17=0x00000001
       24925000	      2491	800063b4	01dba8a3	sw	x29,17(x23)	 x23:0x800086a3 x29:0x00000000 PA:0x800086b4
       24935000	      2492	800063b8	97c42413	slti	x8,x8,-1668	  x8:0x00000001  x8=0x00000000
       24945000	      2493	800063bc	00c426b3	slt	x13,x8,x12	  x8:0x00000000 x12:0x00000000 x13=0x00000000
       24955000	      2494	800063c0	00886a33	or	x20,x16,x8	 x16:0x00000000  x8:0x00000000 x20=0x00000000
       24965000	      2495	800063c4	f0db9683	lh	x13,-243(x23)	 x23:0x800086a3 x13=0xffffcf5f PA:0x800085b0
       24975000	      2496	800063c8	008e1a13	slli	x20,x28,0x8	 x28:0x00000040 x20=0x00004000
       24985000	      2497	800063cc	f0446893	ori	x17,x8,-252	  x8:0x00000000 x17=0xffffff04
       24995000	      2498	800063d0	00e9c333	xor	x6,x19,x14	 x19:0x000007b1 x14:0x00000065  x6=0x000007d4
       25005000	      2499	800063d4	0183ab33	slt	x22,x7,x24	  x7:0x00000001 x24:0xbecea164 x22=0x00000000
       25015000	      2500	800063d8	039bdc63	bge	x23,x25,80006410	 x23:0x800086a3 x25:0x000001f5
       25025000	      2501	800063dc	40cf50b3	sra	x1,x30,x12	 x30:0xfffffb92 x12:0x00000000  x1=0xfffffb92
       25035000	      2502	800063e0	01590ab3	add	x21,x18,x21	 x18:0xffff7343 x21:0x00000001 x21=0xffff7344
       25045000	      2503	800063e4	d43eb413	sltiu	x8,x29,-701	 x29:0x00000000  x8=0x00000001
       25055000	      2504	800063e8	0041afb3	slt	x31,x3,x4	  x3:0x00000000  x4:0x00000027 x31=0x00000001
       25065000	      2505	800063ec	00000013	addi	x0,x0,0	  x0:0x00000000
       25075000	      2506	800063f0	05825463	bge	x4,x24,80006438	  x4:0x00000027 x24:0xbecea164
       25085000	      2507	00000000	00000013	addi	x0,x0,0	  x0:0x00000000
       25095000	      2508	80006434	00000013	addi	x0,x0,0	  x0:0x00000000
       25105000	      2509	80006438	00c990b3	sll	x1,x19,x12	 x19:0x000007b1 x12:0x00000000  x1=0x000007b1
       25115000	      2510	8000643c	42508593	addi	x11,x1,1061	  x1:0x000007b1 x11=0x00000bd6
       25125000	      2511	80006440	01f60e63	beq	x12,x31,8000645c	 x12:0x00000000 x31:0x00000001
       25135000	      2512	80006444	0a9b1463	bne	x22,x9,800064ec	 x22:0x00000000  x9:0x00000001
       25145000	      2513	00000000	00000013	addi	x0,x0,0	  x0:0x00000000
       25155000	      2514	800064e8	00000013	addi	x0,x0,0	  x0:0x00000000
       25165000	      2515	800064ec	03877663	bgeu	x14,x24,80006518	 x14:0x00000065 x24:0xbecea164
       25175000	      2516	800064f0	012f1e13	slli	x28,x30,0x12	 x30:0xfffffb92 x28=0xee480000
       25185000	      2517	800064f4	00bc5c93	srli	x25,x24,0xb	 x24:0xbecea164 x25=0x0017d9d4
       25195000	      2518	800064f8	01d7cfb3	xor	x31,x15,x29	 x15:0x80009eb4 x29:0x00000000 x31=0x80009eb4
       25205000	      2519	800064fc	001e3133	sltu	x2,x28,x1	 x28:0xee480000  x1:0x000007b1  x2=0x00000000
       25215000	      2520	80006500	05acd863	bge	x25,x26,80006550	 x25:0x0017d9d4 x26:0x80009fc4
       25225000	      2521	00000000	00000013	addi	x0,x0,0	  x0:0x00000000
       25235000	      2522	8000654c	00000013	addi	x0,x0,0	  x0:0x00000000
       25245000	      2523	80006550	01424bb3	xor	x23,x4,x20	  x4:0x00000027 x20:0x00004000 x23=0x00004027
       25255000	      2524	80006554	0180af33	slt	x30,x1,x24	  x1:0x000007b1 x24:0xbecea164 x30=0x00000000
       25265000	      2525	80006558	00a7cbb3	xor	x23,x15,x10	 x15:0x80009eb4 x10:0x00000001 x23=0x80009eb5
       25275000	      2526	8000655c	01dc5cb3	srl	x25,x24,x29	 x24:0xbecea164 x29:0x00000000 x25=0xbecea164
       25285000	      2527	80006560	035a5c63	bge	x20,x21,80006598	 x20:0x00004000 x21:0xffff7344
       25295000	      2528	00000000	00000013	addi	x0,x0,0	  x0:0x00000000
       25305000	      2529	80006594	00000013	addi	x0,x0,0	  x0:0x00000000
       25315000	      2530	80006598	0580c663	blt	x1,x24,800065e4	  x1:0x000007b1 x24:0xbecea164
       25325000	      2531	8000659c	008b5db3	srl	x27,x22,x8	 x22:0x00000000  x8:0x00000001 x27=0x00000000
       25335000	      2532	800065a0	c6048d93	addi	x27,x9,-928	  x9:0x00000001 x27=0xfffffc61
       25345000	      2533	800065a4	01375433	srl	x8,x14,x19	 x14:0x00000065 x19:0x000007b1  x8=0x00000000
       25355000	      2534	800065a8	000b2833	slt	x16,x22,x0	 x22:0x00000000  x0:0x00000000 x16=0x00000000
       25365000	      2535	800065ac	003286b3	add	x13,x5,x3	  x5:0x00000001  x3:0x00000000 x13=0x00000001
       25375000	      2536	800065b0	00be1b13	slli	x22,x28,0xb	 x28:0xee480000 x22=0x40000000
       25385000	      2537	800065b4	b081b293	sltiu	x5,x3,-1272	  x3:0x00000000  x5=0x00000001
       25395000	      2538	800065b8	4028ea93	ori	x21,x17,1026	 x17:0xffffff04 x21=0xffffff06
       25405000	      2539	800065bc	0007ef33	or	x30,x15,x0	 x15:0x80009eb4  x0:0x00000000 x30=0x80009eb4
       25415000	      2540	800065c0	9b1af913	andi	x18,x21,-1615	 x21:0xffffff06 x18=0xfffff900
       25425000	      2541	800065c4	c5da4393	xori	x7,x20,-931	 x20:0x00004000  x7=0xffffbc5d
       25435000	      2542	800065c8	00025cb3	srl	x25,x4,x0	  x4:0x00000027  x0:0x00000000 x25=0x00000027
       25445000	      2543	800065cc	aa44ac93	slti	x25,x9,-1372	  x9:0x00000001 x25=0x00000000
       25455000	      2544	800065d0	8075e293	ori	x5,x11,-2041	 x11:0x00000bd6  x5=0xfffffbd7
       25465000	      2545	800065d4	00180463	beq	x16,x1,800065dc	 x16:0x00000000  x1:0x000007b1
       25475000	      2546	800065d8	00a21e63	bne	x4,x10,800065f4	  x4:0x00000027 x10:0x00000001
       25485000	      2547	00000000	00000013	addi	x0,x0,0	  x0:0x00000000
       25495000	      2548	800065f0	00000013	addi	x0,x0,0	  x0:0x00000000
       25505000	      2549	800065f4	00cf0cb3	add	x25,x30,x12	 x30:0x80009eb4 x12:0x00000000 x25=0x80009eb4
       25515000	      2550	800065f8	4152d993	srai	x19,x5,0x15	  x5:0xfffffbd7 x19=0xffffffff
       25525000	      2551	800065fc	63496413	ori	x8,x18,1588	 x18:0xfffff900  x8=0xffffff34
       25535000	      2552	80006600	01f01193	slli	x3,x0,0x1f	  x0:0x00000000  x3=0x00000000
       25545000	      2553	80006604	01112033	slt	x0,x2,x17	  x2:0x00000000 x17:0xffffff04
       25555000	      2554	80006608	01c5bf33	sltu	x30,x11,x28	 x11:0x00000bd6 x28:0xee480000 x30=0x00000001
       25565000	      2555	8000660c	03f6f063	bgeu	x13,x31,8000662c	 x13:0x00000001 x31:0x80009eb4
       25575000	      2556	80006610	40825893	srai	x17,x4,0x8	  x4:0x00000027 x17=0x00000000
       25585000	      2557	80006614	41090a33	sub	x20,x18,x16	 x18:0xfffff900 x16:0x00000000 x20=0xfffff900
       25595000	      2558	80006618	01442c33	slt	x24,x8,x20	  x8:0xffffff34 x20:0xfffff900 x24=0x00000000
       25605000	      2559	8000661c	4073d6b3	sra	x13,x7,x7	  x7:0xffffbc5d  x7:0xffffbc5d x13=0xffffffff
       25615000	      2560	80006620	012d5313	srli	x6,x26,0x12	 x26:0x80009fc4  x6=0x00002000
       25625000	      2561	80006624	01864733	xor	x14,x12,x24	 x12:0x00000000 x24:0x00000000 x14=0x00000000
       25635000	      2562	80006628	67cb7397	auipc	x7,0x67cb7	  x7=0xe7cbd624
       25645000	      2563	8000662c	4159d493	srai	x9,x19,0x15	 x19:0xffffffff  x9=0xffffffff
       25655000	      2564	80006630	00304933	xor	x18,x0,x3	  x0:0x00000000  x3:0x00000000 x18=0x00000000
       25665000	      2565	80006634	00000013	addi	x0,x0,0	  x0:0x00000000
       25675000	      2566	80006638	0001e863	bltu	x3,x0,80006648	  x3:0x00000000  x0:0x00000000
       25685000	      2567	8000663c	0418e463	bltu	x17,x1,80006684	 x17:0x00000000  x1:0x000007b1
       25695000	      2568	00000000	00000013	addi	x0,x0,0	  x0:0x00000000
       25705000	      2569	80006680	00000013	addi	x0,x0,0	  x0:0x00000000
       25715000	      2570	80006684	86783e93	sltiu	x29,x16,-1945	 x16:0x00000000 x29=0x00000001
       25725000	      2571	80006688	be68f493	andi	x9,x17,-1050	 x17:0x00000000  x9=0x00000000
       25735000	      2572	8000668c	025ae063	bltu	x21,x5,800066ac	 x21:0xffffff06  x5:0xfffffbd7
       25745000	      2573	80006690	f1243293	sltiu	x5,x8,-238	  x8:0xffffff34  x5=0x00000000
       25755000	      2574	80006694	02255463	bge	x10,x2,800066bc	 x10:0x00000001  x2:0x00000000
       25765000	      2575	00000000	00000013	addi	x0,x0,0	  x0:0x00000000
       25775000	      2576	800066b8	00000013	addi	x0,x0,0	  x0:0x00000000
       25785000	      2577	800066bc	41130433	sub	x8,x6,x17	  x6:0x00002000 x17:0x00000000  x8=0x00002000
       25795000	      2578	800066c0	01eb7433	and	x8,x22,x30	 x22:0x40000000 x30:0x00000001  x8=0x00000000
       25805000	      2579	800066c4	09f26513	ori	x10,x4,159	  x4:0x00000027 x10=0x000000bf
       25815000	      2580	800066c8	027c0063	beq	x24,x7,800066e8	 x24:0x00000000  x7:0xe7cbd624
       25825000	      2581	800066cc	b6243e93	sltiu	x29,x8,-1182	  x8:0x00000000 x29=0x00000001
       25835000	      2582	800066d0	40c8d913	srai	x18,x17,0xc	 x17:0x00000000 x18=0x00000000
       25845000	      2583	800066d4	417e5cb3	sra	x25,x28,x23	 x28:0xee480000 x23:0x80009eb5 x25=0xffffff72
       25855000	      2584	800066d8	01687863	bgeu	x16,x22,800066e8	 x16:0x00000000 x22:0x40000000
       25865000	      2585	800066dc	e53c3513	sltiu	x10,x24,-429	 x24:0x00000000 x10=0x00000001
       25875000	      2586	800066e0	2a502693	slti	x13,x0,677	  x0:0x00000000 x13=0x00000001
       25885000	      2587	800066e4	00ac1393	slli	x7,x24,0xa	 x24:0x00000000  x7=0x00000000
       25895000	      2588	800066e8	0028de93	srli	x29,x17,0x2	 x17:0x00000000 x29=0x00000000
       25905000	      2589	800066ec	41d95b33	sra	x22,x18,x29	 x18:0x00000000 x29:0x00000000 x22=0x00000000
       25915000	      2590	800066f0	82eea813	slti	x16,x29,-2002	 x29:0x00000000 x16=0x00000000
       25925000	      2591	800066f4	005a1b13	slli	x22,x20,0x5	 x20:0xfffff900 x22=0xffff2000
       25935000	      2592	800066f8	0047a083	lw	x1,4(x15)	 x15:0x80009eb4  x1=0x800026a8 PA:0x80009eb8
       25945000	      2593	800066fc	aa226313	ori	x6,x4,-1374	  x4:0x00000027  x6=0xfffffaa7
       25955000	      2594	80006700	01478793	addi	x15,x15,20	 x15:0x80009eb4 x15=0x80009ec8
       25965000	      2595	80006704	00bedab3	srl	x21,x29,x11	 x29:0x00000000 x11:0x00000bd6 x21=0x00000000
       25975000	      2596	80006708	00008293	addi	x5,x1,0	  x1:0x800026a8  x5=0x800026a8
       25985000	      2597	8000670c	000282e7	jalr	x5,x5,0	  x5:0x800026a8  x5=0x8000670c
       25995000	      2598	00000000	00000013	addi	x0,x0,0	  x0:0x00000000
       26005000	      2599	800026a8	00000013	addi	x0,x0,0	  x0:0x00000000
       26015000	      2600	800026ac	00006117	auipc	x2,0x6	  x2=0x800086a8
       26025000	      2601	800026b0	d1410113	addi	x2,x2,-748	  x2:0x800086a8  x2=0x800083bc
       26035000	      2602	800026b4	dea9e293	ori	x5,x19,-534	 x19:0xffffffff  x5=0xffffffff
       26045000	      2603	800026b8	01301b13	slli	x22,x0,0x13	  x0:0x00000000 x22=0x00000000
       26055000	      2604	800026bc	fc510da3	sb	x5,-37(x2)	  x2:0x800083bc  x5:0xffffffff PA:0x80008397
       26065000	      2605	800026c0	ff6108a3	sb	x22,-15(x2)	  x2:0x800083bc x22:0x00000000 PA:0x800083ad
       26075000	      2606	800026c4	ffc10da3	sb	x28,-5(x2)	  x2:0x800083bc x28:0xee480000 PA:0x800083b7
       26085000	      2607	800026c8	fdf14e83	lbu	x29,-33(x2)	  x2:0x800083bc x29=0x000000ca PA:0x8000839b
       26095000	      2608	800026cc	01ae7eb3	and	x29,x28,x26	 x28:0xee480000 x26:0x80009fc4 x29=0x80000000
       26105000	      2609	800026d0	fd510c03	lb	x24,-43(x2)	  x2:0x800083bc x24=0xffffffbf PA:0x80008391
       26115000	      2610	800026d4	00385a13	srli	x20,x16,0x3	 x16:0x00000000 x20=0x00000000
       26125000	      2611	800026d8	17028813	addi	x16,x5,368	  x5:0xffffffff x16=0x0000016f
       26135000	      2612	800026dc	40a45213	srai	x4,x8,0xa	  x8:0x00000000  x4=0x00000000
       26145000	      2613	800026e0	a1477f93	andi	x31,x14,-1516	 x14:0x00000000 x31=0x00000000
       26155000	      2614	800026e4	00797ab3	and	x21,x18,x7	 x18:0x00000000  x7:0x00000000 x21=0x00000000
       26165000	      2615	800026e8	6bc3a313	slti	x6,x7,1724	  x7:0x00000000  x6=0x00000001
       26175000	      2616	800026ec	007e2bb3	slt	x23,x28,x7	 x28:0xee480000  x7:0x00000000 x23=0x00000001
       26185000	      2617	800026f0	01efc533	xor	x10,x31,x30	 x31:0x00000000 x30:0x00000001 x10=0x00000001
       26195000	      2618	800026f4	00fe9c33	sll	x24,x29,x15	 x29:0x80000000 x15:0x80009ec8 x24=0x00000000
       26205000	      2619	800026f8	00964933	xor	x18,x12,x9	 x12:0x00000000  x9:0x00000000 x18=0x00000000
       26215000	      2620	800026fc	000d5813	srli	x16,x26,0x0	 x26:0x80009fc4 x16=0x80009fc4
       26225000	      2621	80002700	f636ed93	ori	x27,x13,-157	 x13:0x00000001 x27=0xffffff63
       26235000	      2622	80002704	40d58833	sub	x16,x11,x13	 x11:0x00000bd6 x13:0x00000001 x16=0x00000bd5
       26245000	      2623	80002708	000fcf33	xor	x30,x31,x0	 x31:0x00000000  x0:0x00000000 x30=0x00000000
       26255000	      2624	8000270c	aaf9cf17	auipc	x30,0xaaf9c	 x30=0x2af9e708
       26265000	      2625	80002710	00b14203	lbu	x4,11(x2)	  x2:0x800083bc  x4=0x000000d6 PA:0x800083c7
       26275000	      2626	80002714	02611983	lh	x19,38(x2)	  x2:0x800083bc x19=0x00000b1b PA:0x800083e2
       26285000	      2627	80002718	03114f03	lbu	x30,49(x2)	  x2:0x800083bc x30=0x000000c5 PA:0x800083ed
       26295000	      2628	8000271c	00dd7033	and	x0,x26,x13	 x26:0x80009fc4 x13:0x00000001
       26305000	      2629	80002720	00a15a93	srli	x21,x2,0xa	  x2:0x800083bc x21=0x00200020
       26315000	      2630	80002724	40bd5013	srai	x0,x26,0xb	 x26:0x80009fc4
       26325000	      2631	80002728	ff410ea3	sb	x20,-3(x2)	  x2:0x800083bc x20:0x00000000 PA:0x800083b9
       26335000	      2632	8000272c	02012e83	lw	x29,32(x2)	  x2:0x800083bc x29=0x43079752 PA:0x800083dc
       26345000	      2633	80002730	ffc11723	sh	x28,-18(x2)	  x2:0x800083bc x28:0xee480000 PA:0x800083aa
       26355000	      2634	80002734	0515e737	lui	x14,0x515e	 x14=0x0515e000
       26365000	      2635	80002738	9e53b193	sltiu	x3,x7,-1563	  x7:0x00000000  x3=0x00000001
       26375000	      2636	8000273c	00b2a4b3	slt	x9,x5,x11	  x5:0xffffffff x11:0x00000bd6  x9=0x00000001
       26385000	      2637	80002740	939b2417	auipc	x8,0x939b2	  x8=0x139b473c
       26395000	      2638	80002744	009a0b33	add	x22,x20,x9	 x20:0x00000000  x9:0x00000001 x22=0x00000001
       26405000	      2639	80002748	00110e03	lb	x28,1(x2)	  x2:0x800083bc x28=0x0000001f PA:0x800083bd
       26415000	      2640	8000274c	fc011a03	lh	x20,-64(x2)	  x2:0x800083bc x20=0x00002d67 PA:0x8000837c
       26425000	      2641	80002750	00510383	lb	x7,5(x2)	  x2:0x800083bc  x7=0x0000000c PA:0x800083c1
       26435000	      2642	80002754	0094da13	srli	x20,x9,0x9	  x9:0x00000001 x20=0x00000000
       26445000	      2643	80002758	02f11f23	sh	x15,62(x2)	  x2:0x800083bc x15:0x80009ec8 PA:0x800083fa
       26455000	      2644	8000275c	00006117	auipc	x2,0x6	  x2=0x80008758
       26465000	      2645	80002760	4dd10113	addi	x2,x2,1245	  x2:0x80008758  x2=0x80008c35
       26475000	      2646	80002764	84937e93	andi	x29,x6,-1975	  x6:0x00000001 x29=0x00000001
       26485000	      2647	80002768	40d60433	sub	x8,x12,x13	 x12:0x00000000 x13:0x00000001  x8=0xffffffff
       26495000	      2648	8000276c	02c14e03	lbu	x28,44(x2)	  x2:0x80008c35 x28=0x000000af PA:0x80008c61
       26505000	      2649	80002770	fbf10a23	sb	x31,-76(x2)	  x2:0x80008c35 x31:0x00000000 PA:0x80008be9
       26515000	      2650	80002774	00af0a33	add	x20,x30,x10	 x30:0x000000c5 x10:0x00000001 x20=0x000000c6
       26525000	      2651	80002778	0a111303	lh	x6,161(x2)	  x2:0x80008c35  x6=0xffffd4b8 PA:0x80008cd6
       26535000	      2652	8000277c	096121a3	sw	x22,131(x2)	  x2:0x80008c35 x22:0x00000001 PA:0x80008cb8
       26545000	      2653	80002780	0f711b83	lh	x23,247(x2)	  x2:0x80008c35 x23=0x00000cd0 PA:0x80008d2c
       26555000	      2654	80002784	3a154537	lui	x10,0x3a154	 x10=0x3a154000
       26565000	      2655	80002788	0a9104a3	sb	x9,169(x2)	  x2:0x80008c35  x9:0x00000001 PA:0x80008cde
       26575000	      2656	8000278c	fe412ba3	sw	x4,-9(x2)	  x2:0x80008c35  x4:0x000000d6 PA:0x80008c2c
       26585000	      2657	80002790	f57b83b7	lui	x7,0xf57b8	  x7=0xf57b8000
       26595000	      2658	80002794	ff115703	lhu	x14,-15(x2)	  x2:0x80008c35 x14=0x000036da PA:0x80008c26
       26605000	      2659	80002798	f5e14203	lbu	x4,-162(x2)	  x2:0x80008c35  x4=0x000000f2 PA:0x80008b93
       26615000	      2660	8000279c	0b210803	lb	x16,178(x2)	  x2:0x80008c35 x16=0x0000003b PA:0x80008ce7
       26625000	      2661	800027a0	02310f03	lb	x30,35(x2)	  x2:0x80008c35 x30=0x00000049 PA:0x80008c58
       26635000	      2662	800027a4	0d710023	sb	x23,192(x2)	  x2:0x80008c35 x23:0x00000cd0 PA:0x80008cf5
       26645000	      2663	800027a8	012536b3	sltu	x13,x10,x18	 x10:0x3a154000 x18:0x00000000 x13=0x00000000
       26655000	      2664	800027ac	41725993	srai	x19,x4,0x17	  x4:0x000000f2 x19=0x00000000
       26665000	      2665	800027b0	08210023	sb	x2,128(x2)	  x2:0x80008c35  x2:0x80008c35 PA:0x80008cb5
       26675000	      2666	800027b4	f5c10903	lb	x18,-164(x2)	  x2:0x80008c35 x18=0x0000001f PA:0x80008b91
       26685000	      2667	800027b8	081106a3	sb	x1,141(x2)	  x2:0x80008c35  x1:0x800026a8 PA:0x80008cc2
       26695000	      2668	800027bc	4d789217	auipc	x4,0x4d789	  x4=0xcd78b7b8
       26705000	      2669	800027c0	0ce10f23	sb	x14,222(x2)	  x2:0x80008c35 x14:0x000036da PA:0x80008d13
       26715000	      2670	800027c4	f6610803	lb	x16,-154(x2)	  x2:0x80008c35 x16=0xffffff8e PA:0x80008b9b
       26725000	      2671	800027c8	01715e03	lhu	x28,23(x2)	  x2:0x80008c35 x28=0x00001558 PA:0x80008c4c
       26735000	      2672	800027cc	41a4d2b3	sra	x5,x9,x26	  x9:0x00000001 x26:0x80009fc4  x5=0x00000000
       26745000	      2673	800027d0	471ec593	xori	x11,x29,1137	 x29:0x00000001 x11=0x00000470
       26755000	      2674	800027d4	c5d28013	addi	x0,x5,-931	  x5:0x00000000
       26765000	      2675	800027d8	0ae10903	lb	x18,174(x2)	  x2:0x80008c35 x18=0xffffffdf PA:0x80008ce3
       26775000	      2676	800027dc	fc110303	lb	x6,-63(x2)	  x2:0x80008c35  x6=0x0000007a PA:0x80008bf6
       26785000	      2677	800027e0	0fa10483	lb	x9,250(x2)	  x2:0x80008c35  x9=0xfffffff8 PA:0x80008d2f
       26795000	      2678	800027e4	47d0fd93	andi	x27,x1,1149	  x1:0x800026a8 x27=0x00000428
       26805000	      2679	800027e8	01f12383	lw	x7,31(x2)	  x2:0x80008c35  x7=0xc46d7197 PA:0x80008c54
       26815000	      2680	00000000	00000013	addi	x0,x0,0	  x0:0x00000000
       26825000	      2681	800027ec	f4702213	slti	x4,x0,-185	  x0:0x00000000  x4=0x00000000
       26835000	      2682	800027f0	0af10f83	lb	x31,175(x2)	  x2:0x80008c35 x31=0x00000036 PA:0x80008ce4
       26845000	      2683	800027f4	00f16233	or	x4,x2,x15	  x2:0x80008c35 x15:0x80009ec8  x4=0x80009efd
       26855000	      2684	800027f8	014f8bb3	add	x23,x31,x20	 x31:0x00000036 x20:0x000000c6 x23=0x000000fc
       26865000	      2685	800027fc	0e014003	lbu	x0,224(x2)	  x2:0x80008c35 PA:0x80008d15
       26875000	      2686	80002800	11b13a37	lui	x20,0x11b13	 x20=0x11b13000
       26885000	      2687	80002804	00a8d2b3	srl	x5,x17,x10	 x17:0x00000000 x10:0x3a154000  x5=0x00000000
       26895000	      2688	80002808	0f610ea3	sb	x22,253(x2)	  x2:0x80008c35 x22:0x00000001 PA:0x80008d32
       26905000	      2689	8000280c	00006917	auipc	x18,0x6	 x18=0x80008808
       26915000	      2690	80002810	beb90913	addi	x18,x18,-1045	 x18:0x80008808 x18=0x800083f3
       26925000	      2691	80002814	01b32f33	slt	x30,x6,x27	  x6:0x0000007a x27:0x00000428 x30=0x00000001
       26935000	      2692	80002818	017aba33	sltu	x20,x21,x23	 x21:0x00200020 x23:0x000000fc x20=0x00000000
       26945000	      2693	8000281c	012a1093	slli	x1,x20,0x12	 x20:0x00000000  x1=0x00000000
       26955000	      2694	80002820	01908233	add	x4,x1,x25	  x1:0x00000000 x25:0xffffff72  x4=0xffffff72
       26965000	      2695	80002824	d3690183	lb	x3,-714(x18)	 x18:0x800083f3  x3=0xffffff97 PA:0x80008129
       26975000	      2696	80002828	1b290883	lb	x17,434(x18)	 x18:0x800083f3 x17=0x0000006e PA:0x800085a5
       26985000	      2697	8000282c	0065b833	sltu	x16,x11,x6	 x11:0x00000470  x6:0x0000007a x16=0x00000000
       26995000	      2698	80002830	f8490703	lb	x14,-124(x18)	 x18:0x800083f3 x14=0x00000004 PA:0x80008377
       27005000	      2699	80002834	0011aeb3	slt	x29,x3,x1	  x3:0xffffff97  x1:0x00000000 x29=0x00000001
       27015000	      2700	80002838	39294c83	lbu	x25,914(x18)	 x18:0x800083f3 x25=0x0000004c PA:0x80008785
       27025000	      2701	8000283c	5dc02193	slti	x3,x0,1500	  x0:0x00000000  x3=0x00000001
       27035000	      2702	80002840	11194e83	lbu	x29,273(x18)	 x18:0x800083f3 x29=0x000000f9 PA:0x80008504
       27045000	      2703	80002844	fe094803	lbu	x16,-32(x18)	 x18:0x800083f3 x16=0x000000b8 PA:0x800083d3
       27055000	      2704	80002848	01a19813	slli	x16,x3,0x1a	  x3:0x00000001 x16=0x04000000
       27065000	      2705	8000284c	40290c03	lb	x24,1026(x18)	 x18:0x800083f3 x24=0xffffffe6 PA:0x800087f5
       27075000	      2706	80002850	00c572b3	and	x5,x10,x12	 x10:0x3a154000 x12:0x00000000  x5=0x00000000
       27085000	      2707	80002854	ead94e83	lbu	x29,-339(x18)	 x18:0x800083f3 x29=0x000000a6 PA:0x800082a0
       27095000	      2708	80002858	07994583	lbu	x11,121(x18)	 x18:0x800083f3 x11=0x00000007 PA:0x8000846c
       27105000	      2709	8000285c	2f390483	lb	x9,755(x18)	 x18:0x800083f3  x9=0xffffffac PA:0x800086e6
       27115000	      2710	80002860	d3794203	lbu	x4,-713(x18)	 x18:0x800083f3  x4=0x00000094 PA:0x8000812a
       27125000	      2711	80002864	25190e83	lb	x29,593(x18)	 x18:0x800083f3 x29=0x0000003f PA:0x80008644
       27135000	      2712	80002868	fb73b297	auipc	x5,0xfb73b	  x5=0x7b73d864
       27145000	      2713	8000286c	d8794d83	lbu	x27,-633(x18)	 x18:0x800083f3 x27=0x000000c8 PA:0x8000817a
       27155000	      2714	80002870	d0795203	lhu	x4,-761(x18)	 x18:0x800083f3  x4=0x00000f19 PA:0x800080fa
       27165000	      2715	80002874	30f42b13	slti	x22,x8,783	  x8:0xffffffff x22=0x00000001
       27175000	      2716	80002878	00f29e93	slli	x29,x5,0xf	  x5:0x7b73d864 x29=0xec320000
       27185000	      2717	8000287c	ffc90d83	lb	x27,-4(x18)	 x18:0x800083f3 x27=0x00000015 PA:0x800083ef
       27195000	      2718	80002880	14e917a3	sh	x14,335(x18)	 x18:0x800083f3 x14:0x00000004 PA:0x80008542
       27205000	      2719	80002884	41fa52b3	sra	x5,x20,x31	 x20:0x00000000 x31:0x00000036  x5=0x00000000
       27215000	      2720	80002888	01161033	sll	x0,x12,x17	 x12:0x00000000 x17:0x0000006e
       27225000	      2721	8000288c	009ecb33	xor	x22,x29,x9	 x29:0xec320000  x9:0xffffffac x22=0x13cdffac
       27235000	      2722	80002890	000e0f33	add	x30,x28,x0	 x28:0x00001558  x0:0x00000000 x30=0x00001558
       27245000	      2723	80002894	12894103	lbu	x2,296(x18)	 x18:0x800083f3  x2=0x00000042 PA:0x8000851b
       27255000	      2724	80002898	34f90003	lb	x0,847(x18)	 x18:0x800083f3 PA:0x80008742
       27265000	      2725	8000289c	00ad5f93	srli	x31,x26,0xa	 x26:0x80009fc4 x31=0x00200027
       27275000	      2726	800028a0	0e490623	sb	x4,236(x18)	 x18:0x800083f3  x4:0x00000f19 PA:0x800084df
       27285000	      2727	800028a4	dfeec437	lui	x8,0xdfeec	  x8=0xdfeec000
       27295000	      2728	800028a8	01475bb3	srl	x23,x14,x20	 x14:0x00000004 x20:0x00000000 x23=0x00000004
       27305000	      2729	800028ac	f9c90b23	sb	x28,-106(x18)	 x18:0x800083f3 x28:0x00001558 PA:0x80008389
       27315000	      2730	800028b0	d7f90323	sb	x31,-666(x18)	 x18:0x800083f3 x31:0x00200027 PA:0x80008159
       27325000	      2731	800028b4	a44ceb13	ori	x22,x25,-1468	 x25:0x0000004c x22=0xfffffa4c
       27335000	      2732	800028b8	0064d5b3	srl	x11,x9,x6	  x9:0xffffffac  x6:0x0000007a x11=0x0000003f
       27345000	      2733	800028bc	15e94a03	lbu	x20,350(x18)	 x18:0x800083f3 x20=0x000000d5 PA:0x80008551
       27355000	      2734	800028c0	2b694c03	lbu	x24,694(x18)	 x18:0x800083f3 x24=0x00000067 PA:0x800086a9
       27365000	      2735	800028c4	01dbe8b3	or	x17,x23,x29	 x23:0x00000004 x29:0xec320000 x17=0xec320004
       27375000	      2736	800028c8	0182e9b3	or	x19,x5,x24	  x5:0x00000000 x24:0x00000067 x19=0x00000067
       27385000	      2737	800028cc	9a9f3113	sltiu	x2,x30,-1623	 x30:0x00001558  x2=0x00000001
       27395000	      2738	800028d0	c7694103	lbu	x2,-906(x18)	 x18:0x800083f3  x2=0x000000d7 PA:0x80008069
       27405000	      2739	800028d4	0ba90283	lb	x5,186(x18)	 x18:0x800083f3  x5=0xffffff99 PA:0x800084ad
       27415000	      2740	800028d8	27f95683	lhu	x13,639(x18)	 x18:0x800083f3 x13=0x00009836 PA:0x80008672
       27425000	      2741	800028dc	edb91703	lh	x14,-293(x18)	 x18:0x800083f3 x14=0x00004538 PA:0x800082ce
       27435000	      2742	800028e0	01846e33	or	x28,x8,x24	  x8:0xdfeec000 x24:0x00000067 x28=0xdfeec067
       27445000	      2743	800028e4	29c90203	lb	x4,668(x18)	 x18:0x800083f3  x4=0xffffff82 PA:0x8000868f
       27455000	      2744	800028e8	00006117	auipc	x2,0x6	  x2=0x800088e4
       27465000	      2745	800028ec	49f10113	addi	x2,x2,1183	  x2:0x800088e4  x2=0x80008d83
       27475000	      2746	800028f0	00509933	sll	x18,x1,x5	  x1:0x00000000  x5:0xffffff99 x18=0x00000000
       27485000	      2747	800028f4	01d85933	srl	x18,x16,x29	 x16:0x04000000 x29:0xec320000 x18=0x04000000
       27495000	      2748	800028f8	01a7cfb3	xor	x31,x15,x26	 x15:0x80009ec8 x26:0x80009fc4 x31=0x0000010c
       27505000	      2749	800028fc	00c39d93	slli	x27,x7,0xc	  x7:0xc46d7197 x27=0xd7197000
       27515000	      2750	80002900	0157d1b3	srl	x3,x15,x21	 x15:0x80009ec8 x21:0x00200020  x3=0x80009ec8
       27525000	      2751	80002904	418b0033	sub	x0,x22,x24	 x22:0xfffffa4c x24:0x00000067
       27535000	      2752	80002908	163f4893	xori	x17,x30,355	 x30:0x00001558 x17=0x0000143b
       27545000	      2753	8000290c	fcc6e993	ori	x19,x13,-52	 x13:0x00009836 x19=0xfffffffe
       27555000	      2754	80002910	ff814903	lbu	x18,-8(x2)	  x2:0x80008d83 x18=0x000000e1 PA:0x80008d7b
       27565000	      2755	80002914	00112403	lw	x8,1(x2)	  x2:0x80008d83  x8=0x098cf604 PA:0x80008d84
       27575000	      2756	80002918	016b44b3	xor	x9,x22,x22	 x22:0xfffffa4c x22:0xfffffa4c  x9=0x00000000
       27585000	      2757	8000291c	01be9bb3	sll	x23,x29,x27	 x29:0xec320000 x27:0xd7197000 x23=0xec320000
       27595000	      2758	80002920	409e5e93	srai	x29,x28,0x9	 x28:0xdfeec067 x29=0xffeff760
       27605000	      2759	80002924	01010e03	lb	x28,16(x2)	  x2:0x80008d83 x28=0x0000005d PA:0x80008d93
       27615000	      2760	80002928	ff214403	lbu	x8,-14(x2)	  x2:0x80008d83  x8=0x00000000 PA:0x80008d75
       27625000	      2761	8000292c	001823b3	slt	x7,x16,x1	 x16:0x04000000  x1:0x00000000  x7=0x00000000
       27635000	      2762	80002930	01010003	lb	x0,16(x2)	  x2:0x80008d83 PA:0x80008d93
       27645000	      2763	80002934	014100a3	sb	x20,1(x2)	  x2:0x80008d83 x20:0x000000d5 PA:0x80008d84
       27655000	      2764	80002938	40b0d033	sra	x0,x1,x11	  x1:0x00000000 x11:0x0000003f
       27665000	      2765	8000293c	57678593	addi	x11,x15,1398	 x15:0x80009ec8 x11=0x8000a43e
       27675000	      2766	80002940	018110a3	sh	x24,1(x2)	  x2:0x80008d83 x24:0x00000067 PA:0x80008d84
       27685000	      2767	80002944	01ad22b3	slt	x5,x26,x26	 x26:0x80009fc4 x26:0x80009fc4  x5=0x00000000
       27695000	      2768	80002948	016ce8b3	or	x17,x25,x22	 x25:0x0000004c x22:0xfffffa4c x17=0xfffffa4c
       27705000	      2769	8000294c	9b5846b7	lui	x13,0x9b584	 x13=0x9b584000
       27715000	      2770	80002950	00f14f03	lbu	x30,15(x2)	  x2:0x80008d83 x30=0x0000009e PA:0x80008d92
       27725000	      2771	80002954	00114b03	lbu	x22,1(x2)	  x2:0x80008d83 x22=0x00000067 PA:0x80008d84
       27735000	      2772	80002958	b10ff013	andi	x0,x31,-1264	 x31:0x0000010c
       27745000	      2773	8000295c	fff14803	lbu	x16,-1(x2)	  x2:0x80008d83 x16=0x00000038 PA:0x80008d82
       27755000	      2774	80002960	00006117	auipc	x2,0x6	  x2=0x8000895c
       27765000	      2775	80002964	81110113	addi	x2,x2,-2031	  x2:0x8000895c  x2=0x8000816d
       27775000	      2776	80002968	be6bc013	xori	x0,x23,-1050	 x23:0xec320000
       27785000	      2777	8000296c	1f0f7f93	andi	x31,x30,496	 x30:0x0000009e x31=0x00000090
       27795000	      2778	80002970	fd810083	lb	x1,-40(x2)	  x2:0x8000816d  x1=0xffffffba PA:0x80008145
       27805000	      2779	80002974	ffc14b03	lbu	x22,-4(x2)	  x2:0x8000816d x22=0x00000028 PA:0x80008169
       27815000	      2780	80002978	2f49a893	slti	x17,x19,756	 x19:0xfffffffe x17=0x00000001
       27825000	      2781	8000297c	01189833	sll	x16,x17,x17	 x17:0x00000001 x17:0x00000001 x16=0x00000002
       27835000	      2782	80002980	fd614983	lbu	x19,-42(x2)	  x2:0x8000816d x19=0x00000059 PA:0x80008143
       27845000	      2783	80002984	00e10803	lb	x16,14(x2)	  x2:0x8000816d x16=0xffffffc4 PA:0x8000817b
       27855000	      2784	80002988	4059dc93	srai	x25,x19,0x5	 x19:0x00000059 x25=0x00000002
       27865000	      2785	8000298c	a919ee13	ori	x28,x19,-1391	 x19:0x00000059 x28=0xfffffad9
       27875000	      2786	80002990	eadb0e13	addi	x28,x22,-339	 x22:0x00000028 x28=0xfffffed5
       27885000	      2787	80002994	0c3ca493	slti	x9,x25,195	 x25:0x00000002  x9=0x00000001
       27895000	      2788	80002998	b46b0f13	addi	x30,x22,-1210	 x22:0x00000028 x30=0xfffffb6e
       27905000	      2789	8000299c	00310aa3	sb	x3,21(x2)	  x2:0x8000816d  x3:0x80009ec8 PA:0x80008182
       27915000	      2790	800029a0	00911083	lh	x1,9(x2)	  x2:0x8000816d  x1=0x000026fd PA:0x80008176
       27925000	      2791	800029a4	32b26593	ori	x11,x4,811	  x4:0xffffff82 x11=0xffffffab
       27935000	      2792	800029a8	02410883	lb	x17,36(x2)	  x2:0x8000816d x17=0xffffffa6 PA:0x80008191
       27945000	      2793	00000000	00000013	addi	x0,x0,0	  x0:0x00000000
       27955000	      2794	800029ac	4112d233	sra	x4,x5,x17	  x5:0x00000000 x17:0xffffffa6  x4=0x00000000
       27965000	      2795	800029b0	01c10a83	lb	x21,28(x2)	  x2:0x8000816d x21=0xffffff99 PA:0x80008189
       27975000	      2796	800029b4	ff214c83	lbu	x25,-14(x2)	  x2:0x8000816d x25=0x00000000 PA:0x8000815f
       27985000	      2797	800029b8	fe310983	lb	x19,-29(x2)	  x2:0x8000816d x19=0x0000004f PA:0x80008150
       27995000	      2798	800029bc	006a5f13	srli	x30,x20,0x6	 x20:0x000000d5 x30=0x00000003
       28005000	      2799	800029c0	02414c03	lbu	x24,36(x2)	  x2:0x8000816d x24=0x000000a6 PA:0x80008191
       28015000	      2800	800029c4	fec6a713	slti	x14,x13,-20	 x13:0x9b584000 x14=0x00000001
       28025000	      2801	800029c8	fff11303	lh	x6,-1(x2)	  x2:0x8000816d  x6=0x0000111a PA:0x8000816c
       28035000	      2802	800029cc	01dea033	slt	x0,x29,x29	 x29:0xffeff760 x29:0xffeff760
       28045000	      2803	800029d0	b7a06713	ori	x14,x0,-1158	  x0:0x00000000 x14=0xfffffb7a
       28055000	      2804	800029d4	e87ecc13	xori	x24,x29,-377	 x29:0xffeff760 x24=0x001009e7
       28065000	      2805	800029d8	02410c03	lb	x24,36(x2)	  x2:0x8000816d x24=0xffffffa6 PA:0x80008191
       28075000	      2806	800029dc	008845b3	xor	x11,x16,x8	 x16:0xffffffc4  x8:0x00000000 x11=0xffffffc4
       28085000	      2807	800029e0	ffd10aa3	sb	x29,-11(x2)	  x2:0x8000816d x29:0xffeff760 PA:0x80008162
       28095000	      2808	800029e4	03614e03	lbu	x28,54(x2)	  x2:0x8000816d x28=0x0000000f PA:0x800081a3
       28105000	      2809	800029e8	01810f83	lb	x31,24(x2)	  x2:0x8000816d x31=0x00000006 PA:0x80008185
       28115000	      2810	800029ec	02d10323	sb	x13,38(x2)	  x2:0x8000816d x13:0x9b584000 PA:0x80008193
       28125000	      2811	800029f0	40785213	srai	x4,x16,0x7	 x16:0xffffffc4  x4=0xffffffff
       28135000	      2812	800029f4	011b0cb3	add	x25,x22,x17	 x22:0x00000028 x17:0xffffffa6 x25=0xffffffce
       28145000	      2813	800029f8	fe514383	lbu	x7,-27(x2)	  x2:0x8000816d  x7=0x00000047 PA:0x80008152
       28155000	      2814	800029fc	824dce93	xori	x29,x27,-2012	 x27:0xd7197000 x29=0x28e68824
       28165000	      2815	80002a00	bd937493	andi	x9,x6,-1063	  x6:0x0000111a  x9=0x00001118
       28175000	      2816	80002a04	6e452093	slti	x1,x10,1764	 x10:0x3a154000  x1=0x00000000
       28185000	      2817	80002a08	8e80eeb7	lui	x29,0x8e80e	 x29=0x8e80e000
       28195000	      2818	80002a0c	feb11083	lh	x1,-21(x2)	  x2:0x8000816d  x1=0x00002776 PA:0x80008158
       28205000	      2819	80002a10	01a7acb3	slt	x25,x15,x26	 x15:0x80009ec8 x26:0x80009fc4 x25=0x00000001
       28215000	      2820	80002a14	00093713	sltiu	x14,x18,0	 x18:0x000000e1 x14=0x00000000
       28225000	      2821	80002a18	fe510423	sb	x5,-24(x2)	  x2:0x8000816d  x5:0x00000000 PA:0x80008155
       28235000	      2822	80002a1c	419952b3	sra	x5,x18,x25	 x18:0x000000e1 x25:0x00000001  x5=0x00000070
       28245000	      2823	80002a20	00029ab3	sll	x21,x5,x0	  x5:0x00000070  x0:0x00000000 x21=0x00000070
       28255000	      2824	80002a24	00610323	sb	x6,6(x2)	  x2:0x8000816d  x6:0x0000111a PA:0x80008173
       28265000	      2825	80002a28	0129ff33	and	x30,x19,x18	 x19:0x0000004f x18:0x000000e1 x30=0x00000041
       28275000	      2826	80002a2c	af640b93	addi	x23,x8,-1290	  x8:0x00000000 x23=0xfffffaf6
       28285000	      2827	80002a30	00b01db3	sll	x27,x0,x11	  x0:0x00000000 x11:0xffffffc4 x27=0x00000000
       28295000	      2828	80002a34	00897db3	and	x27,x18,x8	 x18:0x000000e1  x8:0x00000000 x27=0x00000000
       28305000	      2829	80002a38	ea85f813	andi	x16,x11,-344	 x11:0xffffffc4 x16=0xfffffe80
       28315000	      2830	80002a3c	40add213	srai	x4,x27,0xa	 x27:0x00000000  x4=0x00000000
       28325000	      2831	80002a40	002a7c63	bgeu	x20,x2,80002a58	 x20:0x000000d5  x2:0x8000816d
       28335000	      2832	80002a44	c8fd0713	addi	x14,x26,-881	 x26:0x80009fc4 x14=0x80009c53
       28345000	      2833	80002a48	058ae063	bltu	x21,x24,80002a88	 x21:0x00000070 x24:0xffffffa6
       28355000	      2834	00000000	00000013	addi	x0,x0,0	  x0:0x00000000
       28365000	      2835	80002a84	00000013	addi	x0,x0,0	  x0:0x00000000
       28375000	      2836	80002a88	05bd8063	beq	x27,x27,80002ac8	 x27:0x00000000 x27:0x00000000
       28385000	      2837	00000000	00000013	addi	x0,x0,0	  x0:0x00000000
       28395000	      2838	80002ac4	00000013	addi	x0,x0,0	  x0:0x00000000
       28405000	      2839	80002ac8	011a3bb3	sltu	x23,x20,x17	 x20:0x000000d5 x17:0xffffffa6 x23=0x00000001
       28415000	      2840	80002acc	9fdff293	andi	x5,x31,-1539	 x31:0x00000006  x5=0x00000004
       28425000	      2841	80002ad0	a2926193	ori	x3,x4,-1495	  x4:0x00000000  x3=0xfffffa29
       28435000	      2842	80002ad4	41b38033	sub	x0,x7,x27	  x7:0x00000047 x27:0x00000000
       28445000	      2843	80002ad8	00a9f263	bgeu	x19,x10,80002adc	 x19:0x0000004f x10:0x3a154000
       28455000	      2844	80002adc	00000013	addi	x0,x0,0	  x0:0x00000000
       28465000	      2845	80002ae0	010f4f33	xor	x30,x30,x16	 x30:0x00000041 x16:0xfffffe80 x30=0xfffffec1
       28475000	      2846	80002ae4	00c88263	beq	x17,x12,80002ae8	 x17:0xffffffa6 x12:0x00000000
       28485000	      2847	80002ae8	016aca63	blt	x21,x22,80002afc	 x21:0x00000070 x22:0x00000028
       28495000	      2848	80002aec	00e8d933	srl	x18,x17,x14	 x17:0xffffffa6 x14:0x80009c53 x18=0x00001fff
       28505000	      2849	80002af0	1cd88417	auipc	x8,0x1cd88	  x8=0x9cd8aaec
       28515000	      2850	80002af4	0378ed93	ori	x27,x17,55	 x17:0xffffffa6 x27=0xffffffb7
       28525000	      2851	80002af8	01209213	slli	x4,x1,0x12	  x1:0x00002776  x4=0x9dd80000
       28535000	      2852	80002afc	40090c33	sub	x24,x18,x0	 x18:0x00001fff  x0:0x00000000 x24=0x00001fff
       28545000	      2853	80002b00	02387863	bgeu	x16,x3,80002b30	 x16:0xfffffe80  x3:0xfffffa29
       28555000	      2854	00000000	00000013	addi	x0,x0,0	  x0:0x00000000
       28565000	      2855	80002b2c	00000013	addi	x0,x0,0	  x0:0x00000000
       28575000	      2856	80002b30	04f37663	bgeu	x6,x15,80002b7c	  x6:0x0000111a x15:0x80009ec8
       28585000	      2857	80002b34	005d6733	or	x14,x26,x5	 x26:0x80009fc4  x5:0x00000004 x14=0x80009fc4
       28595000	      2858	80002b38	00000013	addi	x0,x0,0	  x0:0x00000000
       28605000	      2859	80002b3c	013a5a63	bge	x20,x19,80002b50	 x20:0x000000d5 x19:0x0000004f
       28615000	      2860	00000000	00000013	addi	x0,x0,0	  x0:0x00000000
       28625000	      2861	80002b4c	00000013	addi	x0,x0,0	  x0:0x00000000
       28635000	      2862	80002b50	01b19113	slli	x2,x3,0x1b	  x3:0xfffffa29  x2=0x48000000
       28645000	      2863	80002b54	2ca28713	addi	x14,x5,714	  x5:0x00000004 x14=0x000002ce
       28655000	      2864	80002b58	01661e93	slli	x29,x12,0x16	 x12:0x00000000 x29=0x00000000
       28665000	      2865	80002b5c	026d7e63	bgeu	x26,x6,80002b98	 x26:0x80009fc4  x6:0x0000111a
       28675000	      2866	00000000	00000013	addi	x0,x0,0	  x0:0x00000000
       28685000	      2867	80002b94	00000013	addi	x0,x0,0	  x0:0x00000000
       28695000	      2868	80002b98	3232f593	andi	x11,x5,803	  x5:0x00000004 x11=0x00000000
       28705000	      2869	80002b9c	017ebeb3	sltu	x29,x29,x23	 x29:0x00000000 x23:0x00000001 x29=0x00000001
       28715000	      2870	80002ba0	005b3d93	sltiu	x27,x22,5	 x22:0x00000028 x27=0x00000000
       28725000	      2871	80002ba4	002c9a93	slli	x21,x25,0x2	 x25:0x00000001 x21=0x00000004
       28735000	      2872	80002ba8	f1184f93	xori	x31,x16,-239	 x16:0xfffffe80 x31=0x00000191
       28745000	      2873	80002bac	011b5313	srli	x6,x22,0x11	 x22:0x00000028  x6=0x00000000
       28755000	      2874	80002bb0	3ad9cd93	xori	x27,x19,941	 x19:0x0000004f x27=0x000003e2
       28765000	      2875	80002bb4	00047433	and	x8,x8,x0	  x8:0x9cd8aaec  x0:0x00000000  x8=0x00000000
       28775000	      2876	80002bb8	003b5413	srli	x8,x22,0x3	 x22:0x00000028  x8=0x00000005
       28785000	      2877	80002bbc	dbb0f493	andi	x9,x1,-581	  x1:0x00002776  x9=0x00002532
       28795000	      2878	80002bc0	9a5e0537	lui	x10,0x9a5e0	 x10=0x9a5e0000
       28805000	      2879	80002bc4	04a66863	bltu	x12,x10,80002c14	 x12:0x00000000 x10:0x9a5e0000
       28815000	      2880	00000000	00000013	addi	x0,x0,0	  x0:0x00000000
       28825000	      2881	80002c10	00000013	addi	x0,x0,0	  x0:0x00000000
       28835000	      2882	80002c14	173d8817	auipc	x16,0x173d8	 x16=0x973dac10
       28845000	      2883	80002c18	6c8bb393	sltiu	x7,x23,1736	 x23:0x00000001  x7=0x00000001
       28855000	      2884	80002c1c	e04bc493	xori	x9,x23,-508	 x23:0x00000001  x9=0xfffffe05
       28865000	      2885	80002c20	408c5513	srai	x10,x24,0x8	 x24:0x00001fff x10=0x0000001f
       28875000	      2886	80002c24	8a1cba93	sltiu	x21,x25,-1887	 x25:0x00000001 x21=0x00000001
       28885000	      2887	80002c28	00049413	slli	x8,x9,0x0	  x9:0xfffffe05  x8=0xfffffe05
       28895000	      2888	80002c2c	00c63533	sltu	x10,x12,x12	 x12:0x00000000 x12:0x00000000 x10=0x00000000
       28905000	      2889	80002c30	05c84063	blt	x16,x28,80002c70	 x16:0x973dac10 x28:0x0000000f
       28915000	      2890	00000000	00000013	addi	x0,x0,0	  x0:0x00000000
       28925000	      2891	80002c6c	00000013	addi	x0,x0,0	  x0:0x00000000
       28935000	      2892	80002c70	39638713	addi	x14,x7,918	  x7:0x00000001 x14=0x00000397
       28945000	      2893	80002c74	00ed03b3	add	x7,x26,x14	 x26:0x80009fc4 x14:0x00000397  x7=0x8000a35b
       28955000	      2894	80002c78	003be233	or	x4,x23,x3	 x23:0x00000001  x3:0xfffffa29  x4=0xfffffa29
       28965000	      2895	80002c7c	89563693	sltiu	x13,x12,-1899	 x12:0x00000000 x13=0x00000001
       28975000	      2896	80002c80	40410233	sub	x4,x2,x4	  x2:0x48000000  x4:0xfffffa29  x4=0x480005d7
       28985000	      2897	80002c84	d932b013	sltiu	x0,x5,-621	  x5:0x00000004
       28995000	      2898	80002c88	0132cc63	blt	x5,x19,80002ca0	  x5:0x00000004 x19:0x0000004f
       29005000	      2899	00000000	00000013	addi	x0,x0,0	  x0:0x00000000
       29015000	      2900	80002c9c	00000013	addi	x0,x0,0	  x0:0x00000000
       29025000	      2901	80002ca0	0137fc63	bgeu	x15,x19,80002cb8	 x15:0x80009ec8 x19:0x0000004f
       29035000	      2902	00000000	00000013	addi	x0,x0,0	  x0:0x00000000
       29045000	      2903	80002cb4	00000013	addi	x0,x0,0	  x0:0x00000000
       29055000	      2904	80002cb8	086fc063	blt	x31,x6,80002d38	 x31:0x00000191  x6:0x00000000
       29065000	      2905	80002cbc	018d4c13	xori	x24,x26,24	 x26:0x80009fc4 x24=0x80009fdc
       29075000	      2906	80002cc0	00e5db33	srl	x22,x11,x14	 x11:0x00000000 x14:0x00000397 x22=0x00000000
       29085000	      2907	80002cc4	015bf9b3	and	x19,x23,x21	 x23:0x00000001 x21:0x00000001 x19=0x00000001
       29095000	      2908	80002cc8	00ecdbb3	srl	x23,x25,x14	 x25:0x00000001 x14:0x00000397 x23=0x00000000
       29105000	      2909	80002ccc	013b7c33	and	x24,x22,x19	 x22:0x00000000 x19:0x00000001 x24=0x00000000
       29115000	      2910	80002cd0	78452d93	slti	x27,x10,1924	 x10:0x00000000 x27=0x00000001
       29125000	      2911	80002cd4	b096c037	lui	x0,0xb096c	
       29135000	      2912	80002cd8	6684e313	ori	x6,x9,1640	  x9:0xfffffe05  x6=0xfffffe6d
       29145000	      2913	80002cdc	62273013	sltiu	x0,x14,1570	 x14:0x00000397
       29155000	      2914	80002ce0	4036de93	srai	x29,x13,0x3	 x13:0x00000001 x29=0x00000000
       29165000	      2915	80002ce4	0023d913	srli	x18,x7,0x2	  x7:0x8000a35b x18=0x200028d6
       29175000	      2916	80002ce8	01c4d5b3	srl	x11,x9,x28	  x9:0xfffffe05 x28:0x0000000f x11=0x0001ffff
       29185000	      2917	80002cec	00034c33	xor	x24,x6,x0	  x6:0xfffffe6d  x0:0x00000000 x24=0xfffffe6d
       29195000	      2918	80002cf0	01389f13	slli	x30,x17,0x13	 x17:0xffffffa6 x30=0xfd300000
       29205000	      2919	80002cf4	009a6463	bltu	x20,x9,80002cfc	 x20:0x000000d5  x9:0xfffffe05
       29215000	      2920	00000000	00000013	addi	x0,x0,0	  x0:0x00000000
       29225000	      2921	80002cf8	00000013	addi	x0,x0,0	  x0:0x00000000
       29235000	      2922	80002cfc	4b5030ef	jal	x1,80002cfc	  x1=0x80002cfc
       29245000	      2923	00000000	00000013	addi	x0,x0,0	  x0:0x00000000
       29255000	      2924	800069ac	00000013	addi	x0,x0,0	  x0:0x00000000
       29265000	      2925	800069b0	ff478793	addi	x15,x15,-12	 x15:0x80009ec8 x15=0x80009ebc
       29275000	      2926	800069b4	c6626193	ori	x3,x4,-922	  x4:0x480005d7  x3=0xfffffdf7
       29285000	      2927	800069b8	010cc1b3	xor	x3,x25,x16	 x25:0x00000001 x16:0x973dac10  x3=0x973dac11
       29295000	      2928	800069bc	011fc233	xor	x4,x31,x17	 x31:0x00000191 x17:0xffffffa6  x4=0xfffffe37
       29305000	      2929	800069c0	01080533	add	x10,x16,x16	 x16:0x973dac10 x16:0x973dac10 x10=0x2e7b5820
       29315000	      2930	800069c4	0017a223	sw	x1,4(x15)	 x15:0x80009ebc  x1:0x80002cfc PA:0x80009ec0
       29325000	      2931	800069c8	00db7b33	and	x22,x22,x13	 x22:0x00000000 x13:0x00000001 x22=0x00000000
       29335000	      2932	800069cc	00002117	auipc	x2,0x2	  x2=0x800089c8
       29345000	      2933	800069d0	59510113	addi	x2,x2,1429	  x2:0x800089c8  x2=0x80008f5d
       29355000	      2934	800069d4	ffe14f03	lbu	x30,-2(x2)	  x2:0x80008f5d x30=0x000000eb PA:0x80008f5b
       29365000	      2935	800069d8	0174bbb3	sltu	x23,x9,x23	  x9:0xfffffe05 x23:0x00000000 x23=0x00000000
       29375000	      2936	800069dc	006ebe33	sltu	x28,x29,x6	 x29:0x00000000  x6:0xfffffe6d x28=0x00000001
       29385000	      2937	800069e0	00c87e33	and	x28,x16,x12	 x16:0x973dac10 x12:0x00000000 x28=0x00000000
       29395000	      2938	800069e4	01261db3	sll	x27,x12,x18	 x12:0x00000000 x18:0x200028d6 x27=0x00000000
       29405000	      2939	800069e8	fc910c03	lb	x24,-55(x2)	  x2:0x80008f5d x24=0xffffffd0 PA:0x80008f26
       29415000	      2940	800069ec	00b12403	lw	x8,11(x2)	  x2:0x80008f5d  x8=0x3b353034 PA:0x80008f68
       29425000	      2941	800069f0	00a10503	lb	x10,10(x2)	  x2:0x80008f5d x10=0xffffffc0 PA:0x80008f67
       29435000	      2942	800069f4	03c10383	lb	x7,60(x2)	  x2:0x80008f5d  x7=0x0000002e PA:0x80008f99
       29445000	      2943	800069f8	5cb9bc17	auipc	x24,0x5cb9b	 x24=0xdcba19f4
       29455000	      2944	800069fc	00dd1db3	sll	x27,x26,x13	 x26:0x80009fc4 x13:0x00000001 x27=0x00013f88
       29465000	      2945	80006a00	01725693	srli	x13,x4,0x17	  x4:0xfffffe37 x13=0x000001ff
       29475000	      2946	80006a04	9a603b93	sltiu	x23,x0,-1626	  x0:0x00000000 x23=0x00000001
       29485000	      2947	80006a08	ffc10323	sb	x28,-26(x2)	  x2:0x80008f5d x28:0x00000000 PA:0x80008f43
       29495000	      2948	80006a0c	01a0e393	ori	x7,x1,26	  x1:0x80002cfc  x7=0x80002cfe
       29505000	      2949	80006a10	ffe14883	lbu	x17,-2(x2)	  x2:0x80008f5d x17=0x000000eb PA:0x80008f5b
       29515000	      2950	00000000	00000013	addi	x0,x0,0	  x0:0x00000000
       29525000	      2951	80006a14	0116da33	srl	x20,x13,x17	 x13:0x000001ff x17:0x000000eb x20=0x00000000
       29535000	      2952	80006a18	fda14683	lbu	x13,-38(x2)	  x2:0x80008f5d x13=0x000000eb PA:0x80008f37
       29545000	      2953	00000000	00000013	addi	x0,x0,0	  x0:0x00000000
       29555000	      2954	80006a1c	40d15433	sra	x8,x2,x13	  x2:0x80008f5d x13:0x000000eb  x8=0xfff00011
       29565000	      2955	80006a20	01c94333	xor	x6,x18,x28	 x18:0x200028d6 x28:0x00000000  x6=0x200028d6
       29575000	      2956	80006a24	018739b3	sltu	x19,x14,x24	 x14:0x00000397 x24:0xdcba19f4 x19=0x00000001
       29585000	      2957	80006a28	ffa14503	lbu	x10,-6(x2)	  x2:0x80008f5d x10=0x00000007 PA:0x80008f57
       29595000	      2958	00000000	00000013	addi	x0,x0,0	  x0:0x00000000
       29605000	      2959	80006a2c	00951e33	sll	x28,x10,x9	 x10:0x00000007  x9:0xfffffe05 x28=0x000000e0
       29615000	      2960	80006a30	00251093	slli	x1,x10,0x2	 x10:0x00000007  x1=0x0000001c
       29625000	      2961	80006a34	fc510f83	lb	x31,-59(x2)	  x2:0x80008f5d x31=0x0000003d PA:0x80008f22
       29635000	      2962	80006a38	f0eb3913	sltiu	x18,x22,-242	 x22:0x00000000 x18=0x00000001
       29645000	      2963	80006a3c	01d0c4b3	xor	x9,x1,x29	  x1:0x0000001c x29:0x00000000  x9=0x0000001c
       29655000	      2964	80006a40	fea11aa3	sh	x10,-11(x2)	  x2:0x80008f5d x10:0x00000007 PA:0x80008f52
       29665000	      2965	80006a44	05310023	sb	x19,64(x2)	  x2:0x80008f5d x19:0x00000001 PA:0x80008f9d
       29675000	      2966	80006a48	fe915803	lhu	x16,-23(x2)	  x2:0x80008f5d x16=0x00001945 PA:0x80008f46
       29685000	      2967	80006a4c	013c26b3	slt	x13,x24,x19	 x24:0xdcba19f4 x19:0x00000001 x13=0x00000001
       29695000	      2968	80006a50	b5eb4c13	xori	x24,x22,-1186	 x22:0x00000000 x24=0xfffffb5e
       29705000	      2969	80006a54	00beb2b3	sltu	x5,x29,x11	 x29:0x00000000 x11:0x0001ffff  x5=0x00000001
       29715000	      2970	80006a58	27038f13	addi	x30,x7,624	  x7:0x80002cfe x30=0x80002f6e
       29725000	      2971	80006a5c	01810223	sb	x24,4(x2)	  x2:0x80008f5d x24:0xfffffb5e PA:0x80008f61
       29735000	      2972	80006a60	00000013	addi	x0,x0,0	  x0:0x00000000
       29745000	      2973	80006a64	01b67eb3	and	x29,x12,x27	 x12:0x00000000 x27:0x00013f88 x29=0x00000000
       29755000	      2974	80006a68	0175f733	and	x14,x11,x23	 x11:0x0001ffff x23:0x00000001 x14=0x00000001
       29765000	      2975	80006a6c	01015ab3	srl	x21,x2,x16	  x2:0x80008f5d x16:0x00001945 x21=0x0400047a
       29775000	      2976	80006a70	03c24263	blt	x4,x28,80006a94	  x4:0xfffffe37 x28:0x000000e0
       29785000	      2977	00000000	00000013	addi	x0,x0,0	  x0:0x00000000
       29795000	      2978	80006a90	00000013	addi	x0,x0,0	  x0:0x00000000
       29805000	      2979	80006a94	857044b7	lui	x9,0x85704	  x9=0x85704000
       29815000	      2980	80006a98	2c6da293	slti	x5,x27,710	 x27:0x00013f88  x5=0x00000000
       29825000	      2981	80006a9c	04cf7263	bgeu	x30,x12,80006ae0	 x30:0x80002f6e x12:0x00000000
       29835000	      2982	00000000	00000013	addi	x0,x0,0	  x0:0x00000000
       29845000	      2983	80006adc	00000013	addi	x0,x0,0	  x0:0x00000000
       29855000	      2984	80006ae0	d3a98f93	addi	x31,x19,-710	 x19:0x00000001 x31=0xfffffd3b
       29865000	      2985	80006ae4	72876893	ori	x17,x14,1832	 x14:0x00000001 x17=0x00000729
       29875000	      2986	80006ae8	ed907b13	andi	x22,x0,-295	  x0:0x00000000 x22=0x00000000
       29885000	      2987	80006aec	40d5d433	sra	x8,x11,x13	 x11:0x0001ffff x13:0x00000001  x8=0x0000ffff
       29895000	      2988	80006af0	40dd0db3	sub	x27,x26,x13	 x26:0x80009fc4 x13:0x00000001 x27=0x80009fc3
       29905000	      2989	80006af4	9d3d8c13	addi	x24,x27,-1581	 x27:0x80009fc3 x24=0x80009996
       29915000	      2990	80006af8	00d07233	and	x4,x0,x13	  x0:0x00000000 x13:0x00000001  x4=0x00000000
       29925000	      2991	80006afc	006d7a63	bgeu	x26,x6,80006b10	 x26:0x80009fc4  x6:0x200028d6
       29935000	      2992	00000000	00000013	addi	x0,x0,0	  x0:0x00000000
       29945000	      2993	80006b0c	00000013	addi	x0,x0,0	  x0:0x00000000
       29955000	      2994	80006b10	00d36833	or	x16,x6,x13	  x6:0x200028d6 x13:0x00000001 x16=0x200028d7
       29965000	      2995	80006b14	3a122013	slti	x0,x4,929	  x4:0x00000000
       29975000	      2996	80006b18	f47c3193	sltiu	x3,x24,-185	 x24:0x80009996  x3=0x00000001
       29985000	      2997	80006b1c	0e974093	xori	x1,x14,233	 x14:0x00000001  x1=0x000000e8
       29995000	      2998	80006b20	00668463	beq	x13,x6,80006b28	 x13:0x00000001  x6:0x200028d6
       30005000	      2999	80006b24	c2d9c693	xori	x13,x19,-979	 x19:0x00000001 x13=0xfffffc2c
       30015000	      3000	80006b28	02ba7263	bgeu	x20,x11,80006b4c	 x20:0x00000000 x11:0x0001ffff
       30025000	      3001	80006b2c	02bef863	bgeu	x29,x11,80006b5c	 x29:0x00000000 x11:0x0001ffff
       30035000	      3002	80006b30	1e8de693	ori	x13,x27,488	 x27:0x80009fc3 x13=0x80009feb
       30045000	      3003	80006b34	00b34133	xor	x2,x6,x11	  x6:0x200028d6 x11:0x0001ffff  x2=0x2001d729
       30055000	      3004	80006b38	88ef8f13	addi	x30,x31,-1906	 x31:0xfffffd3b x30=0xfffff5c9
       30065000	      3005	80006b3c	0097ee63	bltu	x15,x9,80006b58	 x15:0x80009ebc  x9:0x85704000
       30075000	      3006	00000000	00000013	addi	x0,x0,0	  x0:0x00000000
       30085000	      3007	80006b54	00000013	addi	x0,x0,0	  x0:0x00000000
       30095000	      3008	80006b58	13638913	addi	x18,x7,310	  x7:0x80002cfe x18=0x80002e34
       30105000	      3009	80006b5c	00d79913	slli	x18,x15,0xd	 x15:0x80009ebc x18=0x13d78000
       30115000	      3010	80006b60	40c65bb3	sra	x23,x12,x12	 x12:0x00000000 x12:0x00000000 x23=0x00000000
       30125000	      3011	80006b64	885c0117	auipc	x2,0x885c0	  x2=0x085c6b60
       30135000	      3012	80006b68	415fd333	sra	x6,x31,x21	 x31:0xfffffd3b x21:0x0400047a  x6=0xffffffff
       30145000	      3013	80006b6c	41be5c13	srai	x24,x28,0x1b	 x28:0x000000e0 x24=0x00000000
       30155000	      3014	80006b70	2c60e113	ori	x2,x1,710	  x1:0x000000e8  x2=0x000002ee
       30165000	      3015	80006b74	88f2b013	sltiu	x0,x5,-1905	  x5:0x00000000
       30175000	      3016	80006b78	01d5e463	bltu	x11,x29,80006b80	 x11:0x0001ffff x29:0x00000000
       30185000	      3017	80006b7c	00000013	addi	x0,x0,0	  x0:0x00000000
       30195000	      3018	80006b80	41fa5893	srai	x17,x20,0x1f	 x20:0x00000000 x17=0x00000000
       30205000	      3019	80006b84	b28f6013	ori	x0,x30,-1240	 x30:0xfffff5c9
       30215000	      3020	80006b88	f01188b7	lui	x17,0xf0118	 x17=0xf0118000
       30225000	      3021	80006b8c	7b0d4093	xori	x1,x26,1968	 x26:0x80009fc4  x1=0x80009874
       30235000	      3022	80006b90	016ea5b3	slt	x11,x29,x22	 x29:0x00000000 x22:0x00000000 x11=0x00000000
       30245000	      3023	80006b94	0088e863	bltu	x17,x8,80006ba4	 x17:0xf0118000  x8:0x0000ffff
       30255000	      3024	80006b98	3e42f893	andi	x17,x5,996	  x5:0x00000000 x17=0x00000000
       30265000	      3025	80006b9c	ab2efc93	andi	x25,x29,-1358	 x29:0x00000000 x25=0x00000000
       30275000	      3026	80006ba0	00b87533	and	x10,x16,x11	 x16:0x200028d7 x11:0x00000000 x10=0x00000000
       30285000	      3027	80006ba4	009d1c33	sll	x24,x26,x9	 x26:0x80009fc4  x9:0x85704000 x24=0x80009fc4
       30295000	      3028	80006ba8	016b1863	bne	x22,x22,80006bb8	 x22:0x00000000 x22:0x00000000
       30305000	      3029	80006bac	40c65e13	srai	x28,x12,0xc	 x12:0x00000000 x28=0x00000000
       30315000	      3030	80006bb0	e3d04413	xori	x8,x0,-451	  x0:0x00000000  x8=0xfffffe3d
       30325000	      3031	80006bb4	28bd3813	sltiu	x16,x26,651	 x26:0x80009fc4 x16=0x00000000
       30335000	      3032	80006bb8	412dd113	srai	x2,x27,0x12	 x27:0x80009fc3  x2=0xffffe000
       30345000	      3033	80006bbc	41d3df93	srai	x31,x7,0x1d	  x7:0x80002cfe x31=0xfffffffc
       30355000	      3034	80006bc0	045d4663	blt	x26,x5,80006c0c	 x26:0x80009fc4  x5:0x00000000
       30365000	      3035	00000000	00000013	addi	x0,x0,0	  x0:0x00000000
       30375000	      3036	80006c08	00000013	addi	x0,x0,0	  x0:0x00000000
       30385000	      3037	80006c0c	d8bd7693	andi	x13,x26,-629	 x26:0x80009fc4 x13=0x80009d80
       30395000	      3038	80006c10	7ea2af93	slti	x31,x5,2026	  x5:0x00000000 x31=0x00000001
       30405000	      3039	80006c14	ee86cb93	xori	x23,x13,-280	 x13:0x80009d80 x23=0x7fff6368
       30415000	      3040	80006c18	0376c463	blt	x13,x23,80006c40	 x13:0x80009d80 x23:0x7fff6368
       30425000	      3041	00000000	00000013	addi	x0,x0,0	  x0:0x00000000
       30435000	      3042	80006c3c	00000013	addi	x0,x0,0	  x0:0x00000000
       30445000	      3043	80006c40	01cd69b3	or	x19,x26,x28	 x26:0x80009fc4 x28:0x00000000 x19=0x80009fc4
       30455000	      3044	80006c44	d65a0893	addi	x17,x20,-667	 x20:0x00000000 x17=0xfffffd65
       30465000	      3045	80006c48	0054da33	srl	x20,x9,x5	  x9:0x85704000  x5:0x00000000 x20=0x85704000
       30475000	      3046	80006c4c	08d12493	slti	x9,x2,141	  x2:0xffffe000  x9=0x00000001
       30485000	      3047	80006c50	00a779b3	and	x19,x14,x10	 x14:0x00000001 x10:0x00000000 x19=0x00000000
       30495000	      3048	80006c54	00a901b3	add	x3,x18,x10	 x18:0x13d78000 x10:0x00000000  x3=0x13d78000
       30505000	      3049	80006c58	01e9dc63	bge	x19,x30,80006c70	 x19:0x00000000 x30:0xfffff5c9
       30515000	      3050	00000000	00000013	addi	x0,x0,0	  x0:0x00000000
       30525000	      3051	80006c6c	00000013	addi	x0,x0,0	  x0:0x00000000
       30535000	      3052	80006c70	000f7233	and	x4,x30,x0	 x30:0xfffff5c9  x0:0x00000000  x4=0x00000000
       30545000	      3053	80006c74	0047a083	lw	x1,4(x15)	 x15:0x80009ebc  x1=0x80002cfc PA:0x80009ec0
       30555000	      3054	80006c78	00a5a133	slt	x2,x11,x10	 x11:0x00000000 x10:0x00000000  x2=0x00000000
       30565000	      3055	80006c7c	0085b9b3	sltu	x19,x11,x8	 x11:0x00000000  x8:0xfffffe3d x19=0x00000001
       30575000	      3056	80006c80	ba6cf813	andi	x16,x25,-1114	 x25:0x00000000 x16=0x00000000
       30585000	      3057	80006c84	00c78793	addi	x15,x15,12	 x15:0x80009ebc x15=0x80009ec8
       30595000	      3058	80006c88	00000013	addi	x0,x0,0	  x0:0x00000000
       30605000	      3059	80006c8c	cb8f4713	xori	x14,x30,-840	 x30:0xfffff5c9 x14=0x00000971
       30615000	      3060	80006c90	94d2da17	auipc	x20,0x94d2d	 x20=0x14d33c8c
       30625000	      3061	80006c94	409cd113	srai	x2,x25,0x9	 x25:0x00000000  x2=0x00000000
       30635000	      3062	80006c98	00008f13	addi	x30,x1,0	  x1:0x80002cfc x30=0x80002cfc
       30645000	      3063	80006c9c	000f0f67	jalr	x30,x30,0	 x30:0x80002cfc x30=0x80006c9c
       30655000	      3064	00000000	00000013	addi	x0,x0,0	  x0:0x00000000
       30665000	      3065	80002cfc	00000013	addi	x0,x0,0	  x0:0x00000000
       30675000	      3066	80002d00	0109d3b3	srl	x7,x19,x16	 x19:0x00000001 x16:0x00000000  x7=0x00000001
       30685000	      3067	80002d04	7f98b493	sltiu	x9,x17,2041	 x17:0xfffffd65  x9=0x00000000
       30695000	      3068	80002d08	054f1063	bne	x30,x20,80002d48	 x30:0x80006c9c x20:0x14d33c8c
       30705000	      3069	00000000	00000013	addi	x0,x0,0	  x0:0x00000000
       30715000	      3070	80002d44	00000013	addi	x0,x0,0	  x0:0x00000000
       30725000	      3071	80002d48	03bfce63	blt	x31,x27,80002d84	 x31:0x00000001 x27:0x80009fc3
       30735000	      3072	80002d4c	0310c663	blt	x1,x17,80002d78	  x1:0x80002cfc x17:0xfffffd65
       30745000	      3073	00000000	00000013	addi	x0,x0,0	  x0:0x00000000
       30755000	      3074	80002d74	00000013	addi	x0,x0,0	  x0:0x00000000
       30765000	      3075	80002d78	01f4e833	or	x16,x9,x31	  x9:0x00000000 x31:0x00000001 x16=0x00000001
       30775000	      3076	80002d7c	01ac5a63	bge	x24,x26,80002d90	 x24:0x80009fc4 x26:0x80009fc4
       30785000	      3077	00000000	00000013	addi	x0,x0,0	  x0:0x00000000
       30795000	      3078	80002d8c	00000013	addi	x0,x0,0	  x0:0x00000000
       30805000	      3079	80002d90	00e32bb3	slt	x23,x6,x14	  x6:0xffffffff x14:0x00000971 x23=0x00000001
       30815000	      3080	80002d94	01171433	sll	x8,x14,x17	 x14:0x00000971 x17:0xfffffd65  x8=0x00012e20
       30825000	      3081	80002d98	60137193	andi	x3,x6,1537	  x6:0xffffffff  x3=0x00000601
       30835000	      3082	80002d9c	01d19e13	slli	x28,x3,0x1d	  x3:0x00000601 x28=0x20000000
       30845000	      3083	80002da0	1ea99537	lui	x10,0x1ea99	 x10=0x1ea99000
       30855000	      3084	80002da4	295f0513	addi	x10,x30,661	 x30:0x80006c9c x10=0x80006f31
       30865000	      3085	80002da8	002cab33	slt	x22,x25,x2	 x25:0x00000000  x2:0x00000000 x22=0x00000000
       30875000	      3086	80002dac	416c5a93	srai	x21,x24,0x16	 x24:0x80009fc4 x21=0xfffffe00
       30885000	      3087	80002db0	40725a13	srai	x20,x4,0x7	  x4:0x00000000 x20=0x00000000
       30895000	      3088	80002db4	c5f16d93	ori	x27,x2,-929	  x2:0x00000000 x27=0xfffffc5f
       30905000	      3089	80002db8	40c60cb3	sub	x25,x12,x12	 x12:0x00000000 x12:0x00000000 x25=0x00000000
       30915000	      3090	80002dbc	00caf1b3	and	x3,x21,x12	 x21:0xfffffe00 x12:0x00000000  x3=0x00000000
       30925000	      3091	80002dc0	00000013	addi	x0,x0,0	  x0:0x00000000
       30935000	      3092	80002dc4	cf393c93	sltiu	x25,x18,-781	 x18:0x13d78000 x25=0x00000001
       30945000	      3093	80002dc8	55b10a93	addi	x21,x2,1371	  x2:0x00000000 x21=0x0000055b
       30955000	      3094	80002dcc	00000013	addi	x0,x0,0	  x0:0x00000000
       30965000	      3095	80002dd0	b6ca2693	slti	x13,x20,-1172	 x20:0x00000000 x13=0x00000000
       30975000	      3096	80002dd4	00acbfb3	sltu	x31,x25,x10	 x25:0x00000001 x10:0x80006f31 x31=0x00000001
       30985000	      3097	80002dd8	531fec97	auipc	x25,0x531fe	 x25=0xd3200dd4
       30995000	      3098	80002ddc	0181d093	srli	x1,x3,0x18	  x3:0x00000000  x1=0x00000000
       31005000	      3099	80002de0	00000013	addi	x0,x0,0	  x0:0x00000000
       31015000	      3100	80002de4	01123db3	sltu	x27,x4,x17	  x4:0x00000000 x17:0xfffffd65 x27=0x00000001
       31025000	      3101	80002de8	01d49233	sll	x4,x9,x29	  x9:0x00000000 x29:0x00000000  x4=0x00000000
       31035000	      3102	80002dec	f517b093	sltiu	x1,x15,-175	 x15:0x80009ec8  x1=0x00000001
       31045000	      3103	80002df0	00056433	or	x8,x10,x0	 x10:0x80006f31  x0:0x00000000  x8=0x80006f31
       31055000	      3104	80002df4	1efd0b13	addi	x22,x26,495	 x26:0x80009fc4 x22=0x8000a1b3
       31065000	      3105	80002df8	fb4f8413	addi	x8,x31,-76	 x31:0x00000001  x8=0xffffffb5
       31075000	      3106	80002dfc	019f1d93	slli	x27,x30,0x19	 x30:0x80006c9c x27=0x38000000
       31085000	      3107	80002e00	040d1663	bne	x26,x0,80002e4c	 x26:0x80009fc4  x0:0x00000000
       31095000	      3108	00000000	00000013	addi	x0,x0,0	  x0:0x00000000
       31105000	      3109	80002e48	00000013	addi	x0,x0,0	  x0:0x00000000
       31115000	      3110	80002e4c	f5edb713	sltiu	x14,x27,-162	 x27:0x38000000 x14=0x00000001
       31125000	      3111	80002e50	8252b537	lui	x10,0x8252b	 x10=0x8252b000
       31135000	      3112	80002e54	008c9c93	slli	x25,x25,0x8	 x25:0xd3200dd4 x25=0x200dd400
       31145000	      3113	80002e58	40b405b3	sub	x11,x8,x11	  x8:0xffffffb5 x11:0x00000000 x11=0xffffffb5
       31155000	      3114	80002e5c	5356f713	andi	x14,x13,1333	 x13:0x00000000 x14=0x00000000
       31165000	      3115	80002e60	0058e593	ori	x11,x17,5	 x17:0xfffffd65 x11=0xfffffd65
       31175000	      3116	80002e64	0015df33	srl	x30,x11,x1	 x11:0xfffffd65  x1:0x00000001 x30=0x7ffffeb2
       31185000	      3117	80002e68	f6ffad93	slti	x27,x31,-145	 x31:0x00000001 x27=0x00000000
       31195000	      3118	80002e6c	3d653293	sltiu	x5,x10,982	 x10:0x8252b000  x5=0x00000000
       31205000	      3119	80002e70	00f0c5b3	xor	x11,x1,x15	  x1:0x00000001 x15:0x80009ec8 x11=0x80009ec9
       31215000	      3120	80002e74	01e3d533	srl	x10,x7,x30	  x7:0x00000001 x30:0x7ffffeb2 x10=0x00000000
       31225000	      3121	80002e78	413f8ab3	sub	x21,x31,x19	 x31:0x00000001 x19:0x00000001 x21=0x00000000
       31235000	      3122	80002e7c	00181e93	slli	x29,x16,0x1	 x16:0x00000001 x29=0x00000002
       31245000	      3123	80002e80	1cc5b213	sltiu	x4,x11,460	 x11:0x80009ec9  x4=0x00000000
       31255000	      3124	80002e84	01bc9863	bne	x25,x27,80002e94	 x25:0x200dd400 x27:0x00000000
       31265000	      3125	00000000	00000013	addi	x0,x0,0	  x0:0x00000000
       31275000	      3126	80002e90	00000013	addi	x0,x0,0	  x0:0x00000000
       31285000	      3127	80002e94	02d8ca63	blt	x17,x13,80002ec8	 x17:0xfffffd65 x13:0x00000000
       31295000	      3128	00000000	00000013	addi	x0,x0,0	  x0:0x00000000
       31305000	      3129	80002ec4	00000013	addi	x0,x0,0	  x0:0x00000000
       31315000	      3130	80002ec8	006e5a13	srli	x20,x28,0x6	 x28:0x20000000 x20=0x00800000
       31325000	      3131	80002ecc	7f463d93	sltiu	x27,x12,2036	 x12:0x00000000 x27=0x00000001
       31335000	      3132	80002ed0	41620bb3	sub	x23,x4,x22	  x4:0x00000000 x22:0x8000a1b3 x23=0x7fff5e4d
       31345000	      3133	80002ed4	05315663	bge	x2,x19,80002f20	  x2:0x00000000 x19:0x00000001
       31355000	      3134	80002ed8	14e43393	sltiu	x7,x8,334	  x8:0xffffffb5  x7=0x00000000
       31365000	      3135	80002edc	00754db3	xor	x27,x10,x7	 x10:0x00000000  x7:0x00000000 x27=0x00000000
       31375000	      3136	80002ee0	01528433	add	x8,x5,x21	  x5:0x00000000 x21:0x00000000  x8=0x00000000
       31385000	      3137	80002ee4	01273e33	sltu	x28,x14,x18	 x14:0x00000000 x18:0x13d78000 x28=0x00000001
       31395000	      3138	80002ee8	00791f93	slli	x31,x18,0x7	 x18:0x13d78000 x31=0xebc00000
       31405000	      3139	80002eec	0009d1b3	srl	x3,x19,x0	 x19:0x00000001  x0:0x00000000  x3=0x00000001
       31415000	      3140	80002ef0	40055693	srai	x13,x10,0x0	 x10:0x00000000 x13=0x00000000
       31425000	      3141	80002ef4	0169cc33	xor	x24,x19,x22	 x19:0x00000001 x22:0x8000a1b3 x24=0x8000a1b2
       31435000	      3142	80002ef8	40178e33	sub	x28,x15,x1	 x15:0x80009ec8  x1:0x00000001 x28=0x80009ec7
       31445000	      3143	80002efc	4015d893	srai	x17,x11,0x1	 x11:0x80009ec9 x17=0xc0004f64
       31455000	      3144	80002f00	b8ef0437	lui	x8,0xb8ef0	  x8=0xb8ef0000
       31465000	      3145	80002f04	23d44993	xori	x19,x8,573	  x8:0xb8ef0000 x19=0xb8ef023d
       31475000	      3146	80002f08	00c41b13	slli	x22,x8,0xc	  x8:0xb8ef0000 x22=0xf0000000
       31485000	      3147	80002f0c	8e02af13	slti	x30,x5,-1824	  x5:0x00000000 x30=0x00000000
       31495000	      3148	80002f10	73798b93	addi	x23,x19,1847	 x19:0xb8ef023d x23=0xb8ef0974
       31505000	      3149	80002f14	da6acb13	xori	x22,x21,-602	 x21:0x00000000 x22=0xfffffda6
       31515000	      3150	80002f18	c19d0213	addi	x4,x26,-999	 x26:0x80009fc4  x4=0x80009bdd
       31525000	      3151	80002f1c	416553b3	sra	x7,x10,x22	 x10:0x00000000 x22:0xfffffda6  x7=0x00000000
       31535000	      3152	80002f20	002f5e13	srli	x28,x30,0x2	 x30:0x00000000 x28=0x00000000
       31545000	      3153	80002f24	b5ecf413	andi	x8,x25,-1186	 x25:0x200dd400  x8=0x200dd000
       31555000	      3154	80002f28	050f8263	beq	x31,x16,80002f6c	 x31:0xebc00000 x16:0x00000001
       31565000	      3155	80002f2c	c1dd7397	auipc	x7,0xc1dd7	  x7=0x41dd9f28
       31575000	      3156	80002f30	01411ab3	sll	x21,x2,x20	  x2:0x00000000 x20:0x00800000 x21=0x00000000
       31585000	      3157	80002f34	017ca833	slt	x16,x25,x23	 x25:0x200dd400 x23:0xb8ef0974 x16=0x00000000
       31595000	      3158	80002f38	01bbddb3	srl	x27,x23,x27	 x23:0xb8ef0974 x27:0x00000000 x27=0xb8ef0974
       31605000	      3159	80002f3c	01055d93	srli	x27,x10,0x10	 x10:0x00000000 x27=0x00000000
       31615000	      3160	80002f40	01474533	xor	x10,x14,x20	 x14:0x00000000 x20:0x00800000 x10=0x00800000
       31625000	      3161	80002f44	1c457e93	andi	x29,x10,452	 x10:0x00800000 x29=0x00000000
       31635000	      3162	80002f48	90fe2193	slti	x3,x28,-1777	 x28:0x00000000  x3=0x00000000
       31645000	      3163	80002f4c	d83b3513	sltiu	x10,x22,-637	 x22:0xfffffda6 x10=0x00000000
       31655000	      3164	80002f50	006a0a63	beq	x20,x6,80002f64	 x20:0x00800000  x6:0xffffffff
       31665000	      3165	80002f54	00b9b5b3	sltu	x11,x19,x11	 x19:0xb8ef023d x11:0x80009ec9 x11=0x00000000
       31675000	      3166	80002f58	015e60b3	or	x1,x28,x21	 x28:0x00000000 x21:0x00000000  x1=0x00000000
       31685000	      3167	80002f5c	0027e133	or	x2,x15,x2	 x15:0x80009ec8  x2:0x00000000  x2=0x80009ec8
       31695000	      3168	80002f60	004fbf33	sltu	x30,x31,x4	 x31:0xebc00000  x4:0x80009bdd x30=0x00000000
       31705000	      3169	80002f64	010ef933	and	x18,x29,x16	 x29:0x00000000 x16:0x00000000 x18=0x00000000
       31715000	      3170	80002f68	03b3d663	bge	x7,x27,80002f94	  x7:0x41dd9f28 x27:0x00000000
       31725000	      3171	00000000	00000013	addi	x0,x0,0	  x0:0x00000000
       31735000	      3172	80002f90	00000013	addi	x0,x0,0	  x0:0x00000000
       31745000	      3173	80002f94	04f91063	bne	x18,x15,80002fd4	 x18:0x00000000 x15:0x80009ec8
       31755000	      3174	00000000	00000013	addi	x0,x0,0	  x0:0x00000000
       31765000	      3175	80002fd0	00000013	addi	x0,x0,0	  x0:0x00000000
       31775000	      3176	80002fd4	00000013	addi	x0,x0,0	  x0:0x00000000
       31785000	      3177	80002fd8	2aade713	ori	x14,x27,682	 x27:0x00000000 x14=0x000002aa
       31795000	      3178	80002fdc	41725c33	sra	x24,x4,x23	  x4:0x80009bdd x23:0xb8ef0974 x24=0xfffff800
       31805000	      3179	80002fe0	505dae93	slti	x29,x27,1285	 x27:0x00000000 x29=0x00000001
       31815000	      3180	80002fe4	01658c63	beq	x11,x22,80002ffc	 x11:0x00000000 x22:0xfffffda6
       31825000	      3181	80002fe8	008f82b3	add	x5,x31,x8	 x31:0xebc00000  x8:0x200dd000  x5=0x0bcdd000
       31835000	      3182	80002fec	02d57463	bgeu	x10,x13,80003014	 x10:0x00000000 x13:0x00000000
       31845000	      3183	00000000	00000013	addi	x0,x0,0	  x0:0x00000000
       31855000	      3184	80003010	00000013	addi	x0,x0,0	  x0:0x00000000
       31865000	      3185	80003014	03ef6663	bltu	x30,x30,80003040	 x30:0x00000000 x30:0x00000000
       31875000	      3186	80003018	013bd4b3	srl	x9,x23,x19	 x23:0xb8ef0974 x19:0xb8ef023d  x9=0x00000005
       31885000	      3187	8000301c	000b1593	slli	x11,x22,0x0	 x22:0xfffffda6 x11=0xfffffda6
       31895000	      3188	80003020	610e2993	slti	x19,x28,1552	 x28:0x00000000 x19=0x00000001
       31905000	      3189	80003024	00000013	addi	x0,x0,0	  x0:0x00000000
       31915000	      3190	80003028	00c74cb3	xor	x25,x14,x12	 x14:0x000002aa x12:0x00000000 x25=0x000002aa
       31925000	      3191	8000302c	015f4f33	xor	x30,x30,x21	 x30:0x00000000 x21:0x00000000 x30=0x00000000
       31935000	      3192	80003030	d0bc4013	xori	x0,x24,-757	 x24:0xfffff800
       31945000	      3193	80003034	70f40e13	addi	x28,x8,1807	  x8:0x200dd000 x28=0x200dd70f
       31955000	      3194	80003038	1bd43113	sltiu	x2,x8,445	  x8:0x200dd000  x2=0x00000000
       31965000	      3195	8000303c	01478933	add	x18,x15,x20	 x15:0x80009ec8 x20:0x00800000 x18=0x80809ec8
       31975000	      3196	80003040	00cf70b3	and	x1,x30,x12	 x30:0x00000000 x12:0x00000000  x1=0x00000000
       31985000	      3197	80003044	002c2eb3	slt	x29,x24,x2	 x24:0xfffff800  x2:0x00000000 x29=0x00000001
       31995000	      3198	80003048	00189293	slli	x5,x17,0x1	 x17:0xc0004f64  x5=0x80009ec8
       32005000	      3199	8000304c	0379fc63	bgeu	x19,x23,80003084	 x19:0x00000001 x23:0xb8ef0974
       32015000	      3200	80003050	473bdcb7	lui	x25,0x473bd	 x25=0x473bd000
       32025000	      3201	80003054	00c3cc63	blt	x7,x12,8000306c	  x7:0x41dd9f28 x12:0x00000000
       32035000	      3202	80003058	05775863	bge	x14,x23,800030a8	 x14:0x000002aa x23:0xb8ef0974
       32045000	      3203	00000000	00000013	addi	x0,x0,0	  x0:0x00000000
       32055000	      3204	800030a4	00000013	addi	x0,x0,0	  x0:0x00000000
       32065000	      3205	800030a8	408fdb13	srai	x22,x31,0x8	 x31:0xebc00000 x22=0xffebc000
       32075000	      3206	800030ac	01a9a2b3	slt	x5,x19,x26	 x19:0x00000001 x26:0x80009fc4  x5=0x00000000
       32085000	      3207	800030b0	417cdd93	srai	x27,x25,0x17	 x25:0x473bd000 x27=0x0000008e
       32095000	      3208	800030b4	01daf833	and	x16,x21,x29	 x21:0x00000000 x29:0x00000001 x16=0x00000000
       32105000	      3209	800030b8	c70bf193	andi	x3,x23,-912	 x23:0xb8ef0974  x3=0xb8ef0870
       32115000	      3210	800030bc	00929a63	bne	x5,x9,800030d0	  x5:0x00000000  x9:0x00000005
       32125000	      3211	00000000	00000013	addi	x0,x0,0	  x0:0x00000000
       32135000	      3212	800030cc	00000013	addi	x0,x0,0	  x0:0x00000000
       32145000	      3213	800030d0	00e89a63	bne	x17,x14,800030e4	 x17:0xc0004f64 x14:0x000002aa
       32155000	      3214	00000000	00000013	addi	x0,x0,0	  x0:0x00000000
       32165000	      3215	800030e0	00000013	addi	x0,x0,0	  x0:0x00000000
       32175000	      3216	800030e4	0040f533	and	x10,x1,x4	  x1:0x00000000  x4:0x80009bdd x10=0x00000000
       32185000	      3217	800030e8	007c9093	slli	x1,x25,0x7	 x25:0x473bd000  x1=0x9de80000
       32195000	      3218	800030ec	5ac49817	auipc	x16,0x5ac49	 x16=0xdac4c0e8
       32205000	      3219	800030f0	b46a3f13	sltiu	x30,x20,-1210	 x20:0x00800000 x30=0x00000001
       32215000	      3220	800030f4	41f9d1b3	sra	x3,x19,x31	 x19:0x00000001 x31:0xebc00000  x3=0x00000001
       32225000	      3221	800030f8	010e6863	bltu	x28,x16,80003108	 x28:0x200dd70f x16:0xdac4c0e8
       32235000	      3222	00000000	00000013	addi	x0,x0,0	  x0:0x00000000
       32245000	      3223	80003104	00000013	addi	x0,x0,0	  x0:0x00000000
       32255000	      3224	80003108	001b7bb3	and	x23,x22,x1	 x22:0xffebc000  x1:0x9de80000 x23=0x9de80000
       32265000	      3225	8000310c	40e38fb3	sub	x31,x7,x14	  x7:0x41dd9f28 x14:0x000002aa x31=0x41dd9c7e
       32275000	      3226	80003110	00dc0bb3	add	x23,x24,x13	 x24:0xfffff800 x13:0x00000000 x23=0xfffff800
       32285000	      3227	80003114	012e90b3	sll	x1,x29,x18	 x29:0x00000001 x18:0x80809ec8  x1=0x00000100
       32295000	      3228	80003118	001a6cb3	or	x25,x20,x1	 x20:0x00800000  x1:0x00000100 x25=0x00800100
       32305000	      3229	8000311c	03764863	blt	x12,x23,8000314c	 x12:0x00000000 x23:0xfffff800
       32315000	      3230	80003120	001caab3	slt	x21,x25,x1	 x25:0x00800100  x1:0x00000100 x21=0x00000000
       32325000	      3231	80003124	0158bf33	sltu	x30,x17,x21	 x17:0xc0004f64 x21:0x00000000 x30=0x00000000
       32335000	      3232	80003128	00000013	addi	x0,x0,0	  x0:0x00000000
       32345000	      3233	8000312c	019e58b3	srl	x17,x28,x25	 x28:0x200dd70f x25:0x00800100 x17=0x200dd70f
       32355000	      3234	80003130	0446d063	bge	x13,x4,80003170	 x13:0x00000000  x4:0x80009bdd
       32365000	      3235	00000000	00000013	addi	x0,x0,0	  x0:0x00000000
       32375000	      3236	8000316c	00000013	addi	x0,x0,0	  x0:0x00000000
       32385000	      3237	80003170	03899a63	bne	x19,x24,800031a4	 x19:0x00000001 x24:0xfffff800
       32395000	      3238	00000000	00000013	addi	x0,x0,0	  x0:0x00000000
       32405000	      3239	800031a0	00000013	addi	x0,x0,0	  x0:0x00000000
       32415000	      3240	800031a4	000d8933	add	x18,x27,x0	 x27:0x0000008e  x0:0x00000000 x18=0x0000008e
       32425000	      3241	800031a8	fb0f0f13	addi	x30,x30,-80	 x30:0x00000000 x30=0xffffffb0
       32435000	      3242	800031ac	0176d093	srli	x1,x13,0x17	 x13:0x00000000  x1=0x00000000
       32445000	      3243	800031b0	577d8913	addi	x18,x27,1399	 x27:0x0000008e x18=0x00000605
       32455000	      3244	800031b4	01d8f1b3	and	x3,x17,x29	 x17:0x200dd70f x29:0x00000001  x3=0x00000001
       32465000	      3245	800031b8	613b7313	andi	x6,x22,1555	 x22:0xffebc000  x6=0x00000000
       32475000	      3246	800031bc	03e47e63	bgeu	x8,x30,800031f8	  x8:0x200dd000 x30:0xffffffb0
       32485000	      3247	800031c0	001a5f93	srli	x31,x20,0x1	 x20:0x00800000 x31=0x00400000
       32495000	      3248	800031c4	000cadb3	slt	x27,x25,x0	 x25:0x00800100  x0:0x00000000 x27=0x00000000
       32505000	      3249	800031c8	534f2837	lui	x16,0x534f2	 x16=0x534f2000
       32515000	      3250	800031cc	755d7c13	andi	x24,x26,1877	 x26:0x80009fc4 x24=0x00000744
       32525000	      3251	800031d0	0083df93	srli	x31,x7,0x8	  x7:0x41dd9f28 x31=0x0041dd9f
       32535000	      3252	800031d4	007de863	bltu	x27,x7,800031e4	 x27:0x00000000  x7:0x41dd9f28
       32545000	      3253	00000000	00000013	addi	x0,x0,0	  x0:0x00000000
       32555000	      3254	800031e0	00000013	addi	x0,x0,0	  x0:0x00000000
       32565000	      3255	800031e4	000dbf33	sltu	x30,x27,x0	 x27:0x00000000  x0:0x00000000 x30=0x00000000
       32575000	      3256	800031e8	19c83d93	sltiu	x27,x16,412	 x16:0x534f2000 x27=0x00000000
       32585000	      3257	800031ec	c8f76513	ori	x10,x14,-881	 x14:0x000002aa x10=0xfffffeaf
       32595000	      3258	800031f0	03c8d663	bge	x17,x28,8000321c	 x17:0x200dd70f x28:0x200dd70f
       32605000	      3259	00000000	00000013	addi	x0,x0,0	  x0:0x00000000
       32615000	      3260	80003218	00000013	addi	x0,x0,0	  x0:0x00000000
       32625000	      3261	8000321c	00fba9b3	slt	x19,x23,x15	 x23:0xfffff800 x15:0x80009ec8 x19=0x00000000
       32635000	      3262	80003220	01ed8233	add	x4,x27,x30	 x27:0x00000000 x30:0x00000000  x4=0x00000000
       32645000	      3263	80003224	40b1deb3	sra	x29,x3,x11	  x3:0x00000001 x11:0xfffffda6 x29=0x00000000
       32655000	      3264	80003228	143cbb93	sltiu	x23,x25,323	 x25:0x00800100 x23=0x00000000
       32665000	      3265	8000322c	41bc8ab3	sub	x21,x25,x27	 x25:0x00800100 x27:0x00000000 x21=0x00800100
       32675000	      3266	80003230	05674063	blt	x14,x22,80003270	 x14:0x000002aa x22:0xffebc000
       32685000	      3267	80003234	a690a913	slti	x18,x1,-1431	  x1:0x00000000 x18=0x00000000
       32695000	      3268	80003238	e6bbf193	andi	x3,x23,-405	 x23:0x00000000  x3=0x00000000
       32705000	      3269	8000323c	4041d993	srai	x19,x3,0x4	  x3:0x00000000 x19=0x00000000
       32715000	      3270	80003240	012f99b3	sll	x19,x31,x18	 x31:0x0041dd9f x18:0x00000000 x19=0x0041dd9f
       32725000	      3271	80003244	00951533	sll	x10,x10,x9	 x10:0xfffffeaf  x9:0x00000005 x10=0xffffd5e0
       32735000	      3272	80003248	401302b3	sub	x5,x6,x1	  x6:0x00000000  x1:0x00000000  x5=0x00000000
       32745000	      3273	8000324c	51b76913	ori	x18,x14,1307	 x14:0x000002aa x18=0x000007bb
       32755000	      3274	80003250	00c5da93	srli	x21,x11,0xc	 x11:0xfffffda6 x21=0x000fffff
       32765000	      3275	80003254	018b8eb3	add	x29,x23,x24	 x23:0x00000000 x24:0x00000744 x29=0x00000744
       32775000	      3276	80003258	2e42ec93	ori	x25,x5,740	  x5:0x00000000 x25=0x000002e4
       32785000	      3277	8000325c	0411f863	bgeu	x3,x1,800032ac	  x3:0x00000000  x1:0x00000000
       32795000	      3278	00000000	00000013	addi	x0,x0,0	  x0:0x00000000
       32805000	      3279	800032a8	00000013	addi	x0,x0,0	  x0:0x00000000
       32815000	      3280	800032ac	00525a33	srl	x20,x4,x5	  x4:0x00000000  x5:0x00000000 x20=0x00000000
       32825000	      3281	800032b0	014b9bb3	sll	x23,x23,x20	 x23:0x00000000 x20:0x00000000 x23=0x00000000
       32835000	      3282	800032b4	98c12493	slti	x9,x2,-1652	  x2:0x00000000  x9=0x00000000
       32845000	      3283	800032b8	006032b3	sltu	x5,x0,x6	  x0:0x00000000  x6:0x00000000  x5=0x00000000
       32855000	      3284	800032bc	00f36133	or	x2,x6,x15	  x6:0x00000000 x15:0x80009ec8  x2=0x80009ec8
       32865000	      3285	800032c0	05ba0063	beq	x20,x27,80003300	 x20:0x00000000 x27:0x00000000
       32875000	      3286	00000000	00000013	addi	x0,x0,0	  x0:0x00000000
       32885000	      3287	800032fc	00000013	addi	x0,x0,0	  x0:0x00000000
       32895000	      3288	80003300	01bf4033	xor	x0,x30,x27	 x30:0x00000000 x27:0x00000000
       32905000	      3289	80003304	31642b17	auipc	x22,0x31642	 x22=0xb1645300
       32915000	      3290	80003308	fbe40113	addi	x2,x8,-66	  x8:0x200dd000  x2=0x200dcfbe
       32925000	      3291	8000330c	76a4ff13	andi	x30,x9,1898	  x9:0x00000000 x30=0x00000000
       32935000	      3292	80003310	78d13f93	sltiu	x31,x2,1933	  x2:0x200dcfbe x31=0x00000000
       32945000	      3293	80003314	0139c5b3	xor	x11,x19,x19	 x19:0x0041dd9f x19:0x0041dd9f x11=0x00000000
       32955000	      3294	80003318	fd898713	addi	x14,x19,-40	 x19:0x0041dd9f x14=0x0041dd77
       32965000	      3295	8000331c	08d9e993	ori	x19,x19,141	 x19:0x0041dd9f x19=0x0041dd9f
       32975000	      3296	80003320	97d5ef13	ori	x30,x11,-1667	 x11:0x00000000 x30=0xfffff97d
       32985000	      3297	80003324	00240cb3	add	x25,x8,x2	  x8:0x200dd000  x2:0x200dcfbe x25=0x401b9fbe
       32995000	      3298	80003328	af9da713	slti	x14,x27,-1287	 x27:0x00000000 x14=0x00000000
       33005000	      3299	8000332c	02061e63	bne	x12,x0,80003368	 x12:0x00000000  x0:0x00000000
       33015000	      3300	80003330	00000013	addi	x0,x0,0	  x0:0x00000000
       33025000	      3301	80003334	01356a63	bltu	x10,x19,80003348	 x10:0xffffd5e0 x19:0x0041dd9f
       33035000	      3302	80003338	002342b3	xor	x5,x6,x2	  x6:0x00000000  x2:0x200dcfbe  x5=0x200dcfbe
       33045000	      3303	8000333c	00b8f263	bgeu	x17,x11,80003340	 x17:0x200dd70f x11:0x00000000
       33055000	      3304	00000000	00000013	addi	x0,x0,0	  x0:0x00000000
       33065000	      3305	8000333c	00000013	addi	x0,x0,0	  x0:0x00000000
       33075000	      3306	80003340	4b45a593	slti	x11,x11,1204	 x11:0x00000000 x11=0x00000001
       33085000	      3307	80003344	01c29213	slli	x4,x5,0x1c	  x5:0x200dcfbe  x4=0xe0000000
       33095000	      3308	80003348	00c713b3	sll	x7,x14,x12	 x14:0x00000000 x12:0x00000000  x7=0x00000000
       33105000	      3309	8000334c	ee47e813	ori	x16,x15,-284	 x15:0x80009ec8 x16=0xfffffeec
       33115000	      3310	80003350	01effc63	bgeu	x31,x30,80003368	 x31:0x00000000 x30:0xfffff97d
       33125000	      3311	80003354	00228333	add	x6,x5,x2	  x5:0x200dcfbe  x2:0x200dcfbe  x6=0x401b9f7c
       33135000	      3312	80003358	7f828917	auipc	x18,0x7f828	 x18=0xff82b354
       33145000	      3313	8000335c	00e58ab3	add	x21,x11,x14	 x11:0x00000001 x14:0x00000000 x21=0x00000001
       33155000	      3314	80003360	00a51233	sll	x4,x10,x10	 x10:0xffffd5e0 x10:0xffffd5e0  x4=0xffffd5e0
       33165000	      3315	80003364	02434c63	blt	x6,x4,8000339c	  x6:0x401b9f7c  x4:0xffffd5e0
       33175000	      3316	80003368	49ed7c97	auipc	x25,0x49ed7	 x25=0xc9eda364
       33185000	      3317	8000336c	00341e93	slli	x29,x8,0x3	  x8:0x200dd000 x29=0x006e8000
       33195000	      3318	80003370	00d28a63	beq	x5,x13,80003384	  x5:0x200dcfbe x13:0x00000000
       33205000	      3319	80003374	43807e93	andi	x29,x0,1080	  x0:0x00000000 x29=0x00000000
       33215000	      3320	80003378	02034e63	blt	x6,x0,800033b4	  x6:0x401b9f7c  x0:0x00000000
       33225000	      3321	8000337c	01087cb3	and	x25,x16,x16	 x16:0xfffffeec x16:0xfffffeec x25=0xfffffeec
       33235000	      3322	80003380	00d989b3	add	x19,x19,x13	 x19:0x0041dd9f x13:0x00000000 x19=0x0041dd9f
       33245000	      3323	80003384	71356093	ori	x1,x10,1811	 x10:0xffffd5e0  x1=0xffffd7f3
       33255000	      3324	80003388	0004e263	bltu	x9,x0,8000338c	  x9:0x00000000  x0:0x00000000
       33265000	      3325	8000338c	40360033	sub	x0,x12,x3	 x12:0x00000000  x3:0x00000000
       33275000	      3326	80003390	011d4233	xor	x4,x26,x17	 x26:0x80009fc4 x17:0x200dd70f  x4=0xa00d48cb
       33285000	      3327	80003394	a0794f93	xori	x31,x18,-1529	 x18:0xff82b354 x31=0x007d4953
       33295000	      3328	80003398	005dd733	srl	x14,x27,x5	 x27:0x00000000  x5:0x200dcfbe x14=0x00000000
       33305000	      3329	8000339c	00d57c63	bgeu	x10,x13,800033b4	 x10:0xffffd5e0 x13:0x00000000
       33315000	      3330	00000000	00000013	addi	x0,x0,0	  x0:0x00000000
       33325000	      3331	800033b0	00000013	addi	x0,x0,0	  x0:0x00000000
       33335000	      3332	800033b4	00260fb3	add	x31,x12,x2	 x12:0x00000000  x2:0x200dcfbe x31=0x200dcfbe
       33345000	      3333	800033b8	4113d493	srai	x9,x7,0x11	  x7:0x00000000  x9=0x00000000
       33355000	      3334	800033bc	01d528b3	slt	x17,x10,x29	 x10:0xffffd5e0 x29:0x00000000 x17=0x00000001
       33365000	      3335	800033c0	009ec0b3	xor	x1,x29,x9	 x29:0x00000000  x9:0x00000000  x1=0x00000000
       33375000	      3336	800033c4	40c65e13	srai	x28,x12,0xc	 x12:0x00000000 x28=0x00000000
       33385000	      3337	800033c8	00000013	addi	x0,x0,0	  x0:0x00000000
       33395000	      3338	800033cc	01016433	or	x8,x2,x16	  x2:0x200dcfbe x16:0xfffffeec  x8=0xfffffffe
       33405000	      3339	800033d0	d420b413	sltiu	x8,x1,-702	  x1:0x00000000  x8=0x00000001
       33415000	      3340	800033d4	013552b3	srl	x5,x10,x19	 x10:0xffffd5e0 x19:0x0041dd9f  x5=0x00000001
       33425000	      3341	800033d8	c22fe513	ori	x10,x31,-990	 x31:0x200dcfbe x10=0xffffffbe
       33435000	      3342	800033dc	009b5893	srli	x17,x22,0x9	 x22:0xb1645300 x17=0x0058b229
       33445000	      3343	800033e0	01791513	slli	x10,x18,0x17	 x18:0xff82b354 x10=0xaa000000
       33455000	      3344	800033e4	9db22b13	slti	x22,x4,-1573	  x4:0xa00d48cb x22=0x00000001
       33465000	      3345	800033e8	1810c4b7	lui	x9,0x1810c	  x9=0x1810c000
       33475000	      3346	800033ec	02a08e63	beq	x1,x10,80003428	  x1:0x00000000 x10:0xaa000000
       33485000	      3347	800033f0	00000013	addi	x0,x0,0	  x0:0x00000000
       33495000	      3348	800033f4	202d7013	andi	x0,x26,514	 x26:0x80009fc4
       33505000	      3349	800033f8	04411063	bne	x2,x4,80003438	  x2:0x200dcfbe  x4:0xa00d48cb
       33515000	      3350	00000000	00000013	addi	x0,x0,0	  x0:0x00000000
       33525000	      3351	80003434	00000013	addi	x0,x0,0	  x0:0x00000000
       33535000	      3352	80003438	41a65a93	srai	x21,x12,0x1a	 x12:0x00000000 x21=0x00000000
       33545000	      3353	8000343c	01a12033	slt	x0,x2,x26	  x2:0x200dcfbe x26:0x80009fc4
       33555000	      3354	80003440	5b36a113	slti	x2,x13,1459	 x13:0x00000000  x2=0x00000001
       33565000	      3355	80003444	01d8a333	slt	x6,x17,x29	 x17:0x0058b229 x29:0x00000000  x6=0x00000000
       33575000	      3356	80003448	012d0533	add	x10,x26,x18	 x26:0x80009fc4 x18:0xff82b354 x10=0x7f835318
       33585000	      3357	8000344c	01354e33	xor	x28,x10,x19	 x10:0x7f835318 x19:0x0041dd9f x28=0x7fc28e87
       33595000	      3358	80003450	012c5c93	srli	x25,x24,0x12	 x24:0x00000744 x25=0x00000000
       33605000	      3359	80003454	05539063	bne	x7,x21,80003494	  x7:0x00000000 x21:0x00000000
       33615000	      3360	80003458	0071cfb3	xor	x31,x3,x7	  x3:0x00000000  x7:0x00000000 x31=0x00000000
       33625000	      3361	8000345c	00058733	add	x14,x11,x0	 x11:0x00000001  x0:0x00000000 x14=0x00000001
       33635000	      3362	80003460	41b956b3	sra	x13,x18,x27	 x18:0xff82b354 x27:0x00000000 x13=0xff82b354
       33645000	      3363	80003464	00381c93	slli	x25,x16,0x3	 x16:0xfffffeec x25=0xfffff760
       33655000	      3364	80003468	01296a63	bltu	x18,x18,8000347c	 x18:0xff82b354 x18:0xff82b354
       33665000	      3365	8000346c	00e34a33	xor	x20,x6,x14	  x6:0x00000000 x14:0x00000001 x20=0x00000001
       33675000	      3366	80003470	bbae8593	addi	x11,x29,-1094	 x29:0x00000000 x11=0xfffffbba
       33685000	      3367	80003474	00a94263	blt	x18,x10,80003478	 x18:0xff82b354 x10:0x7f835318
       33695000	      3368	00000000	00000013	addi	x0,x0,0	  x0:0x00000000
       33705000	      3369	80003474	00000013	addi	x0,x0,0	  x0:0x00000000
       33715000	      3370	80003478	40dd6e13	ori	x28,x26,1037	 x26:0x80009fc4 x28=0x80009fcd
       33725000	      3371	8000347c	00af3333	sltu	x6,x30,x10	 x30:0xfffff97d x10:0x7f835318  x6=0x00000000
       33735000	      3372	80003480	03c5e663	bltu	x11,x28,800034ac	 x11:0xfffffbba x28:0x80009fcd
       33745000	      3373	80003484	403352b3	sra	x5,x6,x3	  x6:0x00000000  x3:0x00000000  x5=0x00000000
       33755000	      3374	80003488	013fb733	sltu	x14,x31,x19	 x31:0x00000000 x19:0x0041dd9f x14=0x00000001
       33765000	      3375	8000348c	01f70863	beq	x14,x31,8000349c	 x14:0x00000001 x31:0x00000000
       33775000	      3376	80003490	0261ee63	bltu	x3,x6,800034cc	  x3:0x00000000  x6:0x00000000
       33785000	      3377	80003494	016294b3	sll	x9,x5,x22	  x5:0x00000000 x22:0x00000001  x9=0x00000000
       33795000	      3378	80003498	01063a33	sltu	x20,x12,x16	 x12:0x00000000 x16:0xfffffeec x20=0x00000001
       33805000	      3379	8000349c	02a78a63	beq	x15,x10,800034d0	 x15:0x80009ec8 x10:0x7f835318
       33815000	      3380	800034a0	40565093	srai	x1,x12,0x5	 x12:0x00000000  x1=0x00000000
       33825000	      3381	800034a4	7d49a837	lui	x16,0x7d49a	 x16=0x7d49a000
       33835000	      3382	800034a8	000ae933	or	x18,x21,x0	 x21:0x00000000  x0:0x00000000 x18=0x00000000
       33845000	      3383	800034ac	019f9493	slli	x9,x31,0x19	 x31:0x00000000  x9=0x00000000
       33855000	      3384	800034b0	0426f863	bgeu	x13,x2,80003500	 x13:0xff82b354  x2:0x00000001
       33865000	      3385	00000000	00000013	addi	x0,x0,0	  x0:0x00000000
       33875000	      3386	800034fc	00000013	addi	x0,x0,0	  x0:0x00000000
       33885000	      3387	80003500	00000013	addi	x0,x0,0	  x0:0x00000000
       33895000	      3388	80003504	fa6e3b93	sltiu	x23,x28,-90	 x28:0x80009fcd x23=0x00000001
       33905000	      3389	80003508	0059ab33	slt	x22,x19,x5	 x19:0x0041dd9f  x5:0x00000000 x22=0x00000000
       33915000	      3390	8000350c	01b0d5b3	srl	x11,x1,x27	  x1:0x00000000 x27:0x00000000 x11=0x00000000
       33925000	      3391	80003510	01873233	sltu	x4,x14,x24	 x14:0x00000001 x24:0x00000744  x4=0x00000001
       33935000	      3392	80003514	0160d6b3	srl	x13,x1,x22	  x1:0x00000000 x22:0x00000000 x13=0x00000000
       33945000	      3393	80003518	01f0bb33	sltu	x22,x1,x31	  x1:0x00000000 x31:0x00000000 x22=0x00000000
       33955000	      3394	8000351c	04a0f063	bgeu	x1,x10,8000355c	  x1:0x00000000 x10:0x7f835318
       33965000	      3395	80003520	01af54b3	srl	x9,x30,x26	 x30:0xfffff97d x26:0x80009fc4  x9=0x0fffff97
       33975000	      3396	80003524	05e0c663	blt	x1,x30,80003570	  x1:0x00000000 x30:0xfffff97d
       33985000	      3397	80003528	40fd8333	sub	x6,x27,x15	 x27:0x00000000 x15:0x80009ec8  x6=0x7fff6138
       33995000	      3398	8000352c	01499693	slli	x13,x19,0x14	 x19:0x0041dd9f x13=0xd9f00000
       34005000	      3399	80003530	96d5e693	ori	x13,x11,-1683	 x11:0x00000000 x13=0xfffff96d
       34015000	      3400	80003534	04d14063	blt	x2,x13,80003574	  x2:0x00000001 x13:0xfffff96d
       34025000	      3401	80003538	003f11b3	sll	x3,x30,x3	 x30:0xfffff97d  x3:0x00000000  x3=0xfffff97d
       34035000	      3402	8000353c	016a8233	add	x4,x21,x22	 x21:0x00000000 x22:0x00000000  x4=0x00000000
       34045000	      3403	80003540	41378733	sub	x14,x15,x19	 x15:0x80009ec8 x19:0x0041dd9f x14=0x7fbec129
       34055000	      3404	80003544	3a6fe737	lui	x14,0x3a6fe	 x14=0x3a6fe000
       34065000	      3405	80003548	00d6e533	or	x10,x13,x13	 x13:0xfffff96d x13:0xfffff96d x10=0xfffff96d
       34075000	      3406	8000354c	4150dc93	srai	x25,x1,0x15	  x1:0x00000000 x25=0x00000000
       34085000	      3407	80003550	4182da93	srai	x21,x5,0x18	  x5:0x00000000 x21=0x00000000
       34095000	      3408	80003554	00b273b3	and	x7,x4,x11	  x4:0x00000000 x11:0x00000000  x7=0x00000000
       34105000	      3409	80003558	0392de63	bge	x5,x25,80003594	  x5:0x00000000 x25:0x00000000
       34115000	      3410	00000000	00000013	addi	x0,x0,0	  x0:0x00000000
       34125000	      3411	80003590	00000013	addi	x0,x0,0	  x0:0x00000000
       34135000	      3412	80003594	0009e863	bltu	x19,x0,800035a4	 x19:0x0041dd9f  x0:0x00000000
       34145000	      3413	80003598	01b96c63	bltu	x18,x27,800035b0	 x18:0x00000000 x27:0x00000000
       34155000	      3414	8000359c	0bfa4213	xori	x4,x20,191	 x20:0x00000001  x4=0x000000be
       34165000	      3415	800035a0	00d60333	add	x6,x12,x13	 x12:0x00000000 x13:0xfffff96d  x6=0xfffff96d
       34175000	      3416	800035a4	40050bb3	sub	x23,x10,x0	 x10:0xfffff96d  x0:0x00000000 x23=0xfffff96d
       34185000	      3417	800035a8	012f5e33	srl	x28,x30,x18	 x30:0xfffff97d x18:0x00000000 x28=0xfffff97d
       34195000	      3418	800035ac	112e4013	xori	x0,x28,274	 x28:0xfffff97d
       34205000	      3419	800035b0	01d29f13	slli	x30,x5,0x1d	  x5:0x00000000 x30=0x00000000
       34215000	      3420	800035b4	00fece33	xor	x28,x29,x15	 x29:0x00000000 x15:0x80009ec8 x28=0x80009ec8
       34225000	      3421	800035b8	4058d593	srai	x11,x17,0x5	 x17:0x0058b229 x11=0x0002c591
       34235000	      3422	800035bc	0047a083	lw	x1,4(x15)	 x15:0x80009ec8  x1=0x8000693c PA:0x80009ecc
       34245000	      3423	00000000	00000013	addi	x0,x0,0	  x0:0x00000000
       34255000	      3424	800035c0	0fa0af13	slti	x30,x1,250	  x1:0x8000693c x30=0x00000001
       34265000	      3425	800035c4	03878793	addi	x15,x15,56	 x15:0x80009ec8 x15=0x80009f00
       34275000	      3426	800035c8	f68ff697	auipc	x13,0xf68ff	 x13=0x769025c4
       34285000	      3427	800035cc	0040a833	slt	x16,x1,x4	  x1:0x8000693c  x4:0x000000be x16=0x00000001
       34295000	      3428	800035d0	00008713	addi	x14,x1,0	  x1:0x8000693c x14=0x8000693c
       34305000	      3429	800035d4	00070767	jalr	x14,x14,0	 x14:0x8000693c x14=0x800035d4
       34315000	      3430	00000000	00000013	addi	x0,x0,0	  x0:0x00000000
       34325000	      3431	8000693c	00000013	addi	x0,x0,0	  x0:0x00000000
       34335000	      3432	80006940	74650113	addi	x2,x10,1862	 x10:0xfffff96d  x2=0x000000b3
       34345000	      3433	80006944	01b75c63	bge	x14,x27,8000695c	 x14:0x800035d4 x27:0x00000000
       34355000	      3434	80006948	00e6c293	xori	x5,x13,14	 x13:0x769025c4  x5=0x769025ca
       34365000	      3435	8000694c	2c66b193	sltiu	x3,x13,710	 x13:0x769025c4  x3=0x00000000
       34375000	      3436	80006950	4026d233	sra	x4,x13,x2	 x13:0x769025c4  x2:0x000000b3  x4=0x00000ed2
       34385000	      3437	80006954	406edf13	srai	x30,x29,0x6	 x29:0x00000000 x30=0x00000000
       34395000	      3438	80006958	c8954d93	xori	x27,x10,-887	 x10:0xfffff96d x27=0x000005e4
       34405000	      3439	8000695c	c7dfc0ef	jal	x1,8000695c	  x1=0x8000695c
       34415000	      3440	00000000	00000013	addi	x0,x0,0	  x0:0x00000000
       34425000	      3441	800035d4	00000013	addi	x0,x0,0	  x0:0x00000000
       34435000	      3442	800035d8	400e54b3	sra	x9,x28,x0	 x28:0x80009ec8  x0:0x00000000  x9=0x80009ec8
       34445000	      3443	800035dc	44508013	addi	x0,x1,1093	  x1:0x8000695c
       34455000	      3444	800035e0	3c47af97	auipc	x31,0x3c47a	 x31=0xbc47d5dc
       34465000	      3445	800035e4	4024db33	sra	x22,x9,x2	  x9:0x80009ec8  x2:0x000000b3 x22=0xfffff000
       34475000	      3446	800035e8	747fb693	sltiu	x13,x31,1863	 x31:0xbc47d5dc x13=0x00000000
       34485000	      3447	800035ec	00bf1e33	sll	x28,x30,x11	 x30:0x00000000 x11:0x0002c591 x28=0x00000000
       34495000	      3448	800035f0	fd878793	addi	x15,x15,-40	 x15:0x80009f00 x15=0x80009ed8
       34505000	      3449	800035f4	0024bcb3	sltu	x25,x9,x2	  x9:0x80009ec8  x2:0x000000b3 x25=0x00000000
       34515000	      3450	800035f8	0017a223	sw	x1,4(x15)	 x15:0x80009ed8  x1:0x8000695c PA:0x80009edc
       34525000	      3451	800035fc	2f60d297	auipc	x5,0x2f60d	  x5=0xaf6105f8
       34535000	      3452	80003600	4058d213	srai	x4,x17,0x5	 x17:0x0058b229  x4=0x0002c591
       34545000	      3453	80003604	0121ae33	slt	x28,x3,x18	  x3:0x00000000 x18:0x00000000 x28=0x00000000
       34555000	      3454	80003608	d3a88213	addi	x4,x17,-710	 x17:0x0058b229  x4=0x0058af63
       34565000	      3455	8000360c	00e69a33	sll	x20,x13,x14	 x13:0x00000000 x14:0x800035d4 x20=0x00000000
       34575000	      3456	80003610	00a485b3	add	x11,x9,x10	  x9:0x80009ec8 x10:0xfffff96d x11=0x80009835
       34585000	      3457	80003614	7e583393	sltiu	x7,x16,2021	 x16:0x00000001  x7=0x00000001
       34595000	      3458	80003618	41825933	sra	x18,x4,x24	  x4:0x0058af63 x24:0x00000744 x18=0x00058af6
       34605000	      3459	8000361c	0f4030ef	jal	x1,8000361c	  x1=0x8000361c
       34615000	      3460	00000000	00000013	addi	x0,x0,0	  x0:0x00000000
       34625000	      3461	8000670c	00000013	addi	x0,x0,0	  x0:0x00000000
       34635000	      3462	80006710	689de817	auipc	x16,0x689de	 x16=0xe89e470c
       34645000	      3463	80006714	008b7863	bgeu	x22,x8,80006724	 x22:0xfffff000  x8:0x00000001
       34655000	      3464	00000000	00000013	addi	x0,x0,0	  x0:0x00000000
       34665000	      3465	80006720	00000013	addi	x0,x0,0	  x0:0x00000000
       34675000	      3466	80006724	fc878793	addi	x15,x15,-56	 x15:0x80009ed8 x15=0x80009ea0
       34685000	      3467	80006728	0017a223	sw	x1,4(x15)	 x15:0x80009ea0  x1:0x8000361c PA:0x80009ea4
       34695000	      3468	8000672c	01f3a2b3	slt	x5,x7,x31	  x7:0x00000001 x31:0xbc47d5dc  x5=0x00000000
       34705000	      3469	80006730	910a6193	ori	x3,x20,-1776	 x20:0x00000000  x3=0xfffff910
       34715000	      3470	80006734	4dfe4e13	xori	x28,x28,1247	 x28:0x00000000 x28=0x000004df
       34725000	      3471	80006738	eb173493	sltiu	x9,x14,-335	 x14:0x800035d4  x9=0x00000001
       34735000	      3472	8000673c	8be0fa97	auipc	x21,0x8be0f	 x21=0x0be15738
       34745000	      3473	80006740	ab8f3713	sltiu	x14,x30,-1352	 x30:0x00000000 x14=0x00000001
       34755000	      3474	80006744	00189ab3	sll	x21,x17,x1	 x17:0x0058b229  x1:0x8000361c x21=0x90000000
       34765000	      3475	80006748	6dab6293	ori	x5,x22,1754	 x22:0xfffff000  x5=0xfffff6da
       34775000	      3476	8000674c	037e1a63	bne	x28,x23,80006780	 x28:0x000004df x23:0xfffff96d
       34785000	      3477	00000000	00000013	addi	x0,x0,0	  x0:0x00000000
       34795000	      3478	8000677c	00000013	addi	x0,x0,0	  x0:0x00000000
       34805000	      3479	80006780	019ddb33	srl	x22,x27,x25	 x27:0x000005e4 x25:0x00000000 x22=0x000005e4
       34815000	      3480	80006784	019c9013	slli	x0,x25,0x19	 x25:0x00000000
       34825000	      3481	80006788	0047a083	lw	x1,4(x15)	 x15:0x80009ea0  x1=0x8000361c PA:0x80009ea4
       34835000	      3482	8000678c	8c6ce197	auipc	x3,0x8c6ce	  x3=0x0c6d4788
       34845000	      3483	80006790	0165dd93	srli	x27,x11,0x16	 x11:0x80009835 x27=0x00000200
       34855000	      3484	80006794	03878793	addi	x15,x15,56	 x15:0x80009ea0 x15=0x80009ed8
       34865000	      3485	80006798	016d4433	xor	x8,x26,x22	 x26:0x80009fc4 x22:0x000005e4  x8=0x80009a20
       34875000	      3486	8000679c	00108593	addi	x11,x1,1	  x1:0x8000361c x11=0x8000361d
       34885000	      3487	800067a0	000585e7	jalr	x11,x11,0	 x11:0x8000361d x11=0x800067a0
       34895000	      3488	00000000	00000013	addi	x0,x0,0	  x0:0x00000000
       34905000	      3489	8000361c	00000013	addi	x0,x0,0	  x0:0x00000000
       34915000	      3490	80003620	00005117	auipc	x2,0x5	  x2=0x8000861c
       34925000	      3491	80003624	3ae10113	addi	x2,x2,942	  x2:0x8000861c  x2=0x800089ca
       34935000	      3492	80003628	ff612d23	sw	x22,-6(x2)	  x2:0x800089ca x22:0x000005e4 PA:0x800089c4
       34945000	      3493	8000362c	ffe11d23	sh	x30,-6(x2)	  x2:0x800089ca x30:0x00000000 PA:0x800089c4
       34955000	      3494	80003630	00fa9513	slli	x10,x21,0xf	 x21:0x90000000 x10=0x00000000
       34965000	      3495	80003634	c8892e13	slti	x28,x18,-888	 x18:0x00058af6 x28=0x00000000
       34975000	      3496	80003638	00763933	sltu	x18,x12,x7	 x12:0x00000000  x7:0x00000001 x18=0x00000001
       34985000	      3497	8000363c	41ed5433	sra	x8,x26,x30	 x26:0x80009fc4 x30:0x00000000  x8=0x80009fc4
       34995000	      3498	80003640	00714983	lbu	x19,7(x2)	  x2:0x800089ca x19=0x0000009d PA:0x800089d1
       35005000	      3499	80003644	fe310b23	sb	x3,-10(x2)	  x2:0x800089ca  x3:0x0c6d4788 PA:0x800089c0
       35015000	      3500	80003648	007ac533	xor	x10,x21,x7	 x21:0x90000000  x7:0x00000001 x10=0x90000001
       35025000	      3501	8000364c	005e8fb3	add	x31,x29,x5	 x29:0x00000000  x5:0xfffff6da x31=0xfffff6da
       35035000	      3502	80003650	fe410ca3	sb	x4,-7(x2)	  x2:0x800089ca  x4:0x0058af63 PA:0x800089c3
       35045000	      3503	80003654	ff714903	lbu	x18,-9(x2)	  x2:0x800089ca x18=0x0000006b PA:0x800089c1
       35055000	      3504	80003658	29ea6013	ori	x0,x20,670	 x20:0x00000000
       35065000	      3505	8000365c	bf156913	ori	x18,x10,-1039	 x10:0x90000001 x18=0xfffffbf1
       35075000	      3506	80003660	00c6b2b3	sltu	x5,x13,x12	 x13:0x00000000 x12:0x00000000  x5=0x00000000
       35085000	      3507	80003664	ff910fa3	sb	x25,-1(x2)	  x2:0x800089ca x25:0x00000000 PA:0x800089c9
       35095000	      3508	80003668	eecdd9b7	lui	x19,0xeecdd	 x19=0xeecdd000
       35105000	      3509	8000366c	83a30993	addi	x19,x6,-1990	  x6:0xfffff96d x19=0xfffff1a7
       35115000	      3510	80003670	00314383	lbu	x7,3(x2)	  x2:0x800089ca  x7=0x00000001 PA:0x800089cd
       35125000	      3511	80003674	00015f83	lhu	x31,0(x2)	  x2:0x800089ca x31=0x00000755 PA:0x800089ca
       35135000	      3512	80003678	417cde93	srai	x29,x25,0x17	 x25:0x00000000 x29=0x00000000
       35145000	      3513	8000367c	00d10403	lb	x8,13(x2)	  x2:0x800089ca  x8=0xffffff9f PA:0x800089d7
       35155000	      3514	80003680	010ecc33	xor	x24,x29,x16	 x29:0x00000000 x16:0xe89e470c x24=0xe89e470c
       35165000	      3515	80003684	01780433	add	x8,x16,x23	 x16:0xe89e470c x23:0xfffff96d  x8=0xe89e4079
       35175000	      3516	80003688	00b10803	lb	x16,11(x2)	  x2:0x800089ca x16=0xffffffcc PA:0x800089d5
       35185000	      3517	8000368c	31e054b7	lui	x9,0x31e05	  x9=0x31e05000
       35195000	      3518	80003690	0538c213	xori	x4,x17,83	 x17:0x0058b229  x4=0x0058b27a
       35205000	      3519	80003694	415ed1b3	sra	x3,x29,x21	 x29:0x00000000 x21:0x90000000  x3=0x00000000
       35215000	      3520	80003698	01ae78b3	and	x17,x28,x26	 x28:0x00000000 x26:0x80009fc4 x17=0x00000000
       35225000	      3521	8000369c	01c105a3	sb	x28,11(x2)	  x2:0x800089ca x28:0x00000000 PA:0x800089d5
       35235000	      3522	800036a0	41f955b3	sra	x11,x18,x31	 x18:0xfffffbf1 x31:0x00000755 x11=0xffffffff
       35245000	      3523	800036a4	ff815f83	lhu	x31,-8(x2)	  x2:0x800089ca x31=0x00006367 PA:0x800089c2
       35255000	      3524	800036a8	ccdbcc17	auipc	x24,0xccdbc	 x24=0x4cdbf6a4
       35265000	      3525	800036ac	00dd1db3	sll	x27,x26,x13	 x26:0x80009fc4 x13:0x00000000 x27=0x80009fc4
       35275000	      3526	800036b0	ffd14683	lbu	x13,-3(x2)	  x2:0x800089ca x13=0x00000000 PA:0x800089c7
       35285000	      3527	00000000	00000013	addi	x0,x0,0	  x0:0x00000000
       35295000	      3528	800036b4	0046c9b3	xor	x19,x13,x4	 x13:0x00000000  x4:0x0058b27a x19=0x0058b27a
       35305000	      3529	800036b8	feb10ba3	sb	x11,-9(x2)	  x2:0x800089ca x11:0xffffffff PA:0x800089c1
       35315000	      3530	800036bc	00314883	lbu	x17,3(x2)	  x2:0x800089ca x17=0x00000001 PA:0x800089cd
       35325000	      3531	800036c0	01029f13	slli	x30,x5,0x10	  x5:0x00000000 x30=0x00000000
       35335000	      3532	800036c4	01415db3	srl	x27,x2,x20	  x2:0x800089ca x20:0x00000000 x27=0x800089ca
       35345000	      3533	800036c8	00950a33	add	x20,x10,x9	 x10:0x90000001  x9:0x31e05000 x20=0xc1e05001
       35355000	      3534	800036cc	0014fab3	and	x21,x9,x1	  x9:0x31e05000  x1:0x8000361c x21=0x00001000
       35365000	      3535	800036d0	86bbb013	sltiu	x0,x23,-1941	 x23:0xfffff96d
       35375000	      3536	800036d4	04654663	blt	x10,x6,80003720	 x10:0x90000001  x6:0xfffff96d
       35385000	      3537	00000000	00000013	addi	x0,x0,0	  x0:0x00000000
       35395000	      3538	8000371c	00000013	addi	x0,x0,0	  x0:0x00000000
       35405000	      3539	80003720	028ed863	bge	x29,x8,80003750	 x29:0x00000000  x8:0xe89e4079
       35415000	      3540	00000000	00000013	addi	x0,x0,0	  x0:0x00000000
       35425000	      3541	8000374c	00000013	addi	x0,x0,0	  x0:0x00000000
       35435000	      3542	80003750	00000013	addi	x0,x0,0	  x0:0x00000000
       35445000	      3543	80003754	01929933	sll	x18,x5,x25	  x5:0x00000000 x25:0x00000000 x18=0x00000000
       35455000	      3544	80003758	d21d0813	addi	x16,x26,-735	 x26:0x80009fc4 x16=0x80009ce5
       35465000	      3545	8000375c	dfc01297	auipc	x5,0xdfc01	  x5=0x5fc04758
       35475000	      3546	80003760	40a908b3	sub	x17,x18,x10	 x18:0x00000000 x10:0x90000001 x17=0x6fffffff
       35485000	      3547	80003764	7d210913	addi	x18,x2,2002	  x2:0x800089ca x18=0x8000919c
       35495000	      3548	80003768	00000013	addi	x0,x0,0	  x0:0x00000000
       35505000	      3549	8000376c	811cff13	andi	x30,x25,-2031	 x25:0x00000000 x30=0x00000000
       35515000	      3550	80003770	01e331b3	sltu	x3,x6,x30	  x6:0xfffff96d x30:0x00000000  x3=0x00000000
       35525000	      3551	80003774	0177ddb3	srl	x27,x15,x23	 x15:0x80009ed8 x23:0xfffff96d x27=0x00040004
       35535000	      3552	80003778	01ea3fb3	sltu	x31,x20,x30	 x20:0xc1e05001 x30:0x00000000 x31=0x00000000
       35545000	      3553	8000377c	00d538b3	sltu	x17,x10,x13	 x10:0x90000001 x13:0x00000000 x17=0x00000000
       35555000	      3554	80003780	614c6c13	ori	x24,x24,1556	 x24:0x4cdbf6a4 x24=0x4cdbf6b4
       35565000	      3555	80003784	05b46863	bltu	x8,x27,800037d4	  x8:0xe89e4079 x27:0x00040004
       35575000	      3556	80003788	11b82493	slti	x9,x16,283	 x16:0x80009ce5  x9=0x00000001
       35585000	      3557	8000378c	7fb92113	slti	x2,x18,2043	 x18:0x8000919c  x2=0x00000001
       35595000	      3558	80003790	00618463	beq	x3,x6,80003798	  x3:0x00000000  x6:0xfffff96d
       35605000	      3559	80003794	c571e813	ori	x16,x3,-937	  x3:0x00000000 x16=0xfffffc57
       35615000	      3560	80003798	006b1f93	slli	x31,x22,0x6	 x22:0x000005e4 x31=0x00017900
       35625000	      3561	8000379c	009d9eb3	sll	x29,x27,x9	 x27:0x00040004  x9:0x00000001 x29=0x00080008
       35635000	      3562	800037a0	0127f663	bgeu	x15,x18,800037ac	 x15:0x80009ed8 x18:0x8000919c
       35645000	      3563	00000000	00000013	addi	x0,x0,0	  x0:0x00000000
       35655000	      3564	800037a8	00000013	addi	x0,x0,0	  x0:0x00000000
       35665000	      3565	800037ac	02088a63	beq	x17,x0,800037e0	 x17:0x00000000  x0:0x00000000
       35675000	      3566	00000000	00000013	addi	x0,x0,0	  x0:0x00000000
       35685000	      3567	800037dc	00000013	addi	x0,x0,0	  x0:0x00000000
       35695000	      3568	800037e0	009e9333	sll	x6,x29,x9	 x29:0x00080008  x9:0x00000001  x6=0x00100010
       35705000	      3569	800037e4	00a2da63	bge	x5,x10,800037f8	  x5:0x5fc04758 x10:0x90000001
       35715000	      3570	00000000	00000013	addi	x0,x0,0	  x0:0x00000000
       35725000	      3571	800037f4	00000013	addi	x0,x0,0	  x0:0x00000000
       35735000	      3572	800037f8	412e5c13	srai	x24,x28,0x12	 x28:0x00000000 x24=0x00000000
       35745000	      3573	800037fc	418c5a13	srai	x20,x24,0x18	 x24:0x00000000 x20=0x00000000
       35755000	      3574	80003800	6435ce93	xori	x29,x11,1603	 x11:0xffffffff x29=0xfffff9bc
       35765000	      3575	80003804	35ba6213	ori	x4,x20,859	 x20:0x00000000  x4=0x0000035b
       35775000	      3576	80003808	00000013	addi	x0,x0,0	  x0:0x00000000
       35785000	      3577	8000380c	6b139917	auipc	x18,0x6b139	 x18=0xeb13c808
       35795000	      3578	80003810	00758433	add	x8,x11,x7	 x11:0xffffffff  x7:0x00000001  x8=0x00000000
       35805000	      3579	80003814	fa1a4737	lui	x14,0xfa1a4	 x14=0xfa1a4000
       35815000	      3580	80003818	fc8f3537	lui	x10,0xfc8f3	 x10=0xfc8f3000
       35825000	      3581	8000381c	007c8c33	add	x24,x25,x7	 x25:0x00000000  x7:0x00000001 x24=0x00000001
       35835000	      3582	80003820	01d2a8b3	slt	x17,x5,x29	  x5:0x5fc04758 x29:0xfffff9bc x17=0x00000000
       35845000	      3583	80003824	001ae033	or	x0,x21,x1	 x21:0x00001000  x1:0x8000361c
       35855000	      3584	80003828	011673b3	and	x7,x12,x17	 x12:0x00000000 x17:0x00000000  x7=0x00000000
       35865000	      3585	8000382c	24b0c093	xori	x1,x1,587	  x1:0x8000361c  x1=0x80003457
       35875000	      3586	80003830	00000013	addi	x0,x0,0	  x0:0x00000000
       35885000	      3587	80003834	000a65b3	or	x11,x20,x0	 x20:0x00000000  x0:0x00000000 x11=0x00000000
       35895000	      3588	80003838	0134d013	srli	x0,x9,0x13	  x9:0x00000001
       35905000	      3589	8000383c	01ef2fb3	slt	x31,x30,x30	 x30:0x00000000 x30:0x00000000 x31=0x00000000
       35915000	      3590	80003840	05996463	bltu	x18,x25,80003888	 x18:0xeb13c808 x25:0x00000000
       35925000	      3591	80003844	00ca7133	and	x2,x20,x12	 x20:0x00000000 x12:0x00000000  x2=0x00000000
       35935000	      3592	80003848	40355093	srai	x1,x10,0x3	 x10:0xfc8f3000  x1=0xff91e600
       35945000	      3593	8000384c	010db5b3	sltu	x11,x27,x16	 x27:0x00040004 x16:0xfffffc57 x11=0x00000001
       35955000	      3594	80003850	40b30e33	sub	x28,x6,x11	  x6:0x00100010 x11:0x00000001 x28=0x0010000f
       35965000	      3595	80003854	015c5313	srli	x6,x24,0x15	 x24:0x00000001  x6=0x00000000
       35975000	      3596	80003858	a993c493	xori	x9,x7,-1383	  x7:0x00000000  x9=0xfffffa99
       35985000	      3597	8000385c	00c1f833	and	x16,x3,x12	  x3:0x00000000 x12:0x00000000 x16=0x00000000
       35995000	      3598	80003860	00e3de13	srli	x28,x7,0xe	  x7:0x00000000 x28=0x00000000
       36005000	      3599	80003864	22a1c093	xori	x1,x3,554	  x3:0x00000000  x1=0x0000022a
       36015000	      3600	80003868	9ea5f693	andi	x13,x11,-1558	 x11:0x00000001 x13=0x00000000
       36025000	      3601	8000386c	a8917113	andi	x2,x2,-1399	  x2:0x00000000  x2=0x00000000
       36035000	      3602	80003870	2282ab17	auipc	x22,0x2282a	 x22=0xa282d86c
       36045000	      3603	80003874	00000013	addi	x0,x0,0	  x0:0x00000000
       36055000	      3604	80003878	3c1bf5b7	lui	x11,0x3c1bf	 x11=0x3c1bf000
       36065000	      3605	8000387c	03f64c63	blt	x12,x31,800038b4	 x12:0x00000000 x31:0x00000000
       36075000	      3606	80003880	00cfd663	bge	x31,x12,8000388c	 x31:0x00000000 x12:0x00000000
       36085000	      3607	00000000	00000013	addi	x0,x0,0	  x0:0x00000000
       36095000	      3608	80003888	00000013	addi	x0,x0,0	  x0:0x00000000
       36105000	      3609	8000388c	bf20f393	andi	x7,x1,-1038	  x1:0x0000022a  x7=0x00000222
       36115000	      3610	80003890	cd767713	andi	x14,x12,-809	 x12:0x00000000 x14=0x00000000
       36125000	      3611	80003894	406dd4b3	sra	x9,x27,x6	 x27:0x00040004  x6:0x00000000  x9=0x00040004
       36135000	      3612	80003898	00f15093	srli	x1,x2,0xf	  x2:0x00000000  x1=0x00000000
       36145000	      3613	8000389c	00e75c63	bge	x14,x14,800038b4	 x14:0x00000000 x14:0x00000000
       36155000	      3614	00000000	00000013	addi	x0,x0,0	  x0:0x00000000
       36165000	      3615	800038b0	00000013	addi	x0,x0,0	  x0:0x00000000
       36175000	      3616	800038b4	e6a0aa93	slti	x21,x1,-406	  x1:0x00000000 x21=0x00000000
       36185000	      3617	800038b8	40a0d6b3	sra	x13,x1,x10	  x1:0x00000000 x10:0xfc8f3000 x13=0x00000000
       36195000	      3618	800038bc	0047a083	lw	x1,4(x15)	 x15:0x80009ed8  x1=0x8000695c PA:0x80009edc
       36205000	      3619	800038c0	0185dfb3	srl	x31,x11,x24	 x11:0x3c1bf000 x24:0x00000001 x31=0x1e0df800
       36215000	      3620	800038c4	02878793	addi	x15,x15,40	 x15:0x80009ed8 x15=0x80009f00
       36225000	      3621	800038c8	90aac293	xori	x5,x21,-1782	 x21:0x00000000  x5=0xfffff90a
       36235000	      3622	800038cc	00108f13	addi	x30,x1,1	  x1:0x8000695c x30=0x8000695d
       36245000	      3623	800038d0	000f0f67	jalr	x30,x30,0	 x30:0x8000695d x30=0x800038d0
       36255000	      3624	00000000	00000013	addi	x0,x0,0	  x0:0x00000000
       36265000	      3625	8000695c	00000013	addi	x0,x0,0	  x0:0x00000000
       36275000	      3626	80006960	c922b093	sltiu	x1,x5,-878	  x5:0xfffff90a  x1=0x00000001
       36285000	      3627	80006964	55fbf393	andi	x7,x23,1375	 x23:0xfffff96d  x7=0x0000014d
       36295000	      3628	80006968	0283e063	bltu	x7,x8,80006988	  x7:0x0000014d  x8:0x00000000
       36305000	      3629	8000696c	0037fab3	and	x21,x15,x3	 x15:0x80009f00  x3:0x00000000 x21=0x00000000
       36315000	      3630	80006970	013208b3	add	x17,x4,x19	  x4:0x0000035b x19:0x0058b27a x17=0x0058b5d5
       36325000	      3631	80006974	0477d537	lui	x10,0x477d	 x10=0x0477d000
       36335000	      3632	80006978	01b51863	bne	x10,x27,80006988	 x10:0x0477d000 x27:0x00040004
       36345000	      3633	00000000	00000013	addi	x0,x0,0	  x0:0x00000000
       36355000	      3634	80006984	00000013	addi	x0,x0,0	  x0:0x00000000
       36365000	      3635	80006988	01dfff33	and	x30,x31,x29	 x31:0x1e0df800 x29:0xfffff9bc x30=0x1e0df800
       36375000	      3636	8000698c	0047a083	lw	x1,4(x15)	 x15:0x80009f00  x1=0x80001af0 PA:0x80009f04
       36385000	      3637	80006990	68d34213	xori	x4,x6,1677	  x6:0x00000000  x4=0x0000068d
       36395000	      3638	80006994	0073bcb3	sltu	x25,x7,x7	  x7:0x0000014d  x7:0x0000014d x25=0x00000000
       36405000	      3639	80006998	00789f13	slli	x30,x17,0x7	 x17:0x0058b5d5 x30=0x2c5aea80
       36415000	      3640	8000699c	03c78793	addi	x15,x15,60	 x15:0x80009f00 x15=0x80009f3c
       36425000	      3641	800069a0	005a52b3	srl	x5,x20,x5	 x20:0x00000000  x5:0xfffff90a  x5=0x00000000
       36435000	      3642	800069a4	cb6b4493	xori	x9,x22,-842	 x22:0xa282d86c  x9=0x5d7d24da
       36445000	      3643	800069a8	00108d93	addi	x27,x1,1	  x1:0x80001af0 x27=0x80001af1
       36455000	      3644	800069ac	000d8de7	jalr	x27,x27,0	 x27:0x80001af1 x27=0x800069ac
       36465000	      3645	00000000	00000013	addi	x0,x0,0	  x0:0x00000000
       36475000	      3646	80001af0	00000013	addi	x0,x0,0	  x0:0x00000000
       36485000	      3647	80001af4	00007117	auipc	x2,0x7	  x2=0x80008af0
       36495000	      3648	80001af8	33110113	addi	x2,x2,817	  x2:0x80008af0  x2=0x80008e21
       36505000	      3649	80001afc	00f14883	lbu	x17,15(x2)	  x2:0x80008e21 x17=0x0000000f PA:0x80008e30
       36515000	      3650	80001b00	00eeccb3	xor	x25,x29,x14	 x29:0xfffff9bc x14:0x00000000 x25=0xfffff9bc
       36525000	      3651	80001b04	4055d833	sra	x16,x11,x5	 x11:0x3c1bf000  x5:0x00000000 x16=0x3c1bf000
       36535000	      3652	80001b08	00c14683	lbu	x13,12(x2)	  x2:0x80008e21 x13=0x00000088 PA:0x80008e2d
       36545000	      3653	80001b0c	4153d433	sra	x8,x7,x21	  x7:0x0000014d x21:0x00000000  x8=0x0000014d
       36555000	      3654	80001b10	00014c03	lbu	x24,0(x2)	  x2:0x80008e21 x24=0x000000da PA:0x80008e21
       36565000	      3655	80001b14	003106a3	sb	x3,13(x2)	  x2:0x80008e21  x3:0x00000000 PA:0x80008e2e
       36575000	      3656	80001b18	00610123	sb	x6,2(x2)	  x2:0x80008e21  x6:0x00000000 PA:0x80008e23
       36585000	      3657	80001b1c	ff911303	lh	x6,-7(x2)	  x2:0x80008e21  x6=0xffff8000 PA:0x80008e1a
       36595000	      3658	80001b20	01014483	lbu	x9,16(x2)	  x2:0x80008e21  x9=0x00000033 PA:0x80008e31
       36605000	      3659	80001b24	ff714983	lbu	x19,-9(x2)	  x2:0x80008e21 x19=0x0000000d PA:0x80008e18
       36615000	      3660	80001b28	e2b52813	slti	x16,x10,-469	 x10:0x0477d000 x16=0x00000000
       36625000	      3661	80001b2c	00000013	addi	x0,x0,0	  x0:0x00000000
       36635000	      3662	80001b30	ead17893	andi	x17,x2,-339	  x2:0x80008e21 x17=0x80008e21
       36645000	      3663	80001b34	fff10c03	lb	x24,-1(x2)	  x2:0x80008e21 x24=0x0000007d PA:0x80008e20
       36655000	      3664	80001b38	00c14083	lbu	x1,12(x2)	  x2:0x80008e21  x1=0x00000088 PA:0x80008e2d
       36665000	      3665	80001b3c	ff014903	lbu	x18,-16(x2)	  x2:0x80008e21 x18=0x00000074 PA:0x80008e11
       36675000	      3666	80001b40	404bd313	srai	x6,x23,0x4	 x23:0xfffff96d  x6=0xffffff96
       36685000	      3667	80001b44	ffc14583	lbu	x11,-4(x2)	  x2:0x80008e21 x11=0x0000001b PA:0x80008e1d
       36695000	      3668	80001b48	ecab7a93	andi	x21,x22,-310	 x22:0xa282d86c x21=0xa282d848
       36705000	      3669	80001b4c	00114983	lbu	x19,1(x2)	  x2:0x80008e21 x19=0x0000002e PA:0x80008e22
       36715000	      3670	80001b50	411cdb93	srai	x23,x25,0x11	 x25:0xfffff9bc x23=0xffffffff
       36725000	      3671	80001b54	331b7293	andi	x5,x22,817	 x22:0xa282d86c  x5=0x00000020
       36735000	      3672	80001b58	00614703	lbu	x14,6(x2)	  x2:0x80008e21 x14=0x0000002a PA:0x80008e27
       36745000	      3673	80001b5c	fed10a23	sb	x13,-12(x2)	  x2:0x80008e21 x13:0x00000088 PA:0x80008e15
       36755000	      3674	80001b60	012107a3	sb	x18,15(x2)	  x2:0x80008e21 x18:0x00000074 PA:0x80008e30
       36765000	      3675	80001b64	ffe14683	lbu	x13,-2(x2)	  x2:0x80008e21 x13=0x0000000a PA:0x80008e1f
       36775000	      3676	80001b68	01dbd1b3	srl	x3,x23,x29	 x23:0xffffffff x29:0xfffff9bc  x3=0x0000000f
       36785000	      3677	80001b6c	ffe14483	lbu	x9,-2(x2)	  x2:0x80008e21  x9=0x0000000a PA:0x80008e1f
       36795000	      3678	80001b70	b51ce313	ori	x6,x25,-1199	 x25:0xfffff9bc  x6=0xfffffbfd
       36805000	      3679	80001b74	ff810203	lb	x4,-8(x2)	  x2:0x80008e21  x4=0x00000003 PA:0x80008e19
       36815000	      3680	80001b78	00b7b533	sltu	x10,x15,x11	 x15:0x80009f3c x11:0x0000001b x10=0x00000000
       36825000	      3681	80001b7c	007e7cb3	and	x25,x28,x7	 x28:0x00000000  x7:0x0000014d x25=0x00000000
       36835000	      3682	80001b80	014a05b3	add	x11,x20,x20	 x20:0x00000000 x20:0x00000000 x11=0x00000000
       36845000	      3683	80001b84	2da40913	addi	x18,x8,730	  x8:0x0000014d x18=0x00000427
       36855000	      3684	80001b88	00f15c03	lhu	x24,15(x2)	  x2:0x80008e21 x24=0x00003374 PA:0x80008e30
       36865000	      3685	80001b8c	0f4d90b7	lui	x1,0xf4d9	  x1=0x0f4d9000
       36875000	      3686	80001b90	552fbb93	sltiu	x23,x31,1362	 x31:0x1e0df800 x23=0x00000000
       36885000	      3687	80001b94	b25a2993	slti	x19,x20,-1243	 x20:0x00000000 x19=0x00000000
       36895000	      3688	80001b98	05192a93	slti	x21,x18,81	 x18:0x00000427 x21=0x00000000
       36905000	      3689	80001b9c	00000013	addi	x0,x0,0	  x0:0x00000000
       36915000	      3690	80001ba0	ff610c83	lb	x25,-10(x2)	  x2:0x80008e21 x25=0xffffffe1 PA:0x80008e17
       36925000	      3691	80001ba4	103ef037	lui	x0,0x103ef	
       36935000	      3692	80001ba8	570b3713	sltiu	x14,x22,1392	 x22:0xa282d86c x14=0x00000000
       36945000	      3693	80001bac	fe610f23	sb	x6,-2(x2)	  x2:0x80008e21  x6:0xfffffbfd PA:0x80008e1f
       36955000	      3694	80001bb0	ff111b83	lh	x23,-15(x2)	  x2:0x80008e21 x23=0xffff9ec4 PA:0x80008e12
       36965000	      3695	80001bb4	00810003	lb	x0,8(x2)	  x2:0x80008e21 PA:0x80008e29
       36975000	      3696	80001bb8	410d85b3	sub	x11,x27,x16	 x27:0x800069ac x16:0x00000000 x11=0x800069ac
       36985000	      3697	80001bbc	0092a5b3	slt	x11,x5,x9	  x5:0x00000020  x9:0x0000000a x11=0x00000000
       36995000	      3698	80001bc0	00000013	addi	x0,x0,0	  x0:0x00000000
       37005000	      3699	80001bc4	01205f93	srli	x31,x0,0x12	  x0:0x00000000 x31=0x00000000
       37015000	      3700	80001bc8	01014f03	lbu	x30,16(x2)	  x2:0x80008e21 x30=0x00000033 PA:0x80008e31
       37025000	      3701	80001bcc	00006897	auipc	x17,0x6	 x17=0x80007bc8
       37035000	      3702	80001bd0	5aa88893	addi	x17,x17,1450	 x17:0x80007bc8 x17=0x80008172
       37045000	      3703	80001bd4	01b4ffb3	and	x31,x9,x27	  x9:0x0000000a x27:0x800069ac x31=0x00000008
       37055000	      3704	80001bd8	01388d83	lb	x27,19(x17)	 x17:0x80008172 x27=0x00000006 PA:0x80008185
       37065000	      3705	80001bdc	3b015237	lui	x4,0x3b015	  x4=0x3b015000
       37075000	      3706	80001be0	fcd8ca83	lbu	x21,-51(x17)	 x17:0x80008172 x21=0x000000fa PA:0x8000813f
       37085000	      3707	80001be4	00377433	and	x8,x14,x3	 x14:0x00000000  x3:0x0000000f  x8=0x00000000
       37095000	      3708	80001be8	fc9888a3	sb	x9,-47(x17)	 x17:0x80008172  x9:0x0000000a PA:0x80008143
       37105000	      3709	80001bec	0298ce03	lbu	x28,41(x17)	 x17:0x80008172 x28=0x000000fd PA:0x8000819b
       37115000	      3710	80001bf0	00d88a03	lb	x20,13(x17)	 x17:0x80008172 x20=0x0000004a PA:0x8000817f
       37125000	      3711	80001bf4	02a89003	lh	x0,42(x17)	 x17:0x80008172 PA:0x8000819c
       37135000	      3712	80001bf8	fee8c103	lbu	x2,-18(x17)	 x17:0x80008172  x2=0x00000085 PA:0x80008160
       37145000	      3713	80001bfc	71c28993	addi	x19,x5,1820	  x5:0x00000020 x19=0x0000073c
       37155000	      3714	80001c00	fe188223	sb	x1,-28(x17)	 x17:0x80008172  x1:0x0f4d9000 PA:0x80008156
       37165000	      3715	80001c04	009c5993	srli	x19,x24,0x9	 x24:0x00003374 x19=0x00000019
       37175000	      3716	80001c08	671c0213	addi	x4,x24,1649	 x24:0x00003374  x4=0x000039e5
       37185000	      3717	80001c0c	fe489e03	lh	x28,-28(x17)	 x17:0x80008172 x28=0x00000800 PA:0x80008156
       37195000	      3718	80001c10	fc888623	sb	x8,-52(x17)	 x17:0x80008172  x8:0x00000000 PA:0x8000813e
       37205000	      3719	80001c14	414dd033	sra	x0,x27,x20	 x27:0x00000006 x20:0x0000004a
       37215000	      3720	80001c18	01b88223	sb	x27,4(x17)	 x17:0x80008172 x27:0x00000006 PA:0x80008176
       37225000	      3721	80001c1c	00000013	addi	x0,x0,0	  x0:0x00000000
       37235000	      3722	80001c20	fd7880a3	sb	x23,-63(x17)	 x17:0x80008172 x23:0xffff9ec4 PA:0x80008133
       37245000	      3723	80001c24	0178c083	lbu	x1,23(x17)	 x17:0x80008172  x1=0x00000099 PA:0x80008189
       37255000	      3724	80001c28	0188c403	lbu	x8,24(x17)	 x17:0x80008172  x8=0x00000068 PA:0x8000818a
       37265000	      3725	80001c2c	fee8dc83	lhu	x25,-18(x17)	 x17:0x80008172 x25=0x0000d885 PA:0x80008160
       37275000	      3726	80001c30	fdb89823	sh	x27,-48(x17)	 x17:0x80008172 x27:0x00000006 PA:0x80008142
       37285000	      3727	80001c34	ff588da3	sb	x21,-5(x17)	 x17:0x80008172 x21:0x000000fa PA:0x8000816d
       37295000	      3728	80001c38	fee88a83	lb	x21,-18(x17)	 x17:0x80008172 x21=0xffffff85 PA:0x80008160
       37305000	      3729	80001c3c	0148ad23	sw	x20,26(x17)	 x17:0x80008172 x20:0x0000004a PA:0x8000818c
       37315000	      3730	80001c40	01cc23b3	slt	x7,x24,x28	 x24:0x00003374 x28:0x00000800  x7=0x00000000
       37325000	      3731	80001c44	01588ca3	sb	x21,25(x17)	 x17:0x80008172 x21:0xffffff85 PA:0x8000818b
       37335000	      3732	80001c48	00d32bb3	slt	x23,x6,x13	  x6:0xfffffbfd x13:0x0000000a x23=0x00000001
       37345000	      3733	80001c4c	fd588a23	sb	x21,-44(x17)	 x17:0x80008172 x21:0xffffff85 PA:0x80008146
       37355000	      3734	80001c50	00e05c13	srli	x24,x0,0xe	  x0:0x00000000 x24=0x00000000
       37365000	      3735	80001c54	ffd88703	lb	x14,-3(x17)	 x17:0x80008172 x14=0xfffffff9 PA:0x8000816f
       37375000	      3736	80001c58	02889d83	lh	x27,40(x17)	 x17:0x80008172 x27=0xfffffd3a PA:0x8000819a
       37385000	      3737	80001c5c	fc8881a3	sb	x8,-61(x17)	 x17:0x80008172  x8:0x00000068 PA:0x80008135
       37395000	      3738	80001c60	00188a83	lb	x21,1(x17)	 x17:0x80008172 x21=0x0000001a PA:0x80008173
       37405000	      3739	80001c64	ff888703	lb	x14,-8(x17)	 x17:0x80008172 x14=0xffffffd3 PA:0x8000816a
       37415000	      3740	80001c68	01d8c583	lbu	x11,29(x17)	 x17:0x80008172 x11=0x00000000 PA:0x8000818f
       37425000	      3741	80001c6c	0368ce83	lbu	x29,54(x17)	 x17:0x80008172 x29=0x00000037 PA:0x800081a8
       37435000	      3742	80001c70	00f8cc03	lbu	x24,15(x17)	 x17:0x80008172 x24=0x00000039 PA:0x80008181
       37445000	      3743	80001c74	0128cd83	lbu	x27,18(x17)	 x17:0x80008172 x27=0x0000001a PA:0x80008184
       37455000	      3744	80001c78	01c38863	beq	x7,x28,80001c88	  x7:0x00000000 x28:0x00000800
       37465000	      3745	80001c7c	00705b33	srl	x22,x0,x7	  x0:0x00000000  x7:0x00000000 x22=0x00000000
       37475000	      3746	80001c80	033f4c63	blt	x30,x19,80001cb8	 x30:0x00000033 x19:0x00000019
       37485000	      3747	80001c84	014fee33	or	x28,x31,x20	 x31:0x00000008 x20:0x0000004a x28=0x0000004a
       37495000	      3748	80001c88	01b75033	srl	x0,x14,x27	 x14:0xffffffd3 x27:0x0000001a
       37505000	      3749	80001c8c	020d0863	beq	x26,x0,80001cbc	 x26:0x80009fc4  x0:0x00000000
       37515000	      3750	80001c90	018e9c13	slli	x24,x29,0x18	 x29:0x00000037 x24=0x37000000
       37525000	      3751	80001c94	71c4f493	andi	x9,x9,1820	  x9:0x0000000a  x9=0x00000008
       37535000	      3752	80001c98	0167d8b3	srl	x17,x15,x22	 x15:0x80009f3c x22:0x00000000 x17=0x80009f3c
       37545000	      3753	80001c9c	00d93b33	sltu	x22,x18,x13	 x18:0x00000427 x13:0x0000000a x22=0x00000000
       37555000	      3754	80001ca0	00a9d733	srl	x14,x19,x10	 x19:0x00000019 x10:0x00000000 x14=0x00000019
       37565000	      3755	80001ca4	00000013	addi	x0,x0,0	  x0:0x00000000
       37575000	      3756	80001ca8	36fe0e93	addi	x29,x28,879	 x28:0x0000004a x29=0x000003b9
       37585000	      3757	80001cac	d0926017	auipc	x0,0xd0926	
       37595000	      3758	80001cb0	01cb54b3	srl	x9,x22,x28	 x22:0x00000000 x28:0x0000004a  x9=0x00000000
       37605000	      3759	80001cb4	40555313	srai	x6,x10,0x5	 x10:0x00000000  x6=0x00000000
       37615000	      3760	80001cb8	01bc82b3	add	x5,x25,x27	 x25:0x0000d885 x27:0x0000001a  x5=0x0000d89f
       37625000	      3761	80001cbc	db6fb997	auipc	x19,0xdb6fb	 x19=0x5b6fccb8
       37635000	      3762	80001cc0	ae730a37	lui	x20,0xae730	 x20=0xae730000
       37645000	      3763	80001cc4	0110f8b3	and	x17,x1,x17	  x1:0x00000099 x17:0x80009f3c x17=0x00000018
       37655000	      3764	80001cc8	019d68b3	or	x17,x26,x25	 x26:0x80009fc4 x25:0x0000d885 x17=0x8000dfc5
       37665000	      3765	80001ccc	00401a33	sll	x20,x0,x4	  x0:0x00000000  x4:0x000039e5 x20=0x00000000
       37675000	      3766	80001cd0	411e5e13	srai	x28,x28,0x11	 x28:0x0000004a x28=0x00000000
       37685000	      3767	80001cd4	01ccc3b3	xor	x7,x25,x28	 x25:0x0000d885 x28:0x00000000  x7=0x0000d885
       37695000	      3768	80001cd8	03da0663	beq	x20,x29,80001d04	 x20:0x00000000 x29:0x000003b9
       37705000	      3769	80001cdc	b6dafa13	andi	x20,x21,-1171	 x21:0x0000001a x20=0x00000008
       37715000	      3770	80001ce0	c1ff2993	slti	x19,x30,-993	 x30:0x00000033 x19=0x00000000
       37725000	      3771	80001ce4	003e3db3	sltu	x27,x28,x3	 x28:0x00000000  x3:0x0000000f x27=0x00000001
       37735000	      3772	80001ce8	008b5e93	srli	x29,x22,0x8	 x22:0x00000000 x29=0x00000000
       37745000	      3773	80001cec	03624e63	blt	x4,x22,80001d28	  x4:0x000039e5 x22:0x00000000
       37755000	      3774	80001cf0	40b10733	sub	x14,x2,x11	  x2:0x00000085 x11:0x00000000 x14=0x00000085
       37765000	      3775	80001cf4	00c95993	srli	x19,x18,0xc	 x18:0x00000427 x19=0x00000000
       37775000	      3776	80001cf8	009de733	or	x14,x27,x9	 x27:0x00000001  x9:0x00000000 x14=0x00000001
       37785000	      3777	80001cfc	9b56ae13	slti	x28,x13,-1611	 x13:0x0000000a x28=0x00000000
       37795000	      3778	80001d00	40b75e13	srai	x28,x14,0xb	 x14:0x00000001 x28=0x00000000
       37805000	      3779	80001d04	00692ab3	slt	x21,x18,x6	 x18:0x00000427  x6:0x00000000 x21=0x00000000
       37815000	      3780	80001d08	00000013	addi	x0,x0,0	  x0:0x00000000
       37825000	      3781	80001d0c	01029db3	sll	x27,x5,x16	  x5:0x0000d89f x16:0x00000000 x27=0x0000d89f
       37835000	      3782	80001d10	e0ba19b7	lui	x19,0xe0ba1	 x19=0xe0ba1000
       37845000	      3783	80001d14	00000013	addi	x0,x0,0	  x0:0x00000000
       37855000	      3784	80001d18	03dc8663	beq	x25,x29,80001d44	 x25:0x0000d885 x29:0x00000000
       37865000	      3785	80001d1c	021c1c63	bne	x24,x1,80001d54	 x24:0x37000000  x1:0x00000099
       37875000	      3786	00000000	00000013	addi	x0,x0,0	  x0:0x00000000
       37885000	      3787	80001d50	00000013	addi	x0,x0,0	  x0:0x00000000
       37895000	      3788	80001d54	00e5d1b3	srl	x3,x11,x14	 x11:0x00000000 x14:0x00000001  x3=0x00000000
       37905000	      3789	80001d58	c3390193	addi	x3,x18,-973	 x18:0x00000427  x3=0x0000005a
       37915000	      3790	80001d5c	0f318c37	lui	x24,0xf318	 x24=0x0f318000
       37925000	      3791	80001d60	41d05833	sra	x16,x0,x29	  x0:0x00000000 x29:0x00000000 x16=0x00000000
       37935000	      3792	80001d64	d110dc97	auipc	x25,0xd110d	 x25=0x5110ed60
       37945000	      3793	80001d68	3523e893	ori	x17,x7,850	  x7:0x0000d885 x17=0x0000dbd7
       37955000	      3794	80001d6c	0132d1b3	srl	x3,x5,x19	  x5:0x0000d89f x19:0xe0ba1000  x3=0x0000d89f
       37965000	      3795	80001d70	01a88e63	beq	x17,x26,80001d8c	 x17:0x0000dbd7 x26:0x80009fc4
       37975000	      3796	80001d74	03b30063	beq	x6,x27,80001d94	  x6:0x00000000 x27:0x0000d89f
       37985000	      3797	80001d78	00f45393	srli	x7,x8,0xf	  x8:0x00000068  x7=0x00000000
       37995000	      3798	80001d7c	029c4263	blt	x24,x9,80001da0	 x24:0x0f318000  x9:0x00000000
       38005000	      3799	80001d80	709ba493	slti	x9,x23,1801	 x23:0x00000001  x9=0x00000001
       38015000	      3800	80001d84	d9402a13	slti	x20,x0,-620	  x0:0x00000000 x20=0x00000000
       38025000	      3801	80001d88	00bd7833	and	x16,x26,x11	 x26:0x80009fc4 x11:0x00000000 x16=0x00000000
       38035000	      3802	80001d8c	01c91c13	slli	x24,x18,0x1c	 x18:0x00000427 x24=0x70000000
       38045000	      3803	80001d90	0270d463	bge	x1,x7,80001db8	  x1:0x00000099  x7:0x00000000
       38055000	      3804	00000000	00000013	addi	x0,x0,0	  x0:0x00000000
       38065000	      3805	80001db4	00000013	addi	x0,x0,0	  x0:0x00000000
       38075000	      3806	80001db8	000558b3	srl	x17,x10,x0	 x10:0x00000000  x0:0x00000000 x17=0x00000000
       38085000	      3807	80001dbc	01cc43b3	xor	x7,x24,x28	 x24:0x70000000 x28:0x00000000  x7=0x70000000
       38095000	      3808	80001dc0	d2610193	addi	x3,x2,-730	  x2:0x00000085  x3=0xfffffdab
       38105000	      3809	80001dc4	00556433	or	x8,x10,x5	 x10:0x00000000  x5:0x0000d89f  x8=0x0000d89f
       38115000	      3810	80001dc8	0158d413	srli	x8,x17,0x15	 x17:0x00000000  x8=0x00000000
       38125000	      3811	80001dcc	60181397	auipc	x7,0x60181	  x7=0xe0182dc8
       38135000	      3812	80001dd0	00e0b4b3	sltu	x9,x1,x14	  x1:0x00000099 x14:0x00000001  x9=0x00000000
       38145000	      3813	80001dd4	40d25a93	srai	x21,x4,0xd	  x4:0x000039e5 x21=0x00000001
       38155000	      3814	80001dd8	026c0863	beq	x24,x6,80001e08	 x24:0x70000000  x6:0x00000000
       38165000	      3815	80001ddc	8a9d0693	addi	x13,x26,-1879	 x26:0x80009fc4 x13=0x8000986d
       38175000	      3816	80001de0	008499b3	sll	x19,x9,x8	  x9:0x00000000  x8:0x00000000 x19=0x00000000
       38185000	      3817	80001de4	4186dcb3	sra	x25,x13,x24	 x13:0x8000986d x24:0x70000000 x25=0x8000986d
       38195000	      3818	80001de8	023af863	bgeu	x21,x3,80001e18	 x21:0x00000001  x3:0xfffffdab
       38205000	      3819	80001dec	01ce13b3	sll	x7,x28,x28	 x28:0x00000000 x28:0x00000000  x7=0x00000000
       38215000	      3820	80001df0	01c89f17	auipc	x30,0x1c89	 x30=0x81c8adec
       38225000	      3821	80001df4	000529b3	slt	x19,x10,x0	 x10:0x00000000  x0:0x00000000 x19=0x00000000
       38235000	      3822	80001df8	8d1ec213	xori	x4,x29,-1839	 x29:0x00000000  x4=0xfffff8d1
       38245000	      3823	80001dfc	00569133	sll	x2,x13,x5	 x13:0x8000986d  x5:0x0000d89f  x2=0x80000000
       38255000	      3824	80001e00	044cc063	blt	x25,x4,80001e40	 x25:0x8000986d  x4:0xfffff8d1
       38265000	      3825	00000000	00000013	addi	x0,x0,0	  x0:0x00000000
       38275000	      3826	80001e3c	00000013	addi	x0,x0,0	  x0:0x00000000
       38285000	      3827	80001e40	00000013	addi	x0,x0,0	  x0:0x00000000
       38295000	      3828	80001e44	06ea4593	xori	x11,x20,110	 x20:0x00000000 x11=0x0000006e
       38305000	      3829	80001e48	f713a913	slti	x18,x7,-143	  x7:0x00000000 x18=0x00000000
       38315000	      3830	80001e4c	005145b3	xor	x11,x2,x5	  x2:0x80000000  x5:0x0000d89f x11=0x8000d89f
       38325000	      3831	80001e50	1d9fba93	sltiu	x21,x31,473	 x31:0x00000008 x21=0x00000001
       38335000	      3832	80001e54	344c3c13	sltiu	x24,x24,836	 x24:0x70000000 x24=0x00000000
       38345000	      3833	80001e58	876b8c93	addi	x25,x23,-1930	 x23:0x00000001 x25=0xfffff877
       38355000	      3834	80001e5c	03b26063	bltu	x4,x27,80001e7c	  x4:0xfffff8d1 x27:0x0000d89f
       38365000	      3835	80001e60	015fda93	srli	x21,x31,0x15	 x31:0x00000008 x21=0x00000000
       38375000	      3836	80001e64	5a3a0e13	addi	x28,x20,1443	 x20:0x00000000 x28=0x000005a3
       38385000	      3837	80001e68	5a608893	addi	x17,x1,1446	  x1:0x00000099 x17=0x0000063f
       38395000	      3838	80001e6c	03d3d463	bge	x7,x29,80001e94	  x7:0x00000000 x29:0x00000000
       38405000	      3839	00000000	00000013	addi	x0,x0,0	  x0:0x00000000
       38415000	      3840	80001e90	00000013	addi	x0,x0,0	  x0:0x00000000
       38425000	      3841	80001e94	008c7db3	and	x27,x24,x8	 x24:0x00000000  x8:0x00000000 x27=0x00000000
       38435000	      3842	80001e98	0019dd93	srli	x27,x19,0x1	 x19:0x00000000 x27=0x00000000
       38445000	      3843	80001e9c	c3c96593	ori	x11,x18,-964	 x18:0x00000000 x11=0xfffffc3c
       38455000	      3844	80001ea0	02f6f063	bgeu	x13,x15,80001ec0	 x13:0x8000986d x15:0x80009f3c
       38465000	      3845	80001ea4	f9cc3417	auipc	x8,0xf9cc3	  x8=0x79cc4ea0
       38475000	      3846	80001ea8	0581d263	bge	x3,x24,80001eec	  x3:0xfffffdab x24:0x00000000
       38485000	      3847	80001eac	67278f97	auipc	x31,0x67278	 x31=0xe7279ea8
       38495000	      3848	80001eb0	0170d113	srli	x2,x1,0x17	  x1:0x00000099  x2=0x00000000
       38505000	      3849	80001eb4	01186093	ori	x1,x16,17	 x16:0x00000000  x1=0x00000011
       38515000	      3850	80001eb8	d9b9b897	auipc	x17,0xd9b9b	 x17=0x59b9ceb4
       38525000	      3851	80001ebc	514a8937	lui	x18,0x514a8	 x18=0x514a8000
       38535000	      3852	80001ec0	008c6833	or	x16,x24,x8	 x24:0x00000000  x8:0x79cc4ea0 x16=0x79cc4ea0
       38545000	      3853	80001ec4	4c6a4193	xori	x3,x20,1222	 x20:0x00000000  x3=0x000004c6
       38555000	      3854	80001ec8	015791b3	sll	x3,x15,x21	 x15:0x80009f3c x21:0x00000000  x3=0x80009f3c
       38565000	      3855	80001ecc	019ba233	slt	x4,x23,x25	 x23:0x00000001 x25:0xfffff877  x4=0x00000000
       38575000	      3856	80001ed0	96c62a93	slti	x21,x12,-1684	 x12:0x00000000 x21=0x00000000
       38585000	      3857	80001ed4	dc46a493	slti	x9,x13,-572	 x13:0x8000986d  x9=0x00000001
       38595000	      3858	80001ed8	41ba0a33	sub	x20,x20,x27	 x20:0x00000000 x27:0x00000000 x20=0x00000000
       38605000	      3859	80001edc	011fc4b3	xor	x9,x31,x17	 x31:0xe7279ea8 x17:0x59b9ceb4  x9=0xbe9e501c
       38615000	      3860	80001ee0	caab99b7	lui	x19,0xcaab9	 x19=0xcaab9000
       38625000	      3861	80001ee4	00c70c33	add	x24,x14,x12	 x14:0x00000001 x12:0x00000000 x24=0x00000001
       38635000	      3862	80001ee8	5d87ed97	auipc	x27,0x5d87e	 x27=0xdd87fee4
       38645000	      3863	80001eec	1963e193	ori	x3,x7,406	  x7:0x00000000  x3=0x00000196
       38655000	      3864	80001ef0	02775863	bge	x14,x7,80001f20	 x14:0x00000001  x7:0x00000000
       38665000	      3865	00000000	00000013	addi	x0,x0,0	  x0:0x00000000
       38675000	      3866	80001f1c	00000013	addi	x0,x0,0	  x0:0x00000000
       38685000	      3867	80001f20	86f3f093	andi	x1,x7,-1937	  x7:0x00000000  x1=0x00000000
       38695000	      3868	80001f24	b664a813	slti	x16,x9,-1178	  x9:0xbe9e501c x16=0x00000001
       38705000	      3869	80001f28	9f38e813	ori	x16,x17,-1549	 x17:0x59b9ceb4 x16=0xfffffff7
       38715000	      3870	80001f2c	f30be213	ori	x4,x23,-208	 x23:0x00000001  x4=0xffffff31
       38725000	      3871	80001f30	00ffe0b3	or	x1,x31,x15	 x31:0xe7279ea8 x15:0x80009f3c  x1=0xe7279fbc
       38735000	      3872	80001f34	419edab3	sra	x21,x29,x25	 x29:0x00000000 x25:0xfffff877 x21=0x00000000
       38745000	      3873	80001f38	0ad99c97	auipc	x25,0xad99	 x25=0x8ad9af34
       38755000	      3874	80001f3c	0008bbb3	sltu	x23,x17,x0	 x17:0x59b9ceb4  x0:0x00000000 x23=0x00000000
       38765000	      3875	80001f40	00bea133	slt	x2,x29,x11	 x29:0x00000000 x11:0xfffffc3c  x2=0x00000000
       38775000	      3876	80001f44	037bf663	bgeu	x23,x23,80001f70	 x23:0x00000000 x23:0x00000000
       38785000	      3877	00000000	00000013	addi	x0,x0,0	  x0:0x00000000
       38795000	      3878	80001f6c	00000013	addi	x0,x0,0	  x0:0x00000000
       38805000	      3879	80001f70	048c8263	beq	x25,x8,80001fb4	 x25:0x8ad9af34  x8:0x79cc4ea0
       38815000	      3880	80001f74	02d5e263	bltu	x11,x13,80001f98	 x11:0xfffffc3c x13:0x8000986d
       38825000	      3881	80001f78	01dd1c63	bne	x26,x29,80001f90	 x26:0x80009fc4 x29:0x00000000
       38835000	      3882	00000000	00000013	addi	x0,x0,0	  x0:0x00000000
       38845000	      3883	80001f8c	00000013	addi	x0,x0,0	  x0:0x00000000
       38855000	      3884	80001f90	0125c533	xor	x10,x11,x18	 x11:0xfffffc3c x18:0x514a8000 x10=0xaeb57c3c
       38865000	      3885	80001f94	ec6e0e13	addi	x28,x28,-314	 x28:0x000005a3 x28=0x00000469
       38875000	      3886	80001f98	01362733	slt	x14,x12,x19	 x12:0x00000000 x19:0xcaab9000 x14=0x00000000
       38885000	      3887	80001f9c	9debf013	andi	x0,x23,-1570	 x23:0x00000000
       38895000	      3888	80001fa0	407780b3	sub	x1,x15,x7	 x15:0x80009f3c  x7:0x00000000  x1=0x80009f3c
       38905000	      3889	80001fa4	017428b3	slt	x17,x8,x23	  x8:0x79cc4ea0 x23:0x00000000 x17=0x00000000
       38915000	      3890	80001fa8	e179b813	sltiu	x16,x19,-489	 x19:0xcaab9000 x16=0x00000001
       38925000	      3891	80001fac	e5e0ae93	slti	x29,x1,-418	  x1:0x80009f3c x29=0x00000001
       38935000	      3892	80001fb0	03835063	bge	x6,x24,80001fd0	  x6:0x00000000 x24:0x00000001
       38945000	      3893	80001fb4	b9a96497	auipc	x9,0xb9a96	  x9=0x39a97fb0
       38955000	      3894	80001fb8	01c81693	slli	x13,x16,0x1c	 x16:0x00000001 x13=0x10000000
       38965000	      3895	80001fbc	b7678213	addi	x4,x15,-1162	 x15:0x80009f3c  x4=0x80009ab2
       38975000	      3896	80001fc0	00a58863	beq	x11,x10,80001fd0	 x11:0xfffffc3c x10:0xaeb57c3c
       38985000	      3897	80001fc4	39cd7693	andi	x13,x26,924	 x26:0x80009fc4 x13=0x00000384
       38995000	      3898	80001fc8	0188aeb3	slt	x29,x17,x24	 x17:0x00000000 x24:0x00000001 x29=0x00000001
       39005000	      3899	80001fcc	01daab33	slt	x22,x21,x29	 x21:0x00000000 x29:0x00000001 x22=0x00000001
       39015000	      3900	80001fd0	03ea6463	bltu	x20,x30,80001ff8	 x20:0x00000000 x30:0x81c8adec
       39025000	      3901	00000000	00000013	addi	x0,x0,0	  x0:0x00000000
       39035000	      3902	80001ff4	00000013	addi	x0,x0,0	  x0:0x00000000
       39045000	      3903	80001ff8	017a5693	srli	x13,x20,0x17	 x20:0x00000000 x13=0x00000000
       39055000	      3904	80001ffc	00b85993	srli	x19,x16,0xb	 x16:0x00000001 x19=0x00000000
       39065000	      3905	80002000	003bccb3	xor	x25,x23,x3	 x23:0x00000000  x3:0x00000196 x25=0x00000196
       39075000	      3906	80002004	40165513	srai	x10,x12,0x1	 x12:0x00000000 x10=0x00000000
       39085000	      3907	80002008	00000013	addi	x0,x0,0	  x0:0x00000000
       39095000	      3908	8000200c	0172a6b3	slt	x13,x5,x23	  x5:0x0000d89f x23:0x00000000 x13=0x00000000
       39105000	      3909	80002010	03574063	blt	x14,x21,80002030	 x14:0x00000000 x21:0x00000000
       39115000	      3910	80002014	01467a63	bgeu	x12,x20,80002028	 x12:0x00000000 x20:0x00000000
       39125000	      3911	00000000	00000013	addi	x0,x0,0	  x0:0x00000000
       39135000	      3912	80002024	00000013	addi	x0,x0,0	  x0:0x00000000
       39145000	      3913	80002028	00674933	xor	x18,x14,x6	 x14:0x00000000  x6:0x00000000 x18=0x00000000
       39155000	      3914	8000202c	aa3d4293	xori	x5,x26,-1373	 x26:0x80009fc4  x5=0x7fff6567
       39165000	      3915	80002030	01696c63	bltu	x18,x22,80002048	 x18:0x00000000 x22:0x00000001
       39175000	      3916	00000000	00000013	addi	x0,x0,0	  x0:0x00000000
       39185000	      3917	80002044	00000013	addi	x0,x0,0	  x0:0x00000000
       39195000	      3918	80002048	b620c413	xori	x8,x1,-1182	  x1:0x80009f3c  x8=0x7fff645e
       39205000	      3919	8000204c	0f4d5063	bge	x26,x20,8000212c	 x26:0x80009fc4 x20:0x00000000
       39215000	      3920	80002050	00006817	auipc	x16,0x6	 x16=0x8000804c
       39225000	      3921	80002054	26980813	addi	x16,x16,617	 x16:0x8000804c x16=0x800082b5
       39235000	      3922	80002058	406ad013	srai	x0,x21,0x6	 x21:0x00000000
       39245000	      3923	8000205c	380e8f93	addi	x31,x29,896	 x29:0x00000001 x31=0x00000381
       39255000	      3924	80002060	21d80f23	sb	x29,542(x16)	 x16:0x800082b5 x29:0x00000001 PA:0x800084d3
       39265000	      3925	80002064	00f9e3b3	or	x7,x19,x15	 x19:0x00000000 x15:0x80009f3c  x7=0x80009f3c
       39275000	      3926	80002068	04f81083	lh	x1,79(x16)	 x16:0x800082b5  x1=0x000065dc PA:0x80008304
       39285000	      3927	8000206c	00000013	addi	x0,x0,0	  x0:0x00000000
       39295000	      3928	80002070	010e1cb3	sll	x25,x28,x16	 x28:0x00000469 x16:0x800082b5 x25=0x8d200000
       39305000	      3929	80002074	99f3e213	ori	x4,x7,-1633	  x7:0x80009f3c  x4=0xffffffbf
       39315000	      3930	80002078	09c80023	sb	x28,128(x16)	 x16:0x800082b5 x28:0x00000469 PA:0x80008335
       39325000	      3931	8000207c	01312db3	slt	x27,x2,x19	  x2:0x00000000 x19:0x00000000 x27=0x00000000
       39335000	      3932	80002080	0c080203	lb	x4,192(x16)	 x16:0x800082b5  x4=0x0000006b PA:0x80008375
       39345000	      3933	80002084	00853433	sltu	x8,x10,x8	 x10:0x00000000  x8:0x7fff645e  x8=0x00000001
       39355000	      3934	80002088	f76e3413	sltiu	x8,x28,-138	 x28:0x00000469  x8=0x00000001
       39365000	      3935	8000208c	d49ffe13	andi	x28,x31,-695	 x31:0x00000381 x28=0x00000101
       39375000	      3936	80002090	00000013	addi	x0,x0,0	  x0:0x00000000
       39385000	      3937	80002094	329b8297	auipc	x5,0x329b8	  x5=0xb29ba090
       39395000	      3938	80002098	3ec80023	sb	x12,992(x16)	 x16:0x800082b5 x12:0x00000000 PA:0x80008695
       39405000	      3939	8000209c	25f81003	lh	x0,607(x16)	 x16:0x800082b5 PA:0x80008514
       39415000	      3940	800020a0	43782703	lw	x14,1079(x16)	 x16:0x800082b5 x14=0xf0d0af35 PA:0x800086ec
       39425000	      3941	800020a4	eab85e03	lhu	x28,-341(x16)	 x16:0x800082b5 x28=0x0000d885 PA:0x80008160
       39435000	      3942	800020a8	f1785203	lhu	x4,-233(x16)	 x16:0x800082b5  x4=0x000022b1 PA:0x800081cc
       39445000	      3943	800020ac	013401b3	add	x3,x8,x19	  x8:0x00000001 x19:0x00000000  x3=0x00000001
       39455000	      3944	800020b0	51180b03	lb	x22,1297(x16)	 x16:0x800082b5 x22=0xffffffa2 PA:0x800087c6
       39465000	      3945	800020b4	b46c8b13	addi	x22,x25,-1210	 x25:0x8d200000 x22=0x8d1ffb46
       39475000	      3946	800020b8	00d79993	slli	x19,x15,0xd	 x15:0x80009f3c x19=0x13e78000
       39485000	      3947	800020bc	0150a2b3	slt	x5,x1,x21	  x1:0x000065dc x21:0x00000000  x5=0x00000000
       39495000	      3948	800020c0	0cc80a23	sb	x12,212(x16)	 x16:0x800082b5 x12:0x00000000 PA:0x80008389
       39505000	      3949	800020c4	da28c713	xori	x14,x17,-606	 x17:0x00000000 x14=0xfffffda2
       39515000	      3950	800020c8	00fc1fb3	sll	x31,x24,x15	 x24:0x00000001 x15:0x80009f3c x31=0x10000000
       39525000	      3951	800020cc	05680223	sb	x22,68(x16)	 x16:0x800082b5 x22:0x8d1ffb46 PA:0x800082f9
       39535000	      3952	800020d0	00000013	addi	x0,x0,0	  x0:0x00000000
       39545000	      3953	800020d4	81460a93	addi	x21,x12,-2028	 x12:0x00000000 x21=0xfffff814
       39555000	      3954	800020d8	00000013	addi	x0,x0,0	  x0:0x00000000
       39565000	      3955	800020dc	411182b3	sub	x5,x3,x17	  x3:0x00000001 x17:0x00000000  x5=0x00000001
       39575000	      3956	800020e0	b5cd7493	andi	x9,x26,-1188	 x26:0x80009fc4  x9=0x80009b44
       39585000	      3957	800020e4	dcf82f83	lw	x31,-561(x16)	 x16:0x800082b5 x31=0x5792ea97 PA:0x80008084
       39595000	      3958	800020e8	00e19093	slli	x1,x3,0xe	  x3:0x00000001  x1=0x00004000
       39605000	      3959	800020ec	418a5b13	srai	x22,x20,0x18	 x20:0x00000000 x22=0x00000000
       39615000	      3960	800020f0	8dae0293	addi	x5,x28,-1830	 x28:0x0000d885  x5=0x0000d15f
       39625000	      3961	800020f4	25b84e83	lbu	x29,603(x16)	 x16:0x800082b5 x29=0x0000009f PA:0x80008510
       39635000	      3962	800020f8	018c24b3	slt	x9,x24,x24	 x24:0x00000001 x24:0x00000001  x9=0x00000000
       39645000	      3963	800020fc	2de801a3	sb	x30,707(x16)	 x16:0x800082b5 x30:0x81c8adec PA:0x80008578
       39655000	      3964	80002100	006e6233	or	x4,x28,x6	 x28:0x0000d885  x6:0x00000000  x4=0x0000d885
       39665000	      3965	80002104	410700b3	sub	x1,x14,x16	 x14:0xfffffda2 x16:0x800082b5  x1=0x7fff7aed
       39675000	      3966	80002108	01d85103	lhu	x2,29(x16)	 x16:0x800082b5  x2=0x00005908 PA:0x800082d2
       39685000	      3967	8000210c	f3781403	lh	x8,-201(x16)	 x16:0x800082b5  x8=0xffff9739 PA:0x800081ec
       39695000	      3968	80002110	004b5113	srli	x2,x22,0x4	 x22:0x00000000  x2=0x00000000
       39705000	      3969	80002114	46c811a3	sh	x12,1123(x16)	 x16:0x800082b5 x12:0x00000000 PA:0x80008718
       39715000	      3970	80002118	03f56463	bltu	x10,x31,80002140	 x10:0x00000000 x31:0x5792ea97
       39725000	      3971	00000000	00000013	addi	x0,x0,0	  x0:0x00000000
       39735000	      3972	8000213c	00000013	addi	x0,x0,0	  x0:0x00000000
       39745000	      3973	80002140	03946863	bltu	x8,x25,80002170	  x8:0xffff9739 x25:0x8d200000
       39755000	      3974	80002144	73291e97	auipc	x29,0x73291	 x29=0xf3293140
       39765000	      3975	80002148	00b63bb3	sltu	x23,x12,x11	 x12:0x00000000 x11:0xfffffc3c x23=0x00000001
       39775000	      3976	8000214c	054ec663	blt	x29,x20,80002198	 x29:0xf3293140 x20:0x00000000
       39785000	      3977	00000000	00000013	addi	x0,x0,0	  x0:0x00000000
       39795000	      3978	80002194	00000013	addi	x0,x0,0	  x0:0x00000000
       39805000	      3979	80002198	0111b533	sltu	x10,x3,x17	  x3:0x00000001 x17:0x00000000 x10=0x00000000
       39815000	      3980	8000219c	02b3ee63	bltu	x7,x11,800021d8	  x7:0x80009f3c x11:0xfffffc3c
       39825000	      3981	00000000	00000013	addi	x0,x0,0	  x0:0x00000000
       39835000	      3982	800021d4	00000013	addi	x0,x0,0	  x0:0x00000000
       39845000	      3983	800021d8	007fe6b3	or	x13,x31,x7	 x31:0x5792ea97  x7:0x80009f3c x13=0xd792ffbf
       39855000	      3984	800021dc	017bb5b3	sltu	x11,x23,x23	 x23:0x00000001 x23:0x00000001 x11=0x00000000
       39865000	      3985	800021e0	0244fe63	bgeu	x9,x4,8000221c	  x9:0x00000000  x4:0x0000d885
       39875000	      3986	800021e4	3c522a17	auipc	x20,0x3c522	 x20=0xbc5241e0
       39885000	      3987	800021e8	b2cdce93	xori	x29,x27,-1236	 x27:0x00000000 x29=0xfffffb2c
       39895000	      3988	800021ec	01c8dc63	bge	x17,x28,80002204	 x17:0x00000000 x28:0x0000d885
       39905000	      3989	800021f0	019018b3	sll	x17,x0,x25	  x0:0x00000000 x25:0x8d200000 x17=0x00000000
       39915000	      3990	800021f4	00139693	slli	x13,x7,0x1	  x7:0x80009f3c x13=0x00013e78
       39925000	      3991	800021f8	4626f593	andi	x11,x13,1122	 x13:0x00013e78 x11=0x00000460
       39935000	      3992	800021fc	0305c863	blt	x11,x16,8000222c	 x11:0x00000460 x16:0x800082b5
       39945000	      3993	80002200	03e48863	beq	x9,x30,80002230	  x9:0x00000000 x30:0x81c8adec
       39955000	      3994	80002204	021d1863	bne	x26,x1,80002234	 x26:0x80009fc4  x1:0x7fff7aed
       39965000	      3995	00000000	00000013	addi	x0,x0,0	  x0:0x00000000
       39975000	      3996	80002230	00000013	addi	x0,x0,0	  x0:0x00000000
       39985000	      3997	80002234	00d60e63	beq	x12,x13,80002250	 x12:0x00000000 x13:0x00013e78
       39995000	      3998	80002238	0135a8b3	slt	x17,x11,x19	 x11:0x00000460 x19:0x13e78000 x17=0x00000001
       40005000	      3999	8000223c	a1478693	addi	x13,x15,-1516	 x15:0x80009f3c x13=0x80009950
       40015000	      4000	80002240	0bb0d297	auipc	x5,0xbb0d	  x5=0x8bb0f23c
       40025000	      4001	80002244	00984cb3	xor	x25,x16,x9	 x16:0x800082b5  x9:0x00000000 x25=0x800082b5
       40035000	      4002	80002248	03f51463	bne	x10,x31,80002270	 x10:0x00000000 x31:0x5792ea97
       40045000	      4003	00000000	00000013	addi	x0,x0,0	  x0:0x00000000
       40055000	      4004	8000226c	00000013	addi	x0,x0,0	  x0:0x00000000
       40065000	      4005	80002270	5f5fc997	auipc	x19,0x5f5fc	 x19=0xdf5fe26c
       40075000	      4006	80002274	40018c33	sub	x24,x3,x0	  x3:0x00000001  x0:0x00000000 x24=0x00000001
       40085000	      4007	80002278	01231293	slli	x5,x6,0x12	  x6:0x00000000  x5=0x00000000
       40095000	      4008	8000227c	01154133	xor	x2,x10,x17	 x10:0x00000000 x17:0x00000001  x2=0x00000001
       40105000	      4009	80002280	44a56c97	auipc	x25,0x44a56	 x25=0xc4a5827c
       40115000	      4010	80002284	b8ff6db7	lui	x27,0xb8ff6	 x27=0xb8ff6000
       40125000	      4011	80002288	40ff83b3	sub	x7,x31,x15	 x31:0x5792ea97 x15:0x80009f3c  x7=0xd7924b5b
       40135000	      4012	8000228c	0227d863	bge	x15,x2,800022bc	 x15:0x80009f3c  x2:0x00000001
       40145000	      4013	80002290	01ea1833	sll	x16,x20,x30	 x20:0xbc5241e0 x30:0x81c8adec x16=0x241e0000
       40155000	      4014	80002294	02a91463	bne	x18,x10,800022bc	 x18:0x00000000 x10:0x00000000
       40165000	      4015	80002298	98a27417	auipc	x8,0x98a27	  x8=0x18a29294
       40175000	      4016	8000229c	00279e93	slli	x29,x15,0x2	 x15:0x80009f3c x29=0x00027cf0
       40185000	      4017	800022a0	03390063	beq	x18,x19,800022c0	 x18:0x00000000 x19:0xdf5fe26c
       40195000	      4018	800022a4	00fae6b3	or	x13,x21,x15	 x21:0xfffff814 x15:0x80009f3c x13=0xffffff3c
       40205000	      4019	800022a8	00000013	addi	x0,x0,0	  x0:0x00000000
       40215000	      4020	800022ac	01d65113	srli	x2,x12,0x1d	 x12:0x00000000  x2=0x00000000
       40225000	      4021	800022b0	0b006293	ori	x5,x0,176	  x0:0x00000000  x5=0x000000b0
       40235000	      4022	800022b4	03d61263	bne	x12,x29,800022d8	 x12:0x00000000 x29:0x00027cf0
       40245000	      4023	00000000	00000013	addi	x0,x0,0	  x0:0x00000000
       40255000	      4024	800022d4	00000013	addi	x0,x0,0	  x0:0x00000000
       40265000	      4025	800022d8	bffb63b7	lui	x7,0xbffb6	  x7=0xbffb6000
       40275000	      4026	800022dc	01aee733	or	x14,x29,x26	 x29:0x00027cf0 x26:0x80009fc4 x14=0x8002fff4
       40285000	      4027	800022e0	df01b813	sltiu	x16,x3,-528	  x3:0x00000001 x16=0x00000001
       40295000	      4028	800022e4	00aec9b3	xor	x19,x29,x10	 x29:0x00027cf0 x10:0x00000000 x19=0x00027cf0
       40305000	      4029	800022e8	00ae0eb3	add	x29,x28,x10	 x28:0x0000d885 x10:0x00000000 x29=0x0000d885
       40315000	      4030	800022ec	01199db3	sll	x27,x19,x17	 x19:0x00027cf0 x17:0x00000001 x27=0x0004f9e0
       40325000	      4031	800022f0	03b29863	bne	x5,x27,80002320	  x5:0x000000b0 x27:0x0004f9e0
       40335000	      4032	00000000	00000013	addi	x0,x0,0	  x0:0x00000000
       40345000	      4033	8000231c	00000013	addi	x0,x0,0	  x0:0x00000000
       40355000	      4034	80002320	00422c33	slt	x24,x4,x4	  x4:0x0000d885  x4:0x0000d885 x24=0x00000000
       40365000	      4035	80002324	01e31cb3	sll	x25,x6,x30	  x6:0x00000000 x30:0x81c8adec x25=0x00000000
       40375000	      4036	80002328	027e4663	blt	x28,x7,80002354	 x28:0x0000d885  x7:0xbffb6000
       40385000	      4037	8000232c	01247e63	bgeu	x8,x18,80002348	  x8:0x18a29294 x18:0x00000000
       40395000	      4038	00000000	00000013	addi	x0,x0,0	  x0:0x00000000
       40405000	      4039	80002344	00000013	addi	x0,x0,0	  x0:0x00000000
       40415000	      4040	80002348	61987493	andi	x9,x16,1561	 x16:0x00000001  x9=0x00000001
       40425000	      4041	8000234c	012df1b3	and	x3,x27,x18	 x27:0x0004f9e0 x18:0x00000000  x3=0x00000000
       40435000	      4042	80002350	409f01b3	sub	x3,x30,x9	 x30:0x81c8adec  x9:0x00000001  x3=0x81c8adeb
       40445000	      4043	80002354	0048ac33	slt	x24,x17,x4	 x17:0x00000001  x4:0x0000d885 x24=0x00000001
       40455000	      4044	80002358	01df1513	slli	x10,x30,0x1d	 x30:0x81c8adec x10=0x80000000
       40465000	      4045	8000235c	a0788db7	lui	x27,0xa0788	 x27=0xa0788000
       40475000	      4046	80002360	00c0c2b3	xor	x5,x1,x12	  x1:0x7fff7aed x12:0x00000000  x5=0x7fff7aed
       40485000	      4047	80002364	01a11033	sll	x0,x2,x26	  x2:0x00000000 x26:0x80009fc4
       40495000	      4048	80002368	03411863	bne	x2,x20,80002398	  x2:0x00000000 x20:0xbc5241e0
       40505000	      4049	00000000	00000013	addi	x0,x0,0	  x0:0x00000000
       40515000	      4050	80002394	00000013	addi	x0,x0,0	  x0:0x00000000
       40525000	      4051	80002398	0237d863	bge	x15,x3,800023c8	 x15:0x80009f3c  x3:0x81c8adeb
       40535000	      4052	8000239c	00daafb3	slt	x31,x21,x13	 x21:0xfffff814 x13:0xffffff3c x31=0x00000001
       40545000	      4053	800023a0	01a643b3	xor	x7,x12,x26	 x12:0x00000000 x26:0x80009fc4  x7=0x80009fc4
       40555000	      4054	800023a4	03e95663	bge	x18,x30,800023d0	 x18:0x00000000 x30:0x81c8adec
       40565000	      4055	00000000	00000013	addi	x0,x0,0	  x0:0x00000000
       40575000	      4056	800023cc	00000013	addi	x0,x0,0	  x0:0x00000000
       40585000	      4057	800023d0	01190b33	add	x22,x18,x17	 x18:0x00000000 x17:0x00000001 x22=0x00000001
       40595000	      4058	800023d4	5d20c113	xori	x2,x1,1490	  x1:0x7fff7aed  x2=0x7fff7f3f
       40605000	      4059	800023d8	00e59b33	sll	x22,x11,x14	 x11:0x00000460 x14:0x8002fff4 x22=0x46000000
       40615000	      4060	800023dc	0130bfb3	sltu	x31,x1,x19	  x1:0x7fff7aed x19:0x00027cf0 x31=0x00000000
       40625000	      4061	800023e0	0078dc33	srl	x24,x17,x7	 x17:0x00000001  x7:0x80009fc4 x24=0x00000000
       40635000	      4062	800023e4	01fd5db3	srl	x27,x26,x31	 x26:0x80009fc4 x31:0x00000000 x27=0x80009fc4
       40645000	      4063	800023e8	00fbda63	bge	x23,x15,800023fc	 x23:0x00000001 x15:0x80009f3c
       40655000	      4064	00000000	00000013	addi	x0,x0,0	  x0:0x00000000
       40665000	      4065	800023f8	00000013	addi	x0,x0,0	  x0:0x00000000
       40675000	      4066	800023fc	41985b93	srai	x23,x16,0x19	 x16:0x00000001 x23=0x00000000
       40685000	      4067	80002400	003f69b3	or	x19,x30,x3	 x30:0x81c8adec  x3:0x81c8adeb x19=0x81c8adef
       40695000	      4068	80002404	6c836893	ori	x17,x6,1736	  x6:0x00000000 x17=0x000006c8
       40705000	      4069	80002408	1aa8eb93	ori	x23,x17,426	 x17:0x000006c8 x23=0x000007ea
       40715000	      4070	8000240c	022ac063	blt	x21,x2,8000242c	 x21:0xfffff814  x2:0x7fff7f3f
       40725000	      4071	00000000	00000013	addi	x0,x0,0	  x0:0x00000000
       40735000	      4072	80002428	00000013	addi	x0,x0,0	  x0:0x00000000
       40745000	      4073	8000242c	04872b93	slti	x23,x14,72	 x14:0x8002fff4 x23=0x00000001
       40755000	      4074	80002430	b367f513	andi	x10,x15,-1226	 x15:0x80009f3c x10=0x80009b34
       40765000	      4075	80002434	0004d813	srli	x16,x9,0x0	  x9:0x00000001 x16=0x00000001
       40775000	      4076	80002438	f6c8c193	xori	x3,x17,-148	 x17:0x000006c8  x3=0xfffff9a4
       40785000	      4077	8000243c	6a427693	andi	x13,x4,1700	  x4:0x0000d885 x13=0x00000084
       40795000	      4078	80002440	0373f063	bgeu	x7,x23,80002460	  x7:0x80009fc4 x23:0x00000001
       40805000	      4079	00000000	00000013	addi	x0,x0,0	  x0:0x00000000
       40815000	      4080	8000245c	00000013	addi	x0,x0,0	  x0:0x00000000
       40825000	      4081	80002460	011e5513	srli	x10,x28,0x11	 x28:0x0000d885 x10=0x00000000
       40835000	      4082	80002464	00bb33b3	sltu	x7,x22,x11	 x22:0x46000000 x11:0x00000460  x7=0x00000000
       40845000	      4083	80002468	02c40263	beq	x8,x12,8000248c	  x8:0x18a29294 x12:0x00000000
       40855000	      4084	8000246c	fd228393	addi	x7,x5,-46	  x5:0x7fff7aed  x7=0x7fff7abf
       40865000	      4085	80002470	01f55093	srli	x1,x10,0x1f	 x10:0x00000000  x1=0x00000000
       40875000	      4086	80002474	269b9537	lui	x10,0x269b9	 x10=0x269b9000
       40885000	      4087	80002478	c193a2b7	lui	x5,0xc193a	  x5=0xc193a000
       40895000	      4088	8000247c	40df0fb3	sub	x31,x30,x13	 x30:0x81c8adec x13:0x00000084 x31=0x81c8ad68
       40905000	      4089	80002480	9811cb93	xori	x23,x3,-1663	  x3:0xfffff9a4 x23=0x00000025
       40915000	      4090	80002484	884ae593	ori	x11,x21,-1916	 x21:0xfffff814 x11=0xfffff894
       40925000	      4091	80002488	15707197	auipc	x3,0x15707	  x3=0x95709484
       40935000	      4092	8000248c	a2baf993	andi	x19,x21,-1493	 x21:0xfffff814 x19=0xfffff800
       40945000	      4093	80002490	93e67113	andi	x2,x12,-1730	 x12:0x00000000  x2=0x00000000
       40955000	      4094	80002494	0cab1c63	bne	x22,x10,8000256c	 x22:0x46000000 x10:0x269b9000
       40965000	      4095	00000000	00000013	addi	x0,x0,0	  x0:0x00000000
       40975000	      4096	80002568	00000013	addi	x0,x0,0	  x0:0x00000000
       40985000	      4097	8000256c	04fdf263	bgeu	x27,x15,800025b0	 x27:0x80009fc4 x15:0x80009f3c
       40995000	      4098	00000000	00000013	addi	x0,x0,0	  x0:0x00000000
       41005000	      4099	800025ac	00000013	addi	x0,x0,0	  x0:0x00000000
       41015000	      4100	800025b0	7ca23113	sltiu	x2,x4,1994	  x4:0x0000d885  x2=0x00000000
       41025000	      4101	800025b4	40c4d013	srai	x0,x9,0xc	  x9:0x00000001
       41035000	      4102	800025b8	0d342d97	auipc	x27,0xd342	 x27=0x8d3445b4
       41045000	      4103	800025bc	003ac663	blt	x21,x3,800025c8	 x21:0xfffff814  x3:0x95709484
       41055000	      4104	800025c0	40a258b3	sra	x17,x4,x10	  x4:0x0000d885 x10:0x269b9000 x17=0x0000d885
       41065000	      4105	800025c4	acbc2093	slti	x1,x24,-1333	 x24:0x00000000  x1=0x00000000
       41075000	      4106	800025c8	00f3dfb3	srl	x31,x7,x15	  x7:0x7fff7abf x15:0x80009f3c x31=0x00000007
       41085000	      4107	800025cc	01d065b3	or	x11,x0,x29	  x0:0x00000000 x29:0x0000d885 x11=0x0000d885
       41095000	      4108	800025d0	d2b86cb7	lui	x25,0xd2b86	 x25=0xd2b86000
       41105000	      4109	800025d4	24dd3593	sltiu	x11,x26,589	 x26:0x80009fc4 x11=0x00000000
       41115000	      4110	800025d8	5a6a0a93	addi	x21,x20,1446	 x20:0xbc5241e0 x21=0xbc524786
       41125000	      4111	800025dc	748fb813	sltiu	x16,x31,1864	 x31:0x00000007 x16=0x00000001
       41135000	      4112	800025e0	01a718b3	sll	x17,x14,x26	 x14:0x8002fff4 x26:0x80009fc4 x17=0x002fff40
       41145000	      4113	800025e4	01581913	slli	x18,x16,0x15	 x16:0x00000001 x18=0x00200000
       41155000	      4114	800025e8	02015c63	bge	x2,x0,80002620	  x2:0x00000000  x0:0x00000000
       41165000	      4115	00000000	00000013	addi	x0,x0,0	  x0:0x00000000
       41175000	      4116	8000261c	00000013	addi	x0,x0,0	  x0:0x00000000
       41185000	      4117	80002620	00fc6c63	bltu	x24,x15,80002638	 x24:0x00000000 x15:0x80009f3c
       41195000	      4118	00000000	00000013	addi	x0,x0,0	  x0:0x00000000
       41205000	      4119	80002634	00000013	addi	x0,x0,0	  x0:0x00000000
       41215000	      4120	80002638	003c60b3	or	x1,x24,x3	 x24:0x00000000  x3:0x95709484  x1=0x95709484
       41225000	      4121	8000263c	00000013	addi	x0,x0,0	  x0:0x00000000
       41235000	      4122	80002640	003cd933	srl	x18,x25,x3	 x25:0xd2b86000  x3:0x95709484 x18=0x0d2b8600
       41245000	      4123	80002644	0047a083	lw	x1,4(x15)	 x15:0x80009f3c  x1=0x80006874 PA:0x80009f40
       41255000	      4124	80002648	1f5ccf13	xori	x30,x25,501	 x25:0xd2b86000 x30=0xd2b861f5
       41265000	      4125	8000264c	02878793	addi	x15,x15,40	 x15:0x80009f3c x15=0x80009f64
       41275000	      4126	80002650	01a84fb3	xor	x31,x16,x26	 x16:0x00000001 x26:0x80009fc4 x31=0x80009fc5
       41285000	      4127	80002654	00108093	addi	x1,x1,1	  x1:0x80006874  x1=0x80006875
       41295000	      4128	80002658	000080e7	jalr	x1,x1,0	  x1:0x80006875  x1=0x80002658
       41305000	      4129	00000000	00000013	addi	x0,x0,0	  x0:0x00000000
       41315000	      4130	80006874	00000013	addi	x0,x0,0	  x0:0x00000000
       41325000	      4131	80006878	40bfd213	srai	x4,x31,0xb	 x31:0x80009fc5  x4=0xfff00013
       41335000	      4132	8000687c	4082d393	srai	x7,x5,0x8	  x5:0xc193a000  x7=0xffc193a0
       41345000	      4133	80006880	01b3ebb3	or	x23,x7,x27	  x7:0xffc193a0 x27:0x8d3445b4 x23=0xfff5d7b4
       41355000	      4134	80006884	29bf8893	addi	x17,x31,667	 x31:0x80009fc5 x17=0x8000a260
       41365000	      4135	80006888	a1c08b93	addi	x23,x1,-1508	  x1:0x80002658 x23=0x80002074
       41375000	      4136	8000688c	06488e93	addi	x29,x17,100	 x17:0x8000a260 x29=0x8000a2c4
       41385000	      4137	80006890	a24fb0ef	jal	x1,80006890	  x1=0x80006890
       41395000	      4138	00000000	00000013	addi	x0,x0,0	  x0:0x00000000
       41405000	      4139	80001ab0	00000013	addi	x0,x0,0	  x0:0x00000000
       41415000	      4140	80001ab4	42172413	slti	x8,x14,1057	 x14:0x8002fff4  x8=0x00000001
       41425000	      4141	80001ab8	40495693	srai	x13,x18,0x4	 x18:0x0d2b8600 x13=0x00d2b860
       41435000	      4142	80001abc	40b30e33	sub	x28,x6,x11	  x6:0x00000000 x11:0x00000000 x28=0x00000000
       41445000	      4143	80001ac0	fd878793	addi	x15,x15,-40	 x15:0x80009f64 x15=0x80009f3c
       41455000	      4144	80001ac4	0017a223	sw	x1,4(x15)	 x15:0x80009f3c  x1:0x80006890 PA:0x80009f40
       41465000	      4145	80001ac8	018a24b3	slt	x9,x20,x24	 x20:0xbc5241e0 x24:0x00000000  x9=0x00000001
       41475000	      4146	80001acc	ac3f2513	slti	x10,x30,-1341	 x30:0xd2b861f5 x10=0x00000001
       41485000	      4147	80001ad0	9a6b0993	addi	x19,x22,-1626	 x22:0x46000000 x19=0x45fff9a6
       41495000	      4148	80001ad4	416582b3	sub	x5,x11,x22	 x11:0x00000000 x22:0x46000000  x5=0xba000000
       41505000	      4149	80001ad8	2e72fe93	andi	x29,x5,743	  x5:0xba000000 x29=0x00000000
       41515000	      4150	80001adc	4e0bc213	xori	x4,x23,1248	 x23:0x80002074  x4=0x80002494
       41525000	      4151	80001ae0	412301b3	sub	x3,x6,x18	  x6:0x00000000 x18:0x0d2b8600  x3=0xf2d47a00
       41535000	      4152	80001ae4	4933b813	sltiu	x16,x7,1171	  x7:0xffc193a0 x16=0x00000000
       41545000	      4153	80001ae8	009bbc33	sltu	x24,x23,x9	 x23:0x80002074  x9:0x00000001 x24=0x00000000
       41555000	      4154	80001aec	01185b93	srli	x23,x16,0x11	 x16:0x00000000 x23=0x00000000
       41565000	      4155	80001af0	605040ef	jal	x1,80001af0	  x1=0x80001af0
       41575000	      4156	00000000	00000013	addi	x0,x0,0	  x0:0x00000000
       41585000	      4157	800068f0	00000013	addi	x0,x0,0	  x0:0x00000000
       41595000	      4158	800068f4	400e86b3	sub	x13,x29,x0	 x29:0x00000000  x0:0x00000000 x13=0x00000000
       41605000	      4159	800068f8	fc478793	addi	x15,x15,-60	 x15:0x80009f3c x15=0x80009f00
       41615000	      4160	800068fc	525e4493	xori	x9,x28,1317	 x28:0x00000000  x9=0x00000525
       41625000	      4161	80006900	bae24037	lui	x0,0xbae24	
       41635000	      4162	80006904	0017a223	sw	x1,4(x15)	 x15:0x80009f00  x1:0x80001af0 PA:0x80009f04
       41645000	      4163	80006908	007b1813	slli	x16,x22,0x7	 x22:0x46000000 x16=0x00000000
       41655000	      4164	8000690c	008cb933	sltu	x18,x25,x8	 x25:0xd2b86000  x8:0x00000001 x18=0x00000000
       41665000	      4165	80006910	010f91b3	sll	x3,x31,x16	 x31:0x80009fc5 x16:0x00000000  x3=0x80009fc5
       41675000	      4166	80006914	8eeab193	sltiu	x3,x21,-1810	 x21:0xbc524786  x3=0x00000001
       41685000	      4167	80006918	ffffc297	auipc	x5,0xffffc	  x5=0x80002914
       41695000	      4168	8000691c	d4428293	addi	x5,x5,-700	  x5:0x80002914  x5=0x80002658
       41705000	      4169	80006920	ce228293	addi	x5,x5,-798	  x5:0x80002658  x5=0x8000233a
       41715000	      4170	80006924	00cc4833	xor	x16,x24,x12	 x24:0x00000000 x12:0x00000000 x16=0x00000000
       41725000	      4171	80006928	375d6f13	ori	x30,x26,885	 x26:0x80009fc4 x30=0x80009ff5
       41735000	      4172	8000692c	03e88893	addi	x17,x17,62	 x17:0x8000a260 x17=0x8000a29e
       41745000	      4173	80006930	3d854113	xori	x2,x10,984	 x10:0x00000001  x2=0x000003d9
       41755000	      4174	80006934	008133b3	sltu	x7,x2,x8	  x2:0x000003d9  x8:0x00000001  x7=0x00000000
       41765000	      4175	80006938	b0cac893	xori	x17,x21,-1268	 x21:0xbc524786 x17=0x43adbc8a
       41775000	      4176	8000693c	31f280e7	jalr	x1,x5,799	  x5:0x8000233a  x1=0x8000693c
       41785000	      4177	00000000	00000013	addi	x0,x0,0	  x0:0x00000000
       41795000	      4178	80002658	00000013	addi	x0,x0,0	  x0:0x00000000
       41805000	      4179	8000265c	fc878793	addi	x15,x15,-56	 x15:0x80009f00 x15=0x80009ec8
       41815000	      4180	80002660	41595f13	srai	x30,x18,0x15	 x18:0x00000000 x30=0x00000000
       41825000	      4181	80002664	01e42db3	slt	x27,x8,x30	  x8:0x00000001 x30:0x00000000 x27=0x00000000
       41835000	      4182	80002668	002e4fb3	xor	x31,x28,x2	 x28:0x00000000  x2:0x000003d9 x31=0x000003d9
       41845000	      4183	8000266c	0017a223	sw	x1,4(x15)	 x15:0x80009ec8  x1:0x8000693c PA:0x80009ecc
       41855000	      4184	80002670	0f2a9197	auipc	x3,0xf2a9	  x3=0x8f2ab66c
       41865000	      4185	80002674	00e6c533	xor	x10,x13,x14	 x13:0x00000000 x14:0x8002fff4 x10=0x8002fff4
       41875000	      4186	80002678	015f79b3	and	x19,x30,x21	 x30:0x00000000 x21:0xbc524786 x19=0x00000000
       41885000	      4187	8000267c	9ce0f113	andi	x2,x1,-1586	  x1:0x8000693c  x2=0x8000690c
       41895000	      4188	80002680	d6737413	andi	x8,x6,-665	  x6:0x00000000  x8=0x00000000
       41905000	      4189	80002684	01a48ab3	add	x21,x9,x26	  x9:0x00000525 x26:0x80009fc4 x21=0x8000a4e9
       41915000	      4190	80002688	01385833	srl	x16,x16,x19	 x16:0x00000000 x19:0x00000000 x16=0x00000000
       41925000	      4191	8000268c	00002b97	auipc	x23,0x2	 x23=0x80004688
       41935000	      4192	80002690	dd0b8b93	addi	x23,x23,-560	 x23:0x80004688 x23=0x80004458
       41945000	      4193	80002694	0793a313	slti	x6,x7,121	  x7:0x00000000  x6=0x00000001
       41955000	      4194	80002698	d50b8b93	addi	x23,x23,-688	 x23:0x80004458 x23=0x800041a8
       41965000	      4195	8000269c	fc9ebc13	sltiu	x24,x29,-55	 x29:0x00000000 x24=0x00000001
       41975000	      4196	800026a0	0114e9b3	or	x19,x9,x17	  x9:0x00000525 x17:0x43adbc8a x19=0x43adbdaf
       41985000	      4197	800026a4	00c17a33	and	x20,x2,x12	  x2:0x8000690c x12:0x00000000 x20=0x00000000
       41995000	      4198	800026a8	2b0b80e7	jalr	x1,x23,688	 x23:0x800041a8  x1=0x800026a8
       42005000	      4199	00000000	00000013	addi	x0,x0,0	  x0:0x00000000
       42015000	      4200	80004458	00000013	addi	x0,x0,0	  x0:0x00000000
       42025000	      4201	8000445c	0031f263	bgeu	x3,x3,80004460	  x3:0x8f2ab66c  x3:0x8f2ab66c
       42035000	      4202	00000000	00000013	addi	x0,x0,0	  x0:0x00000000
       42045000	      4203	8000445c	00000013	addi	x0,x0,0	  x0:0x00000000
       42055000	      4204	80004460	fec78793	addi	x15,x15,-20	 x15:0x80009ec8 x15=0x80009eb4
       42065000	      4205	80004464	0017a223	sw	x1,4(x15)	 x15:0x80009eb4  x1:0x800026a8 PA:0x80009eb8
       42075000	      4206	80004468	40825eb3	sra	x29,x4,x8	  x4:0x80002494  x8:0x00000000 x29=0x80002494
       42085000	      4207	8000446c	014c8cb3	add	x25,x25,x20	 x25:0xd2b86000 x20:0x00000000 x25=0xd2b86000
       42095000	      4208	80004470	c9ca4593	xori	x11,x20,-868	 x20:0x00000000 x11=0xfffffc9c
       42105000	      4209	80004474	0053d913	srli	x18,x7,0x5	  x7:0x00000000 x18=0x00000000
       42115000	      4210	80004478	014d5b33	srl	x22,x26,x20	 x26:0x80009fc4 x20:0x00000000 x22=0x80009fc4
       42125000	      4211	8000447c	4178d333	sra	x6,x17,x23	 x17:0x43adbc8a x23:0x800041a8  x6=0x0043adbc
       42135000	      4212	80004480	00005597	auipc	x11,0x5	 x11=0x8000947c
       42145000	      4213	80004484	95158593	addi	x11,x11,-1711	 x11:0x8000947c x11=0x80008dcd
       42155000	      4214	80004488	ff35d083	lhu	x1,-13(x11)	 x11:0x80008dcd  x1=0x00009800 PA:0x80008dc0
       42165000	      4215	8000448c	0175a5a3	sw	x23,11(x11)	 x11:0x80008dcd x23:0x800041a8 PA:0x80008dd8
       42175000	      4216	80004490	c292cf13	xori	x30,x5,-983	  x5:0x8000233a x30=0x7fffdf13
       42185000	      4217	80004494	50a16913	ori	x18,x2,1290	  x2:0x8000690c x18=0x80006d0e
       42195000	      4218	80004498	ff858283	lb	x5,-8(x11)	 x11:0x80008dcd  x5=0x00000004 PA:0x80008dc5
       42205000	      4219	8000449c	019e39b3	sltu	x19,x28,x25	 x28:0x00000000 x25:0xd2b86000 x19=0x00000001
       42215000	      4220	800044a0	00258d83	lb	x27,2(x11)	 x11:0x80008dcd x27=0xfffffffb PA:0x80008dcf
       42225000	      4221	800044a4	ff15d803	lhu	x16,-15(x11)	 x11:0x80008dcd x16=0x0000fdc6 PA:0x80008dbe
       42235000	      4222	800044a8	926e0113	addi	x2,x28,-1754	 x28:0x00000000  x2=0xfffff926
       42245000	      4223	800044ac	97f62f97	auipc	x31,0x97f62	 x31=0x17f664a8
       42255000	      4224	800044b0	00381c93	slli	x25,x16,0x3	 x16:0x0000fdc6 x25=0x0007ee30
       42265000	      4225	800044b4	005d56b3	srl	x13,x26,x5	 x26:0x80009fc4  x5:0x00000004 x13=0x080009fc
       42275000	      4226	800044b8	00428933	add	x18,x5,x4	  x5:0x00000004  x4:0x80002494 x18=0x80002498
       42285000	      4227	800044bc	00d59f83	lh	x31,13(x11)	 x11:0x80008dcd x31=0xffff8000 PA:0x80008dda
       42295000	      4228	800044c0	00f58223	sb	x15,4(x11)	 x11:0x80008dcd x15:0x80009eb4 PA:0x80008dd1
       42305000	      4229	800044c4	00000013	addi	x0,x0,0	  x0:0x00000000
       42315000	      4230	800044c8	0085c503	lbu	x10,8(x11)	 x11:0x80008dcd x10=0x000000c5 PA:0x80008dd5
       42325000	      4231	800044cc	41a9d6b3	sra	x13,x19,x26	 x19:0x00000001 x26:0x80009fc4 x13=0x00000000
       42335000	      4232	800044d0	ff358f23	sb	x19,-2(x11)	 x11:0x80008dcd x19:0x00000001 PA:0x80008dcb
       42345000	      4233	800044d4	000bcfb3	xor	x31,x23,x0	 x23:0x800041a8  x0:0x00000000 x31=0x800041a8
       42355000	      4234	800044d8	0105c703	lbu	x14,16(x11)	 x11:0x80008dcd x14=0x00000074 PA:0x80008ddd
       42365000	      4235	800044dc	00d46533	or	x10,x8,x13	  x8:0x00000000 x13:0x00000000 x10=0x00000000
       42375000	      4236	800044e0	1623b713	sltiu	x14,x7,354	  x7:0x00000000 x14=0x00000001
       42385000	      4237	800044e4	0020c933	xor	x18,x1,x2	  x1:0x00009800  x2:0xfffff926 x18=0xffff6126
       42395000	      4238	800044e8	787a0497	auipc	x9,0x787a0	  x9=0xf87a44e4
       42405000	      4239	800044ec	41675c93	srai	x25,x14,0x16	 x14:0x00000001 x25=0x00000000
       42415000	      4240	800044f0	ffc58403	lb	x8,-4(x11)	 x11:0x80008dcd  x8=0x00000000 PA:0x80008dc9
       42425000	      4241	800044f4	00558683	lb	x13,5(x11)	 x11:0x80008dcd x13=0x00000001 PA:0x80008dd2
       42435000	      4242	800044f8	409c4e13	xori	x28,x24,1033	 x24:0x00000001 x28=0x00000408
       42445000	      4243	800044fc	00000013	addi	x0,x0,0	  x0:0x00000000
       42455000	      4244	80004500	40825293	srai	x5,x4,0x8	  x4:0x80002494  x5=0xff800024
       42465000	      4245	80004504	ffb5ce03	lbu	x28,-5(x11)	 x11:0x80008dcd x28=0x00000034 PA:0x80008dc8
       42475000	      4246	80004508	00b5de83	lhu	x29,11(x11)	 x11:0x80008dcd x29=0x000041a8 PA:0x80008dd8
       42485000	      4247	8000450c	01449233	sll	x4,x9,x20	  x9:0xf87a44e4 x20:0x00000000  x4=0xf87a44e4
       42495000	      4248	80004510	00b5d003	lhu	x0,11(x11)	 x11:0x80008dcd PA:0x80008dd8
       42505000	      4249	80004514	ff958c83	lb	x25,-7(x11)	 x11:0x80008dcd x25=0xfffffffe PA:0x80008dc6
       42515000	      4250	80004518	38b28513	addi	x10,x5,907	  x5:0xff800024 x10=0xff8003af
       42525000	      4251	8000451c	00c5c683	lbu	x13,12(x11)	 x11:0x80008dcd x13=0x00000041 PA:0x80008dd9
       42535000	      4252	80004520	92742d93	slti	x27,x8,-1753	  x8:0x00000000 x27=0x00000000
       42545000	      4253	80004524	40545a13	srai	x20,x8,0x5	  x8:0x00000000 x20=0x00000000
       42555000	      4254	80004528	11a36e93	ori	x29,x6,282	  x6:0x0043adbc x29=0x0043adbe
       42565000	      4255	8000452c	fe258a23	sb	x2,-12(x11)	 x11:0x80008dcd  x2:0xfffff926 PA:0x80008dc1
       42575000	      4256	80004530	019586a3	sb	x25,13(x11)	 x11:0x80008dcd x25:0xfffffffe PA:0x80008dda
       42585000	      4257	80004534	0073f0b3	and	x1,x7,x7	  x7:0x00000000  x7:0x00000000  x1=0x00000000
       42595000	      4258	80004538	76808c13	addi	x24,x1,1896	  x1:0x00000000 x24=0x00000768
       42605000	      4259	8000453c	01429513	slli	x10,x5,0x14	  x5:0xff800024 x10=0x02400000
       42615000	      4260	80004540	a2150193	addi	x3,x10,-1503	 x10:0x02400000  x3=0x023ffa21
       42625000	      4261	80004544	ff95d903	lhu	x18,-7(x11)	 x11:0x80008dcd x18=0x00003dfe PA:0x80008dc6
       42635000	      4262	80004548	b6cfe237	lui	x4,0xb6cfe	  x4=0xb6cfe000
       42645000	      4263	8000454c	415a0cb3	sub	x25,x20,x21	 x20:0x00000000 x21:0x8000a4e9 x25=0x7fff5b17
       42655000	      4264	80004550	ff15d883	lhu	x17,-15(x11)	 x11:0x80008dcd x17=0x0000fdc6 PA:0x80008dbe
       42665000	      4265	80004554	00004117	auipc	x2,0x4	  x2=0x80008550
       42675000	      4266	80004558	3b410113	addi	x2,x2,948	  x2:0x80008550  x2=0x80008904
       42685000	      4267	8000455c	012e5e93	srli	x29,x28,0x12	 x28:0x00000034 x29=0x00000000
       42695000	      4268	80004560	01a06e33	or	x28,x0,x26	  x0:0x00000000 x26:0x80009fc4 x28=0x80009fc4
       42705000	      4269	80004564	d1196193	ori	x3,x18,-751	 x18:0x00003dfe  x3=0xfffffdff
       42715000	      4270	80004568	00aab9b3	sltu	x19,x21,x10	 x21:0x8000a4e9 x10:0x02400000 x19=0x00000000
       42725000	      4271	8000456c	fdb14283	lbu	x5,-37(x2)	  x2:0x80008904  x5=0x000000ad PA:0x800088df
       42735000	      4272	80004570	01015483	lhu	x9,16(x2)	  x2:0x80008904  x9=0x00004c00 PA:0x80008914
       42745000	      4273	80004574	005271b3	and	x3,x4,x5	  x4:0xb6cfe000  x5:0x000000ad  x3=0x00000000
       42755000	      4274	80004578	01010423	sb	x16,8(x2)	  x2:0x80008904 x16:0x0000fdc6 PA:0x8000890c
       42765000	      4275	8000457c	01211003	lh	x0,18(x2)	  x2:0x80008904 PA:0x80008916
       42775000	      4276	80004580	19d36337	lui	x6,0x19d36	  x6=0x19d36000
       42785000	      4277	80004584	2f656713	ori	x14,x10,758	 x10:0x02400000 x14=0x024002f6
       42795000	      4278	80004588	0147dd93	srli	x27,x15,0x14	 x15:0x80009eb4 x27=0x00000800
       42805000	      4279	8000458c	ff310aa3	sb	x19,-11(x2)	  x2:0x80008904 x19:0x00000000 PA:0x800088f9
       42815000	      4280	80004590	01a66333	or	x6,x12,x26	 x12:0x00000000 x26:0x80009fc4  x6=0x80009fc4
       42825000	      4281	80004594	fb0ce197	auipc	x3,0xfb0ce	  x3=0x7b0d2590
       42835000	      4282	80004598	6dd18c13	addi	x24,x3,1757	  x3:0x7b0d2590 x24=0x7b0d2c6d
       42845000	      4283	8000459c	ff211523	sh	x18,-22(x2)	  x2:0x80008904 x18:0x00003dfe PA:0x800088ee
       42855000	      4284	800045a0	01f2d233	srl	x4,x5,x31	  x5:0x000000ad x31:0x800041a8  x4=0x00000000
       42865000	      4285	800045a4	12333197	auipc	x3,0x12333	  x3=0x923375a0
       42875000	      4286	800045a8	01e41733	sll	x14,x8,x30	  x8:0x00000000 x30:0x7fffdf13 x14=0x00000000
       42885000	      4287	800045ac	010929b3	slt	x19,x18,x16	 x18:0x00003dfe x16:0x0000fdc6 x19=0x00000001
       42895000	      4288	800045b0	fd310983	lb	x19,-45(x2)	  x2:0x80008904 x19=0x0000005c PA:0x800088d7
       42905000	      4289	800045b4	41f7dcb3	sra	x25,x15,x31	 x15:0x80009eb4 x31:0x800041a8 x25=0xff80009e
       42915000	      4290	800045b8	00d14983	lbu	x19,13(x2)	  x2:0x80008904 x19=0x00000002 PA:0x80008911
       42925000	      4291	800045bc	ec74f413	andi	x8,x9,-313	  x9:0x00004c00  x8=0x00004c00
       42935000	      4292	800045c0	32b9ec37	lui	x24,0x32b9e	 x24=0x32b9e000
       42945000	      4293	800045c4	01eb8233	add	x4,x23,x30	 x23:0x800041a8 x30:0x7fffdf13  x4=0x000020bb
       42955000	      4294	800045c8	1a639497	auipc	x9,0x1a639	  x9=0x9a63d5c4
       42965000	      4295	800045cc	01702833	slt	x16,x0,x23	  x0:0x00000000 x23:0x800041a8 x16=0x00000000
       42975000	      4296	800045d0	01371f33	sll	x30,x14,x19	 x14:0x00000000 x19:0x00000002 x30=0x00000000
       42985000	      4297	800045d4	0067feb3	and	x29,x15,x6	 x15:0x80009eb4  x6:0x80009fc4 x29=0x80009e84
       42995000	      4298	800045d8	01bbad93	slti	x27,x23,27	 x23:0x800041a8 x27=0x00000001
       43005000	      4299	800045dc	039101a3	sb	x25,35(x2)	  x2:0x80008904 x25:0xff80009e PA:0x80008927
       43015000	      4300	800045e0	fee11303	lh	x6,-18(x2)	  x2:0x80008904  x6=0xffffa3c2 PA:0x800088f2
       43025000	      4301	800045e4	fd514d83	lbu	x27,-43(x2)	  x2:0x80008904 x27=0x000000d6 PA:0x800088d9
       43035000	      4302	800045e8	b76c6c93	ori	x25,x24,-1162	 x24:0x32b9e000 x25=0xfffffb76
       43045000	      4303	800045ec	141922b7	lui	x5,0x14192	  x5=0x14192000
       43055000	      4304	800045f0	e102a713	slti	x14,x5,-496	  x5:0x14192000 x14=0x00000000
       43065000	      4305	800045f4	01610ca3	sb	x22,25(x2)	  x2:0x80008904 x22:0x80009fc4 PA:0x8000891d
       43075000	      4306	800045f8	00443fb3	sltu	x31,x8,x4	  x8:0x00004c00  x4:0x000020bb x31=0x00000000
       43085000	      4307	800045fc	ff210d83	lb	x27,-14(x2)	  x2:0x80008904 x27=0xffffffa3 PA:0x800088f6
       43095000	      4308	80004600	00004117	auipc	x2,0x4	  x2=0x800085fc
       43105000	      4309	80004604	34610113	addi	x2,x2,838	  x2:0x800085fc  x2=0x80008942
       43115000	      4310	80004608	01310e83	lb	x29,19(x2)	  x2:0x80008942 x29=0xffffffd6 PA:0x80008955
       43125000	      4311	8000460c	79c98193	addi	x3,x19,1948	 x19:0x00000002  x3=0x0000079e
       43135000	      4312	80004610	02611d23	sh	x6,58(x2)	  x2:0x80008942  x6:0xffffa3c2 PA:0x8000897c
       43145000	      4313	80004614	017102a3	sb	x23,5(x2)	  x2:0x80008942 x23:0x800041a8 PA:0x80008947
       43155000	      4314	80004618	01d12523	sw	x29,10(x2)	  x2:0x80008942 x29:0xffffffd6 PA:0x8000894c
       43165000	      4315	8000461c	fef11723	sh	x15,-18(x2)	  x2:0x80008942 x15:0x80009eb4 PA:0x80008930
       43175000	      4316	80004620	02010b83	lb	x23,32(x2)	  x2:0x80008942 x23=0x0000000e PA:0x80008962
       43185000	      4317	80004624	fc7103a3	sb	x7,-57(x2)	  x2:0x80008942  x7:0x00000000 PA:0x80008909
       43195000	      4318	80004628	02411003	lh	x0,36(x2)	  x2:0x80008942 PA:0x80008966
       43205000	      4319	8000462c	01a59f33	sll	x30,x11,x26	 x11:0x80008dcd x26:0x80009fc4 x30=0x0008dcd0
       43215000	      4320	80004630	bbaefc13	andi	x24,x29,-1094	 x29:0xffffffd6 x24=0xfffffb92
       43225000	      4321	80004634	fee14683	lbu	x13,-18(x2)	  x2:0x80008942 x13=0x000000b4 PA:0x80008930
       43235000	      4322	80004638	03710d23	sb	x23,58(x2)	  x2:0x80008942 x23:0x0000000e PA:0x8000897c
       43245000	      4323	8000463c	ff811823	sh	x24,-16(x2)	  x2:0x80008942 x24:0xfffffb92 PA:0x80008932
       43255000	      4324	80004640	05067f13	andi	x30,x12,80	 x12:0x00000000 x30=0x00000000
       43265000	      4325	80004644	006c1b93	slli	x23,x24,0x6	 x24:0xfffffb92 x23=0xfffee480
       43275000	      4326	80004648	41ad08b3	sub	x17,x26,x26	 x26:0x80009fc4 x26:0x80009fc4 x17=0x00000000
       43285000	      4327	8000464c	01ef80b3	add	x1,x31,x30	 x31:0x00000000 x30:0x00000000  x1=0x00000000
       43295000	      4328	80004650	00401493	slli	x9,x0,0x4	  x0:0x00000000  x9=0x00000000
       43305000	      4329	80004654	01c15183	lhu	x3,28(x2)	  x2:0x80008942  x3=0x000030eb PA:0x8000895e
       43315000	      4330	80004658	fc514b83	lbu	x23,-59(x2)	  x2:0x80008942 x23=0x00000000 PA:0x80008907
       43325000	      4331	8000465c	685a7993	andi	x19,x20,1669	 x20:0x00000000 x19=0x00000000
       43335000	      4332	80004660	4184d3b3	sra	x7,x9,x24	  x9:0x00000000 x24:0xfffffb92  x7=0x00000000
       43345000	      4333	80004664	019035b3	sltu	x11,x0,x25	  x0:0x00000000 x25:0xfffffb76 x11=0x00000001
       43355000	      4334	80004668	004c9e33	sll	x28,x25,x4	 x25:0xfffffb76  x4:0x000020bb x28=0xb0000000
       43365000	      4335	8000466c	01b10f83	lb	x31,27(x2)	  x2:0x80008942 x31=0xffffff8e PA:0x8000895d
       43375000	      4336	80004670	00593c33	sltu	x24,x18,x5	 x18:0x00003dfe  x5:0x14192000 x24=0x00000001
       43385000	      4337	80004674	019646b3	xor	x13,x12,x25	 x12:0x00000000 x25:0xfffffb76 x13=0xfffffb76
       43395000	      4338	80004678	fdc11503	lh	x10,-36(x2)	  x2:0x80008942 x10=0xffffb6af PA:0x8000891e
       43405000	      4339	8000467c	03610583	lb	x11,54(x2)	  x2:0x80008942 x11=0xffffffe0 PA:0x80008978
       43415000	      4340	00000000	00000013	addi	x0,x0,0	  x0:0x00000000
       43425000	      4341	80004680	00b5b6b3	sltu	x13,x11,x11	 x11:0xffffffe0 x11:0xffffffe0 x13=0x00000000
       43435000	      4342	80004684	fc012123	sw	x0,-62(x2)	  x2:0x80008942  x0:0x00000000 PA:0x80008904
       43445000	      4343	80004688	01b03833	sltu	x16,x0,x27	  x0:0x00000000 x27:0xffffffa3 x16=0x00000001
       43455000	      4344	8000468c	00b10a03	lb	x20,11(x2)	  x2:0x80008942 x20=0xffffffff PA:0x8000894d
       43465000	      4345	80004690	fc710b03	lb	x22,-57(x2)	  x2:0x80008942 x22=0x00000000 PA:0x80008909
       43475000	      4346	80004694	a39f2993	slti	x19,x30,-1479	 x30:0x00000000 x19=0x00000000
       43485000	      4347	80004698	b064a717	auipc	x14,0xb064a	 x14=0x3064e694
       43495000	      4348	8000469c	003103a3	sb	x3,7(x2)	  x2:0x80008942  x3:0x000030eb PA:0x80008949
       43505000	      4349	800046a0	fe714a03	lbu	x20,-25(x2)	  x2:0x80008942 x20=0x000000b5 PA:0x80008929
       43515000	      4350	00000000	00000013	addi	x0,x0,0	  x0:0x00000000
       43525000	      4351	800046a4	cb4b0813	addi	x16,x22,-844	 x22:0x00000000 x16=0xfffffcb4
       43535000	      4352	800046a8	fd310203	lb	x4,-45(x2)	  x2:0x80008942  x4=0x0000004c PA:0x80008915
       43545000	      4353	800046ac	03214083	lbu	x1,50(x2)	  x2:0x80008942  x1=0x00000081 PA:0x80008974
       43555000	      4354	800046b0	fc314303	lbu	x6,-61(x2)	  x2:0x80008942  x6=0x00000000 PA:0x80008905
       43565000	      4355	800046b4	41d20733	sub	x14,x4,x29	  x4:0x0000004c x29:0xffffffd6 x14=0x00000076
       43575000	      4356	800046b8	02214883	lbu	x17,34(x2)	  x2:0x80008942 x17=0x000000a5 PA:0x80008964
       43585000	      4357	800046bc	00004497	auipc	x9,0x4	  x9=0x800086b8
       43595000	      4358	800046c0	be748493	addi	x9,x9,-1049	  x9:0x800086b8  x9=0x8000829f
       43605000	      4359	800046c4	28c4cb83	lbu	x23,652(x9)	  x9:0x8000829f x23=0x00000038 PA:0x8000852b
       43615000	      4360	800046c8	ea74aea3	sw	x7,-323(x9)	  x9:0x8000829f  x7:0x00000000 PA:0x8000815c
       43625000	      4361	800046cc	57e4a2a3	sw	x30,1381(x9)	  x9:0x8000829f x30:0x00000000 PA:0x80008804
       43635000	      4362	800046d0	54749303	lh	x6,1351(x9)	  x9:0x8000829f  x6=0x00003792 PA:0x800087e6
       43645000	      4363	800046d4	00000013	addi	x0,x0,0	  x0:0x00000000
       43655000	      4364	800046d8	4384c103	lbu	x2,1080(x9)	  x9:0x8000829f  x2=0x00000063 PA:0x800086d7
       43665000	      4365	800046dc	0049f433	and	x8,x19,x4	 x19:0x00000000  x4:0x0000004c  x8=0x00000000
       43675000	      4366	800046e0	40cddb33	sra	x22,x27,x12	 x27:0xffffffa3 x12:0x00000000 x22=0xffffffa3
       43685000	      4367	800046e4	5155f993	andi	x19,x11,1301	 x11:0xffffffe0 x19=0x00000500
       43695000	      4368	800046e8	1939c593	xori	x11,x19,403	 x19:0x00000500 x11=0x00000493
       43705000	      4369	800046ec	cba28297	auipc	x5,0xcba28	  x5=0x4ba2c6e8
       43715000	      4370	800046f0	32549da3	sh	x5,827(x9)	  x9:0x8000829f  x5:0x4ba2c6e8 PA:0x800085da
       43725000	      4371	800046f4	41f65e33	sra	x28,x12,x31	 x12:0x00000000 x31:0xffffff8e x28=0x00000000
       43735000	      4372	800046f8	8bcf2413	slti	x8,x30,-1860	 x30:0x00000000  x8=0x00000000
       43745000	      4373	800046fc	e3648803	lb	x16,-458(x9)	  x9:0x8000829f x16=0xffffffdc PA:0x800080d5
       43755000	      4374	00000000	00000013	addi	x0,x0,0	  x0:0x00000000
       43765000	      4375	80004700	1f04c303	lbu	x6,496(x9)	  x9:0x8000829f  x6=0x000000a5 PA:0x8000848f
       43775000	      4376	80004704	40c756b3	sra	x13,x14,x12	 x14:0x00000076 x12:0x00000000 x13=0x00000076
       43785000	      4377	80004708	11148723	sb	x17,270(x9)	  x9:0x8000829f x17:0x000000a5 PA:0x800083ad
       43795000	      4378	8000470c	403206b3	sub	x13,x4,x3	  x4:0x0000004c  x3:0x000030eb x13=0xffffcf61
       43805000	      4379	80004710	32e486a3	sb	x14,813(x9)	  x9:0x8000829f x14:0x00000076 PA:0x800085cc
       43815000	      4380	80004714	13e48103	lb	x2,318(x9)	  x9:0x8000829f  x2=0xffffff97 PA:0x800083dd
       43825000	      4381	80004718	54c499a3	sh	x12,1363(x9)	  x9:0x8000829f x12:0x00000000 PA:0x800087f2
       43835000	      4382	8000471c	012ab833	sltu	x16,x21,x18	 x21:0x8000a4e9 x18:0x00003dfe x16=0x00000000
       43845000	      4383	80004720	415edeb3	sra	x29,x29,x21	 x29:0xffffffd6 x21:0x8000a4e9 x29=0xffffffff
       43855000	      4384	80004724	95e84b13	xori	x22,x16,-1698	 x16:0x00000000 x22=0xfffff95e
       43865000	      4385	80004728	53f49183	lh	x3,1343(x9)	  x9:0x8000829f  x3=0x0000361c PA:0x800087de
       43875000	      4386	8000472c	008ac6b3	xor	x13,x21,x8	 x21:0x8000a4e9  x8:0x00000000 x13=0x8000a4e9
       43885000	      4387	80004730	0824c983	lbu	x19,130(x9)	  x9:0x8000829f x19=0x000000e8 PA:0x80008321
       43895000	      4388	80004734	00c17a33	and	x20,x2,x12	  x2:0xffffff97 x12:0x00000000 x20=0x00000000
       43905000	      4389	80004738	1044ca03	lbu	x20,260(x9)	  x9:0x8000829f x20=0x00000045 PA:0x800083a3
       43915000	      4390	8000473c	4ac4c503	lbu	x10,1196(x9)	  x9:0x8000829f x10=0x000000b4 PA:0x8000874b
       43925000	      4391	80004740	3eb49ea3	sh	x11,1021(x9)	  x9:0x8000829f x11:0x00000493 PA:0x8000869c
       43935000	      4392	80004744	00004597	auipc	x11,0x4	 x11=0x80008740
       43945000	      4393	80004748	97e58593	addi	x11,x11,-1666	 x11:0x80008740 x11=0x800080be
       43955000	      4394	8000474c	0905cc03	lbu	x24,144(x11)	 x11:0x800080be x24=0x000000a7 PA:0x8000814e
       43965000	      4395	80004750	00bdbbb3	sltu	x23,x27,x11	 x27:0xffffffa3 x11:0x800080be x23=0x00000000
       43975000	      4396	80004754	04e59703	lh	x14,78(x11)	 x11:0x800080be x14=0xffffad5f PA:0x8000810c
       43985000	      4397	80004758	01a31db3	sll	x27,x6,x26	  x6:0x000000a5 x26:0x80009fc4 x27=0x00000a50
       43995000	      4398	8000475c	66422513	slti	x10,x4,1636	  x4:0x0000004c x10=0x00000001
       44005000	      4399	80004760	7b80c913	xori	x18,x1,1976	  x1:0x00000081 x18=0x00000739
       44015000	      4400	80004764	013b94b3	sll	x9,x23,x19	 x23:0x00000000 x19:0x000000e8  x9=0x00000000
       44025000	      4401	80004768	00d7ceb3	xor	x29,x15,x13	 x15:0x80009eb4 x13:0x8000a4e9 x29=0x00003a5d
       44035000	      4402	8000476c	0e058ca3	sb	x0,249(x11)	 x11:0x800080be  x0:0x00000000 PA:0x800081b7
       44045000	      4403	80004770	fa55cf03	lbu	x30,-91(x11)	 x11:0x800080be x30=0x000000b9 PA:0x80008063
       44055000	      4404	80004774	06458203	lb	x4,100(x11)	 x11:0x800080be  x4=0xffffffdf PA:0x80008122
       44065000	      4405	80004778	07b5c503	lbu	x10,123(x11)	 x11:0x800080be x10=0x00000024 PA:0x80008139
       44075000	      4406	8000477c	40edda13	srai	x20,x27,0xe	 x27:0x00000a50 x20=0x00000000
       44085000	      4407	80004780	00a6f0b3	and	x1,x13,x10	 x13:0x8000a4e9 x10:0x00000024  x1=0x00000020
       44095000	      4408	80004784	0e65a703	lw	x14,230(x11)	 x11:0x800080be x14=0xa4ca8822 PA:0x800081a4
       44105000	      4409	80004788	00195893	srli	x17,x18,0x1	 x18:0x00000739 x17=0x0000039c
       44115000	      4410	8000478c	01e5c483	lbu	x9,30(x11)	 x11:0x800080be  x9=0x00000068 PA:0x800080dc
       44125000	      4411	80004790	0a212393	slti	x7,x2,162	  x2:0xffffff97  x7=0x00000001
       44135000	      4412	80004794	fd0589a3	sb	x16,-45(x11)	 x11:0x800080be x16:0x00000000 PA:0x80008091
       44145000	      4413	80004798	0121c1b3	xor	x3,x3,x18	  x3:0x0000361c x18:0x00000739  x3=0x00003125
       44155000	      4414	8000479c	0100ec33	or	x24,x1,x16	  x1:0x00000020 x16:0x00000000 x24=0x00000020
       44165000	      4415	800047a0	0128c6b3	xor	x13,x17,x18	 x17:0x0000039c x18:0x00000739 x13=0x000004a5
       44175000	      4416	800047a4	02f58b83	lb	x23,47(x11)	 x11:0x800080be x23=0xffffff81 PA:0x800080ed
       44185000	      4417	800047a8	01138db3	add	x27,x7,x17	  x7:0x00000001 x17:0x0000039c x27=0x0000039d
       44195000	      4418	800047ac	01b8ceb3	xor	x29,x17,x27	 x17:0x0000039c x27:0x0000039d x29=0x00000001
       44205000	      4419	800047b0	6dcdfa13	andi	x20,x27,1756	 x27:0x0000039d x20=0x0000029c
       44215000	      4420	800047b4	00499493	slli	x9,x19,0x4	 x19:0x000000e8  x9=0x00000e80
       44225000	      4421	800047b8	ce398a13	addi	x20,x19,-797	 x19:0x000000e8 x20=0xfffffdcb
       44235000	      4422	800047bc	004ba133	slt	x2,x23,x4	 x23:0xffffff81  x4:0xffffffdf  x2=0x00000001
       44245000	      4423	800047c0	61adef17	auipc	x30,0x61ade	 x30=0xe1ae27bc
       44255000	      4424	800047c4	0fc5ca83	lbu	x21,252(x11)	 x11:0x800080be x21=0x00000066 PA:0x800081ba
       44265000	      4425	800047c8	caa22f13	slti	x30,x4,-854	  x4:0xffffffdf x30=0x00000000
       44275000	      4426	800047cc	02c59a83	lh	x21,44(x11)	 x11:0x800080be x21=0xffffd640 PA:0x800080ea
       44285000	      4427	800047d0	01f6e1b3	or	x3,x13,x31	 x13:0x000004a5 x31:0xffffff8e  x3=0xffffffaf
       44295000	      4428	800047d4	4b324e93	xori	x29,x4,1203	  x4:0xffffffdf x29=0xfffffb6c
       44305000	      4429	800047d8	0c95c083	lbu	x1,201(x11)	 x11:0x800080be  x1=0x000000c2 PA:0x80008187
       44315000	      4430	800047dc	412583b3	sub	x7,x11,x18	 x11:0x800080be x18:0x00000739  x7=0x80007985
       44325000	      4431	800047e0	0315cf83	lbu	x31,49(x11)	 x11:0x800080be x31=0x000000c3 PA:0x800080ef
       44335000	      4432	00000000	00000013	addi	x0,x0,0	  x0:0x00000000
       44345000	      4433	800047e4	41f7dd93	srai	x27,x15,0x1f	 x15:0x80009eb4 x27=0xffffffff
       44355000	      4434	800047e8	0ce58da3	sb	x14,219(x11)	 x11:0x800080be x14:0xa4ca8822 PA:0x80008199
       44365000	      4435	800047ec	1cc07513	andi	x10,x0,460	  x0:0x00000000 x10=0x00000000
       44375000	      4436	800047f0	31da7893	andi	x17,x20,797	 x20:0xfffffdcb x17=0x00000109
       44385000	      4437	800047f4	902ea513	slti	x10,x29,-1790	 x29:0xfffffb6c x10=0x00000000
       44395000	      4438	800047f8	0b858d83	lb	x27,184(x11)	 x11:0x800080be x27=0x00000006 PA:0x80008176
       44405000	      4439	800047fc	0995ad23	sw	x25,154(x11)	 x11:0x800080be x25:0xfffffb76 PA:0x80008158
       44415000	      4440	80004800	00004697	auipc	x13,0x4	 x13=0x800087fc
       44425000	      4441	80004804	06668693	addi	x13,x13,102	 x13:0x800087fc x13=0x80008862
       44435000	      4442	80004808	0106da83	lhu	x21,16(x13)	 x13:0x80008862 x21=0x0000b104 PA:0x80008872
       44445000	      4443	00000000	00000013	addi	x0,x0,0	  x0:0x00000000
       44455000	      4444	8000480c	405ad133	sra	x2,x21,x5	 x21:0x0000b104  x5:0x4ba2c6e8  x2=0x000000b1
       44465000	      4445	80004810	00711533	sll	x10,x2,x7	  x2:0x000000b1  x7:0x80007985 x10=0x00001620
       44475000	      4446	80004814	01916433	or	x8,x2,x25	  x2:0x000000b1 x25:0xfffffb76  x8=0xfffffbf7
       44485000	      4447	80004818	ff268b23	sb	x18,-10(x13)	 x13:0x80008862 x18:0x00000739 PA:0x80008858
       44495000	      4448	8000481c	3c5d01b7	lui	x3,0x3c5d0	  x3=0x3c5d0000
       44505000	      4449	80004820	41f185b3	sub	x11,x3,x31	  x3:0x3c5d0000 x31:0x000000c3 x11=0x3c5cff3d
       44515000	      4450	80004824	01a3a233	slt	x4,x7,x26	  x7:0x80007985 x26:0x80009fc4  x4=0x00000001
       44525000	      4451	80004828	fe8689a3	sb	x8,-13(x13)	 x13:0x80008862  x8:0xfffffbf7 PA:0x80008855
       44535000	      4452	8000482c	ff968ea3	sb	x25,-3(x13)	 x13:0x80008862 x25:0xfffffb76 PA:0x8000885f
       44545000	      4453	80004830	08a14313	xori	x6,x2,138	  x2:0x000000b1  x6=0x0000003b
       44555000	      4454	80004834	00a510b3	sll	x1,x10,x10	 x10:0x00001620 x10:0x00001620  x1=0x00001620
       44565000	      4455	80004838	4112d213	srai	x4,x5,0x11	  x5:0x4ba2c6e8  x4=0x000025d1
       44575000	      4456	8000483c	00768983	lb	x19,7(x13)	 x13:0x80008862 x19=0x00000036 PA:0x80008869
       44585000	      4457	80004840	00b68123	sb	x11,2(x13)	 x13:0x80008862 x11:0x3c5cff3d PA:0x80008864
       44595000	      4458	80004844	bf413e93	sltiu	x29,x2,-1036	  x2:0x000000b1 x29=0x00000001
       44605000	      4459	80004848	416a5db3	sra	x27,x20,x22	 x20:0xfffffdcb x22:0xfffff95e x27=0xffffffff
       44615000	      4460	8000484c	00e6c283	lbu	x5,14(x13)	 x13:0x80008862  x5=0x00000089 PA:0x80008870
       44625000	      4461	80004850	0076cd83	lbu	x27,7(x13)	 x13:0x80008862 x27=0x00000036 PA:0x80008869
       44635000	      4462	80004854	1b182893	slti	x17,x16,433	 x16:0x00000000 x17=0x00000001
       44645000	      4463	80004858	7593b917	auipc	x18,0x7593b	 x18=0xf593f854
       44655000	      4464	8000485c	ffd6cc83	lbu	x25,-3(x13)	 x13:0x80008862 x25=0x00000076 PA:0x8000885f
       44665000	      4465	80004860	9c69a413	slti	x8,x19,-1594	 x19:0x00000036  x8=0x00000000
       44675000	      4466	80004864	20106337	lui	x6,0x20106	  x6=0x20106000
       44685000	      4467	80004868	ff86c183	lbu	x3,-8(x13)	 x13:0x80008862  x3=0x00000003 PA:0x8000885a
       44695000	      4468	8000486c	000f7f33	and	x30,x30,x0	 x30:0x00000000  x0:0x00000000 x30=0x00000000
       44705000	      4469	80004870	0086d283	lhu	x5,8(x13)	 x13:0x80008862  x5=0x0000f061 PA:0x8000886a
       44715000	      4470	80004874	00004117	auipc	x2,0x4	  x2=0x80008870
       44725000	      4471	80004878	31110113	addi	x2,x2,785	  x2:0x80008870  x2=0x80008b81
       44735000	      4472	8000487c	0bb10ba3	sb	x27,183(x2)	  x2:0x80008b81 x27:0x00000036 PA:0x80008c38
       44745000	      4473	80004880	dd0125a3	sw	x16,-565(x2)	  x2:0x80008b81 x16:0x00000000 PA:0x8000894c
       44755000	      4474	80004884	e7d2a417	auipc	x8,0xe7d2a	  x8=0x67d2e880
       44765000	      4475	80004888	000ee0b3	or	x1,x29,x0	 x29:0x00000001  x0:0x00000000  x1=0x00000001
       44775000	      4476	8000488c	fbb12e83	lw	x29,-69(x2)	  x2:0x80008b81 x29=0x42d973d1 PA:0x80008b3c
       44785000	      4477	80004890	0025f9b3	and	x19,x11,x2	 x11:0x3c5cff3d  x2:0x80008b81 x19=0x00008b01
       44795000	      4478	80004894	01589733	sll	x14,x17,x21	 x17:0x00000001 x21:0x0000b104 x14=0x00000010
       44805000	      4479	80004898	4007dd93	srai	x27,x15,0x0	 x15:0x80009eb4 x27=0x80009eb4
       44815000	      4480	8000489c	06f11083	lh	x1,111(x2)	  x2:0x80008b81  x1=0xffff8b03 PA:0x80008bf0
       44825000	      4481	800048a0	13c10c83	lb	x25,316(x2)	  x2:0x80008b81 x25=0x0000007d PA:0x80008cbd
       44835000	      4482	800048a4	836b3493	sltiu	x9,x22,-1994	 x22:0xfffff95e  x9=0x00000000
       44845000	      4483	800048a8	2a7b6993	ori	x19,x22,679	 x22:0xfffff95e x19=0xfffffbff
       44855000	      4484	800048ac	410a5913	srai	x18,x20,0x10	 x20:0xfffffdcb x18=0xffffffff
       44865000	      4485	800048b0	2d514e03	lbu	x28,725(x2)	  x2:0x80008b81 x28=0x00000005 PA:0x80008e56
       44875000	      4486	800048b4	00000013	addi	x0,x0,0	  x0:0x00000000
       44885000	      4487	800048b8	23110d23	sb	x17,570(x2)	  x2:0x80008b81 x17:0x00000001 PA:0x80008dbb
       44895000	      4488	800048bc	00000013	addi	x0,x0,0	  x0:0x00000000
       44905000	      4489	800048c0	d5910423	sb	x25,-696(x2)	  x2:0x80008b81 x25:0x0000007d PA:0x800088c9
       44915000	      4490	800048c4	004d3333	sltu	x6,x26,x4	 x26:0x80009fc4  x4:0x000025d1  x6=0x00000000
       44925000	      4491	800048c8	f09d7eb7	lui	x29,0xf09d7	 x29=0xf09d7000
       44935000	      4492	800048cc	00980533	add	x10,x16,x9	 x16:0x00000000  x9:0x00000000 x10=0x00000000
       44945000	      4493	800048d0	00000013	addi	x0,x0,0	  x0:0x00000000
       44955000	      4494	800048d4	01b423b3	slt	x7,x8,x27	  x8:0x67d2e880 x27:0x80009eb4  x7=0x00000000
       44965000	      4495	800048d8	22610a83	lb	x21,550(x2)	  x2:0x80008b81 x21=0x0000004f PA:0x80008da7
       44975000	      4496	800048dc	0bf10203	lb	x4,191(x2)	  x2:0x80008b81  x4=0x00000041 PA:0x80008c40
       44985000	      4497	800048e0	cf911f03	lh	x30,-775(x2)	  x2:0x80008b81 x30=0xffffdcbf PA:0x8000887a
       44995000	      4498	800048e4	1ee129a3	sw	x14,499(x2)	  x2:0x80008b81 x14:0x00000010 PA:0x80008d74
       45005000	      4499	800048e8	78283f37	lui	x30,0x78283	 x30=0x78283000
       45015000	      4500	800048ec	015f2533	slt	x10,x30,x21	 x30:0x78283000 x21:0x0000004f x10=0x00000000
       45025000	      4501	800048f0	12614a83	lbu	x21,294(x2)	  x2:0x80008b81 x21=0x00000071 PA:0x80008ca7
       45035000	      4502	800048f4	28714083	lbu	x1,647(x2)	  x2:0x80008b81  x1=0x00000067 PA:0x80008e08
       45045000	      4503	800048f8	9352b297	auipc	x5,0x9352b	  x5=0x1352f8f4
       45055000	      4504	800048fc	00531e33	sll	x28,x6,x5	  x6:0x00000000  x5:0x1352f8f4 x28=0x00000000
       45065000	      4505	80004900	00b19893	slli	x17,x3,0xb	  x3:0x00000003 x17=0x00001800
       45075000	      4506	80004904	f9ffbb93	sltiu	x23,x31,-97	 x31:0x000000c3 x23=0x00000001
       45085000	      4507	80004908	ee814c03	lbu	x24,-280(x2)	  x2:0x80008b81 x24=0x0000002e PA:0x80008a69
       45095000	      4508	8000490c	fd5111a3	sh	x21,-61(x2)	  x2:0x80008b81 x21:0x00000071 PA:0x80008b44
       45105000	      4509	80004910	01f1aab3	slt	x21,x3,x31	  x3:0x00000003 x31:0x000000c3 x21=0x00000001
       45115000	      4510	80004914	1e711aa3	sh	x7,501(x2)	  x2:0x80008b81  x7:0x00000000 PA:0x80008d76
       45125000	      4511	80004918	d8210383	lb	x7,-638(x2)	  x2:0x80008b81  x7=0x00000035 PA:0x80008903
       45135000	      4512	8000491c	eb911183	lh	x3,-327(x2)	  x2:0x80008b81  x3=0x00006f60 PA:0x80008a3a
       45145000	      4513	80004920	18c33d93	sltiu	x27,x6,396	  x6:0x00000000 x27=0x00000001
       45155000	      4514	80004924	f6c10e23	sb	x12,-132(x2)	  x2:0x80008b81 x12:0x00000000 PA:0x80008afd
       45165000	      4515	80004928	26698313	addi	x6,x19,614	 x19:0xfffffbff  x6=0xfffffe65
       45175000	      4516	8000492c	18910a23	sb	x9,404(x2)	  x2:0x80008b81  x9:0x00000000 PA:0x80008d15
       45185000	      4517	80004930	12b10283	lb	x5,299(x2)	  x2:0x80008b81  x5=0xffffffb7 PA:0x80008cac
       45195000	      4518	80004934	00003117	auipc	x2,0x3	  x2=0x80007930
       45205000	      4519	80004938	72e10113	addi	x2,x2,1838	  x2:0x80007930  x2=0x8000805e
       45215000	      4520	8000493c	01a65f13	srli	x30,x12,0x1a	 x12:0x00000000 x30=0x00000000
       45225000	      4521	80004940	0051da13	srli	x20,x3,0x5	  x3:0x00006f60 x20=0x0000037b
       45235000	      4522	80004944	ff910683	lb	x13,-7(x2)	  x2:0x8000805e x13=0x0000007d PA:0x80008057
       45245000	      4523	80004948	01634fb3	xor	x31,x6,x22	  x6:0xfffffe65 x22:0xfffff95e x31=0x0000073b
       45255000	      4524	8000494c	769fe717	auipc	x14,0x769fe	 x14=0xf6a02948
       45265000	      4525	80004950	51ca7d93	andi	x27,x20,1308	 x20:0x0000037b x27=0x00000118
       45275000	      4526	80004954	fed10fa3	sb	x13,-1(x2)	  x2:0x8000805e x13:0x0000007d PA:0x8000805d
       45285000	      4527	80004958	01d1c233	xor	x4,x3,x29	  x3:0x00006f60 x29:0xf09d7000  x4=0xf09d1f60
       45295000	      4528	8000495c	009ed233	srl	x4,x29,x9	 x29:0xf09d7000  x9:0x00000000  x4=0xf09d7000
       45305000	      4529	80004960	ff314503	lbu	x10,-13(x2)	  x2:0x8000805e x10=0x00000041 PA:0x80008051
       45315000	      4530	80004964	931d6437	lui	x8,0x931d6	  x8=0x931d6000
       45325000	      4531	80004968	40c1d2b3	sra	x5,x3,x12	  x3:0x00006f60 x12:0x00000000  x5=0x00006f60
       45335000	      4532	8000496c	01310223	sb	x19,4(x2)	  x2:0x8000805e x19:0xfffffbff PA:0x80008062
       45345000	      4533	80004970	00000013	addi	x0,x0,0	  x0:0x00000000
       45355000	      4534	80004974	15992913	slti	x18,x18,345	 x18:0xffffffff x18=0x00000001
       45365000	      4535	80004978	41fcd933	sra	x18,x25,x31	 x25:0x0000007d x31:0x0000073b x18=0x00000000
       45375000	      4536	8000497c	01c4cc33	xor	x24,x9,x28	  x9:0x00000000 x28:0x00000000 x24=0x00000000
       45385000	      4537	80004980	000b0533	add	x10,x22,x0	 x22:0xfffff95e  x0:0x00000000 x10=0xfffff95e
       45395000	      4538	80004984	005445b3	xor	x11,x8,x5	  x8:0x931d6000  x5:0x00006f60 x11=0x931d0f60
       45405000	      4539	80004988	26f47593	andi	x11,x8,623	  x8:0x931d6000 x11=0x00000000
       45415000	      4540	8000498c	3af0f813	andi	x16,x1,943	  x1:0x00000067 x16=0x00000027
       45425000	      4541	80004990	ff910ca3	sb	x25,-7(x2)	  x2:0x8000805e x25:0x0000007d PA:0x80008057
       45435000	      4542	80004994	ff710383	lb	x7,-9(x2)	  x2:0x8000805e  x7=0xffffffcb PA:0x80008055
       45445000	      4543	80004998	ed9f4993	xori	x19,x30,-295	 x30:0x00000000 x19=0xfffffed9
       45455000	      4544	8000499c	0052a4b3	slt	x9,x5,x5	  x5:0x00006f60  x5:0x00006f60  x9=0x00000000
       45465000	      4545	800049a0	2f4ea313	slti	x6,x29,756	 x29:0xf09d7000  x6=0x00000001
       45475000	      4546	800049a4	a0378813	addi	x16,x15,-1533	 x15:0x80009eb4 x16=0x800098b7
       45485000	      4547	800049a8	ff314683	lbu	x13,-13(x2)	  x2:0x8000805e x13=0x00000041 PA:0x80008051
       45495000	      4548	800049ac	00810383	lb	x7,8(x2)	  x2:0x8000805e  x7=0xffffffbc PA:0x80008066
       45505000	      4549	800049b0	00101813	slli	x16,x0,0x1	  x0:0x00000000 x16=0x00000000
       45515000	      4550	800049b4	00df9f93	slli	x31,x31,0xd	 x31:0x0000073b x31=0x00e76000
       45525000	      4551	800049b8	00c66033	or	x0,x12,x12	 x12:0x00000000 x12:0x00000000
       45535000	      4552	800049bc	01d02b33	slt	x22,x0,x29	  x0:0x00000000 x29:0xf09d7000 x22=0x00000000
       45545000	      4553	800049c0	ff110183	lb	x3,-15(x2)	  x2:0x8000805e  x3=0xfffffffd PA:0x8000804f
       45555000	      4554	800049c4	00d14183	lbu	x3,13(x2)	  x2:0x8000805e  x3=0x000000af PA:0x8000806b
       45565000	      4555	800049c8	01855a93	srli	x21,x10,0x18	 x10:0xfffff95e x21=0x000000ff
       45575000	      4556	800049cc	415bdc13	srai	x24,x23,0x15	 x23:0x00000001 x24=0x00000000
       45585000	      4557	800049d0	00e12d83	lw	x27,14(x2)	  x2:0x8000805e x27=0x8aad1859 PA:0x8000806c
       45595000	      4558	800049d4	ff914703	lbu	x14,-7(x2)	  x2:0x8000805e x14=0x0000007d PA:0x80008057
       45605000	      4559	800049d8	00004117	auipc	x2,0x4	  x2=0x800089d4
       45615000	      4560	800049dc	41110113	addi	x2,x2,1041	  x2:0x800089d4  x2=0x80008de5
       45625000	      4561	800049e0	fe410223	sb	x4,-28(x2)	  x2:0x80008de5  x4:0xf09d7000 PA:0x80008dc9
       45635000	      4562	800049e4	fd810723	sb	x24,-50(x2)	  x2:0x80008de5 x24:0x00000000 PA:0x80008db3
       45645000	      4563	800049e8	9c96a013	slti	x0,x13,-1591	 x13:0x00000041
       45655000	      4564	800049ec	002d9693	slli	x13,x27,0x2	 x27:0x8aad1859 x13=0x2ab46164
       45665000	      4565	800049f0	01529a13	slli	x20,x5,0x15	  x5:0x00006f60 x20=0xec000000
       45675000	      4566	800049f4	ffa11ea3	sh	x26,-3(x2)	  x2:0x80008de5 x26:0x80009fc4 PA:0x80008de2
       45685000	      4567	800049f8	000f1e13	slli	x28,x30,0x0	 x30:0x00000000 x28=0x00000000
       45695000	      4568	800049fc	00000013	addi	x0,x0,0	  x0:0x00000000
       45705000	      4569	80004a00	02d12fa3	sw	x13,63(x2)	  x2:0x80008de5 x13:0x2ab46164 PA:0x80008e24
       45715000	      4570	80004a04	02b12c83	lw	x25,43(x2)	  x2:0x80008de5 x25=0x9ec474bb PA:0x80008e10
       45725000	      4571	80004a08	fdc10da3	sb	x28,-37(x2)	  x2:0x80008de5 x28:0x00000000 PA:0x80008dc0
       45735000	      4572	80004a0c	01afbcb3	sltu	x25,x31,x26	 x31:0x00e76000 x26:0x80009fc4 x25=0x00000001
       45745000	      4573	80004a10	40d55013	srai	x0,x10,0xd	 x10:0xfffff95e
       45755000	      4574	80004a14	011e5333	srl	x6,x28,x17	 x28:0x00000000 x17:0x00001800  x6=0x00000000
       45765000	      4575	80004a18	ff014a83	lbu	x21,-16(x2)	  x2:0x80008de5 x21=0x000000c5 PA:0x80008dd5
       45775000	      4576	80004a1c	ffe10203	lb	x4,-2(x2)	  x2:0x80008de5  x4=0xffffff9f PA:0x80008de3
       45785000	      4577	80004a20	02111383	lh	x7,33(x2)	  x2:0x80008de5  x7=0xffffbf75 PA:0x80008e06
       45795000	      4578	80004a24	fca14283	lbu	x5,-54(x2)	  x2:0x80008de5  x5=0x000000a4 PA:0x80008daf
       45805000	      4579	80004a28	ff310fa3	sb	x19,-1(x2)	  x2:0x80008de5 x19:0xfffffed9 PA:0x80008de4
       45815000	      4580	80004a2c	014f4733	xor	x14,x30,x20	 x30:0x00000000 x20:0xec000000 x14=0xec000000
       45825000	      4581	80004a30	fe115503	lhu	x10,-31(x2)	  x2:0x80008de5 x10=0x00003dfe PA:0x80008dc6
       45835000	      4582	80004a34	41f8dc13	srai	x24,x17,0x1f	 x17:0x00001800 x24=0x00000000
       45845000	      4583	80004a38	41cb89b3	sub	x19,x23,x28	 x23:0x00000001 x28:0x00000000 x19=0x00000001
       45855000	      4584	80004a3c	03a106a3	sb	x26,45(x2)	  x2:0x80008de5 x26:0x80009fc4 PA:0x80008e12
       45865000	      4585	80004a40	00f10483	lb	x9,15(x2)	  x2:0x80008de5  x9=0x00000073 PA:0x80008df4
       45875000	      4586	80004a44	ffd14403	lbu	x8,-3(x2)	  x2:0x80008de5  x8=0x000000c4 PA:0x80008de2
       45885000	      4587	00000000	00000013	addi	x0,x0,0	  x0:0x00000000
       45895000	      4588	80004a48	fe814c03	lbu	x24,-24(x2)	  x2:0x80008de5 x24=0x0000001d PA:0x80008dcd
       45905000	      4589	80004a4c	03b108a3	sb	x27,49(x2)	  x2:0x80008de5 x27:0x8aad1859 PA:0x80008e16
       45915000	      4590	80004a50	40c95233	sra	x4,x18,x12	 x18:0x00000000 x12:0x00000000  x4=0x00000000
       45925000	      4591	80004a54	01010623	sb	x16,12(x2)	  x2:0x80008de5 x16:0x00000000 PA:0x80008df1
       45935000	      4592	80004a58	015f86b3	add	x13,x31,x21	 x31:0x00e76000 x21:0x000000c5 x13=0x00e760c5
       45945000	      4593	80004a5c	01814183	lbu	x3,24(x2)	  x2:0x80008de5  x3=0x00000004 PA:0x80008dfd
       45955000	      4594	80004a60	01e2d833	srl	x16,x5,x30	  x5:0x000000a4 x30:0x00000000 x16=0x000000a4
       45965000	      4595	80004a64	54153a93	sltiu	x21,x10,1345	 x10:0x00003dfe x21=0x00000000
       45975000	      4596	80004a68	010102a3	sb	x16,5(x2)	  x2:0x80008de5 x16:0x000000a4 PA:0x80008dea
       45985000	      4597	80004a6c	fc310223	sb	x3,-60(x2)	  x2:0x80008de5  x3:0x00000004 PA:0x80008da9
       45995000	      4598	80004a70	02010583	lb	x11,32(x2)	  x2:0x80008de5 x11=0x00000077 PA:0x80008e05
       46005000	      4599	80004a74	fe1107a3	sb	x1,-17(x2)	  x2:0x80008de5  x1:0x00000067 PA:0x80008dd4
       46015000	      4600	80004a78	ffc10703	lb	x14,-4(x2)	  x2:0x80008de5 x14=0xffffffbe PA:0x80008de1
       46025000	      4601	80004a7c	01006db3	or	x27,x0,x16	  x0:0x00000000 x16:0x000000a4 x27=0x000000a4
       46035000	      4602	80004a80	fea10483	lb	x9,-22(x2)	  x2:0x80008de5  x9=0xfffffffb PA:0x80008dcf
       46045000	      4603	80004a84	00d15203	lhu	x4,13(x2)	  x2:0x80008de5  x4=0x0000f07b PA:0x80008df2
       46055000	      4604	80004a88	01910b03	lb	x22,25(x2)	  x2:0x80008de5 x22=0xffffff83 PA:0x80008dfe
       46065000	      4605	80004a8c	009c50b3	srl	x1,x24,x9	 x24:0x0000001d  x9:0xfffffffb  x1=0x00000000
       46075000	      4606	80004a90	01d9b9b3	sltu	x19,x19,x29	 x19:0x00000001 x29:0xf09d7000 x19=0x00000001
       46085000	      4607	80004a94	ff312083	lw	x1,-13(x2)	  x2:0x80008de5  x1=0x80fe41a8 PA:0x80008dd8
       46095000	      4608	80004a98	41da5293	srai	x5,x20,0x1d	 x20:0xec000000  x5=0xffffffff
       46105000	      4609	80004a9c	04966463	bltu	x12,x9,80004ae4	 x12:0x00000000  x9:0xfffffffb
       46115000	      4610	00000000	00000013	addi	x0,x0,0	  x0:0x00000000
       46125000	      4611	80004ae0	00000013	addi	x0,x0,0	  x0:0x00000000
       46135000	      4612	80004ae4	004f4863	blt	x30,x4,80004af4	 x30:0x00000000  x4:0x0000f07b
       46145000	      4613	00000000	00000013	addi	x0,x0,0	  x0:0x00000000
       46155000	      4614	80004af0	00000013	addi	x0,x0,0	  x0:0x00000000
       46165000	      4615	80004af4	714ca313	slti	x6,x25,1812	 x25:0x00000001  x6=0x00000001
       46175000	      4616	80004af8	009b10b3	sll	x1,x22,x9	 x22:0xffffff83  x9:0xfffffffb  x1=0x18000000
       46185000	      4617	80004afc	d3eca113	slti	x2,x25,-706	 x25:0x00000001  x2=0x00000000
       46195000	      4618	80004b00	999cc393	xori	x7,x25,-1639	 x25:0x00000001  x7=0xfffff998
       46205000	      4619	80004b04	00470e33	add	x28,x14,x4	 x14:0xffffffbe  x4:0x0000f07b x28=0x0000f039
       46215000	      4620	80004b08	00811713	slli	x14,x2,0x8	  x2:0x00000000 x14=0x00000000
       46225000	      4621	80004b0c	0016c3b3	xor	x7,x13,x1	 x13:0x00e760c5  x1:0x18000000  x7=0x18e760c5
       46235000	      4622	80004b10	016a1b13	slli	x22,x20,0x16	 x20:0xec000000 x22=0x00000000
       46245000	      4623	80004b14	00c4d463	bge	x9,x12,80004b1c	  x9:0xfffffffb x12:0x00000000
       46255000	      4624	80004b18	01da0b33	add	x22,x20,x29	 x20:0xec000000 x29:0xf09d7000 x22=0xdc9d7000
       46265000	      4625	80004b1c	01ef2c33	slt	x24,x30,x30	 x30:0x00000000 x30:0x00000000 x24=0x00000000
       46275000	      4626	80004b20	c0cdcc13	xori	x24,x27,-1012	 x27:0x000000a4 x24=0xfffffca8
       46285000	      4627	80004b24	0031ba33	sltu	x20,x3,x3	  x3:0x00000004  x3:0x00000004 x20=0x00000000
       46295000	      4628	80004b28	681c7c37	lui	x24,0x681c7	 x24=0x681c7000
       46305000	      4629	80004b2c	01227e63	bgeu	x4,x18,80004b48	  x4:0x0000f07b x18:0x00000000
       46315000	      4630	00000000	00000013	addi	x0,x0,0	  x0:0x00000000
       46325000	      4631	80004b44	00000013	addi	x0,x0,0	  x0:0x00000000
       46335000	      4632	80004b48	2ab02c37	lui	x24,0x2ab02	 x24=0x2ab02000
       46345000	      4633	80004b4c	0050dcb3	srl	x25,x1,x5	  x1:0x18000000  x5:0xffffffff x25=0x00000000
       46355000	      4634	80004b50	01d26c63	bltu	x4,x29,80004b68	  x4:0x0000f07b x29:0xf09d7000
       46365000	      4635	00000000	00000013	addi	x0,x0,0	  x0:0x00000000
       46375000	      4636	80004b64	00000013	addi	x0,x0,0	  x0:0x00000000
       46385000	      4637	80004b68	00061663	bne	x12,x0,80004b74	 x12:0x00000000  x0:0x00000000
       46395000	      4638	80004b6c	01730ab3	add	x21,x6,x23	  x6:0x00000001 x23:0x00000001 x21=0x00000002
       46405000	      4639	80004b70	02928463	beq	x5,x9,80004b98	  x5:0xffffffff  x9:0xfffffffb
       46415000	      4640	80004b74	41b3d4b3	sra	x9,x7,x27	  x7:0x18e760c5 x27:0x000000a4  x9=0x018e760c
       46425000	      4641	80004b78	f33aba93	sltiu	x21,x21,-205	 x21:0x00000002 x21=0x00000001
       46435000	      4642	80004b7c	04715463	bge	x2,x7,80004bc4	  x2:0x00000000  x7:0x18e760c5
       46445000	      4643	80004b80	03206c63	bltu	x0,x18,80004bb8	  x0:0x00000000 x18:0x00000000
       46455000	      4644	80004b84	5cdded93	ori	x27,x27,1485	 x27:0x000000a4 x27=0x000005ed
       46465000	      4645	80004b88	01720f33	add	x30,x4,x23	  x4:0x0000f07b x23:0x00000001 x30=0x0000f07c
       46475000	      4646	80004b8c	41c0deb3	sra	x29,x1,x28	  x1:0x18000000 x28:0x0000f039 x29=0x0000000c
       46485000	      4647	80004b90	00c7ea63	bltu	x15,x12,80004ba4	 x15:0x80009eb4 x12:0x00000000
       46495000	      4648	80004b94	c96bec13	ori	x24,x23,-874	 x23:0x00000001 x24=0xfffffc97
       46505000	      4649	80004b98	04cf9663	bne	x31,x12,80004be4	 x31:0x00e76000 x12:0x00000000
       46515000	      4650	00000000	00000013	addi	x0,x0,0	  x0:0x00000000
       46525000	      4651	80004be0	00000013	addi	x0,x0,0	  x0:0x00000000
       46535000	      4652	80004be4	01ff9e33	sll	x28,x31,x31	 x31:0x00e76000 x31:0x00e76000 x28=0x00e76000
       46545000	      4653	80004be8	01df5733	srl	x14,x30,x29	 x30:0x0000f07c x29:0x0000000c x14=0x0000000f
       46555000	      4654	80004bec	e990ea93	ori	x21,x1,-359	  x1:0x18000000 x21=0xfffffe99
       46565000	      4655	80004bf0	02b29e63	bne	x5,x11,80004c2c	  x5:0xffffffff x11:0x00000077
       46575000	      4656	00000000	00000013	addi	x0,x0,0	  x0:0x00000000
       46585000	      4657	80004c28	00000013	addi	x0,x0,0	  x0:0x00000000
       46595000	      4658	80004c2c	04050663	beq	x10,x0,80004c78	 x10:0x00003dfe  x0:0x00000000
       46605000	      4659	80004c30	00fd5193	srli	x3,x26,0xf	 x26:0x80009fc4  x3=0x00010001
       46615000	      4660	80004c34	4f076313	ori	x6,x14,1264	 x14:0x0000000f  x6=0x000004ff
       46625000	      4661	80004c38	04541663	bne	x8,x5,80004c84	  x8:0x000000c4  x5:0xffffffff
       46635000	      4662	00000000	00000013	addi	x0,x0,0	  x0:0x00000000
       46645000	      4663	80004c80	00000013	addi	x0,x0,0	  x0:0x00000000
       46655000	      4664	80004c84	4088dc93	srai	x25,x17,0x8	 x17:0x00001800 x25=0x00000018
       46665000	      4665	80004c88	001c5e93	srli	x29,x24,0x1	 x24:0xfffffc97 x29=0x7ffffe4b
       46675000	      4666	80004c8c	04419463	bne	x3,x4,80004cd4	  x3:0x00010001  x4:0x0000f07b
       46685000	      4667	00000000	00000013	addi	x0,x0,0	  x0:0x00000000
       46695000	      4668	80004cd0	00000013	addi	x0,x0,0	  x0:0x00000000
       46705000	      4669	80004cd4	345f4393	xori	x7,x30,837	 x30:0x0000f07c  x7=0x0000f339
       46715000	      4670	80004cd8	0099ef33	or	x30,x19,x9	 x19:0x00000001  x9:0x018e760c x30=0x018e760d
       46725000	      4671	80004cdc	0c73fe97	auipc	x29,0xc73f	 x29=0x8c743cd8
       46735000	      4672	80004ce0	0222f063	bgeu	x5,x2,80004d00	  x5:0xffffffff  x2:0x00000000
       46745000	      4673	00000000	00000013	addi	x0,x0,0	  x0:0x00000000
       46755000	      4674	80004cfc	00000013	addi	x0,x0,0	  x0:0x00000000
       46765000	      4675	80004d00	05bf6663	bltu	x30,x27,80004d4c	 x30:0x018e760d x27:0x000005ed
       46775000	      4676	80004d04	01474033	xor	x0,x14,x20	 x14:0x0000000f x20:0x00000000
       46785000	      4677	80004d08	01681713	slli	x14,x16,0x16	 x16:0x000000a4 x14=0x29000000
       46795000	      4678	80004d0c	ee6c5f37	lui	x30,0xee6c5	 x30=0xee6c5000
       46805000	      4679	80004d10	c33d3813	sltiu	x16,x26,-973	 x26:0x80009fc4 x16=0x00000001
       46815000	      4680	80004d14	01fce833	or	x16,x25,x31	 x25:0x00000018 x31:0x00e76000 x16=0x00e76018
       46825000	      4681	80004d18	00709263	bne	x1,x7,80004d1c	  x1:0x18000000  x7:0x0000f339
       46835000	      4682	00000000	00000013	addi	x0,x0,0	  x0:0x00000000
       46845000	      4683	80004d18	00000013	addi	x0,x0,0	  x0:0x00000000
       46855000	      4684	80004d1c	004e5ab3	srl	x21,x28,x4	 x28:0x00e76000  x4:0x0000f07b x21=0x00000000
       46865000	      4685	80004d20	34fc4193	xori	x3,x24,847	 x24:0xfffffc97  x3=0xffffffd8
       46875000	      4686	80004d24	ce1a2893	slti	x17,x20,-799	 x20:0x00000000 x17=0x00000000
       46885000	      4687	80004d28	11ce2293	slti	x5,x28,284	 x28:0x00e76000  x5=0x00000000
       46895000	      4688	80004d2c	26b87293	andi	x5,x16,619	 x16:0x00e76018  x5=0x00000008
       46905000	      4689	80004d30	5ee57993	andi	x19,x10,1518	 x10:0x00003dfe x19=0x000005ee
       46915000	      4690	80004d34	04d2f463	bgeu	x5,x13,80004d7c	  x5:0x00000008 x13:0x00e760c5
       46925000	      4691	80004d38	db86ca93	xori	x21,x13,-584	 x13:0x00e760c5 x21=0xff189d7d
       46935000	      4692	80004d3c	407788b3	sub	x17,x15,x7	 x15:0x80009eb4  x7:0x0000f339 x17=0x7fffab7b
       46945000	      4693	80004d40	e5ac2a93	slti	x21,x24,-422	 x24:0xfffffc97 x21=0x00000001
       46955000	      4694	80004d44	00fe5e13	srli	x28,x28,0xf	 x28:0x00e76000 x28=0x000001ce
       46965000	      4695	80004d48	e99e6197	auipc	x3,0xe99e6	  x3=0x699ead44
       46975000	      4696	80004d4c	017f5333	srl	x6,x30,x23	 x30:0xee6c5000 x23:0x00000001  x6=0x77362800
       46985000	      4697	80004d50	002efe63	bgeu	x29,x2,80004d6c	 x29:0x8c743cd8  x2:0x00000000
       46995000	      4698	00000000	00000013	addi	x0,x0,0	  x0:0x00000000
       47005000	      4699	80004d68	00000013	addi	x0,x0,0	  x0:0x00000000
       47015000	      4700	80004d6c	54cf4317	auipc	x6,0x54cf4	  x6=0xd4cf8d68
       47025000	      4701	80004d70	01bf4a33	xor	x20,x30,x27	 x30:0xee6c5000 x27:0x000005ed x20=0xee6c55ed
       47035000	      4702	80004d74	009b8c63	beq	x23,x9,80004d8c	 x23:0x00000001  x9:0x018e760c
       47045000	      4703	80004d78	a1f56b93	ori	x23,x10,-1505	 x10:0x00003dfe x23=0xffffffff
       47055000	      4704	80004d7c	035d4e63	blt	x26,x21,80004db8	 x26:0x80009fc4 x21:0x00000001
       47065000	      4705	00000000	00000013	addi	x0,x0,0	  x0:0x00000000
       47075000	      4706	80004db4	00000013	addi	x0,x0,0	  x0:0x00000000
       47085000	      4707	80004db8	02698663	beq	x19,x6,80004de4	 x19:0x000005ee  x6:0xd4cf8d68
       47095000	      4708	80004dbc	79225597	auipc	x11,0x79225	 x11=0xf9229db8
       47105000	      4709	80004dc0	0176c2b3	xor	x5,x13,x23	 x13:0x00e760c5 x23:0xffffffff  x5=0xff189f3a
       47115000	      4710	80004dc4	99c67517	auipc	x10,0x99c67	 x10=0x19c6bdc0
       47125000	      4711	80004dc8	0099bc33	sltu	x24,x19,x9	 x19:0x000005ee  x9:0x018e760c x24=0x00000001
       47135000	      4712	80004dcc	d683af93	slti	x31,x7,-664	  x7:0x0000f339 x31=0x00000000
       47145000	      4713	80004dd0	01686f33	or	x30,x16,x22	 x16:0x00e76018 x22:0xdc9d7000 x30=0xdcff7018
       47155000	      4714	80004dd4	01122eb3	slt	x29,x4,x17	  x4:0x0000f07b x17:0x7fffab7b x29=0x00000001
       47165000	      4715	80004dd8	80063913	sltiu	x18,x12,-2048	 x12:0x00000000 x18=0x00000001
       47175000	      4716	80004ddc	cdcffc13	andi	x24,x31,-804	 x31:0x00000000 x24=0x00000000
       47185000	      4717	80004de0	b15ee293	ori	x5,x29,-1259	 x29:0x00000001  x5=0xfffffb15
       47195000	      4718	80004de4	00fd9533	sll	x10,x27,x15	 x27:0x000005ed x15:0x80009eb4 x10=0x5ed00000
       47205000	      4719	80004de8	01925263	bge	x4,x25,80004dec	  x4:0x0000f07b x25:0x00000018
       47215000	      4720	00000000	00000013	addi	x0,x0,0	  x0:0x00000000
       47225000	      4721	80004de8	00000013	addi	x0,x0,0	  x0:0x00000000
       47235000	      4722	80004dec	e32c2e93	slti	x29,x24,-462	 x24:0x00000000 x29=0x00000000
       47245000	      4723	80004df0	0443d663	bge	x7,x4,80004e3c	  x7:0x0000f339  x4:0x0000f07b
       47255000	      4724	00000000	00000013	addi	x0,x0,0	  x0:0x00000000
       47265000	      4725	80004e38	00000013	addi	x0,x0,0	  x0:0x00000000
       47275000	      4726	80004e3c	4b093b13	sltiu	x22,x18,1200	 x18:0x00000001 x22=0x00000001
       47285000	      4727	80004e40	01bc7663	bgeu	x24,x27,80004e4c	 x24:0x00000000 x27:0x000005ed
       47295000	      4728	80004e44	ec6dcd93	xori	x27,x27,-314	 x27:0x000005ed x27=0xfffffb2b
       47305000	      4729	80004e48	b5e23f93	sltiu	x31,x4,-1186	  x4:0x0000f07b x31=0x00000001
       47315000	      4730	80004e4c	ee946893	ori	x17,x8,-279	  x8:0x000000c4 x17=0xfffffeed
       47325000	      4731	80004e50	75ca7813	andi	x16,x20,1884	 x20:0xee6c55ed x16=0x0000054c
       47335000	      4732	80004e54	00413ab3	sltu	x21,x2,x4	  x2:0x00000000  x4:0x0000f07b x21=0x00000001
       47345000	      4733	80004e58	05e98863	beq	x19,x30,80004ea8	 x19:0x000005ee x30:0xdcff7018
       47355000	      4734	80004e5c	04486263	bltu	x16,x4,80004ea0	 x16:0x0000054c  x4:0x0000f07b
       47365000	      4735	00000000	00000013	addi	x0,x0,0	  x0:0x00000000
       47375000	      4736	80004e9c	00000013	addi	x0,x0,0	  x0:0x00000000
       47385000	      4737	80004ea0	0147fab3	and	x21,x15,x20	 x15:0x80009eb4 x20:0xee6c55ed x21=0x800014a4
       47395000	      4738	80004ea4	002913b3	sll	x7,x18,x2	 x18:0x00000001  x2:0x00000000  x7=0x00000001
       47405000	      4739	80004ea8	0073dc13	srli	x24,x7,0x7	  x7:0x00000001 x24=0x00000000
       47415000	      4740	80004eac	044b0863	beq	x22,x4,80004efc	 x22:0x00000001  x4:0x0000f07b
       47425000	      4741	80004eb0	0143d293	srli	x5,x7,0x14	  x7:0x00000001  x5=0x00000000
       47435000	      4742	80004eb4	e21aec13	ori	x24,x21,-479	 x21:0x800014a4 x24=0xfffffea5
       47445000	      4743	80004eb8	00e08e63	beq	x1,x14,80004ed4	  x1:0x18000000 x14:0x29000000
       47455000	      4744	80004ebc	003ddb33	srl	x22,x27,x3	 x27:0xfffffb2b  x3:0x699ead44 x22=0x0fffffb2
       47465000	      4745	80004ec0	82bfed93	ori	x27,x31,-2005	 x31:0x00000001 x27=0xfffff82b
       47475000	      4746	80004ec4	41d7d1b3	sra	x3,x15,x29	 x15:0x80009eb4 x29:0x00000000  x3=0x80009eb4
       47485000	      4747	80004ec8	00a11c63	bne	x2,x10,80004ee0	  x2:0x00000000 x10:0x5ed00000
       47495000	      4748	00000000	00000013	addi	x0,x0,0	  x0:0x00000000
       47505000	      4749	80004edc	00000013	addi	x0,x0,0	  x0:0x00000000
       47515000	      4750	80004ee0	010c6e63	bltu	x24,x16,80004efc	 x24:0xfffffea5 x16:0x0000054c
       47525000	      4751	80004ee4	00a094b3	sll	x9,x1,x10	  x1:0x18000000 x10:0x5ed00000  x9=0x18000000
       47535000	      4752	80004ee8	00000013	addi	x0,x0,0	  x0:0x00000000
       47545000	      4753	80004eec	407b5933	sra	x18,x22,x7	 x22:0x0fffffb2  x7:0x00000001 x18=0x07ffffd9
       47555000	      4754	80004ef0	e5616893	ori	x17,x2,-426	  x2:0x00000000 x17=0xfffffe56
       47565000	      4755	80004ef4	01f79ab3	sll	x21,x15,x31	 x15:0x80009eb4 x31:0x00000001 x21=0x00013d68
       47575000	      4756	80004ef8	4e27ae13	slti	x28,x15,1250	 x15:0x80009eb4 x28=0x00000001
       47585000	      4757	80004efc	5556c093	xori	x1,x13,1365	 x13:0x00e760c5  x1=0x00e76590
       47595000	      4758	80004f00	417203b3	sub	x7,x4,x23	  x4:0x0000f07b x23:0xffffffff  x7=0x0000f07c
       47605000	      4759	80004f04	9227a693	slti	x13,x15,-1758	 x15:0x80009eb4 x13=0x00000001
       47615000	      4760	80004f08	41148eb3	sub	x29,x9,x17	  x9:0x18000000 x17:0xfffffe56 x29=0x180001aa
       47625000	      4761	80004f0c	00128463	beq	x5,x1,80004f14	  x5:0x00000000  x1:0x00e76590
       47635000	      4762	80004f10	01d228b3	slt	x17,x4,x29	  x4:0x0000f07b x29:0x180001aa x17=0x00000001
       47645000	      4763	80004f14	9725bb13	sltiu	x22,x11,-1678	 x11:0xf9229db8 x22=0x00000001
       47655000	      4764	80004f18	e87e0213	addi	x4,x28,-377	 x28:0x00000001  x4=0xfffffe88
       47665000	      4765	80004f1c	0170e6b3	or	x13,x1,x23	  x1:0x00e76590 x23:0xffffffff x13=0xffffffff
       47675000	      4766	80004f20	01efd263	bge	x31,x30,80004f24	 x31:0x00000001 x30:0xdcff7018
       47685000	      4767	00000000	00000013	addi	x0,x0,0	  x0:0x00000000
       47695000	      4768	80004f20	00000013	addi	x0,x0,0	  x0:0x00000000
       47705000	      4769	80004f24	018991b3	sll	x3,x19,x24	 x19:0x000005ee x24:0xfffffea5  x3=0x0000bdc0
       47715000	      4770	80004f28	d3422f17	auipc	x30,0xd3422	 x30=0x53426f24
       47725000	      4771	80004f2c	00000013	addi	x0,x0,0	  x0:0x00000000
       47735000	      4772	80004f30	0394c063	blt	x9,x25,80004f50	  x9:0x18000000 x25:0x00000018
       47745000	      4773	80004f34	e1350c93	addi	x25,x10,-493	 x10:0x5ed00000 x25=0x5ecffe13
       47755000	      4774	80004f38	230caf13	slti	x30,x25,560	 x25:0x5ecffe13 x30=0x00000000
       47765000	      4775	80004f3c	001a5663	bge	x20,x1,80004f48	 x20:0xee6c55ed  x1:0x00e76590
       47775000	      4776	80004f40	0072c833	xor	x16,x5,x7	  x5:0x00000000  x7:0x0000f07c x16=0x0000f07c
       47785000	      4777	80004f44	00000013	addi	x0,x0,0	  x0:0x00000000
       47795000	      4778	80004f48	00fc6a63	bltu	x24,x15,80004f5c	 x24:0xfffffea5 x15:0x80009eb4
       47805000	      4779	80004f4c	c8a54417	auipc	x8,0xc8a54	  x8=0x48a58f48
       47815000	      4780	80004f50	011c5413	srli	x8,x24,0x11	 x24:0xfffffea5  x8=0x00007fff
       47825000	      4781	80004f54	4154d133	sra	x2,x9,x21	  x9:0x18000000 x21:0x00013d68  x2=0x00180000
       47835000	      4782	80004f58	039c9063	bne	x25,x25,80004f78	 x25:0x5ecffe13 x25:0x5ecffe13
       47845000	      4783	80004f5c	0585e463	bltu	x11,x24,80004fa4	 x11:0xf9229db8 x24:0xfffffea5
       47855000	      4784	00000000	00000013	addi	x0,x0,0	  x0:0x00000000
       47865000	      4785	80004fa0	00000013	addi	x0,x0,0	  x0:0x00000000
       47875000	      4786	80004fa4	05b3c263	blt	x7,x27,80004fe8	  x7:0x0000f07c x27:0xfffff82b
       47885000	      4787	80004fa8	052be663	bltu	x23,x18,80004ff4	 x23:0xffffffff x18:0x07ffffd9
       47895000	      4788	80004fac	bf2dfe37	lui	x28,0xbf2df	 x28=0xbf2df000
       47905000	      4789	80004fb0	03a79663	bne	x15,x26,80004fdc	 x15:0x80009eb4 x26:0x80009fc4
       47915000	      4790	00000000	00000013	addi	x0,x0,0	  x0:0x00000000
       47925000	      4791	80004fd8	00000013	addi	x0,x0,0	  x0:0x00000000
       47935000	      4792	80004fdc	bdcaf693	andi	x13,x21,-1060	 x21:0x00013d68 x13=0x00013948
       47945000	      4793	80004fe0	003cf533	and	x10,x25,x3	 x25:0x5ecffe13  x3:0x0000bdc0 x10=0x0000bc00
       47955000	      4794	80004fe4	000f5e33	srl	x28,x30,x0	 x30:0x00000000  x0:0x00000000 x28=0x00000000
       47965000	      4795	80004fe8	01595913	srli	x18,x18,0x15	 x18:0x07ffffd9 x18=0x0000003f
       47975000	      4796	80004fec	000d96b3	sll	x13,x27,x0	 x27:0xfffff82b  x0:0x00000000 x13=0xfffff82b
       47985000	      4797	80004ff0	04eb6463	bltu	x22,x14,80005038	 x22:0x00000001 x14:0x29000000
       47995000	      4798	00000000	00000013	addi	x0,x0,0	  x0:0x00000000
       48005000	      4799	80005034	00000013	addi	x0,x0,0	  x0:0x00000000
       48015000	      4800	80005038	40874e93	xori	x29,x14,1032	 x14:0x29000000 x29=0x29000408
       48025000	      4801	8000503c	00000013	addi	x0,x0,0	  x0:0x00000000
       48035000	      4802	80005040	00e8bc33	sltu	x24,x17,x14	 x17:0x00000001 x14:0x29000000 x24=0x00000001
       48045000	      4803	80005044	01992b33	slt	x22,x18,x25	 x18:0x0000003f x25:0x5ecffe13 x22=0x00000001
       48055000	      4804	80005048	00000013	addi	x0,x0,0	  x0:0x00000000
       48065000	      4805	8000504c	00194bb3	xor	x23,x18,x1	 x18:0x0000003f  x1:0x00e76590 x23=0x00e765af
       48075000	      4806	80005050	40bb8033	sub	x0,x23,x11	 x23:0x00e765af x11:0xf9229db8
       48085000	      4807	80005054	c677ab13	slti	x22,x15,-921	 x15:0x80009eb4 x22=0x00000001
       48095000	      4808	80005058	47c92113	slti	x2,x18,1148	 x18:0x0000003f  x2=0x00000001
       48105000	      4809	8000505c	036cd263	bge	x25,x22,80005080	 x25:0x5ecffe13 x22:0x00000001
       48115000	      4810	00000000	00000013	addi	x0,x0,0	  x0:0x00000000
       48125000	      4811	8000507c	00000013	addi	x0,x0,0	  x0:0x00000000
       48135000	      4812	80005080	004e1b33	sll	x22,x28,x4	 x28:0x00000000  x4:0xfffffe88 x22=0x00000000
       48145000	      4813	80005084	014ad1b3	srl	x3,x21,x20	 x21:0x00013d68 x20:0xee6c55ed  x3=0x00000009
       48155000	      4814	80005088	015f1393	slli	x7,x30,0x15	 x30:0x00000000  x7=0x00000000
       48165000	      4815	8000508c	00bb2eb3	slt	x29,x22,x11	 x22:0x00000000 x11:0xf9229db8 x29=0x00000000
       48175000	      4816	80005090	011a8db3	add	x27,x21,x17	 x21:0x00013d68 x17:0x00000001 x27=0x00013d69
       48185000	      4817	80005094	cb153113	sltiu	x2,x10,-847	 x10:0x0000bc00  x2=0x00000001
       48195000	      4818	80005098	02b4f463	bgeu	x9,x11,800050c0	  x9:0x18000000 x11:0xf9229db8
       48205000	      4819	8000509c	01d69863	bne	x13,x29,800050ac	 x13:0xfffff82b x29:0x00000000
       48215000	      4820	00000000	00000013	addi	x0,x0,0	  x0:0x00000000
       48225000	      4821	800050a8	00000013	addi	x0,x0,0	  x0:0x00000000
       48235000	      4822	800050ac	00b0f263	bgeu	x1,x11,800050b0	  x1:0x00e76590 x11:0xf9229db8
       48245000	      4823	800050b0	400b7d93	andi	x27,x22,1024	 x22:0x00000000 x27=0x00000000
       48255000	      4824	800050b4	01380263	beq	x16,x19,800050b8	 x16:0x0000f07c x19:0x000005ee
       48265000	      4825	800050b8	0d14b513	sltiu	x10,x9,209	  x9:0x18000000 x10=0x00000000
       48275000	      4826	800050bc	001d5fb3	srl	x31,x26,x1	 x26:0x80009fc4  x1:0x00e76590 x31=0x00008000
       48285000	      4827	800050c0	5f0fc397	auipc	x7,0x5f0fc	  x7=0xdf1010bc
       48295000	      4828	800050c4	01ff9313	slli	x6,x31,0x1f	 x31:0x00008000  x6=0x00000000
       48305000	      4829	800050c8	0183fa63	bgeu	x7,x24,800050dc	  x7:0xdf1010bc x24:0x00000001
       48315000	      4830	00000000	00000013	addi	x0,x0,0	  x0:0x00000000
       48325000	      4831	800050d8	00000013	addi	x0,x0,0	  x0:0x00000000
       48335000	      4832	800050dc	a88ef593	andi	x11,x29,-1400	 x29:0x00000000 x11=0x00000000
       48345000	      4833	800050e0	00bdd533	srl	x10,x27,x11	 x27:0x00000000 x11:0x00000000 x10=0x00000000
       48355000	      4834	800050e4	86beab93	slti	x23,x29,-1941	 x29:0x00000000 x23=0x00000000
       48365000	      4835	800050e8	412ada93	srai	x21,x21,0x12	 x21:0x00013d68 x21=0x00000000
       48375000	      4836	800050ec	f2e92f93	slti	x31,x18,-210	 x18:0x0000003f x31=0x00000000
       48385000	      4837	800050f0	00c27933	and	x18,x4,x12	  x4:0xfffffe88 x12:0x00000000 x18=0x00000000
       48395000	      4838	800050f4	01625193	srli	x3,x4,0x16	  x4:0xfffffe88  x3=0x000003ff
       48405000	      4839	800050f8	0291dc63	bge	x3,x9,80005130	  x3:0x000003ff  x9:0x18000000
       48415000	      4840	800050fc	41b0d313	srai	x6,x1,0x1b	  x1:0x00e76590  x6=0x00000000
       48425000	      4841	80005100	8cd80213	addi	x4,x16,-1843	 x16:0x0000f07c  x4=0x0000e949
       48435000	      4842	80005104	00975893	srli	x17,x14,0x9	 x14:0x29000000 x17=0x00148000
       48445000	      4843	80005108	01d7fdb3	and	x27,x15,x29	 x15:0x80009eb4 x29:0x00000000 x27=0x00000000
       48455000	      4844	8000510c	408c8733	sub	x14,x25,x8	 x25:0x5ecffe13  x8:0x00007fff x14=0x5ecf7e14
       48465000	      4845	80005110	410d85b3	sub	x11,x27,x16	 x27:0x00000000 x16:0x0000f07c x11=0xffff0f84
       48475000	      4846	80005114	a727bc13	sltiu	x24,x15,-1422	 x15:0x80009eb4 x24=0x00000001
       48485000	      4847	80005118	00b8b1b3	sltu	x3,x17,x11	 x17:0x00148000 x11:0xffff0f84  x3=0x00000001
       48495000	      4848	8000511c	00364033	xor	x0,x12,x3	 x12:0x00000000  x3:0x00000001
       48505000	      4849	80005120	c4c0f693	andi	x13,x1,-948	  x1:0x00e76590 x13=0x00e76400
       48515000	      4850	80005124	0045f663	bgeu	x11,x4,80005130	 x11:0xffff0f84  x4:0x0000e949
       48525000	      4851	00000000	00000013	addi	x0,x0,0	  x0:0x00000000
       48535000	      4852	8000512c	00000013	addi	x0,x0,0	  x0:0x00000000
       48545000	      4853	80005130	00b5bdb3	sltu	x27,x11,x11	 x11:0xffff0f84 x11:0xffff0f84 x27=0x00000000
       48555000	      4854	80005134	0007b9b3	sltu	x19,x15,x0	 x15:0x80009eb4  x0:0x00000000 x19=0x00000000
       48565000	      4855	80005138	00c2aeb3	slt	x29,x5,x12	  x5:0x00000000 x12:0x00000000 x29=0x00000000
       48575000	      4856	8000513c	402829b7	lui	x19,0x40282	 x19=0x40282000
       48585000	      4857	80005140	af4eaf93	slti	x31,x29,-1292	 x29:0x00000000 x31=0x00000000
       48595000	      4858	80005144	404cd9b3	sra	x19,x25,x4	 x25:0x5ecffe13  x4:0x0000e949 x19=0x002f67ff
       48605000	      4859	80005148	d7047993	andi	x19,x8,-656	  x8:0x00007fff x19=0x00007d70
       48615000	      4860	8000514c	c4f4ec93	ori	x25,x9,-945	  x9:0x18000000 x25=0xfffffc4f
       48625000	      4861	80005150	001e1b13	slli	x22,x28,0x1	 x28:0x00000000 x22=0x00000000
       48635000	      4862	80005154	0085ceb3	xor	x29,x11,x8	 x11:0xffff0f84  x8:0x00007fff x29=0xffff707b
       48645000	      4863	80005158	04636663	bltu	x6,x6,800051a4	  x6:0x00000000  x6:0x00000000
       48655000	      4864	8000515c	01b89433	sll	x8,x17,x27	 x17:0x00148000 x27:0x00000000  x8=0x00148000
       48665000	      4865	80005160	78a93a93	sltiu	x21,x18,1930	 x18:0x00000000 x21=0x00000001
       48675000	      4866	80005164	01272133	slt	x2,x14,x18	 x14:0x5ecf7e14 x18:0x00000000  x2=0x00000000
       48685000	      4867	80005168	be8a8713	addi	x14,x21,-1048	 x21:0x00000001 x14=0xfffffbe9
       48695000	      4868	8000516c	0027c263	blt	x15,x2,80005170	 x15:0x80009eb4  x2:0x00000000
       48705000	      4869	00000000	00000013	addi	x0,x0,0	  x0:0x00000000
       48715000	      4870	8000516c	00000013	addi	x0,x0,0	  x0:0x00000000
       48725000	      4871	80005170	01fea6b3	slt	x13,x29,x31	 x29:0xffff707b x31:0x00000000 x13=0x00000001
       48735000	      4872	80005174	ea2b8a93	addi	x21,x23,-350	 x23:0x00000000 x21=0xfffffea2
       48745000	      4873	80005178	13e2a093	slti	x1,x5,318	  x5:0x00000000  x1=0x00000001
       48755000	      4874	8000517c	04f36663	bltu	x6,x15,800051c8	  x6:0x00000000 x15:0x80009eb4
       48765000	      4875	00000000	00000013	addi	x0,x0,0	  x0:0x00000000
       48775000	      4876	800051c4	00000013	addi	x0,x0,0	  x0:0x00000000
       48785000	      4877	800051c8	0cfd7a63	bgeu	x26,x15,8000529c	 x26:0x80009fc4 x15:0x80009eb4
       48795000	      4878	00000000	00000013	addi	x0,x0,0	  x0:0x00000000
       48805000	      4879	80005298	00000013	addi	x0,x0,0	  x0:0x00000000
       48815000	      4880	8000529c	002abf33	sltu	x30,x21,x2	 x21:0xfffffea2  x2:0x00000000 x30=0x00000000
       48825000	      4881	800052a0	00b25c33	srl	x24,x4,x11	  x4:0x0000e949 x11:0xffff0f84 x24=0x00000e94
       48835000	      4882	800052a4	018d2433	slt	x8,x26,x24	 x26:0x80009fc4 x24:0x00000e94  x8=0x00000001
       48845000	      4883	800052a8	05a05663	bge	x0,x26,800052f4	  x0:0x00000000 x26:0x80009fc4
       48855000	      4884	00000000	00000013	addi	x0,x0,0	  x0:0x00000000
       48865000	      4885	800052f0	00000013	addi	x0,x0,0	  x0:0x00000000
       48875000	      4886	800052f4	00294eb3	xor	x29,x18,x2	 x18:0x00000000  x2:0x00000000 x29=0x00000000
       48885000	      4887	800052f8	0313e063	bltu	x7,x17,80005318	  x7:0xdf1010bc x17:0x00148000
       48895000	      4888	800052fc	006bdfb3	srl	x31,x23,x6	 x23:0x00000000  x6:0x00000000 x31=0x00000000
       48905000	      4889	80005300	05bef663	bgeu	x29,x27,8000534c	 x29:0x00000000 x27:0x00000000
       48915000	      4890	00000000	00000013	addi	x0,x0,0	  x0:0x00000000
       48925000	      4891	80005348	00000013	addi	x0,x0,0	  x0:0x00000000
       48935000	      4892	8000534c	c0c9a813	slti	x16,x19,-1012	 x19:0x00007d70 x16=0x00000000
       48945000	      4893	80005350	01d80ab3	add	x21,x16,x29	 x16:0x00000000 x29:0x00000000 x21=0x00000000
       48955000	      4894	80005354	02b8fe63	bgeu	x17,x11,80005390	 x17:0x00148000 x11:0xffff0f84
       48965000	      4895	80005358	00c11c63	bne	x2,x12,80005370	  x2:0x00000000 x12:0x00000000
       48975000	      4896	8000535c	41d2dc33	sra	x24,x5,x29	  x5:0x00000000 x29:0x00000000 x24=0x00000000
       48985000	      4897	80005360	00d9e263	bltu	x19,x13,80005364	 x19:0x00007d70 x13:0x00000001
       48995000	      4898	80005364	00065a93	srli	x21,x12,0x0	 x12:0x00000000 x21=0x00000000
       49005000	      4899	80005368	008056b3	srl	x13,x0,x8	  x0:0x00000000  x8:0x00000001 x13=0x00000000
       49015000	      4900	8000536c	6559a013	slti	x0,x19,1621	 x19:0x00007d70
       49025000	      4901	80005370	01349133	sll	x2,x9,x19	  x9:0x18000000 x19:0x00007d70  x2=0x00000000
       49035000	      4902	80005374	0000f933	and	x18,x1,x0	  x1:0x00000001  x0:0x00000000 x18=0x00000000
       49045000	      4903	80005378	006ce533	or	x10,x25,x6	 x25:0xfffffc4f  x6:0x00000000 x10=0xfffffc4f
       49055000	      4904	8000537c	001cd863	bge	x25,x1,8000538c	 x25:0xfffffc4f  x1:0x00000001
       49065000	      4905	80005380	00ba9013	slli	x0,x21,0xb	 x21:0x00000000
       49075000	      4906	80005384	401f0433	sub	x8,x30,x1	 x30:0x00000000  x1:0x00000001  x8=0xffffffff
       49085000	      4907	80005388	010f9493	slli	x9,x31,0x10	 x31:0x00000000  x9=0x00000000
       49095000	      4908	8000538c	02e4e493	ori	x9,x9,46	  x9:0x00000000  x9=0x0000002e
       49105000	      4909	80005390	40fa5a93	srai	x21,x20,0xf	 x20:0xee6c55ed x21=0xffffdcd8
       49115000	      4910	80005394	00da9a13	slli	x20,x21,0xd	 x21:0xffffdcd8 x20=0xfb9b0000
       49125000	      4911	80005398	02190c63	beq	x18,x1,800053d0	 x18:0x00000000  x1:0x00000001
       49135000	      4912	8000539c	b3210593	addi	x11,x2,-1230	  x2:0x00000000 x11=0xfffffb32
       49145000	      4913	800053a0	24dfe013	ori	x0,x31,589	 x31:0x00000000
       49155000	      4914	800053a4	025ae063	bltu	x21,x5,800053c4	 x21:0xffffdcd8  x5:0x00000000
       49165000	      4915	800053a8	01b0ea33	or	x20,x1,x27	  x1:0x00000001 x27:0x00000000 x20=0x00000001
       49175000	      4916	800053ac	013b1413	slli	x8,x22,0x13	 x22:0x00000000  x8=0x00000000
       49185000	      4917	800053b0	4183d3b3	sra	x7,x7,x24	  x7:0xdf1010bc x24:0x00000000  x7=0xdf1010bc
       49195000	      4918	800053b4	a6838d93	addi	x27,x7,-1432	  x7:0xdf1010bc x27=0xdf100b24
       49205000	      4919	800053b8	05b45463	bge	x8,x27,80005400	  x8:0x00000000 x27:0xdf100b24
       49215000	      4920	00000000	00000013	addi	x0,x0,0	  x0:0x00000000
       49225000	      4921	800053fc	00000013	addi	x0,x0,0	  x0:0x00000000
       49235000	      4922	80005400	0572d663	bge	x5,x23,8000544c	  x5:0x00000000 x23:0x00000000
       49245000	      4923	00000000	00000013	addi	x0,x0,0	  x0:0x00000000
       49255000	      4924	80005448	00000013	addi	x0,x0,0	  x0:0x00000000
       49265000	      4925	8000544c	d3545497	auipc	x9,0xd3545	  x9=0x5354a448
       49275000	      4926	80005450	00215663	bge	x2,x2,8000545c	  x2:0x00000000  x2:0x00000000
       49285000	      4927	00000000	00000013	addi	x0,x0,0	  x0:0x00000000
       49295000	      4928	80005458	00000013	addi	x0,x0,0	  x0:0x00000000
       49305000	      4929	8000545c	40a9d1b3	sra	x3,x19,x10	 x19:0x00007d70 x10:0xfffffc4f  x3=0x00000000
       49315000	      4930	80005460	002ba9b3	slt	x19,x23,x2	 x23:0x00000000  x2:0x00000000 x19=0x00000000
       49325000	      4931	80005464	0124f733	and	x14,x9,x18	  x9:0x5354a448 x18:0x00000000 x14=0x00000000
       49335000	      4932	80005468	05a8f463	bgeu	x17,x26,800054b0	 x17:0x00148000 x26:0x80009fc4
       49345000	      4933	8000546c	0007c263	blt	x15,x0,80005470	 x15:0x80009eb4  x0:0x00000000
       49355000	      4934	00000000	00000013	addi	x0,x0,0	  x0:0x00000000
       49365000	      4935	8000546c	00000013	addi	x0,x0,0	  x0:0x00000000
       49375000	      4936	80005470	00691133	sll	x2,x18,x6	 x18:0x00000000  x6:0x00000000  x2=0x00000000
       49385000	      4937	80005474	9b453513	sltiu	x10,x10,-1612	 x10:0xfffffc4f x10=0x00000000
       49395000	      4938	80005478	00f24e33	xor	x28,x4,x15	  x4:0x0000e949 x15:0x80009eb4 x28=0x800077fd
       49405000	      4939	8000547c	00588933	add	x18,x17,x5	 x17:0x00148000  x5:0x00000000 x18=0x00148000
       49415000	      4940	80005480	014e5c63	bge	x28,x20,80005498	 x28:0x800077fd x20:0x00000001
       49425000	      4941	80005484	00b98133	add	x2,x19,x11	 x19:0x00000000 x11:0xfffffb32  x2=0xfffffb32
       49435000	      4942	80005488	0054a1b3	slt	x3,x9,x5	  x9:0x5354a448  x5:0x00000000  x3=0x00000000
       49445000	      4943	8000548c	04b47663	bgeu	x8,x11,800054d8	  x8:0x00000000 x11:0xfffffb32
       49455000	      4944	80005490	008d9ab3	sll	x21,x27,x8	 x27:0xdf100b24  x8:0x00000000 x21=0xdf100b24
       49465000	      4945	80005494	04cdd663	bge	x27,x12,800054e0	 x27:0xdf100b24 x12:0x00000000
       49475000	      4946	80005498	4176db93	srai	x23,x13,0x17	 x13:0x00000000 x23=0x00000000
       49485000	      4947	8000549c	01af4c33	xor	x24,x30,x26	 x30:0x00000000 x26:0x80009fc4 x24=0x80009fc4
       49495000	      4948	800054a0	008ebb33	sltu	x22,x29,x8	 x29:0x00000000  x8:0x00000000 x22=0x00000000
       49505000	      4949	800054a4	04220463	beq	x4,x2,800054ec	  x4:0x0000e949  x2:0xfffffb32
       49515000	      4950	800054a8	013146b3	xor	x13,x2,x19	  x2:0xfffffb32 x19:0x00000000 x13=0xfffffb32
       49525000	      4951	800054ac	00529993	slli	x19,x5,0x5	  x5:0x00000000 x19=0x00000000
       49535000	      4952	800054b0	02e46063	bltu	x8,x14,800054d0	  x8:0x00000000 x14:0x00000000
       49545000	      4953	800054b4	00000013	addi	x0,x0,0	  x0:0x00000000
       49555000	      4954	800054b8	56e40593	addi	x11,x8,1390	  x8:0x00000000 x11=0x0000056e
       49565000	      4955	800054bc	00338b33	add	x22,x7,x3	  x7:0xdf1010bc  x3:0x00000000 x22=0xdf1010bc
       49575000	      4956	800054c0	01776a63	bltu	x14,x23,800054d4	 x14:0x00000000 x23:0x00000000
       49585000	      4957	800054c4	405b5013	srai	x0,x22,0x5	 x22:0xdf1010bc
       49595000	      4958	800054c8	01d2a433	slt	x8,x5,x29	  x5:0x00000000 x29:0x00000000  x8=0x00000000
       49605000	      4959	800054cc	019f3cb3	sltu	x25,x30,x25	 x30:0x00000000 x25:0xfffffc4f x25=0x00000001
       49615000	      4960	800054d0	01ecd213	srli	x4,x25,0x1e	 x25:0x00000001  x4=0x00000000
       49625000	      4961	800054d4	003c1263	bne	x24,x3,800054d8	 x24:0x80009fc4  x3:0x00000000
       49635000	      4962	00000000	00000013	addi	x0,x0,0	  x0:0x00000000
       49645000	      4963	800054d4	00000013	addi	x0,x0,0	  x0:0x00000000
       49655000	      4964	800054d8	009a14b3	sll	x9,x20,x9	 x20:0x00000001  x9:0x5354a448  x9=0x00000100
       49665000	      4965	800054dc	007141b3	xor	x3,x2,x7	  x2:0xfffffb32  x7:0xdf1010bc  x3=0x20efeb8e
       49675000	      4966	800054e0	40a6b337	lui	x6,0x40a6b	  x6=0x40a6b000
       49685000	      4967	800054e4	00dc6eb3	or	x29,x24,x13	 x24:0x80009fc4 x13:0xfffffb32 x29=0xfffffff6
       49695000	      4968	800054e8	e23e8d93	addi	x27,x29,-477	 x29:0xfffffff6 x27=0xfffffe19
       49705000	      4969	800054ec	0065c3b3	xor	x7,x11,x6	 x11:0x0000056e  x6:0x40a6b000  x7=0x40a6b56e
       49715000	      4970	800054f0	879f60b7	lui	x1,0x879f6	  x1=0x879f6000
       49725000	      4971	800054f4	7dc88a93	addi	x21,x17,2012	 x17:0x00148000 x21=0x001487dc
       49735000	      4972	800054f8	00a4d893	srli	x17,x9,0xa	  x9:0x00000100 x17=0x00000000
       49745000	      4973	800054fc	00189533	sll	x10,x17,x1	 x17:0x00000000  x1:0x879f6000 x10=0x00000000
       49755000	      4974	80005500	020e7663	bgeu	x28,x0,8000552c	 x28:0x800077fd  x0:0x00000000
       49765000	      4975	00000000	00000013	addi	x0,x0,0	  x0:0x00000000
       49775000	      4976	80005528	00000013	addi	x0,x0,0	  x0:0x00000000
       49785000	      4977	8000552c	01558933	add	x18,x11,x21	 x11:0x0000056e x21:0x001487dc x18=0x00148d4a
       49795000	      4978	80005530	01823db3	sltu	x27,x4,x24	  x4:0x00000000 x24:0x80009fc4 x27=0x00000001
       49805000	      4979	80005534	c3c42913	slti	x18,x8,-964	  x8:0x00000000 x18=0x00000000
       49815000	      4980	80005538	00bd7c63	bgeu	x26,x11,80005550	 x26:0x80009fc4 x11:0x0000056e
       49825000	      4981	00000000	00000013	addi	x0,x0,0	  x0:0x00000000
       49835000	      4982	8000554c	00000013	addi	x0,x0,0	  x0:0x00000000
       49845000	      4983	80005550	0174e263	bltu	x9,x23,80005554	  x9:0x00000100 x23:0x00000000
       49855000	      4984	80005554	0b1376b7	lui	x13,0xb137	 x13=0x0b137000
       49865000	      4985	80005558	034e7063	bgeu	x28,x20,80005578	 x28:0x800077fd x20:0x00000001
       49875000	      4986	00000000	00000013	addi	x0,x0,0	  x0:0x00000000
       49885000	      4987	80005574	00000013	addi	x0,x0,0	  x0:0x00000000
       49895000	      4988	80005578	04a41663	bne	x8,x10,800055c4	  x8:0x00000000 x10:0x00000000
       49905000	      4989	8000557c	00000013	addi	x0,x0,0	  x0:0x00000000
       49915000	      4990	80005580	02334c63	blt	x6,x3,800055b8	  x6:0x40a6b000  x3:0x20efeb8e
       49925000	      4991	80005584	01a55093	srli	x1,x10,0x1a	 x10:0x00000000  x1=0x00000000
       49935000	      4992	80005588	01ec0a33	add	x20,x24,x30	 x24:0x80009fc4 x30:0x00000000 x20=0x80009fc4
       49945000	      4993	8000558c	4ced7f17	auipc	x30,0x4ced7	 x30=0xccedc588
       49955000	      4994	80005590	40315db3	sra	x27,x2,x3	  x2:0xfffffb32  x3:0x20efeb8e x27=0xffffffff
       49965000	      4995	80005594	01c67b33	and	x22,x12,x28	 x12:0x00000000 x28:0x800077fd x22=0x00000000
       49975000	      4996	80005598	74e77d93	andi	x27,x14,1870	 x14:0x00000000 x27=0x00000000
       49985000	      4997	8000559c	015bd213	srli	x4,x23,0x15	 x23:0x00000000  x4=0x00000000
       49995000	      4998	800055a0	01fe5933	srl	x18,x28,x31	 x28:0x800077fd x31:0x00000000 x18=0x800077fd
       50005000	      4999	800055a4	014bc533	xor	x10,x23,x20	 x23:0x00000000 x20:0x80009fc4 x10=0x80009fc4
       50015000	      5000	800055a8	00000013	addi	x0,x0,0	  x0:0x00000000
       50025000	      5001	800055ac	f4602937	lui	x18,0xf4602	 x18=0xf4602000
       50035000	      5002	800055b0	413e5733	sra	x14,x28,x19	 x28:0x800077fd x19:0x00000000 x14=0x800077fd
       50045000	      5003	800055b4	0057b6b3	sltu	x13,x15,x5	 x15:0x80009eb4  x5:0x00000000 x13=0x00000000
       50055000	      5004	800055b8	00f50833	add	x16,x10,x15	 x10:0x80009fc4 x15:0x80009eb4 x16=0x00013e78
       50065000	      5005	800055bc	01deba33	sltu	x20,x29,x29	 x29:0xfffffff6 x29:0xfffffff6 x20=0x00000000
       50075000	      5006	800055c0	405f0033	sub	x0,x30,x5	 x30:0xccedc588  x5:0x00000000
       50085000	      5007	800055c4	ef454e93	xori	x29,x10,-268	 x10:0x80009fc4 x29=0x7fff6130
       50095000	      5008	800055c8	015e3933	sltu	x18,x28,x21	 x28:0x800077fd x21:0x001487dc x18=0x00000000
       50105000	      5009	800055cc	0165e233	or	x4,x11,x22	 x11:0x0000056e x22:0x00000000  x4=0x0000056e
       50115000	      5010	800055d0	d6ce6013	ori	x0,x28,-660	 x28:0x800077fd
       50125000	      5011	800055d4	02447463	bgeu	x8,x4,800055fc	  x8:0x00000000  x4:0x0000056e
       50135000	      5012	800055d8	05007463	bgeu	x0,x16,80005620	  x0:0x00000000 x16:0x00013e78
       50145000	      5013	800055dc	0108d713	srli	x14,x17,0x10	 x17:0x00000000 x14=0x00000000
       50155000	      5014	800055e0	008d1093	slli	x1,x26,0x8	 x26:0x80009fc4  x1=0x009fc400
       50165000	      5015	800055e4	403105b3	sub	x11,x2,x3	  x2:0xfffffb32  x3:0x20efeb8e x11=0xdf100fa4
       50175000	      5016	800055e8	70d67b13	andi	x22,x12,1805	 x12:0x00000000 x22=0x00000000
       50185000	      5017	800055ec	01275263	bge	x14,x18,800055f0	 x14:0x00000000 x18:0x00000000
       50195000	      5018	00000000	00000013	addi	x0,x0,0	  x0:0x00000000
       50205000	      5019	800055ec	00000013	addi	x0,x0,0	  x0:0x00000000
       50215000	      5020	800055f0	00e7cbb3	xor	x23,x15,x14	 x15:0x80009eb4 x14:0x00000000 x23=0x80009eb4
       50225000	      5021	800055f4	0042bab3	sltu	x21,x5,x4	  x5:0x00000000  x4:0x0000056e x21=0x00000001
       50235000	      5022	800055f8	00dc1233	sll	x4,x24,x13	 x24:0x80009fc4 x13:0x00000000  x4=0x80009fc4
       50245000	      5023	800055fc	7abbd717	auipc	x14,0x7abbd	 x14=0xfabc25f8
       50255000	      5024	80005600	0196efb3	or	x31,x13,x25	 x13:0x00000000 x25:0x00000001 x31=0x00000001
       50265000	      5025	80005604	004259b3	srl	x19,x4,x4	  x4:0x80009fc4  x4:0x80009fc4 x19=0x080009fc
       50275000	      5026	80005608	40c6dd93	srai	x27,x13,0xc	 x13:0x00000000 x27=0x00000000
       50285000	      5027	8000560c	6f856eb7	lui	x29,0x6f856	 x29=0x6f856000
       50295000	      5028	80005610	05928663	beq	x5,x25,8000565c	  x5:0x00000000 x25:0x00000001
       50305000	      5029	80005614	00d32f33	slt	x30,x6,x13	  x6:0x40a6b000 x13:0x00000000 x30=0x00000000
       50315000	      5030	80005618	00e16233	or	x4,x2,x14	  x2:0xfffffb32 x14:0xfabc25f8  x4=0xfffffffa
       50325000	      5031	8000561c	05307663	bgeu	x0,x19,80005668	  x0:0x00000000 x19:0x080009fc
       50335000	      5032	80005620	5c8ca913	slti	x18,x25,1480	 x25:0x00000001 x18=0x00000001
       50345000	      5033	80005624	0181a233	slt	x4,x3,x24	  x3:0x20efeb8e x24:0x80009fc4  x4=0x00000000
       50355000	      5034	80005628	01bc6463	bltu	x24,x27,80005630	 x24:0x80009fc4 x27:0x00000000
       50365000	      5035	8000562c	9192dc17	auipc	x24,0x9192d	 x24=0x11932628
       50375000	      5036	80005630	004bd013	srli	x0,x23,0x4	 x23:0x80009eb4
       50385000	      5037	80005634	15997113	andi	x2,x18,345	 x18:0x00000001  x2=0x00000001
       50395000	      5038	80005638	00e16db3	or	x27,x2,x14	  x2:0x00000001 x14:0xfabc25f8 x27=0xfabc25f9
       50405000	      5039	8000563c	01614b33	xor	x22,x2,x22	  x2:0x00000001 x22:0x00000000 x22=0x00000001
       50415000	      5040	80005640	01b55a63	bge	x10,x27,80005654	 x10:0x80009fc4 x27:0xfabc25f9
       50425000	      5041	80005644	035b0263	beq	x22,x21,80005668	 x22:0x00000001 x21:0x00000001
       50435000	      5042	00000000	00000013	addi	x0,x0,0	  x0:0x00000000
       50445000	      5043	80005664	00000013	addi	x0,x0,0	  x0:0x00000000
       50455000	      5044	80005668	4178da93	srai	x21,x17,0x17	 x17:0x00000000 x21=0x00000000
       50465000	      5045	8000566c	b53ffe13	andi	x28,x31,-1197	 x31:0x00000001 x28=0x00000001
       50475000	      5046	80005670	41265ab3	sra	x21,x12,x18	 x12:0x00000000 x18:0x00000001 x21=0x00000000
       50485000	      5047	80005674	000f0c63	beq	x30,x0,8000568c	 x30:0x00000000  x0:0x00000000
       50495000	      5048	00000000	00000013	addi	x0,x0,0	  x0:0x00000000
       50505000	      5049	80005688	00000013	addi	x0,x0,0	  x0:0x00000000
       50515000	      5050	8000568c	eaa72813	slti	x16,x14,-342	 x14:0xfabc25f8 x16=0x00000001
       50525000	      5051	80005690	019c4263	blt	x24,x25,80005694	 x24:0x11932628 x25:0x00000001
       50535000	      5052	80005694	026b1063	bne	x22,x6,800056b4	 x22:0x00000001  x6:0x40a6b000
       50545000	      5053	00000000	00000013	addi	x0,x0,0	  x0:0x00000000
       50555000	      5054	800056b0	00000013	addi	x0,x0,0	  x0:0x00000000
       50565000	      5055	800056b4	0016c9b3	xor	x19,x13,x1	 x13:0x00000000  x1:0x009fc400 x19=0x009fc400
       50575000	      5056	800056b8	38804413	xori	x8,x0,904	  x0:0x00000000  x8=0x00000388
       50585000	      5057	800056bc	019999b3	sll	x19,x19,x25	 x19:0x009fc400 x25:0x00000001 x19=0x013f8800
       50595000	      5058	800056c0	419e8bb3	sub	x23,x29,x25	 x29:0x6f856000 x25:0x00000001 x23=0x6f855fff
       50605000	      5059	800056c4	407458b3	sra	x17,x8,x7	  x8:0x00000388  x7:0x40a6b56e x17=0x00000000
       50615000	      5060	800056c8	0527c663	blt	x15,x18,80005714	 x15:0x80009eb4 x18:0x00000001
       50625000	      5061	00000000	00000013	addi	x0,x0,0	  x0:0x00000000
       50635000	      5062	80005710	00000013	addi	x0,x0,0	  x0:0x00000000
       50645000	      5063	80005714	04924863	blt	x4,x9,80005764	  x4:0x00000000  x9:0x00000100
       50655000	      5064	00000000	00000013	addi	x0,x0,0	  x0:0x00000000
       50665000	      5065	80005760	00000013	addi	x0,x0,0	  x0:0x00000000
       50675000	      5066	80005764	021e9063	bne	x29,x1,80005784	 x29:0x6f856000  x1:0x009fc400
       50685000	      5067	00000000	00000013	addi	x0,x0,0	  x0:0x00000000
       50695000	      5068	80005780	00000013	addi	x0,x0,0	  x0:0x00000000
       50705000	      5069	80005784	01fce8b3	or	x17,x25,x31	 x25:0x00000001 x31:0x00000001 x17=0x00000001
       50715000	      5070	80005788	05268463	beq	x13,x18,800057d0	 x13:0x00000000 x18:0x00000001
       50725000	      5071	8000578c	5ca52513	slti	x10,x10,1482	 x10:0x80009fc4 x10=0x00000001
       50735000	      5072	80005790	e12a4e17	auipc	x28,0xe12a4	 x28=0x612a978c
       50745000	      5073	80005794	006edc33	srl	x24,x29,x6	 x29:0x6f856000  x6:0x40a6b000 x24=0x6f856000
       50755000	      5074	80005798	0183e833	or	x16,x7,x24	  x7:0x40a6b56e x24:0x6f856000 x16=0x6fa7f56e
       50765000	      5075	8000579c	02096c63	bltu	x18,x0,800057d4	 x18:0x00000001  x0:0x00000000
       50775000	      5076	800057a0	00cc83b3	add	x7,x25,x12	 x25:0x00000001 x12:0x00000000  x7=0x00000001
       50785000	      5077	800057a4	016c5e93	srli	x29,x24,0x16	 x24:0x6f856000 x29=0x000001be
       50795000	      5078	800057a8	0163df13	srli	x30,x7,0x16	  x7:0x00000001 x30=0x00000000
       50805000	      5079	800057ac	d70fa393	slti	x7,x31,-656	 x31:0x00000001  x7=0x00000000
       50815000	      5080	800057b0	537d4313	xori	x6,x26,1335	 x26:0x80009fc4  x6=0x80009af3
       50825000	      5081	800057b4	022bd663	bge	x23,x2,800057e0	 x23:0x6f855fff  x2:0x00000001
       50835000	      5082	00000000	00000013	addi	x0,x0,0	  x0:0x00000000
       50845000	      5083	800057dc	00000013	addi	x0,x0,0	  x0:0x00000000
       50855000	      5084	800057e0	008e5bb3	srl	x23,x28,x8	 x28:0x612a978c  x8:0x00000388 x23=0x00612a97
       50865000	      5085	800057e4	8535b893	sltiu	x17,x11,-1965	 x11:0xdf100fa4 x17=0x00000001
       50875000	      5086	800057e8	05c74663	blt	x14,x28,80005834	 x14:0xfabc25f8 x28:0x612a978c
       50885000	      5087	00000000	00000013	addi	x0,x0,0	  x0:0x00000000
       50895000	      5088	80005830	00000013	addi	x0,x0,0	  x0:0x00000000
       50905000	      5089	80005834	02ae0063	beq	x28,x10,80005854	 x28:0x612a978c x10:0x00000001
       50915000	      5090	80005838	01ba81b3	add	x3,x21,x27	 x21:0x00000000 x27:0xfabc25f9  x3=0xfabc25f9
       50925000	      5091	8000583c	01250863	beq	x10,x18,8000584c	 x10:0x00000001 x18:0x00000001
       50935000	      5092	00000000	00000013	addi	x0,x0,0	  x0:0x00000000
       50945000	      5093	80005848	00000013	addi	x0,x0,0	  x0:0x00000000
       50955000	      5094	8000584c	04895663	bge	x18,x8,80005898	 x18:0x00000001  x8:0x00000388
       50965000	      5095	80005850	31930b93	addi	x23,x6,793	  x6:0x80009af3 x23=0x80009e0c
       50975000	      5096	80005854	005e8a63	beq	x29,x5,80005868	 x29:0x000001be  x5:0x00000000
       50985000	      5097	80005858	41685e33	sra	x28,x16,x22	 x16:0x6fa7f56e x22:0x00000001 x28=0x37d3fab7
       50995000	      5098	8000585c	5b17ef93	ori	x31,x15,1457	 x15:0x80009eb4 x31=0x80009fb5
       51005000	      5099	80005860	005820b3	slt	x1,x16,x5	 x16:0x6fa7f56e  x5:0x00000000  x1=0x00000000
       51015000	      5100	80005864	00000013	addi	x0,x0,0	  x0:0x00000000
       51025000	      5101	80005868	00566663	bltu	x12,x5,80005874	 x12:0x00000000  x5:0x00000000
       51035000	      5102	8000586c	03f5e463	bltu	x11,x31,80005894	 x11:0xdf100fa4 x31:0x80009fb5
       51045000	      5103	80005870	01537933	and	x18,x6,x21	  x6:0x80009af3 x21:0x00000000 x18=0x00000000
       51055000	      5104	80005874	01405993	srli	x19,x0,0x14	  x0:0x00000000 x19=0x00000000
       51065000	      5105	80005878	00000013	addi	x0,x0,0	  x0:0x00000000
       51075000	      5106	8000587c	01f04a33	xor	x20,x0,x31	  x0:0x00000000 x31:0x80009fb5 x20=0x80009fb5
       51085000	      5107	80005880	00e0b133	sltu	x2,x1,x14	  x1:0x00000000 x14:0xfabc25f8  x2=0x00000001
       51095000	      5108	80005884	00d24833	xor	x16,x4,x13	  x4:0x00000000 x13:0x00000000 x16=0x00000000
       51105000	      5109	80005888	05078263	beq	x15,x16,800058cc	 x15:0x80009eb4 x16:0x00000000
       51115000	      5110	8000588c	506bf293	andi	x5,x23,1286	 x23:0x80009e0c  x5=0x00000404
       51125000	      5111	80005890	013e9c63	bne	x29,x19,800058a8	 x29:0x000001be x19:0x00000000
       51135000	      5112	00000000	00000013	addi	x0,x0,0	  x0:0x00000000
       51145000	      5113	800058a4	00000013	addi	x0,x0,0	  x0:0x00000000
       51155000	      5114	800058a8	047b5863	bge	x22,x7,800058f8	 x22:0x00000001  x7:0x00000000
       51165000	      5115	00000000	00000013	addi	x0,x0,0	  x0:0x00000000
       51175000	      5116	800058f4	00000013	addi	x0,x0,0	  x0:0x00000000
       51185000	      5117	800058f8	00995b93	srli	x23,x18,0x9	 x18:0x00000000 x23=0x00000000
       51195000	      5118	800058fc	01633fb3	sltu	x31,x6,x22	  x6:0x80009af3 x22:0x00000001 x31=0x00000000
       51205000	      5119	80005900	5a43c493	xori	x9,x7,1444	  x7:0x00000000  x9=0x000005a4
       51215000	      5120	80005904	05a16463	bltu	x2,x26,8000594c	  x2:0x00000001 x26:0x80009fc4
       51225000	      5121	00000000	00000013	addi	x0,x0,0	  x0:0x00000000
       51235000	      5122	80005948	00000013	addi	x0,x0,0	  x0:0x00000000
       51245000	      5123	8000594c	0bc08c93	addi	x25,x1,188	  x1:0x00000000 x25=0x000000bc
       51255000	      5124	80005950	01edbf33	sltu	x30,x27,x30	 x27:0xfabc25f9 x30:0x00000000 x30=0x00000000
       51265000	      5125	80005954	68de4993	xori	x19,x28,1677	 x28:0x37d3fab7 x19=0x37d3fc3a
       51275000	      5126	80005958	01dc1bb3	sll	x23,x24,x29	 x24:0x6f856000 x29:0x000001be x23=0x00000000
       51285000	      5127	8000595c	00a7d263	bge	x15,x10,80005960	 x15:0x80009eb4 x10:0x00000001
       51295000	      5128	80005960	00fe24b3	slt	x9,x28,x15	 x28:0x37d3fab7 x15:0x80009eb4  x9=0x00000000
       51305000	      5129	80005964	00285993	srli	x19,x16,0x2	 x16:0x00000000 x19=0x00000000
       51315000	      5130	80005968	7411ef93	ori	x31,x3,1857	  x3:0xfabc25f9 x31=0xfabc27f9
       51325000	      5131	8000596c	0455e463	bltu	x11,x5,800059b4	 x11:0xdf100fa4  x5:0x00000404
       51335000	      5132	80005970	e0ebb013	sltiu	x0,x23,-498	 x23:0x00000000
       51345000	      5133	80005974	40325e33	sra	x28,x4,x3	  x4:0x00000000  x3:0xfabc25f9 x28=0x00000000
       51355000	      5134	80005978	013f5313	srli	x6,x30,0x13	 x30:0x00000000  x6=0x00000000
       51365000	      5135	8000597c	00f5ee33	or	x28,x11,x15	 x11:0xdf100fa4 x15:0x80009eb4 x28=0xdf109fb4
       51375000	      5136	80005980	6a8b3413	sltiu	x8,x22,1704	 x22:0x00000001  x8=0x00000001
       51385000	      5137	80005984	ca3665b7	lui	x11,0xca366	 x11=0xca366000
       51395000	      5138	80005988	9e796c93	ori	x25,x18,-1561	 x18:0x00000000 x25=0xfffff9e7
       51405000	      5139	8000598c	78e22893	slti	x17,x4,1934	  x4:0x00000000 x17=0x00000001
       51415000	      5140	80005990	00db92b3	sll	x5,x23,x13	 x23:0x00000000 x13:0x00000000  x5=0x00000000
       51425000	      5141	80005994	05510263	beq	x2,x21,800059d8	  x2:0x00000001 x21:0x00000000
       51435000	      5142	80005998	054ec463	blt	x29,x20,800059e0	 x29:0x000001be x20:0x80009fb5
       51445000	      5143	8000599c	c225fb13	andi	x22,x11,-990	 x11:0xca366000 x22=0xca366000
       51455000	      5144	800059a0	01085293	srli	x5,x16,0x10	 x16:0x00000000  x5=0x00000000
       51465000	      5145	800059a4	4e4791b7	lui	x3,0x4e479	  x3=0x4e479000
       51475000	      5146	800059a8	028e5263	bge	x28,x8,800059cc	 x28:0xdf109fb4  x8:0x00000001
       51485000	      5147	800059ac	01776263	bltu	x14,x23,800059b0	 x14:0xfabc25f8 x23:0x00000000
       51495000	      5148	800059b0	e074f513	andi	x10,x9,-505	  x9:0x00000000 x10=0x00000000
       51505000	      5149	800059b4	00f46663	bltu	x8,x15,800059c0	  x8:0x00000001 x15:0x80009eb4
       51515000	      5150	00000000	00000013	addi	x0,x0,0	  x0:0x00000000
       51525000	      5151	800059bc	00000013	addi	x0,x0,0	  x0:0x00000000
       51535000	      5152	800059c0	01b75863	bge	x14,x27,800059d0	 x14:0xfabc25f8 x27:0xfabc25f9
       51545000	      5153	800059c4	5a6fbb93	sltiu	x23,x31,1446	 x31:0xfabc27f9 x23=0x00000000
       51555000	      5154	800059c8	01f7ceb3	xor	x29,x15,x31	 x15:0x80009eb4 x31:0xfabc27f9 x29=0x7abcb94d
       51565000	      5155	800059cc	018dbeb3	sltu	x29,x27,x24	 x27:0xfabc25f9 x24:0x6f856000 x29=0x00000000
       51575000	      5156	800059d0	419509b3	sub	x19,x10,x25	 x10:0x00000000 x25:0xfffff9e7 x19=0x00000619
       51585000	      5157	800059d4	861fbd93	sltiu	x27,x31,-1951	 x31:0xfabc27f9 x27=0x00000001
       51595000	      5158	800059d8	ab29b193	sltiu	x3,x19,-1358	 x19:0x00000619  x3=0x00000001
       51605000	      5159	800059dc	00751733	sll	x14,x10,x7	 x10:0x00000000  x7:0x00000000 x14=0x00000000
       51615000	      5160	800059e0	0044e663	bltu	x9,x4,800059ec	  x9:0x00000000  x4:0x00000000
       51625000	      5161	800059e4	013f10b3	sll	x1,x30,x19	 x30:0x00000000 x19:0x00000619  x1=0x00000000
       51635000	      5162	800059e8	0137e233	or	x4,x15,x19	 x15:0x80009eb4 x19:0x00000619  x4=0x80009ebd
       51645000	      5163	800059ec	00ffaeb3	slt	x29,x31,x15	 x31:0xfabc27f9 x15:0x80009eb4 x29=0x00000000
       51655000	      5164	800059f0	002139b3	sltu	x19,x2,x2	  x2:0x00000001  x2:0x00000001 x19=0x00000000
       51665000	      5165	800059f4	01627a63	bgeu	x4,x22,80005a08	  x4:0x80009ebd x22:0xca366000
       51675000	      5166	800059f8	00a16db3	or	x27,x2,x10	  x2:0x00000001 x10:0x00000000 x27=0x00000001
       51685000	      5167	800059fc	00f5fbb3	and	x23,x11,x15	 x11:0xca366000 x15:0x80009eb4 x23=0x80000000
       51695000	      5168	80005a00	0018cfb3	xor	x31,x17,x1	 x17:0x00000001  x1:0x00000000 x31=0x00000001
       51705000	      5169	80005a04	006a9913	slli	x18,x21,0x6	 x21:0x00000000 x18=0x00000000
       51715000	      5170	80005a08	01e29293	slli	x5,x5,0x1e	  x5:0x00000000  x5=0x00000000
       51725000	      5171	80005a0c	01f05a33	srl	x20,x0,x31	  x0:0x00000000 x31:0x00000001 x20=0x00000000
       51735000	      5172	80005a10	01c99013	slli	x0,x19,0x1c	 x19:0x00000000
       51745000	      5173	80005a14	01953a33	sltu	x20,x10,x25	 x10:0x00000000 x25:0xfffff9e7 x20=0x00000001
       51755000	      5174	80005a18	054e6463	bltu	x28,x20,80005a60	 x28:0xdf109fb4 x20:0x00000001
       51765000	      5175	80005a1c	0043c0b3	xor	x1,x7,x4	  x7:0x00000000  x4:0x80009ebd  x1=0x80009ebd
       51775000	      5176	80005a20	a05c8913	addi	x18,x25,-1531	 x25:0xfffff9e7 x18=0xfffff3ec
       51785000	      5177	80005a24	00269e63	bne	x13,x2,80005a40	 x13:0x00000000  x2:0x00000001
       51795000	      5178	00000000	00000013	addi	x0,x0,0	  x0:0x00000000
       51805000	      5179	80005a3c	00000013	addi	x0,x0,0	  x0:0x00000000
       51815000	      5180	80005a40	009cda93	srli	x21,x25,0x9	 x25:0xfffff9e7 x21=0x007ffffc
       51825000	      5181	80005a44	c2bbc493	xori	x9,x23,-981	 x23:0x80000000  x9=0x7ffffc2b
       51835000	      5182	80005a48	02125663	bge	x4,x1,80005a74	  x4:0x80009ebd  x1:0x80009ebd
       51845000	      5183	00000000	00000013	addi	x0,x0,0	  x0:0x00000000
       51855000	      5184	80005a70	00000013	addi	x0,x0,0	  x0:0x00000000
       51865000	      5185	80005a74	0295d063	bge	x11,x9,80005a94	 x11:0xca366000  x9:0x7ffffc2b
       51875000	      5186	80005a78	00011eb3	sll	x29,x2,x0	  x2:0x00000001  x0:0x00000000 x29=0x00000001
       51885000	      5187	80005a7c	01e154b3	srl	x9,x2,x30	  x2:0x00000001 x30:0x00000000  x9=0x00000001
       51895000	      5188	80005a80	00e624b3	slt	x9,x12,x14	 x12:0x00000000 x14:0x00000000  x9=0x00000000
       51905000	      5189	80005a84	03ca0063	beq	x20,x28,80005aa4	 x20:0x00000001 x28:0xdf109fb4
       51915000	      5190	80005a88	01194833	xor	x16,x18,x17	 x18:0xfffff3ec x17:0x00000001 x16=0xfffff3ed
       51925000	      5191	80005a8c	030cee63	bltu	x25,x16,80005ac8	 x25:0xfffff9e7 x16:0xfffff3ed
       51935000	      5192	80005a90	00000013	addi	x0,x0,0	  x0:0x00000000
       51945000	      5193	80005a94	00763e33	sltu	x28,x12,x7	 x12:0x00000000  x7:0x00000000 x28=0x00000000
       51955000	      5194	80005a98	01342133	slt	x2,x8,x19	  x8:0x00000001 x19:0x00000000  x2=0x00000000
       51965000	      5195	80005a9c	013c6733	or	x14,x24,x19	 x24:0x6f856000 x19:0x00000000 x14=0x6f856000
       51975000	      5196	80005aa0	b33f0513	addi	x10,x30,-1229	 x30:0x00000000 x10=0xfffffb33
       51985000	      5197	80005aa4	010695b3	sll	x11,x13,x16	 x13:0x00000000 x16:0xfffff3ed x11=0x00000000
       51995000	      5198	80005aa8	403f5fb3	sra	x31,x30,x3	 x30:0x00000000  x3:0x00000001 x31=0x00000000
       52005000	      5199	80005aac	01015eb3	srl	x29,x2,x16	  x2:0x00000000 x16:0xfffff3ed x29=0x00000000
       52015000	      5200	80005ab0	00480bb3	add	x23,x16,x4	 x16:0xfffff3ed  x4:0x80009ebd x23=0x800092aa
       52025000	      5201	80005ab4	008eb833	sltu	x16,x29,x8	 x29:0x00000000  x8:0x00000001 x16=0x00000001
       52035000	      5202	80005ab8	00000013	addi	x0,x0,0	  x0:0x00000000
       52045000	      5203	80005abc	620abc93	sltiu	x25,x21,1568	 x21:0x007ffffc x25=0x00000000
       52055000	      5204	80005ac0	03808c63	beq	x1,x24,80005af8	  x1:0x80009ebd x24:0x6f856000
       52065000	      5205	80005ac4	0002d733	srl	x14,x5,x0	  x5:0x00000000  x0:0x00000000 x14=0x00000000
       52075000	      5206	80005ac8	4178db33	sra	x22,x17,x23	 x17:0x00000001 x23:0x800092aa x22=0x00000000
       52085000	      5207	80005acc	40875593	srai	x11,x14,0x8	 x14:0x00000000 x11=0x00000000
       52095000	      5208	80005ad0	a3226813	ori	x16,x4,-1486	  x4:0x80009ebd x16=0xfffffebf
       52105000	      5209	80005ad4	000c6333	or	x6,x24,x0	 x24:0x6f856000  x0:0x00000000  x6=0x6f856000
       52115000	      5210	80005ad8	00ae3233	sltu	x4,x28,x10	 x28:0x00000000 x10:0xfffffb33  x4=0x00000001
       52125000	      5211	80005adc	00d6a133	slt	x2,x13,x13	 x13:0x00000000 x13:0x00000000  x2=0x00000000
       52135000	      5212	80005ae0	41e1d093	srai	x1,x3,0x1e	  x3:0x00000001  x1=0x00000000
       52145000	      5213	80005ae4	ace29937	lui	x18,0xace29	 x18=0xace29000
       52155000	      5214	80005ae8	059fc663	blt	x31,x25,80005b34	 x31:0x00000000 x25:0x00000000
       52165000	      5215	80005aec	005f2f33	slt	x30,x30,x5	 x30:0x00000000  x5:0x00000000 x30=0x00000000
       52175000	      5216	80005af0	6601af13	slti	x30,x3,1632	  x3:0x00000001 x30=0x00000001
       52185000	      5217	80005af4	02568c63	beq	x13,x5,80005b2c	 x13:0x00000000  x5:0x00000000
       52195000	      5218	00000000	00000013	addi	x0,x0,0	  x0:0x00000000
       52205000	      5219	80005b28	00000013	addi	x0,x0,0	  x0:0x00000000
       52215000	      5220	80005b2c	019ace63	blt	x21,x25,80005b48	 x21:0x007ffffc x25:0x00000000
       52225000	      5221	80005b30	409b09b3	sub	x19,x22,x9	 x22:0x00000000  x9:0x00000000 x19=0x00000000
       52235000	      5222	80005b34	91361f37	lui	x30,0x91361	 x30=0x91361000
       52245000	      5223	80005b38	4b247013	andi	x0,x8,1202	  x8:0x00000001
       52255000	      5224	80005b3c	003c1f33	sll	x30,x24,x3	 x24:0x6f856000  x3:0x00000001 x30=0xdf0ac000
       52265000	      5225	80005b40	77e6ba93	sltiu	x21,x13,1918	 x13:0x00000000 x21=0x00000001
       52275000	      5226	80005b44	41a75033	sra	x0,x14,x26	 x14:0x00000000 x26:0x80009fc4
       52285000	      5227	80005b48	01e80db3	add	x27,x16,x30	 x16:0xfffffebf x30:0xdf0ac000 x27=0xdf0abebf
       52295000	      5228	80005b4c	016c75b3	and	x11,x24,x22	 x24:0x6f856000 x22:0x00000000 x11=0x00000000
       52305000	      5229	80005b50	0125a333	slt	x6,x11,x18	 x11:0x00000000 x18:0xace29000  x6=0x00000000
       52315000	      5230	80005b54	001b4263	blt	x22,x1,80005b58	 x22:0x00000000  x1:0x00000000
       52325000	      5231	80005b58	006593b3	sll	x7,x11,x6	 x11:0x00000000  x6:0x00000000  x7=0x00000000
       52335000	      5232	80005b5c	00305463	bge	x0,x3,80005b64	  x0:0x00000000  x3:0x00000001
       52345000	      5233	80005b60	40eedb13	srai	x22,x29,0xe	 x29:0x00000000 x22=0x00000000
       52355000	      5234	80005b64	00000013	addi	x0,x0,0	  x0:0x00000000
       52365000	      5235	80005b68	8592f493	andi	x9,x5,-1959	  x5:0x00000000  x9=0x00000000
       52375000	      5236	80005b6c	33a20237	lui	x4,0x33a20	  x4=0x33a20000
       52385000	      5237	80005b70	4f04c317	auipc	x6,0x4f04c	  x6=0xcf051b6c
       52395000	      5238	80005b74	05560663	beq	x12,x21,80005bc0	 x12:0x00000000 x21:0x00000001
       52405000	      5239	80005b78	f37df593	andi	x11,x27,-201	 x27:0xdf0abebf x11=0xdf0abe37
       52415000	      5240	80005b7c	000f5013	srli	x0,x30,0x0	 x30:0xdf0ac000
       52425000	      5241	80005b80	02da7063	bgeu	x20,x13,80005ba0	 x20:0x00000001 x13:0x00000000
       52435000	      5242	00000000	00000013	addi	x0,x0,0	  x0:0x00000000
       52445000	      5243	80005b9c	00000013	addi	x0,x0,0	  x0:0x00000000
       52455000	      5244	80005ba0	003fdc63	bge	x31,x3,80005bb8	 x31:0x00000000  x3:0x00000001
       52465000	      5245	80005ba4	018b02b3	add	x5,x22,x24	 x22:0x00000000 x24:0x6f856000  x5=0x6f856000
       52475000	      5246	80005ba8	05401663	bne	x0,x20,80005bf4	  x0:0x00000000 x20:0x00000001
       52485000	      5247	00000000	00000013	addi	x0,x0,0	  x0:0x00000000
       52495000	      5248	80005bf0	00000013	addi	x0,x0,0	  x0:0x00000000
       52505000	      5249	80005bf4	00605133	srl	x2,x0,x6	  x0:0x00000000  x6:0xcf051b6c  x2=0x00000000
       52515000	      5250	80005bf8	8d608e13	addi	x28,x1,-1834	  x1:0x00000000 x28=0xfffff8d6
       52525000	      5251	80005bfc	4193d693	srai	x13,x7,0x19	  x7:0x00000000 x13=0x00000000
       52535000	      5252	80005c00	02c74e63	blt	x14,x12,80005c3c	 x14:0x00000000 x12:0x00000000
       52545000	      5253	80005c04	01b7c9b3	xor	x19,x15,x27	 x15:0x80009eb4 x27:0xdf0abebf x19=0x5f0a200b
       52555000	      5254	80005c08	934b8413	addi	x8,x23,-1740	 x23:0x800092aa  x8=0x80008bde
       52565000	      5255	80005c0c	ad7e2593	slti	x11,x28,-1321	 x28:0xfffff8d6 x11=0x00000001
       52575000	      5256	80005c10	03d41063	bne	x8,x29,80005c30	  x8:0x80008bde x29:0x00000000
       52585000	      5257	00000000	00000013	addi	x0,x0,0	  x0:0x00000000
       52595000	      5258	80005c2c	00000013	addi	x0,x0,0	  x0:0x00000000
       52605000	      5259	80005c30	008a1293	slli	x5,x20,0x8	 x20:0x00000001  x5=0x00000100
       52615000	      5260	80005c34	79303b13	sltiu	x22,x0,1939	  x0:0x00000000 x22=0x00000001
       52625000	      5261	80005c38	02af8263	beq	x31,x10,80005c5c	 x31:0x00000000 x10:0xfffffb33
       52635000	      5262	80005c3c	400bd433	sra	x8,x23,x0	 x23:0x800092aa  x0:0x00000000  x8=0x800092aa
       52645000	      5263	80005c40	03edc063	blt	x27,x30,80005c60	 x27:0xdf0abebf x30:0xdf0ac000
       52655000	      5264	00000000	00000013	addi	x0,x0,0	  x0:0x00000000
       52665000	      5265	80005c5c	00000013	addi	x0,x0,0	  x0:0x00000000
       52675000	      5266	80005c60	037d9463	bne	x27,x23,80005c88	 x27:0xdf0abebf x23:0x800092aa
       52685000	      5267	00000000	00000013	addi	x0,x0,0	  x0:0x00000000
       52695000	      5268	80005c84	00000013	addi	x0,x0,0	  x0:0x00000000
       52705000	      5269	80005c88	0db52213	slti	x4,x10,219	 x10:0xfffffb33  x4=0x00000001
       52715000	      5270	80005c8c	4f8c9d97	auipc	x27,0x4f8c9	 x27=0xcf8cec88
       52725000	      5271	80005c90	05509463	bne	x1,x21,80005cd8	  x1:0x00000000 x21:0x00000001
       52735000	      5272	00000000	00000013	addi	x0,x0,0	  x0:0x00000000
       52745000	      5273	80005cd4	00000013	addi	x0,x0,0	  x0:0x00000000
       52755000	      5274	80005cd8	014cffb3	and	x31,x25,x20	 x25:0x00000000 x20:0x00000001 x31=0x00000000
       52765000	      5275	80005cdc	00f72033	slt	x0,x14,x15	 x14:0x00000000 x15:0x80009eb4
       52775000	      5276	80005ce0	01711893	slli	x17,x2,0x17	  x2:0x00000000 x17=0x00000000
       52785000	      5277	80005ce4	41efde33	sra	x28,x31,x30	 x31:0x00000000 x30:0xdf0ac000 x28=0x00000000
       52795000	      5278	80005ce8	01dfecb3	or	x25,x31,x29	 x31:0x00000000 x29:0x00000000 x25=0x00000000
       52805000	      5279	80005cec	03f07c63	bgeu	x0,x31,80005d24	  x0:0x00000000 x31:0x00000000
       52815000	      5280	00000000	00000013	addi	x0,x0,0	  x0:0x00000000
       52825000	      5281	80005d20	00000013	addi	x0,x0,0	  x0:0x00000000
       52835000	      5282	80005d24	0022ea63	bltu	x5,x2,80005d38	  x5:0x00000100  x2:0x00000000
       52845000	      5283	80005d28	0410c463	blt	x1,x1,80005d70	  x1:0x00000000  x1:0x00000000
       52855000	      5284	80005d2c	00000013	addi	x0,x0,0	  x0:0x00000000
       52865000	      5285	80005d30	010f7433	and	x8,x30,x16	 x30:0xdf0ac000 x16:0xfffffebf  x8=0xdf0ac000
       52875000	      5286	80005d34	01b01463	bne	x0,x27,80005d3c	  x0:0x00000000 x27:0xcf8cec88
       52885000	      5287	00000000	00000013	addi	x0,x0,0	  x0:0x00000000
       52895000	      5288	80005d38	00000013	addi	x0,x0,0	  x0:0x00000000
       52905000	      5289	80005d3c	7dfc3093	sltiu	x1,x24,2015	 x24:0x6f856000  x1=0x00000000
       52915000	      5290	80005d40	041dd663	bge	x27,x1,80005d8c	 x27:0xcf8cec88  x1:0x00000000
       52925000	      5291	80005d44	413d8ab3	sub	x21,x27,x19	 x27:0xcf8cec88 x19:0x5f0a200b x21=0x7082cc7d
       52935000	      5292	80005d48	fee7c213	xori	x4,x15,-18	 x15:0x80009eb4  x4=0x7fff615a
       52945000	      5293	80005d4c	3f1abb93	sltiu	x23,x21,1009	 x21:0x7082cc7d x23=0x00000000
       52955000	      5294	80005d50	00426863	bltu	x4,x4,80005d60	  x4:0x7fff615a  x4:0x7fff615a
       52965000	      5295	80005d54	8a2bc017	auipc	x0,0x8a2bc	
       52975000	      5296	80005d58	005f1e63	bne	x30,x5,80005d74	 x30:0xdf0ac000  x5:0x00000100
       52985000	      5297	00000000	00000013	addi	x0,x0,0	  x0:0x00000000
       52995000	      5298	80005d70	00000013	addi	x0,x0,0	  x0:0x00000000
       53005000	      5299	80005d74	0e08a313	slti	x6,x17,224	 x17:0x00000000  x6=0x00000001
       53015000	      5300	80005d78	42ac7a13	andi	x20,x24,1066	 x24:0x6f856000 x20=0x00000000
       53025000	      5301	80005d7c	00000013	addi	x0,x0,0	  x0:0x00000000
       53035000	      5302	80005d80	01244533	xor	x10,x8,x18	  x8:0xdf0ac000 x18:0xace29000 x10=0x73e85000
       53045000	      5303	80005d84	35f7ee13	ori	x28,x15,863	 x15:0x80009eb4 x28=0x80009fff
       53055000	      5304	80005d88	019e8c63	beq	x29,x25,80005da0	 x29:0x00000000 x25:0x00000000
       53065000	      5305	00000000	00000013	addi	x0,x0,0	  x0:0x00000000
       53075000	      5306	80005d9c	00000013	addi	x0,x0,0	  x0:0x00000000
       53085000	      5307	80005da0	052a6663	bltu	x20,x18,80005dec	 x20:0x00000000 x18:0xace29000
       53095000	      5308	00000000	00000013	addi	x0,x0,0	  x0:0x00000000
       53105000	      5309	80005de8	00000013	addi	x0,x0,0	  x0:0x00000000
       53115000	      5310	80005dec	bace2a93	slti	x21,x28,-1108	 x28:0x80009fff x21=0x00000001
       53125000	      5311	80005df0	41c0d813	srai	x16,x1,0x1c	  x1:0x00000000 x16=0x00000000
       53135000	      5312	80005df4	01e19293	slli	x5,x3,0x1e	  x3:0x00000001  x5=0x40000000
       53145000	      5313	80005df8	00415eb3	srl	x29,x2,x4	  x2:0x00000000  x4:0x7fff615a x29=0x00000000
       53155000	      5314	80005dfc	017c5c33	srl	x24,x24,x23	 x24:0x6f856000 x23:0x00000000 x24=0x6f856000
       53165000	      5315	80005e00	24056e97	auipc	x29,0x24056	 x29=0xa405bdfc
       53175000	      5316	80005e04	05c45663	bge	x8,x28,80005e50	  x8:0xdf0ac000 x28:0x80009fff
       53185000	      5317	00000000	00000013	addi	x0,x0,0	  x0:0x00000000
       53195000	      5318	80005e4c	00000013	addi	x0,x0,0	  x0:0x00000000
       53205000	      5319	80005e50	006ea6b3	slt	x13,x29,x6	 x29:0xa405bdfc  x6:0x00000001 x13=0x00000001
       53215000	      5320	80005e54	01c78033	add	x0,x15,x28	 x15:0x80009eb4 x28:0x80009fff
       53225000	      5321	80005e58	00ceea33	or	x20,x29,x12	 x29:0xa405bdfc x12:0x00000000 x20=0xa405bdfc
       53235000	      5322	80005e5c	41a4dcb3	sra	x25,x9,x26	  x9:0x00000000 x26:0x80009fc4 x25=0x00000000
       53245000	      5323	80005e60	00dcc6b3	xor	x13,x25,x13	 x25:0x00000000 x13:0x00000001 x13=0x00000001
       53255000	      5324	80005e64	005280b3	add	x1,x5,x5	  x5:0x40000000  x5:0x40000000  x1=0x80000000
       53265000	      5325	80005e68	ed987293	andi	x5,x16,-295	 x16:0x00000000  x5=0x00000000
       53275000	      5326	80005e6c	03c78063	beq	x15,x28,80005e8c	 x15:0x80009eb4 x28:0x80009fff
       53285000	      5327	80005e70	00d63cb3	sltu	x25,x12,x13	 x12:0x00000000 x13:0x00000001 x25=0x00000001
       53295000	      5328	80005e74	01d0dd93	srli	x27,x1,0x1d	  x1:0x80000000 x27=0x00000004
       53305000	      5329	80005e78	005a8c63	beq	x21,x5,80005e90	 x21:0x00000001  x5:0x00000000
       53315000	      5330	80005e7c	03fe6463	bltu	x28,x31,80005ea4	 x28:0x80009fff x31:0x00000000
       53325000	      5331	80005e80	004fd0b3	srl	x1,x31,x4	 x31:0x00000000  x4:0x7fff615a  x1=0x00000000
       53335000	      5332	80005e84	40cddc33	sra	x24,x27,x12	 x27:0x00000004 x12:0x00000000 x24=0x00000004
       53345000	      5333	80005e88	00c364b3	or	x9,x6,x12	  x6:0x00000001 x12:0x00000000  x9=0x00000001
       53355000	      5334	80005e8c	5b1ec513	xori	x10,x29,1457	 x29:0xa405bdfc x10=0xa405b84d
       53365000	      5335	80005e90	00811813	slli	x16,x2,0x8	  x2:0x00000000 x16=0x00000000
       53375000	      5336	80005e94	b3c2e517	auipc	x10,0xb3c2e	 x10=0x33c33e90
       53385000	      5337	80005e98	01763bb3	sltu	x23,x12,x23	 x12:0x00000000 x23:0x00000000 x23=0x00000000
       53395000	      5338	80005e9c	00133db3	sltu	x27,x6,x1	  x6:0x00000001  x1:0x00000000 x27=0x00000000
       53405000	      5339	80005ea0	02a91e63	bne	x18,x10,80005edc	 x18:0xace29000 x10:0x33c33e90
       53415000	      5340	00000000	00000013	addi	x0,x0,0	  x0:0x00000000
       53425000	      5341	80005ed8	00000013	addi	x0,x0,0	  x0:0x00000000
       53435000	      5342	80005edc	406f5713	srai	x14,x30,0x6	 x30:0xdf0ac000 x14=0xff7c2b00
       53445000	      5343	80005ee0	30672f13	slti	x30,x14,774	 x14:0xff7c2b00 x30=0x00000001
       53455000	      5344	80005ee4	39496db7	lui	x27,0x39496	 x27=0x39496000
       53465000	      5345	80005ee8	405f5333	sra	x6,x30,x5	 x30:0x00000001  x5:0x00000000  x6=0x00000001
       53475000	      5346	80005eec	0048c863	blt	x17,x4,80005efc	 x17:0x00000000  x4:0x7fff615a
       53485000	      5347	00000000	00000013	addi	x0,x0,0	  x0:0x00000000
       53495000	      5348	80005ef8	00000013	addi	x0,x0,0	  x0:0x00000000
       53505000	      5349	80005efc	001cd093	srli	x1,x25,0x1	 x25:0x00000001  x1=0x00000000
       53515000	      5350	80005f00	0496f263	bgeu	x13,x9,80005f44	 x13:0x00000001  x9:0x00000001
       53525000	      5351	00000000	00000013	addi	x0,x0,0	  x0:0x00000000
       53535000	      5352	80005f40	00000013	addi	x0,x0,0	  x0:0x00000000
       53545000	      5353	80005f44	0010f6b3	and	x13,x1,x1	  x1:0x00000000  x1:0x00000000 x13=0x00000000
       53555000	      5354	80005f48	89313013	sltiu	x0,x2,-1901	  x2:0x00000000
       53565000	      5355	80005f4c	53fe8213	addi	x4,x29,1343	 x29:0xa405bdfc  x4=0xa405c33b
       53575000	      5356	80005f50	01190a63	beq	x18,x17,80005f64	 x18:0xace29000 x17:0x00000000
       53585000	      5357	80005f54	00a541b3	xor	x3,x10,x10	 x10:0x33c33e90 x10:0x33c33e90  x3=0x00000000
       53595000	      5358	80005f58	01d54733	xor	x14,x10,x29	 x10:0x33c33e90 x29:0xa405bdfc x14=0x97c6836c
       53605000	      5359	80005f5c	004f1693	slli	x13,x30,0x4	 x30:0x00000001 x13=0x00000010
       53615000	      5360	80005f60	00000013	addi	x0,x0,0	  x0:0x00000000
       53625000	      5361	80005f64	00b66f33	or	x30,x12,x11	 x12:0x00000000 x11:0x00000001 x30=0x00000001
       53635000	      5362	80005f68	0a96f697	auipc	x13,0xa96f	 x13=0x8a974f64
       53645000	      5363	80005f6c	0083da93	srli	x21,x7,0x8	  x7:0x00000000 x21=0x00000000
       53655000	      5364	80005f70	0019b4b3	sltu	x9,x19,x1	 x19:0x5f0a200b  x1:0x00000000  x9=0x00000000
       53665000	      5365	80005f74	01f7d513	srli	x10,x15,0x1f	 x15:0x80009eb4 x10=0x00000001
       53675000	      5366	80005f78	427c7413	andi	x8,x24,1063	 x24:0x00000004  x8=0x00000004
       53685000	      5367	80005f7c	01a7da93	srli	x21,x15,0x1a	 x15:0x80009eb4 x21=0x00000020
       53695000	      5368	80005f80	00844e63	blt	x8,x8,80005f9c	  x8:0x00000004  x8:0x00000004
       53705000	      5369	80005f84	00c58833	add	x16,x11,x12	 x11:0x00000001 x12:0x00000000 x16=0x00000001
       53715000	      5370	80005f88	002e39b3	sltu	x19,x28,x2	 x28:0x80009fff  x2:0x00000000 x19=0x00000000
       53725000	      5371	80005f8c	01119593	slli	x11,x3,0x11	  x3:0x00000000 x11=0x00000000
       53735000	      5372	80005f90	4130ddb3	sra	x27,x1,x19	  x1:0x00000000 x19:0x00000000 x27=0x00000000
       53745000	      5373	80005f94	00109e33	sll	x28,x1,x1	  x1:0x00000000  x1:0x00000000 x28=0x00000000
       53755000	      5374	80005f98	04381463	bne	x16,x3,80005fe0	 x16:0x00000001  x3:0x00000000
       53765000	      5375	00000000	00000013	addi	x0,x0,0	  x0:0x00000000
       53775000	      5376	80005fdc	00000013	addi	x0,x0,0	  x0:0x00000000
       53785000	      5377	80005fe0	0072ccb3	xor	x25,x5,x7	  x5:0x00000000  x7:0x00000000 x25=0x00000000
       53795000	      5378	80005fe4	012513b3	sll	x7,x10,x18	 x10:0x00000001 x18:0xace29000  x7=0x00000001
       53805000	      5379	80005fe8	d4f90f13	addi	x30,x18,-689	 x18:0xace29000 x30=0xace28d4f
       53815000	      5380	80005fec	04641863	bne	x8,x6,8000603c	  x8:0x00000004  x6:0x00000001
       53825000	      5381	00000000	00000013	addi	x0,x0,0	  x0:0x00000000
       53835000	      5382	80006038	00000013	addi	x0,x0,0	  x0:0x00000000
       53845000	      5383	8000603c	00c7f2b3	and	x5,x15,x12	 x15:0x80009eb4 x12:0x00000000  x5=0x00000000
       53855000	      5384	80006040	01699293	slli	x5,x19,0x16	 x19:0x00000000  x5=0x00000000
       53865000	      5385	80006044	00724333	xor	x6,x4,x7	  x4:0xa405c33b  x7:0x00000001  x6=0xa405c33a
       53875000	      5386	80006048	01fc6833	or	x16,x24,x31	 x24:0x00000004 x31:0x00000000 x16=0x00000004
       53885000	      5387	8000604c	db873893	sltiu	x17,x14,-584	 x14:0x97c6836c x17=0x00000001
       53895000	      5388	80006050	000e69b3	or	x19,x28,x0	 x28:0x00000000  x0:0x00000000 x19=0x00000000
       53905000	      5389	80006054	40485ab3	sra	x21,x16,x4	 x16:0x00000004  x4:0xa405c33b x21=0x00000000
       53915000	      5390	80006058	a10af593	andi	x11,x21,-1520	 x21:0x00000000 x11=0x00000000
       53925000	      5391	8000605c	008921b3	slt	x3,x18,x8	 x18:0xace29000  x8:0x00000004  x3=0x00000001
       53935000	      5392	80006060	0193e2b3	or	x5,x7,x25	  x7:0x00000001 x25:0x00000000  x5=0x00000001
       53945000	      5393	80006064	009df233	and	x4,x27,x9	 x27:0x00000000  x9:0x00000000  x4=0x00000000
       53955000	      5394	80006068	00a85263	bge	x16,x10,8000606c	 x16:0x00000004 x10:0x00000001
       53965000	      5395	00000000	00000013	addi	x0,x0,0	  x0:0x00000000
       53975000	      5396	80006068	00000013	addi	x0,x0,0	  x0:0x00000000
       53985000	      5397	8000606c	58186d93	ori	x27,x16,1409	 x16:0x00000004 x27=0x00000585
       53995000	      5398	80006070	d13e8c93	addi	x25,x29,-749	 x29:0xa405bdfc x25=0xa405bb0f
       54005000	      5399	80006074	00711013	slli	x0,x2,0x7	  x2:0x00000000
       54015000	      5400	80006078	01c25263	bge	x4,x28,8000607c	  x4:0x00000000 x28:0x00000000
       54025000	      5401	00000000	00000013	addi	x0,x0,0	  x0:0x00000000
       54035000	      5402	80006078	00000013	addi	x0,x0,0	  x0:0x00000000
       54045000	      5403	8000607c	010261b3	or	x3,x4,x16	  x4:0x00000000 x16:0x00000004  x3=0x00000004
       54055000	      5404	80006080	4093da33	sra	x20,x7,x9	  x7:0x00000001  x9:0x00000000 x20=0x00000001
       54065000	      5405	80006084	006a1333	sll	x6,x20,x6	 x20:0x00000001  x6:0xa405c33a  x6=0x04000000
       54075000	      5406	80006088	40ca83b3	sub	x7,x21,x12	 x21:0x00000000 x12:0x00000000  x7=0x00000000
       54085000	      5407	8000608c	b96cba93	sltiu	x21,x25,-1130	 x25:0xa405bb0f x21=0x00000001
       54095000	      5408	80006090	0527c463	blt	x15,x18,800060d8	 x15:0x80009eb4 x18:0xace29000
       54105000	      5409	00000000	00000013	addi	x0,x0,0	  x0:0x00000000
       54115000	      5410	800060d4	00000013	addi	x0,x0,0	  x0:0x00000000
       54125000	      5411	800060d8	03f01263	bne	x0,x31,800060fc	  x0:0x00000000 x31:0x00000000
       54135000	      5412	800060dc	00000013	addi	x0,x0,0	  x0:0x00000000
       54145000	      5413	800060e0	01e09b13	slli	x22,x1,0x1e	  x1:0x00000000 x22=0x00000000
       54155000	      5414	800060e4	008b9033	sll	x0,x23,x8	 x23:0x00000000  x8:0x00000004
       54165000	      5415	800060e8	00fa7333	and	x6,x20,x15	 x20:0x00000001 x15:0x80009eb4  x6=0x00000000
       54175000	      5416	800060ec	0056dc63	bge	x13,x5,80006104	 x13:0x8a974f64  x5:0x00000001
       54185000	      5417	800060f0	01a29233	sll	x4,x5,x26	  x5:0x00000001 x26:0x80009fc4  x4=0x00000010
       54195000	      5418	800060f4	0022bcb3	sltu	x25,x5,x2	  x5:0x00000001  x2:0x00000000 x25=0x00000000
       54205000	      5419	800060f8	00c36e33	or	x28,x6,x12	  x6:0x00000000 x12:0x00000000 x28=0x00000000
       54215000	      5420	800060fc	00000013	addi	x0,x0,0	  x0:0x00000000
       54225000	      5421	80006100	41f7d493	srai	x9,x15,0x1f	 x15:0x80009eb4  x9=0xffffffff
       54235000	      5422	80006104	3128ac97	auipc	x25,0x3128a	 x25=0xb1290100
       54245000	      5423	80006108	25dd3313	sltiu	x6,x26,605	 x26:0x80009fc4  x6=0x00000000
       54255000	      5424	8000610c	00bc06b3	add	x13,x24,x11	 x24:0x00000004 x11:0x00000000 x13=0x00000004
       54265000	      5425	80006110	00a7fa33	and	x20,x15,x10	 x15:0x80009eb4 x10:0x00000001 x20=0x00000000
       54275000	      5426	80006114	020f7063	bgeu	x30,x0,80006134	 x30:0xace28d4f  x0:0x00000000
       54285000	      5427	00000000	00000013	addi	x0,x0,0	  x0:0x00000000
       54295000	      5428	80006130	00000013	addi	x0,x0,0	  x0:0x00000000
       54305000	      5429	80006134	8f78b413	sltiu	x8,x17,-1801	 x17:0x00000001  x8=0x00000001
       54315000	      5430	80006138	fbc22913	slti	x18,x4,-68	  x4:0x00000010 x18=0x00000000
       54325000	      5431	8000613c	50f82a13	slti	x20,x16,1295	 x16:0x00000004 x20=0x00000001
       54335000	      5432	80006140	417b8133	sub	x2,x23,x23	 x23:0x00000000 x23:0x00000000  x2=0x00000000
       54345000	      5433	80006144	01de2db3	slt	x27,x28,x29	 x28:0x00000000 x29:0xa405bdfc x27=0x00000000
       54355000	      5434	80006148	00000013	addi	x0,x0,0	  x0:0x00000000
       54365000	      5435	8000614c	97366093	ori	x1,x12,-1677	 x12:0x00000000  x1=0xfffff973
       54375000	      5436	80006150	deedec97	auipc	x25,0xdeede	 x25=0x5eee414c
       54385000	      5437	80006154	ace03c37	lui	x24,0xace03	 x24=0xace03000
       54395000	      5438	80006158	44596597	auipc	x11,0x44596	 x11=0xc459c154
       54405000	      5439	8000615c	016074b3	and	x9,x0,x22	  x0:0x00000000 x22:0x00000000  x9=0x00000000
       54415000	      5440	80006160	62f3e193	ori	x3,x7,1583	  x7:0x00000000  x3=0x0000062f
       54425000	      5441	80006164	01b96263	bltu	x18,x27,80006168	 x18:0x00000000 x27:0x00000000
       54435000	      5442	80006168	3ece4c17	auipc	x24,0x3ece4	 x24=0xbecea164
       54445000	      5443	8000616c	011b9433	sll	x8,x23,x17	 x23:0x00000000 x17:0x00000001  x8=0x00000000
       54455000	      5444	80006170	0017a333	slt	x6,x15,x1	 x15:0x80009eb4  x1:0xfffff973  x6=0x00000001
       54465000	      5445	80006174	01711833	sll	x16,x2,x23	  x2:0x00000000 x23:0x00000000 x16=0x00000000
       54475000	      5446	80006178	405384b3	sub	x9,x7,x5	  x7:0x00000000  x5:0x00000001  x9=0xffffffff
       54485000	      5447	8000617c	0152efb3	or	x31,x5,x21	  x5:0x00000001 x21:0x00000001 x31=0x00000001
       54495000	      5448	80006180	f3dea493	slti	x9,x29,-195	 x29:0xa405bdfc  x9=0x00000001
       54505000	      5449	80006184	410483b3	sub	x7,x9,x16	  x9:0x00000001 x16:0x00000000  x7=0x00000001
       54515000	      5450	80006188	00e8f0b3	and	x1,x17,x14	 x17:0x00000001 x14:0x97c6836c  x1=0x00000000
       54525000	      5451	8000618c	41fcd5b3	sra	x11,x25,x31	 x25:0x5eee414c x31:0x00000001 x11=0x2f7720a6
       54535000	      5452	80006190	00288a63	beq	x17,x2,800061a4	 x17:0x00000001  x2:0x00000000
       54545000	      5453	80006194	40a60f33	sub	x30,x12,x10	 x12:0x00000000 x10:0x00000001 x30=0xffffffff
       54555000	      5454	80006198	eed8a513	slti	x10,x17,-275	 x17:0x00000001 x10=0x00000000
       54565000	      5455	8000619c	00979433	sll	x8,x15,x9	 x15:0x80009eb4  x9:0x00000001  x8=0x00013d68
       54575000	      5456	800061a0	00cf19b3	sll	x19,x30,x12	 x30:0xffffffff x12:0x00000000 x19=0xffffffff
       54585000	      5457	800061a4	00d636b3	sltu	x13,x12,x13	 x12:0x00000000 x13:0x00000004 x13=0x00000001
       54595000	      5458	800061a8	00daa0b3	slt	x1,x21,x13	 x21:0x00000001 x13:0x00000001  x1=0x00000000
       54605000	      5459	800061ac	41255413	srai	x8,x10,0x12	 x10:0x00000000  x8=0x00000000
       54615000	      5460	800061b0	411489b3	sub	x19,x9,x17	  x9:0x00000001 x17:0x00000001 x19=0x00000000
       54625000	      5461	800061b4	45d46b93	ori	x23,x8,1117	  x8:0x00000000 x23=0x0000045d
       54635000	      5462	800061b8	049c4663	blt	x24,x9,80006204	 x24:0xbecea164  x9:0x00000001
       54645000	      5463	00000000	00000013	addi	x0,x0,0	  x0:0x00000000
       54655000	      5464	80006200	00000013	addi	x0,x0,0	  x0:0x00000000
       54665000	      5465	80006204	00000013	addi	x0,x0,0	  x0:0x00000000
       54675000	      5466	80006208	00355863	bge	x10,x3,80006218	 x10:0x00000000  x3:0x0000062f
       54685000	      5467	8000620c	58293813	sltiu	x16,x18,1410	 x18:0x00000000 x16=0x00000001
       54695000	      5468	80006210	40c0d033	sra	x0,x1,x12	  x1:0x00000000 x12:0x00000000
       54705000	      5469	80006214	7010a713	slti	x14,x1,1793	  x1:0x00000000 x14=0x00000001
       54715000	      5470	80006218	40a0db33	sra	x22,x1,x10	  x1:0x00000000 x10:0x00000000 x22=0x00000000
       54725000	      5471	8000621c	0121db13	srli	x22,x3,0x12	  x3:0x0000062f x22=0x00000000
       54735000	      5472	80006220	00ce41b3	xor	x3,x28,x12	 x28:0x00000000 x12:0x00000000  x3=0x00000000
       54745000	      5473	80006224	00d94a33	xor	x20,x18,x13	 x18:0x00000000 x13:0x00000001 x20=0x00000001
       54755000	      5474	80006228	0d9e4663	blt	x28,x25,800062f4	 x28:0x00000000 x25:0x5eee414c
       54765000	      5475	00000000	00000013	addi	x0,x0,0	  x0:0x00000000
       54775000	      5476	800062f0	00000013	addi	x0,x0,0	  x0:0x00000000
       54785000	      5477	800062f4	ca1f4837	lui	x16,0xca1f4	 x16=0xca1f4000
       54795000	      5478	800062f8	0de85c63	bge	x16,x30,800063d0	 x16:0xca1f4000 x30:0xffffffff
       54805000	      5479	800062fc	00002b97	auipc	x23,0x2	 x23=0x800082f8
       54815000	      5480	80006300	3abb8b93	addi	x23,x23,939	 x23:0x800082f8 x23=0x800086a3
       54825000	      5481	80006304	00af9ab3	sll	x21,x31,x10	 x31:0x00000001 x10:0x00000000 x21=0x00000001
       54835000	      5482	80006308	0004dfb3	srl	x31,x9,x0	  x9:0x00000001  x0:0x00000000 x31=0x00000001
       54845000	      5483	8000630c	014508b3	add	x17,x10,x20	 x10:0x00000000 x20:0x00000001 x17=0x00000001
       54855000	      5484	80006310	f59b9ba3	sh	x25,-169(x23)	 x23:0x800086a3 x25:0x5eee414c PA:0x800085fa
       54865000	      5485	80006314	407fd733	sra	x14,x31,x7	 x31:0x00000001  x7:0x00000001 x14=0x00000000
       54875000	      5486	80006318	f4235137	lui	x2,0xf4235	  x2=0xf4235000
       54885000	      5487	8000631c	b92b0f13	addi	x30,x22,-1134	 x22:0x00000000 x30=0xfffffb92
       54895000	      5488	80006320	f44b8d83	lb	x27,-188(x23)	 x23:0x800086a3 x27=0x0000003c PA:0x800085e7
       54905000	      5489	80006324	0deb8703	lb	x14,222(x23)	 x23:0x800086a3 x14=0x00000065 PA:0x80008781
       54915000	      5490	80006328	fbd56f93	ori	x31,x10,-67	 x10:0x00000000 x31=0xffffffbd
       54925000	      5491	8000632c	230ae093	ori	x1,x21,560	 x21:0x00000001  x1=0x00000231
       54935000	      5492	80006330	000b8583	lb	x11,0(x23)	 x23:0x800086a3 x11=0xfffffff0 PA:0x800086a3
       54945000	      5493	80006334	fd0b8a03	lb	x20,-48(x23)	 x23:0x800086a3 x20=0xffffff98 PA:0x80008673
       54955000	      5494	80006338	0a1b9003	lh	x0,161(x23)	 x23:0x800086a3 PA:0x80008744
       54965000	      5495	8000633c	40425113	srai	x2,x4,0x4	  x4:0x00000010  x2=0x00000001
       54975000	      5496	80006340	41b08cb3	sub	x25,x1,x27	  x1:0x00000231 x27:0x0000003c x25=0x000001f5
       54985000	      5497	80006344	0153c0b3	xor	x1,x7,x21	  x7:0x00000001 x21:0x00000001  x1=0x00000000
       54995000	      5498	80006348	01f19a13	slli	x20,x3,0x1f	  x3:0x00000000 x20=0x00000000
       55005000	      5499	8000634c	7a124993	xori	x19,x4,1953	  x4:0x00000010 x19=0x000007b1
       55015000	      5500	80006350	f8bb86a3	sb	x11,-115(x23)	 x23:0x800086a3 x11:0xfffffff0 PA:0x80008630
       55025000	      5501	80006354	fb2b8b03	lb	x22,-78(x23)	 x23:0x800086a3 x22=0xffffffbc PA:0x80008655
       55035000	      5502	80006358	e756ae93	slti	x29,x13,-395	 x13:0x00000001 x29=0x00000000
       55045000	      5503	8000635c	f47bdd83	lhu	x27,-185(x23)	 x23:0x800086a3 x27=0x00008bec PA:0x800085ea
       55055000	      5504	80006360	fddbd583	lhu	x11,-35(x23)	 x23:0x800086a3 x11=0x00002617 PA:0x80008680
       55065000	      5505	80006364	f6ab8c23	sb	x10,-136(x23)	 x23:0x800086a3 x10:0x00000000 PA:0x8000861b
       55075000	      5506	80006368	cf6af813	andi	x16,x21,-778	 x21:0x00000001 x16=0x00000000
       55085000	      5507	8000636c	f10b8e03	lb	x28,-240(x23)	 x23:0x800086a3 x28=0x00000040 PA:0x800085b3
       55095000	      5508	80006370	01662a33	slt	x20,x12,x22	 x12:0x00000000 x22:0xffffffbc x20=0x00000000
       55105000	      5509	80006374	058b8a03	lb	x20,88(x23)	 x23:0x800086a3 x20=0x00000046 PA:0x800086fb
       55115000	      5510	80006378	008f1fb3	sll	x31,x30,x8	 x30:0xfffffb92  x8:0x00000000 x31=0xfffffb92
       55125000	      5511	8000637c	00fe3b33	sltu	x22,x28,x15	 x28:0x00000040 x15:0x80009eb4 x22=0x00000001
       55135000	      5512	80006380	00f3c133	xor	x2,x7,x15	  x7:0x00000001 x15:0x80009eb4  x2=0x80009eb5
       55145000	      5513	80006384	00ebcf83	lbu	x31,14(x23)	 x23:0x800086a3 x31=0x000000e9 PA:0x800086b1
       55155000	      5514	00000000	00000013	addi	x0,x0,0	  x0:0x00000000
       55165000	      5515	80006388	00cfa333	slt	x6,x31,x12	 x31:0x000000e9 x12:0x00000000  x6=0x00000000
       55175000	      5516	8000638c	fd3b8f83	lb	x31,-45(x23)	 x23:0x800086a3 x31=0xffffffb5 PA:0x80008676
       55185000	      5517	80006390	00aa96b3	sll	x13,x21,x10	 x21:0x00000001 x10:0x00000000 x13=0x00000001
       55195000	      5518	80006394	8afdc913	xori	x18,x27,-1873	 x27:0x00008bec x18=0xffff7343
       55205000	      5519	80006398	0108f5b3	and	x11,x17,x16	 x17:0x00000001 x16:0x00000000 x11=0x00000000
       55215000	      5520	8000639c	25cab513	sltiu	x10,x21,604	 x21:0x00000001 x10=0x00000001
       55225000	      5521	800063a0	00000013	addi	x0,x0,0	  x0:0x00000000
       55235000	      5522	800063a4	05bb87a3	sb	x27,79(x23)	 x23:0x800086a3 x27:0x00008bec PA:0x800086f2
       55245000	      5523	800063a8	0027c433	xor	x8,x15,x2	 x15:0x80009eb4  x2:0x80009eb5  x8=0x00000001
       55255000	      5524	800063ac	09eb8203	lb	x4,158(x23)	 x23:0x800086a3  x4=0x00000027 PA:0x80008741
       55265000	      5525	800063b0	4068d8b3	sra	x17,x17,x6	 x17:0x00000001  x6:0x00000000 x17=0x00000001
       55275000	      5526	800063b4	01dba8a3	sw	x29,17(x23)	 x23:0x800086a3 x29:0x00000000 PA:0x800086b4
       55285000	      5527	800063b8	97c42413	slti	x8,x8,-1668	  x8:0x00000001  x8=0x00000000
       55295000	      5528	800063bc	00c426b3	slt	x13,x8,x12	  x8:0x00000000 x12:0x00000000 x13=0x00000000
       55305000	      5529	800063c0	00886a33	or	x20,x16,x8	 x16:0x00000000  x8:0x00000000 x20=0x00000000
       55315000	      5530	800063c4	f0db9683	lh	x13,-243(x23)	 x23:0x800086a3 x13=0xffffcf5f PA:0x800085b0
       55325000	      5531	800063c8	008e1a13	slli	x20,x28,0x8	 x28:0x00000040 x20=0x00004000
       55335000	      5532	800063cc	f0446893	ori	x17,x8,-252	  x8:0x00000000 x17=0xffffff04
       55345000	      5533	800063d0	00e9c333	xor	x6,x19,x14	 x19:0x000007b1 x14:0x00000065  x6=0x000007d4
       55355000	      5534	800063d4	0183ab33	slt	x22,x7,x24	  x7:0x00000001 x24:0xbecea164 x22=0x00000000
       55365000	      5535	800063d8	039bdc63	bge	x23,x25,80006410	 x23:0x800086a3 x25:0x000001f5
       55375000	      5536	800063dc	40cf50b3	sra	x1,x30,x12	 x30:0xfffffb92 x12:0x00000000  x1=0xfffffb92
       55385000	      5537	800063e0	01590ab3	add	x21,x18,x21	 x18:0xffff7343 x21:0x00000001 x21=0xffff7344
       55395000	      5538	800063e4	d43eb413	sltiu	x8,x29,-701	 x29:0x00000000  x8=0x00000001
       55405000	      5539	800063e8	0041afb3	slt	x31,x3,x4	  x3:0x00000000  x4:0x00000027 x31=0x00000001
       55415000	      5540	800063ec	00000013	addi	x0,x0,0	  x0:0x00000000
       55425000	      5541	800063f0	05825463	bge	x4,x24,80006438	  x4:0x00000027 x24:0xbecea164
       55435000	      5542	00000000	00000013	addi	x0,x0,0	  x0:0x00000000
       55445000	      5543	80006434	00000013	addi	x0,x0,0	  x0:0x00000000
       55455000	      5544	80006438	00c990b3	sll	x1,x19,x12	 x19:0x000007b1 x12:0x00000000  x1=0x000007b1
       55465000	      5545	8000643c	42508593	addi	x11,x1,1061	  x1:0x000007b1 x11=0x00000bd6
       55475000	      5546	80006440	01f60e63	beq	x12,x31,8000645c	 x12:0x00000000 x31:0x00000001
       55485000	      5547	80006444	0a9b1463	bne	x22,x9,800064ec	 x22:0x00000000  x9:0x00000001
       55495000	      5548	00000000	00000013	addi	x0,x0,0	  x0:0x00000000
       55505000	      5549	800064e8	00000013	addi	x0,x0,0	  x0:0x00000000
       55515000	      5550	800064ec	03877663	bgeu	x14,x24,80006518	 x14:0x00000065 x24:0xbecea164
       55525000	      5551	800064f0	012f1e13	slli	x28,x30,0x12	 x30:0xfffffb92 x28=0xee480000
       55535000	      5552	800064f4	00bc5c93	srli	x25,x24,0xb	 x24:0xbecea164 x25=0x0017d9d4
       55545000	      5553	800064f8	01d7cfb3	xor	x31,x15,x29	 x15:0x80009eb4 x29:0x00000000 x31=0x80009eb4
       55555000	      5554	800064fc	001e3133	sltu	x2,x28,x1	 x28:0xee480000  x1:0x000007b1  x2=0x00000000
       55565000	      5555	80006500	05acd863	bge	x25,x26,80006550	 x25:0x0017d9d4 x26:0x80009fc4
       55575000	      5556	00000000	00000013	addi	x0,x0,0	  x0:0x00000000
       55585000	      5557	8000654c	00000013	addi	x0,x0,0	  x0:0x00000000
       55595000	      5558	80006550	01424bb3	xor	x23,x4,x20	  x4:0x00000027 x20:0x00004000 x23=0x00004027
       55605000	      5559	80006554	0180af33	slt	x30,x1,x24	  x1:0x000007b1 x24:0xbecea164 x30=0x00000000
       55615000	      5560	80006558	00a7cbb3	xor	x23,x15,x10	 x15:0x80009eb4 x10:0x00000001 x23=0x80009eb5
       55625000	      5561	8000655c	01dc5cb3	srl	x25,x24,x29	 x24:0xbecea164 x29:0x00000000 x25=0xbecea164
       55635000	      5562	80006560	035a5c63	bge	x20,x21,80006598	 x20:0x00004000 x21:0xffff7344
       55645000	      5563	00000000	00000013	addi	x0,x0,0	  x0:0x00000000
       55655000	      5564	80006594	00000013	addi	x0,x0,0	  x0:0x00000000
       55665000	      5565	80006598	0580c663	blt	x1,x24,800065e4	  x1:0x000007b1 x24:0xbecea164
       55675000	      5566	8000659c	008b5db3	srl	x27,x22,x8	 x22:0x00000000  x8:0x00000001 x27=0x00000000
       55685000	      5567	800065a0	c6048d93	addi	x27,x9,-928	  x9:0x00000001 x27=0xfffffc61
       55695000	      5568	800065a4	01375433	srl	x8,x14,x19	 x14:0x00000065 x19:0x000007b1  x8=0x00000000
       55705000	      5569	800065a8	000b2833	slt	x16,x22,x0	 x22:0x00000000  x0:0x00000000 x16=0x00000000
       55715000	      5570	800065ac	003286b3	add	x13,x5,x3	  x5:0x00000001  x3:0x00000000 x13=0x00000001
       55725000	      5571	800065b0	00be1b13	slli	x22,x28,0xb	 x28:0xee480000 x22=0x40000000
       55735000	      5572	800065b4	b081b293	sltiu	x5,x3,-1272	  x3:0x00000000  x5=0x00000001
       55745000	      5573	800065b8	4028ea93	ori	x21,x17,1026	 x17:0xffffff04 x21=0xffffff06
       55755000	      5574	800065bc	0007ef33	or	x30,x15,x0	 x15:0x80009eb4  x0:0x00000000 x30=0x80009eb4
       55765000	      5575	800065c0	9b1af913	andi	x18,x21,-1615	 x21:0xffffff06 x18=0xfffff900
       55775000	      5576	800065c4	c5da4393	xori	x7,x20,-931	 x20:0x00004000  x7=0xffffbc5d
       55785000	      5577	800065c8	00025cb3	srl	x25,x4,x0	  x4:0x00000027  x0:0x00000000 x25=0x00000027
       55795000	      5578	800065cc	aa44ac93	slti	x25,x9,-1372	  x9:0x00000001 x25=0x00000000
       55805000	      5579	800065d0	8075e293	ori	x5,x11,-2041	 x11:0x00000bd6  x5=0xfffffbd7
       55815000	      5580	800065d4	00180463	beq	x16,x1,800065dc	 x16:0x00000000  x1:0x000007b1
       55825000	      5581	800065d8	00a21e63	bne	x4,x10,800065f4	  x4:0x00000027 x10:0x00000001
       55835000	      5582	00000000	00000013	addi	x0,x0,0	  x0:0x00000000
       55845000	      5583	800065f0	00000013	addi	x0,x0,0	  x0:0x00000000
       55855000	      5584	800065f4	00cf0cb3	add	x25,x30,x12	 x30:0x80009eb4 x12:0x00000000 x25=0x80009eb4
       55865000	      5585	800065f8	4152d993	srai	x19,x5,0x15	  x5:0xfffffbd7 x19=0xffffffff
       55875000	      5586	800065fc	63496413	ori	x8,x18,1588	 x18:0xfffff900  x8=0xffffff34
       55885000	      5587	80006600	01f01193	slli	x3,x0,0x1f	  x0:0x00000000  x3=0x00000000
       55895000	      5588	80006604	01112033	slt	x0,x2,x17	  x2:0x00000000 x17:0xffffff04
       55905000	      5589	80006608	01c5bf33	sltu	x30,x11,x28	 x11:0x00000bd6 x28:0xee480000 x30=0x00000001
       55915000	      5590	8000660c	03f6f063	bgeu	x13,x31,8000662c	 x13:0x00000001 x31:0x80009eb4
       55925000	      5591	80006610	40825893	srai	x17,x4,0x8	  x4:0x00000027 x17=0x00000000
       55935000	      5592	80006614	41090a33	sub	x20,x18,x16	 x18:0xfffff900 x16:0x00000000 x20=0xfffff900
       55945000	      5593	80006618	01442c33	slt	x24,x8,x20	  x8:0xffffff34 x20:0xfffff900 x24=0x00000000
       55955000	      5594	8000661c	4073d6b3	sra	x13,x7,x7	  x7:0xffffbc5d  x7:0xffffbc5d x13=0xffffffff
       55965000	      5595	80006620	012d5313	srli	x6,x26,0x12	 x26:0x80009fc4  x6=0x00002000
       55975000	      5596	80006624	01864733	xor	x14,x12,x24	 x12:0x00000000 x24:0x00000000 x14=0x00000000
       55985000	      5597	80006628	67cb7397	auipc	x7,0x67cb7	  x7=0xe7cbd624
       55995000	      5598	8000662c	4159d493	srai	x9,x19,0x15	 x19:0xffffffff  x9=0xffffffff
       56005000	      5599	80006630	00304933	xor	x18,x0,x3	  x0:0x00000000  x3:0x00000000 x18=0x00000000
       56015000	      5600	80006634	00000013	addi	x0,x0,0	  x0:0x00000000
       56025000	      5601	80006638	0001e863	bltu	x3,x0,80006648	  x3:0x00000000  x0:0x00000000
       56035000	      5602	8000663c	0418e463	bltu	x17,x1,80006684	 x17:0x00000000  x1:0x000007b1
       56045000	      5603	00000000	00000013	addi	x0,x0,0	  x0:0x00000000
       56055000	      5604	80006680	00000013	addi	x0,x0,0	  x0:0x00000000
       56065000	      5605	80006684	86783e93	sltiu	x29,x16,-1945	 x16:0x00000000 x29=0x00000001
       56075000	      5606	80006688	be68f493	andi	x9,x17,-1050	 x17:0x00000000  x9=0x00000000
       56085000	      5607	8000668c	025ae063	bltu	x21,x5,800066ac	 x21:0xffffff06  x5:0xfffffbd7
       56095000	      5608	80006690	f1243293	sltiu	x5,x8,-238	  x8:0xffffff34  x5=0x00000000
       56105000	      5609	80006694	02255463	bge	x10,x2,800066bc	 x10:0x00000001  x2:0x00000000
       56115000	      5610	00000000	00000013	addi	x0,x0,0	  x0:0x00000000
       56125000	      5611	800066b8	00000013	addi	x0,x0,0	  x0:0x00000000
       56135000	      5612	800066bc	41130433	sub	x8,x6,x17	  x6:0x00002000 x17:0x00000000  x8=0x00002000
       56145000	      5613	800066c0	01eb7433	and	x8,x22,x30	 x22:0x40000000 x30:0x00000001  x8=0x00000000
       56155000	      5614	800066c4	09f26513	ori	x10,x4,159	  x4:0x00000027 x10=0x000000bf
       56165000	      5615	800066c8	027c0063	beq	x24,x7,800066e8	 x24:0x00000000  x7:0xe7cbd624
       56175000	      5616	800066cc	b6243e93	sltiu	x29,x8,-1182	  x8:0x00000000 x29=0x00000001
       56185000	      5617	800066d0	40c8d913	srai	x18,x17,0xc	 x17:0x00000000 x18=0x00000000
       56195000	      5618	800066d4	417e5cb3	sra	x25,x28,x23	 x28:0xee480000 x23:0x80009eb5 x25=0xffffff72
       56205000	      5619	800066d8	01687863	bgeu	x16,x22,800066e8	 x16:0x00000000 x22:0x40000000
       56215000	      5620	800066dc	e53c3513	sltiu	x10,x24,-429	 x24:0x00000000 x10=0x00000001
       56225000	      5621	800066e0	2a502693	slti	x13,x0,677	  x0:0x00000000 x13=0x00000001
       56235000	      5622	800066e4	00ac1393	slli	x7,x24,0xa	 x24:0x00000000  x7=0x00000000
       56245000	      5623	800066e8	0028de93	srli	x29,x17,0x2	 x17:0x00000000 x29=0x00000000
       56255000	      5624	800066ec	41d95b33	sra	x22,x18,x29	 x18:0x00000000 x29:0x00000000 x22=0x00000000
       56265000	      5625	800066f0	82eea813	slti	x16,x29,-2002	 x29:0x00000000 x16=0x00000000
       56275000	      5626	800066f4	005a1b13	slli	x22,x20,0x5	 x20:0xfffff900 x22=0xffff2000
       56285000	      5627	800066f8	0047a083	lw	x1,4(x15)	 x15:0x80009eb4  x1=0x800026a8 PA:0x80009eb8
       56295000	      5628	800066fc	aa226313	ori	x6,x4,-1374	  x4:0x00000027  x6=0xfffffaa7
       56305000	      5629	80006700	01478793	addi	x15,x15,20	 x15:0x80009eb4 x15=0x80009ec8
       56315000	      5630	80006704	00bedab3	srl	x21,x29,x11	 x29:0x00000000 x11:0x00000bd6 x21=0x00000000
       56325000	      5631	80006708	00008293	addi	x5,x1,0	  x1:0x800026a8  x5=0x800026a8
       56335000	      5632	8000670c	000282e7	jalr	x5,x5,0	  x5:0x800026a8  x5=0x8000670c
       56345000	      5633	00000000	00000013	addi	x0,x0,0	  x0:0x00000000
       56355000	      5634	800026a8	00000013	addi	x0,x0,0	  x0:0x00000000
       56365000	      5635	800026ac	00006117	auipc	x2,0x6	  x2=0x800086a8
       56375000	      5636	800026b0	d1410113	addi	x2,x2,-748	  x2:0x800086a8  x2=0x800083bc
       56385000	      5637	800026b4	dea9e293	ori	x5,x19,-534	 x19:0xffffffff  x5=0xffffffff
       56395000	      5638	800026b8	01301b13	slli	x22,x0,0x13	  x0:0x00000000 x22=0x00000000
       56405000	      5639	800026bc	fc510da3	sb	x5,-37(x2)	  x2:0x800083bc  x5:0xffffffff PA:0x80008397
       56415000	      5640	800026c0	ff6108a3	sb	x22,-15(x2)	  x2:0x800083bc x22:0x00000000 PA:0x800083ad
       56425000	      5641	800026c4	ffc10da3	sb	x28,-5(x2)	  x2:0x800083bc x28:0xee480000 PA:0x800083b7
       56435000	      5642	800026c8	fdf14e83	lbu	x29,-33(x2)	  x2:0x800083bc x29=0x000000ca PA:0x8000839b
       56445000	      5643	800026cc	01ae7eb3	and	x29,x28,x26	 x28:0xee480000 x26:0x80009fc4 x29=0x80000000
       56455000	      5644	800026d0	fd510c03	lb	x24,-43(x2)	  x2:0x800083bc x24=0xffffffbf PA:0x80008391
       56465000	      5645	800026d4	00385a13	srli	x20,x16,0x3	 x16:0x00000000 x20=0x00000000
       56475000	      5646	800026d8	17028813	addi	x16,x5,368	  x5:0xffffffff x16=0x0000016f
       56485000	      5647	800026dc	40a45213	srai	x4,x8,0xa	  x8:0x00000000  x4=0x00000000
       56495000	      5648	800026e0	a1477f93	andi	x31,x14,-1516	 x14:0x00000000 x31=0x00000000
       56505000	      5649	800026e4	00797ab3	and	x21,x18,x7	 x18:0x00000000  x7:0x00000000 x21=0x00000000
       56515000	      5650	800026e8	6bc3a313	slti	x6,x7,1724	  x7:0x00000000  x6=0x00000001
       56525000	      5651	800026ec	007e2bb3	slt	x23,x28,x7	 x28:0xee480000  x7:0x00000000 x23=0x00000001
       56535000	      5652	800026f0	01efc533	xor	x10,x31,x30	 x31:0x00000000 x30:0x00000001 x10=0x00000001
       56545000	      5653	800026f4	00fe9c33	sll	x24,x29,x15	 x29:0x80000000 x15:0x80009ec8 x24=0x00000000
       56555000	      5654	800026f8	00964933	xor	x18,x12,x9	 x12:0x00000000  x9:0x00000000 x18=0x00000000
       56565000	      5655	800026fc	000d5813	srli	x16,x26,0x0	 x26:0x80009fc4 x16=0x80009fc4
       56575000	      5656	80002700	f636ed93	ori	x27,x13,-157	 x13:0x00000001 x27=0xffffff63
       56585000	      5657	80002704	40d58833	sub	x16,x11,x13	 x11:0x00000bd6 x13:0x00000001 x16=0x00000bd5
       56595000	      5658	80002708	000fcf33	xor	x30,x31,x0	 x31:0x00000000  x0:0x00000000 x30=0x00000000
       56605000	      5659	8000270c	aaf9cf17	auipc	x30,0xaaf9c	 x30=0x2af9e708
       56615000	      5660	80002710	00b14203	lbu	x4,11(x2)	  x2:0x800083bc  x4=0x000000d6 PA:0x800083c7
       56625000	      5661	80002714	02611983	lh	x19,38(x2)	  x2:0x800083bc x19=0x00000b1b PA:0x800083e2
       56635000	      5662	80002718	03114f03	lbu	x30,49(x2)	  x2:0x800083bc x30=0x000000c5 PA:0x800083ed
       56645000	      5663	8000271c	00dd7033	and	x0,x26,x13	 x26:0x80009fc4 x13:0x00000001
       56655000	      5664	80002720	00a15a93	srli	x21,x2,0xa	  x2:0x800083bc x21=0x00200020
       56665000	      5665	80002724	40bd5013	srai	x0,x26,0xb	 x26:0x80009fc4
       56675000	      5666	80002728	ff410ea3	sb	x20,-3(x2)	  x2:0x800083bc x20:0x00000000 PA:0x800083b9
       56685000	      5667	8000272c	02012e83	lw	x29,32(x2)	  x2:0x800083bc x29=0x43079752 PA:0x800083dc
       56695000	      5668	80002730	ffc11723	sh	x28,-18(x2)	  x2:0x800083bc x28:0xee480000 PA:0x800083aa
       56705000	      5669	80002734	0515e737	lui	x14,0x515e	 x14=0x0515e000
       56715000	      5670	80002738	9e53b193	sltiu	x3,x7,-1563	  x7:0x00000000  x3=0x00000001
       56725000	      5671	8000273c	00b2a4b3	slt	x9,x5,x11	  x5:0xffffffff x11:0x00000bd6  x9=0x00000001
       56735000	      5672	80002740	939b2417	auipc	x8,0x939b2	  x8=0x139b473c
       56745000	      5673	80002744	009a0b33	add	x22,x20,x9	 x20:0x00000000  x9:0x00000001 x22=0x00000001
       56755000	      5674	80002748	00110e03	lb	x28,1(x2)	  x2:0x800083bc x28=0x0000001f PA:0x800083bd
       56765000	      5675	8000274c	fc011a03	lh	x20,-64(x2)	  x2:0x800083bc x20=0x00002d67 PA:0x8000837c
       56775000	      5676	80002750	00510383	lb	x7,5(x2)	  x2:0x800083bc  x7=0x0000000c PA:0x800083c1
       56785000	      5677	80002754	0094da13	srli	x20,x9,0x9	  x9:0x00000001 x20=0x00000000
       56795000	      5678	80002758	02f11f23	sh	x15,62(x2)	  x2:0x800083bc x15:0x80009ec8 PA:0x800083fa
       56805000	      5679	8000275c	00006117	auipc	x2,0x6	  x2=0x80008758
       56815000	      5680	80002760	4dd10113	addi	x2,x2,1245	  x2:0x80008758  x2=0x80008c35
       56825000	      5681	80002764	84937e93	andi	x29,x6,-1975	  x6:0x00000001 x29=0x00000001
       56835000	      5682	80002768	40d60433	sub	x8,x12,x13	 x12:0x00000000 x13:0x00000001  x8=0xffffffff
       56845000	      5683	8000276c	02c14e03	lbu	x28,44(x2)	  x2:0x80008c35 x28=0x000000af PA:0x80008c61
       56855000	      5684	80002770	fbf10a23	sb	x31,-76(x2)	  x2:0x80008c35 x31:0x00000000 PA:0x80008be9
       56865000	      5685	80002774	00af0a33	add	x20,x30,x10	 x30:0x000000c5 x10:0x00000001 x20=0x000000c6
       56875000	      5686	80002778	0a111303	lh	x6,161(x2)	  x2:0x80008c35  x6=0xffffd4b8 PA:0x80008cd6
       56885000	      5687	8000277c	096121a3	sw	x22,131(x2)	  x2:0x80008c35 x22:0x00000001 PA:0x80008cb8
       56895000	      5688	80002780	0f711b83	lh	x23,247(x2)	  x2:0x80008c35 x23=0x00000cd0 PA:0x80008d2c
       56905000	      5689	80002784	3a154537	lui	x10,0x3a154	 x10=0x3a154000
       56915000	      5690	80002788	0a9104a3	sb	x9,169(x2)	  x2:0x80008c35  x9:0x00000001 PA:0x80008cde
       56925000	      5691	8000278c	fe412ba3	sw	x4,-9(x2)	  x2:0x80008c35  x4:0x000000d6 PA:0x80008c2c
       56935000	      5692	80002790	f57b83b7	lui	x7,0xf57b8	  x7=0xf57b8000
       56945000	      5693	80002794	ff115703	lhu	x14,-15(x2)	  x2:0x80008c35 x14=0x000036da PA:0x80008c26
       56955000	      5694	80002798	f5e14203	lbu	x4,-162(x2)	  x2:0x80008c35  x4=0x000000f2 PA:0x80008b93
       56965000	      5695	8000279c	0b210803	lb	x16,178(x2)	  x2:0x80008c35 x16=0x0000003b PA:0x80008ce7
       56975000	      5696	800027a0	02310f03	lb	x30,35(x2)	  x2:0x80008c35 x30=0x00000049 PA:0x80008c58
       56985000	      5697	800027a4	0d710023	sb	x23,192(x2)	  x2:0x80008c35 x23:0x00000cd0 PA:0x80008cf5
       56995000	      5698	800027a8	012536b3	sltu	x13,x10,x18	 x10:0x3a154000 x18:0x00000000 x13=0x00000000
       57005000	      5699	800027ac	41725993	srai	x19,x4,0x17	  x4:0x000000f2 x19=0x00000000
       57015000	      5700	800027b0	08210023	sb	x2,128(x2)	  x2:0x80008c35  x2:0x80008c35 PA:0x80008cb5
       57025000	      5701	800027b4	f5c10903	lb	x18,-164(x2)	  x2:0x80008c35 x18=0x0000001f PA:0x80008b91
       57035000	      5702	800027b8	081106a3	sb	x1,141(x2)	  x2:0x80008c35  x1:0x800026a8 PA:0x80008cc2
       57045000	      5703	800027bc	4d789217	auipc	x4,0x4d789	  x4=0xcd78b7b8
       57055000	      5704	800027c0	0ce10f23	sb	x14,222(x2)	  x2:0x80008c35 x14:0x000036da PA:0x80008d13
       57065000	      5705	800027c4	f6610803	lb	x16,-154(x2)	  x2:0x80008c35 x16=0xffffff8e PA:0x80008b9b
       57075000	      5706	800027c8	01715e03	lhu	x28,23(x2)	  x2:0x80008c35 x28=0x00001558 PA:0x80008c4c
       57085000	      5707	800027cc	41a4d2b3	sra	x5,x9,x26	  x9:0x00000001 x26:0x80009fc4  x5=0x00000000
       57095000	      5708	800027d0	471ec593	xori	x11,x29,1137	 x29:0x00000001 x11=0x00000470
       57105000	      5709	800027d4	c5d28013	addi	x0,x5,-931	  x5:0x00000000
       57115000	      5710	800027d8	0ae10903	lb	x18,174(x2)	  x2:0x80008c35 x18=0xffffffdf PA:0x80008ce3
       57125000	      5711	800027dc	fc110303	lb	x6,-63(x2)	  x2:0x80008c35  x6=0x0000007a PA:0x80008bf6
       57135000	      5712	800027e0	0fa10483	lb	x9,250(x2)	  x2:0x80008c35  x9=0xfffffff8 PA:0x80008d2f
       57145000	      5713	800027e4	47d0fd93	andi	x27,x1,1149	  x1:0x800026a8 x27=0x00000428
       57155000	      5714	800027e8	01f12383	lw	x7,31(x2)	  x2:0x80008c35  x7=0xc46d7197 PA:0x80008c54
       57165000	      5715	00000000	00000013	addi	x0,x0,0	  x0:0x00000000
       57175000	      5716	800027ec	f4702213	slti	x4,x0,-185	  x0:0x00000000  x4=0x00000000
       57185000	      5717	800027f0	0af10f83	lb	x31,175(x2)	  x2:0x80008c35 x31=0x00000036 PA:0x80008ce4
       57195000	      5718	800027f4	00f16233	or	x4,x2,x15	  x2:0x80008c35 x15:0x80009ec8  x4=0x80009efd
       57205000	      5719	800027f8	014f8bb3	add	x23,x31,x20	 x31:0x00000036 x20:0x000000c6 x23=0x000000fc
       57215000	      5720	800027fc	0e014003	lbu	x0,224(x2)	  x2:0x80008c35 PA:0x80008d15
       57225000	      5721	80002800	11b13a37	lui	x20,0x11b13	 x20=0x11b13000
       57235000	      5722	80002804	00a8d2b3	srl	x5,x17,x10	 x17:0x00000000 x10:0x3a154000  x5=0x00000000
       57245000	      5723	80002808	0f610ea3	sb	x22,253(x2)	  x2:0x80008c35 x22:0x00000001 PA:0x80008d32
       57255000	      5724	8000280c	00006917	auipc	x18,0x6	 x18=0x80008808
       57265000	      5725	80002810	beb90913	addi	x18,x18,-1045	 x18:0x80008808 x18=0x800083f3
       57275000	      5726	80002814	01b32f33	slt	x30,x6,x27	  x6:0x0000007a x27:0x00000428 x30=0x00000001
       57285000	      5727	80002818	017aba33	sltu	x20,x21,x23	 x21:0x00200020 x23:0x000000fc x20=0x00000000
       57295000	      5728	8000281c	012a1093	slli	x1,x20,0x12	 x20:0x00000000  x1=0x00000000
       57305000	      5729	80002820	01908233	add	x4,x1,x25	  x1:0x00000000 x25:0xffffff72  x4=0xffffff72
       57315000	      5730	80002824	d3690183	lb	x3,-714(x18)	 x18:0x800083f3  x3=0xffffff97 PA:0x80008129
       57325000	      5731	80002828	1b290883	lb	x17,434(x18)	 x18:0x800083f3 x17=0x0000006e PA:0x800085a5
       57335000	      5732	8000282c	0065b833	sltu	x16,x11,x6	 x11:0x00000470  x6:0x0000007a x16=0x00000000
       57345000	      5733	80002830	f8490703	lb	x14,-124(x18)	 x18:0x800083f3 x14=0x00000004 PA:0x80008377
       57355000	      5734	80002834	0011aeb3	slt	x29,x3,x1	  x3:0xffffff97  x1:0x00000000 x29=0x00000001
       57365000	      5735	80002838	39294c83	lbu	x25,914(x18)	 x18:0x800083f3 x25=0x0000004c PA:0x80008785
       57375000	      5736	8000283c	5dc02193	slti	x3,x0,1500	  x0:0x00000000  x3=0x00000001
       57385000	      5737	80002840	11194e83	lbu	x29,273(x18)	 x18:0x800083f3 x29=0x000000f9 PA:0x80008504
       57395000	      5738	80002844	fe094803	lbu	x16,-32(x18)	 x18:0x800083f3 x16=0x000000b8 PA:0x800083d3
       57405000	      5739	80002848	01a19813	slli	x16,x3,0x1a	  x3:0x00000001 x16=0x04000000
       57415000	      5740	8000284c	40290c03	lb	x24,1026(x18)	 x18:0x800083f3 x24=0xffffffe6 PA:0x800087f5
       57425000	      5741	80002850	00c572b3	and	x5,x10,x12	 x10:0x3a154000 x12:0x00000000  x5=0x00000000
       57435000	      5742	80002854	ead94e83	lbu	x29,-339(x18)	 x18:0x800083f3 x29=0x000000a6 PA:0x800082a0
       57445000	      5743	80002858	07994583	lbu	x11,121(x18)	 x18:0x800083f3 x11=0x00000007 PA:0x8000846c
       57455000	      5744	8000285c	2f390483	lb	x9,755(x18)	 x18:0x800083f3  x9=0xffffffac PA:0x800086e6
       57465000	      5745	80002860	d3794203	lbu	x4,-713(x18)	 x18:0x800083f3  x4=0x00000094 PA:0x8000812a
       57475000	      5746	80002864	25190e83	lb	x29,593(x18)	 x18:0x800083f3 x29=0x0000003f PA:0x80008644
       57485000	      5747	80002868	fb73b297	auipc	x5,0xfb73b	  x5=0x7b73d864
       57495000	      5748	8000286c	d8794d83	lbu	x27,-633(x18)	 x18:0x800083f3 x27=0x000000c8 PA:0x8000817a
       57505000	      5749	80002870	d0795203	lhu	x4,-761(x18)	 x18:0x800083f3  x4=0x00000f19 PA:0x800080fa
       57515000	      5750	80002874	30f42b13	slti	x22,x8,783	  x8:0xffffffff x22=0x00000001
       57525000	      5751	80002878	00f29e93	slli	x29,x5,0xf	  x5:0x7b73d864 x29=0xec320000
       57535000	      5752	8000287c	ffc90d83	lb	x27,-4(x18)	 x18:0x800083f3 x27=0x00000015 PA:0x800083ef
       57545000	      5753	80002880	14e917a3	sh	x14,335(x18)	 x18:0x800083f3 x14:0x00000004 PA:0x80008542
       57555000	      5754	80002884	41fa52b3	sra	x5,x20,x31	 x20:0x00000000 x31:0x00000036  x5=0x00000000
       57565000	      5755	80002888	01161033	sll	x0,x12,x17	 x12:0x00000000 x17:0x0000006e
       57575000	      5756	8000288c	009ecb33	xor	x22,x29,x9	 x29:0xec320000  x9:0xffffffac x22=0x13cdffac
       57585000	      5757	80002890	000e0f33	add	x30,x28,x0	 x28:0x00001558  x0:0x00000000 x30=0x00001558
       57595000	      5758	80002894	12894103	lbu	x2,296(x18)	 x18:0x800083f3  x2=0x00000042 PA:0x8000851b
       57605000	      5759	80002898	34f90003	lb	x0,847(x18)	 x18:0x800083f3 PA:0x80008742
       57615000	      5760	8000289c	00ad5f93	srli	x31,x26,0xa	 x26:0x80009fc4 x31=0x00200027
       57625000	      5761	800028a0	0e490623	sb	x4,236(x18)	 x18:0x800083f3  x4:0x00000f19 PA:0x800084df
       57635000	      5762	800028a4	dfeec437	lui	x8,0xdfeec	  x8=0xdfeec000
       57645000	      5763	800028a8	01475bb3	srl	x23,x14,x20	 x14:0x00000004 x20:0x00000000 x23=0x00000004
       57655000	      5764	800028ac	f9c90b23	sb	x28,-106(x18)	 x18:0x800083f3 x28:0x00001558 PA:0x80008389
       57665000	      5765	800028b0	d7f90323	sb	x31,-666(x18)	 x18:0x800083f3 x31:0x00200027 PA:0x80008159
       57675000	      5766	800028b4	a44ceb13	ori	x22,x25,-1468	 x25:0x0000004c x22=0xfffffa4c
       57685000	      5767	800028b8	0064d5b3	srl	x11,x9,x6	  x9:0xffffffac  x6:0x0000007a x11=0x0000003f
       57695000	      5768	800028bc	15e94a03	lbu	x20,350(x18)	 x18:0x800083f3 x20=0x000000d5 PA:0x80008551
       57705000	      5769	800028c0	2b694c03	lbu	x24,694(x18)	 x18:0x800083f3 x24=0x00000067 PA:0x800086a9
       57715000	      5770	800028c4	01dbe8b3	or	x17,x23,x29	 x23:0x00000004 x29:0xec320000 x17=0xec320004
       57725000	      5771	800028c8	0182e9b3	or	x19,x5,x24	  x5:0x00000000 x24:0x00000067 x19=0x00000067
       57735000	      5772	800028cc	9a9f3113	sltiu	x2,x30,-1623	 x30:0x00001558  x2=0x00000001
       57745000	      5773	800028d0	c7694103	lbu	x2,-906(x18)	 x18:0x800083f3  x2=0x000000d7 PA:0x80008069
       57755000	      5774	800028d4	0ba90283	lb	x5,186(x18)	 x18:0x800083f3  x5=0xffffff99 PA:0x800084ad
       57765000	      5775	800028d8	27f95683	lhu	x13,639(x18)	 x18:0x800083f3 x13=0x00009836 PA:0x80008672
       57775000	      5776	800028dc	edb91703	lh	x14,-293(x18)	 x18:0x800083f3 x14=0x00004538 PA:0x800082ce
       57785000	      5777	800028e0	01846e33	or	x28,x8,x24	  x8:0xdfeec000 x24:0x00000067 x28=0xdfeec067
       57795000	      5778	800028e4	29c90203	lb	x4,668(x18)	 x18:0x800083f3  x4=0xffffff82 PA:0x8000868f
       57805000	      5779	800028e8	00006117	auipc	x2,0x6	  x2=0x800088e4
       57815000	      5780	800028ec	49f10113	addi	x2,x2,1183	  x2:0x800088e4  x2=0x80008d83
       57825000	      5781	800028f0	00509933	sll	x18,x1,x5	  x1:0x00000000  x5:0xffffff99 x18=0x00000000
       57835000	      5782	800028f4	01d85933	srl	x18,x16,x29	 x16:0x04000000 x29:0xec320000 x18=0x04000000
       57845000	      5783	800028f8	01a7cfb3	xor	x31,x15,x26	 x15:0x80009ec8 x26:0x80009fc4 x31=0x0000010c
       57855000	      5784	800028fc	00c39d93	slli	x27,x7,0xc	  x7:0xc46d7197 x27=0xd7197000
       57865000	      5785	80002900	0157d1b3	srl	x3,x15,x21	 x15:0x80009ec8 x21:0x00200020  x3=0x80009ec8
       57875000	      5786	80002904	418b0033	sub	x0,x22,x24	 x22:0xfffffa4c x24:0x00000067
       57885000	      5787	80002908	163f4893	xori	x17,x30,355	 x30:0x00001558 x17=0x0000143b
       57895000	      5788	8000290c	fcc6e993	ori	x19,x13,-52	 x13:0x00009836 x19=0xfffffffe
       57905000	      5789	80002910	ff814903	lbu	x18,-8(x2)	  x2:0x80008d83 x18=0x000000e1 PA:0x80008d7b
       57915000	      5790	80002914	00112403	lw	x8,1(x2)	  x2:0x80008d83  x8=0x098c0067 PA:0x80008d84
       57925000	      5791	80002918	016b44b3	xor	x9,x22,x22	 x22:0xfffffa4c x22:0xfffffa4c  x9=0x00000000
       57935000	      5792	8000291c	01be9bb3	sll	x23,x29,x27	 x29:0xec320000 x27:0xd7197000 x23=0xec320000
       57945000	      5793	80002920	409e5e93	srai	x29,x28,0x9	 x28:0xdfeec067 x29=0xffeff760
       57955000	      5794	80002924	01010e03	lb	x28,16(x2)	  x2:0x80008d83 x28=0x0000005d PA:0x80008d93
       57965000	      5795	80002928	ff214403	lbu	x8,-14(x2)	  x2:0x80008d83  x8=0x00000000 PA:0x80008d75
       57975000	      5796	8000292c	001823b3	slt	x7,x16,x1	 x16:0x04000000  x1:0x00000000  x7=0x00000000
       57985000	      5797	80002930	01010003	lb	x0,16(x2)	  x2:0x80008d83 PA:0x80008d93
       57995000	      5798	80002934	014100a3	sb	x20,1(x2)	  x2:0x80008d83 x20:0x000000d5 PA:0x80008d84
       58005000	      5799	80002938	40b0d033	sra	x0,x1,x11	  x1:0x00000000 x11:0x0000003f
       58015000	      5800	8000293c	57678593	addi	x11,x15,1398	 x15:0x80009ec8 x11=0x8000a43e
       58025000	      5801	80002940	018110a3	sh	x24,1(x2)	  x2:0x80008d83 x24:0x00000067 PA:0x80008d84
       58035000	      5802	80002944	01ad22b3	slt	x5,x26,x26	 x26:0x80009fc4 x26:0x80009fc4  x5=0x00000000
       58045000	      5803	80002948	016ce8b3	or	x17,x25,x22	 x25:0x0000004c x22:0xfffffa4c x17=0xfffffa4c
       58055000	      5804	8000294c	9b5846b7	lui	x13,0x9b584	 x13=0x9b584000
       58065000	      5805	80002950	00f14f03	lbu	x30,15(x2)	  x2:0x80008d83 x30=0x0000009e PA:0x80008d92
       58075000	      5806	80002954	00114b03	lbu	x22,1(x2)	  x2:0x80008d83 x22=0x00000067 PA:0x80008d84
       58085000	      5807	80002958	b10ff013	andi	x0,x31,-1264	 x31:0x0000010c
       58095000	      5808	8000295c	fff14803	lbu	x16,-1(x2)	  x2:0x80008d83 x16=0x00000038 PA:0x80008d82
       58105000	      5809	80002960	00006117	auipc	x2,0x6	  x2=0x8000895c
       58115000	      5810	80002964	81110113	addi	x2,x2,-2031	  x2:0x8000895c  x2=0x8000816d
       58125000	      5811	80002968	be6bc013	xori	x0,x23,-1050	 x23:0xec320000
       58135000	      5812	8000296c	1f0f7f93	andi	x31,x30,496	 x30:0x0000009e x31=0x00000090
       58145000	      5813	80002970	fd810083	lb	x1,-40(x2)	  x2:0x8000816d  x1=0xffffffba PA:0x80008145
       58155000	      5814	80002974	ffc14b03	lbu	x22,-4(x2)	  x2:0x8000816d x22=0x00000028 PA:0x80008169
       58165000	      5815	80002978	2f49a893	slti	x17,x19,756	 x19:0xfffffffe x17=0x00000001
       58175000	      5816	8000297c	01189833	sll	x16,x17,x17	 x17:0x00000001 x17:0x00000001 x16=0x00000002
       58185000	      5817	80002980	fd614983	lbu	x19,-42(x2)	  x2:0x8000816d x19=0x00000000 PA:0x80008143
       58195000	      5818	80002984	00e10803	lb	x16,14(x2)	  x2:0x8000816d x16=0xffffffc4 PA:0x8000817b
       58205000	      5819	80002988	4059dc93	srai	x25,x19,0x5	 x19:0x00000000 x25=0x00000000
       58215000	      5820	8000298c	a919ee13	ori	x28,x19,-1391	 x19:0x00000000 x28=0xfffffa91
       58225000	      5821	80002990	eadb0e13	addi	x28,x22,-339	 x22:0x00000028 x28=0xfffffed5
       58235000	      5822	80002994	0c3ca493	slti	x9,x25,195	 x25:0x00000000  x9=0x00000001
       58245000	      5823	80002998	b46b0f13	addi	x30,x22,-1210	 x22:0x00000028 x30=0xfffffb6e
       58255000	      5824	8000299c	00310aa3	sb	x3,21(x2)	  x2:0x8000816d  x3:0x80009ec8 PA:0x80008182
       58265000	      5825	800029a0	00911083	lh	x1,9(x2)	  x2:0x8000816d  x1=0x00002606 PA:0x80008176
       58275000	      5826	800029a4	32b26593	ori	x11,x4,811	  x4:0xffffff82 x11=0xffffffab
       58285000	      5827	800029a8	02410883	lb	x17,36(x2)	  x2:0x8000816d x17=0xffffffa6 PA:0x80008191
       58295000	      5828	00000000	00000013	addi	x0,x0,0	  x0:0x00000000
       58305000	      5829	800029ac	4112d233	sra	x4,x5,x17	  x5:0x00000000 x17:0xffffffa6  x4=0x00000000
       58315000	      5830	800029b0	01c10a83	lb	x21,28(x2)	  x2:0x8000816d x21=0xffffff99 PA:0x80008189
       58325000	      5831	800029b4	ff214c83	lbu	x25,-14(x2)	  x2:0x8000816d x25=0x00000000 PA:0x8000815f
       58335000	      5832	800029b8	fe310983	lb	x19,-29(x2)	  x2:0x8000816d x19=0x0000004f PA:0x80008150
       58345000	      5833	800029bc	006a5f13	srli	x30,x20,0x6	 x20:0x000000d5 x30=0x00000003
       58355000	      5834	800029c0	02414c03	lbu	x24,36(x2)	  x2:0x8000816d x24=0x000000a6 PA:0x80008191
       58365000	      5835	800029c4	fec6a713	slti	x14,x13,-20	 x13:0x9b584000 x14=0x00000001
       58375000	      5836	800029c8	fff11303	lh	x6,-1(x2)	  x2:0x8000816d  x6=0xfffffa1a PA:0x8000816c
       58385000	      5837	800029cc	01dea033	slt	x0,x29,x29	 x29:0xffeff760 x29:0xffeff760
       58395000	      5838	800029d0	b7a06713	ori	x14,x0,-1158	  x0:0x00000000 x14=0xfffffb7a
       58405000	      5839	800029d4	e87ecc13	xori	x24,x29,-377	 x29:0xffeff760 x24=0x001009e7
       58415000	      5840	800029d8	02410c03	lb	x24,36(x2)	  x2:0x8000816d x24=0xffffffa6 PA:0x80008191
       58425000	      5841	800029dc	008845b3	xor	x11,x16,x8	 x16:0xffffffc4  x8:0x00000000 x11=0xffffffc4
       58435000	      5842	800029e0	ffd10aa3	sb	x29,-11(x2)	  x2:0x8000816d x29:0xffeff760 PA:0x80008162
       58445000	      5843	800029e4	03614e03	lbu	x28,54(x2)	  x2:0x8000816d x28=0x0000000f PA:0x800081a3
       58455000	      5844	800029e8	01810f83	lb	x31,24(x2)	  x2:0x8000816d x31=0x00000006 PA:0x80008185
       58465000	      5845	800029ec	02d10323	sb	x13,38(x2)	  x2:0x8000816d x13:0x9b584000 PA:0x80008193
       58475000	      5846	800029f0	40785213	srai	x4,x16,0x7	 x16:0xffffffc4  x4=0xffffffff
       58485000	      5847	800029f4	011b0cb3	add	x25,x22,x17	 x22:0x00000028 x17:0xffffffa6 x25=0xffffffce
       58495000	      5848	800029f8	fe514383	lbu	x7,-27(x2)	  x2:0x8000816d  x7=0x00000047 PA:0x80008152
       58505000	      5849	800029fc	824dce93	xori	x29,x27,-2012	 x27:0xd7197000 x29=0x28e68824
       58515000	      5850	80002a00	bd937493	andi	x9,x6,-1063	  x6:0xfffffa1a  x9=0xfffffa18
       58525000	      5851	80002a04	6e452093	slti	x1,x10,1764	 x10:0x3a154000  x1=0x00000000
       58535000	      5852	80002a08	8e80eeb7	lui	x29,0x8e80e	 x29=0x8e80e000
       58545000	      5853	80002a0c	feb11083	lh	x1,-21(x2)	  x2:0x8000816d  x1=0x00002776 PA:0x80008158
       58555000	      5854	80002a10	01a7acb3	slt	x25,x15,x26	 x15:0x80009ec8 x26:0x80009fc4 x25=0x00000001
       58565000	      5855	80002a14	00093713	sltiu	x14,x18,0	 x18:0x000000e1 x14=0x00000000
       58575000	      5856	80002a18	fe510423	sb	x5,-24(x2)	  x2:0x8000816d  x5:0x00000000 PA:0x80008155
       58585000	      5857	80002a1c	419952b3	sra	x5,x18,x25	 x18:0x000000e1 x25:0x00000001  x5=0x00000070
       58595000	      5858	80002a20	00029ab3	sll	x21,x5,x0	  x5:0x00000070  x0:0x00000000 x21=0x00000070
       58605000	      5859	80002a24	00610323	sb	x6,6(x2)	  x2:0x8000816d  x6:0xfffffa1a PA:0x80008173
       58615000	      5860	80002a28	0129ff33	and	x30,x19,x18	 x19:0x0000004f x18:0x000000e1 x30=0x00000041
       58625000	      5861	80002a2c	af640b93	addi	x23,x8,-1290	  x8:0x00000000 x23=0xfffffaf6
       58635000	      5862	80002a30	00b01db3	sll	x27,x0,x11	  x0:0x00000000 x11:0xffffffc4 x27=0x00000000
       58645000	      5863	80002a34	00897db3	and	x27,x18,x8	 x18:0x000000e1  x8:0x00000000 x27=0x00000000
       58655000	      5864	80002a38	ea85f813	andi	x16,x11,-344	 x11:0xffffffc4 x16=0xfffffe80
       58665000	      5865	80002a3c	40add213	srai	x4,x27,0xa	 x27:0x00000000  x4=0x00000000
       58675000	      5866	80002a40	002a7c63	bgeu	x20,x2,80002a58	 x20:0x000000d5  x2:0x8000816d
       58685000	      5867	80002a44	c8fd0713	addi	x14,x26,-881	 x26:0x80009fc4 x14=0x80009c53
       58695000	      5868	80002a48	058ae063	bltu	x21,x24,80002a88	 x21:0x00000070 x24:0xffffffa6
       58705000	      5869	00000000	00000013	addi	x0,x0,0	  x0:0x00000000
       58715000	      5870	80002a84	00000013	addi	x0,x0,0	  x0:0x00000000
       58725000	      5871	80002a88	05bd8063	beq	x27,x27,80002ac8	 x27:0x00000000 x27:0x00000000
       58735000	      5872	00000000	00000013	addi	x0,x0,0	  x0:0x00000000
       58745000	      5873	80002ac4	00000013	addi	x0,x0,0	  x0:0x00000000
       58755000	      5874	80002ac8	011a3bb3	sltu	x23,x20,x17	 x20:0x000000d5 x17:0xffffffa6 x23=0x00000001
       58765000	      5875	80002acc	9fdff293	andi	x5,x31,-1539	 x31:0x00000006  x5=0x00000004
       58775000	      5876	80002ad0	a2926193	ori	x3,x4,-1495	  x4:0x00000000  x3=0xfffffa29
       58785000	      5877	80002ad4	41b38033	sub	x0,x7,x27	  x7:0x00000047 x27:0x00000000
       58795000	      5878	80002ad8	00a9f263	bgeu	x19,x10,80002adc	 x19:0x0000004f x10:0x3a154000
       58805000	      5879	80002adc	00000013	addi	x0,x0,0	  x0:0x00000000
       58815000	      5880	80002ae0	010f4f33	xor	x30,x30,x16	 x30:0x00000041 x16:0xfffffe80 x30=0xfffffec1
       58825000	      5881	80002ae4	00c88263	beq	x17,x12,80002ae8	 x17:0xffffffa6 x12:0x00000000
       58835000	      5882	80002ae8	016aca63	blt	x21,x22,80002afc	 x21:0x00000070 x22:0x00000028
       58845000	      5883	80002aec	00e8d933	srl	x18,x17,x14	 x17:0xffffffa6 x14:0x80009c53 x18=0x00001fff
       58855000	      5884	80002af0	1cd88417	auipc	x8,0x1cd88	  x8=0x9cd8aaec
       58865000	      5885	80002af4	0378ed93	ori	x27,x17,55	 x17:0xffffffa6 x27=0xffffffb7
       58875000	      5886	80002af8	01209213	slli	x4,x1,0x12	  x1:0x00002776  x4=0x9dd80000
       58885000	      5887	80002afc	40090c33	sub	x24,x18,x0	 x18:0x00001fff  x0:0x00000000 x24=0x00001fff
       58895000	      5888	80002b00	02387863	bgeu	x16,x3,80002b30	 x16:0xfffffe80  x3:0xfffffa29
       58905000	      5889	00000000	00000013	addi	x0,x0,0	  x0:0x00000000
       58915000	      5890	80002b2c	00000013	addi	x0,x0,0	  x0:0x00000000
       58925000	      5891	80002b30	04f37663	bgeu	x6,x15,80002b7c	  x6:0xfffffa1a x15:0x80009ec8
       58935000	      5892	00000000	00000013	addi	x0,x0,0	  x0:0x00000000
       58945000	      5893	80002b78	00000013	addi	x0,x0,0	  x0:0x00000000
       58955000	      5894	80002b7c	051a8063	beq	x21,x17,80002bbc	 x21:0x00000070 x17:0xffffffa6
       58965000	      5895	80002b80	8ead7313	andi	x6,x26,-1814	 x26:0x80009fc4  x6=0x800098c0
       58975000	      5896	80002b84	41aa5a13	srai	x20,x20,0x1a	 x20:0x000000d5 x20=0x00000000
       58985000	      5897	80002b88	05ca1463	bne	x20,x28,80002bd0	 x20:0x00000000 x28:0x0000000f
       58995000	      5898	00000000	00000013	addi	x0,x0,0	  x0:0x00000000
       59005000	      5899	80002bcc	00000013	addi	x0,x0,0	  x0:0x00000000
       59015000	      5900	80002bd0	780a43b7	lui	x7,0x780a4	  x7=0x780a4000
       59025000	      5901	80002bd4	003170b3	and	x1,x2,x3	  x2:0x8000816d  x3:0xfffffa29  x1=0x80008029
       59035000	      5902	80002bd8	012becb3	or	x25,x23,x18	 x23:0x00000001 x18:0x00001fff x25=0x00001fff
       59045000	      5903	80002bdc	44110313	addi	x6,x2,1089	  x2:0x8000816d  x6=0x800085ae
       59055000	      5904	80002be0	0056da63	bge	x13,x5,80002bf4	 x13:0x9b584000  x5:0x00000004
       59065000	      5905	80002be4	009cd813	srli	x16,x25,0x9	 x25:0x00001fff x16=0x0000000f
       59075000	      5906	80002be8	03487463	bgeu	x16,x20,80002c10	 x16:0x0000000f x20:0x00000000
       59085000	      5907	00000000	00000013	addi	x0,x0,0	  x0:0x00000000
       59095000	      5908	80002c0c	00000013	addi	x0,x0,0	  x0:0x00000000
       59105000	      5909	80002c10	000e82b3	add	x5,x29,x0	 x29:0x8e80e000  x0:0x00000000  x5=0x8e80e000
       59115000	      5910	80002c14	173d8817	auipc	x16,0x173d8	 x16=0x973dac10
       59125000	      5911	80002c18	6c8bb393	sltiu	x7,x23,1736	 x23:0x00000001  x7=0x00000001
       59135000	      5912	80002c1c	e04bc493	xori	x9,x23,-508	 x23:0x00000001  x9=0xfffffe05
       59145000	      5913	80002c20	408c5513	srai	x10,x24,0x8	 x24:0x00001fff x10=0x0000001f
       59155000	      5914	80002c24	8a1cba93	sltiu	x21,x25,-1887	 x25:0x00001fff x21=0x00000001
       59165000	      5915	80002c28	00049413	slli	x8,x9,0x0	  x9:0xfffffe05  x8=0xfffffe05
       59175000	      5916	80002c2c	00c63533	sltu	x10,x12,x12	 x12:0x00000000 x12:0x00000000 x10=0x00000000
       59185000	      5917	80002c30	05c84063	blt	x16,x28,80002c70	 x16:0x973dac10 x28:0x0000000f
       59195000	      5918	00000000	00000013	addi	x0,x0,0	  x0:0x00000000
       59205000	      5919	80002c6c	00000013	addi	x0,x0,0	  x0:0x00000000
       59215000	      5920	80002c70	39638713	addi	x14,x7,918	  x7:0x00000001 x14=0x00000397
       59225000	      5921	80002c74	00ed03b3	add	x7,x26,x14	 x26:0x80009fc4 x14:0x00000397  x7=0x8000a35b
       59235000	      5922	80002c78	003be233	or	x4,x23,x3	 x23:0x00000001  x3:0xfffffa29  x4=0xfffffa29
       59245000	      5923	80002c7c	89563693	sltiu	x13,x12,-1899	 x12:0x00000000 x13=0x00000001
       59255000	      5924	80002c80	40410233	sub	x4,x2,x4	  x2:0x8000816d  x4:0xfffffa29  x4=0x80008744
       59265000	      5925	80002c84	d932b013	sltiu	x0,x5,-621	  x5:0x8e80e000
       59275000	      5926	80002c88	0132cc63	blt	x5,x19,80002ca0	  x5:0x8e80e000 x19:0x0000004f
       59285000	      5927	00000000	00000013	addi	x0,x0,0	  x0:0x00000000
       59295000	      5928	80002c9c	00000013	addi	x0,x0,0	  x0:0x00000000
       59305000	      5929	80002ca0	0137fc63	bgeu	x15,x19,80002cb8	 x15:0x80009ec8 x19:0x0000004f
       59315000	      5930	00000000	00000013	addi	x0,x0,0	  x0:0x00000000
       59325000	      5931	80002cb4	00000013	addi	x0,x0,0	  x0:0x00000000
       59335000	      5932	80002cb8	086fc063	blt	x31,x6,80002d38	 x31:0x00000006  x6:0x800085ae
       59345000	      5933	80002cbc	018d4c13	xori	x24,x26,24	 x26:0x80009fc4 x24=0x80009fdc
       59355000	      5934	80002cc0	00e5db33	srl	x22,x11,x14	 x11:0xffffffc4 x14:0x00000397 x22=0x000001ff
       59365000	      5935	80002cc4	015bf9b3	and	x19,x23,x21	 x23:0x00000001 x21:0x00000001 x19=0x00000001
       59375000	      5936	80002cc8	00ecdbb3	srl	x23,x25,x14	 x25:0x00001fff x14:0x00000397 x23=0x00000000
       59385000	      5937	80002ccc	013b7c33	and	x24,x22,x19	 x22:0x000001ff x19:0x00000001 x24=0x00000001
       59395000	      5938	80002cd0	78452d93	slti	x27,x10,1924	 x10:0x00000000 x27=0x00000001
       59405000	      5939	80002cd4	b096c037	lui	x0,0xb096c	
       59415000	      5940	80002cd8	6684e313	ori	x6,x9,1640	  x9:0xfffffe05  x6=0xfffffe6d
       59425000	      5941	80002cdc	62273013	sltiu	x0,x14,1570	 x14:0x00000397
       59435000	      5942	80002ce0	4036de93	srai	x29,x13,0x3	 x13:0x00000001 x29=0x00000000
       59445000	      5943	80002ce4	0023d913	srli	x18,x7,0x2	  x7:0x8000a35b x18=0x200028d6
       59455000	      5944	80002ce8	01c4d5b3	srl	x11,x9,x28	  x9:0xfffffe05 x28:0x0000000f x11=0x0001ffff
       59465000	      5945	80002cec	00034c33	xor	x24,x6,x0	  x6:0xfffffe6d  x0:0x00000000 x24=0xfffffe6d
       59475000	      5946	80002cf0	01389f13	slli	x30,x17,0x13	 x17:0xffffffa6 x30=0xfd300000
       59485000	      5947	80002cf4	009a6463	bltu	x20,x9,80002cfc	 x20:0x00000000  x9:0xfffffe05
       59495000	      5948	00000000	00000013	addi	x0,x0,0	  x0:0x00000000
       59505000	      5949	80002cf8	00000013	addi	x0,x0,0	  x0:0x00000000
       59515000	      5950	80002cfc	4b5030ef	jal	x1,80002cfc	  x1=0x80002cfc
       59525000	      5951	00000000	00000013	addi	x0,x0,0	  x0:0x00000000
       59535000	      5952	800069ac	00000013	addi	x0,x0,0	  x0:0x00000000
       59545000	      5953	800069b0	ff478793	addi	x15,x15,-12	 x15:0x80009ec8 x15=0x80009ebc
       59555000	      5954	800069b4	c6626193	ori	x3,x4,-922	  x4:0x80008744  x3=0xffffff66
       59565000	      5955	800069b8	010cc1b3	xor	x3,x25,x16	 x25:0x00001fff x16:0x973dac10  x3=0x973db3ef
       59575000	      5956	800069bc	011fc233	xor	x4,x31,x17	 x31:0x00000006 x17:0xffffffa6  x4=0xffffffa0
       59585000	      5957	800069c0	01080533	add	x10,x16,x16	 x16:0x973dac10 x16:0x973dac10 x10=0x2e7b5820
       59595000	      5958	800069c4	0017a223	sw	x1,4(x15)	 x15:0x80009ebc  x1:0x80002cfc PA:0x80009ec0
       59605000	      5959	800069c8	00db7b33	and	x22,x22,x13	 x22:0x000001ff x13:0x00000001 x22=0x00000001
       59615000	      5960	800069cc	00002117	auipc	x2,0x2	  x2=0x800089c8
       59625000	      5961	800069d0	59510113	addi	x2,x2,1429	  x2:0x800089c8  x2=0x80008f5d
       59635000	      5962	800069d4	ffe14f03	lbu	x30,-2(x2)	  x2:0x80008f5d x30=0x000000eb PA:0x80008f5b
       59645000	      5963	800069d8	0174bbb3	sltu	x23,x9,x23	  x9:0xfffffe05 x23:0x00000000 x23=0x00000000
       59655000	      5964	800069dc	006ebe33	sltu	x28,x29,x6	 x29:0x00000000  x6:0xfffffe6d x28=0x00000001
       59665000	      5965	800069e0	00c87e33	and	x28,x16,x12	 x16:0x973dac10 x12:0x00000000 x28=0x00000000
       59675000	      5966	800069e4	01261db3	sll	x27,x12,x18	 x12:0x00000000 x18:0x200028d6 x27=0x00000000
       59685000	      5967	800069e8	fc910c03	lb	x24,-55(x2)	  x2:0x80008f5d x24=0xffffffd0 PA:0x80008f26
       59695000	      5968	800069ec	00b12403	lw	x8,11(x2)	  x2:0x80008f5d  x8=0x3b353034 PA:0x80008f68
       59705000	      5969	800069f0	00a10503	lb	x10,10(x2)	  x2:0x80008f5d x10=0xffffffc0 PA:0x80008f67
       59715000	      5970	800069f4	03c10383	lb	x7,60(x2)	  x2:0x80008f5d  x7=0x0000002e PA:0x80008f99
       59725000	      5971	800069f8	5cb9bc17	auipc	x24,0x5cb9b	 x24=0xdcba19f4
       59735000	      5972	800069fc	00dd1db3	sll	x27,x26,x13	 x26:0x80009fc4 x13:0x00000001 x27=0x00013f88
       59745000	      5973	80006a00	01725693	srli	x13,x4,0x17	  x4:0xffffffa0 x13=0x000001ff
       59755000	      5974	80006a04	9a603b93	sltiu	x23,x0,-1626	  x0:0x00000000 x23=0x00000001
       59765000	      5975	80006a08	ffc10323	sb	x28,-26(x2)	  x2:0x80008f5d x28:0x00000000 PA:0x80008f43
       59775000	      5976	80006a0c	01a0e393	ori	x7,x1,26	  x1:0x80002cfc  x7=0x80002cfe
       59785000	      5977	80006a10	ffe14883	lbu	x17,-2(x2)	  x2:0x80008f5d x17=0x000000eb PA:0x80008f5b
       59795000	      5978	00000000	00000013	addi	x0,x0,0	  x0:0x00000000
       59805000	      5979	80006a14	0116da33	srl	x20,x13,x17	 x13:0x000001ff x17:0x000000eb x20=0x00000000
       59815000	      5980	80006a18	fda14683	lbu	x13,-38(x2)	  x2:0x80008f5d x13=0x000000eb PA:0x80008f37
       59825000	      5981	00000000	00000013	addi	x0,x0,0	  x0:0x00000000
       59835000	      5982	80006a1c	40d15433	sra	x8,x2,x13	  x2:0x80008f5d x13:0x000000eb  x8=0xfff00011
       59845000	      5983	80006a20	01c94333	xor	x6,x18,x28	 x18:0x200028d6 x28:0x00000000  x6=0x200028d6
       59855000	      5984	80006a24	018739b3	sltu	x19,x14,x24	 x14:0x00000397 x24:0xdcba19f4 x19=0x00000001
       59865000	      5985	80006a28	ffa14503	lbu	x10,-6(x2)	  x2:0x80008f5d x10=0x00000007 PA:0x80008f57
       59875000	      5986	00000000	00000013	addi	x0,x0,0	  x0:0x00000000
       59885000	      5987	80006a2c	00951e33	sll	x28,x10,x9	 x10:0x00000007  x9:0xfffffe05 x28=0x000000e0
       59895000	      5988	80006a30	00251093	slli	x1,x10,0x2	 x10:0x00000007  x1=0x0000001c
       59905000	      5989	80006a34	fc510f83	lb	x31,-59(x2)	  x2:0x80008f5d x31=0x0000003d PA:0x80008f22
       59915000	      5990	80006a38	f0eb3913	sltiu	x18,x22,-242	 x22:0x00000001 x18=0x00000001
       59925000	      5991	80006a3c	01d0c4b3	xor	x9,x1,x29	  x1:0x0000001c x29:0x00000000  x9=0x0000001c
       59935000	      5992	80006a40	fea11aa3	sh	x10,-11(x2)	  x2:0x80008f5d x10:0x00000007 PA:0x80008f52
       59945000	      5993	80006a44	05310023	sb	x19,64(x2)	  x2:0x80008f5d x19:0x00000001 PA:0x80008f9d
       59955000	      5994	80006a48	fe915803	lhu	x16,-23(x2)	  x2:0x80008f5d x16=0x00001945 PA:0x80008f46
       59965000	      5995	80006a4c	013c26b3	slt	x13,x24,x19	 x24:0xdcba19f4 x19:0x00000001 x13=0x00000001
       59975000	      5996	80006a50	b5eb4c13	xori	x24,x22,-1186	 x22:0x00000001 x24=0xfffffb5f
       59985000	      5997	80006a54	00beb2b3	sltu	x5,x29,x11	 x29:0x00000000 x11:0x0001ffff  x5=0x00000001
       59995000	      5998	80006a58	27038f13	addi	x30,x7,624	  x7:0x80002cfe x30=0x80002f6e
       60005000	      5999	80006a5c	01810223	sb	x24,4(x2)	  x2:0x80008f5d x24:0xfffffb5f PA:0x80008f61
       60015000	      6000	80006a60	00000013	addi	x0,x0,0	  x0:0x00000000
       60025000	      6001	80006a64	01b67eb3	and	x29,x12,x27	 x12:0x00000000 x27:0x00013f88 x29=0x00000000
       60035000	      6002	80006a68	0175f733	and	x14,x11,x23	 x11:0x0001ffff x23:0x00000001 x14=0x00000001
       60045000	      6003	80006a6c	01015ab3	srl	x21,x2,x16	  x2:0x80008f5d x16:0x00001945 x21=0x0400047a
       60055000	      6004	80006a70	03c24263	blt	x4,x28,80006a94	  x4:0xffffffa0 x28:0x000000e0
       60065000	      6005	00000000	00000013	addi	x0,x0,0	  x0:0x00000000
       60075000	      6006	80006a90	00000013	addi	x0,x0,0	  x0:0x00000000
       60085000	      6007	80006a94	857044b7	lui	x9,0x85704	  x9=0x85704000
       60095000	      6008	80006a98	2c6da293	slti	x5,x27,710	 x27:0x00013f88  x5=0x00000000
       60105000	      6009	80006a9c	04cf7263	bgeu	x30,x12,80006ae0	 x30:0x80002f6e x12:0x00000000
       60115000	      6010	00000000	00000013	addi	x0,x0,0	  x0:0x00000000
       60125000	      6011	80006adc	00000013	addi	x0,x0,0	  x0:0x00000000
       60135000	      6012	80006ae0	d3a98f93	addi	x31,x19,-710	 x19:0x00000001 x31=0xfffffd3b
       60145000	      6013	80006ae4	72876893	ori	x17,x14,1832	 x14:0x00000001 x17=0x00000729
       60155000	      6014	80006ae8	ed907b13	andi	x22,x0,-295	  x0:0x00000000 x22=0x00000000
       60165000	      6015	80006aec	40d5d433	sra	x8,x11,x13	 x11:0x0001ffff x13:0x00000001  x8=0x0000ffff
       60175000	      6016	80006af0	40dd0db3	sub	x27,x26,x13	 x26:0x80009fc4 x13:0x00000001 x27=0x80009fc3
       60185000	      6017	80006af4	9d3d8c13	addi	x24,x27,-1581	 x27:0x80009fc3 x24=0x80009996
       60195000	      6018	80006af8	00d07233	and	x4,x0,x13	  x0:0x00000000 x13:0x00000001  x4=0x00000000
       60205000	      6019	80006afc	006d7a63	bgeu	x26,x6,80006b10	 x26:0x80009fc4  x6:0x200028d6
       60215000	      6020	00000000	00000013	addi	x0,x0,0	  x0:0x00000000
       60225000	      6021	80006b0c	00000013	addi	x0,x0,0	  x0:0x00000000
       60235000	      6022	80006b10	00d36833	or	x16,x6,x13	  x6:0x200028d6 x13:0x00000001 x16=0x200028d7
       60245000	      6023	80006b14	3a122013	slti	x0,x4,929	  x4:0x00000000
       60255000	      6024	80006b18	f47c3193	sltiu	x3,x24,-185	 x24:0x80009996  x3=0x00000001
       60265000	      6025	80006b1c	0e974093	xori	x1,x14,233	 x14:0x00000001  x1=0x000000e8
       60275000	      6026	80006b20	00668463	beq	x13,x6,80006b28	 x13:0x00000001  x6:0x200028d6
       60285000	      6027	80006b24	c2d9c693	xori	x13,x19,-979	 x19:0x00000001 x13=0xfffffc2c
       60295000	      6028	80006b28	02ba7263	bgeu	x20,x11,80006b4c	 x20:0x00000000 x11:0x0001ffff
       60305000	      6029	80006b2c	02bef863	bgeu	x29,x11,80006b5c	 x29:0x00000000 x11:0x0001ffff
       60315000	      6030	80006b30	1e8de693	ori	x13,x27,488	 x27:0x80009fc3 x13=0x80009feb
       60325000	      6031	80006b34	00b34133	xor	x2,x6,x11	  x6:0x200028d6 x11:0x0001ffff  x2=0x2001d729
       60335000	      6032	80006b38	88ef8f13	addi	x30,x31,-1906	 x31:0xfffffd3b x30=0xfffff5c9
       60345000	      6033	80006b3c	0097ee63	bltu	x15,x9,80006b58	 x15:0x80009ebc  x9:0x85704000
       60355000	      6034	00000000	00000013	addi	x0,x0,0	  x0:0x00000000
       60365000	      6035	80006b54	00000013	addi	x0,x0,0	  x0:0x00000000
       60375000	      6036	80006b58	13638913	addi	x18,x7,310	  x7:0x80002cfe x18=0x80002e34
       60385000	      6037	80006b5c	00d79913	slli	x18,x15,0xd	 x15:0x80009ebc x18=0x13d78000
       60395000	      6038	80006b60	40c65bb3	sra	x23,x12,x12	 x12:0x00000000 x12:0x00000000 x23=0x00000000
       60405000	      6039	80006b64	885c0117	auipc	x2,0x885c0	  x2=0x085c6b60
       60415000	      6040	80006b68	415fd333	sra	x6,x31,x21	 x31:0xfffffd3b x21:0x0400047a  x6=0xffffffff
       60425000	      6041	80006b6c	41be5c13	srai	x24,x28,0x1b	 x28:0x000000e0 x24=0x00000000
       60435000	      6042	80006b70	2c60e113	ori	x2,x1,710	  x1:0x000000e8  x2=0x000002ee
       60445000	      6043	80006b74	88f2b013	sltiu	x0,x5,-1905	  x5:0x00000000
       60455000	      6044	80006b78	01d5e463	bltu	x11,x29,80006b80	 x11:0x0001ffff x29:0x00000000
       60465000	      6045	80006b7c	00000013	addi	x0,x0,0	  x0:0x00000000
       60475000	      6046	80006b80	41fa5893	srai	x17,x20,0x1f	 x20:0x00000000 x17=0x00000000
       60485000	      6047	80006b84	b28f6013	ori	x0,x30,-1240	 x30:0xfffff5c9
       60495000	      6048	80006b88	f01188b7	lui	x17,0xf0118	 x17=0xf0118000
       60505000	      6049	80006b8c	7b0d4093	xori	x1,x26,1968	 x26:0x80009fc4  x1=0x80009874
       60515000	      6050	80006b90	016ea5b3	slt	x11,x29,x22	 x29:0x00000000 x22:0x00000000 x11=0x00000000
       60525000	      6051	80006b94	0088e863	bltu	x17,x8,80006ba4	 x17:0xf0118000  x8:0x0000ffff
       60535000	      6052	80006b98	3e42f893	andi	x17,x5,996	  x5:0x00000000 x17=0x00000000
       60545000	      6053	80006b9c	ab2efc93	andi	x25,x29,-1358	 x29:0x00000000 x25=0x00000000
       60555000	      6054	80006ba0	00b87533	and	x10,x16,x11	 x16:0x200028d7 x11:0x00000000 x10=0x00000000
       60565000	      6055	80006ba4	009d1c33	sll	x24,x26,x9	 x26:0x80009fc4  x9:0x85704000 x24=0x80009fc4
       60575000	      6056	80006ba8	016b1863	bne	x22,x22,80006bb8	 x22:0x00000000 x22:0x00000000
       60585000	      6057	80006bac	40c65e13	srai	x28,x12,0xc	 x12:0x00000000 x28=0x00000000
       60595000	      6058	80006bb0	e3d04413	xori	x8,x0,-451	  x0:0x00000000  x8=0xfffffe3d
       60605000	      6059	80006bb4	28bd3813	sltiu	x16,x26,651	 x26:0x80009fc4 x16=0x00000000
       60615000	      6060	80006bb8	412dd113	srai	x2,x27,0x12	 x27:0x80009fc3  x2=0xffffe000
       60625000	      6061	80006bbc	41d3df93	srai	x31,x7,0x1d	  x7:0x80002cfe x31=0xfffffffc
       60635000	      6062	80006bc0	045d4663	blt	x26,x5,80006c0c	 x26:0x80009fc4  x5:0x00000000
       60645000	      6063	00000000	00000013	addi	x0,x0,0	  x0:0x00000000
       60655000	      6064	80006c08	00000013	addi	x0,x0,0	  x0:0x00000000
       60665000	      6065	80006c0c	d8bd7693	andi	x13,x26,-629	 x26:0x80009fc4 x13=0x80009d80
       60675000	      6066	80006c10	7ea2af93	slti	x31,x5,2026	  x5:0x00000000 x31=0x00000001
       60685000	      6067	80006c14	ee86cb93	xori	x23,x13,-280	 x13:0x80009d80 x23=0x7fff6368
       60695000	      6068	80006c18	0376c463	blt	x13,x23,80006c40	 x13:0x80009d80 x23:0x7fff6368
       60705000	      6069	00000000	00000013	addi	x0,x0,0	  x0:0x00000000
       60715000	      6070	80006c3c	00000013	addi	x0,x0,0	  x0:0x00000000
       60725000	      6071	80006c40	01cd69b3	or	x19,x26,x28	 x26:0x80009fc4 x28:0x00000000 x19=0x80009fc4
       60735000	      6072	80006c44	d65a0893	addi	x17,x20,-667	 x20:0x00000000 x17=0xfffffd65
       60745000	      6073	80006c48	0054da33	srl	x20,x9,x5	  x9:0x85704000  x5:0x00000000 x20=0x85704000
       60755000	      6074	80006c4c	08d12493	slti	x9,x2,141	  x2:0xffffe000  x9=0x00000001
       60765000	      6075	80006c50	00a779b3	and	x19,x14,x10	 x14:0x00000001 x10:0x00000000 x19=0x00000000
       60775000	      6076	80006c54	00a901b3	add	x3,x18,x10	 x18:0x13d78000 x10:0x00000000  x3=0x13d78000
       60785000	      6077	80006c58	01e9dc63	bge	x19,x30,80006c70	 x19:0x00000000 x30:0xfffff5c9
       60795000	      6078	00000000	00000013	addi	x0,x0,0	  x0:0x00000000
       60805000	      6079	80006c6c	00000013	addi	x0,x0,0	  x0:0x00000000
       60815000	      6080	80006c70	000f7233	and	x4,x30,x0	 x30:0xfffff5c9  x0:0x00000000  x4=0x00000000
       60825000	      6081	80006c74	0047a083	lw	x1,4(x15)	 x15:0x80009ebc  x1=0x80002cfc PA:0x80009ec0
       60835000	      6082	80006c78	00a5a133	slt	x2,x11,x10	 x11:0x00000000 x10:0x00000000  x2=0x00000000
       60845000	      6083	80006c7c	0085b9b3	sltu	x19,x11,x8	 x11:0x00000000  x8:0xfffffe3d x19=0x00000001
       60855000	      6084	80006c80	ba6cf813	andi	x16,x25,-1114	 x25:0x00000000 x16=0x00000000
       60865000	      6085	80006c84	00c78793	addi	x15,x15,12	 x15:0x80009ebc x15=0x80009ec8
       60875000	      6086	80006c88	00000013	addi	x0,x0,0	  x0:0x00000000
       60885000	      6087	80006c8c	cb8f4713	xori	x14,x30,-840	 x30:0xfffff5c9 x14=0x00000971
       60895000	      6088	80006c90	94d2da17	auipc	x20,0x94d2d	 x20=0x14d33c8c
       60905000	      6089	80006c94	409cd113	srai	x2,x25,0x9	 x25:0x00000000  x2=0x00000000
       60915000	      6090	80006c98	00008f13	addi	x30,x1,0	  x1:0x80002cfc x30=0x80002cfc
       60925000	      6091	80006c9c	000f0f67	jalr	x30,x30,0	 x30:0x80002cfc x30=0x80006c9c
       60935000	      6092	00000000	00000013	addi	x0,x0,0	  x0:0x00000000
       60945000	      6093	80002cfc	00000013	addi	x0,x0,0	  x0:0x00000000
       60955000	      6094	80002d00	0109d3b3	srl	x7,x19,x16	 x19:0x00000001 x16:0x00000000  x7=0x00000001
       60965000	      6095	80002d04	7f98b493	sltiu	x9,x17,2041	 x17:0xfffffd65  x9=0x00000000
       60975000	      6096	80002d08	054f1063	bne	x30,x20,80002d48	 x30:0x80006c9c x20:0x14d33c8c
       60985000	      6097	00000000	00000013	addi	x0,x0,0	  x0:0x00000000
       60995000	      6098	80002d44	00000013	addi	x0,x0,0	  x0:0x00000000
       61005000	      6099	80002d48	03bfce63	blt	x31,x27,80002d84	 x31:0x00000001 x27:0x80009fc3
       61015000	      6100	80002d4c	0310c663	blt	x1,x17,80002d78	  x1:0x80002cfc x17:0xfffffd65
       61025000	      6101	00000000	00000013	addi	x0,x0,0	  x0:0x00000000
       61035000	      6102	80002d74	00000013	addi	x0,x0,0	  x0:0x00000000
       61045000	      6103	80002d78	01f4e833	or	x16,x9,x31	  x9:0x00000000 x31:0x00000001 x16=0x00000001
       61055000	      6104	80002d7c	01ac5a63	bge	x24,x26,80002d90	 x24:0x80009fc4 x26:0x80009fc4
       61065000	      6105	00000000	00000013	addi	x0,x0,0	  x0:0x00000000
       61075000	      6106	80002d8c	00000013	addi	x0,x0,0	  x0:0x00000000
       61085000	      6107	80002d90	00e32bb3	slt	x23,x6,x14	  x6:0xffffffff x14:0x00000971 x23=0x00000001
       61095000	      6108	80002d94	01171433	sll	x8,x14,x17	 x14:0x00000971 x17:0xfffffd65  x8=0x00012e20
       61105000	      6109	80002d98	60137193	andi	x3,x6,1537	  x6:0xffffffff  x3=0x00000601
       61115000	      6110	80002d9c	01d19e13	slli	x28,x3,0x1d	  x3:0x00000601 x28=0x20000000
       61125000	      6111	80002da0	1ea99537	lui	x10,0x1ea99	 x10=0x1ea99000
       61135000	      6112	80002da4	295f0513	addi	x10,x30,661	 x30:0x80006c9c x10=0x80006f31
       61145000	      6113	80002da8	002cab33	slt	x22,x25,x2	 x25:0x00000000  x2:0x00000000 x22=0x00000000
       61155000	      6114	80002dac	416c5a93	srai	x21,x24,0x16	 x24:0x80009fc4 x21=0xfffffe00
       61165000	      6115	80002db0	40725a13	srai	x20,x4,0x7	  x4:0x00000000 x20=0x00000000
       61175000	      6116	80002db4	c5f16d93	ori	x27,x2,-929	  x2:0x00000000 x27=0xfffffc5f
       61185000	      6117	80002db8	40c60cb3	sub	x25,x12,x12	 x12:0x00000000 x12:0x00000000 x25=0x00000000
       61195000	      6118	80002dbc	00caf1b3	and	x3,x21,x12	 x21:0xfffffe00 x12:0x00000000  x3=0x00000000
       61205000	      6119	80002dc0	00000013	addi	x0,x0,0	  x0:0x00000000
       61215000	      6120	80002dc4	cf393c93	sltiu	x25,x18,-781	 x18:0x13d78000 x25=0x00000001
       61225000	      6121	80002dc8	55b10a93	addi	x21,x2,1371	  x2:0x00000000 x21=0x0000055b
       61235000	      6122	80002dcc	00000013	addi	x0,x0,0	  x0:0x00000000
       61245000	      6123	80002dd0	b6ca2693	slti	x13,x20,-1172	 x20:0x00000000 x13=0x00000000
       61255000	      6124	80002dd4	00acbfb3	sltu	x31,x25,x10	 x25:0x00000001 x10:0x80006f31 x31=0x00000001
       61265000	      6125	80002dd8	531fec97	auipc	x25,0x531fe	 x25=0xd3200dd4
       61275000	      6126	80002ddc	0181d093	srli	x1,x3,0x18	  x3:0x00000000  x1=0x00000000
       61285000	      6127	80002de0	00000013	addi	x0,x0,0	  x0:0x00000000
       61295000	      6128	80002de4	01123db3	sltu	x27,x4,x17	  x4:0x00000000 x17:0xfffffd65 x27=0x00000001
       61305000	      6129	80002de8	01d49233	sll	x4,x9,x29	  x9:0x00000000 x29:0x00000000  x4=0x00000000
       61315000	      6130	80002dec	f517b093	sltiu	x1,x15,-175	 x15:0x80009ec8  x1=0x00000001
       61325000	      6131	80002df0	00056433	or	x8,x10,x0	 x10:0x80006f31  x0:0x00000000  x8=0x80006f31
       61335000	      6132	80002df4	1efd0b13	addi	x22,x26,495	 x26:0x80009fc4 x22=0x8000a1b3
       61345000	      6133	80002df8	fb4f8413	addi	x8,x31,-76	 x31:0x00000001  x8=0xffffffb5
       61355000	      6134	80002dfc	019f1d93	slli	x27,x30,0x19	 x30:0x80006c9c x27=0x38000000
       61365000	      6135	80002e00	040d1663	bne	x26,x0,80002e4c	 x26:0x80009fc4  x0:0x00000000
       61375000	      6136	00000000	00000013	addi	x0,x0,0	  x0:0x00000000
       61385000	      6137	80002e48	00000013	addi	x0,x0,0	  x0:0x00000000
       61395000	      6138	80002e4c	f5edb713	sltiu	x14,x27,-162	 x27:0x38000000 x14=0x00000001
       61405000	      6139	80002e50	8252b537	lui	x10,0x8252b	 x10=0x8252b000
       61415000	      6140	80002e54	008c9c93	slli	x25,x25,0x8	 x25:0xd3200dd4 x25=0x200dd400
       61425000	      6141	80002e58	40b405b3	sub	x11,x8,x11	  x8:0xffffffb5 x11:0x00000000 x11=0xffffffb5
       61435000	      6142	80002e5c	5356f713	andi	x14,x13,1333	 x13:0x00000000 x14=0x00000000
       61445000	      6143	80002e60	0058e593	ori	x11,x17,5	 x17:0xfffffd65 x11=0xfffffd65
       61455000	      6144	80002e64	0015df33	srl	x30,x11,x1	 x11:0xfffffd65  x1:0x00000001 x30=0x7ffffeb2
       61465000	      6145	80002e68	f6ffad93	slti	x27,x31,-145	 x31:0x00000001 x27=0x00000000
       61475000	      6146	80002e6c	3d653293	sltiu	x5,x10,982	 x10:0x8252b000  x5=0x00000000
       61485000	      6147	80002e70	00f0c5b3	xor	x11,x1,x15	  x1:0x00000001 x15:0x80009ec8 x11=0x80009ec9
       61495000	      6148	80002e74	01e3d533	srl	x10,x7,x30	  x7:0x00000001 x30:0x7ffffeb2 x10=0x00000000
       61505000	      6149	80002e78	413f8ab3	sub	x21,x31,x19	 x31:0x00000001 x19:0x00000001 x21=0x00000000
       61515000	      6150	80002e7c	00181e93	slli	x29,x16,0x1	 x16:0x00000001 x29=0x00000002
       61525000	      6151	80002e80	1cc5b213	sltiu	x4,x11,460	 x11:0x80009ec9  x4=0x00000000
       61535000	      6152	80002e84	01bc9863	bne	x25,x27,80002e94	 x25:0x200dd400 x27:0x00000000
       61545000	      6153	00000000	00000013	addi	x0,x0,0	  x0:0x00000000
       61555000	      6154	80002e90	00000013	addi	x0,x0,0	  x0:0x00000000
       61565000	      6155	80002e94	02d8ca63	blt	x17,x13,80002ec8	 x17:0xfffffd65 x13:0x00000000
       61575000	      6156	00000000	00000013	addi	x0,x0,0	  x0:0x00000000
       61585000	      6157	80002ec4	00000013	addi	x0,x0,0	  x0:0x00000000
       61595000	      6158	80002ec8	006e5a13	srli	x20,x28,0x6	 x28:0x20000000 x20=0x00800000
       61605000	      6159	80002ecc	7f463d93	sltiu	x27,x12,2036	 x12:0x00000000 x27=0x00000001
       61615000	      6160	80002ed0	41620bb3	sub	x23,x4,x22	  x4:0x00000000 x22:0x8000a1b3 x23=0x7fff5e4d
       61625000	      6161	80002ed4	05315663	bge	x2,x19,80002f20	  x2:0x00000000 x19:0x00000001
       61635000	      6162	80002ed8	14e43393	sltiu	x7,x8,334	  x8:0xffffffb5  x7=0x00000000
       61645000	      6163	80002edc	00754db3	xor	x27,x10,x7	 x10:0x00000000  x7:0x00000000 x27=0x00000000
       61655000	      6164	80002ee0	01528433	add	x8,x5,x21	  x5:0x00000000 x21:0x00000000  x8=0x00000000
       61665000	      6165	80002ee4	01273e33	sltu	x28,x14,x18	 x14:0x00000000 x18:0x13d78000 x28=0x00000001
       61675000	      6166	80002ee8	00791f93	slli	x31,x18,0x7	 x18:0x13d78000 x31=0xebc00000
       61685000	      6167	80002eec	0009d1b3	srl	x3,x19,x0	 x19:0x00000001  x0:0x00000000  x3=0x00000001
       61695000	      6168	80002ef0	40055693	srai	x13,x10,0x0	 x10:0x00000000 x13=0x00000000
       61705000	      6169	80002ef4	0169cc33	xor	x24,x19,x22	 x19:0x00000001 x22:0x8000a1b3 x24=0x8000a1b2
       61715000	      6170	80002ef8	40178e33	sub	x28,x15,x1	 x15:0x80009ec8  x1:0x00000001 x28=0x80009ec7
       61725000	      6171	80002efc	4015d893	srai	x17,x11,0x1	 x11:0x80009ec9 x17=0xc0004f64
       61735000	      6172	80002f00	b8ef0437	lui	x8,0xb8ef0	  x8=0xb8ef0000
       61745000	      6173	80002f04	23d44993	xori	x19,x8,573	  x8:0xb8ef0000 x19=0xb8ef023d
       61755000	      6174	80002f08	00c41b13	slli	x22,x8,0xc	  x8:0xb8ef0000 x22=0xf0000000
       61765000	      6175	80002f0c	8e02af13	slti	x30,x5,-1824	  x5:0x00000000 x30=0x00000000
       61775000	      6176	80002f10	73798b93	addi	x23,x19,1847	 x19:0xb8ef023d x23=0xb8ef0974
       61785000	      6177	80002f14	da6acb13	xori	x22,x21,-602	 x21:0x00000000 x22=0xfffffda6
       61795000	      6178	80002f18	c19d0213	addi	x4,x26,-999	 x26:0x80009fc4  x4=0x80009bdd
       61805000	      6179	80002f1c	416553b3	sra	x7,x10,x22	 x10:0x00000000 x22:0xfffffda6  x7=0x00000000
       61815000	      6180	80002f20	002f5e13	srli	x28,x30,0x2	 x30:0x00000000 x28=0x00000000
       61825000	      6181	80002f24	b5ecf413	andi	x8,x25,-1186	 x25:0x200dd400  x8=0x200dd000
       61835000	      6182	80002f28	050f8263	beq	x31,x16,80002f6c	 x31:0xebc00000 x16:0x00000001
       61845000	      6183	80002f2c	c1dd7397	auipc	x7,0xc1dd7	  x7=0x41dd9f28
       61855000	      6184	80002f30	01411ab3	sll	x21,x2,x20	  x2:0x00000000 x20:0x00800000 x21=0x00000000
       61865000	      6185	80002f34	017ca833	slt	x16,x25,x23	 x25:0x200dd400 x23:0xb8ef0974 x16=0x00000000
       61875000	      6186	80002f38	01bbddb3	srl	x27,x23,x27	 x23:0xb8ef0974 x27:0x00000000 x27=0xb8ef0974
       61885000	      6187	80002f3c	01055d93	srli	x27,x10,0x10	 x10:0x00000000 x27=0x00000000
       61895000	      6188	80002f40	01474533	xor	x10,x14,x20	 x14:0x00000000 x20:0x00800000 x10=0x00800000
       61905000	      6189	80002f44	1c457e93	andi	x29,x10,452	 x10:0x00800000 x29=0x00000000
       61915000	      6190	80002f48	90fe2193	slti	x3,x28,-1777	 x28:0x00000000  x3=0x00000000
       61925000	      6191	80002f4c	d83b3513	sltiu	x10,x22,-637	 x22:0xfffffda6 x10=0x00000000
       61935000	      6192	80002f50	006a0a63	beq	x20,x6,80002f64	 x20:0x00800000  x6:0xffffffff
       61945000	      6193	80002f54	00b9b5b3	sltu	x11,x19,x11	 x19:0xb8ef023d x11:0x80009ec9 x11=0x00000000
       61955000	      6194	80002f58	015e60b3	or	x1,x28,x21	 x28:0x00000000 x21:0x00000000  x1=0x00000000
       61965000	      6195	80002f5c	0027e133	or	x2,x15,x2	 x15:0x80009ec8  x2:0x00000000  x2=0x80009ec8
       61975000	      6196	80002f60	004fbf33	sltu	x30,x31,x4	 x31:0xebc00000  x4:0x80009bdd x30=0x00000000
       61985000	      6197	80002f64	010ef933	and	x18,x29,x16	 x29:0x00000000 x16:0x00000000 x18=0x00000000
       61995000	      6198	80002f68	03b3d663	bge	x7,x27,80002f94	  x7:0x41dd9f28 x27:0x00000000
       62005000	      6199	00000000	00000013	addi	x0,x0,0	  x0:0x00000000
       62015000	      6200	80002f90	00000013	addi	x0,x0,0	  x0:0x00000000
       62025000	      6201	80002f94	04f91063	bne	x18,x15,80002fd4	 x18:0x00000000 x15:0x80009ec8
       62035000	      6202	00000000	00000013	addi	x0,x0,0	  x0:0x00000000
       62045000	      6203	80002fd0	00000013	addi	x0,x0,0	  x0:0x00000000
       62055000	      6204	80002fd4	00000013	addi	x0,x0,0	  x0:0x00000000
       62065000	      6205	80002fd8	2aade713	ori	x14,x27,682	 x27:0x00000000 x14=0x000002aa
       62075000	      6206	80002fdc	41725c33	sra	x24,x4,x23	  x4:0x80009bdd x23:0xb8ef0974 x24=0xfffff800
       62085000	      6207	80002fe0	505dae93	slti	x29,x27,1285	 x27:0x00000000 x29=0x00000001
       62095000	      6208	80002fe4	01658c63	beq	x11,x22,80002ffc	 x11:0x00000000 x22:0xfffffda6
       62105000	      6209	80002fe8	008f82b3	add	x5,x31,x8	 x31:0xebc00000  x8:0x200dd000  x5=0x0bcdd000
       62115000	      6210	80002fec	02d57463	bgeu	x10,x13,80003014	 x10:0x00000000 x13:0x00000000
       62125000	      6211	00000000	00000013	addi	x0,x0,0	  x0:0x00000000
       62135000	      6212	80003010	00000013	addi	x0,x0,0	  x0:0x00000000
       62145000	      6213	80003014	03ef6663	bltu	x30,x30,80003040	 x30:0x00000000 x30:0x00000000
       62155000	      6214	80003018	013bd4b3	srl	x9,x23,x19	 x23:0xb8ef0974 x19:0xb8ef023d  x9=0x00000005
       62165000	      6215	8000301c	000b1593	slli	x11,x22,0x0	 x22:0xfffffda6 x11=0xfffffda6
       62175000	      6216	80003020	610e2993	slti	x19,x28,1552	 x28:0x00000000 x19=0x00000001
       62185000	      6217	80003024	00000013	addi	x0,x0,0	  x0:0x00000000
       62195000	      6218	80003028	00c74cb3	xor	x25,x14,x12	 x14:0x000002aa x12:0x00000000 x25=0x000002aa
       62205000	      6219	8000302c	015f4f33	xor	x30,x30,x21	 x30:0x00000000 x21:0x00000000 x30=0x00000000
       62215000	      6220	80003030	d0bc4013	xori	x0,x24,-757	 x24:0xfffff800
       62225000	      6221	80003034	70f40e13	addi	x28,x8,1807	  x8:0x200dd000 x28=0x200dd70f
       62235000	      6222	80003038	1bd43113	sltiu	x2,x8,445	  x8:0x200dd000  x2=0x00000000
       62245000	      6223	8000303c	01478933	add	x18,x15,x20	 x15:0x80009ec8 x20:0x00800000 x18=0x80809ec8
       62255000	      6224	80003040	00cf70b3	and	x1,x30,x12	 x30:0x00000000 x12:0x00000000  x1=0x00000000
       62265000	      6225	80003044	002c2eb3	slt	x29,x24,x2	 x24:0xfffff800  x2:0x00000000 x29=0x00000001
       62275000	      6226	80003048	00189293	slli	x5,x17,0x1	 x17:0xc0004f64  x5=0x80009ec8
       62285000	      6227	8000304c	0379fc63	bgeu	x19,x23,80003084	 x19:0x00000001 x23:0xb8ef0974
       62295000	      6228	80003050	473bdcb7	lui	x25,0x473bd	 x25=0x473bd000
       62305000	      6229	80003054	00c3cc63	blt	x7,x12,8000306c	  x7:0x41dd9f28 x12:0x00000000
       62315000	      6230	80003058	05775863	bge	x14,x23,800030a8	 x14:0x000002aa x23:0xb8ef0974
       62325000	      6231	00000000	00000013	addi	x0,x0,0	  x0:0x00000000
       62335000	      6232	800030a4	00000013	addi	x0,x0,0	  x0:0x00000000
       62345000	      6233	800030a8	408fdb13	srai	x22,x31,0x8	 x31:0xebc00000 x22=0xffebc000
       62355000	      6234	800030ac	01a9a2b3	slt	x5,x19,x26	 x19:0x00000001 x26:0x80009fc4  x5=0x00000000
       62365000	      6235	800030b0	417cdd93	srai	x27,x25,0x17	 x25:0x473bd000 x27=0x0000008e
       62375000	      6236	800030b4	01daf833	and	x16,x21,x29	 x21:0x00000000 x29:0x00000001 x16=0x00000000
       62385000	      6237	800030b8	c70bf193	andi	x3,x23,-912	 x23:0xb8ef0974  x3=0xb8ef0870
       62395000	      6238	800030bc	00929a63	bne	x5,x9,800030d0	  x5:0x00000000  x9:0x00000005
       62405000	      6239	00000000	00000013	addi	x0,x0,0	  x0:0x00000000
       62415000	      6240	800030cc	00000013	addi	x0,x0,0	  x0:0x00000000
       62425000	      6241	800030d0	00e89a63	bne	x17,x14,800030e4	 x17:0xc0004f64 x14:0x000002aa
       62435000	      6242	00000000	00000013	addi	x0,x0,0	  x0:0x00000000
       62445000	      6243	800030e0	00000013	addi	x0,x0,0	  x0:0x00000000
       62455000	      6244	800030e4	0040f533	and	x10,x1,x4	  x1:0x00000000  x4:0x80009bdd x10=0x00000000
       62465000	      6245	800030e8	007c9093	slli	x1,x25,0x7	 x25:0x473bd000  x1=0x9de80000
       62475000	      6246	800030ec	5ac49817	auipc	x16,0x5ac49	 x16=0xdac4c0e8
       62485000	      6247	800030f0	b46a3f13	sltiu	x30,x20,-1210	 x20:0x00800000 x30=0x00000001
       62495000	      6248	800030f4	41f9d1b3	sra	x3,x19,x31	 x19:0x00000001 x31:0xebc00000  x3=0x00000001
       62505000	      6249	800030f8	010e6863	bltu	x28,x16,80003108	 x28:0x200dd70f x16:0xdac4c0e8
       62515000	      6250	00000000	00000013	addi	x0,x0,0	  x0:0x00000000
       62525000	      6251	80003104	00000013	addi	x0,x0,0	  x0:0x00000000
       62535000	      6252	80003108	001b7bb3	and	x23,x22,x1	 x22:0xffebc000  x1:0x9de80000 x23=0x9de80000
       62545000	      6253	8000310c	40e38fb3	sub	x31,x7,x14	  x7:0x41dd9f28 x14:0x000002aa x31=0x41dd9c7e
       62555000	      6254	80003110	00dc0bb3	add	x23,x24,x13	 x24:0xfffff800 x13:0x00000000 x23=0xfffff800
       62565000	      6255	80003114	012e90b3	sll	x1,x29,x18	 x29:0x00000001 x18:0x80809ec8  x1=0x00000100
       62575000	      6256	80003118	001a6cb3	or	x25,x20,x1	 x20:0x00800000  x1:0x00000100 x25=0x00800100
       62585000	      6257	8000311c	03764863	blt	x12,x23,8000314c	 x12:0x00000000 x23:0xfffff800
       62595000	      6258	80003120	001caab3	slt	x21,x25,x1	 x25:0x00800100  x1:0x00000100 x21=0x00000000
       62605000	      6259	80003124	0158bf33	sltu	x30,x17,x21	 x17:0xc0004f64 x21:0x00000000 x30=0x00000000
       62615000	      6260	80003128	00000013	addi	x0,x0,0	  x0:0x00000000
       62625000	      6261	8000312c	019e58b3	srl	x17,x28,x25	 x28:0x200dd70f x25:0x00800100 x17=0x200dd70f
       62635000	      6262	80003130	0446d063	bge	x13,x4,80003170	 x13:0x00000000  x4:0x80009bdd
       62645000	      6263	00000000	00000013	addi	x0,x0,0	  x0:0x00000000
       62655000	      6264	8000316c	00000013	addi	x0,x0,0	  x0:0x00000000
       62665000	      6265	80003170	03899a63	bne	x19,x24,800031a4	 x19:0x00000001 x24:0xfffff800
       62675000	      6266	00000000	00000013	addi	x0,x0,0	  x0:0x00000000
       62685000	      6267	800031a0	00000013	addi	x0,x0,0	  x0:0x00000000
       62695000	      6268	800031a4	000d8933	add	x18,x27,x0	 x27:0x0000008e  x0:0x00000000 x18=0x0000008e
       62705000	      6269	800031a8	fb0f0f13	addi	x30,x30,-80	 x30:0x00000000 x30=0xffffffb0
       62715000	      6270	800031ac	0176d093	srli	x1,x13,0x17	 x13:0x00000000  x1=0x00000000
       62725000	      6271	800031b0	577d8913	addi	x18,x27,1399	 x27:0x0000008e x18=0x00000605
       62735000	      6272	800031b4	01d8f1b3	and	x3,x17,x29	 x17:0x200dd70f x29:0x00000001  x3=0x00000001
       62745000	      6273	800031b8	613b7313	andi	x6,x22,1555	 x22:0xffebc000  x6=0x00000000
       62755000	      6274	800031bc	03e47e63	bgeu	x8,x30,800031f8	  x8:0x200dd000 x30:0xffffffb0
       62765000	      6275	800031c0	001a5f93	srli	x31,x20,0x1	 x20:0x00800000 x31=0x00400000
       62775000	      6276	800031c4	000cadb3	slt	x27,x25,x0	 x25:0x00800100  x0:0x00000000 x27=0x00000000
       62785000	      6277	800031c8	534f2837	lui	x16,0x534f2	 x16=0x534f2000
       62795000	      6278	800031cc	755d7c13	andi	x24,x26,1877	 x26:0x80009fc4 x24=0x00000744
       62805000	      6279	800031d0	0083df93	srli	x31,x7,0x8	  x7:0x41dd9f28 x31=0x0041dd9f
       62815000	      6280	800031d4	007de863	bltu	x27,x7,800031e4	 x27:0x00000000  x7:0x41dd9f28
       62825000	      6281	00000000	00000013	addi	x0,x0,0	  x0:0x00000000
       62835000	      6282	800031e0	00000013	addi	x0,x0,0	  x0:0x00000000
       62845000	      6283	800031e4	000dbf33	sltu	x30,x27,x0	 x27:0x00000000  x0:0x00000000 x30=0x00000000
       62855000	      6284	800031e8	19c83d93	sltiu	x27,x16,412	 x16:0x534f2000 x27=0x00000000
       62865000	      6285	800031ec	c8f76513	ori	x10,x14,-881	 x14:0x000002aa x10=0xfffffeaf
       62875000	      6286	800031f0	03c8d663	bge	x17,x28,8000321c	 x17:0x200dd70f x28:0x200dd70f
       62885000	      6287	00000000	00000013	addi	x0,x0,0	  x0:0x00000000
       62895000	      6288	80003218	00000013	addi	x0,x0,0	  x0:0x00000000
       62905000	      6289	8000321c	00fba9b3	slt	x19,x23,x15	 x23:0xfffff800 x15:0x80009ec8 x19=0x00000000
       62915000	      6290	80003220	01ed8233	add	x4,x27,x30	 x27:0x00000000 x30:0x00000000  x4=0x00000000
       62925000	      6291	80003224	40b1deb3	sra	x29,x3,x11	  x3:0x00000001 x11:0xfffffda6 x29=0x00000000
       62935000	      6292	80003228	143cbb93	sltiu	x23,x25,323	 x25:0x00800100 x23=0x00000000
       62945000	      6293	8000322c	41bc8ab3	sub	x21,x25,x27	 x25:0x00800100 x27:0x00000000 x21=0x00800100
       62955000	      6294	80003230	05674063	blt	x14,x22,80003270	 x14:0x000002aa x22:0xffebc000
       62965000	      6295	80003234	a690a913	slti	x18,x1,-1431	  x1:0x00000000 x18=0x00000000
       62975000	      6296	80003238	e6bbf193	andi	x3,x23,-405	 x23:0x00000000  x3=0x00000000
       62985000	      6297	8000323c	4041d993	srai	x19,x3,0x4	  x3:0x00000000 x19=0x00000000
       62995000	      6298	80003240	012f99b3	sll	x19,x31,x18	 x31:0x0041dd9f x18:0x00000000 x19=0x0041dd9f
       63005000	      6299	80003244	00951533	sll	x10,x10,x9	 x10:0xfffffeaf  x9:0x00000005 x10=0xffffd5e0
       63015000	      6300	80003248	401302b3	sub	x5,x6,x1	  x6:0x00000000  x1:0x00000000  x5=0x00000000
       63025000	      6301	8000324c	51b76913	ori	x18,x14,1307	 x14:0x000002aa x18=0x000007bb
       63035000	      6302	80003250	00c5da93	srli	x21,x11,0xc	 x11:0xfffffda6 x21=0x000fffff
       63045000	      6303	80003254	018b8eb3	add	x29,x23,x24	 x23:0x00000000 x24:0x00000744 x29=0x00000744
       63055000	      6304	80003258	2e42ec93	ori	x25,x5,740	  x5:0x00000000 x25=0x000002e4
       63065000	      6305	8000325c	0411f863	bgeu	x3,x1,800032ac	  x3:0x00000000  x1:0x00000000
       63075000	      6306	00000000	00000013	addi	x0,x0,0	  x0:0x00000000
       63085000	      6307	800032a8	00000013	addi	x0,x0,0	  x0:0x00000000
       63095000	      6308	800032ac	00525a33	srl	x20,x4,x5	  x4:0x00000000  x5:0x00000000 x20=0x00000000
       63105000	      6309	800032b0	014b9bb3	sll	x23,x23,x20	 x23:0x00000000 x20:0x00000000 x23=0x00000000
       63115000	      6310	800032b4	98c12493	slti	x9,x2,-1652	  x2:0x00000000  x9=0x00000000
       63125000	      6311	800032b8	006032b3	sltu	x5,x0,x6	  x0:0x00000000  x6:0x00000000  x5=0x00000000
       63135000	      6312	800032bc	00f36133	or	x2,x6,x15	  x6:0x00000000 x15:0x80009ec8  x2=0x80009ec8
       63145000	      6313	800032c0	05ba0063	beq	x20,x27,80003300	 x20:0x00000000 x27:0x00000000
       63155000	      6314	00000000	00000013	addi	x0,x0,0	  x0:0x00000000
       63165000	      6315	800032fc	00000013	addi	x0,x0,0	  x0:0x00000000
       63175000	      6316	80003300	01bf4033	xor	x0,x30,x27	 x30:0x00000000 x27:0x00000000
       63185000	      6317	80003304	31642b17	auipc	x22,0x31642	 x22=0xb1645300
       63195000	      6318	80003308	fbe40113	addi	x2,x8,-66	  x8:0x200dd000  x2=0x200dcfbe
       63205000	      6319	8000330c	76a4ff13	andi	x30,x9,1898	  x9:0x00000000 x30=0x00000000
       63215000	      6320	80003310	78d13f93	sltiu	x31,x2,1933	  x2:0x200dcfbe x31=0x00000000
       63225000	      6321	80003314	0139c5b3	xor	x11,x19,x19	 x19:0x0041dd9f x19:0x0041dd9f x11=0x00000000
       63235000	      6322	80003318	fd898713	addi	x14,x19,-40	 x19:0x0041dd9f x14=0x0041dd77
       63245000	      6323	8000331c	08d9e993	ori	x19,x19,141	 x19:0x0041dd9f x19=0x0041dd9f
       63255000	      6324	80003320	97d5ef13	ori	x30,x11,-1667	 x11:0x00000000 x30=0xfffff97d
       63265000	      6325	80003324	00240cb3	add	x25,x8,x2	  x8:0x200dd000  x2:0x200dcfbe x25=0x401b9fbe
       63275000	      6326	80003328	af9da713	slti	x14,x27,-1287	 x27:0x00000000 x14=0x00000000
       63285000	      6327	8000332c	02061e63	bne	x12,x0,80003368	 x12:0x00000000  x0:0x00000000
       63295000	      6328	80003330	00000013	addi	x0,x0,0	  x0:0x00000000
       63305000	      6329	80003334	01356a63	bltu	x10,x19,80003348	 x10:0xffffd5e0 x19:0x0041dd9f
       63315000	      6330	80003338	002342b3	xor	x5,x6,x2	  x6:0x00000000  x2:0x200dcfbe  x5=0x200dcfbe
       63325000	      6331	8000333c	00b8f263	bgeu	x17,x11,80003340	 x17:0x200dd70f x11:0x00000000
       63335000	      6332	00000000	00000013	addi	x0,x0,0	  x0:0x00000000
       63345000	      6333	8000333c	00000013	addi	x0,x0,0	  x0:0x00000000
       63355000	      6334	80003340	4b45a593	slti	x11,x11,1204	 x11:0x00000000 x11=0x00000001
       63365000	      6335	80003344	01c29213	slli	x4,x5,0x1c	  x5:0x200dcfbe  x4=0xe0000000
       63375000	      6336	80003348	00c713b3	sll	x7,x14,x12	 x14:0x00000000 x12:0x00000000  x7=0x00000000
       63385000	      6337	8000334c	ee47e813	ori	x16,x15,-284	 x15:0x80009ec8 x16=0xfffffeec
       63395000	      6338	80003350	01effc63	bgeu	x31,x30,80003368	 x31:0x00000000 x30:0xfffff97d
       63405000	      6339	80003354	00228333	add	x6,x5,x2	  x5:0x200dcfbe  x2:0x200dcfbe  x6=0x401b9f7c
       63415000	      6340	80003358	7f828917	auipc	x18,0x7f828	 x18=0xff82b354
       63425000	      6341	8000335c	00e58ab3	add	x21,x11,x14	 x11:0x00000001 x14:0x00000000 x21=0x00000001
       63435000	      6342	80003360	00a51233	sll	x4,x10,x10	 x10:0xffffd5e0 x10:0xffffd5e0  x4=0xffffd5e0
       63445000	      6343	80003364	02434c63	blt	x6,x4,8000339c	  x6:0x401b9f7c  x4:0xffffd5e0
       63455000	      6344	80003368	49ed7c97	auipc	x25,0x49ed7	 x25=0xc9eda364
       63465000	      6345	8000336c	00341e93	slli	x29,x8,0x3	  x8:0x200dd000 x29=0x006e8000
       63475000	      6346	80003370	00d28a63	beq	x5,x13,80003384	  x5:0x200dcfbe x13:0x00000000
       63485000	      6347	80003374	43807e93	andi	x29,x0,1080	  x0:0x00000000 x29=0x00000000
       63495000	      6348	80003378	02034e63	blt	x6,x0,800033b4	  x6:0x401b9f7c  x0:0x00000000
       63505000	      6349	8000337c	01087cb3	and	x25,x16,x16	 x16:0xfffffeec x16:0xfffffeec x25=0xfffffeec
       63515000	      6350	80003380	00d989b3	add	x19,x19,x13	 x19:0x0041dd9f x13:0x00000000 x19=0x0041dd9f
       63525000	      6351	80003384	71356093	ori	x1,x10,1811	 x10:0xffffd5e0  x1=0xffffd7f3
       63535000	      6352	80003388	0004e263	bltu	x9,x0,8000338c	  x9:0x00000000  x0:0x00000000
       63545000	      6353	8000338c	40360033	sub	x0,x12,x3	 x12:0x00000000  x3:0x00000000
       63555000	      6354	80003390	011d4233	xor	x4,x26,x17	 x26:0x80009fc4 x17:0x200dd70f  x4=0xa00d48cb
       63565000	      6355	80003394	a0794f93	xori	x31,x18,-1529	 x18:0xff82b354 x31=0x007d4953
       63575000	      6356	80003398	005dd733	srl	x14,x27,x5	 x27:0x00000000  x5:0x200dcfbe x14=0x00000000
       63585000	      6357	8000339c	00d57c63	bgeu	x10,x13,800033b4	 x10:0xffffd5e0 x13:0x00000000
       63595000	      6358	00000000	00000013	addi	x0,x0,0	  x0:0x00000000
       63605000	      6359	800033b0	00000013	addi	x0,x0,0	  x0:0x00000000
       63615000	      6360	800033b4	00260fb3	add	x31,x12,x2	 x12:0x00000000  x2:0x200dcfbe x31=0x200dcfbe
       63625000	      6361	800033b8	4113d493	srai	x9,x7,0x11	  x7:0x00000000  x9=0x00000000
       63635000	      6362	800033bc	01d528b3	slt	x17,x10,x29	 x10:0xffffd5e0 x29:0x00000000 x17=0x00000001
       63645000	      6363	800033c0	009ec0b3	xor	x1,x29,x9	 x29:0x00000000  x9:0x00000000  x1=0x00000000
       63655000	      6364	800033c4	40c65e13	srai	x28,x12,0xc	 x12:0x00000000 x28=0x00000000
       63665000	      6365	800033c8	00000013	addi	x0,x0,0	  x0:0x00000000
       63675000	      6366	800033cc	01016433	or	x8,x2,x16	  x2:0x200dcfbe x16:0xfffffeec  x8=0xfffffffe
       63685000	      6367	800033d0	d420b413	sltiu	x8,x1,-702	  x1:0x00000000  x8=0x00000001
       63695000	      6368	800033d4	013552b3	srl	x5,x10,x19	 x10:0xffffd5e0 x19:0x0041dd9f  x5=0x00000001
       63705000	      6369	800033d8	c22fe513	ori	x10,x31,-990	 x31:0x200dcfbe x10=0xffffffbe
       63715000	      6370	800033dc	009b5893	srli	x17,x22,0x9	 x22:0xb1645300 x17=0x0058b229
       63725000	      6371	800033e0	01791513	slli	x10,x18,0x17	 x18:0xff82b354 x10=0xaa000000
       63735000	      6372	800033e4	9db22b13	slti	x22,x4,-1573	  x4:0xa00d48cb x22=0x00000001
       63745000	      6373	800033e8	1810c4b7	lui	x9,0x1810c	  x9=0x1810c000
       63755000	      6374	800033ec	02a08e63	beq	x1,x10,80003428	  x1:0x00000000 x10:0xaa000000
       63765000	      6375	800033f0	00000013	addi	x0,x0,0	  x0:0x00000000
       63775000	      6376	800033f4	202d7013	andi	x0,x26,514	 x26:0x80009fc4
       63785000	      6377	800033f8	04411063	bne	x2,x4,80003438	  x2:0x200dcfbe  x4:0xa00d48cb
       63795000	      6378	00000000	00000013	addi	x0,x0,0	  x0:0x00000000
       63805000	      6379	80003434	00000013	addi	x0,x0,0	  x0:0x00000000
       63815000	      6380	80003438	41a65a93	srai	x21,x12,0x1a	 x12:0x00000000 x21=0x00000000
       63825000	      6381	8000343c	01a12033	slt	x0,x2,x26	  x2:0x200dcfbe x26:0x80009fc4
       63835000	      6382	80003440	5b36a113	slti	x2,x13,1459	 x13:0x00000000  x2=0x00000001
       63845000	      6383	80003444	01d8a333	slt	x6,x17,x29	 x17:0x0058b229 x29:0x00000000  x6=0x00000000
       63855000	      6384	80003448	012d0533	add	x10,x26,x18	 x26:0x80009fc4 x18:0xff82b354 x10=0x7f835318
       63865000	      6385	8000344c	01354e33	xor	x28,x10,x19	 x10:0x7f835318 x19:0x0041dd9f x28=0x7fc28e87
       63875000	      6386	80003450	012c5c93	srli	x25,x24,0x12	 x24:0x00000744 x25=0x00000000
       63885000	      6387	80003454	05539063	bne	x7,x21,80003494	  x7:0x00000000 x21:0x00000000
       63895000	      6388	80003458	0071cfb3	xor	x31,x3,x7	  x3:0x00000000  x7:0x00000000 x31=0x00000000
       63905000	      6389	8000345c	00058733	add	x14,x11,x0	 x11:0x00000001  x0:0x00000000 x14=0x00000001
       63915000	      6390	80003460	41b956b3	sra	x13,x18,x27	 x18:0xff82b354 x27:0x00000000 x13=0xff82b354
       63925000	      6391	80003464	00381c93	slli	x25,x16,0x3	 x16:0xfffffeec x25=0xfffff760
       63935000	      6392	80003468	01296a63	bltu	x18,x18,8000347c	 x18:0xff82b354 x18:0xff82b354
       63945000	      6393	8000346c	00e34a33	xor	x20,x6,x14	  x6:0x00000000 x14:0x00000001 x20=0x00000001
       63955000	      6394	80003470	bbae8593	addi	x11,x29,-1094	 x29:0x00000000 x11=0xfffffbba
       63965000	      6395	80003474	00a94263	blt	x18,x10,80003478	 x18:0xff82b354 x10:0x7f835318
       63975000	      6396	00000000	00000013	addi	x0,x0,0	  x0:0x00000000
       63985000	      6397	80003474	00000013	addi	x0,x0,0	  x0:0x00000000
       63995000	      6398	80003478	40dd6e13	ori	x28,x26,1037	 x26:0x80009fc4 x28=0x80009fcd
       64005000	      6399	8000347c	00af3333	sltu	x6,x30,x10	 x30:0xfffff97d x10:0x7f835318  x6=0x00000000
       64015000	      6400	80003480	03c5e663	bltu	x11,x28,800034ac	 x11:0xfffffbba x28:0x80009fcd
       64025000	      6401	80003484	403352b3	sra	x5,x6,x3	  x6:0x00000000  x3:0x00000000  x5=0x00000000
       64035000	      6402	80003488	013fb733	sltu	x14,x31,x19	 x31:0x00000000 x19:0x0041dd9f x14=0x00000001
       64045000	      6403	8000348c	01f70863	beq	x14,x31,8000349c	 x14:0x00000001 x31:0x00000000
       64055000	      6404	80003490	0261ee63	bltu	x3,x6,800034cc	  x3:0x00000000  x6:0x00000000
       64065000	      6405	80003494	016294b3	sll	x9,x5,x22	  x5:0x00000000 x22:0x00000001  x9=0x00000000
       64075000	      6406	80003498	01063a33	sltu	x20,x12,x16	 x12:0x00000000 x16:0xfffffeec x20=0x00000001
       64085000	      6407	8000349c	02a78a63	beq	x15,x10,800034d0	 x15:0x80009ec8 x10:0x7f835318
       64095000	      6408	800034a0	40565093	srai	x1,x12,0x5	 x12:0x00000000  x1=0x00000000
       64105000	      6409	800034a4	7d49a837	lui	x16,0x7d49a	 x16=0x7d49a000
       64115000	      6410	800034a8	000ae933	or	x18,x21,x0	 x21:0x00000000  x0:0x00000000 x18=0x00000000
       64125000	      6411	800034ac	019f9493	slli	x9,x31,0x19	 x31:0x00000000  x9=0x00000000
       64135000	      6412	800034b0	0426f863	bgeu	x13,x2,80003500	 x13:0xff82b354  x2:0x00000001
       64145000	      6413	00000000	00000013	addi	x0,x0,0	  x0:0x00000000
       64155000	      6414	800034fc	00000013	addi	x0,x0,0	  x0:0x00000000
       64165000	      6415	80003500	00000013	addi	x0,x0,0	  x0:0x00000000
       64175000	      6416	80003504	fa6e3b93	sltiu	x23,x28,-90	 x28:0x80009fcd x23=0x00000001
       64185000	      6417	80003508	0059ab33	slt	x22,x19,x5	 x19:0x0041dd9f  x5:0x00000000 x22=0x00000000
       64195000	      6418	8000350c	01b0d5b3	srl	x11,x1,x27	  x1:0x00000000 x27:0x00000000 x11=0x00000000
       64205000	      6419	80003510	01873233	sltu	x4,x14,x24	 x14:0x00000001 x24:0x00000744  x4=0x00000001
       64215000	      6420	80003514	0160d6b3	srl	x13,x1,x22	  x1:0x00000000 x22:0x00000000 x13=0x00000000
       64225000	      6421	80003518	01f0bb33	sltu	x22,x1,x31	  x1:0x00000000 x31:0x00000000 x22=0x00000000
       64235000	      6422	8000351c	04a0f063	bgeu	x1,x10,8000355c	  x1:0x00000000 x10:0x7f835318
       64245000	      6423	80003520	01af54b3	srl	x9,x30,x26	 x30:0xfffff97d x26:0x80009fc4  x9=0x0fffff97
       64255000	      6424	80003524	05e0c663	blt	x1,x30,80003570	  x1:0x00000000 x30:0xfffff97d
       64265000	      6425	80003528	40fd8333	sub	x6,x27,x15	 x27:0x00000000 x15:0x80009ec8  x6=0x7fff6138
       64275000	      6426	8000352c	01499693	slli	x13,x19,0x14	 x19:0x0041dd9f x13=0xd9f00000
       64285000	      6427	80003530	96d5e693	ori	x13,x11,-1683	 x11:0x00000000 x13=0xfffff96d
       64295000	      6428	80003534	04d14063	blt	x2,x13,80003574	  x2:0x00000001 x13:0xfffff96d
       64305000	      6429	80003538	003f11b3	sll	x3,x30,x3	 x30:0xfffff97d  x3:0x00000000  x3=0xfffff97d
       64315000	      6430	8000353c	016a8233	add	x4,x21,x22	 x21:0x00000000 x22:0x00000000  x4=0x00000000
       64325000	      6431	80003540	41378733	sub	x14,x15,x19	 x15:0x80009ec8 x19:0x0041dd9f x14=0x7fbec129
       64335000	      6432	80003544	3a6fe737	lui	x14,0x3a6fe	 x14=0x3a6fe000
       64345000	      6433	80003548	00d6e533	or	x10,x13,x13	 x13:0xfffff96d x13:0xfffff96d x10=0xfffff96d
       64355000	      6434	8000354c	4150dc93	srai	x25,x1,0x15	  x1:0x00000000 x25=0x00000000
       64365000	      6435	80003550	4182da93	srai	x21,x5,0x18	  x5:0x00000000 x21=0x00000000
       64375000	      6436	80003554	00b273b3	and	x7,x4,x11	  x4:0x00000000 x11:0x00000000  x7=0x00000000
       64385000	      6437	80003558	0392de63	bge	x5,x25,80003594	  x5:0x00000000 x25:0x00000000
       64395000	      6438	00000000	00000013	addi	x0,x0,0	  x0:0x00000000
       64405000	      6439	80003590	00000013	addi	x0,x0,0	  x0:0x00000000
       64415000	      6440	80003594	0009e863	bltu	x19,x0,800035a4	 x19:0x0041dd9f  x0:0x00000000
       64425000	      6441	80003598	01b96c63	bltu	x18,x27,800035b0	 x18:0x00000000 x27:0x00000000
       64435000	      6442	8000359c	0bfa4213	xori	x4,x20,191	 x20:0x00000001  x4=0x000000be
       64445000	      6443	800035a0	00d60333	add	x6,x12,x13	 x12:0x00000000 x13:0xfffff96d  x6=0xfffff96d
       64455000	      6444	800035a4	40050bb3	sub	x23,x10,x0	 x10:0xfffff96d  x0:0x00000000 x23=0xfffff96d
       64465000	      6445	800035a8	012f5e33	srl	x28,x30,x18	 x30:0xfffff97d x18:0x00000000 x28=0xfffff97d
       64475000	      6446	800035ac	112e4013	xori	x0,x28,274	 x28:0xfffff97d
       64485000	      6447	800035b0	01d29f13	slli	x30,x5,0x1d	  x5:0x00000000 x30=0x00000000
       64495000	      6448	800035b4	00fece33	xor	x28,x29,x15	 x29:0x00000000 x15:0x80009ec8 x28=0x80009ec8
       64505000	      6449	800035b8	4058d593	srai	x11,x17,0x5	 x17:0x0058b229 x11=0x0002c591
       64515000	      6450	800035bc	0047a083	lw	x1,4(x15)	 x15:0x80009ec8  x1=0x8000693c PA:0x80009ecc
       64525000	      6451	00000000	00000013	addi	x0,x0,0	  x0:0x00000000
       64535000	      6452	800035c0	0fa0af13	slti	x30,x1,250	  x1:0x8000693c x30=0x00000001
       64545000	      6453	800035c4	03878793	addi	x15,x15,56	 x15:0x80009ec8 x15=0x80009f00
       64555000	      6454	800035c8	f68ff697	auipc	x13,0xf68ff	 x13=0x769025c4
       64565000	      6455	800035cc	0040a833	slt	x16,x1,x4	  x1:0x8000693c  x4:0x000000be x16=0x00000001
       64575000	      6456	800035d0	00008713	addi	x14,x1,0	  x1:0x8000693c x14=0x8000693c
       64585000	      6457	800035d4	00070767	jalr	x14,x14,0	 x14:0x8000693c x14=0x800035d4
       64595000	      6458	00000000	00000013	addi	x0,x0,0	  x0:0x00000000
       64605000	      6459	8000693c	00000013	addi	x0,x0,0	  x0:0x00000000
       64615000	      6460	80006940	74650113	addi	x2,x10,1862	 x10:0xfffff96d  x2=0x000000b3
       64625000	      6461	80006944	01b75c63	bge	x14,x27,8000695c	 x14:0x800035d4 x27:0x00000000
       64635000	      6462	80006948	00e6c293	xori	x5,x13,14	 x13:0x769025c4  x5=0x769025ca
       64645000	      6463	8000694c	2c66b193	sltiu	x3,x13,710	 x13:0x769025c4  x3=0x00000000
       64655000	      6464	80006950	4026d233	sra	x4,x13,x2	 x13:0x769025c4  x2:0x000000b3  x4=0x00000ed2
       64665000	      6465	80006954	406edf13	srai	x30,x29,0x6	 x29:0x00000000 x30=0x00000000
       64675000	      6466	80006958	c8954d93	xori	x27,x10,-887	 x10:0xfffff96d x27=0x000005e4
       64685000	      6467	8000695c	c7dfc0ef	jal	x1,8000695c	  x1=0x8000695c
       64695000	      6468	00000000	00000013	addi	x0,x0,0	  x0:0x00000000
       64705000	      6469	800035d4	00000013	addi	x0,x0,0	  x0:0x00000000
       64715000	      6470	800035d8	400e54b3	sra	x9,x28,x0	 x28:0x80009ec8  x0:0x00000000  x9=0x80009ec8
       64725000	      6471	800035dc	44508013	addi	x0,x1,1093	  x1:0x8000695c
       64735000	      6472	800035e0	3c47af97	auipc	x31,0x3c47a	 x31=0xbc47d5dc
       64745000	      6473	800035e4	4024db33	sra	x22,x9,x2	  x9:0x80009ec8  x2:0x000000b3 x22=0xfffff000
       64755000	      6474	800035e8	747fb693	sltiu	x13,x31,1863	 x31:0xbc47d5dc x13=0x00000000
       64765000	      6475	800035ec	00bf1e33	sll	x28,x30,x11	 x30:0x00000000 x11:0x0002c591 x28=0x00000000
       64775000	      6476	800035f0	fd878793	addi	x15,x15,-40	 x15:0x80009f00 x15=0x80009ed8
       64785000	      6477	800035f4	0024bcb3	sltu	x25,x9,x2	  x9:0x80009ec8  x2:0x000000b3 x25=0x00000000
       64795000	      6478	800035f8	0017a223	sw	x1,4(x15)	 x15:0x80009ed8  x1:0x8000695c PA:0x80009edc
       64805000	      6479	800035fc	2f60d297	auipc	x5,0x2f60d	  x5=0xaf6105f8
       64815000	      6480	80003600	4058d213	srai	x4,x17,0x5	 x17:0x0058b229  x4=0x0002c591
       64825000	      6481	80003604	0121ae33	slt	x28,x3,x18	  x3:0x00000000 x18:0x00000000 x28=0x00000000
       64835000	      6482	80003608	d3a88213	addi	x4,x17,-710	 x17:0x0058b229  x4=0x0058af63
       64845000	      6483	8000360c	00e69a33	sll	x20,x13,x14	 x13:0x00000000 x14:0x800035d4 x20=0x00000000
       64855000	      6484	80003610	00a485b3	add	x11,x9,x10	  x9:0x80009ec8 x10:0xfffff96d x11=0x80009835
       64865000	      6485	80003614	7e583393	sltiu	x7,x16,2021	 x16:0x00000001  x7=0x00000001
       64875000	      6486	80003618	41825933	sra	x18,x4,x24	  x4:0x0058af63 x24:0x00000744 x18=0x00058af6
       64885000	      6487	8000361c	0f4030ef	jal	x1,8000361c	  x1=0x8000361c
       64895000	      6488	00000000	00000013	addi	x0,x0,0	  x0:0x00000000
       64905000	      6489	8000670c	00000013	addi	x0,x0,0	  x0:0x00000000
       64915000	      6490	80006710	689de817	auipc	x16,0x689de	 x16=0xe89e470c
       64925000	      6491	80006714	008b7863	bgeu	x22,x8,80006724	 x22:0xfffff000  x8:0x00000001
       64935000	      6492	00000000	00000013	addi	x0,x0,0	  x0:0x00000000
       64945000	      6493	80006720	00000013	addi	x0,x0,0	  x0:0x00000000
       64955000	      6494	80006724	fc878793	addi	x15,x15,-56	 x15:0x80009ed8 x15=0x80009ea0
       64965000	      6495	80006728	0017a223	sw	x1,4(x15)	 x15:0x80009ea0  x1:0x8000361c PA:0x80009ea4
       64975000	      6496	8000672c	01f3a2b3	slt	x5,x7,x31	  x7:0x00000001 x31:0xbc47d5dc  x5=0x00000000
       64985000	      6497	80006730	910a6193	ori	x3,x20,-1776	 x20:0x00000000  x3=0xfffff910
       64995000	      6498	80006734	4dfe4e13	xori	x28,x28,1247	 x28:0x00000000 x28=0x000004df
       65005000	      6499	80006738	eb173493	sltiu	x9,x14,-335	 x14:0x800035d4  x9=0x00000001
       65015000	      6500	8000673c	8be0fa97	auipc	x21,0x8be0f	 x21=0x0be15738
       65025000	      6501	80006740	ab8f3713	sltiu	x14,x30,-1352	 x30:0x00000000 x14=0x00000001
       65035000	      6502	80006744	00189ab3	sll	x21,x17,x1	 x17:0x0058b229  x1:0x8000361c x21=0x90000000
       65045000	      6503	80006748	6dab6293	ori	x5,x22,1754	 x22:0xfffff000  x5=0xfffff6da
       65055000	      6504	8000674c	037e1a63	bne	x28,x23,80006780	 x28:0x000004df x23:0xfffff96d
       65065000	      6505	00000000	00000013	addi	x0,x0,0	  x0:0x00000000
       65075000	      6506	8000677c	00000013	addi	x0,x0,0	  x0:0x00000000
       65085000	      6507	80006780	019ddb33	srl	x22,x27,x25	 x27:0x000005e4 x25:0x00000000 x22=0x000005e4
       65095000	      6508	80006784	019c9013	slli	x0,x25,0x19	 x25:0x00000000
       65105000	      6509	80006788	0047a083	lw	x1,4(x15)	 x15:0x80009ea0  x1=0x8000361c PA:0x80009ea4
       65115000	      6510	8000678c	8c6ce197	auipc	x3,0x8c6ce	  x3=0x0c6d4788
       65125000	      6511	80006790	0165dd93	srli	x27,x11,0x16	 x11:0x80009835 x27=0x00000200
       65135000	      6512	80006794	03878793	addi	x15,x15,56	 x15:0x80009ea0 x15=0x80009ed8
       65145000	      6513	80006798	016d4433	xor	x8,x26,x22	 x26:0x80009fc4 x22:0x000005e4  x8=0x80009a20
       65155000	      6514	8000679c	00108593	addi	x11,x1,1	  x1:0x8000361c x11=0x8000361d
       65165000	      6515	800067a0	000585e7	jalr	x11,x11,0	 x11:0x8000361d x11=0x800067a0
       65175000	      6516	00000000	00000013	addi	x0,x0,0	  x0:0x00000000
       65185000	      6517	8000361c	00000013	addi	x0,x0,0	  x0:0x00000000
       65195000	      6518	80003620	00005117	auipc	x2,0x5	  x2=0x8000861c
       65205000	      6519	80003624	3ae10113	addi	x2,x2,942	  x2:0x8000861c  x2=0x800089ca
       65215000	      6520	80003628	ff612d23	sw	x22,-6(x2)	  x2:0x800089ca x22:0x000005e4 PA:0x800089c4
       65225000	      6521	8000362c	ffe11d23	sh	x30,-6(x2)	  x2:0x800089ca x30:0x00000000 PA:0x800089c4
       65235000	      6522	80003630	00fa9513	slli	x10,x21,0xf	 x21:0x90000000 x10=0x00000000
       65245000	      6523	80003634	c8892e13	slti	x28,x18,-888	 x18:0x00058af6 x28=0x00000000
       65255000	      6524	80003638	00763933	sltu	x18,x12,x7	 x12:0x00000000  x7:0x00000001 x18=0x00000001
       65265000	      6525	8000363c	41ed5433	sra	x8,x26,x30	 x26:0x80009fc4 x30:0x00000000  x8=0x80009fc4
       65275000	      6526	80003640	00714983	lbu	x19,7(x2)	  x2:0x800089ca x19=0x0000009d PA:0x800089d1
       65285000	      6527	80003644	fe310b23	sb	x3,-10(x2)	  x2:0x800089ca  x3:0x0c6d4788 PA:0x800089c0
       65295000	      6528	80003648	007ac533	xor	x10,x21,x7	 x21:0x90000000  x7:0x00000001 x10=0x90000001
       65305000	      6529	8000364c	005e8fb3	add	x31,x29,x5	 x29:0x00000000  x5:0xfffff6da x31=0xfffff6da
       65315000	      6530	80003650	fe410ca3	sb	x4,-7(x2)	  x2:0x800089ca  x4:0x0058af63 PA:0x800089c3
       65325000	      6531	80003654	ff714903	lbu	x18,-9(x2)	  x2:0x800089ca x18=0x000000ff PA:0x800089c1
       65335000	      6532	80003658	29ea6013	ori	x0,x20,670	 x20:0x00000000
       65345000	      6533	8000365c	bf156913	ori	x18,x10,-1039	 x10:0x90000001 x18=0xfffffbf1
       65355000	      6534	80003660	00c6b2b3	sltu	x5,x13,x12	 x13:0x00000000 x12:0x00000000  x5=0x00000000
       65365000	      6535	80003664	ff910fa3	sb	x25,-1(x2)	  x2:0x800089ca x25:0x00000000 PA:0x800089c9
       65375000	      6536	80003668	eecdd9b7	lui	x19,0xeecdd	 x19=0xeecdd000
       65385000	      6537	8000366c	83a30993	addi	x19,x6,-1990	  x6:0xfffff96d x19=0xfffff1a7
       65395000	      6538	80003670	00314383	lbu	x7,3(x2)	  x2:0x800089ca  x7=0x00000001 PA:0x800089cd
       65405000	      6539	80003674	00015f83	lhu	x31,0(x2)	  x2:0x800089ca x31=0x00000755 PA:0x800089ca
       65415000	      6540	80003678	417cde93	srai	x29,x25,0x17	 x25:0x00000000 x29=0x00000000
       65425000	      6541	8000367c	00d10403	lb	x8,13(x2)	  x2:0x800089ca  x8=0xffffff9f PA:0x800089d7
       65435000	      6542	80003680	010ecc33	xor	x24,x29,x16	 x29:0x00000000 x16:0xe89e470c x24=0xe89e470c
       65445000	      6543	80003684	01780433	add	x8,x16,x23	 x16:0xe89e470c x23:0xfffff96d  x8=0xe89e4079
       65455000	      6544	80003688	00b10803	lb	x16,11(x2)	  x2:0x800089ca x16=0x00000000 PA:0x800089d5
       65465000	      6545	8000368c	31e054b7	lui	x9,0x31e05	  x9=0x31e05000
       65475000	      6546	80003690	0538c213	xori	x4,x17,83	 x17:0x0058b229  x4=0x0058b27a
       65485000	      6547	80003694	415ed1b3	sra	x3,x29,x21	 x29:0x00000000 x21:0x90000000  x3=0x00000000
       65495000	      6548	80003698	01ae78b3	and	x17,x28,x26	 x28:0x00000000 x26:0x80009fc4 x17=0x00000000
       65505000	      6549	8000369c	01c105a3	sb	x28,11(x2)	  x2:0x800089ca x28:0x00000000 PA:0x800089d5
       65515000	      6550	800036a0	41f955b3	sra	x11,x18,x31	 x18:0xfffffbf1 x31:0x00000755 x11=0xffffffff
       65525000	      6551	800036a4	ff815f83	lhu	x31,-8(x2)	  x2:0x800089ca x31=0x00006367 PA:0x800089c2
       65535000	      6552	800036a8	ccdbcc17	auipc	x24,0xccdbc	 x24=0x4cdbf6a4
       65545000	      6553	800036ac	00dd1db3	sll	x27,x26,x13	 x26:0x80009fc4 x13:0x00000000 x27=0x80009fc4
       65555000	      6554	800036b0	ffd14683	lbu	x13,-3(x2)	  x2:0x800089ca x13=0x00000000 PA:0x800089c7
       65565000	      6555	00000000	00000013	addi	x0,x0,0	  x0:0x00000000
       65575000	      6556	800036b4	0046c9b3	xor	x19,x13,x4	 x13:0x00000000  x4:0x0058b27a x19=0x0058b27a
       65585000	      6557	800036b8	feb10ba3	sb	x11,-9(x2)	  x2:0x800089ca x11:0xffffffff PA:0x800089c1
       65595000	      6558	800036bc	00314883	lbu	x17,3(x2)	  x2:0x800089ca x17=0x00000001 PA:0x800089cd
       65605000	      6559	800036c0	01029f13	slli	x30,x5,0x10	  x5:0x00000000 x30=0x00000000
       65615000	      6560	800036c4	01415db3	srl	x27,x2,x20	  x2:0x800089ca x20:0x00000000 x27=0x800089ca
       65625000	      6561	800036c8	00950a33	add	x20,x10,x9	 x10:0x90000001  x9:0x31e05000 x20=0xc1e05001
       65635000	      6562	800036cc	0014fab3	and	x21,x9,x1	  x9:0x31e05000  x1:0x8000361c x21=0x00001000
       65645000	      6563	800036d0	86bbb013	sltiu	x0,x23,-1941	 x23:0xfffff96d
       65655000	      6564	800036d4	04654663	blt	x10,x6,80003720	 x10:0x90000001  x6:0xfffff96d
       65665000	      6565	00000000	00000013	addi	x0,x0,0	  x0:0x00000000
       65675000	      6566	8000371c	00000013	addi	x0,x0,0	  x0:0x00000000
       65685000	      6567	80003720	028ed863	bge	x29,x8,80003750	 x29:0x00000000  x8:0xe89e4079
       65695000	      6568	00000000	00000013	addi	x0,x0,0	  x0:0x00000000
       65705000	      6569	8000374c	00000013	addi	x0,x0,0	  x0:0x00000000
       65715000	      6570	80003750	00000013	addi	x0,x0,0	  x0:0x00000000
       65725000	      6571	80003754	01929933	sll	x18,x5,x25	  x5:0x00000000 x25:0x00000000 x18=0x00000000
       65735000	      6572	80003758	d21d0813	addi	x16,x26,-735	 x26:0x80009fc4 x16=0x80009ce5
       65745000	      6573	8000375c	dfc01297	auipc	x5,0xdfc01	  x5=0x5fc04758
       65755000	      6574	80003760	40a908b3	sub	x17,x18,x10	 x18:0x00000000 x10:0x90000001 x17=0x6fffffff
       65765000	      6575	80003764	7d210913	addi	x18,x2,2002	  x2:0x800089ca x18=0x8000919c
       65775000	      6576	80003768	00000013	addi	x0,x0,0	  x0:0x00000000
       65785000	      6577	8000376c	811cff13	andi	x30,x25,-2031	 x25:0x00000000 x30=0x00000000
       65795000	      6578	80003770	01e331b3	sltu	x3,x6,x30	  x6:0xfffff96d x30:0x00000000  x3=0x00000000
       65805000	      6579	80003774	0177ddb3	srl	x27,x15,x23	 x15:0x80009ed8 x23:0xfffff96d x27=0x00040004
       65815000	      6580	80003778	01ea3fb3	sltu	x31,x20,x30	 x20:0xc1e05001 x30:0x00000000 x31=0x00000000
       65825000	      6581	8000377c	00d538b3	sltu	x17,x10,x13	 x10:0x90000001 x13:0x00000000 x17=0x00000000
       65835000	      6582	80003780	614c6c13	ori	x24,x24,1556	 x24:0x4cdbf6a4 x24=0x4cdbf6b4
       65845000	      6583	80003784	05b46863	bltu	x8,x27,800037d4	  x8:0xe89e4079 x27:0x00040004
       65855000	      6584	80003788	11b82493	slti	x9,x16,283	 x16:0x80009ce5  x9=0x00000001
       65865000	      6585	8000378c	7fb92113	slti	x2,x18,2043	 x18:0x8000919c  x2=0x00000001
       65875000	      6586	80003790	00618463	beq	x3,x6,80003798	  x3:0x00000000  x6:0xfffff96d
       65885000	      6587	80003794	c571e813	ori	x16,x3,-937	  x3:0x00000000 x16=0xfffffc57
       65895000	      6588	80003798	006b1f93	slli	x31,x22,0x6	 x22:0x000005e4 x31=0x00017900
       65905000	      6589	8000379c	009d9eb3	sll	x29,x27,x9	 x27:0x00040004  x9:0x00000001 x29=0x00080008
       65915000	      6590	800037a0	0127f663	bgeu	x15,x18,800037ac	 x15:0x80009ed8 x18:0x8000919c
       65925000	      6591	00000000	00000013	addi	x0,x0,0	  x0:0x00000000
       65935000	      6592	800037a8	00000013	addi	x0,x0,0	  x0:0x00000000
       65945000	      6593	800037ac	02088a63	beq	x17,x0,800037e0	 x17:0x00000000  x0:0x00000000
       65955000	      6594	00000000	00000013	addi	x0,x0,0	  x0:0x00000000
       65965000	      6595	800037dc	00000013	addi	x0,x0,0	  x0:0x00000000
       65975000	      6596	800037e0	009e9333	sll	x6,x29,x9	 x29:0x00080008  x9:0x00000001  x6=0x00100010
       65985000	      6597	800037e4	00a2da63	bge	x5,x10,800037f8	  x5:0x5fc04758 x10:0x90000001
       65995000	      6598	00000000	00000013	addi	x0,x0,0	  x0:0x00000000
       66005000	      6599	800037f4	00000013	addi	x0,x0,0	  x0:0x00000000
       66015000	      6600	800037f8	412e5c13	srai	x24,x28,0x12	 x28:0x00000000 x24=0x00000000
       66025000	      6601	800037fc	418c5a13	srai	x20,x24,0x18	 x24:0x00000000 x20=0x00000000
       66035000	      6602	80003800	6435ce93	xori	x29,x11,1603	 x11:0xffffffff x29=0xfffff9bc
       66045000	      6603	80003804	35ba6213	ori	x4,x20,859	 x20:0x00000000  x4=0x0000035b
       66055000	      6604	80003808	00000013	addi	x0,x0,0	  x0:0x00000000
       66065000	      6605	8000380c	6b139917	auipc	x18,0x6b139	 x18=0xeb13c808
       66075000	      6606	80003810	00758433	add	x8,x11,x7	 x11:0xffffffff  x7:0x00000001  x8=0x00000000
       66085000	      6607	80003814	fa1a4737	lui	x14,0xfa1a4	 x14=0xfa1a4000
       66095000	      6608	80003818	fc8f3537	lui	x10,0xfc8f3	 x10=0xfc8f3000
       66105000	      6609	8000381c	007c8c33	add	x24,x25,x7	 x25:0x00000000  x7:0x00000001 x24=0x00000001
       66115000	      6610	80003820	01d2a8b3	slt	x17,x5,x29	  x5:0x5fc04758 x29:0xfffff9bc x17=0x00000000
       66125000	      6611	80003824	001ae033	or	x0,x21,x1	 x21:0x00001000  x1:0x8000361c
       66135000	      6612	80003828	011673b3	and	x7,x12,x17	 x12:0x00000000 x17:0x00000000  x7=0x00000000
       66145000	      6613	8000382c	24b0c093	xori	x1,x1,587	  x1:0x8000361c  x1=0x80003457
       66155000	      6614	80003830	00000013	addi	x0,x0,0	  x0:0x00000000
       66165000	      6615	80003834	000a65b3	or	x11,x20,x0	 x20:0x00000000  x0:0x00000000 x11=0x00000000
       66175000	      6616	80003838	0134d013	srli	x0,x9,0x13	  x9:0x00000001
       66185000	      6617	8000383c	01ef2fb3	slt	x31,x30,x30	 x30:0x00000000 x30:0x00000000 x31=0x00000000
       66195000	      6618	80003840	05996463	bltu	x18,x25,80003888	 x18:0xeb13c808 x25:0x00000000
       66205000	      6619	80003844	00ca7133	and	x2,x20,x12	 x20:0x00000000 x12:0x00000000  x2=0x00000000
       66215000	      6620	80003848	40355093	srai	x1,x10,0x3	 x10:0xfc8f3000  x1=0xff91e600
       66225000	      6621	8000384c	010db5b3	sltu	x11,x27,x16	 x27:0x00040004 x16:0xfffffc57 x11=0x00000001
       66235000	      6622	80003850	40b30e33	sub	x28,x6,x11	  x6:0x00100010 x11:0x00000001 x28=0x0010000f
       66245000	      6623	80003854	015c5313	srli	x6,x24,0x15	 x24:0x00000001  x6=0x00000000
       66255000	      6624	80003858	a993c493	xori	x9,x7,-1383	  x7:0x00000000  x9=0xfffffa99
       66265000	      6625	8000385c	00c1f833	and	x16,x3,x12	  x3:0x00000000 x12:0x00000000 x16=0x00000000
       66275000	      6626	80003860	00e3de13	srli	x28,x7,0xe	  x7:0x00000000 x28=0x00000000
       66285000	      6627	80003864	22a1c093	xori	x1,x3,554	  x3:0x00000000  x1=0x0000022a
       66295000	      6628	80003868	9ea5f693	andi	x13,x11,-1558	 x11:0x00000001 x13=0x00000000
       66305000	      6629	8000386c	a8917113	andi	x2,x2,-1399	  x2:0x00000000  x2=0x00000000
       66315000	      6630	80003870	2282ab17	auipc	x22,0x2282a	 x22=0xa282d86c
       66325000	      6631	80003874	00000013	addi	x0,x0,0	  x0:0x00000000
       66335000	      6632	80003878	3c1bf5b7	lui	x11,0x3c1bf	 x11=0x3c1bf000
       66345000	      6633	8000387c	03f64c63	blt	x12,x31,800038b4	 x12:0x00000000 x31:0x00000000
       66355000	      6634	80003880	00cfd663	bge	x31,x12,8000388c	 x31:0x00000000 x12:0x00000000
       66365000	      6635	00000000	00000013	addi	x0,x0,0	  x0:0x00000000
       66375000	      6636	80003888	00000013	addi	x0,x0,0	  x0:0x00000000
       66385000	      6637	8000388c	bf20f393	andi	x7,x1,-1038	  x1:0x0000022a  x7=0x00000222
       66395000	      6638	80003890	cd767713	andi	x14,x12,-809	 x12:0x00000000 x14=0x00000000
       66405000	      6639	80003894	406dd4b3	sra	x9,x27,x6	 x27:0x00040004  x6:0x00000000  x9=0x00040004
       66415000	      6640	80003898	00f15093	srli	x1,x2,0xf	  x2:0x00000000  x1=0x00000000
       66425000	      6641	8000389c	00e75c63	bge	x14,x14,800038b4	 x14:0x00000000 x14:0x00000000
       66435000	      6642	00000000	00000013	addi	x0,x0,0	  x0:0x00000000
       66445000	      6643	800038b0	00000013	addi	x0,x0,0	  x0:0x00000000
       66455000	      6644	800038b4	e6a0aa93	slti	x21,x1,-406	  x1:0x00000000 x21=0x00000000
       66465000	      6645	800038b8	40a0d6b3	sra	x13,x1,x10	  x1:0x00000000 x10:0xfc8f3000 x13=0x00000000
       66475000	      6646	800038bc	0047a083	lw	x1,4(x15)	 x15:0x80009ed8  x1=0x8000695c PA:0x80009edc
       66485000	      6647	800038c0	0185dfb3	srl	x31,x11,x24	 x11:0x3c1bf000 x24:0x00000001 x31=0x1e0df800
       66495000	      6648	800038c4	02878793	addi	x15,x15,40	 x15:0x80009ed8 x15=0x80009f00
       66505000	      6649	800038c8	90aac293	xori	x5,x21,-1782	 x21:0x00000000  x5=0xfffff90a
       66515000	      6650	800038cc	00108f13	addi	x30,x1,1	  x1:0x8000695c x30=0x8000695d
       66525000	      6651	800038d0	000f0f67	jalr	x30,x30,0	 x30:0x8000695d x30=0x800038d0
       66535000	      6652	00000000	00000013	addi	x0,x0,0	  x0:0x00000000
       66545000	      6653	8000695c	00000013	addi	x0,x0,0	  x0:0x00000000
       66555000	      6654	80006960	c922b093	sltiu	x1,x5,-878	  x5:0xfffff90a  x1=0x00000001
       66565000	      6655	80006964	55fbf393	andi	x7,x23,1375	 x23:0xfffff96d  x7=0x0000014d
       66575000	      6656	80006968	0283e063	bltu	x7,x8,80006988	  x7:0x0000014d  x8:0x00000000
       66585000	      6657	8000696c	0037fab3	and	x21,x15,x3	 x15:0x80009f00  x3:0x00000000 x21=0x00000000
       66595000	      6658	80006970	013208b3	add	x17,x4,x19	  x4:0x0000035b x19:0x0058b27a x17=0x0058b5d5
       66605000	      6659	80006974	0477d537	lui	x10,0x477d	 x10=0x0477d000
       66615000	      6660	80006978	01b51863	bne	x10,x27,80006988	 x10:0x0477d000 x27:0x00040004
       66625000	      6661	00000000	00000013	addi	x0,x0,0	  x0:0x00000000
       66635000	      6662	80006984	00000013	addi	x0,x0,0	  x0:0x00000000
       66645000	      6663	80006988	01dfff33	and	x30,x31,x29	 x31:0x1e0df800 x29:0xfffff9bc x30=0x1e0df800
       66655000	      6664	8000698c	0047a083	lw	x1,4(x15)	 x15:0x80009f00  x1=0x80001af0 PA:0x80009f04
       66665000	      6665	80006990	68d34213	xori	x4,x6,1677	  x6:0x00000000  x4=0x0000068d
       66675000	      6666	80006994	0073bcb3	sltu	x25,x7,x7	  x7:0x0000014d  x7:0x0000014d x25=0x00000000
       66685000	      6667	80006998	00789f13	slli	x30,x17,0x7	 x17:0x0058b5d5 x30=0x2c5aea80
       66695000	      6668	8000699c	03c78793	addi	x15,x15,60	 x15:0x80009f00 x15=0x80009f3c
       66705000	      6669	800069a0	005a52b3	srl	x5,x20,x5	 x20:0x00000000  x5:0xfffff90a  x5=0x00000000
       66715000	      6670	800069a4	cb6b4493	xori	x9,x22,-842	 x22:0xa282d86c  x9=0x5d7d24da
       66725000	      6671	800069a8	00108d93	addi	x27,x1,1	  x1:0x80001af0 x27=0x80001af1
       66735000	      6672	800069ac	000d8de7	jalr	x27,x27,0	 x27:0x80001af1 x27=0x800069ac
       66745000	      6673	00000000	00000013	addi	x0,x0,0	  x0:0x00000000
       66755000	      6674	80001af0	00000013	addi	x0,x0,0	  x0:0x00000000
       66765000	      6675	80001af4	00007117	auipc	x2,0x7	  x2=0x80008af0
       66775000	      6676	80001af8	33110113	addi	x2,x2,817	  x2:0x80008af0  x2=0x80008e21
       66785000	      6677	80001afc	00f14883	lbu	x17,15(x2)	  x2:0x80008e21 x17=0x00000074 PA:0x80008e30
       66795000	      6678	80001b00	00eeccb3	xor	x25,x29,x14	 x29:0xfffff9bc x14:0x00000000 x25=0xfffff9bc
       66805000	      6679	80001b04	4055d833	sra	x16,x11,x5	 x11:0x3c1bf000  x5:0x00000000 x16=0x3c1bf000
       66815000	      6680	80001b08	00c14683	lbu	x13,12(x2)	  x2:0x80008e21 x13=0x00000088 PA:0x80008e2d
       66825000	      6681	80001b0c	4153d433	sra	x8,x7,x21	  x7:0x0000014d x21:0x00000000  x8=0x0000014d
       66835000	      6682	80001b10	00014c03	lbu	x24,0(x2)	  x2:0x80008e21 x24=0x000000da PA:0x80008e21
       66845000	      6683	80001b14	003106a3	sb	x3,13(x2)	  x2:0x80008e21  x3:0x00000000 PA:0x80008e2e
       66855000	      6684	80001b18	00610123	sb	x6,2(x2)	  x2:0x80008e21  x6:0x00000000 PA:0x80008e23
       66865000	      6685	80001b1c	ff911303	lh	x6,-7(x2)	  x2:0x80008e21  x6=0xffff8000 PA:0x80008e1a
       66875000	      6686	80001b20	01014483	lbu	x9,16(x2)	  x2:0x80008e21  x9=0x00000033 PA:0x80008e31
       66885000	      6687	80001b24	ff714983	lbu	x19,-9(x2)	  x2:0x80008e21 x19=0x0000000d PA:0x80008e18
       66895000	      6688	80001b28	e2b52813	slti	x16,x10,-469	 x10:0x0477d000 x16=0x00000000
       66905000	      6689	80001b2c	00000013	addi	x0,x0,0	  x0:0x00000000
       66915000	      6690	80001b30	ead17893	andi	x17,x2,-339	  x2:0x80008e21 x17=0x80008e21
       66925000	      6691	80001b34	fff10c03	lb	x24,-1(x2)	  x2:0x80008e21 x24=0x0000007d PA:0x80008e20
       66935000	      6692	80001b38	00c14083	lbu	x1,12(x2)	  x2:0x80008e21  x1=0x00000088 PA:0x80008e2d
       66945000	      6693	80001b3c	ff014903	lbu	x18,-16(x2)	  x2:0x80008e21 x18=0x00000074 PA:0x80008e11
       66955000	      6694	80001b40	404bd313	srai	x6,x23,0x4	 x23:0xfffff96d  x6=0xffffff96
       66965000	      6695	80001b44	ffc14583	lbu	x11,-4(x2)	  x2:0x80008e21 x11=0x0000001b PA:0x80008e1d
       66975000	      6696	80001b48	ecab7a93	andi	x21,x22,-310	 x22:0xa282d86c x21=0xa282d848
       66985000	      6697	80001b4c	00114983	lbu	x19,1(x2)	  x2:0x80008e21 x19=0x0000002e PA:0x80008e22
       66995000	      6698	80001b50	411cdb93	srai	x23,x25,0x11	 x25:0xfffff9bc x23=0xffffffff
       67005000	      6699	80001b54	331b7293	andi	x5,x22,817	 x22:0xa282d86c  x5=0x00000020
       67015000	      6700	80001b58	00614703	lbu	x14,6(x2)	  x2:0x80008e21 x14=0x0000002a PA:0x80008e27
       67025000	      6701	80001b5c	fed10a23	sb	x13,-12(x2)	  x2:0x80008e21 x13:0x00000088 PA:0x80008e15
       67035000	      6702	80001b60	012107a3	sb	x18,15(x2)	  x2:0x80008e21 x18:0x00000074 PA:0x80008e30
       67045000	      6703	80001b64	ffe14683	lbu	x13,-2(x2)	  x2:0x80008e21 x13=0x000000fd PA:0x80008e1f
       67055000	      6704	80001b68	01dbd1b3	srl	x3,x23,x29	 x23:0xffffffff x29:0xfffff9bc  x3=0x0000000f
       67065000	      6705	80001b6c	ffe14483	lbu	x9,-2(x2)	  x2:0x80008e21  x9=0x000000fd PA:0x80008e1f
       67075000	      6706	80001b70	b51ce313	ori	x6,x25,-1199	 x25:0xfffff9bc  x6=0xfffffbfd
       67085000	      6707	80001b74	ff810203	lb	x4,-8(x2)	  x2:0x80008e21  x4=0x00000003 PA:0x80008e19
       67095000	      6708	80001b78	00b7b533	sltu	x10,x15,x11	 x15:0x80009f3c x11:0x0000001b x10=0x00000000
       67105000	      6709	80001b7c	007e7cb3	and	x25,x28,x7	 x28:0x00000000  x7:0x0000014d x25=0x00000000
       67115000	      6710	80001b80	014a05b3	add	x11,x20,x20	 x20:0x00000000 x20:0x00000000 x11=0x00000000
       67125000	      6711	80001b84	2da40913	addi	x18,x8,730	  x8:0x0000014d x18=0x00000427
       67135000	      6712	80001b88	00f15c03	lhu	x24,15(x2)	  x2:0x80008e21 x24=0x00003374 PA:0x80008e30
       67145000	      6713	80001b8c	0f4d90b7	lui	x1,0xf4d9	  x1=0x0f4d9000
       67155000	      6714	80001b90	552fbb93	sltiu	x23,x31,1362	 x31:0x1e0df800 x23=0x00000000
       67165000	      6715	80001b94	b25a2993	slti	x19,x20,-1243	 x20:0x00000000 x19=0x00000000
       67175000	      6716	80001b98	05192a93	slti	x21,x18,81	 x18:0x00000427 x21=0x00000000
       67185000	      6717	80001b9c	00000013	addi	x0,x0,0	  x0:0x00000000
       67195000	      6718	80001ba0	ff610c83	lb	x25,-10(x2)	  x2:0x80008e21 x25=0xffffffe1 PA:0x80008e17
       67205000	      6719	80001ba4	103ef037	lui	x0,0x103ef	
       67215000	      6720	80001ba8	570b3713	sltiu	x14,x22,1392	 x22:0xa282d86c x14=0x00000000
       67225000	      6721	80001bac	fe610f23	sb	x6,-2(x2)	  x2:0x80008e21  x6:0xfffffbfd PA:0x80008e1f
       67235000	      6722	80001bb0	ff111b83	lh	x23,-15(x2)	  x2:0x80008e21 x23=0xffff9ec4 PA:0x80008e12
       67245000	      6723	80001bb4	00810003	lb	x0,8(x2)	  x2:0x80008e21 PA:0x80008e29
       67255000	      6724	80001bb8	410d85b3	sub	x11,x27,x16	 x27:0x800069ac x16:0x00000000 x11=0x800069ac
       67265000	      6725	80001bbc	0092a5b3	slt	x11,x5,x9	  x5:0x00000020  x9:0x000000fd x11=0x00000001
       67275000	      6726	80001bc0	00000013	addi	x0,x0,0	  x0:0x00000000
       67285000	      6727	80001bc4	01205f93	srli	x31,x0,0x12	  x0:0x00000000 x31=0x00000000
       67295000	      6728	80001bc8	01014f03	lbu	x30,16(x2)	  x2:0x80008e21 x30=0x00000033 PA:0x80008e31
       67305000	      6729	80001bcc	00006897	auipc	x17,0x6	 x17=0x80007bc8
       67315000	      6730	80001bd0	5aa88893	addi	x17,x17,1450	 x17:0x80007bc8 x17=0x80008172
       67325000	      6731	80001bd4	01b4ffb3	and	x31,x9,x27	  x9:0x000000fd x27:0x800069ac x31=0x000000ac
       67335000	      6732	80001bd8	01388d83	lb	x27,19(x17)	 x17:0x80008172 x27=0x00000006 PA:0x80008185
       67345000	      6733	80001bdc	3b015237	lui	x4,0x3b015	  x4=0x3b015000
       67355000	      6734	80001be0	fcd8ca83	lbu	x21,-51(x17)	 x17:0x80008172 x21=0x000000fa PA:0x8000813f
       67365000	      6735	80001be4	00377433	and	x8,x14,x3	 x14:0x00000000  x3:0x0000000f  x8=0x00000000
       67375000	      6736	80001be8	fc9888a3	sb	x9,-47(x17)	 x17:0x80008172  x9:0x000000fd PA:0x80008143
       67385000	      6737	80001bec	0298ce03	lbu	x28,41(x17)	 x17:0x80008172 x28=0x000000fd PA:0x8000819b
       67395000	      6738	80001bf0	00d88a03	lb	x20,13(x17)	 x17:0x80008172 x20=0x0000004a PA:0x8000817f
       67405000	      6739	80001bf4	02a89003	lh	x0,42(x17)	 x17:0x80008172 PA:0x8000819c
       67415000	      6740	80001bf8	fee8c103	lbu	x2,-18(x17)	 x17:0x80008172  x2=0x00000085 PA:0x80008160
       67425000	      6741	80001bfc	71c28993	addi	x19,x5,1820	  x5:0x00000020 x19=0x0000073c
       67435000	      6742	80001c00	fe188223	sb	x1,-28(x17)	 x17:0x80008172  x1:0x0f4d9000 PA:0x80008156
       67445000	      6743	80001c04	009c5993	srli	x19,x24,0x9	 x24:0x00003374 x19=0x00000019
       67455000	      6744	80001c08	671c0213	addi	x4,x24,1649	 x24:0x00003374  x4=0x000039e5
       67465000	      6745	80001c0c	fe489e03	lh	x28,-28(x17)	 x17:0x80008172 x28=0x00000800 PA:0x80008156
       67475000	      6746	80001c10	fc888623	sb	x8,-52(x17)	 x17:0x80008172  x8:0x00000000 PA:0x8000813e
       67485000	      6747	80001c14	414dd033	sra	x0,x27,x20	 x27:0x00000006 x20:0x0000004a
       67495000	      6748	80001c18	01b88223	sb	x27,4(x17)	 x17:0x80008172 x27:0x00000006 PA:0x80008176
       67505000	      6749	80001c1c	00000013	addi	x0,x0,0	  x0:0x00000000
       67515000	      6750	80001c20	fd7880a3	sb	x23,-63(x17)	 x17:0x80008172 x23:0xffff9ec4 PA:0x80008133
       67525000	      6751	80001c24	0178c083	lbu	x1,23(x17)	 x17:0x80008172  x1=0x00000099 PA:0x80008189
       67535000	      6752	80001c28	0188c403	lbu	x8,24(x17)	 x17:0x80008172  x8=0x00000068 PA:0x8000818a
       67545000	      6753	80001c2c	fee8dc83	lhu	x25,-18(x17)	 x17:0x80008172 x25=0x0000d885 PA:0x80008160
       67555000	      6754	80001c30	fdb89823	sh	x27,-48(x17)	 x17:0x80008172 x27:0x00000006 PA:0x80008142
       67565000	      6755	80001c34	ff588da3	sb	x21,-5(x17)	 x17:0x80008172 x21:0x000000fa PA:0x8000816d
       67575000	      6756	80001c38	fee88a83	lb	x21,-18(x17)	 x17:0x80008172 x21=0xffffff85 PA:0x80008160
       67585000	      6757	80001c3c	0148ad23	sw	x20,26(x17)	 x17:0x80008172 x20:0x0000004a PA:0x8000818c
       67595000	      6758	80001c40	01cc23b3	slt	x7,x24,x28	 x24:0x00003374 x28:0x00000800  x7=0x00000000
       67605000	      6759	80001c44	01588ca3	sb	x21,25(x17)	 x17:0x80008172 x21:0xffffff85 PA:0x8000818b
       67615000	      6760	80001c48	00d32bb3	slt	x23,x6,x13	  x6:0xfffffbfd x13:0x000000fd x23=0x00000001
       67625000	      6761	80001c4c	fd588a23	sb	x21,-44(x17)	 x17:0x80008172 x21:0xffffff85 PA:0x80008146
       67635000	      6762	80001c50	00e05c13	srli	x24,x0,0xe	  x0:0x00000000 x24=0x00000000
       67645000	      6763	80001c54	ffd88703	lb	x14,-3(x17)	 x17:0x80008172 x14=0xfffffff9 PA:0x8000816f
       67655000	      6764	80001c58	02889d83	lh	x27,40(x17)	 x17:0x80008172 x27=0xfffffd3a PA:0x8000819a
       67665000	      6765	80001c5c	fc8881a3	sb	x8,-61(x17)	 x17:0x80008172  x8:0x00000068 PA:0x80008135
       67675000	      6766	80001c60	00188a83	lb	x21,1(x17)	 x17:0x80008172 x21=0x0000001a PA:0x80008173
       67685000	      6767	80001c64	ff888703	lb	x14,-8(x17)	 x17:0x80008172 x14=0xffffffd3 PA:0x8000816a
       67695000	      6768	80001c68	01d8c583	lbu	x11,29(x17)	 x17:0x80008172 x11=0x00000000 PA:0x8000818f
       67705000	      6769	80001c6c	0368ce83	lbu	x29,54(x17)	 x17:0x80008172 x29=0x00000037 PA:0x800081a8
       67715000	      6770	80001c70	00f8cc03	lbu	x24,15(x17)	 x17:0x80008172 x24=0x00000039 PA:0x80008181
       67725000	      6771	80001c74	0128cd83	lbu	x27,18(x17)	 x17:0x80008172 x27=0x0000001a PA:0x80008184
       67735000	      6772	80001c78	01c38863	beq	x7,x28,80001c88	  x7:0x00000000 x28:0x00000800
       67745000	      6773	80001c7c	00705b33	srl	x22,x0,x7	  x0:0x00000000  x7:0x00000000 x22=0x00000000
       67755000	      6774	80001c80	033f4c63	blt	x30,x19,80001cb8	 x30:0x00000033 x19:0x00000019
       67765000	      6775	80001c84	014fee33	or	x28,x31,x20	 x31:0x000000ac x20:0x0000004a x28=0x000000ee
       67775000	      6776	80001c88	01b75033	srl	x0,x14,x27	 x14:0xffffffd3 x27:0x0000001a
       67785000	      6777	80001c8c	020d0863	beq	x26,x0,80001cbc	 x26:0x80009fc4  x0:0x00000000
       67795000	      6778	80001c90	018e9c13	slli	x24,x29,0x18	 x29:0x00000037 x24=0x37000000
       67805000	      6779	80001c94	71c4f493	andi	x9,x9,1820	  x9:0x000000fd  x9=0x0000001c
       67815000	      6780	80001c98	0167d8b3	srl	x17,x15,x22	 x15:0x80009f3c x22:0x00000000 x17=0x80009f3c
       67825000	      6781	80001c9c	00d93b33	sltu	x22,x18,x13	 x18:0x00000427 x13:0x000000fd x22=0x00000000
       67835000	      6782	80001ca0	00a9d733	srl	x14,x19,x10	 x19:0x00000019 x10:0x00000000 x14=0x00000019
       67845000	      6783	80001ca4	00000013	addi	x0,x0,0	  x0:0x00000000
       67855000	      6784	80001ca8	36fe0e93	addi	x29,x28,879	 x28:0x000000ee x29=0x0000045d
       67865000	      6785	80001cac	d0926017	auipc	x0,0xd0926	
       67875000	      6786	80001cb0	01cb54b3	srl	x9,x22,x28	 x22:0x00000000 x28:0x000000ee  x9=0x00000000
       67885000	      6787	80001cb4	40555313	srai	x6,x10,0x5	 x10:0x00000000  x6=0x00000000
       67895000	      6788	80001cb8	01bc82b3	add	x5,x25,x27	 x25:0x0000d885 x27:0x0000001a  x5=0x0000d89f
       67905000	      6789	80001cbc	db6fb997	auipc	x19,0xdb6fb	 x19=0x5b6fccb8
       67915000	      6790	80001cc0	ae730a37	lui	x20,0xae730	 x20=0xae730000
       67925000	      6791	80001cc4	0110f8b3	and	x17,x1,x17	  x1:0x00000099 x17:0x80009f3c x17=0x00000018
       67935000	      6792	80001cc8	019d68b3	or	x17,x26,x25	 x26:0x80009fc4 x25:0x0000d885 x17=0x8000dfc5
       67945000	      6793	80001ccc	00401a33	sll	x20,x0,x4	  x0:0x00000000  x4:0x000039e5 x20=0x00000000
       67955000	      6794	80001cd0	411e5e13	srai	x28,x28,0x11	 x28:0x000000ee x28=0x00000000
       67965000	      6795	80001cd4	01ccc3b3	xor	x7,x25,x28	 x25:0x0000d885 x28:0x00000000  x7=0x0000d885
       67975000	      6796	80001cd8	03da0663	beq	x20,x29,80001d04	 x20:0x00000000 x29:0x0000045d
       67985000	      6797	80001cdc	b6dafa13	andi	x20,x21,-1171	 x21:0x0000001a x20=0x00000008
       67995000	      6798	80001ce0	c1ff2993	slti	x19,x30,-993	 x30:0x00000033 x19=0x00000000
       68005000	      6799	80001ce4	003e3db3	sltu	x27,x28,x3	 x28:0x00000000  x3:0x0000000f x27=0x00000001
       68015000	      6800	80001ce8	008b5e93	srli	x29,x22,0x8	 x22:0x00000000 x29=0x00000000
       68025000	      6801	80001cec	03624e63	blt	x4,x22,80001d28	  x4:0x000039e5 x22:0x00000000
       68035000	      6802	80001cf0	40b10733	sub	x14,x2,x11	  x2:0x00000085 x11:0x00000000 x14=0x00000085
       68045000	      6803	80001cf4	00c95993	srli	x19,x18,0xc	 x18:0x00000427 x19=0x00000000
       68055000	      6804	80001cf8	009de733	or	x14,x27,x9	 x27:0x00000001  x9:0x00000000 x14=0x00000001
       68065000	      6805	80001cfc	9b56ae13	slti	x28,x13,-1611	 x13:0x000000fd x28=0x00000000
       68075000	      6806	80001d00	40b75e13	srai	x28,x14,0xb	 x14:0x00000001 x28=0x00000000
       68085000	      6807	80001d04	00692ab3	slt	x21,x18,x6	 x18:0x00000427  x6:0x00000000 x21=0x00000000
       68095000	      6808	80001d08	00000013	addi	x0,x0,0	  x0:0x00000000
       68105000	      6809	80001d0c	01029db3	sll	x27,x5,x16	  x5:0x0000d89f x16:0x00000000 x27=0x0000d89f
       68115000	      6810	80001d10	e0ba19b7	lui	x19,0xe0ba1	 x19=0xe0ba1000
       68125000	      6811	80001d14	00000013	addi	x0,x0,0	  x0:0x00000000
       68135000	      6812	80001d18	03dc8663	beq	x25,x29,80001d44	 x25:0x0000d885 x29:0x00000000
       68145000	      6813	80001d1c	021c1c63	bne	x24,x1,80001d54	 x24:0x37000000  x1:0x00000099
       68155000	      6814	00000000	00000013	addi	x0,x0,0	  x0:0x00000000
       68165000	      6815	80001d50	00000013	addi	x0,x0,0	  x0:0x00000000
       68175000	      6816	80001d54	00e5d1b3	srl	x3,x11,x14	 x11:0x00000000 x14:0x00000001  x3=0x00000000
       68185000	      6817	80001d58	c3390193	addi	x3,x18,-973	 x18:0x00000427  x3=0x0000005a
       68195000	      6818	80001d5c	0f318c37	lui	x24,0xf318	 x24=0x0f318000
       68205000	      6819	80001d60	41d05833	sra	x16,x0,x29	  x0:0x00000000 x29:0x00000000 x16=0x00000000
       68215000	      6820	80001d64	d110dc97	auipc	x25,0xd110d	 x25=0x5110ed60
       68225000	      6821	80001d68	3523e893	ori	x17,x7,850	  x7:0x0000d885 x17=0x0000dbd7
       68235000	      6822	80001d6c	0132d1b3	srl	x3,x5,x19	  x5:0x0000d89f x19:0xe0ba1000  x3=0x0000d89f
       68245000	      6823	80001d70	01a88e63	beq	x17,x26,80001d8c	 x17:0x0000dbd7 x26:0x80009fc4
       68255000	      6824	80001d74	03b30063	beq	x6,x27,80001d94	  x6:0x00000000 x27:0x0000d89f
       68265000	      6825	80001d78	00f45393	srli	x7,x8,0xf	  x8:0x00000068  x7=0x00000000
       68275000	      6826	80001d7c	029c4263	blt	x24,x9,80001da0	 x24:0x0f318000  x9:0x00000000
       68285000	      6827	80001d80	709ba493	slti	x9,x23,1801	 x23:0x00000001  x9=0x00000001
       68295000	      6828	80001d84	d9402a13	slti	x20,x0,-620	  x0:0x00000000 x20=0x00000000
       68305000	      6829	80001d88	00bd7833	and	x16,x26,x11	 x26:0x80009fc4 x11:0x00000000 x16=0x00000000
       68315000	      6830	80001d8c	01c91c13	slli	x24,x18,0x1c	 x18:0x00000427 x24=0x70000000
       68325000	      6831	80001d90	0270d463	bge	x1,x7,80001db8	  x1:0x00000099  x7:0x00000000
       68335000	      6832	00000000	00000013	addi	x0,x0,0	  x0:0x00000000
       68345000	      6833	80001db4	00000013	addi	x0,x0,0	  x0:0x00000000
       68355000	      6834	80001db8	000558b3	srl	x17,x10,x0	 x10:0x00000000  x0:0x00000000 x17=0x00000000
       68365000	      6835	80001dbc	01cc43b3	xor	x7,x24,x28	 x24:0x70000000 x28:0x00000000  x7=0x70000000
       68375000	      6836	80001dc0	d2610193	addi	x3,x2,-730	  x2:0x00000085  x3=0xfffffdab
       68385000	      6837	80001dc4	00556433	or	x8,x10,x5	 x10:0x00000000  x5:0x0000d89f  x8=0x0000d89f
       68395000	      6838	80001dc8	0158d413	srli	x8,x17,0x15	 x17:0x00000000  x8=0x00000000
       68405000	      6839	80001dcc	60181397	auipc	x7,0x60181	  x7=0xe0182dc8
       68415000	      6840	80001dd0	00e0b4b3	sltu	x9,x1,x14	  x1:0x00000099 x14:0x00000001  x9=0x00000000
       68425000	      6841	80001dd4	40d25a93	srai	x21,x4,0xd	  x4:0x000039e5 x21=0x00000001
       68435000	      6842	80001dd8	026c0863	beq	x24,x6,80001e08	 x24:0x70000000  x6:0x00000000
       68445000	      6843	80001ddc	8a9d0693	addi	x13,x26,-1879	 x26:0x80009fc4 x13=0x8000986d
       68455000	      6844	80001de0	008499b3	sll	x19,x9,x8	  x9:0x00000000  x8:0x00000000 x19=0x00000000
       68465000	      6845	80001de4	4186dcb3	sra	x25,x13,x24	 x13:0x8000986d x24:0x70000000 x25=0x8000986d
       68475000	      6846	80001de8	023af863	bgeu	x21,x3,80001e18	 x21:0x00000001  x3:0xfffffdab
       68485000	      6847	80001dec	01ce13b3	sll	x7,x28,x28	 x28:0x00000000 x28:0x00000000  x7=0x00000000
       68495000	      6848	80001df0	01c89f17	auipc	x30,0x1c89	 x30=0x81c8adec
       68505000	      6849	80001df4	000529b3	slt	x19,x10,x0	 x10:0x00000000  x0:0x00000000 x19=0x00000000
       68515000	      6850	80001df8	8d1ec213	xori	x4,x29,-1839	 x29:0x00000000  x4=0xfffff8d1
       68525000	      6851	80001dfc	00569133	sll	x2,x13,x5	 x13:0x8000986d  x5:0x0000d89f  x2=0x80000000
       68535000	      6852	80001e00	044cc063	blt	x25,x4,80001e40	 x25:0x8000986d  x4:0xfffff8d1
       68545000	      6853	00000000	00000013	addi	x0,x0,0	  x0:0x00000000
       68555000	      6854	80001e3c	00000013	addi	x0,x0,0	  x0:0x00000000
       68565000	      6855	80001e40	00000013	addi	x0,x0,0	  x0:0x00000000
       68575000	      6856	80001e44	06ea4593	xori	x11,x20,110	 x20:0x00000000 x11=0x0000006e
       68585000	      6857	80001e48	f713a913	slti	x18,x7,-143	  x7:0x00000000 x18=0x00000000
       68595000	      6858	80001e4c	005145b3	xor	x11,x2,x5	  x2:0x80000000  x5:0x0000d89f x11=0x8000d89f
       68605000	      6859	80001e50	1d9fba93	sltiu	x21,x31,473	 x31:0x000000ac x21=0x00000001
       68615000	      6860	80001e54	344c3c13	sltiu	x24,x24,836	 x24:0x70000000 x24=0x00000000
       68625000	      6861	80001e58	876b8c93	addi	x25,x23,-1930	 x23:0x00000001 x25=0xfffff877
       68635000	      6862	80001e5c	03b26063	bltu	x4,x27,80001e7c	  x4:0xfffff8d1 x27:0x0000d89f
       68645000	      6863	80001e60	015fda93	srli	x21,x31,0x15	 x31:0x000000ac x21=0x00000000
       68655000	      6864	80001e64	5a3a0e13	addi	x28,x20,1443	 x20:0x00000000 x28=0x000005a3
       68665000	      6865	80001e68	5a608893	addi	x17,x1,1446	  x1:0x00000099 x17=0x0000063f
       68675000	      6866	80001e6c	03d3d463	bge	x7,x29,80001e94	  x7:0x00000000 x29:0x00000000
       68685000	      6867	00000000	00000013	addi	x0,x0,0	  x0:0x00000000
       68695000	      6868	80001e90	00000013	addi	x0,x0,0	  x0:0x00000000
       68705000	      6869	80001e94	008c7db3	and	x27,x24,x8	 x24:0x00000000  x8:0x00000000 x27=0x00000000
       68715000	      6870	80001e98	0019dd93	srli	x27,x19,0x1	 x19:0x00000000 x27=0x00000000
       68725000	      6871	80001e9c	c3c96593	ori	x11,x18,-964	 x18:0x00000000 x11=0xfffffc3c
       68735000	      6872	80001ea0	02f6f063	bgeu	x13,x15,80001ec0	 x13:0x8000986d x15:0x80009f3c
       68745000	      6873	80001ea4	f9cc3417	auipc	x8,0xf9cc3	  x8=0x79cc4ea0
       68755000	      6874	80001ea8	0581d263	bge	x3,x24,80001eec	  x3:0xfffffdab x24:0x00000000
       68765000	      6875	80001eac	67278f97	auipc	x31,0x67278	 x31=0xe7279ea8
       68775000	      6876	80001eb0	0170d113	srli	x2,x1,0x17	  x1:0x00000099  x2=0x00000000
       68785000	      6877	80001eb4	01186093	ori	x1,x16,17	 x16:0x00000000  x1=0x00000011
       68795000	      6878	80001eb8	d9b9b897	auipc	x17,0xd9b9b	 x17=0x59b9ceb4
       68805000	      6879	80001ebc	514a8937	lui	x18,0x514a8	 x18=0x514a8000
       68815000	      6880	80001ec0	008c6833	or	x16,x24,x8	 x24:0x00000000  x8:0x79cc4ea0 x16=0x79cc4ea0
       68825000	      6881	80001ec4	4c6a4193	xori	x3,x20,1222	 x20:0x00000000  x3=0x000004c6
       68835000	      6882	80001ec8	015791b3	sll	x3,x15,x21	 x15:0x80009f3c x21:0x00000000  x3=0x80009f3c
       68845000	      6883	80001ecc	019ba233	slt	x4,x23,x25	 x23:0x00000001 x25:0xfffff877  x4=0x00000000
       68855000	      6884	80001ed0	96c62a93	slti	x21,x12,-1684	 x12:0x00000000 x21=0x00000000
       68865000	      6885	80001ed4	dc46a493	slti	x9,x13,-572	 x13:0x8000986d  x9=0x00000001
       68875000	      6886	80001ed8	41ba0a33	sub	x20,x20,x27	 x20:0x00000000 x27:0x00000000 x20=0x00000000
       68885000	      6887	80001edc	011fc4b3	xor	x9,x31,x17	 x31:0xe7279ea8 x17:0x59b9ceb4  x9=0xbe9e501c
       68895000	      6888	80001ee0	caab99b7	lui	x19,0xcaab9	 x19=0xcaab9000
       68905000	      6889	80001ee4	00c70c33	add	x24,x14,x12	 x14:0x00000001 x12:0x00000000 x24=0x00000001
       68915000	      6890	80001ee8	5d87ed97	auipc	x27,0x5d87e	 x27=0xdd87fee4
       68925000	      6891	80001eec	1963e193	ori	x3,x7,406	  x7:0x00000000  x3=0x00000196
       68935000	      6892	80001ef0	02775863	bge	x14,x7,80001f20	 x14:0x00000001  x7:0x00000000
       68945000	      6893	00000000	00000013	addi	x0,x0,0	  x0:0x00000000
       68955000	      6894	80001f1c	00000013	addi	x0,x0,0	  x0:0x00000000
       68965000	      6895	80001f20	86f3f093	andi	x1,x7,-1937	  x7:0x00000000  x1=0x00000000
       68975000	      6896	80001f24	b664a813	slti	x16,x9,-1178	  x9:0xbe9e501c x16=0x00000001
       68985000	      6897	80001f28	9f38e813	ori	x16,x17,-1549	 x17:0x59b9ceb4 x16=0xfffffff7
       68995000	      6898	80001f2c	f30be213	ori	x4,x23,-208	 x23:0x00000001  x4=0xffffff31
       69005000	      6899	80001f30	00ffe0b3	or	x1,x31,x15	 x31:0xe7279ea8 x15:0x80009f3c  x1=0xe7279fbc
       69015000	      6900	80001f34	419edab3	sra	x21,x29,x25	 x29:0x00000000 x25:0xfffff877 x21=0x00000000
       69025000	      6901	80001f38	0ad99c97	auipc	x25,0xad99	 x25=0x8ad9af34
       69035000	      6902	80001f3c	0008bbb3	sltu	x23,x17,x0	 x17:0x59b9ceb4  x0:0x00000000 x23=0x00000000
       69045000	      6903	80001f40	00bea133	slt	x2,x29,x11	 x29:0x00000000 x11:0xfffffc3c  x2=0x00000000
       69055000	      6904	80001f44	037bf663	bgeu	x23,x23,80001f70	 x23:0x00000000 x23:0x00000000
       69065000	      6905	00000000	00000013	addi	x0,x0,0	  x0:0x00000000
       69075000	      6906	80001f6c	00000013	addi	x0,x0,0	  x0:0x00000000
       69085000	      6907	80001f70	048c8263	beq	x25,x8,80001fb4	 x25:0x8ad9af34  x8:0x79cc4ea0
       69095000	      6908	80001f74	02d5e263	bltu	x11,x13,80001f98	 x11:0xfffffc3c x13:0x8000986d
       69105000	      6909	80001f78	01dd1c63	bne	x26,x29,80001f90	 x26:0x80009fc4 x29:0x00000000
       69115000	      6910	00000000	00000013	addi	x0,x0,0	  x0:0x00000000
       69125000	      6911	80001f8c	00000013	addi	x0,x0,0	  x0:0x00000000
       69135000	      6912	80001f90	0125c533	xor	x10,x11,x18	 x11:0xfffffc3c x18:0x514a8000 x10=0xaeb57c3c
       69145000	      6913	80001f94	ec6e0e13	addi	x28,x28,-314	 x28:0x000005a3 x28=0x00000469
       69155000	      6914	80001f98	01362733	slt	x14,x12,x19	 x12:0x00000000 x19:0xcaab9000 x14=0x00000000
       69165000	      6915	80001f9c	9debf013	andi	x0,x23,-1570	 x23:0x00000000
       69175000	      6916	80001fa0	407780b3	sub	x1,x15,x7	 x15:0x80009f3c  x7:0x00000000  x1=0x80009f3c
       69185000	      6917	80001fa4	017428b3	slt	x17,x8,x23	  x8:0x79cc4ea0 x23:0x00000000 x17=0x00000000
       69195000	      6918	80001fa8	e179b813	sltiu	x16,x19,-489	 x19:0xcaab9000 x16=0x00000001
       69205000	      6919	80001fac	e5e0ae93	slti	x29,x1,-418	  x1:0x80009f3c x29=0x00000001
       69215000	      6920	80001fb0	03835063	bge	x6,x24,80001fd0	  x6:0x00000000 x24:0x00000001
       69225000	      6921	80001fb4	b9a96497	auipc	x9,0xb9a96	  x9=0x39a97fb0
       69235000	      6922	80001fb8	01c81693	slli	x13,x16,0x1c	 x16:0x00000001 x13=0x10000000
       69245000	      6923	80001fbc	b7678213	addi	x4,x15,-1162	 x15:0x80009f3c  x4=0x80009ab2
       69255000	      6924	80001fc0	00a58863	beq	x11,x10,80001fd0	 x11:0xfffffc3c x10:0xaeb57c3c
       69265000	      6925	80001fc4	39cd7693	andi	x13,x26,924	 x26:0x80009fc4 x13=0x00000384
       69275000	      6926	80001fc8	0188aeb3	slt	x29,x17,x24	 x17:0x00000000 x24:0x00000001 x29=0x00000001
       69285000	      6927	80001fcc	01daab33	slt	x22,x21,x29	 x21:0x00000000 x29:0x00000001 x22=0x00000001
       69295000	      6928	80001fd0	03ea6463	bltu	x20,x30,80001ff8	 x20:0x00000000 x30:0x81c8adec
       69305000	      6929	00000000	00000013	addi	x0,x0,0	  x0:0x00000000
       69315000	      6930	80001ff4	00000013	addi	x0,x0,0	  x0:0x00000000
       69325000	      6931	80001ff8	017a5693	srli	x13,x20,0x17	 x20:0x00000000 x13=0x00000000
       69335000	      6932	80001ffc	00b85993	srli	x19,x16,0xb	 x16:0x00000001 x19=0x00000000
       69345000	      6933	80002000	003bccb3	xor	x25,x23,x3	 x23:0x00000000  x3:0x00000196 x25=0x00000196
       69355000	      6934	80002004	40165513	srai	x10,x12,0x1	 x12:0x00000000 x10=0x00000000
       69365000	      6935	80002008	00000013	addi	x0,x0,0	  x0:0x00000000
       69375000	      6936	8000200c	0172a6b3	slt	x13,x5,x23	  x5:0x0000d89f x23:0x00000000 x13=0x00000000
       69385000	      6937	80002010	03574063	blt	x14,x21,80002030	 x14:0x00000000 x21:0x00000000
       69395000	      6938	80002014	01467a63	bgeu	x12,x20,80002028	 x12:0x00000000 x20:0x00000000
       69405000	      6939	00000000	00000013	addi	x0,x0,0	  x0:0x00000000
       69415000	      6940	80002024	00000013	addi	x0,x0,0	  x0:0x00000000
       69425000	      6941	80002028	00674933	xor	x18,x14,x6	 x14:0x00000000  x6:0x00000000 x18=0x00000000
       69435000	      6942	8000202c	aa3d4293	xori	x5,x26,-1373	 x26:0x80009fc4  x5=0x7fff6567
       69445000	      6943	80002030	01696c63	bltu	x18,x22,80002048	 x18:0x00000000 x22:0x00000001
       69455000	      6944	00000000	00000013	addi	x0,x0,0	  x0:0x00000000
       69465000	      6945	80002044	00000013	addi	x0,x0,0	  x0:0x00000000
       69475000	      6946	80002048	b620c413	xori	x8,x1,-1182	  x1:0x80009f3c  x8=0x7fff645e
       69485000	      6947	8000204c	0f4d5063	bge	x26,x20,8000212c	 x26:0x80009fc4 x20:0x00000000
       69495000	      6948	80002050	00006817	auipc	x16,0x6	 x16=0x8000804c
       69505000	      6949	80002054	26980813	addi	x16,x16,617	 x16:0x8000804c x16=0x800082b5
       69515000	      6950	80002058	406ad013	srai	x0,x21,0x6	 x21:0x00000000
       69525000	      6951	8000205c	380e8f93	addi	x31,x29,896	 x29:0x00000001 x31=0x00000381
       69535000	      6952	80002060	21d80f23	sb	x29,542(x16)	 x16:0x800082b5 x29:0x00000001 PA:0x800084d3
       69545000	      6953	80002064	00f9e3b3	or	x7,x19,x15	 x19:0x00000000 x15:0x80009f3c  x7=0x80009f3c
       69555000	      6954	80002068	04f81083	lh	x1,79(x16)	 x16:0x800082b5  x1=0x000065dc PA:0x80008304
       69565000	      6955	8000206c	00000013	addi	x0,x0,0	  x0:0x00000000
       69575000	      6956	80002070	010e1cb3	sll	x25,x28,x16	 x28:0x00000469 x16:0x800082b5 x25=0x8d200000
       69585000	      6957	80002074	99f3e213	ori	x4,x7,-1633	  x7:0x80009f3c  x4=0xffffffbf
       69595000	      6958	80002078	09c80023	sb	x28,128(x16)	 x16:0x800082b5 x28:0x00000469 PA:0x80008335
       69605000	      6959	8000207c	01312db3	slt	x27,x2,x19	  x2:0x00000000 x19:0x00000000 x27=0x00000000
       69615000	      6960	80002080	0c080203	lb	x4,192(x16)	 x16:0x800082b5  x4=0x0000006b PA:0x80008375
       69625000	      6961	80002084	00853433	sltu	x8,x10,x8	 x10:0x00000000  x8:0x7fff645e  x8=0x00000001
       69635000	      6962	80002088	f76e3413	sltiu	x8,x28,-138	 x28:0x00000469  x8=0x00000001
       69645000	      6963	8000208c	d49ffe13	andi	x28,x31,-695	 x31:0x00000381 x28=0x00000101
       69655000	      6964	80002090	00000013	addi	x0,x0,0	  x0:0x00000000
       69665000	      6965	80002094	329b8297	auipc	x5,0x329b8	  x5=0xb29ba090
       69675000	      6966	80002098	3ec80023	sb	x12,992(x16)	 x16:0x800082b5 x12:0x00000000 PA:0x80008695
       69685000	      6967	8000209c	25f81003	lh	x0,607(x16)	 x16:0x800082b5 PA:0x80008514
       69695000	      6968	800020a0	43782703	lw	x14,1079(x16)	 x16:0x800082b5 x14=0xf0d0af35 PA:0x800086ec
       69705000	      6969	800020a4	eab85e03	lhu	x28,-341(x16)	 x16:0x800082b5 x28=0x0000d885 PA:0x80008160
       69715000	      6970	800020a8	f1785203	lhu	x4,-233(x16)	 x16:0x800082b5  x4=0x000022b1 PA:0x800081cc
       69725000	      6971	800020ac	013401b3	add	x3,x8,x19	  x8:0x00000001 x19:0x00000000  x3=0x00000001
       69735000	      6972	800020b0	51180b03	lb	x22,1297(x16)	 x16:0x800082b5 x22=0xffffffa2 PA:0x800087c6
       69745000	      6973	800020b4	b46c8b13	addi	x22,x25,-1210	 x25:0x8d200000 x22=0x8d1ffb46
       69755000	      6974	800020b8	00d79993	slli	x19,x15,0xd	 x15:0x80009f3c x19=0x13e78000
       69765000	      6975	800020bc	0150a2b3	slt	x5,x1,x21	  x1:0x000065dc x21:0x00000000  x5=0x00000000
       69775000	      6976	800020c0	0cc80a23	sb	x12,212(x16)	 x16:0x800082b5 x12:0x00000000 PA:0x80008389
       69785000	      6977	800020c4	da28c713	xori	x14,x17,-606	 x17:0x00000000 x14=0xfffffda2
       69795000	      6978	800020c8	00fc1fb3	sll	x31,x24,x15	 x24:0x00000001 x15:0x80009f3c x31=0x10000000
       69805000	      6979	800020cc	05680223	sb	x22,68(x16)	 x16:0x800082b5 x22:0x8d1ffb46 PA:0x800082f9
       69815000	      6980	800020d0	00000013	addi	x0,x0,0	  x0:0x00000000
       69825000	      6981	800020d4	81460a93	addi	x21,x12,-2028	 x12:0x00000000 x21=0xfffff814
       69835000	      6982	800020d8	00000013	addi	x0,x0,0	  x0:0x00000000
       69845000	      6983	800020dc	411182b3	sub	x5,x3,x17	  x3:0x00000001 x17:0x00000000  x5=0x00000001
       69855000	      6984	800020e0	b5cd7493	andi	x9,x26,-1188	 x26:0x80009fc4  x9=0x80009b44
       69865000	      6985	800020e4	dcf82f83	lw	x31,-561(x16)	 x16:0x800082b5 x31=0x5792ea97 PA:0x80008084
       69875000	      6986	800020e8	00e19093	slli	x1,x3,0xe	  x3:0x00000001  x1=0x00004000
       69885000	      6987	800020ec	418a5b13	srai	x22,x20,0x18	 x20:0x00000000 x22=0x00000000
       69895000	      6988	800020f0	8dae0293	addi	x5,x28,-1830	 x28:0x0000d885  x5=0x0000d15f
       69905000	      6989	800020f4	25b84e83	lbu	x29,603(x16)	 x16:0x800082b5 x29=0x0000009f PA:0x80008510
       69915000	      6990	800020f8	018c24b3	slt	x9,x24,x24	 x24:0x00000001 x24:0x00000001  x9=0x00000000
       69925000	      6991	800020fc	2de801a3	sb	x30,707(x16)	 x16:0x800082b5 x30:0x81c8adec PA:0x80008578
       69935000	      6992	80002100	006e6233	or	x4,x28,x6	 x28:0x0000d885  x6:0x00000000  x4=0x0000d885
       69945000	      6993	80002104	410700b3	sub	x1,x14,x16	 x14:0xfffffda2 x16:0x800082b5  x1=0x7fff7aed
       69955000	      6994	80002108	01d85103	lhu	x2,29(x16)	 x16:0x800082b5  x2=0x00005908 PA:0x800082d2
       69965000	      6995	8000210c	f3781403	lh	x8,-201(x16)	 x16:0x800082b5  x8=0xffff9739 PA:0x800081ec
       69975000	      6996	80002110	004b5113	srli	x2,x22,0x4	 x22:0x00000000  x2=0x00000000
       69985000	      6997	80002114	46c811a3	sh	x12,1123(x16)	 x16:0x800082b5 x12:0x00000000 PA:0x80008718
       69995000	      6998	80002118	03f56463	bltu	x10,x31,80002140	 x10:0x00000000 x31:0x5792ea97
       70005000	      6999	00000000	00000013	addi	x0,x0,0	  x0:0x00000000
       70015000	      7000	8000213c	00000013	addi	x0,x0,0	  x0:0x00000000
       70025000	      7001	80002140	03946863	bltu	x8,x25,80002170	  x8:0xffff9739 x25:0x8d200000
       70035000	      7002	80002144	73291e97	auipc	x29,0x73291	 x29=0xf3293140
       70045000	      7003	80002148	00b63bb3	sltu	x23,x12,x11	 x12:0x00000000 x11:0xfffffc3c x23=0x00000001
       70055000	      7004	8000214c	054ec663	blt	x29,x20,80002198	 x29:0xf3293140 x20:0x00000000
       70065000	      7005	00000000	00000013	addi	x0,x0,0	  x0:0x00000000
       70075000	      7006	80002194	00000013	addi	x0,x0,0	  x0:0x00000000
       70085000	      7007	80002198	0111b533	sltu	x10,x3,x17	  x3:0x00000001 x17:0x00000000 x10=0x00000000
       70095000	      7008	8000219c	02b3ee63	bltu	x7,x11,800021d8	  x7:0x80009f3c x11:0xfffffc3c
       70105000	      7009	00000000	00000013	addi	x0,x0,0	  x0:0x00000000
       70115000	      7010	800021d4	00000013	addi	x0,x0,0	  x0:0x00000000
       70125000	      7011	800021d8	007fe6b3	or	x13,x31,x7	 x31:0x5792ea97  x7:0x80009f3c x13=0xd792ffbf
       70135000	      7012	800021dc	017bb5b3	sltu	x11,x23,x23	 x23:0x00000001 x23:0x00000001 x11=0x00000000
       70145000	      7013	800021e0	0244fe63	bgeu	x9,x4,8000221c	  x9:0x00000000  x4:0x0000d885
       70155000	      7014	800021e4	3c522a17	auipc	x20,0x3c522	 x20=0xbc5241e0
       70165000	      7015	800021e8	b2cdce93	xori	x29,x27,-1236	 x27:0x00000000 x29=0xfffffb2c
       70175000	      7016	800021ec	01c8dc63	bge	x17,x28,80002204	 x17:0x00000000 x28:0x0000d885
       70185000	      7017	800021f0	019018b3	sll	x17,x0,x25	  x0:0x00000000 x25:0x8d200000 x17=0x00000000
       70195000	      7018	800021f4	00139693	slli	x13,x7,0x1	  x7:0x80009f3c x13=0x00013e78
       70205000	      7019	800021f8	4626f593	andi	x11,x13,1122	 x13:0x00013e78 x11=0x00000460
       70215000	      7020	800021fc	0305c863	blt	x11,x16,8000222c	 x11:0x00000460 x16:0x800082b5
       70225000	      7021	80002200	03e48863	beq	x9,x30,80002230	  x9:0x00000000 x30:0x81c8adec
       70235000	      7022	80002204	021d1863	bne	x26,x1,80002234	 x26:0x80009fc4  x1:0x7fff7aed
       70245000	      7023	00000000	00000013	addi	x0,x0,0	  x0:0x00000000
       70255000	      7024	80002230	00000013	addi	x0,x0,0	  x0:0x00000000
       70265000	      7025	80002234	00d60e63	beq	x12,x13,80002250	 x12:0x00000000 x13:0x00013e78
       70275000	      7026	80002238	0135a8b3	slt	x17,x11,x19	 x11:0x00000460 x19:0x13e78000 x17=0x00000001
       70285000	      7027	8000223c	a1478693	addi	x13,x15,-1516	 x15:0x80009f3c x13=0x80009950
       70295000	      7028	80002240	0bb0d297	auipc	x5,0xbb0d	  x5=0x8bb0f23c
       70305000	      7029	80002244	00984cb3	xor	x25,x16,x9	 x16:0x800082b5  x9:0x00000000 x25=0x800082b5
       70315000	      7030	80002248	03f51463	bne	x10,x31,80002270	 x10:0x00000000 x31:0x5792ea97
       70325000	      7031	00000000	00000013	addi	x0,x0,0	  x0:0x00000000
       70335000	      7032	8000226c	00000013	addi	x0,x0,0	  x0:0x00000000
       70345000	      7033	80002270	5f5fc997	auipc	x19,0x5f5fc	 x19=0xdf5fe26c
       70355000	      7034	80002274	40018c33	sub	x24,x3,x0	  x3:0x00000001  x0:0x00000000 x24=0x00000001
       70365000	      7035	80002278	01231293	slli	x5,x6,0x12	  x6:0x00000000  x5=0x00000000
       70375000	      7036	8000227c	01154133	xor	x2,x10,x17	 x10:0x00000000 x17:0x00000001  x2=0x00000001
       70385000	      7037	80002280	44a56c97	auipc	x25,0x44a56	 x25=0xc4a5827c
       70395000	      7038	80002284	b8ff6db7	lui	x27,0xb8ff6	 x27=0xb8ff6000
       70405000	      7039	80002288	40ff83b3	sub	x7,x31,x15	 x31:0x5792ea97 x15:0x80009f3c  x7=0xd7924b5b
       70415000	      7040	8000228c	0227d863	bge	x15,x2,800022bc	 x15:0x80009f3c  x2:0x00000001
       70425000	      7041	80002290	01ea1833	sll	x16,x20,x30	 x20:0xbc5241e0 x30:0x81c8adec x16=0x241e0000
       70435000	      7042	80002294	02a91463	bne	x18,x10,800022bc	 x18:0x00000000 x10:0x00000000
       70445000	      7043	80002298	98a27417	auipc	x8,0x98a27	  x8=0x18a29294
       70455000	      7044	8000229c	00279e93	slli	x29,x15,0x2	 x15:0x80009f3c x29=0x00027cf0
       70465000	      7045	800022a0	03390063	beq	x18,x19,800022c0	 x18:0x00000000 x19:0xdf5fe26c
       70475000	      7046	800022a4	00fae6b3	or	x13,x21,x15	 x21:0xfffff814 x15:0x80009f3c x13=0xffffff3c
       70485000	      7047	800022a8	00000013	addi	x0,x0,0	  x0:0x00000000
       70495000	      7048	800022ac	01d65113	srli	x2,x12,0x1d	 x12:0x00000000  x2=0x00000000
       70505000	      7049	800022b0	0b006293	ori	x5,x0,176	  x0:0x00000000  x5=0x000000b0
       70515000	      7050	800022b4	03d61263	bne	x12,x29,800022d8	 x12:0x00000000 x29:0x00027cf0
       70525000	      7051	00000000	00000013	addi	x0,x0,0	  x0:0x00000000
       70535000	      7052	800022d4	00000013	addi	x0,x0,0	  x0:0x00000000
       70545000	      7053	800022d8	bffb63b7	lui	x7,0xbffb6	  x7=0xbffb6000
       70555000	      7054	800022dc	01aee733	or	x14,x29,x26	 x29:0x00027cf0 x26:0x80009fc4 x14=0x8002fff4
       70565000	      7055	800022e0	df01b813	sltiu	x16,x3,-528	  x3:0x00000001 x16=0x00000001
       70575000	      7056	800022e4	00aec9b3	xor	x19,x29,x10	 x29:0x00027cf0 x10:0x00000000 x19=0x00027cf0
       70585000	      7057	800022e8	00ae0eb3	add	x29,x28,x10	 x28:0x0000d885 x10:0x00000000 x29=0x0000d885
       70595000	      7058	800022ec	01199db3	sll	x27,x19,x17	 x19:0x00027cf0 x17:0x00000001 x27=0x0004f9e0
       70605000	      7059	800022f0	03b29863	bne	x5,x27,80002320	  x5:0x000000b0 x27:0x0004f9e0
       70615000	      7060	00000000	00000013	addi	x0,x0,0	  x0:0x00000000
       70625000	      7061	8000231c	00000013	addi	x0,x0,0	  x0:0x00000000
       70635000	      7062	80002320	00422c33	slt	x24,x4,x4	  x4:0x0000d885  x4:0x0000d885 x24=0x00000000
       70645000	      7063	80002324	01e31cb3	sll	x25,x6,x30	  x6:0x00000000 x30:0x81c8adec x25=0x00000000
       70655000	      7064	80002328	027e4663	blt	x28,x7,80002354	 x28:0x0000d885  x7:0xbffb6000
       70665000	      7065	8000232c	01247e63	bgeu	x8,x18,80002348	  x8:0x18a29294 x18:0x00000000
       70675000	      7066	00000000	00000013	addi	x0,x0,0	  x0:0x00000000
       70685000	      7067	80002344	00000013	addi	x0,x0,0	  x0:0x00000000
       70695000	      7068	80002348	61987493	andi	x9,x16,1561	 x16:0x00000001  x9=0x00000001
       70705000	      7069	8000234c	012df1b3	and	x3,x27,x18	 x27:0x0004f9e0 x18:0x00000000  x3=0x00000000
       70715000	      7070	80002350	409f01b3	sub	x3,x30,x9	 x30:0x81c8adec  x9:0x00000001  x3=0x81c8adeb
       70725000	      7071	80002354	0048ac33	slt	x24,x17,x4	 x17:0x00000001  x4:0x0000d885 x24=0x00000001
       70735000	      7072	80002358	01df1513	slli	x10,x30,0x1d	 x30:0x81c8adec x10=0x80000000
       70745000	      7073	8000235c	a0788db7	lui	x27,0xa0788	 x27=0xa0788000
       70755000	      7074	80002360	00c0c2b3	xor	x5,x1,x12	  x1:0x7fff7aed x12:0x00000000  x5=0x7fff7aed
       70765000	      7075	80002364	01a11033	sll	x0,x2,x26	  x2:0x00000000 x26:0x80009fc4
       70775000	      7076	80002368	03411863	bne	x2,x20,80002398	  x2:0x00000000 x20:0xbc5241e0
       70785000	      7077	00000000	00000013	addi	x0,x0,0	  x0:0x00000000
       70795000	      7078	80002394	00000013	addi	x0,x0,0	  x0:0x00000000
       70805000	      7079	80002398	0237d863	bge	x15,x3,800023c8	 x15:0x80009f3c  x3:0x81c8adeb
       70815000	      7080	8000239c	00daafb3	slt	x31,x21,x13	 x21:0xfffff814 x13:0xffffff3c x31=0x00000001
       70825000	      7081	800023a0	01a643b3	xor	x7,x12,x26	 x12:0x00000000 x26:0x80009fc4  x7=0x80009fc4
       70835000	      7082	800023a4	03e95663	bge	x18,x30,800023d0	 x18:0x00000000 x30:0x81c8adec
       70845000	      7083	00000000	00000013	addi	x0,x0,0	  x0:0x00000000
       70855000	      7084	800023cc	00000013	addi	x0,x0,0	  x0:0x00000000
       70865000	      7085	800023d0	01190b33	add	x22,x18,x17	 x18:0x00000000 x17:0x00000001 x22=0x00000001
       70875000	      7086	800023d4	5d20c113	xori	x2,x1,1490	  x1:0x7fff7aed  x2=0x7fff7f3f
       70885000	      7087	800023d8	00e59b33	sll	x22,x11,x14	 x11:0x00000460 x14:0x8002fff4 x22=0x46000000
       70895000	      7088	800023dc	0130bfb3	sltu	x31,x1,x19	  x1:0x7fff7aed x19:0x00027cf0 x31=0x00000000
       70905000	      7089	800023e0	0078dc33	srl	x24,x17,x7	 x17:0x00000001  x7:0x80009fc4 x24=0x00000000
       70915000	      7090	800023e4	01fd5db3	srl	x27,x26,x31	 x26:0x80009fc4 x31:0x00000000 x27=0x80009fc4
       70925000	      7091	800023e8	00fbda63	bge	x23,x15,800023fc	 x23:0x00000001 x15:0x80009f3c
       70935000	      7092	00000000	00000013	addi	x0,x0,0	  x0:0x00000000
       70945000	      7093	800023f8	00000013	addi	x0,x0,0	  x0:0x00000000
       70955000	      7094	800023fc	41985b93	srai	x23,x16,0x19	 x16:0x00000001 x23=0x00000000
       70965000	      7095	80002400	003f69b3	or	x19,x30,x3	 x30:0x81c8adec  x3:0x81c8adeb x19=0x81c8adef
       70975000	      7096	80002404	6c836893	ori	x17,x6,1736	  x6:0x00000000 x17=0x000006c8
       70985000	      7097	80002408	1aa8eb93	ori	x23,x17,426	 x17:0x000006c8 x23=0x000007ea
       70995000	      7098	8000240c	022ac063	blt	x21,x2,8000242c	 x21:0xfffff814  x2:0x7fff7f3f
       71005000	      7099	00000000	00000013	addi	x0,x0,0	  x0:0x00000000
       71015000	      7100	80002428	00000013	addi	x0,x0,0	  x0:0x00000000
       71025000	      7101	8000242c	04872b93	slti	x23,x14,72	 x14:0x8002fff4 x23=0x00000001
       71035000	      7102	80002430	b367f513	andi	x10,x15,-1226	 x15:0x80009f3c x10=0x80009b34
       71045000	      7103	80002434	0004d813	srli	x16,x9,0x0	  x9:0x00000001 x16=0x00000001
       71055000	      7104	80002438	f6c8c193	xori	x3,x17,-148	 x17:0x000006c8  x3=0xfffff9a4
       71065000	      7105	8000243c	6a427693	andi	x13,x4,1700	  x4:0x0000d885 x13=0x00000084
       71075000	      7106	80002440	0373f063	bgeu	x7,x23,80002460	  x7:0x80009fc4 x23:0x00000001
       71085000	      7107	00000000	00000013	addi	x0,x0,0	  x0:0x00000000
       71095000	      7108	8000245c	00000013	addi	x0,x0,0	  x0:0x00000000
       71105000	      7109	80002460	011e5513	srli	x10,x28,0x11	 x28:0x0000d885 x10=0x00000000
       71115000	      7110	80002464	00bb33b3	sltu	x7,x22,x11	 x22:0x46000000 x11:0x00000460  x7=0x00000000
       71125000	      7111	80002468	02c40263	beq	x8,x12,8000248c	  x8:0x18a29294 x12:0x00000000
       71135000	      7112	8000246c	fd228393	addi	x7,x5,-46	  x5:0x7fff7aed  x7=0x7fff7abf
       71145000	      7113	80002470	01f55093	srli	x1,x10,0x1f	 x10:0x00000000  x1=0x00000000
       71155000	      7114	80002474	269b9537	lui	x10,0x269b9	 x10=0x269b9000
       71165000	      7115	80002478	c193a2b7	lui	x5,0xc193a	  x5=0xc193a000
       71175000	      7116	8000247c	40df0fb3	sub	x31,x30,x13	 x30:0x81c8adec x13:0x00000084 x31=0x81c8ad68
       71185000	      7117	80002480	9811cb93	xori	x23,x3,-1663	  x3:0xfffff9a4 x23=0x00000025
       71195000	      7118	80002484	884ae593	ori	x11,x21,-1916	 x21:0xfffff814 x11=0xfffff894
       71205000	      7119	80002488	15707197	auipc	x3,0x15707	  x3=0x95709484
       71215000	      7120	8000248c	a2baf993	andi	x19,x21,-1493	 x21:0xfffff814 x19=0xfffff800
       71225000	      7121	80002490	93e67113	andi	x2,x12,-1730	 x12:0x00000000  x2=0x00000000
       71235000	      7122	80002494	0cab1c63	bne	x22,x10,8000256c	 x22:0x46000000 x10:0x269b9000
       71245000	      7123	00000000	00000013	addi	x0,x0,0	  x0:0x00000000
       71255000	      7124	80002568	00000013	addi	x0,x0,0	  x0:0x00000000
       71265000	      7125	8000256c	04fdf263	bgeu	x27,x15,800025b0	 x27:0x80009fc4 x15:0x80009f3c
       71275000	      7126	00000000	00000013	addi	x0,x0,0	  x0:0x00000000
       71285000	      7127	800025ac	00000013	addi	x0,x0,0	  x0:0x00000000
       71295000	      7128	800025b0	7ca23113	sltiu	x2,x4,1994	  x4:0x0000d885  x2=0x00000000
       71305000	      7129	800025b4	40c4d013	srai	x0,x9,0xc	  x9:0x00000001
       71315000	      7130	800025b8	0d342d97	auipc	x27,0xd342	 x27=0x8d3445b4
       71325000	      7131	800025bc	003ac663	blt	x21,x3,800025c8	 x21:0xfffff814  x3:0x95709484
       71335000	      7132	800025c0	40a258b3	sra	x17,x4,x10	  x4:0x0000d885 x10:0x269b9000 x17=0x0000d885
       71345000	      7133	800025c4	acbc2093	slti	x1,x24,-1333	 x24:0x00000000  x1=0x00000000
       71355000	      7134	800025c8	00f3dfb3	srl	x31,x7,x15	  x7:0x7fff7abf x15:0x80009f3c x31=0x00000007
       71365000	      7135	800025cc	01d065b3	or	x11,x0,x29	  x0:0x00000000 x29:0x0000d885 x11=0x0000d885
       71375000	      7136	800025d0	d2b86cb7	lui	x25,0xd2b86	 x25=0xd2b86000
       71385000	      7137	800025d4	24dd3593	sltiu	x11,x26,589	 x26:0x80009fc4 x11=0x00000000
       71395000	      7138	800025d8	5a6a0a93	addi	x21,x20,1446	 x20:0xbc5241e0 x21=0xbc524786
       71405000	      7139	800025dc	748fb813	sltiu	x16,x31,1864	 x31:0x00000007 x16=0x00000001
       71415000	      7140	800025e0	01a718b3	sll	x17,x14,x26	 x14:0x8002fff4 x26:0x80009fc4 x17=0x002fff40
       71425000	      7141	800025e4	01581913	slli	x18,x16,0x15	 x16:0x00000001 x18=0x00200000
       71435000	      7142	800025e8	02015c63	bge	x2,x0,80002620	  x2:0x00000000  x0:0x00000000
       71445000	      7143	00000000	00000013	addi	x0,x0,0	  x0:0x00000000
       71455000	      7144	8000261c	00000013	addi	x0,x0,0	  x0:0x00000000
       71465000	      7145	80002620	00fc6c63	bltu	x24,x15,80002638	 x24:0x00000000 x15:0x80009f3c
       71475000	      7146	00000000	00000013	addi	x0,x0,0	  x0:0x00000000
       71485000	      7147	80002634	00000013	addi	x0,x0,0	  x0:0x00000000
       71495000	      7148	80002638	003c60b3	or	x1,x24,x3	 x24:0x00000000  x3:0x95709484  x1=0x95709484
       71505000	      7149	8000263c	00000013	addi	x0,x0,0	  x0:0x00000000
       71515000	      7150	80002640	003cd933	srl	x18,x25,x3	 x25:0xd2b86000  x3:0x95709484 x18=0x0d2b8600
       71525000	      7151	80002644	0047a083	lw	x1,4(x15)	 x15:0x80009f3c  x1=0x80006890 PA:0x80009f40
       71535000	      7152	80002648	1f5ccf13	xori	x30,x25,501	 x25:0xd2b86000 x30=0xd2b861f5
       71545000	      7153	8000264c	02878793	addi	x15,x15,40	 x15:0x80009f3c x15=0x80009f64
       71555000	      7154	80002650	01a84fb3	xor	x31,x16,x26	 x16:0x00000001 x26:0x80009fc4 x31=0x80009fc5
       71565000	      7155	80002654	00108093	addi	x1,x1,1	  x1:0x80006890  x1=0x80006891
       71575000	      7156	80002658	000080e7	jalr	x1,x1,0	  x1:0x80006891  x1=0x80002658
       71585000	      7157	00000000	00000013	addi	x0,x0,0	  x0:0x00000000
       71595000	      7158	80006890	00000013	addi	x0,x0,0	  x0:0x00000000
       71605000	      7159	80006894	2bbfb913	sltiu	x18,x31,699	 x31:0x80009fc5 x18=0x00000000
       71615000	      7160	80006898	03e8d863	bge	x17,x30,800068c8	 x17:0x002fff40 x30:0xd2b861f5
       71625000	      7161	00000000	00000013	addi	x0,x0,0	  x0:0x00000000
       71635000	      7162	800068c4	00000013	addi	x0,x0,0	  x0:0x00000000
       71645000	      7163	800068c8	00000013	addi	x0,x0,0	  x0:0x00000000
       71655000	      7164	800068cc	00423db3	sltu	x27,x4,x4	  x4:0x0000d885  x4:0x0000d885 x27=0x00000000
       71665000	      7165	800068d0	4031d693	srai	x13,x3,0x3	  x3:0x95709484 x13=0xf2ae1290
       71675000	      7166	800068d4	01d72bb3	slt	x23,x14,x29	 x14:0x8002fff4 x29:0x0000d885 x23=0x00000001
       71685000	      7167	800068d8	0047a083	lw	x1,4(x15)	 x15:0x80009f64  x1=0x8000184c PA:0x80009f68
       71695000	      7168	00000000	00000013	addi	x0,x0,0	  x0:0x00000000
       71705000	      7169	800068dc	001ac2b3	xor	x5,x21,x1	 x21:0xbc524786  x1:0x8000184c  x5=0x3c525fca
       71715000	      7170	800068e0	6df7fb93	andi	x23,x15,1759	 x15:0x80009f64 x23=0x00000644
       71725000	      7171	800068e4	02078793	addi	x15,x15,32	 x15:0x80009f64 x15=0x80009f84
       71735000	      7172	800068e8	40b15e93	srai	x29,x2,0xb	  x2:0x00000000 x29=0x00000000
       71745000	      7173	800068ec	00108993	addi	x19,x1,1	  x1:0x8000184c x19=0x8000184d
       71755000	      7174	800068f0	000989e7	jalr	x19,x19,0	 x19:0x8000184d x19=0x800068f0
       71765000	      7175	00000000	00000013	addi	x0,x0,0	  x0:0x00000000
       71775000	      7176	8000184c	00000013	addi	x0,x0,0	  x0:0x00000000
       71785000	      7177	80001850	b2467e17	auipc	x28,0xb2467	 x28=0x3246884c
       71795000	      7178	80001854	0009d5b3	srl	x11,x19,x0	 x19:0x800068f0  x0:0x00000000 x11=0x800068f0
       71805000	      7179	80001858	c12dafb7	lui	x31,0xc12da	 x31=0xc12da000
       71815000	      7180	8000185c	004293b3	sll	x7,x5,x4	  x5:0x3c525fca  x4:0x0000d885  x7=0x8a4bf940
       71825000	      7181	80001860	00823eb3	sltu	x29,x4,x8	  x4:0x0000d885  x8:0x18a29294 x29=0x00000001
       71835000	      7182	80001864	017c3db3	sltu	x27,x24,x23	 x24:0x00000000 x23:0x00000644 x27=0x00000001
       71845000	      7183	80001868	00000013	addi	x0,x0,0	  x0:0x00000000
       71855000	      7184	8000186c	00c135b3	sltu	x11,x2,x12	  x2:0x00000000 x12:0x00000000 x11=0x00000000
       71865000	      7185	80001870	fc7f7c13	andi	x24,x30,-57	 x30:0xd2b861f5 x24=0xd2b861c5
       71875000	      7186	80001874	c5d43913	sltiu	x18,x8,-931	  x8:0x18a29294 x18=0x00000001
       71885000	      7187	80001878	017e9863	bne	x29,x23,80001888	 x29:0x00000001 x23:0x00000644
       71895000	      7188	00000000	00000013	addi	x0,x0,0	  x0:0x00000000
       71905000	      7189	80001884	00000013	addi	x0,x0,0	  x0:0x00000000
       71915000	      7190	80001888	01203b33	sltu	x22,x0,x18	  x0:0x00000000 x18:0x00000001 x22=0x00000001
       71925000	      7191	8000188c	017d7bb3	and	x23,x26,x23	 x26:0x80009fc4 x23:0x00000644 x23=0x00000644
       71935000	      7192	80001890	0023d663	bge	x7,x2,8000189c	  x7:0x8a4bf940  x2:0x00000000
       71945000	      7193	80001894	0afd7993	andi	x19,x26,175	 x26:0x80009fc4 x19=0x00000084
       71955000	      7194	80001898	301d6e13	ori	x28,x26,769	 x26:0x80009fc4 x28=0x80009fc5
       71965000	      7195	8000189c	415e0eb3	sub	x29,x28,x21	 x28:0x80009fc5 x21:0xbc524786 x29=0xc3ae583f
       71975000	      7196	800018a0	00000013	addi	x0,x0,0	  x0:0x00000000
       71985000	      7197	800018a4	039f4863	blt	x30,x25,800018d4	 x30:0xd2b861f5 x25:0xd2b86000
       71995000	      7198	800018a8	02934e63	blt	x6,x9,800018e4	  x6:0x00000000  x9:0x00000001
       72005000	      7199	00000000	00000013	addi	x0,x0,0	  x0:0x00000000
       72015000	      7200	800018e0	00000013	addi	x0,x0,0	  x0:0x00000000
       72025000	      7201	800018e4	409a06b3	sub	x13,x20,x9	 x20:0xbc5241e0  x9:0x00000001 x13=0xbc5241df
       72035000	      7202	800018e8	76214d93	xori	x27,x2,1890	  x2:0x00000000 x27=0x00000762
       72045000	      7203	800018ec	411f59b3	sra	x19,x30,x17	 x30:0xd2b861f5 x17:0x002fff40 x19=0xd2b861f5
       72055000	      7204	800018f0	4165d993	srai	x19,x11,0x16	 x11:0x00000000 x19=0x00000000
       72065000	      7205	800018f4	0552e463	bltu	x5,x21,8000193c	  x5:0x3c525fca x21:0xbc524786
       72075000	      7206	00000000	00000013	addi	x0,x0,0	  x0:0x00000000
       72085000	      7207	80001938	00000013	addi	x0,x0,0	  x0:0x00000000
       72095000	      7208	8000193c	01fb9e93	slli	x29,x23,0x1f	 x23:0x00000644 x29=0x00000000
       72105000	      7209	80001940	1fce2293	slti	x5,x28,508	 x28:0x80009fc5  x5=0x00000001
       72115000	      7210	80001944	1bb1c713	xori	x14,x3,443	  x3:0x95709484 x14=0x9570953f
       72125000	      7211	80001948	007560b3	or	x1,x10,x7	 x10:0x269b9000  x7:0x8a4bf940  x1=0xaedbf940
       72135000	      7212	8000194c	008dd233	srl	x4,x27,x8	 x27:0x00000762  x8:0x18a29294  x4=0x00000000
       72145000	      7213	80001950	006b4fb3	xor	x31,x22,x6	 x22:0x00000001  x6:0x00000000 x31=0x00000001
       72155000	      7214	80001954	00a36a33	or	x20,x6,x10	  x6:0x00000000 x10:0x269b9000 x20=0x269b9000
       72165000	      7215	80001958	01443133	sltu	x2,x8,x20	  x8:0x18a29294 x20:0x269b9000  x2=0x00000001
       72175000	      7216	8000195c	01687e93	andi	x29,x16,22	 x16:0x00000001 x29=0x00000000
       72185000	      7217	80001960	0307e063	bltu	x15,x16,80001980	 x15:0x80009f84 x16:0x00000001
       72195000	      7218	80001964	96ac0713	addi	x14,x24,-1686	 x24:0xd2b861c5 x14=0xd2b85b2f
       72205000	      7219	80001968	d7fcc237	lui	x4,0xd7fcc	  x4=0xd7fcc000
       72215000	      7220	8000196c	00a7be33	sltu	x28,x15,x10	 x15:0x80009f84 x10:0x269b9000 x28=0x00000000
       72225000	      7221	80001970	004c5863	bge	x24,x4,80001980	 x24:0xd2b861c5  x4:0xd7fcc000
       72235000	      7222	80001974	0075dc63	bge	x11,x7,8000198c	 x11:0x00000000  x7:0x8a4bf940
       72245000	      7223	00000000	00000013	addi	x0,x0,0	  x0:0x00000000
       72255000	      7224	80001988	00000013	addi	x0,x0,0	  x0:0x00000000
       72265000	      7225	8000198c	24d5db97	auipc	x23,0x24d5d	 x23=0xa4d5e988
       72275000	      7226	80001990	01c15233	srl	x4,x2,x28	  x2:0x00000001 x28:0x00000000  x4=0x00000001
       72285000	      7227	80001994	0149c463	blt	x19,x20,8000199c	 x19:0x00000000 x20:0x269b9000
       72295000	      7228	00000000	00000013	addi	x0,x0,0	  x0:0x00000000
       72305000	      7229	80001998	00000013	addi	x0,x0,0	  x0:0x00000000
       72315000	      7230	8000199c	43a8d337	lui	x6,0x43a8d	  x6=0x43a8d000
       72325000	      7231	800019a0	00d99933	sll	x18,x19,x13	 x19:0x00000000 x13:0xbc5241df x18=0x00000000
       72335000	      7232	800019a4	00744e63	blt	x8,x7,800019c0	  x8:0x18a29294  x7:0x8a4bf940
       72345000	      7233	800019a8	4179d313	srai	x6,x19,0x17	 x19:0x00000000  x6=0x00000000
       72355000	      7234	800019ac	5a5ae417	auipc	x8,0x5a5ae	  x8=0xda5af9a8
       72365000	      7235	800019b0	00e34a33	xor	x20,x6,x14	  x6:0x00000000 x14:0xd2b85b2f x20=0xd2b85b2f
       72375000	      7236	800019b4	03e55c63	bge	x10,x30,800019ec	 x10:0x269b9000 x30:0xd2b861f5
       72385000	      7237	00000000	00000013	addi	x0,x0,0	  x0:0x00000000
       72395000	      7238	800019e8	00000013	addi	x0,x0,0	  x0:0x00000000
       72405000	      7239	800019ec	88454513	xori	x10,x10,-1916	 x10:0x269b9000 x10=0xd9646884
       72415000	      7240	800019f0	00ab1bb3	sll	x23,x22,x10	 x22:0x00000001 x10:0xd9646884 x23=0x00000010
       72425000	      7241	800019f4	a16a3213	sltiu	x4,x20,-1514	 x20:0xd2b85b2f  x4=0x00000001
       72435000	      7242	800019f8	6fdbe137	lui	x2,0x6fdbe	  x2=0x6fdbe000
       72445000	      7243	800019fc	4152d713	srai	x14,x5,0x15	  x5:0x00000001 x14=0x00000000
       72455000	      7244	80001a00	b5935a97	auipc	x21,0xb5935	 x21=0x359369fc
       72465000	      7245	80001a04	00df4bb3	xor	x23,x30,x13	 x30:0xd2b861f5 x13:0xbc5241df x23=0x6eea202a
       72475000	      7246	80001a08	007b5f93	srli	x31,x22,0x7	 x22:0x00000001 x31=0x00000000
       72485000	      7247	80001a0c	00af8433	add	x8,x31,x10	 x31:0x00000000 x10:0xd9646884  x8=0xd9646884
       72495000	      7248	80001a10	01fa6863	bltu	x20,x31,80001a20	 x20:0xd2b85b2f x31:0x00000000
       72505000	      7249	80001a14	3b3ab293	sltiu	x5,x21,947	 x21:0x359369fc  x5=0x00000000
       72515000	      7250	80001a18	38b23993	sltiu	x19,x4,907	  x4:0x00000001 x19=0x00000001
       72525000	      7251	80001a1c	007a7663	bgeu	x20,x7,80001a28	 x20:0xd2b85b2f  x7:0x8a4bf940
       72535000	      7252	00000000	00000013	addi	x0,x0,0	  x0:0x00000000
       72545000	      7253	80001a24	00000013	addi	x0,x0,0	  x0:0x00000000
       72555000	      7254	80001a28	004bc1b3	xor	x3,x23,x4	 x23:0x6eea202a  x4:0x00000001  x3=0x6eea202b
       72565000	      7255	80001a2c	99296513	ori	x10,x18,-1646	 x18:0x00000000 x10=0xfffff992
       72575000	      7256	80001a30	01b55693	srli	x13,x10,0x1b	 x10:0xfffff992 x13=0x0000001f
       72585000	      7257	80001a34	00000013	addi	x0,x0,0	  x0:0x00000000
       72595000	      7258	80001a38	00186c63	bltu	x16,x1,80001a50	 x16:0x00000001  x1:0xaedbf940
       72605000	      7259	00000000	00000013	addi	x0,x0,0	  x0:0x00000000
       72615000	      7260	80001a4c	00000013	addi	x0,x0,0	  x0:0x00000000
       72625000	      7261	80001a50	009f9293	slli	x5,x31,0x9	 x31:0x00000000  x5=0x00000000
       72635000	      7262	80001a54	99b83493	sltiu	x9,x16,-1637	 x16:0x00000001  x9=0x00000001
       72645000	      7263	80001a58	00711f13	slli	x30,x2,0x7	  x2:0x6fdbe000 x30=0xedf00000
       72655000	      7264	80001a5c	78b4fa93	andi	x21,x9,1931	  x9:0x00000001 x21=0x00000001
       72665000	      7265	80001a60	d26dc397	auipc	x7,0xd26dc	  x7=0x526dda5c
       72675000	      7266	80001a64	f587a993	slti	x19,x15,-168	 x15:0x80009f84 x19=0x00000001
       72685000	      7267	80001a68	db842993	slti	x19,x8,-584	  x8:0xd9646884 x19=0x00000001
       72695000	      7268	80001a6c	28ea86b7	lui	x13,0x28ea8	 x13=0x28ea8000
       72705000	      7269	80001a70	0174d533	srl	x10,x9,x23	  x9:0x00000001 x23:0x6eea202a x10=0x00000000
       72715000	      7270	80001a74	037ad463	bge	x21,x23,80001a9c	 x21:0x00000001 x23:0x6eea202a
       72725000	      7271	80001a78	e30cab93	slti	x23,x25,-464	 x25:0xd2b86000 x23=0x00000001
       72735000	      7272	80001a7c	41a25513	srai	x10,x4,0x1a	  x4:0x00000001 x10=0x00000000
       72745000	      7273	80001a80	008f6e63	bltu	x30,x8,80001a9c	 x30:0xedf00000  x8:0xd9646884
       72755000	      7274	80001a84	00e5b1b3	sltu	x3,x11,x14	 x11:0x00000000 x14:0x00000000  x3=0x00000000
       72765000	      7275	80001a88	01ea7433	and	x8,x20,x30	 x20:0xd2b85b2f x30:0xedf00000  x8=0xc0b00000
       72775000	      7276	80001a8c	01cae5b3	or	x11,x21,x28	 x21:0x00000001 x28:0x00000000 x11=0x00000001
       72785000	      7277	80001a90	3a390b93	addi	x23,x18,931	 x18:0x00000000 x23=0x000003a3
       72795000	      7278	80001a94	01277463	bgeu	x14,x18,80001a9c	 x14:0x00000000 x18:0x00000000
       72805000	      7279	00000000	00000013	addi	x0,x0,0	  x0:0x00000000
       72815000	      7280	80001a98	00000013	addi	x0,x0,0	  x0:0x00000000
       72825000	      7281	80001a9c	011ce2b3	or	x5,x25,x17	 x25:0xd2b86000 x17:0x002fff40  x5=0xd2bfff40
       72835000	      7282	80001aa0	00000617	auipc	x12,0x0	 x12=0x80001a9c
       72845000	      7283	80001aa4	00c60613	addi	x12,x12,12	 x12:0x80001a9c x12=0x80001aa8
       72855000	      7284	80001aa8	00060067	jalr	x0,x12,0	 x12:0x80001aa8
       72865000	      7285	00000000	00000013	addi	x0,x0,0	  x0:0x00000000
       72875000	      7286	80001aa8	00000013	addi	x0,x0,0	  x0:0x00000000
       72885000	      7287	80001aac	00100193	addi	x3,x0,1	  x0:0x00000000  x3=0x00000001
       72895000	      7288	80001ab0	00000073	ecall	
       72905000	      7289	80001ab4	42172413	slti	x8,x14,1057	 x14:0x00000000  x8=0x00000001
