		Time			Cycle	PC		Insn	Decoded instruction	Register and memory contents
          65000	         5	80000004	00000293	addi	x5,x0,0	  x0:0x00000000  x5=0x00000000
          75000	         6	80000008	00000313	addi	x6,x0,0	  x0:0x00000000  x6=0x00000000
          85000	         7	8000000c	00628263	beq	x5,x6,80000010	  x5:0x00000000  x6:0x00000000
          95000	         8	00000000	00000013	addi	x0,x0,0	  x0:0x00000000
         105000	         9	8000000c	00000013	addi	x0,x0,0	  x0:0x00000000
         115000	        10	80000010	00000b97	auipc	x23,0x0	 x23=0x8000000c
         125000	        11	80000014	00cb8b93	addi	x23,x23,12	 x23:0x8000000c x23=0x80000018
         135000	        12	80000018	000b8067	jalr	x0,x23,0	 x23:0x80000018
         145000	        13	00000000	00000013	addi	x0,x0,0	  x0:0x00000000
         155000	        14	80000018	00000013	addi	x0,x0,0	  x0:0x00000000
         165000	        15	8000001c	40000eb7	lui	x29,0x40000	 x29=0x40000000
         175000	        16	80000020	100e8e93	addi	x29,x29,256	 x29:0x40000000 x29=0x40000100
         185000	        17	80000024	00000013	addi	x0,x0,0	  x0:0x00000000
         195000	        18	80000028	0000aa17	auipc	x20,0xa	 x20=0x8000a024
         205000	        19	8000002c	fa0a0a13	addi	x20,x20,-96	 x20:0x8000a024 x20=0x80009fc4
         215000	        20	80000030	00007e97	auipc	x29,0x7	 x29=0x8000702c
         225000	        21	80000034	3c4e8e93	addi	x29,x29,964	 x29:0x8000702c x29=0x800073f0
         235000	        22	80000038	001eee93	ori	x29,x29,1	 x29:0x800073f0 x29=0x800073f1
         245000	        23	8000003c	00000013	addi	x0,x0,0	  x0:0x00000000
         255000	        24	80000040	00000e97	auipc	x29,0x0	 x29=0x8000003c
         265000	        25	80000044	020e8e93	addi	x29,x29,32	 x29:0x8000003c x29=0x8000005c
         275000	        26	80000048	00000013	addi	x0,x0,0	  x0:0x00000000
         285000	        27	8000004c	00000013	addi	x0,x0,0	  x0:0x00000000
         295000	        28	80000050	00002eb7	lui	x29,0x2	 x29=0x00002000
         305000	        29	80000054	800e8e93	addi	x29,x29,-2048	 x29:0x00002000 x29=0x00001800
         315000	        30	80000058	00000013	addi	x0,x0,0	  x0:0x00000000
         325000	        31	8000005c	00000013	addi	x0,x0,0	  x0:0x00000000
         335000	        32	80000060	00000013	addi	x0,x0,0	  x0:0x00000000
         345000	        33	80000064	035a20b7	lui	x1,0x35a2	  x1=0x035a2000
         355000	        34	80000068	43108093	addi	x1,x1,1073	  x1:0x035a2000  x1=0x035a2431
         365000	        35	8000006c	00000113	addi	x2,x0,0	  x0:0x00000000  x2=0x00000000
         375000	        36	80000070	f0a5b1b7	lui	x3,0xf0a5b	  x3=0xf0a5b000
         385000	        37	80000074	44f18193	addi	x3,x3,1103	  x3:0xf0a5b000  x3=0xf0a5b44f
         395000	        38	80000078	80000237	lui	x4,0x80000	  x4=0x80000000
         405000	        39	8000007c	00000293	addi	x5,x0,0	  x0:0x00000000  x5=0x00000000
         415000	        40	80000080	88215337	lui	x6,0x88215	  x6=0x88215000
         425000	        41	80000084	6d930313	addi	x6,x6,1753	  x6:0x88215000  x6=0x882156d9
         435000	        42	80000088	6b3e13b7	lui	x7,0x6b3e1	  x7=0x6b3e1000
         445000	        43	8000008c	55e38393	addi	x7,x7,1374	  x7:0x6b3e1000  x7=0x6b3e155e
         455000	        44	80000090	80000437	lui	x8,0x80000	  x8=0x80000000
         465000	        45	80000094	00000493	addi	x9,x0,0	  x0:0x00000000  x9=0x00000000
         475000	        46	80000098	a12f3537	lui	x10,0xa12f3	 x10=0xa12f3000
         485000	        47	8000009c	f3750513	addi	x10,x10,-201	 x10:0xa12f3000 x10=0xa12f2f37
         495000	        48	800000a0	f36bf5b7	lui	x11,0xf36bf	 x11=0xf36bf000
         505000	        49	800000a4	97a58593	addi	x11,x11,-1670	 x11:0xf36bf000 x11=0xf36be97a
         515000	        50	800000a8	00000613	addi	x12,x0,0	  x0:0x00000000 x12=0x00000000
         525000	        51	800000ac	800006b7	lui	x13,0x80000	 x13=0x80000000
         535000	        52	800000b0	fd51c737	lui	x14,0xfd51c	 x14=0xfd51c000
         545000	        53	800000b4	d2570713	addi	x14,x14,-731	 x14:0xfd51c000 x14=0xfd51bd25
         555000	        54	800000b8	259dc7b7	lui	x15,0x259dc	 x15=0x259dc000
         565000	        55	800000bc	38178793	addi	x15,x15,897	 x15:0x259dc000 x15=0x259dc381
         575000	        56	800000c0	00000813	addi	x16,x0,0	  x0:0x00000000 x16=0x00000000
         585000	        57	800000c4	00000893	addi	x17,x0,0	  x0:0x00000000 x17=0x00000000
         595000	        58	800000c8	00000913	addi	x18,x0,0	  x0:0x00000000 x18=0x00000000
         605000	        59	800000cc	6d82f9b7	lui	x19,0x6d82f	 x19=0x6d82f000
         615000	        60	800000d0	0cc98993	addi	x19,x19,204	 x19:0x6d82f000 x19=0x6d82f0cc
         625000	        61	800000d4	00000a93	addi	x21,x0,0	  x0:0x00000000 x21=0x00000000
         635000	        62	800000d8	80000b37	lui	x22,0x80000	 x22=0x80000000
         645000	        63	800000dc	7c8bcbb7	lui	x23,0x7c8bc	 x23=0x7c8bc000
         655000	        64	800000e0	2f3b8b93	addi	x23,x23,755	 x23:0x7c8bc000 x23=0x7c8bc2f3
         665000	        65	800000e4	80000c37	lui	x24,0x80000	 x24=0x80000000
         675000	        66	800000e8	11325cb7	lui	x25,0x11325	 x25=0x11325000
         685000	        67	800000ec	f1cc8c93	addi	x25,x25,-228	 x25:0x11325000 x25=0x11324f1c
         695000	        68	800000f0	f2ed4d37	lui	x26,0xf2ed4	 x26=0xf2ed4000
         705000	        69	800000f4	aa8d0d13	addi	x26,x26,-1368	 x26:0xf2ed4000 x26=0xf2ed3aa8
         715000	        70	800000f8	064ecdb7	lui	x27,0x64ec	 x27=0x064ec000
         725000	        71	800000fc	626d8d93	addi	x27,x27,1574	 x27:0x064ec000 x27=0x064ec626
         735000	        72	80000100	f11c4e37	lui	x28,0xf11c4	 x28=0xf11c4000
         745000	        73	80000104	e71e0e13	addi	x28,x28,-399	 x28:0xf11c4000 x28=0xf11c3e71
         755000	        74	80000108	00800e93	addi	x29,x0,8	  x0:0x00000000 x29=0x00000008
         765000	        75	8000010c	00b00f93	addi	x31,x0,11	  x0:0x00000000 x31=0x0000000b
         775000	        76	80000110	0000af17	auipc	x30,0xa	 x30=0x8000a10c
         785000	        77	80000114	e78f0f13	addi	x30,x30,-392	 x30:0x8000a10c x30=0x80009f84
         795000	        78	80000118	00c9b4b3	sltu	x9,x19,x12	 x19:0x6d82f0cc x12:0x00000000  x9=0x00000000
         805000	        79	8000011c	54fdaeb7	lui	x29,0x54fda	 x29=0x54fda000
         815000	        80	80000120	00dc9c13	slli	x24,x25,0xd	 x25:0x11324f1c x24=0x49e38000
         825000	        81	80000124	00003517	auipc	x10,0x3	 x10=0x80003120
         835000	        82	80000128	3d850513	addi	x10,x10,984	 x10:0x80003120 x10=0x800034f8
         845000	        83	8000012c	0072d0b3	srl	x1,x5,x7	  x5:0x00000000  x7:0x6b3e155e  x1=0x00000000
         855000	        84	80000130	eee50513	addi	x10,x10,-274	 x10:0x800034f8 x10=0x800033e6
         865000	        85	80000134	19ceb297	auipc	x5,0x19ceb	  x5=0x99ceb130
         875000	        86	80000138	04816037	lui	x0,0x4816	
         885000	        87	8000013c	01138e33	add	x28,x7,x17	  x7:0x6b3e155e x17:0x00000000 x28=0x6b3e155e
         895000	        88	80000140	003d7463	bgeu	x26,x3,80000148	 x26:0xf2ed3aa8  x3:0xf0a5b44f
         905000	        89	00000000	00000013	addi	x0,x0,0	  x0:0x00000000
         915000	        90	80000144	00000013	addi	x0,x0,0	  x0:0x00000000
         925000	        91	80000148	11350967	jalr	x18,x10,275	 x10:0x800033e6 x18=0x80000148
         935000	        92	00000000	00000013	addi	x0,x0,0	  x0:0x00000000
         945000	        93	800034f8	00000013	addi	x0,x0,0	  x0:0x00000000
         955000	        94	800034fc	008bfe63	bgeu	x23,x8,80003518	 x23:0x7c8bc2f3  x8:0x80000000
         965000	        95	80003500	74456317	auipc	x6,0x74456	  x6=0xf44594fc
         975000	        96	80003504	418cd0b3	sra	x1,x25,x24	 x25:0x11324f1c x24:0x49e38000  x1=0x11324f1c
         985000	        97	80003508	007a9833	sll	x16,x21,x7	 x21:0x00000000  x7:0x6b3e155e x16=0x00000000
         995000	        98	8000350c	013439b3	sltu	x19,x8,x19	  x8:0x80000000 x19:0x6d82f0cc x19=0x00000000
        1005000	        99	80003510	77070593	addi	x11,x14,1904	 x14:0xfd51bd25 x11=0xfd51c495
        1015000	       100	80003514	861f8313	addi	x6,x31,-1951	 x31:0x0000000b  x6=0xfffff86c
        1025000	       101	80003518	fc8f0f13	addi	x30,x30,-56	 x30:0x80009f84 x30=0x80009f4c
        1035000	       102	8000351c	001fdb33	srl	x22,x31,x1	 x31:0x0000000b  x1:0x11324f1c x22=0x00000000
        1045000	       103	80003520	0c557893	andi	x17,x10,197	 x10:0x800033e6 x17=0x000000c4
        1055000	       104	80003524	012f2223	sw	x18,4(x30)	 x30:0x80009f4c x18:0x80000148 PA:0x80009f50
        1065000	       105	80003528	002a5313	srli	x6,x20,0x2	 x20:0x80009fc4  x6=0x200027f1
        1075000	       106	8000352c	019d5b13	srli	x22,x26,0x19	 x26:0xf2ed3aa8 x22=0x00000079
        1085000	       107	80003530	01ba5033	srl	x0,x20,x27	 x20:0x80009fc4 x27:0x064ec626
        1095000	       108	80003534	01e4ee63	bltu	x9,x30,80003550	  x9:0x00000000 x30:0x80009f4c
        1105000	       109	00000000	00000013	addi	x0,x0,0	  x0:0x00000000
        1115000	       110	8000354c	00000013	addi	x0,x0,0	  x0:0x00000000
        1125000	       111	80003550	e50fe96f	jal	x18,80003550	 x18=0x80003550
        1135000	       112	00000000	00000013	addi	x0,x0,0	  x0:0x00000000
        1145000	       113	80001b9c	00000013	addi	x0,x0,0	  x0:0x00000000
        1155000	       114	80001ba0	00e98a63	beq	x19,x14,80001bb4	 x19:0x00000000 x14:0xfd51bd25
        1165000	       115	80001ba4	41cf0033	sub	x0,x30,x28	 x30:0x80009f4c x28:0x6b3e155e
        1175000	       116	80001ba8	0029dc33	srl	x24,x19,x2	 x19:0x00000000  x2:0x00000000 x24=0x00000000
        1185000	       117	80001bac	00364033	xor	x0,x12,x3	 x12:0x00000000  x3:0xf0a5b44f
        1195000	       118	80001bb0	85f78497	auipc	x9,0x85f78	  x9=0x05f79bac
        1205000	       119	80001bb4	fccf0f13	addi	x30,x30,-52	 x30:0x80009f4c x30=0x80009f18
        1215000	       120	80001bb8	014301b3	add	x3,x6,x20	  x6:0x200027f1 x20:0x80009fc4  x3=0xa000c7b5
        1225000	       121	80001bbc	012f2223	sw	x18,4(x30)	 x30:0x80009f18 x18:0x80003550 PA:0x80009f1c
        1235000	       122	80001bc0	00f423b3	slt	x7,x8,x15	  x8:0x80000000 x15:0x259dc381  x7=0x00000001
        1245000	       123	80001bc4	00007117	auipc	x2,0x7	  x2=0x80008bc0
        1255000	       124	80001bc8	a2010113	addi	x2,x2,-1504	  x2:0x80008bc0  x2=0x800085e0
        1265000	       125	80001bcc	0105d293	srli	x5,x11,0x10	 x11:0xfd51c495  x5=0x0000fd51
        1275000	       126	80001bd0	01f10023	sb	x31,0(x2)	  x2:0x800085e0 x31:0x0000000b PA:0x800085e0
        1285000	       127	80001bd4	00614503	lbu	x10,6(x2)	  x2:0x800085e0 x10=0x0000009d PA:0x800085e6
        1295000	       128	80001bd8	3af64393	xori	x7,x12,943	 x12:0x00000000  x7=0x000003af
        1305000	       129	80001bdc	01baa233	slt	x4,x21,x27	 x21:0x00000000 x27:0x064ec626  x4=0x00000001
        1315000	       130	80001be0	4097d713	srai	x14,x15,0x9	 x15:0x259dc381 x14=0x0012cee1
        1325000	       131	80001be4	00911623	sh	x9,12(x2)	  x2:0x800085e0  x9:0x05f79bac PA:0x800085ec
        1335000	       132	80001be8	00411783	lh	x15,4(x2)	  x2:0x800085e0 x15=0xffff9e9f PA:0x800085e4
        1345000	       133	80001bec	413ad433	sra	x8,x21,x19	 x21:0x00000000 x19:0x00000000  x8=0x00000000
        1355000	       134	80001bf0	00000013	addi	x0,x0,0	  x0:0x00000000
        1365000	       135	80001bf4	711c4693	xori	x13,x24,1809	 x24:0x00000000 x13=0x00000711
        1375000	       136	80001bf8	ff810003	lb	x0,-8(x2)	  x2:0x800085e0 PA:0x800085d8
        1385000	       137	80001bfc	00c11303	lh	x6,12(x2)	  x2:0x800085e0  x6=0xffff9bac PA:0x800085ec
        1395000	       138	80001c00	41915513	srai	x10,x2,0x19	  x2:0x800085e0 x10=0xffffffc0
        1405000	       139	80001c04	01011303	lh	x6,16(x2)	  x2:0x800085e0  x6=0xffffaaab PA:0x800085f0
        1415000	       140	80001c08	000476b3	and	x13,x8,x0	  x8:0x00000000  x0:0x00000000 x13=0x00000000
        1425000	       141	80001c0c	01c105a3	sb	x28,11(x2)	  x2:0x800085e0 x28:0x6b3e155e PA:0x800085eb
        1435000	       142	80001c10	41268533	sub	x10,x13,x18	 x13:0x00000000 x18:0x80003550 x10=0x7fffcab0
        1445000	       143	80001c14	00410803	lb	x16,4(x2)	  x2:0x800085e0 x16=0xffffff9f PA:0x800085e4
        1455000	       144	00000000	00000013	addi	x0,x0,0	  x0:0x00000000
        1465000	       145	80001c18	ff010d23	sb	x16,-6(x2)	  x2:0x800085e0 x16:0xffffff9f PA:0x800085da
        1475000	       146	80001c1c	18ad3193	sltiu	x3,x26,394	 x26:0xf2ed3aa8  x3=0x00000000
        1485000	       147	80001c20	00e15b03	lhu	x22,14(x2)	  x2:0x800085e0 x22=0x0000a4a5 PA:0x800085ee
        1495000	       148	80001c24	00e14183	lbu	x3,14(x2)	  x2:0x800085e0  x3=0x000000a5 PA:0x800085ee
        1505000	       149	80001c28	005eb533	sltu	x10,x29,x5	 x29:0x54fda000  x5:0x0000fd51 x10=0x00000000
        1515000	       150	80001c2c	00c15e03	lhu	x28,12(x2)	  x2:0x800085e0 x28=0x00009bac PA:0x800085ec
        1525000	       151	80001c30	01a11623	sh	x26,12(x2)	  x2:0x800085e0 x26:0xf2ed3aa8 PA:0x800085ec
        1535000	       152	80001c34	01811423	sh	x24,8(x2)	  x2:0x800085e0 x24:0x00000000 PA:0x800085e8
        1545000	       153	80001c38	01d107a3	sb	x29,15(x2)	  x2:0x800085e0 x29:0x54fda000 PA:0x800085ef
        1555000	       154	80001c3c	ff110903	lb	x18,-15(x2)	  x2:0x800085e0 x18=0xffffff8a PA:0x800085d1
        1565000	       155	80001c40	014486b3	add	x13,x9,x20	  x9:0x05f79bac x20:0x80009fc4 x13=0x85f83b70
        1575000	       156	80001c44	00310e83	lb	x29,3(x2)	  x2:0x800085e0 x29=0xffffff98 PA:0x800085e3
        1585000	       157	80001c48	ff314383	lbu	x7,-13(x2)	  x2:0x800085e0  x7=0x00000088 PA:0x800085d3
        1595000	       158	80001c4c	4171d5b3	sra	x11,x3,x23	  x3:0x000000a5 x23:0x7c8bc2f3 x11=0x00000000
        1605000	       159	80001c50	05e6e463	bltu	x13,x30,80001c98	 x13:0x85f83b70 x30:0x80009f18
        1615000	       160	80001c54	01fa4663	blt	x20,x31,80001c60	 x20:0x80009fc4 x31:0x0000000b
        1625000	       161	00000000	00000013	addi	x0,x0,0	  x0:0x00000000
        1635000	       162	80001c5c	00000013	addi	x0,x0,0	  x0:0x00000000
        1645000	       163	80001c60	059a6863	bltu	x20,x25,80001cb0	 x20:0x80009fc4 x25:0x11324f1c
        1655000	       164	80001c64	0168c2b3	xor	x5,x17,x22	 x17:0x000000c4 x22:0x0000a4a5  x5=0x0000a461
        1665000	       165	80001c68	98b83413	sltiu	x8,x16,-1653	 x16:0xffffff9f  x8=0x00000000
        1675000	       166	80001c6c	00a18e63	beq	x3,x10,80001c88	  x3:0x000000a5 x10:0x00000000
        1685000	       167	80001c70	0135bc33	sltu	x24,x11,x19	 x11:0x00000000 x19:0x00000000 x24=0x00000000
        1695000	       168	80001c74	981a7513	andi	x10,x20,-1663	 x20:0x80009fc4 x10=0x80009980
        1705000	       169	80001c78	007de2b3	or	x5,x27,x7	 x27:0x064ec626  x7:0x00000088  x5=0x064ec6ae
        1715000	       170	80001c7c	aaa44313	xori	x6,x8,-1366	  x8:0x00000000  x6=0xfffffaaa
        1725000	       171	80001c80	003cc8b3	xor	x17,x25,x3	 x25:0x11324f1c  x3:0x000000a5 x17=0x11324fb9
        1735000	       172	80001c84	f9d07d93	andi	x27,x0,-99	  x0:0x00000000 x27=0x00000000
        1745000	       173	80001c88	d5f37813	andi	x16,x6,-673	  x6:0xfffffaaa x16=0xfffff80a
        1755000	       174	80001c8c	0206fc63	bgeu	x13,x0,80001cc4	 x13:0x85f83b70  x0:0x00000000
        1765000	       175	00000000	00000013	addi	x0,x0,0	  x0:0x00000000
        1775000	       176	80001cc0	00000013	addi	x0,x0,0	  x0:0x00000000
        1785000	       177	80001cc4	418a5d93	srai	x27,x20,0x18	 x20:0x80009fc4 x27=0xffffff80
        1795000	       178	80001cc8	edda1b37	lui	x22,0xedda1	 x22=0xedda1000
        1805000	       179	80001ccc	0032db33	srl	x22,x5,x3	  x5:0x064ec6ae  x3:0x000000a5 x22=0x00327635
        1815000	       180	80001cd0	00131933	sll	x18,x6,x1	  x6:0xfffffaaa  x1:0x11324f1c x18=0xa0000000
        1825000	       181	80001cd4	01986733	or	x14,x16,x25	 x16:0xfffff80a x25:0x11324f1c x14=0xffffff1e
        1835000	       182	80001cd8	0150b033	sltu	x0,x1,x21	  x1:0x11324f1c x21:0x00000000
        1845000	       183	80001cdc	28fec493	xori	x9,x29,655	 x29:0xffffff98  x9=0xfffffd17
        1855000	       184	80001ce0	05de1863	bne	x28,x29,80001d30	 x28:0x00009bac x29:0xffffff98
        1865000	       185	00000000	00000013	addi	x0,x0,0	  x0:0x00000000
        1875000	       186	80001d2c	00000013	addi	x0,x0,0	  x0:0x00000000
        1885000	       187	80001d30	019de7b3	or	x15,x27,x25	 x27:0xffffff80 x25:0x11324f1c x15=0xffffff9c
        1895000	       188	80001d34	00ff42b3	xor	x5,x30,x15	 x30:0x80009f18 x15:0xffffff9c  x5=0x7fff6084
        1905000	       189	80001d38	017f1863	bne	x30,x23,80001d48	 x30:0x80009f18 x23:0x7c8bc2f3
        1915000	       190	00000000	00000013	addi	x0,x0,0	  x0:0x00000000
        1925000	       191	80001d44	00000013	addi	x0,x0,0	  x0:0x00000000
        1935000	       192	80001d48	976abd13	sltiu	x26,x21,-1674	 x21:0x00000000 x26=0x00000001
        1945000	       193	80001d4c	01760233	add	x4,x12,x23	 x12:0x00000000 x23:0x7c8bc2f3  x4=0x7c8bc2f3
        1955000	       194	80001d50	01b971b3	and	x3,x18,x27	 x18:0xa0000000 x27:0xffffff80  x3=0xa0000000
        1965000	       195	80001d54	01fa1513	slli	x10,x20,0x1f	 x20:0x80009fc4 x10=0x00000000
        1975000	       196	80001d58	018ee3b3	or	x7,x29,x24	 x29:0xffffff98 x24:0x00000000  x7=0xffffff98
        1985000	       197	80001d5c	4113d693	srai	x13,x7,0x11	  x7:0xffffff98 x13=0xffffffff
        1995000	       198	80001d60	ab1cac17	auipc	x24,0xab1ca	 x24=0x2b1cbd5c
        2005000	       199	80001d64	017b68b3	or	x17,x22,x23	 x22:0x00327635 x23:0x7c8bc2f3 x17=0x7cbbf6f7
        2015000	       200	80001d68	150e8913	addi	x18,x29,336	 x29:0xffffff98 x18=0x000000e8
        2025000	       201	80001d6c	9565ec13	ori	x24,x11,-1706	 x11:0x00000000 x24=0xfffff956
        2035000	       202	80001d70	00e4d393	srli	x7,x9,0xe	  x9:0xfffffd17  x7=0x0003ffff
        2045000	       203	80001d74	01605c93	srli	x25,x0,0x16	  x0:0x00000000 x25=0x00000000
        2055000	       204	80001d78	40dfd413	srai	x8,x31,0xd	 x31:0x0000000b  x8=0x00000000
        2065000	       205	80001d7c	009d7633	and	x12,x26,x9	 x26:0x00000001  x9:0xfffffd17 x12=0x00000001
        2075000	       206	80001d80	4f854213	xori	x4,x10,1272	 x10:0x00000000  x4=0x000004f8
        2085000	       207	80001d84	40e08c33	sub	x24,x1,x14	  x1:0x11324f1c x14:0xffffff1e x24=0x11324ffe
        2095000	       208	80001d88	40d9d733	sra	x14,x19,x13	 x19:0x00000000 x13:0xffffffff x14=0x00000000
        2105000	       209	80001d8c	41585e33	sra	x28,x16,x21	 x16:0xfffff80a x21:0x00000000 x28=0xfffff80a
        2115000	       210	80001d90	04780063	beq	x16,x7,80001dd0	 x16:0xfffff80a  x7:0x0003ffff
        2125000	       211	80001d94	1e616013	ori	x0,x2,486	  x2:0x800085e0
        2135000	       212	80001d98	31556717	auipc	x14,0x31556	 x14=0xb1557d94
        2145000	       213	80001d9c	02a89063	bne	x17,x10,80001dbc	 x17:0x7cbbf6f7 x10:0x00000000
        2155000	       214	00000000	00000013	addi	x0,x0,0	  x0:0x00000000
        2165000	       215	80001db8	00000013	addi	x0,x0,0	  x0:0x00000000
        2175000	       216	80001dbc	0169e4b3	or	x9,x19,x22	 x19:0x00000000 x22:0x00327635  x9=0x00327635
        2185000	       217	80001dc0	024b9463	bne	x23,x4,80001de8	 x23:0x7c8bc2f3  x4:0x000004f8
        2195000	       218	00000000	00000013	addi	x0,x0,0	  x0:0x00000000
        2205000	       219	80001de4	00000013	addi	x0,x0,0	  x0:0x00000000
        2215000	       220	80001de8	00f07633	and	x12,x0,x15	  x0:0x00000000 x15:0xffffff9c x12=0x00000000
        2225000	       221	80001dec	3c8bf413	andi	x8,x23,968	 x23:0x7c8bc2f3  x8=0x000002c0
        2235000	       222	80001df0	01923633	sltu	x12,x4,x25	  x4:0x000004f8 x25:0x00000000 x12=0x00000000
        2245000	       223	80001df4	00f4f663	bgeu	x9,x15,80001e00	  x9:0x00327635 x15:0xffffff9c
        2255000	       224	80001df8	04e85663	bge	x16,x14,80001e44	 x16:0xfffff80a x14:0xb1557d94
        2265000	       225	00000000	00000013	addi	x0,x0,0	  x0:0x00000000
        2275000	       226	80001e40	00000013	addi	x0,x0,0	  x0:0x00000000
        2285000	       227	80001e44	401350b3	sra	x1,x6,x1	  x6:0xfffffaaa  x1:0x11324f1c  x1=0xffffffff
        2295000	       228	80001e48	044f0663	beq	x30,x4,80001e94	 x30:0x80009f18  x4:0x000004f8
        2305000	       229	80001e4c	00000013	addi	x0,x0,0	  x0:0x00000000
        2315000	       230	80001e50	002dd863	bge	x27,x2,80001e60	 x27:0xffffff80  x2:0x800085e0
        2325000	       231	00000000	00000013	addi	x0,x0,0	  x0:0x00000000
        2335000	       232	80001e5c	00000013	addi	x0,x0,0	  x0:0x00000000
        2345000	       233	80001e60	007ffe63	bgeu	x31,x7,80001e7c	 x31:0x0000000b  x7:0x0003ffff
        2355000	       234	80001e64	007fbcb3	sltu	x25,x31,x7	 x31:0x0000000b  x7:0x0003ffff x25=0x00000001
        2365000	       235	80001e68	00000013	addi	x0,x0,0	  x0:0x00000000
        2375000	       236	80001e6c	21e24713	xori	x14,x4,542	  x4:0x000004f8 x14=0x000006e6
        2385000	       237	80001e70	0058e9b3	or	x19,x17,x5	 x17:0x7cbbf6f7  x5:0x7fff6084 x19=0x7ffff6f7
        2395000	       238	80001e74	11fb9463	bne	x23,x31,80001f7c	 x23:0x7c8bc2f3 x31:0x0000000b
        2405000	       239	00000000	00000013	addi	x0,x0,0	  x0:0x00000000
        2415000	       240	80001f78	00000013	addi	x0,x0,0	  x0:0x00000000
        2425000	       241	80001f7c	00f54e63	blt	x10,x15,80001f98	 x10:0x00000000 x15:0xffffff9c
        2435000	       242	80001f80	00000013	addi	x0,x0,0	  x0:0x00000000
        2445000	       243	80001f84	01e30733	add	x14,x6,x30	  x6:0xfffffaaa x30:0x80009f18 x14=0x800099c2
        2455000	       244	80001f88	01f47133	and	x2,x8,x31	  x8:0x000002c0 x31:0x0000000b  x2=0x00000000
        2465000	       245	80001f8c	013cfc33	and	x24,x25,x19	 x25:0x00000001 x19:0x7ffff6f7 x24=0x00000001
        2475000	       246	80001f90	35fd2593	slti	x11,x26,863	 x26:0x00000001 x11=0x00000001
        2485000	       247	80001f94	01150663	beq	x10,x17,80001fa0	 x10:0x00000000 x17:0x7cbbf6f7
        2495000	       248	80001f98	00515993	srli	x19,x2,0x5	  x2:0x00000000 x19=0x00000000
        2505000	       249	80001f9c	00937fb3	and	x31,x6,x9	  x6:0xfffffaaa  x9:0x00327635 x31=0x00327220
        2515000	       250	80001fa0	04fd8463	beq	x27,x15,80001fe8	 x27:0xffffff80 x15:0xffffff9c
        2525000	       251	80001fa4	00ce1fb3	sll	x31,x28,x12	 x28:0xfffff80a x12:0x00000000 x31=0xfffff80a
        2535000	       252	80001fa8	01e93533	sltu	x10,x18,x30	 x18:0x000000e8 x30:0x80009f18 x10=0x00000001
        2545000	       253	80001fac	00f36db3	or	x27,x6,x15	  x6:0xfffffaaa x15:0xffffff9c x27=0xffffffbe
        2555000	       254	80001fb0	01d16533	or	x10,x2,x29	  x2:0x00000000 x29:0xffffff98 x10=0xffffff98
        2565000	       255	80001fb4	ec73aa93	slti	x21,x7,-313	  x7:0x0003ffff x21=0x00000000
        2575000	       256	80001fb8	0004cc63	blt	x9,x0,80001fd0	  x9:0x00327635  x0:0x00000000
        2585000	       257	80001fbc	006e06b3	add	x13,x28,x6	 x28:0xfffff80a  x6:0xfffffaaa x13=0xfffff2b4
        2595000	       258	80001fc0	416a56b3	sra	x13,x20,x22	 x20:0x80009fc4 x22:0x00327635 x13=0xfffffc00
        2605000	       259	80001fc4	41835d33	sra	x26,x6,x24	  x6:0xfffffaaa x24:0x00000001 x26=0xfffffd55
        2615000	       260	80001fc8	044f4863	blt	x30,x4,80002018	 x30:0x80009f18  x4:0x000004f8
        2625000	       261	00000000	00000013	addi	x0,x0,0	  x0:0x00000000
        2635000	       262	80002014	00000013	addi	x0,x0,0	  x0:0x00000000
        2645000	       263	80002018	3faebb13	sltiu	x22,x29,1018	 x29:0xffffff98 x22=0x00000000
        2655000	       264	8000201c	0340d463	bge	x1,x20,80002044	  x1:0xffffffff x20:0x80009fc4
        2665000	       265	00000000	00000013	addi	x0,x0,0	  x0:0x00000000
        2675000	       266	80002040	00000013	addi	x0,x0,0	  x0:0x00000000
        2685000	       267	80002044	7530c497	auipc	x9,0x7530c	  x9=0xf530e040
        2695000	       268	80002048	c3933213	sltiu	x4,x6,-967	  x6:0xfffffaaa  x4=0x00000001
        2705000	       269	8000204c	00c6f133	and	x2,x13,x12	 x13:0xfffffc00 x12:0x00000000  x2=0x00000000
        2715000	       270	80002050	01e26663	bltu	x4,x30,8000205c	  x4:0x00000001 x30:0x80009f18
        2725000	       271	00000000	00000013	addi	x0,x0,0	  x0:0x00000000
        2735000	       272	80002058	00000013	addi	x0,x0,0	  x0:0x00000000
        2745000	       273	8000205c	893b9d17	auipc	x26,0x893b9	 x26=0x093bb058
        2755000	       274	80002060	04728463	beq	x5,x7,800020a8	  x5:0x7fff6084  x7:0x0003ffff
        2765000	       275	80002064	01f4d233	srl	x4,x9,x31	  x9:0xf530e040 x31:0xfffff80a  x4=0x003d4c38
        2775000	       276	80002068	40ac5333	sra	x6,x24,x10	 x24:0x00000001 x10:0xffffff98  x6=0x00000000
        2785000	       277	8000206c	c877fd93	andi	x27,x15,-889	 x15:0xffffff9c x27=0xfffffc84
        2795000	       278	80002070	00077eb3	and	x29,x14,x0	 x14:0x800099c2  x0:0x00000000 x29=0x00000000
        2805000	       279	80002074	41e25093	srai	x1,x4,0x1e	  x4:0x003d4c38  x1=0x00000000
        2815000	       280	80002078	6a987213	andi	x4,x16,1705	 x16:0xfffff80a  x4=0x00000008
        2825000	       281	8000207c	01165d13	srli	x26,x12,0x11	 x12:0x00000000 x26=0x00000000
        2835000	       282	80002080	00fd34b3	sltu	x9,x26,x15	 x26:0x00000000 x15:0xffffff9c  x9=0x00000001
        2845000	       283	80002084	03b81463	bne	x16,x27,800020ac	 x16:0xfffff80a x27:0xfffffc84
        2855000	       284	00000000	00000013	addi	x0,x0,0	  x0:0x00000000
        2865000	       285	800020a8	00000013	addi	x0,x0,0	  x0:0x00000000
        2875000	       286	800020ac	015e4a63	blt	x28,x21,800020c0	 x28:0xfffff80a x21:0x00000000
        2885000	       287	00000000	00000013	addi	x0,x0,0	  x0:0x00000000
        2895000	       288	800020bc	00000013	addi	x0,x0,0	  x0:0x00000000
        2905000	       289	800020c0	01f88863	beq	x17,x31,800020d0	 x17:0x7cbbf6f7 x31:0xfffff80a
        2915000	       290	800020c4	0494e263	bltu	x9,x9,80002108	  x9:0x00000001  x9:0x00000001
        2925000	       291	800020c8	24108793	addi	x15,x1,577	  x1:0x00000000 x15=0x00000241
        2935000	       292	800020cc	40c45833	sra	x16,x8,x12	  x8:0x000002c0 x12:0x00000000 x16=0x000002c0
        2945000	       293	800020d0	018f8433	add	x8,x31,x24	 x31:0xfffff80a x24:0x00000001  x8=0xfffff80b
        2955000	       294	800020d4	65346393	ori	x7,x8,1619	  x8:0xfffff80b  x7=0xfffffe5b
        2965000	       295	800020d8	005d1233	sll	x4,x26,x5	 x26:0x00000000  x5:0x7fff6084  x4=0x00000000
        2975000	       296	800020dc	01a49813	slli	x16,x9,0x1a	  x9:0x00000001 x16=0x04000000
        2985000	       297	800020e0	4151f893	andi	x17,x3,1045	  x3:0xa0000000 x17=0x00000000
        2995000	       298	800020e4	01a4f663	bgeu	x9,x26,800020f0	  x9:0x00000001 x26:0x00000000
        3005000	       299	00000000	00000013	addi	x0,x0,0	  x0:0x00000000
        3015000	       300	800020ec	00000013	addi	x0,x0,0	  x0:0x00000000
        3025000	       301	800020f0	c3193e97	auipc	x29,0xc3193	 x29=0x431950ec
        3035000	       302	800020f4	01f95213	srli	x4,x18,0x1f	 x18:0x000000e8  x4=0x00000000
        3045000	       303	800020f8	fdbc0713	addi	x14,x24,-37	 x24:0x00000001 x14=0xffffffdc
        3055000	       304	800020fc	5799a893	slti	x17,x19,1401	 x19:0x00000000 x17=0x00000001
        3065000	       305	80002100	0011ec63	bltu	x3,x1,80002118	  x3:0xa0000000  x1:0x00000000
        3075000	       306	80002104	00000013	addi	x0,x0,0	  x0:0x00000000
        3085000	       307	80002108	973b6213	ori	x4,x22,-1677	 x22:0x00000000  x4=0xfffff973
        3095000	       308	8000210c	003546b3	xor	x13,x10,x3	 x10:0xffffff98  x3:0xa0000000 x13=0x5fffff98
        3105000	       309	80002110	005656b3	srl	x13,x12,x5	 x12:0x00000000  x5:0x7fff6084 x13=0x00000000
        3115000	       310	80002114	f51abe13	sltiu	x28,x21,-175	 x21:0x00000000 x28=0x00000001
        3125000	       311	80002118	003b8333	add	x6,x23,x3	 x23:0x7c8bc2f3  x3:0xa0000000  x6=0x1c8bc2f3
        3135000	       312	8000211c	04b74663	blt	x14,x11,80002168	 x14:0xffffffdc x11:0x00000001
        3145000	       313	00000000	00000013	addi	x0,x0,0	  x0:0x00000000
        3155000	       314	80002164	00000013	addi	x0,x0,0	  x0:0x00000000
        3165000	       315	80002168	01eb5a63	bge	x22,x30,8000217c	 x22:0x00000000 x30:0x80009f18
        3175000	       316	00000000	00000013	addi	x0,x0,0	  x0:0x00000000
        3185000	       317	80002178	00000013	addi	x0,x0,0	  x0:0x00000000
        3195000	       318	8000217c	002143b3	xor	x7,x2,x2	  x2:0x00000000  x2:0x00000000  x7=0x00000000
        3205000	       319	80002180	004f2903	lw	x18,4(x30)	 x30:0x80009f18 x18=0x80003550 PA:0x80009f1c
        3215000	       320	80002184	45ecd6b7	lui	x13,0x45ecd	 x13=0x45ecd000
        3225000	       321	80002188	00c22413	slti	x8,x4,12	  x4:0xfffff973  x8=0x00000001
        3235000	       322	8000218c	00e32d33	slt	x26,x6,x14	  x6:0x1c8bc2f3 x14:0xffffffdc x26=0x00000000
        3245000	       323	80002190	034f0f13	addi	x30,x30,52	 x30:0x80009f18 x30=0x80009f4c
        3255000	       324	80002194	01b30133	add	x2,x6,x27	  x6:0x1c8bc2f3 x27:0xfffffc84  x2=0x1c8bbf77
        3265000	       325	80002198	ba3de793	ori	x15,x27,-1117	 x27:0xfffffc84 x15=0xffffffa7
        3275000	       326	8000219c	41495d33	sra	x26,x18,x20	 x18:0x80003550 x20:0x80009fc4 x26=0xf8000355
        3285000	       327	800021a0	624ce093	ori	x1,x25,1572	 x25:0x00000001  x1=0x00000625
        3295000	       328	800021a4	00190c13	addi	x24,x18,1	 x18:0x80003550 x24=0x80003551
        3305000	       329	800021a8	000c0c67	jalr	x24,x24,0	 x24:0x80003551 x24=0x800021a8
        3315000	       330	00000000	00000013	addi	x0,x0,0	  x0:0x00000000
        3325000	       331	80003550	00000013	addi	x0,x0,0	  x0:0x00000000
        3335000	       332	80003554	00092013	slti	x0,x18,0	 x18:0x80003550
        3345000	       333	80003558	01b167b3	or	x15,x2,x27	  x2:0x1c8bbf77 x27:0xfffffc84 x15=0xfffffff7
        3355000	       334	8000355c	01f2dd13	srli	x26,x5,0x1f	  x5:0x7fff6084 x26=0x00000000
        3365000	       335	80003560	0197b1b3	sltu	x3,x15,x25	 x15:0xfffffff7 x25:0x00000001  x3=0x00000000
        3375000	       336	80003564	002e2833	slt	x16,x28,x2	 x28:0x00000001  x2:0x1c8bbf77 x16=0x00000001
        3385000	       337	80003568	fffff597	auipc	x11,0xfffff	 x11=0x80002564
        3395000	       338	8000356c	fcc58593	addi	x11,x11,-52	 x11:0x80002564 x11=0x80002530
        3405000	       339	80003570	d8bb6693	ori	x13,x22,-629	 x22:0x00000000 x13=0xfffffd8b
        3415000	       340	80003574	c2258593	addi	x11,x11,-990	 x11:0x80002530 x11=0x80002152
        3425000	       341	80003578	01809193	slli	x3,x1,0x18	  x1:0x00000625  x3=0x25000000
        3435000	       342	8000357c	3df58967	jalr	x18,x11,991	 x11:0x80002152 x18=0x8000357c
        3445000	       343	00000000	00000013	addi	x0,x0,0	  x0:0x00000000
        3455000	       344	80002530	00000013	addi	x0,x0,0	  x0:0x00000000
        3465000	       345	80002534	01929f93	slli	x31,x5,0x19	  x5:0x7fff6084 x31=0x08000000
        3475000	       346	80002538	41f48533	sub	x10,x9,x31	  x9:0x00000001 x31:0x08000000 x10=0xf8000001
        3485000	       347	8000253c	01241633	sll	x12,x8,x18	  x8:0x00000001 x18:0x8000357c x12=0x10000000
        3495000	       348	80002540	6e01e313	ori	x6,x3,1760	  x3:0x25000000  x6=0x250006e0
        3505000	       349	80002544	fc4f0f13	addi	x30,x30,-60	 x30:0x80009f4c x30=0x80009f10
        3515000	       350	80002548	01aa0fb3	add	x31,x20,x26	 x20:0x80009fc4 x26:0x00000000 x31=0x80009fc4
        3525000	       351	8000254c	01595193	srli	x3,x18,0x15	 x18:0x8000357c  x3=0x00000400
        3535000	       352	80002550	416985b3	sub	x11,x19,x22	 x19:0x00000000 x22:0x00000000 x11=0x00000000
        3545000	       353	80002554	012f2223	sw	x18,4(x30)	 x30:0x80009f10 x18:0x8000357c PA:0x80009f14
        3555000	       354	80002558	401780b3	sub	x1,x15,x1	 x15:0xfffffff7  x1:0x00000625  x1=0xfffff9d2
        3565000	       355	8000255c	34773f93	sltiu	x31,x14,839	 x14:0xffffffdc x31=0x00000000
        3575000	       356	80002560	006562b3	or	x5,x10,x6	 x10:0xf8000001  x6:0x250006e0  x5=0xfd0006e1
        3585000	       357	80002564	72cc73b7	lui	x7,0x72cc7	  x7=0x72cc7000
        3595000	       358	80002568	bd1ab593	sltiu	x11,x21,-1071	 x21:0x00000000 x11=0x00000001
        3605000	       359	8000256c	178d0db7	lui	x27,0x178d0	 x27=0x178d0000
        3615000	       360	80002570	9aaa3317	auipc	x6,0x9aaa3	  x6=0x1aaa556c
        3625000	       361	80002574	716dc793	xori	x15,x27,1814	 x27:0x178d0000 x15=0x178d0716
        3635000	       362	80002578	5a200793	addi	x15,x0,1442	  x0:0x00000000 x15=0x000005a2
        3645000	       363	8000257c	0a90196f	jal	x18,8000257c	 x18=0x8000257c
        3655000	       364	00000000	00000013	addi	x0,x0,0	  x0:0x00000000
        3665000	       365	80003e20	00000013	addi	x0,x0,0	  x0:0x00000000
        3675000	       366	80003e24	00491813	slli	x16,x18,0x4	 x18:0x8000257c x16=0x000257c0
        3685000	       367	80003e28	00dbddb3	srl	x27,x23,x13	 x23:0x7c8bc2f3 x13:0xfffffd8b x27=0x000f9178
        3695000	       368	80003e2c	ff8f0f13	addi	x30,x30,-8	 x30:0x80009f10 x30=0x80009f08
        3705000	       369	80003e30	63176097	auipc	x1,0x63176	  x1=0xe3179e2c
        3715000	       370	80003e34	015f5993	srli	x19,x30,0x15	 x30:0x80009f08 x19=0x00000400
        3725000	       371	80003e38	012f2223	sw	x18,4(x30)	 x30:0x80009f08 x18:0x8000257c PA:0x80009f0c
        3735000	       372	80003e3c	40dc5893	srai	x17,x24,0xd	 x24:0x800021a8 x17=0xfffc0001
        3745000	       373	80003e40	74482693	slti	x13,x16,1860	 x16:0x000257c0 x13=0x00000000
        3755000	       374	80003e44	4051d693	srai	x13,x3,0x5	  x3:0x00000400 x13=0x00000020
        3765000	       375	80003e48	00005517	auipc	x10,0x5	 x10=0x80008e44
        3775000	       376	80003e4c	ab650513	addi	x10,x10,-1354	 x10:0x80008e44 x10=0x800088fa
        3785000	       377	80003e50	00000013	addi	x0,x0,0	  x0:0x00000000
        3795000	       378	80003e54	56151323	sh	x1,1382(x10)	 x10:0x800088fa  x1:0xe3179e2c PA:0x80008e60
        3805000	       379	80003e58	42950703	lb	x14,1065(x10)	 x10:0x800088fa x14=0x00000008 PA:0x80008d23
        3815000	       380	80003e5c	6df50083	lb	x1,1759(x10)	 x10:0x800088fa  x1=0xffffffc2 PA:0x80008fd9
        3825000	       381	80003e60	c60a3793	sltiu	x15,x20,-928	 x20:0x80009fc4 x15=0x00000001
        3835000	       382	80003e64	006e3eb3	sltu	x29,x28,x6	 x28:0x00000001  x6:0x1aaa556c x29=0x00000001
        3845000	       383	80003e68	bb642693	slti	x13,x8,-1098	  x8:0x00000001 x13=0x00000000
        3855000	       384	80003e6c	4155db13	srai	x22,x11,0x15	 x11:0x00000001 x22=0x00000000
        3865000	       385	80003e70	23d54d83	lbu	x27,573(x10)	 x10:0x800088fa x27=0x0000001c PA:0x80008b37
        3875000	       386	80003e74	003bd013	srli	x0,x23,0x3	 x23:0x7c8bc2f3
        3885000	       387	80003e78	00f42eb3	slt	x29,x8,x15	  x8:0x00000001 x15:0x00000001 x29=0x00000000
        3895000	       388	80003e7c	3bd50303	lb	x6,957(x10)	 x10:0x800088fa  x6=0xffffff9c PA:0x80008cb7
        3905000	       389	80003e80	f7470093	addi	x1,x14,-140	 x14:0x00000008  x1=0xffffff7c
        3915000	       390	80003e84	37052d23	sw	x16,890(x10)	 x10:0x800088fa x16:0x000257c0 PA:0x80008c74
        3925000	       391	80003e88	3c354403	lbu	x8,963(x10)	 x10:0x800088fa  x8=0x000000a6 PA:0x80008cbd
        3935000	       392	80003e8c	046507a3	sb	x6,79(x10)	 x10:0x800088fa  x6:0xffffff9c PA:0x80008949
        3945000	       393	80003e90	636508a3	sb	x22,1585(x10)	 x10:0x800088fa x22:0x00000000 PA:0x80008f2b
        3955000	       394	80003e94	18f50c03	lb	x24,399(x10)	 x10:0x800088fa x24=0x00000072 PA:0x80008a89
        3965000	       395	80003e98	42550b23	sb	x5,1078(x10)	 x10:0x800088fa  x5:0xfd0006e1 PA:0x80008d30
        3975000	       396	80003e9c	01459c33	sll	x24,x11,x20	 x11:0x00000001 x20:0x80009fc4 x24=0x00000010
        3985000	       397	80003ea0	23b50103	lb	x2,571(x10)	 x10:0x800088fa  x2=0x0000001e PA:0x80008b35
        3995000	       398	80003ea4	012787b3	add	x15,x15,x18	 x15:0x00000001 x18:0x8000257c x15=0x8000257d
        4005000	       399	80003ea8	8821e293	ori	x5,x3,-1918	  x3:0x00000400  x5=0xfffffc82
        4015000	       400	80003eac	40b65eb3	sra	x29,x12,x11	 x12:0x10000000 x11:0x00000001 x29=0x08000000
        4025000	       401	80003eb0	20754f83	lbu	x31,519(x10)	 x10:0x800088fa x31=0x000000ea PA:0x80008b01
        4035000	       402	80003eb4	408d5913	srai	x18,x26,0x8	 x26:0x00000000 x18=0x00000000
        4045000	       403	80003eb8	fce505a3	sb	x14,-53(x10)	 x10:0x800088fa x14:0x00000008 PA:0x800088c5
        4055000	       404	80003ebc	26caf093	andi	x1,x21,620	 x21:0x00000000  x1=0x00000000
        4065000	       405	80003ec0	01ea08b3	add	x17,x20,x30	 x20:0x80009fc4 x30:0x80009f08 x17=0x00013ecc
        4075000	       406	80003ec4	a835c593	xori	x11,x11,-1405	 x11:0x00000001 x11=0xfffffa82
        4085000	       407	80003ec8	3e854103	lbu	x2,1000(x10)	 x10:0x800088fa  x2=0x000000c9 PA:0x80008ce2
        4095000	       408	80003ecc	53c50fa3	sb	x28,1343(x10)	 x10:0x800088fa x28:0x00000001 PA:0x80008e39
        4105000	       409	80003ed0	8eb69b37	lui	x22,0x8eb69	 x22=0x8eb69000
        4115000	       410	80003ed4	0ae53213	sltiu	x4,x10,174	 x10:0x800088fa  x4=0x00000000
        4125000	       411	80003ed8	4ec51983	lh	x19,1260(x10)	 x10:0x800088fa x19=0xffffcccd PA:0x80008de6
        4135000	       412	80003edc	00dcc633	xor	x12,x25,x13	 x25:0x00000001 x13:0x00000000 x12=0x00000001
        4145000	       413	80003ee0	41d50c83	lb	x25,1053(x10)	 x10:0x800088fa x25=0xfffffffc PA:0x80008d17
        4155000	       414	80003ee4	00005197	auipc	x3,0x5	  x3=0x80008ee0
        4165000	       415	80003ee8	80c18193	addi	x3,x3,-2036	  x3:0x80008ee0  x3=0x800086ec
        4175000	       416	80003eec	4030d833	sra	x16,x1,x3	  x1:0x00000000  x3:0x800086ec x16=0x00000000
        4185000	       417	80003ef0	d261c703	lbu	x14,-730(x3)	  x3:0x800086ec x14=0x000000c9 PA:0x80008412
        4195000	       418	00000000	00000013	addi	x0,x0,0	  x0:0x00000000
        4205000	       419	80003ef4	dce00293	addi	x5,x0,-562	  x0:0x00000000  x5=0xfffffdce
        4215000	       420	80003ef8	017c2333	slt	x6,x24,x23	 x24:0x00000010 x23:0x7c8bc2f3  x6=0x00000001
        4225000	       421	80003efc	aa518583	lb	x11,-1371(x3)	  x3:0x800086ec x11=0x0000004a PA:0x80008191
        4235000	       422	80003f00	e3118223	sb	x17,-476(x3)	  x3:0x800086ec x17:0x00013ecc PA:0x80008510
        4245000	       423	80003f04	bf01c283	lbu	x5,-1040(x3)	  x3:0x800086ec  x5=0x00000097 PA:0x800082dc
        4255000	       424	80003f08	0b318783	lb	x15,179(x3)	  x3:0x800086ec x15=0x00000054 PA:0x8000879f
        4265000	       425	80003f0c	f6e19603	lh	x12,-146(x3)	  x3:0x800086ec x12=0x00001011 PA:0x8000865a
        4275000	       426	80003f10	00101813	slli	x16,x0,0x1	  x0:0x00000000 x16=0x00000000
        4285000	       427	80003f14	a9118103	lb	x2,-1391(x3)	  x3:0x800086ec  x2=0x00000036 PA:0x8000817d
        4295000	       428	80003f18	4419a493	slti	x9,x19,1089	 x19:0xffffcccd  x9=0x00000001
        4305000	       429	80003f1c	ac419c83	lh	x25,-1340(x3)	  x3:0x800086ec x25=0x00006a6b PA:0x800081b0
        4315000	       430	80003f20	c6718fa3	sb	x7,-897(x3)	  x3:0x800086ec  x7:0x72cc7000 PA:0x8000836b
        4325000	       431	80003f24	e5318a83	lb	x21,-429(x3)	  x3:0x800086ec x21=0xfffffff4 PA:0x8000853f
        4335000	       432	80003f28	09b18523	sb	x27,138(x3)	  x3:0x800086ec x27:0x0000001c PA:0x80008776
        4345000	       433	80003f2c	a031cb03	lbu	x22,-1533(x3)	  x3:0x800086ec x22=0x000000a4 PA:0x800080ef
        4355000	       434	80003f30	f771ce03	lbu	x28,-137(x3)	  x3:0x800086ec x28=0x00000018 PA:0x80008663
        4365000	       435	80003f34	40165c33	sra	x24,x12,x1	 x12:0x00001011  x1:0x00000000 x24=0x00001011
        4375000	       436	80003f38	e2518e03	lb	x28,-475(x3)	  x3:0x800086ec x28=0xffffffca PA:0x80008511
        4385000	       437	80003f3c	ddf18983	lb	x19,-545(x3)	  x3:0x800086ec x19=0xffffff80 PA:0x800084cb
        4395000	       438	80003f40	0082e2b3	or	x5,x5,x8	  x5:0x00000097  x8:0x000000a6  x5=0x000000b7
        4405000	       439	80003f44	01539c33	sll	x24,x7,x21	  x7:0x72cc7000 x21:0xfffffff4 x24=0x00000000
        4415000	       440	80003f48	110181a3	sb	x16,259(x3)	  x3:0x800086ec x16:0x00000000 PA:0x800087ef
        4425000	       441	80003f4c	05b1c683	lbu	x13,91(x3)	  x3:0x800086ec x13=0x000000fc PA:0x80008747
        4435000	       442	80003f50	df71c883	lbu	x17,-521(x3)	  x3:0x800086ec x17=0x00000098 PA:0x800084e3
        4445000	       443	80003f54	41d553b3	sra	x7,x10,x29	 x10:0x800088fa x29:0x08000000  x7=0x800088fa
        4455000	       444	80003f58	abf19623	sh	x31,-1364(x3)	  x3:0x800086ec x31:0x000000ea PA:0x80008198
        4465000	       445	80003f5c	33c8d3b7	lui	x7,0x33c8d	  x7=0x33c8d000
        4475000	       446	80003f60	cf01c383	lbu	x7,-784(x3)	  x3:0x800086ec  x7=0x00000097 PA:0x800083dc
        4485000	       447	80003f64	01becfb3	xor	x31,x29,x27	 x29:0x08000000 x27:0x0000001c x31=0x0800001c
        4495000	       448	80003f68	406156b3	sra	x13,x2,x6	  x2:0x00000036  x6:0x00000001 x13=0x0000001b
        4505000	       449	80003f6c	11c1d903	lhu	x18,284(x3)	  x3:0x800086ec x18=0x0000c2c3 PA:0x80008808
        4515000	       450	80003f70	3c9e7497	auipc	x9,0x3c9e7	  x9=0xbc9eaf6c
        4525000	       451	80003f74	d8019883	lh	x17,-640(x3)	  x3:0x800086ec x17=0x00002627 PA:0x8000846c
        4535000	       452	80003f78	c8f18603	lb	x12,-881(x3)	  x3:0x800086ec x12=0x00000030 PA:0x8000837b
        4545000	       453	80003f7c	96b1c703	lbu	x14,-1685(x3)	  x3:0x800086ec x14=0x0000000c PA:0x80008057
        4555000	       454	80003f80	00005117	auipc	x2,0x5	  x2=0x80008f7c
        4565000	       455	80003f84	ca310113	addi	x2,x2,-861	  x2:0x80008f7c  x2=0x80008c1f
        4575000	       456	80003f88	04e14003	lbu	x0,78(x2)	  x2:0x80008c1f PA:0x80008c6d
        4585000	       457	80003f8c	07310e03	lb	x28,115(x2)	  x2:0x80008c1f x28=0x00000079 PA:0x80008c92
        4595000	       458	80003f90	c71f7393	andi	x7,x30,-911	 x30:0x80009f08  x7=0x80009c00
        4605000	       459	80003f94	f6f10e23	sb	x15,-132(x2)	  x2:0x80008c1f x15:0x00000054 PA:0x80008b9b
        4615000	       460	80003f98	f5311883	lh	x17,-173(x2)	  x2:0x80008c1f x17=0x00005859 PA:0x80008b72
        4625000	       461	80003f9c	405d8e33	sub	x28,x27,x5	 x27:0x0000001c  x5:0x000000b7 x28=0xffffff65
        4635000	       462	80003fa0	03d10f23	sb	x29,62(x2)	  x2:0x80008c1f x29:0x08000000 PA:0x80008c5d
        4645000	       463	80003fa4	010841b3	xor	x3,x16,x16	 x16:0x00000000 x16:0x00000000  x3=0x00000000
        4655000	       464	80003fa8	f3f15583	lhu	x11,-193(x2)	  x2:0x80008c1f x11=0x00004445 PA:0x80008b5e
        4665000	       465	80003fac	72f7b893	sltiu	x17,x15,1839	 x15:0x00000054 x17=0x00000001
        4675000	       466	80003fb0	01d65913	srli	x18,x12,0x1d	 x12:0x00000030 x18=0x00000000
        4685000	       467	80003fb4	0082b0b3	sltu	x1,x5,x8	  x5:0x000000b7  x8:0x000000a6  x1=0x00000000
        4695000	       468	80003fb8	16b56693	ori	x13,x10,363	 x10:0x800088fa x13=0x800089fb
        4705000	       469	80003fbc	f5210483	lb	x9,-174(x2)	  x2:0x80008c1f  x9=0x0000005a PA:0x80008b71
        4715000	       470	80003fc0	fef10303	lb	x6,-17(x2)	  x2:0x80008c1f  x6=0xfffffff5 PA:0x80008c0e
        4725000	       471	00000000	00000013	addi	x0,x0,0	  x0:0x00000000
        4735000	       472	80003fc4	04683213	sltiu	x4,x16,70	 x16:0x00000000  x4=0x00000001
        4745000	       473	80003fc8	042116a3	sh	x2,77(x2)	  x2:0x80008c1f  x2:0x80008c1f PA:0x80008c6c
        4755000	       474	80003fcc	f4014203	lbu	x4,-192(x2)	  x2:0x80008c1f  x4=0x00000044 PA:0x80008b5f
        4765000	       475	80003fd0	003f7733	and	x14,x30,x3	 x30:0x80009f08  x3:0x00000000 x14=0x00000000
        4775000	       476	80003fd4	71f36613	ori	x12,x6,1823	  x6:0xfffffff5 x12=0xffffffff
        4785000	       477	80003fd8	971c01b7	lui	x3,0x971c0	  x3=0x971c0000
        4795000	       478	80003fdc	41265833	sra	x16,x12,x18	 x12:0xffffffff x18:0x00000000 x16=0xffffffff
        4805000	       479	80003fe0	011fb5b3	sltu	x11,x31,x17	 x31:0x0800001c x17:0x00000001 x11=0x00000000
        4815000	       480	80003fe4	05214503	lbu	x10,82(x2)	  x2:0x80008c1f x10=0x0000005a PA:0x80008c71
        4825000	       481	80003fe8	dcf48493	addi	x9,x9,-561	  x9:0x0000005a  x9=0xfffffe29
        4835000	       482	80003fec	f5f10803	lb	x16,-161(x2)	  x2:0x80008c1f x16=0x00000065 PA:0x80008b7e
        4845000	       483	80003ff0	001da633	slt	x12,x27,x1	 x27:0x0000001c  x1:0x00000000 x12=0x00000000
        4855000	       484	80003ff4	08f11e83	lh	x29,143(x2)	  x2:0x80008c1f x29=0xffff9495 PA:0x80008cae
        4865000	       485	80003ff8	00a10383	lb	x7,10(x2)	  x2:0x80008c1f  x7=0x00000012 PA:0x80008c29
        4875000	       486	80003ffc	00005117	auipc	x2,0x5	  x2=0x80008ff8
        4885000	       487	80004000	f0310113	addi	x2,x2,-253	  x2:0x80008ff8  x2=0x80008efb
        4895000	       488	80004004	003a1b13	slli	x22,x20,0x3	 x20:0x80009fc4 x22=0x0004fe20
        4905000	       489	80004008	01710323	sb	x23,6(x2)	  x2:0x80008efb x23:0x7c8bc2f3 PA:0x80008f01
        4915000	       490	8000400c	8670f513	andi	x10,x1,-1945	  x1:0x00000000 x10=0x00000000
        4925000	       491	80004010	ff512e03	lw	x28,-11(x2)	  x2:0x80008efb x28=0xd8d9dadb PA:0x80008ef0
        4935000	       492	80004014	41325233	sra	x4,x4,x19	  x4:0x00000044 x19:0xffffff80  x4=0x00000044
        4945000	       493	80004018	ff210f83	lb	x31,-14(x2)	  x2:0x80008efb x31=0xffffffd6 PA:0x80008eed
        4955000	       494	8000401c	ffd10703	lb	x14,-3(x2)	  x2:0x80008efb x14=0xffffffe3 PA:0x80008ef8
        4965000	       495	80004020	001144b3	xor	x9,x2,x1	  x2:0x80008efb  x1:0x00000000  x9=0x80008efb
        4975000	       496	80004024	614a4913	xori	x18,x20,1556	 x20:0x80009fc4 x18=0x800099d0
        4985000	       497	80004028	7a3a1017	auipc	x0,0x7a3a1	
        4995000	       498	8000402c	3471ad13	slti	x26,x3,839	  x3:0x971c0000 x26=0x00000001
        5005000	       499	80004030	01f116a3	sh	x31,13(x2)	  x2:0x80008efb x31:0xffffffd6 PA:0x80008f08
        5015000	       500	80004034	41b60433	sub	x8,x12,x27	 x12:0x00000000 x27:0x0000001c  x8=0xffffffe4
        5025000	       501	80004038	01210623	sb	x18,12(x2)	  x2:0x80008efb x18:0x800099d0 PA:0x80008f07
        5035000	       502	8000403c	01af2333	slt	x6,x30,x26	 x30:0x80009f08 x26:0x00000001  x6=0x00000001
        5045000	       503	80004040	fec10c23	sb	x12,-8(x2)	  x2:0x80008efb x12:0x00000000 PA:0x80008ef3
        5055000	       504	80004044	00000013	addi	x0,x0,0	  x0:0x00000000
        5065000	       505	80004048	00010523	sb	x0,10(x2)	  x2:0x80008efb  x0:0x00000000 PA:0x80008f05
        5075000	       506	8000404c	001adfb3	srl	x31,x21,x1	 x21:0xfffffff4  x1:0x00000000 x31=0xfffffff4
        5085000	       507	80004050	ff010aa3	sb	x16,-11(x2)	  x2:0x80008efb x16:0x00000065 PA:0x80008ef0
        5095000	       508	80004054	00c10323	sb	x12,6(x2)	  x2:0x80008efb x12:0x00000000 PA:0x80008f01
        5105000	       509	80004058	c6adb393	sltiu	x7,x27,-918	 x27:0x0000001c  x7=0x00000001
        5115000	       510	8000405c	00e14503	lbu	x10,14(x2)	  x2:0x80008efb x10=0x000000ff PA:0x80008f09
        5125000	       511	80004060	00614283	lbu	x5,6(x2)	  x2:0x80008efb  x5=0x00000000 PA:0x80008f01
        5135000	       512	80004064	fee108a3	sb	x14,-15(x2)	  x2:0x80008efb x14:0xffffffe3 PA:0x80008eec
        5145000	       513	80004068	00512403	lw	x8,5(x2)	  x2:0x80008efb  x8=0xe8e900eb PA:0x80008f00
        5155000	       514	8000406c	fe310ca3	sb	x3,-7(x2)	  x2:0x80008efb  x3:0x971c0000 PA:0x80008ef4
        5165000	       515	80004070	ffe14303	lbu	x6,-2(x2)	  x2:0x80008efb  x6=0x000000e2 PA:0x80008ef9
        5175000	       516	80004074	018107a3	sb	x24,15(x2)	  x2:0x80008efb x24:0x00000000 PA:0x80008f0a
        5185000	       517	80004078	feb10b23	sb	x11,-10(x2)	  x2:0x80008efb x11:0x00000000 PA:0x80008ef1
        5195000	       518	8000407c	1a4808b7	lui	x17,0x1a480	 x17=0x1a480000
        5205000	       519	80004080	ff914e83	lbu	x29,-7(x2)	  x2:0x80008efb x29=0x00000000 PA:0x80008ef4
        5215000	       520	80004084	00005c97	auipc	x25,0x5	 x25=0x80009080
        5225000	       521	80004088	e8dc8c93	addi	x25,x25,-371	 x25:0x80009080 x25=0x80008f0d
        5235000	       522	8000408c	12798613	addi	x12,x19,295	 x19:0xffffff80 x12=0x000000a7
        5245000	       523	80004090	000ccf83	lbu	x31,0(x25)	 x25:0x80008f0d x31=0x000000f6 PA:0x80008f0d
        5255000	       524	80004094	ff8c8703	lb	x14,-8(x25)	 x25:0x80008f0d x14=0x00000000 PA:0x80008f05
        5265000	       525	80004098	ffcc8a23	sb	x28,-12(x25)	 x25:0x80008f0d x28:0xd8d9dadb PA:0x80008f01
        5275000	       526	8000409c	008a53b3	srl	x7,x20,x8	 x20:0x80009fc4  x8:0xe8e900eb  x7=0x00100013
        5285000	       527	800040a0	d9cc6fb7	lui	x31,0xd9cc6	 x31=0xd9cc6000
        5295000	       528	800040a4	000cc683	lbu	x13,0(x25)	 x25:0x80008f0d x13=0x000000f6 PA:0x80008f0d
        5305000	       529	00000000	00000013	addi	x0,x0,0	  x0:0x00000000
        5315000	       530	800040a8	0176aeb3	slt	x29,x13,x23	 x13:0x000000f6 x23:0x7c8bc2f3 x29=0x00000001
        5325000	       531	800040ac	a3d54f93	xori	x31,x10,-1475	 x10:0x000000ff x31=0xfffffac2
        5335000	       532	800040b0	e998e393	ori	x7,x17,-359	 x17:0x1a480000  x7=0xfffffe99
        5345000	       533	800040b4	00d97ab3	and	x21,x18,x13	 x18:0x800099d0 x13:0x000000f6 x21=0x000000d0
        5355000	       534	800040b8	fe2c9ea3	sh	x2,-3(x25)	 x25:0x80008f0d  x2:0x80008efb PA:0x80008f0a
        5365000	       535	800040bc	ff9c98a3	sh	x25,-15(x25)	 x25:0x80008f0d x25:0x80008f0d PA:0x80008efe
        5375000	       536	800040c0	ddff4337	lui	x6,0xddff4	  x6=0xddff4000
        5385000	       537	800040c4	01a1d3b3	srl	x7,x3,x26	  x3:0x971c0000 x26:0x00000001  x7=0x4b8e0000
        5395000	       538	800040c8	00e09db3	sll	x27,x1,x14	  x1:0x00000000 x14:0x00000000 x27=0x00000000
        5405000	       539	800040cc	013c8423	sb	x19,8(x25)	 x25:0x80008f0d x19:0xffffff80 PA:0x80008f15
        5415000	       540	800040d0	65c64293	xori	x5,x12,1628	 x12:0x000000a7  x5=0x000006fb
        5425000	       541	800040d4	4075d593	srai	x11,x11,0x7	 x11:0x00000000 x11=0x00000000
        5435000	       542	800040d8	ff0cc803	lbu	x16,-16(x25)	 x25:0x80008f0d x16=0x000000e6 PA:0x80008efd
        5445000	       543	800040dc	00cc8d83	lb	x27,12(x25)	 x25:0x80008f0d x27=0x00000002 PA:0x80008f19
        5455000	       544	800040e0	f2848117	auipc	x2,0xf2848	  x2=0x7284c0dc
        5465000	       545	800040e4	40ccd8b3	sra	x17,x25,x12	 x25:0x80008f0d x12:0x000000a7 x17=0xff00011e
        5475000	       546	800040e8	011841b3	xor	x3,x16,x17	 x16:0x000000e6 x17:0xff00011e  x3=0xff0001f8
        5485000	       547	800040ec	0294c893	xori	x17,x9,41	  x9:0x80008efb x17=0x80008ed2
        5495000	       548	800040f0	415a5033	sra	x0,x20,x21	 x20:0x80009fc4 x21:0x000000d0
        5505000	       549	800040f4	405cd033	sra	x0,x25,x5	 x25:0x80008f0d  x5:0x000006fb
        5515000	       550	800040f8	01fcc9b3	xor	x19,x25,x31	 x25:0x80008f0d x31:0xfffffac2 x19=0x7fff75cf
        5525000	       551	800040fc	e2eec313	xori	x6,x29,-466	 x29:0x00000001  x6=0xfffffe2f
        5535000	       552	80004100	70bbf613	andi	x12,x23,1803	 x23:0x7c8bc2f3 x12=0x00000203
        5545000	       553	80004104	ccce4113	xori	x2,x28,-820	 x28:0xd8d9dadb  x2=0x27262617
        5555000	       554	80004108	ff9c8783	lb	x15,-7(x25)	 x25:0x80008f0d x15=0xffffffed PA:0x80008f06
        5565000	       555	8000410c	ce254793	xori	x15,x10,-798	 x10:0x000000ff x15=0xfffffc1d
        5575000	       556	80004110	7e231317	auipc	x6,0x7e231	  x6=0xfe23510c
        5585000	       557	80004114	ff7c8783	lb	x15,-9(x25)	 x25:0x80008f0d x15=0xffffffef PA:0x80008f04
        5595000	       558	80004118	002a1513	slli	x10,x20,0x2	 x20:0x80009fc4 x10=0x00027f10
        5605000	       559	8000411c	00bca3a3	sw	x11,7(x25)	 x25:0x80008f0d x11:0x00000000 PA:0x80008f14
        5615000	       560	80004120	ffbc98a3	sh	x27,-15(x25)	 x25:0x80008f0d x27:0x00000002 PA:0x80008efe
        5625000	       561	80004124	003ca183	lw	x3,3(x25)	 x25:0x80008f0d  x3=0xf8f9fafb PA:0x80008f10
        5635000	       562	80004128	005c9583	lh	x11,5(x25)	 x25:0x80008f0d x11=0xfffff8f9 PA:0x80008f12
        5645000	       563	8000412c	00ac8183	lb	x3,10(x25)	 x25:0x80008f0d  x3=0x00000000 PA:0x80008f17
        5655000	       564	80004130	00005117	auipc	x2,0x5	  x2=0x8000912c
        5665000	       565	80004134	c7310113	addi	x2,x2,-909	  x2:0x8000912c  x2=0x80008d9f
        5675000	       566	80004138	1b010603	lb	x12,432(x2)	  x2:0x80008d9f x12=0x00000034 PA:0x80008f4f
        5685000	       567	8000413c	5bc6a613	slti	x12,x13,1468	 x13:0x000000f6 x12=0x00000001
        5695000	       568	80004140	ade14883	lbu	x17,-1314(x2)	  x2:0x80008d9f x17=0x00000066 PA:0x8000887d
        5705000	       569	80004144	e5f11b03	lh	x22,-417(x2)	  x2:0x80008d9f x22=0xffffe4e5 PA:0x80008bfe
        5715000	       570	80004148	01e19813	slli	x16,x3,0x1e	  x3:0x00000000 x16=0x00000000
        5725000	       571	8000414c	cf914c83	lbu	x25,-775(x2)	  x2:0x80008d9f x25=0x00000083 PA:0x80008a98
        5735000	       572	80004150	0136aab3	slt	x21,x13,x19	 x13:0x000000f6 x19:0x7fff75cf x21=0x00000001
        5745000	       573	80004154	d8aeab13	slti	x22,x29,-630	 x29:0x00000001 x22=0x00000000
        5755000	       574	80004158	fc010823	sb	x0,-48(x2)	  x2:0x80008d9f  x0:0x00000000 PA:0x80008d6f
        5765000	       575	8000415c	01c43833	sltu	x16,x8,x28	  x8:0xe8e900eb x28:0xd8d9dadb x16=0x00000000
        5775000	       576	80004160	01007eb3	and	x29,x0,x16	  x0:0x00000000 x16:0x00000000 x29=0x00000000
        5785000	       577	80004164	08f10da3	sb	x15,155(x2)	  x2:0x80008d9f x15:0xffffffef PA:0x80008e3a
        5795000	       578	80004168	04715d83	lhu	x27,71(x2)	  x2:0x80008d9f x27=0x0000cccd PA:0x80008de6
        5805000	       579	8000416c	0179a333	slt	x6,x19,x23	 x19:0x7fff75cf x23:0x7c8bc2f3  x6=0x00000000
        5815000	       580	80004170	c0e10623	sb	x14,-1012(x2)	  x2:0x80008d9f x14:0x00000000 PA:0x800089ab
        5825000	       581	80004174	1ab10783	lb	x15,427(x2)	  x2:0x80008d9f x15=0x00000031 PA:0x80008f4a
        5835000	       582	80004178	01319333	sll	x6,x3,x19	  x3:0x00000000 x19:0x7fff75cf  x6=0x00000000
        5845000	       583	8000417c	40108333	sub	x6,x1,x1	  x1:0x00000000  x1:0x00000000  x6=0x00000000
        5855000	       584	80004180	b2f10803	lb	x16,-1233(x2)	  x2:0x80008d9f x16=0xffffffb5 PA:0x800088ce
        5865000	       585	80004184	41c55513	srai	x10,x10,0x1c	 x10:0x00027f10 x10=0x00000000
        5875000	       586	80004188	21b11903	lh	x18,539(x2)	  x2:0x80008d9f x18=0xffffa0a1 PA:0x80008fba
        5885000	       587	8000418c	f1310083	lb	x1,-237(x2)	  x2:0x80008d9f  x1=0xffffff99 PA:0x80008cb2
        5895000	       588	80004190	1d110523	sb	x17,458(x2)	  x2:0x80008d9f x17:0x00000066 PA:0x80008f69
        5905000	       589	80004194	00005117	auipc	x2,0x5	  x2=0x80009190
        5915000	       590	80004198	87310113	addi	x2,x2,-1933	  x2:0x80009190  x2=0x80008a03
        5925000	       591	8000419c	01510423	sb	x21,8(x2)	  x2:0x80008a03 x21:0x00000001 PA:0x80008a0b
        5935000	       592	800041a0	00000013	addi	x0,x0,0	  x0:0x00000000
        5945000	       593	800041a4	00114203	lbu	x4,1(x2)	  x2:0x80008a03  x4=0x000000ef PA:0x80008a04
        5955000	       594	800041a8	5edbf593	andi	x11,x23,1517	 x23:0x7c8bc2f3 x11=0x000000e1
        5965000	       595	800041ac	01210423	sb	x18,8(x2)	  x2:0x80008a03 x18:0xffffa0a1 PA:0x80008a0b
        5975000	       596	800041b0	00910623	sb	x9,12(x2)	  x2:0x80008a03  x9:0x80008efb PA:0x80008a0f
        5985000	       597	800041b4	96ad0993	addi	x19,x26,-1686	 x26:0x00000001 x19=0xfffff96b
        5995000	       598	800041b8	ff014183	lbu	x3,-16(x2)	  x2:0x80008a03  x3=0x000000d8 PA:0x800089f3
        6005000	       599	800041bc	0240ec93	ori	x25,x1,36	  x1:0xffffff99 x25=0xffffffbd
        6015000	       600	800041c0	007100a3	sb	x7,1(x2)	  x2:0x80008a03  x7:0x4b8e0000 PA:0x80008a04
        6025000	       601	800041c4	00000013	addi	x0,x0,0	  x0:0x00000000
        6035000	       602	800041c8	ff610283	lb	x5,-10(x2)	  x2:0x80008a03  x5=0xffffffe2 PA:0x800089f9
        6045000	       603	800041cc	01b10123	sb	x27,2(x2)	  x2:0x80008a03 x27:0x0000cccd PA:0x80008a05
        6055000	       604	800041d0	fe710ea3	sb	x7,-3(x2)	  x2:0x80008a03  x7:0x4b8e0000 PA:0x80008a00
        6065000	       605	800041d4	00910723	sb	x9,14(x2)	  x2:0x80008a03  x9:0x80008efb PA:0x80008a11
        6075000	       606	800041d8	00010223	sb	x0,4(x2)	  x2:0x80008a03  x0:0x00000000 PA:0x80008a07
        6085000	       607	800041dc	01633633	sltu	x12,x6,x22	  x6:0x00000000 x22:0x00000000 x12=0x00000000
        6095000	       608	800041e0	9822f993	andi	x19,x5,-1662	  x5:0xffffffe2 x19=0xfffff982
        6105000	       609	800041e4	ff510c03	lb	x24,-11(x2)	  x2:0x80008a03 x24=0xffffffe3 PA:0x800089f8
        6115000	       610	800041e8	ff115403	lhu	x8,-15(x2)	  x2:0x80008a03  x8=0x0000dedf PA:0x800089f4
        6125000	       611	800041ec	012f95b3	sll	x11,x31,x18	 x31:0xfffffac2 x18:0xffffa0a1 x11=0xfffff584
        6135000	       612	800041f0	400e0833	sub	x16,x28,x0	 x28:0xd8d9dadb  x0:0x00000000 x16=0xd8d9dadb
        6145000	       613	800041f4	00e14383	lbu	x7,14(x2)	  x2:0x80008a03  x7=0x000000fb PA:0x80008a11
        6155000	       614	800041f8	ff410e83	lb	x29,-12(x2)	  x2:0x80008a03 x29=0xffffffdc PA:0x800089f7
        6165000	       615	800041fc	00110123	sb	x1,2(x2)	  x2:0x80008a03  x1:0xffffff99 PA:0x80008a05
        6175000	       616	80004200	3370ee93	ori	x29,x1,823	  x1:0xffffff99 x29=0xffffffbf
        6185000	       617	80004204	00814883	lbu	x17,8(x2)	  x2:0x80008a03 x17=0x000000a1 PA:0x80008a0b
        6195000	       618	80004208	00414283	lbu	x5,4(x2)	  x2:0x80008a03  x5=0x00000000 PA:0x80008a07
        6205000	       619	8000420c	6269ff93	andi	x31,x19,1574	 x19:0xfffff982 x31=0x00000002
        6215000	       620	80004210	00b15803	lhu	x16,11(x2)	  x2:0x80008a03 x16=0x0000fbf5 PA:0x80008a0e
        6225000	       621	00000000	00000013	addi	x0,x0,0	  x0:0x00000000
        6235000	       622	80004214	41f85b33	sra	x22,x16,x31	 x16:0x0000fbf5 x31:0x00000002 x22=0x00003efd
        6245000	       623	80004218	ff0128a3	sw	x16,-15(x2)	  x2:0x80008a03 x16:0x0000fbf5 PA:0x800089f4
        6255000	       624	8000421c	008b0333	add	x6,x22,x8	 x22:0x00003efd  x8:0x0000dedf  x6=0x00011ddc
        6265000	       625	80004220	ffc10c83	lb	x25,-4(x2)	  x2:0x80008a03 x25=0xffffffe4 PA:0x800089ff
        6275000	       626	80004224	00004117	auipc	x2,0x4	  x2=0x80008220
        6285000	       627	80004228	52f10113	addi	x2,x2,1327	  x2:0x80008220  x2=0x8000874f
        6295000	       628	8000422c	0047e433	or	x8,x15,x4	 x15:0x00000031  x4:0x000000ef  x8=0x000000ff
        6305000	       629	80004230	00ba1eb3	sll	x29,x20,x11	 x20:0x80009fc4 x11:0xfffff584 x29=0x0009fc40
        6315000	       630	80004234	090e6d93	ori	x27,x28,144	 x28:0xd8d9dadb x27=0xd8d9dadb
        6325000	       631	80004238	006e1db3	sll	x27,x28,x6	 x28:0xd8d9dadb  x6:0x00011ddc x27=0xb0000000
        6335000	       632	8000423c	98a10983	lb	x19,-1654(x2)	  x2:0x8000874f x19=0xffffff92 PA:0x800080d9
        6345000	       633	80004240	00105f93	srli	x31,x0,0x1	  x0:0x00000000 x31=0x00000000
        6355000	       634	80004244	5fc58e13	addi	x28,x11,1532	 x11:0xfffff584 x28=0xfffffb80
        6365000	       635	80004248	c7f10083	lb	x1,-897(x2)	  x2:0x8000874f  x1=0xffffff85 PA:0x800083ce
        6375000	       636	8000424c	0191df93	srli	x31,x3,0x19	  x3:0x000000d8 x31=0x00000000
        6385000	       637	80004250	006d68b3	or	x17,x26,x6	 x26:0x00000001  x6:0x00011ddc x17=0x00011ddd
        6395000	       638	80004254	aa010823	sb	x0,-1360(x2)	  x2:0x8000874f  x0:0x00000000 PA:0x800081ff
        6405000	       639	80004258	01b05e93	srli	x29,x0,0x1b	  x0:0x00000000 x29=0x00000000
        6415000	       640	8000425c	00dbc2b3	xor	x5,x23,x13	 x23:0x7c8bc2f3 x13:0x000000f6  x5=0x7c8bc205
        6425000	       641	80004260	a5f126a3	sw	x31,-1459(x2)	  x2:0x8000874f x31:0x00000000 PA:0x8000819c
        6435000	       642	80004264	ad614903	lbu	x18,-1322(x2)	  x2:0x8000874f x18=0x000000de PA:0x80008225
        6445000	       643	80004268	91c107a3	sb	x28,-1777(x2)	  x2:0x8000874f x28:0xfffffb80 PA:0x8000805e
        6455000	       644	8000426c	006e8033	add	x0,x29,x6	 x29:0x00000000  x6:0x00011ddc
        6465000	       645	80004270	e5d10b23	sb	x29,-426(x2)	  x2:0x8000874f x29:0x00000000 PA:0x800085a5
        6475000	       646	80004274	0c3101a3	sb	x3,195(x2)	  x2:0x8000874f  x3:0x000000d8 PA:0x80008812
        6485000	       647	80004278	00ed8ab3	add	x21,x27,x14	 x27:0xb0000000 x14:0x00000000 x21=0xb0000000
        6495000	       648	8000427c	010d5c33	srl	x24,x26,x16	 x26:0x00000001 x16:0x0000fbf5 x24=0x00000000
        6505000	       649	80004280	9a0ae337	lui	x6,0x9a0ae	  x6=0x9a0ae000
        6515000	       650	80004284	4152dab3	sra	x21,x5,x21	  x5:0x7c8bc205 x21:0xb0000000 x21=0x7c8bc205
        6525000	       651	80004288	9da10783	lb	x15,-1574(x2)	  x2:0x8000874f x15=0xffffffe2 PA:0x80008129
        6535000	       652	8000428c	09614703	lbu	x14,150(x2)	  x2:0x8000874f x14=0x0000009e PA:0x800087e5
        6545000	       653	80004290	01284db3	xor	x27,x16,x18	 x16:0x0000fbf5 x18:0x000000de x27=0x0000fb2b
        6555000	       654	80004294	af2100a3	sb	x18,-1311(x2)	  x2:0x8000874f x18:0x000000de PA:0x80008230
        6565000	       655	80004298	06a10a83	lb	x21,106(x2)	  x2:0x8000874f x21=0x00000072 PA:0x800087b9
        6575000	       656	8000429c	f08101a3	sb	x8,-253(x2)	  x2:0x8000874f  x8:0x000000ff PA:0x80008652
        6585000	       657	800042a0	ba8103a3	sb	x8,-1113(x2)	  x2:0x8000874f  x8:0x000000ff PA:0x800082f6
        6595000	       658	800042a4	a1d15d03	lhu	x26,-1507(x2)	  x2:0x8000874f x26=0x00002627 PA:0x8000816c
        6605000	       659	00000000	00000013	addi	x0,x0,0	  x0:0x00000000
        6615000	       660	800042a8	018d7033	and	x0,x26,x24	 x26:0x00002627 x24:0x00000000
        6625000	       661	800042ac	b8214e83	lbu	x29,-1150(x2)	  x2:0x8000874f x29=0x0000008a PA:0x800082d1
        6635000	       662	800042b0	00004417	auipc	x8,0x4	  x8=0x800082ac
        6645000	       663	800042b4	fd840413	addi	x8,x8,-40	  x8:0x800082ac  x8=0x80008284
        6655000	       664	800042b8	f9740903	lb	x18,-105(x8)	  x8:0x80008284 x18=0xffffffd0 PA:0x8000821b
        6665000	       665	800042bc	0138f833	and	x16,x17,x19	 x17:0x00011ddd x19:0xffffff92 x16=0x00011d90
        6675000	       666	800042c0	fce40d83	lb	x27,-50(x8)	  x8:0x80008284 x27=0x00000009 PA:0x80008252
        6685000	       667	800042c4	f8a401a3	sb	x10,-125(x8)	  x8:0x80008284 x10:0x00000000 PA:0x80008207
        6695000	       668	800042c8	f5b40e23	sb	x27,-164(x8)	  x8:0x80008284 x27:0x00000009 PA:0x800081e0
        6705000	       669	800042cc	f7f40c83	lb	x25,-129(x8)	  x8:0x80008284 x25=0xffffffb8 PA:0x80008203
        6715000	       670	800042d0	f11a0893	addi	x17,x20,-239	 x20:0x80009fc4 x17=0x80009ed5
        6725000	       671	800042d4	f9b405a3	sb	x27,-117(x8)	  x8:0x80008284 x27:0x00000009 PA:0x8000820f
        6735000	       672	800042d8	41b802b3	sub	x5,x16,x27	 x16:0x00011d90 x27:0x00000009  x5=0x00011d87
        6745000	       673	800042dc	7c778a93	addi	x21,x15,1991	 x15:0xffffffe2 x21=0x000007a9
        6755000	       674	800042e0	fd4a6c93	ori	x25,x20,-44	 x20:0x80009fc4 x25=0xffffffd4
        6765000	       675	800042e4	01e45b03	lhu	x22,30(x8)	  x8:0x80008284 x22=0x00005859 PA:0x800082a2
        6775000	       676	800042e8	f5744983	lbu	x19,-169(x8)	  x8:0x80008284 x19=0x00000090 PA:0x800081db
        6785000	       677	800042ec	f6442203	lw	x4,-156(x8)	  x8:0x80008284  x4=0xa0a1a2a3 PA:0x800081e8
        6795000	       678	800042f0	73f50e97	auipc	x29,0x73f50	 x29=0xf3f542ec
        6805000	       679	800042f4	f3e40783	lb	x15,-194(x8)	  x8:0x80008284 x15=0x00000079 PA:0x800081c2
        6815000	       680	800042f8	cd01e893	ori	x17,x3,-816	  x3:0x000000d8 x17=0xfffffcd8
        6825000	       681	800042fc	9e22b713	sltiu	x14,x5,-1566	  x5:0x00011d87 x14=0x00000001
        6835000	       682	80004300	01791513	slli	x10,x18,0x17	 x18:0xffffffd0 x10=0xe8000000
        6845000	       683	80004304	8bb72893	slti	x17,x14,-1861	 x14:0x00000001 x17=0x00000000
        6855000	       684	80004308	01143db3	sltu	x27,x8,x17	  x8:0x80008284 x17:0x00000000 x27=0x00000000
        6865000	       685	8000430c	dad17837	lui	x16,0xdad17	 x16=0xdad17000
        6875000	       686	80004310	8078bf93	sltiu	x31,x17,-2041	 x17:0x00000000 x31=0x00000001
        6885000	       687	80004314	0125d513	srli	x10,x11,0x12	 x11:0xfffff584 x10=0x00003fff
        6895000	       688	80004318	08b40123	sb	x11,130(x8)	  x8:0x80008284 x11:0xfffff584 PA:0x80008306
        6905000	       689	8000431c	017801b3	add	x3,x16,x23	 x16:0xdad17000 x23:0x7c8bc2f3  x3=0x575d32f3
        6915000	       690	80004320	05b44c83	lbu	x25,91(x8)	  x8:0x80008284 x25=0x00000094 PA:0x800082df
        6925000	       691	80004324	08041703	lh	x14,128(x8)	  x8:0x80008284 x14=0xffffbebf PA:0x80008304
        6935000	       692	80004328	01d40003	lb	x0,29(x8)	  x8:0x80008284 PA:0x800082a1
        6945000	       693	8000432c	16d52393	slti	x7,x10,365	 x10:0x00003fff  x7=0x00000000
        6955000	       694	80004330	fea40723	sb	x10,-18(x8)	  x8:0x80008284 x10:0x00003fff PA:0x80008272
        6965000	       695	80004334	0f8401a3	sb	x24,227(x8)	  x8:0x80008284 x24:0x00000000 PA:0x80008367
        6975000	       696	80004338	f9d44c03	lbu	x24,-99(x8)	  x8:0x80008284 x24=0x000000da PA:0x80008221
        6985000	       697	8000433c	406e5cb3	sra	x25,x28,x6	 x28:0xfffffb80  x6:0x9a0ae000 x25=0xfffffb80
        6995000	       698	80004340	4785b213	sltiu	x4,x11,1144	 x11:0xfffff584  x4=0x00000000
        7005000	       699	80004344	000437b3	sltu	x15,x8,x0	  x8:0x80008284  x0:0x00000000 x15=0x00000000
        7015000	       700	80004348	0a645483	lhu	x9,166(x8)	  x8:0x80008284  x9=0x0000e0e1 PA:0x8000832a
        7025000	       701	8000434c	00004c17	auipc	x24,0x4	 x24=0x80008348
        7035000	       702	80004350	030c0c13	addi	x24,x24,48	 x24:0x80008348 x24=0x80008378
        7045000	       703	80004354	010c4a83	lbu	x21,16(x24)	 x24:0x80008378 x21=0x00000043 PA:0x80008388
        7055000	       704	80004358	006c4d03	lbu	x26,6(x24)	 x24:0x80008378 x26=0x00000035 PA:0x8000837e
        7065000	       705	8000435c	4e027d13	andi	x26,x4,1248	  x4:0x00000000 x26=0x00000000
        7075000	       706	80004360	018c0823	sb	x24,16(x24)	 x24:0x80008378 x24:0x80008378 PA:0x80008388
        7085000	       707	80004364	003c04a3	sb	x3,9(x24)	 x24:0x80008378  x3:0x575d32f3 PA:0x80008381
        7095000	       708	80004368	40e08833	sub	x16,x1,x14	  x1:0xffffff85 x14:0xffffbebf x16=0x000040c6
        7105000	       709	8000436c	004c4983	lbu	x19,4(x24)	 x24:0x80008378 x19=0x00000037 PA:0x8000837c
        7115000	       710	80004370	ffec5083	lhu	x1,-2(x24)	 x24:0x80008378  x1=0x00002c2d PA:0x80008376
        7125000	       711	80004374	00000013	addi	x0,x0,0	  x0:0x00000000
        7135000	       712	80004378	c61f2837	lui	x16,0xc61f2	 x16=0xc61f2000
        7145000	       713	8000437c	01cc05a3	sb	x28,11(x24)	 x24:0x80008378 x28:0xfffffb80 PA:0x80008383
        7155000	       714	80004380	fe4c08a3	sb	x4,-15(x24)	 x24:0x80008378  x4:0x00000000 PA:0x80008369
        7165000	       715	80004384	74ed2d13	slti	x26,x26,1870	 x26:0x00000000 x26=0x00000001
        7175000	       716	80004388	00ec4a83	lbu	x21,14(x24)	 x24:0x80008378 x21=0x0000003d PA:0x80008386
        7185000	       717	8000438c	ffdc0883	lb	x17,-3(x24)	 x24:0x80008378 x17=0x0000002e PA:0x80008375
        7195000	       718	80004390	005c0303	lb	x6,5(x24)	 x24:0x80008378  x6=0x00000036 PA:0x8000837d
        7205000	       719	80004394	ffcc5303	lhu	x6,-4(x24)	 x24:0x80008378  x6=0x00002e2f PA:0x80008374
        7215000	       720	80004398	ff2c2c23	sw	x18,-8(x24)	 x24:0x80008378 x18:0xffffffd0 PA:0x80008370
        7225000	       721	8000439c	00c99b13	slli	x22,x19,0xc	 x19:0x00000037 x22=0x00037000
        7235000	       722	800043a0	002c0503	lb	x10,2(x24)	 x24:0x80008378 x10=0x00000031 PA:0x8000837a
        7245000	       723	800043a4	006c06a3	sb	x6,13(x24)	 x24:0x80008378  x6:0x00002e2f PA:0x80008385
        7255000	       724	800043a8	ff6c1203	lh	x4,-10(x24)	 x24:0x80008378  x4=0x00002425 PA:0x8000836e
        7265000	       725	800043ac	00ec0023	sb	x14,0(x24)	 x24:0x80008378 x14:0xffffbebf PA:0x80008378
        7275000	       726	800043b0	01dc00a3	sb	x29,1(x24)	 x24:0x80008378 x29:0xf3f542ec PA:0x80008379
        7285000	       727	800043b4	0199c1b3	xor	x3,x19,x25	 x19:0x00000037 x25:0xfffffb80  x3=0xfffffbb7
        7295000	       728	800043b8	ffbc2e23	sw	x27,-4(x24)	 x24:0x80008378 x27:0x00000000 PA:0x80008374
        7305000	       729	800043bc	043f2293	slti	x5,x30,67	 x30:0x80009f08  x5=0x00000001
        7315000	       730	800043c0	005c4803	lbu	x16,5(x24)	 x24:0x80008378 x16=0x00000036 PA:0x8000837d
        7325000	       731	800043c4	01bc45b3	xor	x11,x24,x27	 x24:0x80008378 x27:0x00000000 x11=0x80008378
        7335000	       732	800043c8	002ce0b3	or	x1,x25,x2	 x25:0xfffffb80  x2:0x8000874f  x1=0xffffffcf
        7345000	       733	800043cc	ff4c5e03	lhu	x28,-12(x24)	 x24:0x80008378 x28=0x00002627 PA:0x8000836c
        7355000	       734	800043d0	016c03a3	sb	x22,7(x24)	 x24:0x80008378 x22:0x00037000 PA:0x8000837f
        7365000	       735	800043d4	015c1823	sh	x21,16(x24)	 x24:0x80008378 x21:0x0000003d PA:0x80008388
        7375000	       736	800043d8	00005897	auipc	x17,0x5	 x17=0x800093d4
        7385000	       737	800043dc	b9d88893	addi	x17,x17,-1123	 x17:0x800093d4 x17=0x80008f71
        7395000	       738	800043e0	40570cb3	sub	x25,x14,x5	 x14:0xffffbebf  x5:0x00000001 x25=0xffffbebe
        7405000	       739	800043e4	00dfdd13	srli	x26,x31,0xd	 x31:0x00000001 x26=0x00000000
        7415000	       740	800043e8	00fe1593	slli	x11,x28,0xf	 x28:0x00002627 x11=0x13138000
        7425000	       741	800043ec	40515733	sra	x14,x2,x5	  x2:0x8000874f  x5:0x00000001 x14=0xc00043a7
        7435000	       742	800043f0	f468c603	lbu	x12,-186(x17)	 x17:0x80008f71 x12=0x0000009c PA:0x80008eb7
        7445000	       743	800043f4	0100f533	and	x10,x1,x16	  x1:0xffffffcf x16:0x00000036 x10=0x00000006
        7455000	       744	800043f8	00d77b33	and	x22,x14,x13	 x14:0xc00043a7 x13:0x000000f6 x22=0x000000a6
        7465000	       745	800043fc	f588c583	lbu	x11,-168(x17)	 x17:0x80008f71 x11=0x000000b2 PA:0x80008ec9
        7475000	       746	80004400	06a88b23	sb	x10,118(x17)	 x17:0x80008f71 x10:0x00000006 PA:0x80008fe7
        7485000	       747	80004404	95f8de03	lhu	x28,-1697(x17)	 x17:0x80008f71 x28=0x0000babb PA:0x800088d0
        7495000	       748	80004408	006f1cb3	sll	x25,x30,x6	 x30:0x80009f08  x6:0x00002e2f x25=0x4f840000
        7505000	       749	8000440c	c458cc03	lbu	x24,-955(x17)	 x17:0x80008f71 x24=0x0000009d PA:0x80008bb6
        7515000	       750	80004410	fa488003	lb	x0,-92(x17)	 x17:0x80008f71 PA:0x80008f15
        7525000	       751	80004414	01274c33	xor	x24,x14,x18	 x14:0xc00043a7 x18:0xffffffd0 x24=0x3fffbc77
        7535000	       752	80004418	b6c88a83	lb	x21,-1172(x17)	 x17:0x80008f71 x21=0xffffffc6 PA:0x80008add
        7545000	       753	8000441c	ba088503	lb	x10,-1120(x17)	 x17:0x80008f71 x10=0xfffffffa PA:0x80008b11
        7555000	       754	80004420	405e8d33	sub	x26,x29,x5	 x29:0xf3f542ec  x5:0x00000001 x26=0xf3f542eb
        7565000	       755	80004424	63845817	auipc	x16,0x63845	 x16=0xe3849420
        7575000	       756	80004428	01b314b3	sll	x9,x6,x27	  x6:0x00002e2f x27:0x00000000  x9=0x00002e2f
        7585000	       757	8000442c	009172b3	and	x5,x2,x9	  x2:0x8000874f  x9:0x00002e2f  x5=0x0000060f
        7595000	       758	80004430	27e04f97	auipc	x31,0x27e04	 x31=0xa7e0842c
        7605000	       759	80004434	f998de03	lhu	x28,-103(x17)	 x17:0x80008f71 x28=0x00008efb PA:0x80008f0a
        7615000	       760	80004438	a8468813	addi	x16,x13,-1404	 x13:0x000000f6 x16=0xfffffb7a
        7625000	       761	8000443c	00358233	add	x4,x11,x3	 x11:0x000000b2  x3:0xfffffbb7  x4=0xfffffc69
        7635000	       762	80004440	bf988823	sb	x25,-1040(x17)	 x17:0x80008f71 x25:0x4f840000 PA:0x80008b61
        7645000	       763	80004444	05689da3	sh	x22,91(x17)	 x17:0x80008f71 x22:0x000000a6 PA:0x80008fcc
        7655000	       764	80004448	fbf89983	lh	x19,-65(x17)	 x17:0x80008f71 x19=0x00001a1b PA:0x80008f30
        7665000	       765	8000444c	91488783	lb	x15,-1772(x17)	 x17:0x80008f71 x15=0x0000006e PA:0x80008885
        7675000	       766	80004450	013f9ab3	sll	x21,x31,x19	 x31:0xa7e0842c x19:0x00001a1b x21=0x60000000
        7685000	       767	80004454	a7f88d23	sb	x31,-1414(x17)	 x17:0x80008f71 x31:0xa7e0842c PA:0x800089eb
        7695000	       768	80004458	00004117	auipc	x2,0x4	  x2=0x80008454
        7705000	       769	8000445c	d8510113	addi	x2,x2,-635	  x2:0x80008454  x2=0x800081d9
        7715000	       770	80004460	00000013	addi	x0,x0,0	  x0:0x00000000
        7725000	       771	80004464	51a10723	sb	x26,1294(x2)	  x2:0x800081d9 x26:0xf3f542eb PA:0x800086e7
        7735000	       772	80004468	55d10f23	sb	x29,1374(x2)	  x2:0x800081d9 x29:0xf3f542ec PA:0x80008737
        7745000	       773	8000446c	361125a3	sw	x1,875(x2)	  x2:0x800081d9  x1:0xffffffcf PA:0x80008544
        7755000	       774	80004470	41600fb3	sub	x31,x0,x22	  x0:0x00000000 x22:0x000000a6 x31=0xffffff5a
        7765000	       775	80004474	12214083	lbu	x1,290(x2)	  x2:0x800081d9  x1=0x000000b0 PA:0x800082fb
        7775000	       776	80004478	012116b3	sll	x13,x2,x18	  x2:0x800081d9 x18:0xffffffd0 x13=0x81d90000
        7785000	       777	8000447c	00000013	addi	x0,x0,0	  x0:0x00000000
        7795000	       778	80004480	48a14b03	lbu	x22,1162(x2)	  x2:0x800081d9 x22=0x00000018 PA:0x80008663
        7805000	       779	80004484	010123a3	sw	x16,7(x2)	  x2:0x800081d9 x16:0xfffffb7a PA:0x800081e0
        7815000	       780	80004488	25810823	sb	x24,592(x2)	  x2:0x800081d9 x24:0x3fffbc77 PA:0x80008429
        7825000	       781	8000448c	f0710183	lb	x3,-249(x2)	  x2:0x800081d9  x3=0xffffff9b PA:0x800080e0
        7835000	       782	80004490	2f614f83	lbu	x31,758(x2)	  x2:0x800081d9 x31=0x00000084 PA:0x800084cf
        7845000	       783	80004494	404883b3	sub	x7,x17,x4	 x17:0x80008f71  x4:0xfffffc69  x7=0x80009308
        7855000	       784	80004498	01921393	slli	x7,x4,0x19	  x4:0xfffffc69  x7=0xd2000000
        7865000	       785	8000449c	21711303	lh	x6,535(x2)	  x2:0x800081d9  x6=0xffffaaab PA:0x800083f0
        7875000	       786	00000000	00000013	addi	x0,x0,0	  x0:0x00000000
        7885000	       787	800044a0	4062d313	srai	x6,x5,0x6	  x5:0x0000060f  x6=0x00000018
        7895000	       788	800044a4	c14c3a93	sltiu	x21,x24,-1004	 x24:0x3fffbc77 x21=0x00000001
        7905000	       789	800044a8	2a614283	lbu	x5,678(x2)	  x2:0x800081d9  x5=0x00000034 PA:0x8000847f
        7915000	       790	800044ac	23410803	lb	x16,564(x2)	  x2:0x800081d9 x16=0xffffffc6 PA:0x8000840d
        7925000	       791	800044b0	7f12aab7	lui	x21,0x7f12a	 x21=0x7f12a000
        7935000	       792	800044b4	41f8d333	sra	x6,x17,x31	 x17:0x80008f71 x31:0x00000084  x6=0xf80008f7
        7945000	       793	800044b8	50c10023	sb	x12,1280(x2)	  x2:0x800081d9 x12:0x0000009c PA:0x800086d9
        7955000	       794	800044bc	46a10223	sb	x10,1124(x2)	  x2:0x800081d9 x10:0xfffffffa PA:0x8000863d
        7965000	       795	800044c0	01b991b3	sll	x3,x19,x27	 x19:0x00001a1b x27:0x00000000  x3=0x00001a1b
        7975000	       796	800044c4	33b10603	lb	x12,827(x2)	  x2:0x800081d9 x12=0xffffffcf PA:0x80008514
        7985000	       797	800044c8	418a5893	srai	x17,x20,0x18	 x20:0x80009fc4 x17=0xffffff80
        7995000	       798	800044cc	005c3433	sltu	x8,x24,x5	 x24:0x3fffbc77  x5:0x00000034  x8=0x00000000
        8005000	       799	800044d0	00564fb3	xor	x31,x12,x5	 x12:0xffffffcf  x5:0x00000034 x31=0xfffffffb
        8015000	       800	800044d4	f8e108a3	sb	x14,-111(x2)	  x2:0x800081d9 x14:0xc00043a7 PA:0x8000816a
        8025000	       801	800044d8	019bd633	srl	x12,x23,x25	 x23:0x7c8bc2f3 x25:0x4f840000 x12=0x7c8bc2f3
        8035000	       802	800044dc	34915903	lhu	x18,841(x2)	  x2:0x800081d9 x18=0x0000d8d9 PA:0x80008522
        8045000	       803	800044e0	ac826b17	auipc	x22,0xac826	 x22=0x2c82a4dc
        8055000	       804	800044e4	3c910223	sb	x9,964(x2)	  x2:0x800081d9  x9:0x00002e2f PA:0x8000859d
        8065000	       805	800044e8	01a37333	and	x6,x6,x26	  x6:0xf80008f7 x26:0xf3f542eb  x6=0xf00000e3
        8075000	       806	800044ec	3afbf293	andi	x5,x23,943	 x23:0x7c8bc2f3  x5=0x000002a3
        8085000	       807	800044f0	37e10023	sb	x30,864(x2)	  x2:0x800081d9 x30:0x80009f08 PA:0x80008539
        8095000	       808	800044f4	f1768a93	addi	x21,x13,-233	 x13:0x81d90000 x21=0x81d8ff17
        8105000	       809	800044f8	4bf14c03	lbu	x24,1215(x2)	  x2:0x800081d9 x24=0x00000053 PA:0x80008698
        8115000	       810	800044fc	012317b3	sll	x15,x6,x18	  x6:0xf00000e3 x18:0x0000d8d9 x15=0xc6000000
        8125000	       811	80004500	59d10823	sb	x29,1424(x2)	  x2:0x800081d9 x29:0xf3f542ec PA:0x80008769
        8135000	       812	80004504	013df0b3	and	x1,x27,x19	 x27:0x00000000 x19:0x00001a1b  x1=0x00000000
        8145000	       813	80004508	59ddfc93	andi	x25,x27,1437	 x27:0x00000000 x25=0x00000000
        8155000	       814	8000450c	00d11183	lh	x3,13(x2)	  x2:0x800081d9  x3=0xffff9c9d PA:0x800081e6
        8165000	       815	80004510	fd610603	lb	x12,-42(x2)	  x2:0x800081d9 x12=0x00000064 PA:0x800081af
        8175000	       816	80004514	41925b13	srai	x22,x4,0x19	  x4:0xfffffc69 x22=0xffffffff
        8185000	       817	80004518	50414483	lbu	x9,1284(x2)	  x2:0x800081d9  x9=0x00000096 PA:0x800086dd
        8195000	       818	8000451c	49410c03	lb	x24,1172(x2)	  x2:0x800081d9 x24=0x00000026 PA:0x8000866d
        8205000	       819	80004520	00004117	auipc	x2,0x4	  x2=0x8000851c
        8215000	       820	80004524	f3510113	addi	x2,x2,-203	  x2:0x8000851c  x2=0x80008451
        8225000	       821	80004528	00ca1193	slli	x3,x20,0xc	 x20:0x80009fc4  x3=0x09fc4000
        8235000	       822	8000452c	004cd393	srli	x7,x25,0x4	 x25:0x00000000  x7=0x00000000
        8245000	       823	80004530	fc210e03	lb	x28,-62(x2)	  x2:0x80008451 x28=0xffffffc8 PA:0x80008413
        8255000	       824	80004534	ffb11883	lh	x17,-5(x2)	  x2:0x80008451 x17=0x00000607 PA:0x8000844c
        8265000	       825	80004538	ffa10883	lb	x17,-6(x2)	  x2:0x80008451 x17=0x00000000 PA:0x8000844b
        8275000	       826	8000453c	fc6100a3	sb	x6,-63(x2)	  x2:0x80008451  x6:0xf00000e3 PA:0x80008412
        8285000	       827	80004540	4012d213	srai	x4,x5,0x1	  x5:0x000002a3  x4=0x00000151
        8295000	       828	80004544	fc312203	lw	x4,-61(x2)	  x2:0x80008451  x4=0xcccdcecf PA:0x80008414
        8305000	       829	80004548	015c65b3	or	x11,x24,x21	 x24:0x00000026 x21:0x81d8ff17 x11=0x81d8ff37
        8315000	       830	8000454c	fef10223	sb	x15,-28(x2)	  x2:0x80008451 x15:0xc6000000 PA:0x80008435
        8325000	       831	80004550	0183e3b3	or	x7,x7,x24	  x7:0x00000000 x24:0x00000026  x7=0x00000026
        8335000	       832	80004554	ffc14f83	lbu	x31,-4(x2)	  x2:0x80008451 x31=0x00000006 PA:0x8000844d
        8345000	       833	80004558	00000013	addi	x0,x0,0	  x0:0x00000000
        8355000	       834	8000455c	fdb14c83	lbu	x25,-37(x2)	  x2:0x80008451 x25=0x000000e7 PA:0x8000842c
        8365000	       835	80004560	00b15583	lhu	x11,11(x2)	  x2:0x80008451 x11=0x00001617 PA:0x8000845c
        8375000	       836	80004564	fec10303	lb	x6,-20(x2)	  x2:0x80008451  x6=0xfffffff6 PA:0x8000843d
        8385000	       837	80004568	02e10483	lb	x9,46(x2)	  x2:0x80008451  x9=0x00000034 PA:0x8000847f
        8395000	       838	8000456c	004eeeb3	or	x29,x29,x4	 x29:0xf3f542ec  x4:0xcccdcecf x29=0xfffdceef
        8405000	       839	80004570	02f14403	lbu	x8,47(x2)	  x2:0x80008451  x8=0x0000003b PA:0x80008480
        8415000	       840	80004574	00000013	addi	x0,x0,0	  x0:0x00000000
        8425000	       841	80004578	01c109a3	sb	x28,19(x2)	  x2:0x80008451 x28:0xffffffc8 PA:0x80008464
        8435000	       842	8000457c	fc910703	lb	x14,-55(x2)	  x2:0x80008451 x14=0xffffffd1 PA:0x8000841a
        8445000	       843	80004580	fe7100a3	sb	x7,-31(x2)	  x2:0x80008451  x7:0x00000026 PA:0x80008432
        8455000	       844	80004584	fc810583	lb	x11,-56(x2)	  x2:0x80008451 x11=0xffffffd2 PA:0x80008419
        8465000	       845	80004588	ff710fa3	sb	x23,-1(x2)	  x2:0x80008451 x23:0x7c8bc2f3 PA:0x80008450
        8475000	       846	8000458c	0e357293	andi	x5,x10,227	 x10:0xfffffffa  x5=0x000000e2
        8485000	       847	80004590	03d15783	lhu	x15,61(x2)	  x2:0x80008451 x15=0x00004445 PA:0x8000848e
        8495000	       848	00000000	00000013	addi	x0,x0,0	  x0:0x00000000
        8505000	       849	80004594	5cf1e813	ori	x16,x3,1487	  x3:0x09fc4000 x16=0x09fc45cf
        8515000	       850	80004598	00d14883	lbu	x17,13(x2)	  x2:0x80008451 x17=0x00000015 PA:0x8000845e
        8525000	       851	8000459c	00004517	auipc	x10,0x4	 x10=0x80008598
        8535000	       852	800045a0	68a50513	addi	x10,x10,1674	 x10:0x80008598 x10=0x80008c22
        8545000	       853	800045a4	fff54d03	lbu	x26,-1(x10)	 x10:0x80008c22 x26=0x0000000a PA:0x80008c21
        8555000	       854	800045a8	ff554803	lbu	x16,-11(x10)	 x10:0x80008c22 x16=0x000000fc PA:0x80008c17
        8565000	       855	00000000	00000013	addi	x0,x0,0	  x0:0x00000000
        8575000	       856	800045ac	01051d03	lh	x26,16(x10)	 x10:0x80008c22 x26=0x00001819 PA:0x80008c32
        8585000	       857	800045b0	ff754883	lbu	x17,-9(x10)	 x10:0x80008c22 x17=0x00000002 PA:0x80008c19
        8595000	       858	800045b4	ff450e23	sb	x20,-4(x10)	 x10:0x80008c22 x20:0x80009fc4 PA:0x80008c1e
        8605000	       859	800045b8	01716033	or	x0,x2,x23	  x2:0x80008451 x23:0x7c8bc2f3
        8615000	       860	800045bc	ff150ca3	sb	x17,-7(x10)	 x10:0x80008c22 x17:0x00000002 PA:0x80008c1b
        8625000	       861	800045c0	00a1a933	slt	x18,x3,x10	  x3:0x09fc4000 x10:0x80008c22 x18=0x00000000
        8635000	       862	800045c4	ff0508a3	sb	x16,-15(x10)	 x10:0x80008c22 x16:0x000000fc PA:0x80008c13
        8645000	       863	800045c8	fee509a3	sb	x14,-13(x10)	 x10:0x80008c22 x14:0xffffffd1 PA:0x80008c15
        8655000	       864	800045cc	017501a3	sb	x23,3(x10)	 x10:0x80008c22 x23:0x7c8bc2f3 PA:0x80008c25
        8665000	       865	800045d0	009c92b3	sll	x5,x25,x9	 x25:0x000000e7  x9:0x00000034  x5=0x0e700000
        8675000	       866	800045d4	ff652a83	lw	x21,-10(x10)	 x10:0x80008c22 x21=0x02010203 PA:0x80008c18
        8685000	       867	800045d8	01850623	sb	x24,12(x10)	 x10:0x80008c22 x24:0x00000026 PA:0x80008c2e
        8695000	       868	800045dc	01bd8e33	add	x28,x27,x27	 x27:0x00000000 x27:0x00000000 x28=0x00000000
        8705000	       869	800045e0	00d50e83	lb	x29,13(x10)	 x10:0x80008c22 x29=0x00000014 PA:0x80008c2f
        8715000	       870	800045e4	0025dd93	srli	x27,x11,0x2	 x11:0xffffffd2 x27=0x3ffffff4
        8725000	       871	800045e8	ffa52e83	lw	x29,-6(x10)	 x10:0x80008c22 x29=0x04c40607 PA:0x80008c1c
        8735000	       872	00000000	00000013	addi	x0,x0,0	  x0:0x00000000
        8745000	       873	800045ec	ffd50fa3	sb	x29,-1(x10)	 x10:0x80008c22 x29:0x04c40607 PA:0x80008c21
        8755000	       874	800045f0	000cf033	and	x0,x25,x0	 x25:0x000000e7  x0:0x00000000
        8765000	       875	800045f4	ff550d03	lb	x26,-11(x10)	 x10:0x80008c22 x26=0xfffffffc PA:0x80008c17
        8775000	       876	800045f8	ff450483	lb	x9,-12(x10)	 x10:0x80008c22  x9=0xfffffffd PA:0x80008c16
        8785000	       877	800045fc	e83b7137	lui	x2,0xe83b7	  x2=0xe83b7000
        8795000	       878	80004600	017503a3	sb	x23,7(x10)	 x10:0x80008c22 x23:0x7c8bc2f3 PA:0x80008c29
        8805000	       879	80004604	ff450ca3	sb	x20,-7(x10)	 x10:0x80008c22 x20:0x80009fc4 PA:0x80008c1b
        8815000	       880	80004608	ff750303	lb	x6,-9(x10)	 x10:0x80008c22  x6=0x00000002 PA:0x80008c19
        8825000	       881	8000460c	99623613	sltiu	x12,x4,-1642	  x4:0xcccdcecf x12=0x00000001
        8835000	       882	80004610	ff850a83	lb	x21,-8(x10)	 x10:0x80008c22 x21=0x00000001 PA:0x80008c1a
        8845000	       883	80004614	00250023	sb	x2,0(x10)	 x10:0x80008c22  x2:0xe83b7000 PA:0x80008c22
        8855000	       884	80004618	012504a3	sb	x18,9(x10)	 x10:0x80008c22 x18:0x00000000 PA:0x80008c2b
        8865000	       885	8000461c	ff551a23	sh	x21,-12(x10)	 x10:0x80008c22 x21:0x00000001 PA:0x80008c16
        8875000	       886	80004620	ffe55283	lhu	x5,-2(x10)	 x10:0x80008c22  x5=0x0000070b PA:0x80008c20
        8885000	       887	00000000	00000013	addi	x0,x0,0	  x0:0x00000000
        8895000	       888	80004624	00550103	lb	x2,5(x10)	 x10:0x80008c22  x2=0x0000000c PA:0x80008c27
        8905000	       889	80004628	00b50403	lb	x8,11(x10)	 x10:0x80008c22  x8=0x00000016 PA:0x80008c2d
        8915000	       890	8000462c	ff551823	sh	x21,-16(x10)	 x10:0x80008c22 x21:0x00000001 PA:0x80008c12
        8925000	       891	80004630	00750623	sb	x7,12(x10)	 x10:0x80008c22  x7:0x00000026 PA:0x80008c2e
        8935000	       892	80004634	ff652583	lw	x11,-10(x10)	 x10:0x80008c22 x11=0xc4010203 PA:0x80008c18
        8945000	       893	80004638	01d073b3	and	x7,x0,x29	  x0:0x00000000 x29:0x04c40607  x7=0x00000000
        8955000	       894	8000463c	005d4b33	xor	x22,x26,x5	 x26:0xfffffffc  x5:0x0000070b x22=0xfffff8f7
        8965000	       895	80004640	01114333	xor	x6,x2,x17	  x2:0x0000000c x17:0x00000002  x6=0x0000000e
        8975000	       896	80004644	00c52723	sw	x12,14(x10)	 x10:0x80008c22 x12:0x00000001 PA:0x80008c30
        8985000	       897	80004648	1762fd13	andi	x26,x5,374	  x5:0x0000070b x26=0x00000102
        8995000	       898	8000464c	0695b193	sltiu	x3,x11,105	 x11:0xc4010203  x3=0x00000000
        9005000	       899	80004650	d47e15b7	lui	x11,0xd47e1	 x11=0xd47e1000
        9015000	       900	80004654	105b5c63	bge	x22,x5,8000476c	 x22:0xfffff8f7  x5:0x0000070b
        9025000	       901	80004658	41995513	srai	x10,x18,0x19	 x18:0x00000000 x10=0x00000000
        9035000	       902	8000465c	011cd713	srli	x14,x25,0x11	 x25:0x000000e7 x14=0x00000000
        9045000	       903	80004660	11e56a63	bltu	x10,x30,80004774	 x10:0x00000000 x30:0x80009f08
        9055000	       904	00000000	00000013	addi	x0,x0,0	  x0:0x00000000
        9065000	       905	80004770	00000013	addi	x0,x0,0	  x0:0x00000000
        9075000	       906	80004774	00c81b13	slli	x22,x16,0xc	 x16:0x000000fc x22=0x000fc000
        9085000	       907	80004778	01e62433	slt	x8,x12,x30	 x12:0x00000001 x30:0x80009f08  x8=0x00000000
        9095000	       908	8000477c	02cb7c63	bgeu	x22,x12,800047b4	 x22:0x000fc000 x12:0x00000001
        9105000	       909	00000000	00000013	addi	x0,x0,0	  x0:0x00000000
        9115000	       910	800047b0	00000013	addi	x0,x0,0	  x0:0x00000000
        9125000	       911	800047b4	00581013	slli	x0,x16,0x5	 x16:0x000000fc
        9135000	       912	800047b8	02c75a63	bge	x14,x12,800047ec	 x14:0x00000000 x12:0x00000001
        9145000	       913	800047bc	41e5de93	srai	x29,x11,0x1e	 x11:0xd47e1000 x29=0xffffffff
        9155000	       914	800047c0	003c76b3	and	x13,x24,x3	 x24:0x00000026  x3:0x00000000 x13=0x00000000
        9165000	       915	800047c4	f7182393	slti	x7,x16,-143	 x16:0x000000fc  x7=0x00000000
        9175000	       916	800047c8	012722b3	slt	x5,x14,x18	 x14:0x00000000 x18:0x00000000  x5=0x00000000
        9185000	       917	800047cc	01cd1433	sll	x8,x26,x28	 x26:0x00000102 x28:0x00000000  x8=0x00000102
        9195000	       918	800047d0	00cd83b3	add	x7,x27,x12	 x27:0x3ffffff4 x12:0x00000001  x7=0x3ffffff5
        9205000	       919	800047d4	23a0ac93	slti	x25,x1,570	  x1:0x00000000 x25=0x00000001
        9215000	       920	800047d8	d6ed4193	xori	x3,x26,-658	 x26:0x00000102  x3=0xfffffc6c
        9225000	       921	800047dc	00e669b3	or	x19,x12,x14	 x12:0x00000001 x14:0x00000000 x19=0x00000001
        9235000	       922	800047e0	0207ca63	blt	x15,x0,80004814	 x15:0x00004445  x0:0x00000000
        9245000	       923	800047e4	02366063	bltu	x12,x3,80004804	 x12:0x00000001  x3:0xfffffc6c
        9255000	       924	00000000	00000013	addi	x0,x0,0	  x0:0x00000000
        9265000	       925	80004800	00000013	addi	x0,x0,0	  x0:0x00000000
        9275000	       926	80004804	04e29263	bne	x5,x14,80004848	  x5:0x00000000 x14:0x00000000
        9285000	       927	80004808	3555eb13	ori	x22,x11,853	 x11:0xd47e1000 x22=0xd47e1355
        9295000	       928	8000480c	01b3ee33	or	x28,x7,x27	  x7:0x3ffffff5 x27:0x3ffffff4 x28=0x3ffffff5
        9305000	       929	80004810	41698ab3	sub	x21,x19,x22	 x19:0x00000001 x22:0xd47e1355 x21=0x2b81ecac
        9315000	       930	80004814	01188133	add	x2,x17,x17	 x17:0x00000002 x17:0x00000002  x2=0x00000004
        9325000	       931	80004818	00e258b3	srl	x17,x4,x14	  x4:0xcccdcecf x14:0x00000000 x17=0xcccdcecf
        9335000	       932	8000481c	fab4fb13	andi	x22,x9,-85	  x9:0xfffffffd x22=0xffffffa9
        9345000	       933	80004820	00594263	blt	x18,x5,80004824	 x18:0x00000000  x5:0x00000000
        9355000	       934	80004824	0041de63	bge	x3,x4,80004840	  x3:0xfffffc6c  x4:0xcccdcecf
        9365000	       935	00000000	00000013	addi	x0,x0,0	  x0:0x00000000
        9375000	       936	8000483c	00000013	addi	x0,x0,0	  x0:0x00000000
        9385000	       937	80004840	f94a0613	addi	x12,x20,-108	 x20:0x80009fc4 x12=0x80009f58
        9395000	       938	80004844	005ffd33	and	x26,x31,x5	 x31:0x00000006  x5:0x00000000 x26=0x00000000
        9405000	       939	80004848	9483ab37	lui	x22,0x9483a	 x22=0x9483a000
        9415000	       940	8000484c	00000013	addi	x0,x0,0	  x0:0x00000000
        9425000	       941	80004850	793c41b7	lui	x3,0x793c4	  x3=0x793c4000
        9435000	       942	80004854	01e09733	sll	x14,x1,x30	  x1:0x00000000 x30:0x80009f08 x14=0x00000000
        9445000	       943	80004858	5633c113	xori	x2,x7,1379	  x7:0x3ffffff5  x2=0x3ffffa96
        9455000	       944	8000485c	01d9db33	srl	x22,x19,x29	 x19:0x00000001 x29:0xffffffff x22=0x00000000
        9465000	       945	80004860	01833033	sltu	x0,x6,x24	  x6:0x0000000e x24:0x00000026
        9475000	       946	80004864	0061c863	blt	x3,x6,80004874	  x3:0x793c4000  x6:0x0000000e
        9485000	       947	80004868	22764eb7	lui	x29,0x22764	 x29=0x22764000
        9495000	       948	8000486c	7a07f693	andi	x13,x15,1952	 x15:0x00004445 x13=0x00000400
        9505000	       949	80004870	017bd933	srl	x18,x23,x23	 x23:0x7c8bc2f3 x23:0x7c8bc2f3 x18=0x00000f91
        9515000	       950	80004874	01341413	slli	x8,x8,0x13	  x8:0x00000102  x8=0x08100000
        9525000	       951	80004878	059e8263	beq	x29,x25,800048bc	 x29:0x22764000 x25:0x00000001
        9535000	       952	8000487c	00cf5c63	bge	x30,x12,80004894	 x30:0x80009f08 x12:0x80009f58
        9545000	       953	80004880	808e40b7	lui	x1,0x808e4	  x1=0x808e4000
        9555000	       954	80004884	c30db293	sltiu	x5,x27,-976	 x27:0x3ffffff4  x5=0x00000001
        9565000	       955	80004888	028b7063	bgeu	x22,x8,800048a8	 x22:0x00000000  x8:0x08100000
        9575000	       956	8000488c	054a8063	beq	x21,x20,800048cc	 x21:0x2b81ecac x20:0x80009fc4
        9585000	       957	80004890	816e4197	auipc	x3,0x816e4	  x3=0x016e888c
        9595000	       958	80004894	016ee663	bltu	x29,x22,800048a0	 x29:0x22764000 x22:0x00000000
        9605000	       959	80004898	011ba133	slt	x2,x23,x17	 x23:0x7c8bc2f3 x17:0xcccdcecf  x2=0x00000000
        9615000	       960	8000489c	01d1c733	xor	x14,x3,x29	  x3:0x016e888c x29:0x22764000 x14=0x2318c88c
        9625000	       961	800048a0	0320e863	bltu	x1,x18,800048d0	  x1:0x808e4000 x18:0x00000f91
        9635000	       962	800048a4	fbf2a517	auipc	x10,0xfbf2a	 x10=0x7bf2e8a0
        9645000	       963	800048a8	01103db3	sltu	x27,x0,x17	  x0:0x00000000 x17:0xcccdcecf x27=0x00000001
        9655000	       964	800048ac	03fc8c63	beq	x25,x31,800048e4	 x25:0x00000001 x31:0x00000006
        9665000	       965	800048b0	8e523793	sltiu	x15,x4,-1819	  x4:0xcccdcecf x15=0x00000001
        9675000	       966	800048b4	0163f533	and	x10,x7,x22	  x7:0x3ffffff5 x22:0x00000000 x10=0x00000000
        9685000	       967	800048b8	00000013	addi	x0,x0,0	  x0:0x00000000
        9695000	       968	800048bc	00000013	addi	x0,x0,0	  x0:0x00000000
        9705000	       969	800048c0	00589613	slli	x12,x17,0x5	 x17:0xcccdcecf x12=0x99b9d9e0
        9715000	       970	800048c4	06658213	addi	x4,x11,102	 x11:0xd47e1000  x4=0xd47e1066
        9725000	       971	800048c8	00a41d13	slli	x26,x8,0xa	  x8:0x08100000 x26=0x40000000
        9735000	       972	800048cc	0015d863	bge	x11,x1,800048dc	 x11:0xd47e1000  x1:0x808e4000
        9745000	       973	00000000	00000013	addi	x0,x0,0	  x0:0x00000000
        9755000	       974	800048d8	00000013	addi	x0,x0,0	  x0:0x00000000
        9765000	       975	800048dc	a2317d13	andi	x26,x2,-1501	  x2:0x00000000 x26=0x00000000
        9775000	       976	800048e0	038d5063	bge	x26,x24,80004900	 x26:0x00000000 x24:0x00000026
        9785000	       977	800048e4	01c52d33	slt	x26,x10,x28	 x10:0x00000000 x28:0x3ffffff5 x26=0x00000001
        9795000	       978	800048e8	02c96663	bltu	x18,x12,80004914	 x18:0x00000f91 x12:0x99b9d9e0
        9805000	       979	00000000	00000013	addi	x0,x0,0	  x0:0x00000000
        9815000	       980	80004910	00000013	addi	x0,x0,0	  x0:0x00000000
        9825000	       981	80004914	000b8e63	beq	x23,x0,80004930	 x23:0x7c8bc2f3  x0:0x00000000
        9835000	       982	80004918	031a6063	bltu	x20,x17,80004938	 x20:0x80009fc4 x17:0xcccdcecf
        9845000	       983	00000000	00000013	addi	x0,x0,0	  x0:0x00000000
        9855000	       984	80004934	00000013	addi	x0,x0,0	  x0:0x00000000
        9865000	       985	80004938	986b7493	andi	x9,x22,-1658	 x22:0x00000000  x9=0x00000000
        9875000	       986	8000493c	9bf08413	addi	x8,x1,-1601	  x1:0x808e4000  x8=0x808e39bf
        9885000	       987	80004940	034ffa63	bgeu	x31,x20,80004974	 x31:0x00000006 x20:0x80009fc4
        9895000	       988	80004944	f1066913	ori	x18,x12,-240	 x12:0x99b9d9e0 x18=0xfffffff0
        9905000	       989	80004948	6104d597	auipc	x11,0x6104d	 x11=0xe1051944
        9915000	       990	8000494c	000bbab3	sltu	x21,x23,x0	 x23:0x7c8bc2f3  x0:0x00000000 x21=0x00000000
        9925000	       991	80004950	ffd03d13	sltiu	x26,x0,-3	  x0:0x00000000 x26=0x00000001
        9935000	       992	80004954	0307dc63	bge	x15,x16,8000498c	 x15:0x00000001 x16:0x000000fc
        9945000	       993	80004958	013b5193	srli	x3,x22,0x13	 x22:0x00000000  x3=0x00000000
        9955000	       994	8000495c	01790733	add	x14,x18,x23	 x18:0xfffffff0 x23:0x7c8bc2f3 x14=0x7c8bc2e3
        9965000	       995	80004960	03a91a63	bne	x18,x26,80004994	 x18:0xfffffff0 x26:0x00000001
        9975000	       996	00000000	00000013	addi	x0,x0,0	  x0:0x00000000
        9985000	       997	80004990	00000013	addi	x0,x0,0	  x0:0x00000000
        9995000	       998	80004994	0125d7b3	srl	x15,x11,x18	 x11:0xe1051944 x18:0xfffffff0 x15=0x0000e105
       10005000	       999	80004998	7a5f2d13	slti	x26,x30,1957	 x30:0x80009f08 x26=0x00000001
       10015000	      1000	8000499c	00c6c2b3	xor	x5,x13,x12	 x13:0x00000400 x12:0x99b9d9e0  x5=0x99b9dde0
       10025000	      1001	800049a0	01390c33	add	x24,x18,x19	 x18:0xfffffff0 x19:0x00000001 x24=0xfffffff1
       10035000	      1002	800049a4	0550e863	bltu	x1,x21,800049f4	  x1:0x808e4000 x21:0x00000000
       10045000	      1003	800049a8	401dd793	srai	x15,x27,0x1	 x27:0x00000001 x15=0x00000000
       10055000	      1004	800049ac	00b9e863	bltu	x19,x11,800049bc	 x19:0x00000001 x11:0xe1051944
       10065000	      1005	00000000	00000013	addi	x0,x0,0	  x0:0x00000000
       10075000	      1006	800049b8	00000013	addi	x0,x0,0	  x0:0x00000000
       10085000	      1007	800049bc	a387db17	auipc	x22,0xa387d	 x22=0x238819b8
       10095000	      1008	800049c0	019b7e63	bgeu	x22,x25,800049dc	 x22:0x238819b8 x25:0x00000001
       10105000	      1009	00000000	00000013	addi	x0,x0,0	  x0:0x00000000
       10115000	      1010	800049d8	00000013	addi	x0,x0,0	  x0:0x00000000
       10125000	      1011	800049dc	31880693	addi	x13,x16,792	 x16:0x000000fc x13=0x00000414
       10135000	      1012	800049e0	00000013	addi	x0,x0,0	  x0:0x00000000
       10145000	      1013	800049e4	4064d613	srai	x12,x9,0x6	  x9:0x00000000 x12=0x00000000
       10155000	      1014	800049e8	00dc9233	sll	x4,x25,x13	 x25:0x00000001 x13:0x00000414  x4=0x00100000
       10165000	      1015	800049ec	01200833	add	x16,x0,x18	  x0:0x00000000 x18:0xfffffff0 x16=0xfffffff0
       10175000	      1016	800049f0	04645663	bge	x8,x6,80004a3c	  x8:0x808e39bf  x6:0x0000000e
       10185000	      1017	800049f4	007c1a93	slli	x21,x24,0x7	 x24:0xfffffff1 x21=0xfffff880
       10195000	      1018	800049f8	0151de13	srli	x28,x3,0x15	  x3:0x00000000 x28=0x00000000
       10205000	      1019	800049fc	01fa3933	sltu	x18,x20,x31	 x20:0x80009fc4 x31:0x00000006 x18=0x00000000
       10215000	      1020	80004a00	04ec0063	beq	x24,x14,80004a40	 x24:0xfffffff1 x14:0x7c8bc2e3
       10225000	      1021	80004a04	0230f063	bgeu	x1,x3,80004a24	  x1:0x808e4000  x3:0x00000000
       10235000	      1022	00000000	00000013	addi	x0,x0,0	  x0:0x00000000
       10245000	      1023	80004a20	00000013	addi	x0,x0,0	  x0:0x00000000
       10255000	      1024	80004a24	05108463	beq	x1,x17,80004a6c	  x1:0x808e4000 x17:0xcccdcecf
       10265000	      1025	80004a28	35e5e213	ori	x4,x11,862	 x11:0xe1051944  x4=0xe1051b5e
       10275000	      1026	80004a2c	415cde33	sra	x28,x25,x21	 x25:0x00000001 x21:0xfffff880 x28=0x00000001
       10285000	      1027	80004a30	005c6633	or	x12,x24,x5	 x24:0xfffffff1  x5:0x99b9dde0 x12=0xfffffff1
       10295000	      1028	80004a34	010a8db3	add	x27,x21,x16	 x21:0xfffff880 x16:0xfffffff0 x27=0xfffff870
       10305000	      1029	80004a38	39691217	auipc	x4,0x39691	  x4=0xb9695a34
       10315000	      1030	80004a3c	012679b3	and	x19,x12,x18	 x12:0xfffffff1 x18:0x00000000 x19=0x00000000
       10325000	      1031	80004a40	bc6f6697	auipc	x13,0xbc6f6	 x13=0x3c6faa3c
       10335000	      1032	80004a44	011b9863	bne	x23,x17,80004a54	 x23:0x7c8bc2f3 x17:0xcccdcecf
       10345000	      1033	00000000	00000013	addi	x0,x0,0	  x0:0x00000000
       10355000	      1034	80004a50	00000013	addi	x0,x0,0	  x0:0x00000000
       10365000	      1035	80004a54	044ef663	bgeu	x29,x4,80004aa0	 x29:0x22764000  x4:0xb9695a34
       10375000	      1036	80004a58	90770a93	addi	x21,x14,-1785	 x14:0x7c8bc2e3 x21=0x7c8bbbea
       10385000	      1037	80004a5c	047e6463	bltu	x28,x7,80004aa4	 x28:0x00000001  x7:0x3ffffff5
       10395000	      1038	00000000	00000013	addi	x0,x0,0	  x0:0x00000000
       10405000	      1039	80004aa0	00000013	addi	x0,x0,0	  x0:0x00000000
       10415000	      1040	80004aa4	016b1c63	bne	x22,x22,80004abc	 x22:0x238819b8 x22:0x238819b8
       10425000	      1041	80004aa8	01018d33	add	x26,x3,x16	  x3:0x00000000 x16:0xfffffff0 x26=0xfffffff0
       10435000	      1042	80004aac	009e35b3	sltu	x11,x28,x9	 x28:0x00000001  x9:0x00000000 x11=0x00000000
       10445000	      1043	80004ab0	043f0263	beq	x30,x3,80004af4	 x30:0x80009f08  x3:0x00000000
       10455000	      1044	80004ab4	400704b3	sub	x9,x14,x0	 x14:0x7c8bc2e3  x0:0x00000000  x9=0x7c8bc2e3
       10465000	      1045	80004ab8	262eb613	sltiu	x12,x29,610	 x29:0x22764000 x12=0x00000000
       10475000	      1046	80004abc	05d8f863	bgeu	x17,x29,80004b0c	 x17:0xcccdcecf x29:0x22764000
       10485000	      1047	00000000	00000013	addi	x0,x0,0	  x0:0x00000000
       10495000	      1048	80004b08	00000013	addi	x0,x0,0	  x0:0x00000000
       10505000	      1049	80004b0c	e4e57613	andi	x12,x10,-434	 x10:0x00000000 x12=0x00000000
       10515000	      1050	80004b10	01aaee33	or	x28,x21,x26	 x21:0x7c8bbbea x26:0xfffffff0 x28=0xfffffffa
       10525000	      1051	80004b14	00c086b3	add	x13,x1,x12	  x1:0x808e4000 x12:0x00000000 x13=0x808e4000
       10535000	      1052	80004b18	41ddd393	srai	x7,x27,0x1d	 x27:0xfffff870  x7=0xffffffff
       10545000	      1053	80004b1c	02ba8a63	beq	x21,x11,80004b50	 x21:0x7c8bbbea x11:0x00000000
       10555000	      1054	80004b20	004973b3	and	x7,x18,x4	 x18:0x00000000  x4:0xb9695a34  x7=0x00000000
       10565000	      1055	80004b24	01a7c633	xor	x12,x15,x26	 x15:0x00000000 x26:0xfffffff0 x12=0xfffffff0
       10575000	      1056	80004b28	001bcfb3	xor	x31,x23,x1	 x23:0x7c8bc2f3  x1:0x808e4000 x31=0xfc0582f3
       10585000	      1057	80004b2c	047b5263	bge	x22,x7,80004b70	 x22:0x238819b8  x7:0x00000000
       10595000	      1058	00000000	00000013	addi	x0,x0,0	  x0:0x00000000
       10605000	      1059	80004b6c	00000013	addi	x0,x0,0	  x0:0x00000000
       10615000	      1060	80004b70	00bd9c93	slli	x25,x27,0xb	 x27:0xfffff870 x25=0xffc38000
       10625000	      1061	80004b74	41bd52b3	sra	x5,x26,x27	 x26:0xfffffff0 x27:0xfffff870  x5=0xffffffff
       10635000	      1062	80004b78	01cf1e33	sll	x28,x30,x28	 x30:0x80009f08 x28:0xfffffffa x28=0x20000000
       10645000	      1063	80004b7c	058b5463	bge	x22,x24,80004bc4	 x22:0x238819b8 x24:0xfffffff1
       10655000	      1064	00000000	00000013	addi	x0,x0,0	  x0:0x00000000
       10665000	      1065	80004bc0	00000013	addi	x0,x0,0	  x0:0x00000000
       10675000	      1066	80004bc4	0126b833	sltu	x16,x13,x18	 x13:0x808e4000 x18:0x00000000 x16=0x00000000
       10685000	      1067	80004bc8	0fece263	bltu	x25,x30,80004cac	 x25:0xffc38000 x30:0x80009f08
       10695000	      1068	80004bcc	10927c63	bgeu	x4,x9,80004ce4	  x4:0xb9695a34  x9:0x7c8bc2e3
       10705000	      1069	00000000	00000013	addi	x0,x0,0	  x0:0x00000000
       10715000	      1070	80004ce0	00000013	addi	x0,x0,0	  x0:0x00000000
       10725000	      1071	80004ce4	00546ab3	or	x21,x8,x5	  x8:0x808e39bf  x5:0xffffffff x21=0xffffffff
       10735000	      1072	80004ce8	417f5c93	srai	x25,x30,0x17	 x30:0x80009f08 x25=0xffffff00
       10745000	      1073	80004cec	044c9063	bne	x25,x4,80004d2c	 x25:0xffffff00  x4:0xb9695a34
       10755000	      1074	00000000	00000013	addi	x0,x0,0	  x0:0x00000000
       10765000	      1075	80004d28	00000013	addi	x0,x0,0	  x0:0x00000000
       10775000	      1076	80004d2c	014ac263	blt	x21,x20,80004d30	 x21:0xffffffff x20:0x80009fc4
       10785000	      1077	80004d30	00000013	addi	x0,x0,0	  x0:0x00000000
       10795000	      1078	80004d34	00000013	addi	x0,x0,0	  x0:0x00000000
       10805000	      1079	80004d38	40a75393	srai	x7,x14,0xa	 x14:0x7c8bc2e3  x7=0x001f22f0
       10815000	      1080	80004d3c	00049b13	slli	x22,x9,0x0	  x9:0x7c8bc2e3 x22=0x7c8bc2e3
       10825000	      1081	80004d40	03d48863	beq	x9,x29,80004d70	  x9:0x7c8bc2e3 x29:0x22764000
       10835000	      1082	80004d44	00840e33	add	x28,x8,x8	  x8:0x808e39bf  x8:0x808e39bf x28=0x011c737e
       10845000	      1083	80004d48	4109d2b3	sra	x5,x19,x16	 x19:0x00000000 x16:0x00000000  x5=0x00000000
       10855000	      1084	80004d4c	9b228313	addi	x6,x5,-1614	  x5:0x00000000  x6=0xfffff9b2
       10865000	      1085	80004d50	03f18063	beq	x3,x31,80004d70	  x3:0x00000000 x31:0xfc0582f3
       10875000	      1086	80004d54	96740893	addi	x17,x8,-1689	  x8:0x808e39bf x17=0x808e3326
       10885000	      1087	80004d58	0fa7e313	ori	x6,x15,250	 x15:0x00000000  x6=0x000000fa
       10895000	      1088	80004d5c	8a1e4e13	xori	x28,x28,-1887	 x28:0x011c737e x28=0xfee38bdf
       10905000	      1089	80004d60	01d74b33	xor	x22,x14,x29	 x14:0x7c8bc2e3 x29:0x22764000 x22=0x5efd82e3
       10915000	      1090	80004d64	0140bdb3	sltu	x27,x1,x20	  x1:0x808e4000 x20:0x80009fc4 x27=0x00000000
       10925000	      1091	80004d68	008e5613	srli	x12,x28,0x8	 x28:0xfee38bdf x12=0x00fee38b
       10935000	      1092	80004d6c	00e421b3	slt	x3,x8,x14	  x8:0x808e39bf x14:0x7c8bc2e3  x3=0x00000001
       10945000	      1093	80004d70	02dc5a63	bge	x24,x13,80004da4	 x24:0xfffffff1 x13:0x808e4000
       10955000	      1094	00000000	00000013	addi	x0,x0,0	  x0:0x00000000
       10965000	      1095	80004da0	00000013	addi	x0,x0,0	  x0:0x00000000
       10975000	      1096	80004da4	01161e13	slli	x28,x12,0x11	 x12:0x00fee38b x28=0xc7160000
       10985000	      1097	80004da8	01427fb3	and	x31,x4,x20	  x4:0xb9695a34 x20:0x80009fc4 x31=0x80001a04
       10995000	      1098	80004dac	01dc9863	bne	x25,x29,80004dbc	 x25:0xffffff00 x29:0x22764000
       11005000	      1099	00000000	00000013	addi	x0,x0,0	  x0:0x00000000
       11015000	      1100	80004db8	00000013	addi	x0,x0,0	  x0:0x00000000
       11025000	      1101	80004dbc	011b1e13	slli	x28,x22,0x11	 x22:0x5efd82e3 x28=0x05c60000
       11035000	      1102	80004dc0	04c34663	blt	x6,x12,80004e0c	  x6:0x000000fa x12:0x00fee38b
       11045000	      1103	00000000	00000013	addi	x0,x0,0	  x0:0x00000000
       11055000	      1104	80004e08	00000013	addi	x0,x0,0	  x0:0x00000000
       11065000	      1105	80004e0c	03085c63	bge	x16,x16,80004e44	 x16:0x00000000 x16:0x00000000
       11075000	      1106	00000000	00000013	addi	x0,x0,0	  x0:0x00000000
       11085000	      1107	80004e40	00000013	addi	x0,x0,0	  x0:0x00000000
       11095000	      1108	80004e44	01a76e63	bltu	x14,x26,80004e60	 x14:0x7c8bc2e3 x26:0xfffffff0
       11105000	      1109	00000000	00000013	addi	x0,x0,0	  x0:0x00000000
       11115000	      1110	80004e5c	00000013	addi	x0,x0,0	  x0:0x00000000
       11125000	      1111	80004e60	9befa793	slti	x15,x31,-1602	 x31:0x80001a04 x15=0x00000001
       11135000	      1112	80004e64	6230e293	ori	x5,x1,1571	  x1:0x808e4000  x5=0x808e4623
       11145000	      1113	80004e68	01bbd913	srli	x18,x23,0x1b	 x23:0x7c8bc2f3 x18=0x0000000f
       11155000	      1114	80004e6c	414081b3	sub	x3,x1,x20	  x1:0x808e4000 x20:0x80009fc4  x3=0x008da03c
       11165000	      1115	80004e70	005e0ab3	add	x21,x28,x5	 x28:0x05c60000  x5:0x808e4623 x21=0x86544623
       11175000	      1116	80004e74	006740b3	xor	x1,x14,x6	 x14:0x7c8bc2e3  x6:0x000000fa  x1=0x7c8bc219
       11185000	      1117	80004e78	9f643213	sltiu	x4,x8,-1546	  x8:0x808e39bf  x4=0x00000001
       11195000	      1118	80004e7c	002ec5b3	xor	x11,x29,x2	 x29:0x22764000  x2:0x00000000 x11=0x22764000
       11205000	      1119	80004e80	03415063	bge	x2,x20,80004ea0	  x2:0x00000000 x20:0x80009fc4
       11215000	      1120	00000000	00000013	addi	x0,x0,0	  x0:0x00000000
       11225000	      1121	80004e9c	00000013	addi	x0,x0,0	  x0:0x00000000
       11235000	      1122	80004ea0	04dd9263	bne	x27,x13,80004ee4	 x27:0x00000000 x13:0x808e4000
       11245000	      1123	00000000	00000013	addi	x0,x0,0	  x0:0x00000000
       11255000	      1124	80004ee0	00000013	addi	x0,x0,0	  x0:0x00000000
       11265000	      1125	80004ee4	41815e33	sra	x28,x2,x24	  x2:0x00000000 x24:0xfffffff1 x28=0x00000000
       11275000	      1126	80004ee8	b648c013	xori	x0,x17,-1180	 x17:0x808e3326
       11285000	      1127	80004eec	00000013	addi	x0,x0,0	  x0:0x00000000
       11295000	      1128	80004ef0	37898313	addi	x6,x19,888	 x19:0x00000000  x6=0x00000378
       11305000	      1129	80004ef4	019e8e63	beq	x29,x25,80004f10	 x29:0x22764000 x25:0xffffff00
       11315000	      1130	80004ef8	011183b3	add	x7,x3,x17	  x3:0x008da03c x17:0x808e3326  x7=0x811bd362
       11325000	      1131	80004efc	00c9d0b3	srl	x1,x19,x12	 x19:0x00000000 x12:0x00fee38b  x1=0x00000000
       11335000	      1132	80004f00	00000013	addi	x0,x0,0	  x0:0x00000000
       11345000	      1133	80004f04	01f6b5b3	sltu	x11,x13,x31	 x13:0x808e4000 x31:0x80001a04 x11=0x00000000
       11355000	      1134	80004f08	01d7d033	srl	x0,x15,x29	 x15:0x00000001 x29:0x22764000
       11365000	      1135	80004f0c	042e0063	beq	x28,x2,80004f4c	 x28:0x00000000  x2:0x00000000
       11375000	      1136	00000000	00000013	addi	x0,x0,0	  x0:0x00000000
       11385000	      1137	80004f48	00000013	addi	x0,x0,0	  x0:0x00000000
       11395000	      1138	80004f4c	00000013	addi	x0,x0,0	  x0:0x00000000
       11405000	      1139	80004f50	b8fcbd93	sltiu	x27,x25,-1137	 x25:0xffffff00 x27=0x00000000
       11415000	      1140	80004f54	0181b233	sltu	x4,x3,x24	  x3:0x008da03c x24:0xfffffff1  x4=0x00000001
       11425000	      1141	80004f58	013148b3	xor	x17,x2,x19	  x2:0x00000000 x19:0x00000000 x17=0x00000000
       11435000	      1142	80004f5c	00401c13	slli	x24,x0,0x4	  x0:0x00000000 x24=0x00000000
       11445000	      1143	80004f60	576ea737	lui	x14,0x576ea	 x14=0x576ea000
       11455000	      1144	80004f64	02226063	bltu	x4,x2,80004f84	  x4:0x00000001  x2:0x00000000
       11465000	      1145	80004f68	00fb4933	xor	x18,x22,x15	 x22:0x5efd82e3 x15:0x00000001 x18=0x5efd82e2
       11475000	      1146	80004f6c	00f836b3	sltu	x13,x16,x15	 x16:0x00000000 x15:0x00000001 x13=0x00000001
       11485000	      1147	80004f70	41870fb3	sub	x31,x14,x24	 x14:0x576ea000 x24:0x00000000 x31=0x576ea000
       11495000	      1148	80004f74	01d80863	beq	x16,x29,80004f84	 x16:0x00000000 x29:0x22764000
       11505000	      1149	80004f78	911ae393	ori	x7,x21,-1775	 x21:0x86544623  x7=0xffffff33
       11515000	      1150	80004f7c	842f2197	auipc	x3,0x842f2	  x3=0x042f6f78
       11525000	      1151	80004f80	78b4b213	sltiu	x4,x9,1931	  x9:0x7c8bc2e3  x4=0x00000000
       11535000	      1152	80004f84	719a6d13	ori	x26,x20,1817	 x20:0x80009fc4 x26=0x80009fdd
       11545000	      1153	80004f88	a57ac093	xori	x1,x21,-1449	 x21:0x86544623  x1=0x79abbc74
       11555000	      1154	80004f8c	01392033	slt	x0,x18,x19	 x18:0x5efd82e2 x19:0x00000000
       11565000	      1155	80004f90	02684a63	blt	x16,x6,80004fc4	 x16:0x00000000  x6:0x00000378
       11575000	      1156	00000000	00000013	addi	x0,x0,0	  x0:0x00000000
       11585000	      1157	80004fc0	00000013	addi	x0,x0,0	  x0:0x00000000
       11595000	      1158	80004fc4	051b7663	bgeu	x22,x17,80005010	 x22:0x5efd82e3 x17:0x00000000
       11605000	      1159	00000000	00000013	addi	x0,x0,0	  x0:0x00000000
       11615000	      1160	8000500c	00000013	addi	x0,x0,0	  x0:0x00000000
       11625000	      1161	80005010	00df8d33	add	x26,x31,x13	 x31:0x576ea000 x13:0x00000001 x26=0x576ea001
       11635000	      1162	80005014	0030db13	srli	x22,x1,0x3	  x1:0x79abbc74 x22=0x0f35778e
       11645000	      1163	80005018	00a53433	sltu	x8,x10,x10	 x10:0x00000000 x10:0x00000000  x8=0x00000000
       11655000	      1164	8000501c	001b6433	or	x8,x22,x1	 x22:0x0f35778e  x1:0x79abbc74  x8=0x7fbffffe
       11665000	      1165	80005020	011a4e63	blt	x20,x17,8000503c	 x20:0x80009fc4 x17:0x00000000
       11675000	      1166	00000000	00000013	addi	x0,x0,0	  x0:0x00000000
       11685000	      1167	80005038	00000013	addi	x0,x0,0	  x0:0x00000000
       11695000	      1168	8000503c	01ecd693	srli	x13,x25,0x1e	 x25:0xffffff00 x13=0x00000003
       11705000	      1169	80005040	0e543e93	sltiu	x29,x8,229	  x8:0x7fbffffe x29=0x00000000
       11715000	      1170	80005044	02b1d863	bge	x3,x11,80005074	  x3:0x042f6f78 x11:0x00000000
       11725000	      1171	00000000	00000013	addi	x0,x0,0	  x0:0x00000000
       11735000	      1172	80005070	00000013	addi	x0,x0,0	  x0:0x00000000
       11745000	      1173	80005074	01c82533	slt	x10,x16,x28	 x16:0x00000000 x28:0x00000000 x10=0x00000000
       11755000	      1174	80005078	2f32c493	xori	x9,x5,755	  x5:0x808e4623  x9=0x808e44d0
       11765000	      1175	8000507c	00ff8e63	beq	x31,x15,80005098	 x31:0x576ea000 x15:0x00000001
       11775000	      1176	80005080	05610063	beq	x2,x22,800050c0	  x2:0x00000000 x22:0x0f35778e
       11785000	      1177	80005084	27aa3f93	sltiu	x31,x20,634	 x20:0x80009fc4 x31=0x00000000
       11795000	      1178	80005088	04576263	bltu	x14,x5,800050cc	 x14:0x576ea000  x5:0x808e4623
       11805000	      1179	00000000	00000013	addi	x0,x0,0	  x0:0x00000000
       11815000	      1180	800050c8	00000013	addi	x0,x0,0	  x0:0x00000000
       11825000	      1181	800050cc	cd83b3b7	lui	x7,0xcd83b	  x7=0xcd83b000
       11835000	      1182	800050d0	01ad8033	add	x0,x27,x26	 x27:0x00000000 x26:0x576ea001
       11845000	      1183	800050d4	00000013	addi	x0,x0,0	  x0:0x00000000
       11855000	      1184	800050d8	004686b3	add	x13,x13,x4	 x13:0x00000003  x4:0x00000000 x13=0x00000003
       11865000	      1185	800050dc	40288533	sub	x10,x17,x2	 x17:0x00000000  x2:0x00000000 x10=0x00000000
       11875000	      1186	800050e0	01d5eab3	or	x21,x11,x29	 x11:0x00000000 x29:0x00000000 x21=0x00000000
       11885000	      1187	800050e4	416dd6b3	sra	x13,x27,x22	 x27:0x00000000 x22:0x0f35778e x13=0x00000000
       11895000	      1188	800050e8	014ddfb3	srl	x31,x27,x20	 x27:0x00000000 x20:0x80009fc4 x31=0x00000000
       11905000	      1189	800050ec	03c37c63	bgeu	x6,x28,80005124	  x6:0x00000378 x28:0x00000000
       11915000	      1190	00000000	00000013	addi	x0,x0,0	  x0:0x00000000
       11925000	      1191	80005120	00000013	addi	x0,x0,0	  x0:0x00000000
       11935000	      1192	80005124	033dd863	bge	x27,x19,80005154	 x27:0x00000000 x19:0x00000000
       11945000	      1193	00000000	00000013	addi	x0,x0,0	  x0:0x00000000
       11955000	      1194	80005150	00000013	addi	x0,x0,0	  x0:0x00000000
       11965000	      1195	80005154	00ff20b3	slt	x1,x30,x15	 x30:0x80009f08 x15:0x00000001  x1=0x00000001
       11975000	      1196	80005158	41378c33	sub	x24,x15,x19	 x15:0x00000001 x19:0x00000000 x24=0x00000001
       11985000	      1197	8000515c	41e85d33	sra	x26,x16,x30	 x16:0x00000000 x30:0x80009f08 x26=0x00000000
       11995000	      1198	80005160	01114b33	xor	x22,x2,x17	  x2:0x00000000 x17:0x00000000 x22=0x00000000
       12005000	      1199	80005164	01d468b3	or	x17,x8,x29	  x8:0x7fbffffe x29:0x00000000 x17=0x7fbffffe
       12015000	      1200	80005168	40db0233	sub	x4,x22,x13	 x22:0x00000000 x13:0x00000000  x4=0x00000000
       12025000	      1201	8000516c	01c66833	or	x16,x12,x28	 x12:0x00fee38b x28:0x00000000 x16=0x00fee38b
       12035000	      1202	80005170	71980e13	addi	x28,x16,1817	 x16:0x00fee38b x28=0x00feeaa4
       12045000	      1203	80005174	4085d233	sra	x4,x11,x8	 x11:0x00000000  x8:0x7fbffffe  x4=0x00000000
       12055000	      1204	80005178	012a7fb3	and	x31,x20,x18	 x20:0x80009fc4 x18:0x5efd82e2 x31=0x000082c0
       12065000	      1205	8000517c	016a9863	bne	x21,x22,8000518c	 x21:0x00000000 x22:0x00000000
       12075000	      1206	80005180	00000013	addi	x0,x0,0	  x0:0x00000000
       12085000	      1207	80005184	41e003b3	sub	x7,x0,x30	  x0:0x00000000 x30:0x80009f08  x7=0x7fff60f8
       12095000	      1208	80005188	d86a0613	addi	x12,x20,-634	 x20:0x80009fc4 x12=0x80009d4a
       12105000	      1209	8000518c	c6dc2697	auipc	x13,0xc6dc2	 x13=0x46dc7188
       12115000	      1210	80005190	005304b3	add	x9,x6,x5	  x6:0x00000378  x5:0x808e4623  x9=0x808e499b
       12125000	      1211	80005194	b4d96093	ori	x1,x18,-1203	 x18:0x5efd82e2  x1=0xfffffbef
       12135000	      1212	80005198	00000013	addi	x0,x0,0	  x0:0x00000000
       12145000	      1213	8000519c	40a6d713	srai	x14,x13,0xa	 x13:0x46dc7188 x14=0x0011b71c
       12155000	      1214	800051a0	d7f560b7	lui	x1,0xd7f56	  x1=0xd7f56000
       12165000	      1215	800051a4	40e88b33	sub	x22,x17,x14	 x17:0x7fbffffe x14:0x0011b71c x22=0x7fae48e2
       12175000	      1216	800051a8	0163b6b3	sltu	x13,x7,x22	  x7:0x7fff60f8 x22:0x7fae48e2 x13=0x00000000
       12185000	      1217	800051ac	0d59d117	auipc	x2,0xd59d	  x2=0x8d5a21a8
       12195000	      1218	800051b0	f5bd0293	addi	x5,x26,-165	 x26:0x00000000  x5=0xffffff5b
       12205000	      1219	800051b4	05c19663	bne	x3,x28,80005200	  x3:0x042f6f78 x28:0x00feeaa4
       12215000	      1220	00000000	00000013	addi	x0,x0,0	  x0:0x00000000
       12225000	      1221	800051fc	00000013	addi	x0,x0,0	  x0:0x00000000
       12235000	      1222	80005200	02d4dc63	bge	x9,x13,80005238	  x9:0x808e499b x13:0x00000000
       12245000	      1223	80005204	574caa93	slti	x21,x25,1396	 x25:0xffffff00 x21=0x00000001
       12255000	      1224	80005208	411b5093	srai	x1,x22,0x11	 x22:0x7fae48e2  x1=0x00003fd7
       12265000	      1225	8000520c	01fed3b3	srl	x7,x29,x31	 x29:0x00000000 x31:0x000082c0  x7=0x00000000
       12275000	      1226	80005210	01a3fd33	and	x26,x7,x26	  x7:0x00000000 x26:0x00000000 x26=0x00000000
       12285000	      1227	80005214	02ee5063	bge	x28,x14,80005234	 x28:0x00feeaa4 x14:0x0011b71c
       12295000	      1228	00000000	00000013	addi	x0,x0,0	  x0:0x00000000
       12305000	      1229	80005230	00000013	addi	x0,x0,0	  x0:0x00000000
       12315000	      1230	80005234	408cd833	sra	x16,x25,x8	 x25:0xffffff00  x8:0x7fbffffe x16=0xffffffff
       12325000	      1231	80005238	a97f4893	xori	x17,x30,-1385	 x30:0x80009f08 x17=0x7fff659f
       12335000	      1232	8000523c	0120d433	srl	x8,x1,x18	  x1:0x00003fd7 x18:0x5efd82e2  x8=0x00000ff5
       12345000	      1233	80005240	01719d13	slli	x26,x3,0x17	  x3:0x042f6f78 x26=0xbc000000
       12355000	      1234	80005244	05e00263	beq	x0,x30,80005288	  x0:0x00000000 x30:0x80009f08
       12365000	      1235	80005248	95ffa493	slti	x9,x31,-1697	 x31:0x000082c0  x9=0x00000000
       12375000	      1236	8000524c	41895833	sra	x16,x18,x24	 x18:0x5efd82e2 x24:0x00000001 x16=0x2f7ec171
       12385000	      1237	80005250	298c0d93	addi	x27,x24,664	 x24:0x00000001 x27=0x00000299
       12395000	      1238	80005254	00072d33	slt	x26,x14,x0	 x14:0x0011b71c  x0:0x00000000 x26=0x00000000
       12405000	      1239	80005258	0122b5b3	sltu	x11,x5,x18	  x5:0xffffff5b x18:0x5efd82e2 x11=0x00000000
       12415000	      1240	8000525c	05815863	bge	x2,x24,800052ac	  x2:0x8d5a21a8 x24:0x00000001
       12425000	      1241	80005260	018c48b3	xor	x17,x24,x24	 x24:0x00000001 x24:0x00000001 x17=0x00000000
       12435000	      1242	80005264	414cd113	srai	x2,x25,0x14	 x25:0xffffff00  x2=0xffffffff
       12445000	      1243	80005268	0192f933	and	x18,x5,x25	  x5:0xffffff5b x25:0xffffff00 x18=0xffffff00
       12455000	      1244	8000526c	02fe5063	bge	x28,x15,8000528c	 x28:0x00feeaa4 x15:0x00000001
       12465000	      1245	00000000	00000013	addi	x0,x0,0	  x0:0x00000000
       12475000	      1246	80005288	00000013	addi	x0,x0,0	  x0:0x00000000
       12485000	      1247	8000528c	035b0663	beq	x22,x21,800052b8	 x22:0x7fae48e2 x21:0x00000001
       12495000	      1248	80005290	41900333	sub	x6,x0,x25	  x0:0x00000000 x25:0xffffff00  x6=0x00000100
       12505000	      1249	80005294	445de813	ori	x16,x27,1093	 x27:0x00000299 x16=0x000006dd
       12515000	      1250	80005298	012a1e33	sll	x28,x20,x18	 x20:0x80009fc4 x18:0xffffff00 x28=0x80009fc4
       12525000	      1251	8000529c	01450133	add	x2,x10,x20	 x10:0x00000000 x20:0x80009fc4  x2=0x80009fc4
       12535000	      1252	800052a0	009963b3	or	x7,x18,x9	 x18:0xffffff00  x9:0x00000000  x7=0xffffff00
       12545000	      1253	800052a4	02739863	bne	x7,x7,800052d4	  x7:0xffffff00  x7:0xffffff00
       12555000	      1254	800052a8	804df293	andi	x5,x27,-2044	 x27:0x00000299  x5=0x00000000
       12565000	      1255	800052ac	04b97463	bgeu	x18,x11,800052f4	 x18:0xffffff00 x11:0x00000000
       12575000	      1256	00000000	00000013	addi	x0,x0,0	  x0:0x00000000
       12585000	      1257	800052f0	00000013	addi	x0,x0,0	  x0:0x00000000
       12595000	      1258	800052f4	00c1f3b3	and	x7,x3,x12	  x3:0x042f6f78 x12:0x80009d4a  x7=0x00000d48
       12605000	      1259	800052f8	013fcf93	xori	x31,x31,19	 x31:0x000082c0 x31=0x000082d3
       12615000	      1260	800052fc	2d1b0313	addi	x6,x22,721	 x22:0x7fae48e2  x6=0x7fae4bb3
       12625000	      1261	80005300	01631eb3	sll	x29,x6,x22	  x6:0x7fae4bb3 x22:0x7fae48e2 x29=0xfeb92ecc
       12635000	      1262	80005304	40ee5433	sra	x8,x28,x14	 x28:0x80009fc4 x14:0x0011b71c  x8=0xfffffff8
       12645000	      1263	80005308	00fbde13	srli	x28,x23,0xf	 x23:0x7c8bc2f3 x28=0x0000f917
       12655000	      1264	8000530c	01e52ab3	slt	x21,x10,x30	 x10:0x00000000 x30:0x80009f08 x21=0x00000000
       12665000	      1265	80005310	03677c63	bgeu	x14,x22,80005348	 x14:0x0011b71c x22:0x7fae48e2
       12675000	      1266	80005314	004fc0b3	xor	x1,x31,x4	 x31:0x000082d3  x4:0x00000000  x1=0x000082d3
       12685000	      1267	80005318	017229b3	slt	x19,x4,x23	  x4:0x00000000 x23:0x7c8bc2f3 x19=0x00000001
       12695000	      1268	8000531c	01fd8633	add	x12,x27,x31	 x27:0x00000299 x31:0x000082d3 x12=0x0000856c
       12705000	      1269	80005320	00a672b3	and	x5,x12,x10	 x12:0x0000856c x10:0x00000000  x5=0x00000000
       12715000	      1270	80005324	01a89e93	slli	x29,x17,0x1a	 x17:0x00000000 x29=0x00000000
       12725000	      1271	80005328	c2a20693	addi	x13,x4,-982	  x4:0x00000000 x13=0xfffffc2a
       12735000	      1272	8000532c	007facb3	slt	x25,x31,x7	 x31:0x000082d3  x7:0x00000d48 x25=0x00000000
       12745000	      1273	80005330	d492c713	xori	x14,x5,-695	  x5:0x00000000 x14=0xfffffd49
       12755000	      1274	80005334	001f2633	slt	x12,x30,x1	 x30:0x80009f08  x1:0x000082d3 x12=0x00000001
       12765000	      1275	80005338	03afe063	bltu	x31,x26,80005358	 x31:0x000082d3 x26:0x00000000
       12775000	      1276	8000533c	c9510c13	addi	x24,x2,-875	  x2:0x80009fc4 x24=0x80009c59
       12785000	      1277	80005340	b8f04493	xori	x9,x0,-1137	  x0:0x00000000  x9=0xfffffb8f
       12795000	      1278	80005344	6825be13	sltiu	x28,x11,1666	 x11:0x00000000 x28=0x00000001
       12805000	      1279	80005348	219eae13	slti	x28,x29,537	 x29:0x00000000 x28=0x00000001
       12815000	      1280	8000534c	40975c13	srai	x24,x14,0x9	 x14:0xfffffd49 x24=0xfffffffe
       12825000	      1281	80005350	0180dc13	srli	x24,x1,0x18	  x1:0x000082d3 x24=0x00000000
       12835000	      1282	80005354	7f836497	auipc	x9,0x7f836	  x9=0xff83b350
       12845000	      1283	80005358	00eace33	xor	x28,x21,x14	 x21:0x00000000 x14:0xfffffd49 x28=0xfffffd49
       12855000	      1284	8000535c	032c0063	beq	x24,x18,8000537c	 x24:0x00000000 x18:0xffffff00
       12865000	      1285	80005360	60577293	andi	x5,x14,1541	 x14:0xfffffd49  x5=0x00000401
       12875000	      1286	80005364	057a6863	bltu	x20,x23,800053b4	 x20:0x80009fc4 x23:0x7c8bc2f3
       12885000	      1287	80005368	002350b3	srl	x1,x6,x2	  x6:0x7fae4bb3  x2:0x80009fc4  x1=0x07fae4bb
       12895000	      1288	8000536c	012db833	sltu	x16,x27,x18	 x27:0x00000299 x18:0xffffff00 x16=0x00000001
       12905000	      1289	80005370	007600b3	add	x1,x12,x7	 x12:0x00000001  x7:0x00000d48  x1=0x00000d49
       12915000	      1290	80005374	008f5893	srli	x17,x30,0x8	 x30:0x80009f08 x17=0x0080009f
       12925000	      1291	80005378	0ed6b413	sltiu	x8,x13,237	 x13:0xfffffc2a  x8=0x00000000
       12935000	      1292	8000537c	4113dfb3	sra	x31,x7,x17	  x7:0x00000d48 x17:0x0080009f x31=0x00000000
       12945000	      1293	80005380	40b0ddb3	sra	x27,x1,x11	  x1:0x00000d49 x11:0x00000000 x27=0x00000d49
       12955000	      1294	80005384	004f5493	srli	x9,x30,0x4	 x30:0x80009f08  x9=0x080009f0
       12965000	      1295	80005388	009d55b3	srl	x11,x26,x9	 x26:0x00000000  x9:0x080009f0 x11=0x00000000
       12975000	      1296	8000538c	00183cb3	sltu	x25,x16,x1	 x16:0x00000001  x1:0x00000d49 x25=0x00000001
       12985000	      1297	80005390	03dc0063	beq	x24,x29,800053b0	 x24:0x00000000 x29:0x00000000
       12995000	      1298	00000000	00000013	addi	x0,x0,0	  x0:0x00000000
       13005000	      1299	800053ac	00000013	addi	x0,x0,0	  x0:0x00000000
       13015000	      1300	800053b0	00339d93	slli	x27,x7,0x3	  x7:0x00000d48 x27=0x00006a40
       13025000	      1301	800053b4	d65b7f93	andi	x31,x22,-667	 x22:0x7fae48e2 x31=0x7fae4860
       13035000	      1302	800053b8	01ff8333	add	x6,x31,x31	 x31:0x7fae4860 x31:0x7fae4860  x6=0xff5c90c0
       13045000	      1303	800053bc	004d1e63	bne	x26,x4,800053d8	 x26:0x00000000  x4:0x00000000
       13055000	      1304	800053c0	046e6863	bltu	x28,x6,80005410	 x28:0xfffffd49  x6:0xff5c90c0
       13065000	      1305	800053c4	407d5493	srai	x9,x26,0x7	 x26:0x00000000  x9=0x00000000
       13075000	      1306	800053c8	27b60ab7	lui	x21,0x27b60	 x21=0x27b60000
       13085000	      1307	800053cc	00ebdeb3	srl	x29,x23,x14	 x23:0x7c8bc2f3 x14:0xfffffd49 x29=0x003e45e1
       13095000	      1308	800053d0	0121e133	or	x2,x3,x18	  x3:0x042f6f78 x18:0xffffff00  x2=0xffffff78
       13105000	      1309	800053d4	4145d333	sra	x6,x11,x20	 x11:0x00000000 x20:0x80009fc4  x6=0x00000000
       13115000	      1310	800053d8	02a37093	andi	x1,x6,42	  x6:0x00000000  x1=0x00000000
       13125000	      1311	800053dc	ca6e0293	addi	x5,x28,-858	 x28:0xfffffd49  x5=0xfffff9ef
       13135000	      1312	800053e0	04c1d663	bge	x3,x12,8000542c	  x3:0x042f6f78 x12:0x00000001
       13145000	      1313	00000000	00000013	addi	x0,x0,0	  x0:0x00000000
       13155000	      1314	80005428	00000013	addi	x0,x0,0	  x0:0x00000000
       13165000	      1315	8000542c	90df4d93	xori	x27,x30,-1779	 x30:0x80009f08 x27=0x7fff6605
       13175000	      1316	80005430	03831c63	bne	x6,x24,80005468	  x6:0x00000000 x24:0x00000000
       13185000	      1317	80005434	04305663	bge	x0,x3,80005480	  x0:0x00000000  x3:0x042f6f78
       13195000	      1318	80005438	0e43a193	slti	x3,x7,228	  x7:0x00000d48  x3=0x00000000
       13205000	      1319	8000543c	5d91c713	xori	x14,x3,1497	  x3:0x00000000 x14=0x000005d9
       13215000	      1320	80005440	04501063	bne	x0,x5,80005480	  x0:0x00000000  x5:0xfffff9ef
       13225000	      1321	00000000	00000013	addi	x0,x0,0	  x0:0x00000000
       13235000	      1322	8000547c	00000013	addi	x0,x0,0	  x0:0x00000000
       13245000	      1323	80005480	30bbf393	andi	x7,x23,779	 x23:0x7c8bc2f3  x7=0x00000203
       13255000	      1324	80005484	00355093	srli	x1,x10,0x3	 x10:0x00000000  x1=0x00000000
       13265000	      1325	80005488	01cd1933	sll	x18,x26,x28	 x26:0x00000000 x28:0xfffffd49 x18=0x00000000
       13275000	      1326	8000548c	41e706b3	sub	x13,x14,x30	 x14:0x000005d9 x30:0x80009f08 x13=0x7fff66d1
       13285000	      1327	80005490	00000013	addi	x0,x0,0	  x0:0x00000000
       13295000	      1328	80005494	41815e13	srai	x28,x2,0x18	  x2:0xffffff78 x28=0xffffffff
       13305000	      1329	80005498	01c58333	add	x6,x11,x28	 x11:0x00000000 x28:0xffffffff  x6=0xffffffff
       13315000	      1330	8000549c	0090a133	slt	x2,x1,x9	  x1:0x00000000  x9:0x00000000  x2=0x00000000
       13325000	      1331	800054a0	01f49863	bne	x9,x31,800054b0	  x9:0x00000000 x31:0x7fae4860
       13335000	      1332	00000000	00000013	addi	x0,x0,0	  x0:0x00000000
       13345000	      1333	800054ac	00000013	addi	x0,x0,0	  x0:0x00000000
       13355000	      1334	800054b0	c24fb96f	jal	x18,800054b0	 x18=0x800054b0
       13365000	      1335	00000000	00000013	addi	x0,x0,0	  x0:0x00000000
       13375000	      1336	800008d0	00000013	addi	x0,x0,0	  x0:0x00000000
       13385000	      1337	800008d4	01485fb3	srl	x31,x16,x20	 x16:0x00000001 x20:0x80009fc4 x31=0x00000000
       13395000	      1338	800008d8	019be263	bltu	x23,x25,800008dc	 x23:0x7c8bc2f3 x25:0x00000001
       13405000	      1339	800008dc	fc0f0f13	addi	x30,x30,-64	 x30:0x80009f08 x30=0x80009ec8
       13415000	      1340	800008e0	ce6ff293	andi	x5,x31,-794	 x31:0x00000000  x5=0x00000000
       13425000	      1341	800008e4	012f2223	sw	x18,4(x30)	 x30:0x80009ec8 x18:0x800054b0 PA:0x80009ecc
       13435000	      1342	800008e8	00887133	and	x2,x16,x8	 x16:0x00000001  x8:0x00000000  x2=0x00000000
       13445000	      1343	800008ec	00712733	slt	x14,x2,x7	  x2:0x00000000  x7:0x00000203 x14=0x00000001
       13455000	      1344	800008f0	00008117	auipc	x2,0x8	  x2=0x800088ec
       13465000	      1345	800008f4	a7110113	addi	x2,x2,-1423	  x2:0x800088ec  x2=0x8000835d
       13475000	      1346	800008f8	909b8317	auipc	x6,0x909b8	  x6=0x109b88f4
       13485000	      1347	800008fc	03510023	sb	x21,32(x2)	  x2:0x8000835d x21:0x27b60000 PA:0x8000837d
       13495000	      1348	80000900	49010ca3	sb	x16,1177(x2)	  x2:0x8000835d x16:0x00000001 PA:0x800087f6
       13505000	      1349	80000904	011052b3	srl	x5,x0,x17	  x0:0x00000000 x17:0x0080009f  x5=0x00000000
       13515000	      1350	80000908	2f1105a3	sb	x17,747(x2)	  x2:0x8000835d x17:0x0080009f PA:0x80008648
       13525000	      1351	8000090c	1fc123a3	sw	x28,487(x2)	  x2:0x8000835d x28:0xffffffff PA:0x80008544
       13535000	      1352	80000910	eec10703	lb	x14,-276(x2)	  x2:0x8000835d x14=0x00000002 PA:0x80008249
       13545000	      1353	80000914	b6fc6e93	ori	x29,x24,-1169	 x24:0x00000000 x29=0xfffffb6f
       13555000	      1354	80000918	42511c03	lh	x24,1061(x2)	  x2:0x8000835d x24=0x00003839 PA:0x80008782
       13565000	      1355	8000091c	0158e6b3	or	x13,x17,x21	 x17:0x0080009f x21:0x27b60000 x13=0x27b6009f
       13575000	      1356	80000920	006c0b33	add	x22,x24,x6	 x24:0x00003839  x6:0x109b88f4 x22=0x109bc12d
       13585000	      1357	80000924	0d5117a3	sh	x21,207(x2)	  x2:0x8000835d x21:0x27b60000 PA:0x8000842c
       13595000	      1358	80000928	e3b14483	lbu	x9,-453(x2)	  x2:0x8000835d  x9=0x000000ea PA:0x80008198
       13605000	      1359	8000092c	41c8d613	srai	x12,x17,0x1c	 x17:0x0080009f x12=0x00000000
       13615000	      1360	80000930	0068b0b3	sltu	x1,x17,x6	 x17:0x0080009f  x6:0x109b88f4  x1=0x00000001
       13625000	      1361	80000934	3e3118a3	sh	x3,1009(x2)	  x2:0x8000835d  x3:0x00000000 PA:0x8000874e
       13635000	      1362	80000938	d8a10e23	sb	x10,-612(x2)	  x2:0x8000835d x10:0x00000000 PA:0x800080f9
       13645000	      1363	8000093c	032100a3	sb	x18,33(x2)	  x2:0x8000835d x18:0x800054b0 PA:0x8000837e
       13655000	      1364	80000940	4071db33	sra	x22,x3,x7	  x3:0x00000000  x7:0x00000203 x22=0x00000000
       13665000	      1365	80000944	14214c83	lbu	x25,322(x2)	  x2:0x8000835d x25=0x00000054 PA:0x8000849f
       13675000	      1366	80000948	36214383	lbu	x7,866(x2)	  x2:0x8000835d  x7=0x00000074 PA:0x800086bf
       13685000	      1367	8000094c	def11303	lh	x6,-529(x2)	  x2:0x8000835d  x6=0x00000607 PA:0x8000814c
       13695000	      1368	80000950	01ba4033	xor	x0,x20,x27	 x20:0x80009fc4 x27:0x7fff6605
       13705000	      1369	80000954	4b8107a3	sb	x24,1199(x2)	  x2:0x8000835d x24:0x00003839 PA:0x8000880c
       13715000	      1370	80000958	38f102a3	sb	x15,901(x2)	  x2:0x8000835d x15:0x00000001 PA:0x800086e2
       13725000	      1371	8000095c	edd14283	lbu	x5,-291(x2)	  x2:0x8000835d  x5=0x000000f1 PA:0x8000823a
       13735000	      1372	80000960	001199b3	sll	x19,x3,x1	  x3:0x00000000  x1:0x00000001 x19=0x00000000
       13745000	      1373	80000964	3126eb37	lui	x22,0x3126e	 x22=0x3126e000
       13755000	      1374	80000968	18014f83	lbu	x31,384(x2)	  x2:0x8000835d x31=0x00000096 PA:0x800084dd
       13765000	      1375	8000096c	e7410083	lb	x1,-396(x2)	  x2:0x8000835d  x1=0xffffff8a PA:0x800081d1
       13775000	      1376	80000970	8e0e0a93	addi	x21,x28,-1824	 x28:0xffffffff x21=0xfffff8df
       13785000	      1377	80000974	0016a233	slt	x4,x13,x1	 x13:0x27b6009f  x1:0xffffff8a  x4=0x00000000
       13795000	      1378	80000978	ed111e03	lh	x28,-303(x2)	  x2:0x8000835d x28=0xffffe4e5 PA:0x8000822e
       13805000	      1379	8000097c	4e82ca93	xori	x21,x5,1256	  x5:0x000000f1 x21=0x00000419
       13815000	      1380	80000980	420114a3	sh	x0,1065(x2)	  x2:0x8000835d  x0:0x00000000 PA:0x80008786
       13825000	      1381	80000984	41cd0fb3	sub	x31,x26,x28	 x26:0x00000000 x28:0xffffe4e5 x31=0x00001b1b
       13835000	      1382	80000988	07c14783	lbu	x15,124(x2)	  x2:0x8000835d x15=0x00000092 PA:0x800083d9
       13845000	      1383	8000098c	010dbc33	sltu	x24,x27,x16	 x27:0x7fff6605 x16:0x00000001 x24=0x00000000
       13855000	      1384	80000990	10e10823	sb	x14,272(x2)	  x2:0x8000835d x14:0x00000002 PA:0x8000846d
       13865000	      1385	80000994	14610703	lb	x14,326(x2)	  x2:0x8000835d x14=0x00000058 PA:0x800084a3
       13875000	      1386	80000998	25a10403	lb	x8,602(x2)	  x2:0x8000835d  x8=0x0000006c PA:0x800085b7
       13885000	      1387	8000099c	1c672913	slti	x18,x14,454	 x14:0x00000058 x18=0x00000001
       13895000	      1388	800009a0	0de14003	lbu	x0,222(x2)	  x2:0x8000835d PA:0x8000843b
       13905000	      1389	800009a4	fa320413	addi	x8,x4,-93	  x4:0x00000000  x8=0xffffffa3
       13915000	      1390	800009a8	418b5d33	sra	x26,x22,x24	 x22:0x3126e000 x24:0x00000000 x26=0x3126e000
       13925000	      1391	800009ac	6c203493	sltiu	x9,x0,1730	  x0:0x00000000  x9=0x00000001
       13935000	      1392	800009b0	29f14403	lbu	x8,671(x2)	  x2:0x8000835d  x8=0x000000b7 PA:0x800085fc
       13945000	      1393	800009b4	d4414983	lbu	x19,-700(x2)	  x2:0x8000835d x19=0x0000005a PA:0x800080a1
       13955000	      1394	00000000	00000013	addi	x0,x0,0	  x0:0x00000000
       13965000	      1395	800009b8	00598533	add	x10,x19,x5	 x19:0x0000005a  x5:0x000000f1 x10=0x0000014b
       13975000	      1396	800009bc	ee6100a3	sb	x6,-287(x2)	  x2:0x8000835d  x6:0x00000607 PA:0x8000823e
       13985000	      1397	800009c0	00008517	auipc	x10,0x8	 x10=0x800089bc
       13995000	      1398	800009c4	dbc50513	addi	x10,x10,-580	 x10:0x800089bc x10=0x80008778
       14005000	      1399	800009c8	4e7f7c37	lui	x24,0x4e7f7	 x24=0x4e7f7000
       14015000	      1400	800009cc	00254403	lbu	x8,2(x10)	 x10:0x80008778  x8=0x00000031 PA:0x8000877a
       14025000	      1401	800009d0	001ceb33	or	x22,x25,x1	 x25:0x00000054  x1:0xffffff8a x22=0xffffffde
       14035000	      1402	800009d4	00452c03	lw	x24,4(x10)	 x10:0x80008778 x24=0x34353637 PA:0x8000877c
       14045000	      1403	800009d8	00150e83	lb	x29,1(x10)	 x10:0x80008778 x29=0x00000032 PA:0x80008779
       14055000	      1404	800009dc	00e43433	sltu	x8,x8,x14	  x8:0x00000031 x14:0x00000058  x8=0x00000001
       14065000	      1405	800009e0	00350323	sb	x3,6(x10)	 x10:0x80008778  x3:0x00000000 PA:0x8000877e
       14075000	      1406	800009e4	00961913	slli	x18,x12,0x9	 x12:0x00000000 x18=0x00000000
       14085000	      1407	800009e8	ff750d03	lb	x26,-9(x10)	 x10:0x80008778 x26=0x00000024 PA:0x8000876f
       14095000	      1408	800009ec	005b8433	add	x8,x23,x5	 x23:0x7c8bc2f3  x5:0x000000f1  x8=0x7c8bc3e4
       14105000	      1409	800009f0	00251603	lh	x12,2(x10)	 x10:0x80008778 x12=0x00003031 PA:0x8000877a
       14115000	      1410	800009f4	00000013	addi	x0,x0,0	  x0:0x00000000
       14125000	      1411	800009f8	40c6d1b3	sra	x3,x13,x12	 x13:0x27b6009f x12:0x00003031  x3=0x000013db
       14135000	      1412	800009fc	ff352a23	sw	x19,-12(x10)	 x10:0x80008778 x19:0x0000005a PA:0x8000876c
       14145000	      1413	80000a00	ff150c03	lb	x24,-15(x10)	 x10:0x80008778 x24=0xffffffec PA:0x80008769
       14155000	      1414	80000a04	62852193	slti	x3,x10,1576	 x10:0x80008778  x3=0x00000001
       14165000	      1415	80000a08	ff052a23	sw	x16,-12(x10)	 x10:0x80008778 x16:0x00000001 PA:0x8000876c
       14175000	      1416	80000a0c	00000013	addi	x0,x0,0	  x0:0x00000000
       14185000	      1417	80000a10	0011dc93	srli	x25,x3,0x1	  x3:0x00000001 x25=0x00000000
       14195000	      1418	80000a14	003a6233	or	x4,x20,x3	 x20:0x80009fc4  x3:0x00000001  x4=0x80009fc5
       14205000	      1419	80000a18	5da04e93	xori	x29,x0,1498	  x0:0x00000000 x29=0x000005da
       14215000	      1420	80000a1c	01ff9c33	sll	x24,x31,x31	 x31:0x00001b1b x31:0x00001b1b x24=0xd8000000
       14225000	      1421	80000a20	ff154483	lbu	x9,-15(x10)	 x10:0x80008778  x9=0x000000ec PA:0x80008769
       14235000	      1422	80000a24	01d61d33	sll	x26,x12,x29	 x12:0x00003031 x29:0x000005da x26=0xc4000000
       14245000	      1423	80000a28	00e55d83	lhu	x27,14(x10)	 x10:0x80008778 x27=0x00000000 PA:0x80008786
       14255000	      1424	80000a2c	00150183	lb	x3,1(x10)	 x10:0x80008778  x3=0x00000032 PA:0x80008779
       14265000	      1425	80000a30	ffe51d23	sh	x30,-6(x10)	 x10:0x80008778 x30:0x80009ec8 PA:0x80008772
       14275000	      1426	80000a34	00350e03	lb	x28,3(x10)	 x10:0x80008778 x28=0x00000030 PA:0x8000877b
       14285000	      1427	80000a38	cd313b13	sltiu	x22,x2,-813	  x2:0x8000835d x22=0x00000001
       14295000	      1428	80000a3c	afe5f393	andi	x7,x11,-1282	 x11:0x00000000  x7=0x00000000
       14305000	      1429	80000a40	017507a3	sb	x23,15(x10)	 x10:0x80008778 x23:0x7c8bc2f3 PA:0x80008787
       14315000	      1430	80000a44	ff254d83	lbu	x27,-14(x10)	 x10:0x80008778 x27=0x00000021 PA:0x8000876a
       14325000	      1431	80000a48	001d2233	slt	x4,x26,x1	 x26:0xc4000000  x1:0xffffff8a  x4=0x00000001
       14335000	      1432	80000a4c	00000013	addi	x0,x0,0	  x0:0x00000000
       14345000	      1433	80000a50	00950e03	lb	x28,9(x10)	 x10:0x80008778 x28=0x0000003a PA:0x80008781
       14355000	      1434	80000a54	8e2a7293	andi	x5,x20,-1822	 x20:0x80009fc4  x5=0x800098c0
       14365000	      1435	80000a58	0029d233	srl	x4,x19,x2	 x19:0x0000005a  x2:0x8000835d  x4=0x00000000
       14375000	      1436	80000a5c	ef35e093	ori	x1,x11,-269	 x11:0x00000000  x1=0xfffffef3
       14385000	      1437	80000a60	00954403	lbu	x8,9(x10)	 x10:0x80008778  x8=0x0000003a PA:0x80008781
       14395000	      1438	80000a64	003dd813	srli	x16,x27,0x3	 x27:0x00000021 x16=0x00000004
       14405000	      1439	80000a68	899de013	ori	x0,x27,-1895	 x27:0x00000021
       14415000	      1440	80000a6c	00554583	lbu	x11,5(x10)	 x10:0x80008778 x11=0x00000036 PA:0x8000877d
       14425000	      1441	80000a70	6e3be713	ori	x14,x23,1763	 x23:0x7c8bc2f3 x14=0x7c8bc6f3
       14435000	      1442	80000a74	ea1bddb7	lui	x27,0xea1bd	 x27=0xea1bd000
       14445000	      1443	80000a78	fea50da3	sb	x10,-5(x10)	 x10:0x80008778 x10:0x80008778 PA:0x80008773
       14455000	      1444	80000a7c	404f5c33	sra	x24,x30,x4	 x30:0x80009ec8  x4:0x00000000 x24=0x80009ec8
       14465000	      1445	80000a80	009e12b3	sll	x5,x28,x9	 x28:0x0000003a  x9:0x000000ec  x5=0x0003a000
       14475000	      1446	80000a84	0de4ae93	slti	x29,x9,222	  x9:0x000000ec x29=0x00000000
       14485000	      1447	80000a88	01d321b3	slt	x3,x6,x29	  x6:0x00000607 x29:0x00000000  x3=0x00000000
       14495000	      1448	80000a8c	ffe51103	lh	x2,-2(x10)	 x10:0x80008778  x2=0x00002c1c PA:0x80008776
       14505000	      1449	80000a90	00008117	auipc	x2,0x8	  x2=0x80008a8c
       14515000	      1450	80000a94	a3c10113	addi	x2,x2,-1476	  x2:0x80008a8c  x2=0x800084c8
       14525000	      1451	80000a98	def67e93	andi	x29,x12,-529	 x12:0x00003031 x29=0x00003021
       14535000	      1452	80000a9c	fe311823	sh	x3,-16(x2)	  x2:0x800084c8  x3:0x00000000 PA:0x800084b8
       14545000	      1453	80000aa0	00e15a83	lhu	x21,14(x2)	  x2:0x800084c8 x21=0x00008c8d PA:0x800084d6
       14555000	      1454	80000aa4	ff811883	lh	x17,-8(x2)	  x2:0x800084c8 x17=0x00007a7b PA:0x800084c0
       14565000	      1455	80000aa8	01f10723	sb	x31,14(x2)	  x2:0x800084c8 x31:0x00001b1b PA:0x800084d6
       14575000	      1456	80000aac	ff312e23	sw	x19,-4(x2)	  x2:0x800084c8 x19:0x0000005a PA:0x800084c4
       14585000	      1457	80000ab0	011eb6b3	sltu	x13,x29,x17	 x29:0x00003021 x17:0x00007a7b x13=0x00000001
       14595000	      1458	80000ab4	00ef5493	srli	x9,x30,0xe	 x30:0x80009ec8  x9=0x00020002
       14605000	      1459	80000ab8	40068833	sub	x16,x13,x0	 x13:0x00000001  x0:0x00000000 x16=0x00000001
       14615000	      1460	80000abc	00812303	lw	x6,8(x2)	  x2:0x800084c8  x6=0x88898a8b PA:0x800084d0
       14625000	      1461	80000ac0	41c555b3	sra	x11,x10,x28	 x10:0x80008778 x28:0x0000003a x11=0xffffffe0
       14635000	      1462	80000ac4	fe8109a3	sb	x8,-13(x2)	  x2:0x800084c8  x8:0x0000003a PA:0x800084bb
       14645000	      1463	80000ac8	002102a3	sb	x2,5(x2)	  x2:0x800084c8  x2:0x800084c8 PA:0x800084cd
       14655000	      1464	80000acc	01f11793	slli	x15,x2,0x1f	  x2:0x800084c8 x15=0x00000000
       14665000	      1465	80000ad0	b15a8513	addi	x10,x21,-1259	 x21:0x00008c8d x10=0x000087a2
       14675000	      1466	80000ad4	80d74893	xori	x17,x14,-2035	 x14:0x7c8bc6f3 x17=0x83743efe
       14685000	      1467	80000ad8	009c53b3	srl	x7,x24,x9	 x24:0x80009ec8  x9:0x00020002  x7=0x200027b2
       14695000	      1468	80000adc	ff310883	lb	x17,-13(x2)	  x2:0x800084c8 x17=0x0000003a PA:0x800084bb
       14705000	      1469	80000ae0	019a94b3	sll	x9,x21,x25	 x21:0x00008c8d x25:0x00000000  x9=0x00008c8d
       14715000	      1470	80000ae4	ffe11e03	lh	x28,-2(x2)	  x2:0x800084c8 x28=0x00000000 PA:0x800084c6
       14725000	      1471	80000ae8	00d10183	lb	x3,13(x2)	  x2:0x800084c8  x3=0xffffff8e PA:0x800084d5
       14735000	      1472	80000aec	ffc12903	lw	x18,-4(x2)	  x2:0x800084c8 x18=0x0000005a PA:0x800084c4
       14745000	      1473	80000af0	ff411f83	lh	x31,-12(x2)	  x2:0x800084c8 x31=0x00007677 PA:0x800084bc
       14755000	      1474	80000af4	ff510a83	lb	x21,-11(x2)	  x2:0x800084c8 x21=0x00000076 PA:0x800084bd
       14765000	      1475	80000af8	01b953b3	srl	x7,x18,x27	 x18:0x0000005a x27:0xea1bd000  x7=0x0000005a
       14775000	      1476	80000afc	00d19e33	sll	x28,x3,x13	  x3:0xffffff8e x13:0x00000001 x28=0xffffff1c
       14785000	      1477	80000b00	0033dfb3	srl	x31,x7,x3	  x7:0x0000005a  x3:0xffffff8e x31=0x00000000
       14795000	      1478	80000b04	01211393	slli	x7,x2,0x12	  x2:0x800084c8  x7=0x13200000
       14805000	      1479	80000b08	006026b3	slt	x13,x0,x6	  x0:0x00000000  x6:0x88898a8b x13=0x00000000
       14815000	      1480	80000b0c	ff210aa3	sb	x18,-11(x2)	  x2:0x800084c8 x18:0x0000005a PA:0x800084bd
       14825000	      1481	80000b10	01eacc63	blt	x21,x30,80000b28	 x21:0x00000076 x30:0x80009ec8
       14835000	      1482	80000b14	00b66863	bltu	x12,x11,80000b24	 x12:0x00003031 x11:0xffffffe0
       14845000	      1483	00000000	00000013	addi	x0,x0,0	  x0:0x00000000
       14855000	      1484	80000b20	00000013	addi	x0,x0,0	  x0:0x00000000
       14865000	      1485	80000b24	03858a63	beq	x11,x24,80000b58	 x11:0xffffffe0 x24:0x80009ec8
       14875000	      1486	80000b28	40795813	srai	x16,x18,0x7	 x18:0x0000005a x16=0x00000000
       14885000	      1487	80000b2c	0162e263	bltu	x5,x22,80000b30	  x5:0x0003a000 x22:0x00000001
       14895000	      1488	80000b30	01855633	srl	x12,x10,x24	 x10:0x000087a2 x24:0x80009ec8 x12=0x00000087
       14905000	      1489	80000b34	41558db3	sub	x27,x11,x21	 x11:0xffffffe0 x21:0x00000076 x27=0xffffff6a
       14915000	      1490	80000b38	bc417813	andi	x16,x2,-1084	  x2:0x800084c8 x16=0x800080c0
       14925000	      1491	80000b3c	0135b633	sltu	x12,x11,x19	 x11:0xffffffe0 x19:0x0000005a x12=0x00000000
       14935000	      1492	80000b40	401e5033	sra	x0,x28,x1	 x28:0xffffff1c  x1:0xfffffef3
       14945000	      1493	80000b44	01a41913	slli	x18,x8,0x1a	  x8:0x0000003a x18=0xe8000000
       14955000	      1494	80000b48	0186fd33	and	x26,x13,x24	 x13:0x00000000 x24:0x80009ec8 x26=0x00000000
       14965000	      1495	80000b4c	00355fb3	srl	x31,x10,x3	 x10:0x000087a2  x3:0xffffff8e x31=0x00000002
       14975000	      1496	80000b50	003b6e63	bltu	x22,x3,80000b6c	 x22:0x00000001  x3:0xffffff8e
       14985000	      1497	00000000	00000013	addi	x0,x0,0	  x0:0x00000000
       14995000	      1498	80000b68	00000013	addi	x0,x0,0	  x0:0x00000000
       15005000	      1499	80000b6c	032f6063	bltu	x30,x18,80000b8c	 x30:0x80009ec8 x18:0xe8000000
       15015000	      1500	00000000	00000013	addi	x0,x0,0	  x0:0x00000000
       15025000	      1501	80000b88	00000013	addi	x0,x0,0	  x0:0x00000000
       15035000	      1502	80000b8c	57273d93	sltiu	x27,x14,1394	 x14:0x7c8bc6f3 x27=0x00000000
       15045000	      1503	80000b90	0163a733	slt	x14,x7,x22	  x7:0x13200000 x22:0x00000001 x14=0x00000000
       15055000	      1504	80000b94	00b7de63	bge	x15,x11,80000bb0	 x15:0x00000000 x11:0xffffffe0
       15065000	      1505	00000000	00000013	addi	x0,x0,0	  x0:0x00000000
       15075000	      1506	80000bac	00000013	addi	x0,x0,0	  x0:0x00000000
       15085000	      1507	80000bb0	03337a63	bgeu	x6,x19,80000be4	  x6:0x88898a8b x19:0x0000005a
       15095000	      1508	00000000	00000013	addi	x0,x0,0	  x0:0x00000000
       15105000	      1509	80000be0	00000013	addi	x0,x0,0	  x0:0x00000000
       15115000	      1510	80000be4	038d5e63	bge	x26,x24,80000c20	 x26:0x00000000 x24:0x80009ec8
       15125000	      1511	00000000	00000013	addi	x0,x0,0	  x0:0x00000000
       15135000	      1512	80000c1c	00000013	addi	x0,x0,0	  x0:0x00000000
       15145000	      1513	80000c20	01229393	slli	x7,x5,0x12	  x5:0x0003a000  x7=0x80000000
       15155000	      1514	80000c24	0143a6b3	slt	x13,x7,x20	  x7:0x80000000 x20:0x80009fc4 x13=0x00000001
       15165000	      1515	80000c28	007e0863	beq	x28,x7,80000c38	 x28:0xffffff1c  x7:0x80000000
       15175000	      1516	80000c2c	4018d5b3	sra	x11,x17,x1	 x17:0x0000003a  x1:0xfffffef3 x11=0x00000000
       15185000	      1517	80000c30	4029d933	sra	x18,x19,x2	 x19:0x0000005a  x2:0x800084c8 x18=0x00000000
       15195000	      1518	80000c34	01aafe63	bgeu	x21,x26,80000c50	 x21:0x00000076 x26:0x00000000
       15205000	      1519	00000000	00000013	addi	x0,x0,0	  x0:0x00000000
       15215000	      1520	80000c4c	00000013	addi	x0,x0,0	  x0:0x00000000
       15225000	      1521	80000c50	05f09863	bne	x1,x31,80000ca0	  x1:0xfffffef3 x31:0x00000002
       15235000	      1522	00000000	00000013	addi	x0,x0,0	  x0:0x00000000
       15245000	      1523	80000c9c	00000013	addi	x0,x0,0	  x0:0x00000000
       15255000	      1524	80000ca0	04a46263	bltu	x8,x10,80000ce4	  x8:0x0000003a x10:0x000087a2
       15265000	      1525	00000000	00000013	addi	x0,x0,0	  x0:0x00000000
       15275000	      1526	80000ce0	00000013	addi	x0,x0,0	  x0:0x00000000
       15285000	      1527	80000ce4	000f1193	slli	x3,x30,0x0	 x30:0x80009ec8  x3=0x80009ec8
       15295000	      1528	80000ce8	01f234b3	sltu	x9,x4,x31	  x4:0x00000000 x31:0x00000002  x9=0x00000001
       15305000	      1529	80000cec	00219233	sll	x4,x3,x2	  x3:0x80009ec8  x2:0x800084c8  x4=0x009ec800
       15315000	      1530	80000cf0	0179c033	xor	x0,x19,x23	 x19:0x0000005a x23:0x7c8bc2f3
       15325000	      1531	80000cf4	00bd31b3	sltu	x3,x26,x11	 x26:0x00000000 x11:0x00000000  x3=0x00000000
       15335000	      1532	80000cf8	00c55533	srl	x10,x10,x12	 x10:0x000087a2 x12:0x00000000 x10=0x000087a2
       15345000	      1533	80000cfc	019cc633	xor	x12,x25,x25	 x25:0x00000000 x25:0x00000000 x12=0x00000000
       15355000	      1534	80000d00	0050f863	bgeu	x1,x5,80000d10	  x1:0xfffffef3  x5:0x0003a000
       15365000	      1535	00000000	00000013	addi	x0,x0,0	  x0:0x00000000
       15375000	      1536	80000d0c	00000013	addi	x0,x0,0	  x0:0x00000000
       15385000	      1537	80000d10	9e470613	addi	x12,x14,-1564	 x14:0x00000000 x12=0xfffff9e4
       15395000	      1538	80000d14	0427d863	bge	x15,x2,80000d64	 x15:0x00000000  x2:0x800084c8
       15405000	      1539	00000000	00000013	addi	x0,x0,0	  x0:0x00000000
       15415000	      1540	80000d60	00000013	addi	x0,x0,0	  x0:0x00000000
       15425000	      1541	80000d64	0820ec63	bltu	x1,x2,80000dfc	  x1:0xfffffef3  x2:0x800084c8
       15435000	      1542	80000d68	0a300063	beq	x0,x3,80000e08	  x0:0x00000000  x3:0x00000000
       15445000	      1543	00000000	00000013	addi	x0,x0,0	  x0:0x00000000
       15455000	      1544	80000e04	00000013	addi	x0,x0,0	  x0:0x00000000
       15465000	      1545	80000e08	00676233	or	x4,x14,x6	 x14:0x00000000  x6:0x88898a8b  x4=0x88898a8b
       15475000	      1546	80000e0c	01661f93	slli	x31,x12,0x16	 x12:0xfffff9e4 x31=0x79000000
       15485000	      1547	80000e10	ad9a7c13	andi	x24,x20,-1319	 x20:0x80009fc4 x24=0x80009ac0
       15495000	      1548	80000e14	0188a233	slt	x4,x17,x24	 x17:0x0000003a x24:0x80009ac0  x4=0x00000000
       15505000	      1549	80000e18	00000013	addi	x0,x0,0	  x0:0x00000000
       15515000	      1550	80000e1c	5cf1c437	lui	x8,0x5cf1c	  x8=0x5cf1c000
       15525000	      1551	80000e20	03468263	beq	x13,x20,80000e44	 x13:0x00000001 x20:0x80009fc4
       15535000	      1552	80000e24	00a6d613	srli	x12,x13,0xa	 x13:0x00000001 x12=0x00000000
       15545000	      1553	80000e28	016d5fb3	srl	x31,x26,x22	 x26:0x00000000 x22:0x00000001 x31=0x00000000
       15555000	      1554	80000e2c	59542393	slti	x7,x8,1429	  x8:0x5cf1c000  x7=0x00000000
       15565000	      1555	80000e30	29978313	addi	x6,x15,665	 x15:0x00000000  x6=0x00000299
       15575000	      1556	80000e34	d5da8993	addi	x19,x21,-675	 x21:0x00000076 x19=0xfffffdd3
       15585000	      1557	80000e38	01fa3cb3	sltu	x25,x20,x31	 x20:0x80009fc4 x31:0x00000000 x25=0x00000000
       15595000	      1558	80000e3c	03cc8263	beq	x25,x28,80000e60	 x25:0x00000000 x28:0xffffff1c
       15605000	      1559	80000e40	01178fb3	add	x31,x15,x17	 x15:0x00000000 x17:0x0000003a x31=0x0000003a
       15615000	      1560	80000e44	01add693	srli	x13,x27,0x1a	 x27:0x00000000 x13=0x00000000
       15625000	      1561	80000e48	3ab3b413	sltiu	x8,x7,939	  x7:0x00000000  x8=0x00000001
       15635000	      1562	80000e4c	e71f0013	addi	x0,x30,-399	 x30:0x80009ec8
       15645000	      1563	80000e50	01440033	add	x0,x8,x20	  x8:0x00000001 x20:0x80009fc4
       15655000	      1564	80000e54	034dea63	bltu	x27,x20,80000e88	 x27:0x00000000 x20:0x80009fc4
       15665000	      1565	00000000	00000013	addi	x0,x0,0	  x0:0x00000000
       15675000	      1566	80000e84	00000013	addi	x0,x0,0	  x0:0x00000000
       15685000	      1567	80000e88	0029e733	or	x14,x19,x2	 x19:0xfffffdd3  x2:0x800084c8 x14=0xfffffddb
       15695000	      1568	80000e8c	03615a63	bge	x2,x22,80000ec0	  x2:0x800084c8 x22:0x00000001
       15705000	      1569	80000e90	f60b3693	sltiu	x13,x22,-160	 x22:0x00000001 x13=0x00000001
       15715000	      1570	80000e94	9179b993	sltiu	x19,x19,-1769	 x19:0xfffffdd3 x19=0x00000000
       15725000	      1571	80000e98	417588b3	sub	x17,x11,x23	 x11:0x00000000 x23:0x7c8bc2f3 x17=0x83743d0d
       15735000	      1572	80000e9c	0089d193	srli	x3,x19,0x8	 x19:0x00000000  x3=0x00000000
       15745000	      1573	80000ea0	01a9c233	xor	x4,x19,x26	 x19:0x00000000 x26:0x00000000  x4=0x00000000
       15755000	      1574	80000ea4	001fa533	slt	x10,x31,x1	 x31:0x0000003a  x1:0xfffffef3 x10=0x00000000
       15765000	      1575	80000ea8	01162233	slt	x4,x12,x17	 x12:0x00000000 x17:0x83743d0d  x4=0x00000000
       15775000	      1576	80000eac	006b1863	bne	x22,x6,80000ebc	 x22:0x00000001  x6:0x00000299
       15785000	      1577	00000000	00000013	addi	x0,x0,0	  x0:0x00000000
       15795000	      1578	80000eb8	00000013	addi	x0,x0,0	  x0:0x00000000
       15805000	      1579	80000ebc	013408b3	add	x17,x8,x19	  x8:0x00000001 x19:0x00000000 x17=0x00000001
       15815000	      1580	80000ec0	4a03ac93	slti	x25,x7,1184	  x7:0x00000000 x25=0x00000001
       15825000	      1581	80000ec4	0065fd33	and	x26,x11,x6	 x11:0x00000000  x6:0x00000299 x26=0x00000000
       15835000	      1582	80000ec8	01e505b3	add	x11,x10,x30	 x10:0x00000000 x30:0x80009ec8 x11=0x80009ec8
       15845000	      1583	80000ecc	cf850013	addi	x0,x10,-776	 x10:0x00000000
       15855000	      1584	80000ed0	0009feb3	and	x29,x19,x0	 x19:0x00000000  x0:0x00000000 x29=0x00000000
       15865000	      1585	80000ed4	03819a63	bne	x3,x24,80000f08	  x3:0x00000000 x24:0x80009ac0
       15875000	      1586	00000000	00000013	addi	x0,x0,0	  x0:0x00000000
       15885000	      1587	80000f04	00000013	addi	x0,x0,0	  x0:0x00000000
       15895000	      1588	80000f08	01227eb3	and	x29,x4,x18	  x4:0x00000000 x18:0x00000000 x29=0x00000000
       15905000	      1589	80000f0c	0316d263	bge	x13,x17,80000f30	 x13:0x00000001 x17:0x00000001
       15915000	      1590	00000000	00000013	addi	x0,x0,0	  x0:0x00000000
       15925000	      1591	80000f2c	00000013	addi	x0,x0,0	  x0:0x00000000
       15935000	      1592	80000f30	0227ec63	bltu	x15,x2,80000f68	 x15:0x00000000  x2:0x800084c8
       15945000	      1593	00000000	00000013	addi	x0,x0,0	  x0:0x00000000
       15955000	      1594	80000f64	00000013	addi	x0,x0,0	  x0:0x00000000
       15965000	      1595	80000f68	01690533	add	x10,x18,x22	 x18:0x00000000 x22:0x00000001 x10=0x00000001
       15975000	      1596	80000f6c	00000013	addi	x0,x0,0	  x0:0x00000000
       15985000	      1597	80000f70	0179db33	srl	x22,x19,x23	 x19:0x00000000 x23:0x7c8bc2f3 x22=0x00000000
       15995000	      1598	80000f74	01f760b3	or	x1,x14,x31	 x14:0xfffffddb x31:0x0000003a  x1=0xfffffdfb
       16005000	      1599	80000f78	01c25193	srli	x3,x4,0x1c	  x4:0x00000000  x3=0x00000000
       16015000	      1600	80000f7c	0198b5b3	sltu	x11,x17,x25	 x17:0x00000001 x25:0x00000001 x11=0x00000000
       16025000	      1601	80000f80	0054fb33	and	x22,x9,x5	  x9:0x00000001  x5:0x0003a000 x22=0x00000000
       16035000	      1602	80000f84	00000013	addi	x0,x0,0	  x0:0x00000000
       16045000	      1603	80000f88	409f55b3	sra	x11,x30,x9	 x30:0x80009ec8  x9:0x00000001 x11=0xc0004f64
       16055000	      1604	80000f8c	01620133	add	x2,x4,x22	  x4:0x00000000 x22:0x00000000  x2=0x00000000
       16065000	      1605	80000f90	01f2c463	blt	x5,x31,80000f98	  x5:0x0003a000 x31:0x0000003a
       16075000	      1606	80000f94	0054d1b3	srl	x3,x9,x5	  x9:0x00000001  x5:0x0003a000  x3=0x00000001
       16085000	      1607	80000f98	01328c33	add	x24,x5,x19	  x5:0x0003a000 x19:0x00000000 x24=0x0003a000
       16095000	      1608	80000f9c	00ec4833	xor	x16,x24,x14	 x24:0x0003a000 x14:0xfffffddb x16=0xfffc5ddb
       16105000	      1609	80000fa0	fd1fc493	xori	x9,x31,-47	 x31:0x0000003a  x9=0xffffffeb
       16115000	      1610	80000fa4	01bf2533	slt	x10,x30,x27	 x30:0x80009ec8 x27:0x00000000 x10=0x00000001
       16125000	      1611	80000fa8	4083d213	srai	x4,x7,0x8	  x7:0x00000000  x4=0x00000000
       16135000	      1612	80000fac	05898863	beq	x19,x24,80000ffc	 x19:0x00000000 x24:0x0003a000
       16145000	      1613	80000fb0	01e3d013	srli	x0,x7,0x1e	  x7:0x00000000
       16155000	      1614	80000fb4	00cec863	blt	x29,x12,80000fc4	 x29:0x00000000 x12:0x00000000
       16165000	      1615	80000fb8	00d9eb33	or	x22,x19,x13	 x19:0x00000000 x13:0x00000001 x22=0x00000001
       16175000	      1616	80000fbc	a1fb7413	andi	x8,x22,-1505	 x22:0x00000001  x8=0x00000001
       16185000	      1617	80000fc0	01b69d93	slli	x27,x13,0x1b	 x13:0x00000001 x27=0x08000000
       16195000	      1618	80000fc4	03718e63	beq	x3,x23,80001000	  x3:0x00000001 x23:0x7c8bc2f3
       16205000	      1619	80000fc8	00c85193	srli	x3,x16,0xc	 x16:0xfffc5ddb  x3=0x000fffc5
       16215000	      1620	80000fcc	41838833	sub	x16,x7,x24	  x7:0x00000000 x24:0x0003a000 x16=0xfffc6000
       16225000	      1621	80000fd0	f5e32293	slti	x5,x6,-162	  x6:0x00000299  x5=0x00000000
       16235000	      1622	80000fd4	0162b2b3	sltu	x5,x5,x22	  x5:0x00000000 x22:0x00000001  x5=0x00000001
       16245000	      1623	80000fd8	01c35513	srli	x10,x6,0x1c	  x6:0x00000299 x10=0x00000000
       16255000	      1624	80000fdc	168ffa93	andi	x21,x31,360	 x31:0x0000003a x21=0x00000028
       16265000	      1625	80000fe0	02a25863	bge	x4,x10,80001010	  x4:0x00000000 x10:0x00000000
       16275000	      1626	00000000	00000013	addi	x0,x0,0	  x0:0x00000000
       16285000	      1627	8000100c	00000013	addi	x0,x0,0	  x0:0x00000000
       16295000	      1628	80001010	02f4fa63	bgeu	x9,x15,80001044	  x9:0xffffffeb x15:0x00000000
       16305000	      1629	00000000	00000013	addi	x0,x0,0	  x0:0x00000000
       16315000	      1630	80001040	00000013	addi	x0,x0,0	  x0:0x00000000
       16325000	      1631	80001044	031c9863	bne	x25,x17,80001074	 x25:0x00000001 x17:0x00000001
       16335000	      1632	80001048	002f4cb3	xor	x25,x30,x2	 x30:0x80009ec8  x2:0x00000000 x25=0x80009ec8
       16345000	      1633	8000104c	0d1c9e63	bne	x25,x17,80001128	 x25:0x80009ec8 x17:0x00000001
       16355000	      1634	00000000	00000013	addi	x0,x0,0	  x0:0x00000000
       16365000	      1635	80001124	00000013	addi	x0,x0,0	  x0:0x00000000
       16375000	      1636	80001128	00000013	addi	x0,x0,0	  x0:0x00000000
       16385000	      1637	8000112c	00892d33	slt	x26,x18,x8	 x18:0x00000000  x8:0x00000001 x26=0x00000001
       16395000	      1638	80001130	003dd633	srl	x12,x27,x3	 x27:0x08000000  x3:0x000fffc5 x12=0x00400000
       16405000	      1639	80001134	036a4813	xori	x16,x20,54	 x20:0x80009fc4 x16=0x80009ff2
       16415000	      1640	80001138	0539d863	bge	x19,x19,80001188	 x19:0x00000000 x19:0x00000000
       16425000	      1641	00000000	00000013	addi	x0,x0,0	  x0:0x00000000
       16435000	      1642	80001184	00000013	addi	x0,x0,0	  x0:0x00000000
       16445000	      1643	80001188	00290263	beq	x18,x2,8000118c	 x18:0x00000000  x2:0x00000000
       16455000	      1644	00000000	00000013	addi	x0,x0,0	  x0:0x00000000
       16465000	      1645	80001188	00000013	addi	x0,x0,0	  x0:0x00000000
       16475000	      1646	8000118c	01033993	sltiu	x19,x6,16	  x6:0x00000299 x19=0x00000000
       16485000	      1647	80001190	00000013	addi	x0,x0,0	  x0:0x00000000
       16495000	      1648	80001194	00000013	addi	x0,x0,0	  x0:0x00000000
       16505000	      1649	80001198	418b5eb3	sra	x29,x22,x24	 x22:0x00000001 x24:0x0003a000 x29=0x00000001
       16515000	      1650	8000119c	01a093b3	sll	x7,x1,x26	  x1:0xfffffdfb x26:0x00000001  x7=0xfffffbf6
       16525000	      1651	800011a0	05c97863	bgeu	x18,x28,800011f0	 x18:0x00000000 x28:0xffffff1c
       16535000	      1652	800011a4	40618833	sub	x16,x3,x6	  x3:0x000fffc5  x6:0x00000299 x16=0x000ffd2c
       16545000	      1653	800011a8	00365433	srl	x8,x12,x3	 x12:0x00400000  x3:0x000fffc5  x8=0x00020000
       16555000	      1654	800011ac	1b7ae393	ori	x7,x21,439	 x21:0x00000028  x7=0x000001bf
       16565000	      1655	800011b0	00fa5733	srl	x14,x20,x15	 x20:0x80009fc4 x15:0x00000000 x14=0x80009fc4
       16575000	      1656	800011b4	000ce733	or	x14,x25,x0	 x25:0x80009ec8  x0:0x00000000 x14=0x80009ec8
       16585000	      1657	800011b8	aafcc737	lui	x14,0xaafcc	 x14=0xaafcc000
       16595000	      1658	800011bc	008ab5b3	sltu	x11,x21,x8	 x21:0x00000028  x8:0x00020000 x11=0x00000001
       16605000	      1659	800011c0	f9a8c613	xori	x12,x17,-102	 x17:0x00000001 x12=0xffffff9b
       16615000	      1660	800011c4	9cd8a893	slti	x17,x17,-1587	 x17:0x00000001 x17=0x00000000
       16625000	      1661	800011c8	40038cb3	sub	x25,x7,x0	  x7:0x000001bf  x0:0x00000000 x25=0x000001bf
       16635000	      1662	800011cc	00e05613	srli	x12,x0,0xe	  x0:0x00000000 x12=0x00000000
       16645000	      1663	800011d0	015d5613	srli	x12,x26,0x15	 x26:0x00000001 x12=0x00000000
       16655000	      1664	800011d4	4139d113	srai	x2,x19,0x13	 x19:0x00000000  x2=0x00000000
       16665000	      1665	800011d8	01498c63	beq	x19,x20,800011f0	 x19:0x00000000 x20:0x80009fc4
       16675000	      1666	800011dc	009bf0b3	and	x1,x23,x9	 x23:0x7c8bc2f3  x9:0xffffffeb  x1=0x7c8bc2e3
       16685000	      1667	800011e0	65670793	addi	x15,x14,1622	 x14:0xaafcc000 x15=0xaafcc656
       16695000	      1668	800011e4	c8a86013	ori	x0,x16,-886	 x16:0x000ffd2c
       16705000	      1669	800011e8	00757e33	and	x28,x10,x7	 x10:0x00000000  x7:0x000001bf x28=0x00000000
       16715000	      1670	800011ec	016bfeb3	and	x29,x23,x22	 x23:0x7c8bc2f3 x22:0x00000001 x29=0x00000001
       16725000	      1671	800011f0	0201ca63	blt	x3,x0,80001224	  x3:0x000fffc5  x0:0x00000000
       16735000	      1672	800011f4	002aee63	bltu	x21,x2,80001210	 x21:0x00000028  x2:0x00000000
       16745000	      1673	800011f8	005699b3	sll	x19,x13,x5	 x13:0x00000001  x5:0x00000001 x19=0x00000002
       16755000	      1674	800011fc	00f03e33	sltu	x28,x0,x15	  x0:0x00000000 x15:0xaafcc656 x28=0x00000001
       16765000	      1675	80001200	41328e33	sub	x28,x5,x19	  x5:0x00000001 x19:0x00000002 x28=0xffffffff
       16775000	      1676	80001204	ff2280b7	lui	x1,0xff228	  x1=0xff228000
       16785000	      1677	80001208	01d7bdb3	sltu	x27,x15,x29	 x15:0xaafcc656 x29:0x00000001 x27=0x00000000
       16795000	      1678	8000120c	01e69e33	sll	x28,x13,x30	 x13:0x00000001 x30:0x80009ec8 x28=0x00000100
       16805000	      1679	80001210	01ee9863	bne	x29,x30,80001220	 x29:0x00000001 x30:0x80009ec8
       16815000	      1680	00000000	00000013	addi	x0,x0,0	  x0:0x00000000
       16825000	      1681	8000121c	00000013	addi	x0,x0,0	  x0:0x00000000
       16835000	      1682	80001220	040d0663	beq	x26,x0,8000126c	 x26:0x00000001  x0:0x00000000
       16845000	      1683	80001224	03cfd263	bge	x31,x28,80001248	 x31:0x0000003a x28:0x00000100
       16855000	      1684	80001228	01bfc2b3	xor	x5,x31,x27	 x31:0x0000003a x27:0x00000000  x5=0x0000003a
       16865000	      1685	8000122c	0127dd93	srli	x27,x15,0x12	 x15:0xaafcc656 x27=0x00002abf
       16875000	      1686	80001230	cf9f6717	auipc	x14,0xcf9f6	 x14=0x4f9f722c
       16885000	      1687	80001234	02be1063	bne	x28,x11,80001254	 x28:0x00000100 x11:0x00000001
       16895000	      1688	00000000	00000013	addi	x0,x0,0	  x0:0x00000000
       16905000	      1689	80001250	00000013	addi	x0,x0,0	  x0:0x00000000
       16915000	      1690	80001254	007dc463	blt	x27,x7,8000125c	 x27:0x00002abf  x7:0x000001bf
       16925000	      1691	80001258	019963b3	or	x7,x18,x25	 x18:0x00000000 x25:0x000001bf  x7=0x000001bf
       16935000	      1692	8000125c	412d5033	sra	x0,x26,x18	 x26:0x00000001 x18:0x00000000
       16945000	      1693	80001260	784a1037	lui	x0,0x784a1	
       16955000	      1694	80001264	ff1f3113	sltiu	x2,x30,-15	 x30:0x80009ec8  x2=0x00000001
       16965000	      1695	80001268	03fa1263	bne	x20,x31,8000128c	 x20:0x80009fc4 x31:0x0000003a
       16975000	      1696	00000000	00000013	addi	x0,x0,0	  x0:0x00000000
       16985000	      1697	80001288	00000013	addi	x0,x0,0	  x0:0x00000000
       16995000	      1698	8000128c	00df1233	sll	x4,x30,x13	 x30:0x80009ec8 x13:0x00000001  x4=0x00013d90
       17005000	      1699	80001290	fdff7893	andi	x17,x30,-33	 x30:0x80009ec8 x17=0x80009ec8
       17015000	      1700	80001294	00089233	sll	x4,x17,x0	 x17:0x80009ec8  x0:0x00000000  x4=0x80009ec8
       17025000	      1701	80001298	02c37a63	bgeu	x6,x12,800012cc	  x6:0x00000299 x12:0x00000000
       17035000	      1702	00000000	00000013	addi	x0,x0,0	  x0:0x00000000
       17045000	      1703	800012c8	00000013	addi	x0,x0,0	  x0:0x00000000
       17055000	      1704	800012cc	b5238493	addi	x9,x7,-1198	  x7:0x000001bf  x9=0xfffffd11
       17065000	      1705	800012d0	003e57b3	srl	x15,x28,x3	 x28:0x00000100  x3:0x000fffc5 x15=0x00000008
       17075000	      1706	800012d4	00d7d393	srli	x7,x15,0xd	 x15:0x00000008  x7=0x00000000
       17085000	      1707	800012d8	f4e7a613	slti	x12,x15,-178	 x15:0x00000008 x12=0x00000000
       17095000	      1708	800012dc	02bac663	blt	x21,x11,80001308	 x21:0x00000028 x11:0x00000001
       17105000	      1709	800012e0	03cbda63	bge	x23,x28,80001314	 x23:0x7c8bc2f3 x28:0x00000100
       17115000	      1710	00000000	00000013	addi	x0,x0,0	  x0:0x00000000
       17125000	      1711	80001310	00000013	addi	x0,x0,0	  x0:0x00000000
       17135000	      1712	80001314	6a2eb593	sltiu	x11,x29,1698	 x29:0x00000001 x11=0x00000001
       17145000	      1713	80001318	00d905b3	add	x11,x18,x13	 x18:0x00000000 x13:0x00000001 x11=0x00000001
       17155000	      1714	8000131c	00de47b3	xor	x15,x28,x13	 x28:0x00000100 x13:0x00000001 x15=0x00000101
       17165000	      1715	80001320	405ad333	sra	x6,x21,x5	 x21:0x00000028  x5:0x0000003a  x6=0x00000000
       17175000	      1716	80001324	012fd433	srl	x8,x31,x18	 x31:0x0000003a x18:0x00000000  x8=0x0000003a
       17185000	      1717	80001328	009b1293	slli	x5,x22,0x9	 x22:0x00000001  x5=0x00000200
       17195000	      1718	8000132c	011ff863	bgeu	x31,x17,8000133c	 x31:0x0000003a x17:0x80009ec8
       17205000	      1719	80001330	01c0fe63	bgeu	x1,x28,8000134c	  x1:0xff228000 x28:0x00000100
       17215000	      1720	00000000	00000013	addi	x0,x0,0	  x0:0x00000000
       17225000	      1721	80001348	00000013	addi	x0,x0,0	  x0:0x00000000
       17235000	      1722	8000134c	cbf06d93	ori	x27,x0,-833	  x0:0x00000000 x27=0xfffffcbf
       17245000	      1723	80001350	02338263	beq	x7,x3,80001374	  x7:0x00000000  x3:0x000fffc5
       17255000	      1724	80001354	005441b3	xor	x3,x8,x5	  x8:0x0000003a  x5:0x00000200  x3=0x0000023a
       17265000	      1725	80001358	0071a3b3	slt	x7,x3,x7	  x3:0x0000023a  x7:0x00000000  x7=0x00000000
       17275000	      1726	8000135c	00e86933	or	x18,x16,x14	 x16:0x000ffd2c x14:0x4f9f722c x18=0x4f9fff2c
       17285000	      1727	80001360	01e50833	add	x16,x10,x30	 x10:0x00000000 x30:0x80009ec8 x16=0x80009ec8
       17295000	      1728	80001364	001a74b3	and	x9,x20,x1	 x20:0x80009fc4  x1:0xff228000  x9=0x80008000
       17305000	      1729	80001368	04cd8863	beq	x27,x12,800013b8	 x27:0xfffffcbf x12:0x00000000
       17315000	      1730	8000136c	00b181b3	add	x3,x3,x11	  x3:0x0000023a x11:0x00000001  x3=0x0000023b
       17325000	      1731	80001370	008ff5b3	and	x11,x31,x8	 x31:0x0000003a  x8:0x0000003a x11=0x0000003a
       17335000	      1732	80001374	0065c863	blt	x11,x6,80001384	 x11:0x0000003a  x6:0x00000000
       17345000	      1733	80001378	535f3693	sltiu	x13,x30,1333	 x30:0x80009ec8 x13=0x00000000
       17355000	      1734	8000137c	00d31c13	slli	x24,x6,0xd	  x6:0x00000000 x24=0x00000000
       17365000	      1735	80001380	92bfbd93	sltiu	x27,x31,-1749	 x31:0x0000003a x27=0x00000001
       17375000	      1736	80001384	050d7663	bgeu	x26,x16,800013d0	 x26:0x00000001 x16:0x80009ec8
       17385000	      1737	80001388	6f75a093	slti	x1,x11,1783	 x11:0x0000003a  x1=0x00000001
       17395000	      1738	8000138c	03998263	beq	x19,x25,800013b0	 x19:0x00000002 x25:0x000001bf
       17405000	      1739	80001390	8dc36393	ori	x7,x6,-1828	  x6:0x00000000  x7=0xfffff8dc
       17415000	      1740	80001394	ab696013	ori	x0,x18,-1354	 x18:0x4f9fff2c
       17425000	      1741	80001398	02210a63	beq	x2,x2,800013cc	  x2:0x00000001  x2:0x00000001
       17435000	      1742	00000000	00000013	addi	x0,x0,0	  x0:0x00000000
       17445000	      1743	800013c8	00000013	addi	x0,x0,0	  x0:0x00000000
       17455000	      1744	800013cc	0c5afa63	bgeu	x21,x5,800014a0	 x21:0x00000028  x5:0x00000200
       17465000	      1745	800013d0	016a8663	beq	x21,x22,800013dc	 x21:0x00000028 x22:0x00000001
       17475000	      1746	800013d4	002ab633	sltu	x12,x21,x2	 x21:0x00000028  x2:0x00000001 x12=0x00000000
       17485000	      1747	800013d8	0a2ef863	bgeu	x29,x2,80001488	 x29:0x00000001  x2:0x00000001
       17495000	      1748	00000000	00000013	addi	x0,x0,0	  x0:0x00000000
       17505000	      1749	80001484	00000013	addi	x0,x0,0	  x0:0x00000000
       17515000	      1750	80001488	00b1d333	srl	x6,x3,x11	  x3:0x0000023b x11:0x0000003a  x6=0x00000000
       17525000	      1751	8000148c	b349ddb7	lui	x27,0xb349d	 x27=0xb349d000
       17535000	      1752	80001490	01dc3233	sltu	x4,x24,x29	 x24:0x00000000 x29:0x00000001  x4=0x00000001
       17545000	      1753	80001494	0030f1b3	and	x3,x1,x3	  x1:0x00000001  x3:0x0000023b  x3=0x00000001
       17555000	      1754	80001498	00000013	addi	x0,x0,0	  x0:0x00000000
       17565000	      1755	8000149c	01a275b3	and	x11,x4,x26	  x4:0x00000001 x26:0x00000001 x11=0x00000001
       17575000	      1756	800014a0	00000013	addi	x0,x0,0	  x0:0x00000000
       17585000	      1757	800014a4	07f1a693	slti	x13,x3,127	  x3:0x00000001 x13=0x00000001
       17595000	      1758	800014a8	00000013	addi	x0,x0,0	  x0:0x00000000
       17605000	      1759	800014ac	41108ab3	sub	x21,x1,x17	  x1:0x00000001 x17:0x80009ec8 x21=0x7fff6139
       17615000	      1760	800014b0	db6c7b13	andi	x22,x24,-586	 x24:0x00000000 x22=0x00000000
       17625000	      1761	800014b4	653c7693	andi	x13,x24,1619	 x24:0x00000000 x13=0x00000000
       17635000	      1762	800014b8	0007cdb3	xor	x27,x15,x0	 x15:0x00000101  x0:0x00000000 x27=0x00000101
       17645000	      1763	800014bc	02e04c63	blt	x0,x14,800014f4	  x0:0x00000000 x14:0x4f9f722c
       17655000	      1764	00000000	00000013	addi	x0,x0,0	  x0:0x00000000
       17665000	      1765	800014f0	00000013	addi	x0,x0,0	  x0:0x00000000
       17675000	      1766	800014f4	4166d093	srai	x1,x13,0x16	 x13:0x00000000  x1=0x00000000
       17685000	      1767	800014f8	9aed6797	auipc	x15,0x9aed6	 x15=0x1aed74f4
       17695000	      1768	800014fc	01d65863	bge	x12,x29,8000150c	 x12:0x00000000 x29:0x00000001
       17705000	      1769	80001500	0141f5b3	and	x11,x3,x20	  x3:0x00000001 x20:0x80009fc4 x11=0x00000000
       17715000	      1770	80001504	03117263	bgeu	x2,x17,80001528	  x2:0x00000001 x17:0x80009ec8
       17725000	      1771	80001508	40a05013	srai	x0,x0,0xa	  x0:0x00000000
       17735000	      1772	8000150c	004e9793	slli	x15,x29,0x4	 x29:0x00000001 x15=0x00000010
       17745000	      1773	80001510	01bb8863	beq	x23,x27,80001520	 x23:0x7c8bc2f3 x27:0x00000101
       17755000	      1774	80001514	021c6a63	bltu	x24,x1,80001548	 x24:0x00000000  x1:0x00000000
       17765000	      1775	80001518	01763c33	sltu	x24,x12,x23	 x12:0x00000000 x23:0x7c8bc2f3 x24=0x00000001
       17775000	      1776	8000151c	00c427b3	slt	x15,x8,x12	  x8:0x0000003a x12:0x00000000 x15=0x00000000
       17785000	      1777	80001520	00d306b7	lui	x13,0xd30	 x13=0x00d30000
       17795000	      1778	80001524	00dc6863	bltu	x24,x13,80001534	 x24:0x00000001 x13:0x00d30000
       17805000	      1779	00000000	00000013	addi	x0,x0,0	  x0:0x00000000
       17815000	      1780	80001530	00000013	addi	x0,x0,0	  x0:0x00000000
       17825000	      1781	80001534	0133efb3	or	x31,x7,x19	  x7:0xfffff8dc x19:0x00000002 x31=0xfffff8de
       17835000	      1782	80001538	0140b2b3	sltu	x5,x1,x20	  x1:0x00000000 x20:0x80009fc4  x5=0x00000001
       17845000	      1783	8000153c	01b2ee63	bltu	x5,x27,80001558	  x5:0x00000001 x27:0x00000101
       17855000	      1784	00000000	00000013	addi	x0,x0,0	  x0:0x00000000
       17865000	      1785	80001554	00000013	addi	x0,x0,0	  x0:0x00000000
       17875000	      1786	80001558	03ad5a63	bge	x26,x26,8000158c	 x26:0x00000001 x26:0x00000001
       17885000	      1787	00000000	00000013	addi	x0,x0,0	  x0:0x00000000
       17895000	      1788	80001588	00000013	addi	x0,x0,0	  x0:0x00000000
       17905000	      1789	8000158c	41255513	srai	x10,x10,0x12	 x10:0x00000000 x10=0x00000000
       17915000	      1790	80001590	00d65193	srli	x3,x12,0xd	 x12:0x00000000  x3=0x00000000
       17925000	      1791	80001594	20e1c813	xori	x16,x3,526	  x3:0x00000000 x16=0x0000020e
       17935000	      1792	80001598	416cd033	sra	x0,x25,x22	 x25:0x000001bf x22:0x00000000
       17945000	      1793	8000159c	014fe733	or	x14,x31,x20	 x31:0xfffff8de x20:0x80009fc4 x14=0xffffffde
       17955000	      1794	800015a0	00000013	addi	x0,x0,0	  x0:0x00000000
       17965000	      1795	800015a4	00000013	addi	x0,x0,0	  x0:0x00000000
       17975000	      1796	800015a8	00cd0e63	beq	x26,x12,800015c4	 x26:0x00000001 x12:0x00000000
       17985000	      1797	800015ac	006d1433	sll	x8,x26,x6	 x26:0x00000001  x6:0x00000000  x8=0x00000001
       17995000	      1798	800015b0	f1f54113	xori	x2,x10,-225	 x10:0x00000000  x2=0xffffff1f
       18005000	      1799	800015b4	814b0b13	addi	x22,x22,-2028	 x22:0x00000000 x22=0xfffff814
       18015000	      1800	800015b8	a1282513	slti	x10,x16,-1518	 x16:0x0000020e x10=0x00000000
       18025000	      1801	800015bc	009d5c13	srli	x24,x26,0x9	 x26:0x00000001 x24=0x00000000
       18035000	      1802	800015c0	006aec33	or	x24,x21,x6	 x21:0x7fff6139  x6:0x00000000 x24=0x7fff6139
       18045000	      1803	800015c4	8fd1a337	lui	x6,0x8fd1a	  x6=0x8fd1a000
       18055000	      1804	800015c8	002b5c63	bge	x22,x2,800015e0	 x22:0xfffff814  x2:0xffffff1f
       18065000	      1805	800015cc	05819863	bne	x3,x24,8000161c	  x3:0x00000000 x24:0x7fff6139
       18075000	      1806	00000000	00000013	addi	x0,x0,0	  x0:0x00000000
       18085000	      1807	80001618	00000013	addi	x0,x0,0	  x0:0x00000000
       18095000	      1808	8000161c	01772233	slt	x4,x14,x23	 x14:0xffffffde x23:0x7c8bc2f3  x4=0x00000001
       18105000	      1809	80001620	8bd3bc93	sltiu	x25,x7,-1859	  x7:0xfffff8dc x25=0x00000000
       18115000	      1810	80001624	0155b7b3	sltu	x15,x11,x21	 x11:0x00000000 x21:0x7fff6139 x15=0x00000001
       18125000	      1811	80001628	01a2deb3	srl	x29,x5,x26	  x5:0x00000001 x26:0x00000001 x29=0x00000000
       18135000	      1812	8000162c	00df6cb3	or	x25,x30,x13	 x30:0x80009ec8 x13:0x00d30000 x25=0x80d39ec8
       18145000	      1813	80001630	00244e33	xor	x28,x8,x2	  x8:0x00000001  x2:0xffffff1f x28=0xffffff1e
       18155000	      1814	80001634	009dfeb3	and	x29,x27,x9	 x27:0x00000101  x9:0x80008000 x29=0x00000000
       18165000	      1815	80001638	03377e63	bgeu	x14,x19,80001674	 x14:0xffffffde x19:0x00000002
       18175000	      1816	00000000	00000013	addi	x0,x0,0	  x0:0x00000000
       18185000	      1817	80001670	00000013	addi	x0,x0,0	  x0:0x00000000
       18195000	      1818	80001674	40220333	sub	x6,x4,x2	  x4:0x00000001  x2:0xffffff1f  x6=0x000000e2
       18205000	      1819	80001678	01b84e63	blt	x16,x27,80001694	 x16:0x0000020e x27:0x00000101
       18215000	      1820	8000167c	3fb45db7	lui	x27,0x3fb45	 x27=0x3fb45000
       18225000	      1821	80001680	5dd4e1b7	lui	x3,0x5dd4e	  x3=0x5dd4e000
       18235000	      1822	80001684	ae413d93	sltiu	x27,x2,-1308	  x2:0xffffff1f x27=0x00000000
       18245000	      1823	80001688	000a2333	slt	x6,x20,x0	 x20:0x80009fc4  x0:0x00000000  x6=0x00000001
       18255000	      1824	8000168c	00eddcb3	srl	x25,x27,x14	 x27:0x00000000 x14:0xffffffde x25=0x00000000
       18265000	      1825	80001690	01599fb3	sll	x31,x19,x21	 x19:0x00000002 x21:0x7fff6139 x31=0x04000000
       18275000	      1826	80001694	007bb833	sltu	x16,x23,x7	 x23:0x7c8bc2f3  x7:0xfffff8dc x16=0x00000001
       18285000	      1827	80001698	007b9e33	sll	x28,x23,x7	 x23:0x7c8bc2f3  x7:0xfffff8dc x28=0x30000000
       18295000	      1828	8000169c	000f91b3	sll	x3,x31,x0	 x31:0x04000000  x0:0x00000000  x3=0x04000000
       18305000	      1829	800016a0	01aa9863	bne	x21,x26,800016b0	 x21:0x7fff6139 x26:0x00000001
       18315000	      1830	00000000	00000013	addi	x0,x0,0	  x0:0x00000000
       18325000	      1831	800016ac	00000013	addi	x0,x0,0	  x0:0x00000000
       18335000	      1832	800016b0	018ee8b3	or	x17,x29,x24	 x29:0x00000000 x24:0x7fff6139 x17=0x7fff6139
       18345000	      1833	800016b4	bbae6613	ori	x12,x28,-1094	 x28:0x30000000 x12=0xfffffbba
       18355000	      1834	800016b8	00495fb3	srl	x31,x18,x4	 x18:0x4f9fff2c  x4:0x00000001 x31=0x27cfff96
       18365000	      1835	800016bc	000d5c13	srli	x24,x26,0x0	 x26:0x00000001 x24=0x00000001
       18375000	      1836	800016c0	01d01213	slli	x4,x0,0x1d	  x0:0x00000000  x4=0x00000000
       18385000	      1837	800016c4	00ad1b33	sll	x22,x26,x10	 x26:0x00000001 x10:0x00000000 x22=0x00000001
       18395000	      1838	800016c8	0238c863	blt	x17,x3,800016f8	 x17:0x7fff6139  x3:0x04000000
       18405000	      1839	800016cc	1f122993	slti	x19,x4,497	  x4:0x00000000 x19=0x00000001
       18415000	      1840	800016d0	40720433	sub	x8,x4,x7	  x4:0x00000000  x7:0xfffff8dc  x8=0x00000724
       18425000	      1841	800016d4	008e9c93	slli	x25,x29,0x8	 x29:0x00000000 x25=0x00000000
       18435000	      1842	800016d8	977bc4b7	lui	x9,0x977bc	  x9=0x977bc000
       18445000	      1843	800016dc	e00e0913	addi	x18,x28,-512	 x28:0x30000000 x18=0x2ffffe00
       18455000	      1844	800016e0	01d0de63	bge	x1,x29,800016fc	  x1:0x00000000 x29:0x00000000
       18465000	      1845	00000000	00000013	addi	x0,x0,0	  x0:0x00000000
       18475000	      1846	800016f8	00000013	addi	x0,x0,0	  x0:0x00000000
       18485000	      1847	800016fc	00170133	add	x2,x14,x1	 x14:0xffffffde  x1:0x00000000  x2=0xffffffde
       18495000	      1848	80001700	0085d6b3	srl	x13,x11,x8	 x11:0x00000000  x8:0x00000724 x13=0x00000000
       18505000	      1849	80001704	033e1c63	bne	x28,x19,8000173c	 x28:0x30000000 x19:0x00000001
       18515000	      1850	00000000	00000013	addi	x0,x0,0	  x0:0x00000000
       18525000	      1851	80001738	00000013	addi	x0,x0,0	  x0:0x00000000
       18535000	      1852	8000173c	8e3d6d37	lui	x26,0x8e3d6	 x26=0x8e3d6000
       18545000	      1853	80001740	00509263	bne	x1,x5,80001744	  x1:0x00000000  x5:0x00000001
       18555000	      1854	00000000	00000013	addi	x0,x0,0	  x0:0x00000000
       18565000	      1855	80001740	00000013	addi	x0,x0,0	  x0:0x00000000
       18575000	      1856	80001744	001cd663	bge	x25,x1,80001750	 x25:0x00000000  x1:0x00000000
       18585000	      1857	00000000	00000013	addi	x0,x0,0	  x0:0x00000000
       18595000	      1858	8000174c	00000013	addi	x0,x0,0	  x0:0x00000000
       18605000	      1859	80001750	9d8def93	ori	x31,x27,-1576	 x27:0x00000000 x31=0xfffff9d8
       18615000	      1860	80001754	049cd863	bge	x25,x9,800017a4	 x25:0x00000000  x9:0x977bc000
       18625000	      1861	00000000	00000013	addi	x0,x0,0	  x0:0x00000000
       18635000	      1862	800017a0	00000013	addi	x0,x0,0	  x0:0x00000000
       18645000	      1863	800017a4	005b66b3	or	x13,x22,x5	 x22:0x00000001  x5:0x00000001 x13=0x00000001
       18655000	      1864	800017a8	02531263	bne	x6,x5,800017cc	  x6:0x00000001  x5:0x00000001
       18665000	      1865	800017ac	04c66263	bltu	x12,x12,800017f0	 x12:0xfffffbba x12:0xfffffbba
       18675000	      1866	800017b0	01911113	slli	x2,x2,0x19	  x2:0xffffffde  x2=0xbc000000
       18685000	      1867	800017b4	40855e93	srai	x29,x10,0x8	 x10:0x00000000 x29=0x00000000
       18695000	      1868	800017b8	00890e63	beq	x18,x8,800017d4	 x18:0x2ffffe00  x8:0x00000724
       18705000	      1869	800017bc	00000013	addi	x0,x0,0	  x0:0x00000000
       18715000	      1870	800017c0	025dee63	bltu	x27,x5,800017fc	 x27:0x00000000  x5:0x00000001
       18725000	      1871	00000000	00000013	addi	x0,x0,0	  x0:0x00000000
       18735000	      1872	800017f8	00000013	addi	x0,x0,0	  x0:0x00000000
       18745000	      1873	800017fc	007b1333	sll	x6,x22,x7	 x22:0x00000001  x7:0xfffff8dc  x6=0x10000000
       18755000	      1874	80001800	dcfd3f93	sltiu	x31,x26,-561	 x26:0x8e3d6000 x31=0x00000001
       18765000	      1875	80001804	01d17ab3	and	x21,x2,x29	  x2:0xbc000000 x29:0x00000000 x21=0x00000000
       18775000	      1876	80001808	02b5f063	bgeu	x11,x11,80001828	 x11:0x00000000 x11:0x00000000
       18785000	      1877	00000000	00000013	addi	x0,x0,0	  x0:0x00000000
       18795000	      1878	80001824	00000013	addi	x0,x0,0	  x0:0x00000000
       18805000	      1879	80001828	4127d113	srai	x2,x15,0x12	 x15:0x00000001  x2=0x00000000
       18815000	      1880	8000182c	406bdeb3	sra	x29,x23,x6	 x23:0x7c8bc2f3  x6:0x10000000 x29=0x7c8bc2f3
       18825000	      1881	80001830	40a55e93	srai	x29,x10,0xa	 x10:0x00000000 x29=0x00000000
       18835000	      1882	80001834	00eb7c33	and	x24,x22,x14	 x22:0x00000001 x14:0xffffffde x24=0x00000000
       18845000	      1883	80001838	00c9d433	srl	x8,x19,x12	 x19:0x00000001 x12:0xfffffbba  x8=0x00000000
       18855000	      1884	8000183c	00f8dcb3	srl	x25,x17,x15	 x17:0x7fff6139 x15:0x00000001 x25=0x3fffb09c
       18865000	      1885	80001840	dd61a813	slti	x16,x3,-554	  x3:0x04000000 x16=0x00000000
       18875000	      1886	80001844	e4b07013	andi	x0,x0,-437	  x0:0x00000000
       18885000	      1887	80001848	00c43e33	sltu	x28,x8,x12	  x8:0x00000000 x12:0xfffffbba x28=0x00000001
       18895000	      1888	8000184c	41080eb3	sub	x29,x16,x16	 x16:0x00000000 x16:0x00000000 x29=0x00000000
       18905000	      1889	80001850	4102d733	sra	x14,x5,x16	  x5:0x00000001 x16:0x00000000 x14=0x00000001
       18915000	      1890	80001854	3a6f96b7	lui	x13,0x3a6f9	 x13=0x3a6f9000
       18925000	      1891	80001858	03ca9a63	bne	x21,x28,8000188c	 x21:0x00000000 x28:0x00000001
       18935000	      1892	00000000	00000013	addi	x0,x0,0	  x0:0x00000000
       18945000	      1893	80001888	00000013	addi	x0,x0,0	  x0:0x00000000
       18955000	      1894	8000188c	00e5b633	sltu	x12,x11,x14	 x11:0x00000000 x14:0x00000001 x12=0x00000001
       18965000	      1895	80001890	013be863	bltu	x23,x19,800018a0	 x23:0x7c8bc2f3 x19:0x00000001
       18975000	      1896	80001894	63bc2793	slti	x15,x24,1595	 x24:0x00000000 x15=0x00000001
       18985000	      1897	80001898	00c3ee63	bltu	x7,x12,800018b4	  x7:0xfffff8dc x12:0x00000001
       18995000	      1898	8000189c	015f32b3	sltu	x5,x30,x21	 x30:0x80009ec8 x21:0x00000000  x5=0x00000000
       19005000	      1899	800018a0	00009433	sll	x8,x1,x0	  x1:0x00000000  x0:0x00000000  x8=0x00000000
       19015000	      1900	800018a4	402bd3b3	sra	x7,x23,x2	 x23:0x7c8bc2f3  x2:0x00000000  x7=0x7c8bc2f3
       19025000	      1901	800018a8	01ab76b3	and	x13,x22,x26	 x22:0x00000001 x26:0x8e3d6000 x13=0x00000000
       19035000	      1902	800018ac	cdc2c113	xori	x2,x5,-804	  x5:0x00000000  x2=0xfffffcdc
       19045000	      1903	800018b0	002a5693	srli	x13,x20,0x2	 x20:0x80009fc4 x13=0x200027f1
       19055000	      1904	800018b4	00a3adb3	slt	x27,x7,x10	  x7:0x7c8bc2f3 x10:0x00000000 x27=0x00000000
       19065000	      1905	800018b8	01088d33	add	x26,x17,x16	 x17:0x7fff6139 x16:0x00000000 x26=0x7fff6139
       19075000	      1906	800018bc	018e5013	srli	x0,x28,0x18	 x28:0x00000001
       19085000	      1907	800018c0	03457263	bgeu	x10,x20,800018e4	 x10:0x00000000 x20:0x80009fc4
       19095000	      1908	800018c4	41f05133	sra	x2,x0,x31	  x0:0x00000000 x31:0x00000001  x2=0x00000000
       19105000	      1909	800018c8	00997933	and	x18,x18,x9	 x18:0x2ffffe00  x9:0x977bc000 x18=0x077bc000
       19115000	      1910	800018cc	016bee63	bltu	x23,x22,800018e8	 x23:0x7c8bc2f3 x22:0x00000001
       19125000	      1911	800018d0	bd4bb113	sltiu	x2,x23,-1068	 x23:0x7c8bc2f3  x2=0x00000001
       19135000	      1912	800018d4	02326263	bltu	x4,x3,800018f8	  x4:0x00000000  x3:0x04000000
       19145000	      1913	00000000	00000013	addi	x0,x0,0	  x0:0x00000000
       19155000	      1914	800018f4	00000013	addi	x0,x0,0	  x0:0x00000000
       19165000	      1915	800018f8	00f10133	add	x2,x2,x15	  x2:0x00000001 x15:0x00000001  x2=0x00000002
       19175000	      1916	800018fc	05914863	blt	x2,x25,8000194c	  x2:0x00000002 x25:0x3fffb09c
       19185000	      1917	00000000	00000013	addi	x0,x0,0	  x0:0x00000000
       19195000	      1918	80001948	00000013	addi	x0,x0,0	  x0:0x00000000
       19205000	      1919	8000194c	7aa93613	sltiu	x12,x18,1962	 x18:0x077bc000 x12=0x00000000
       19215000	      1920	80001950	e678b713	sltiu	x14,x17,-409	 x17:0x7fff6139 x14=0x00000001
       19225000	      1921	80001954	41018033	sub	x0,x3,x16	  x3:0x04000000 x16:0x00000000
       19235000	      1922	80001958	41895293	srai	x5,x18,0x18	 x18:0x077bc000  x5=0x00000007
       19245000	      1923	8000195c	00000013	addi	x0,x0,0	  x0:0x00000000
       19255000	      1924	80001960	0103b633	sltu	x12,x7,x16	  x7:0x7c8bc2f3 x16:0x00000000 x12=0x00000000
       19265000	      1925	80001964	0042e233	or	x4,x5,x4	  x5:0x00000007  x4:0x00000000  x4=0x00000007
       19275000	      1926	80001968	01e37133	and	x2,x6,x30	  x6:0x10000000 x30:0x80009ec8  x2=0x00000000
       19285000	      1927	8000196c	0041d933	srl	x18,x3,x4	  x3:0x04000000  x4:0x00000007 x18=0x00080000
       19295000	      1928	80001970	00d69e93	slli	x29,x13,0xd	 x13:0x200027f1 x29=0x04fe2000
       19305000	      1929	80001974	01284cb3	xor	x25,x16,x18	 x16:0x00000000 x18:0x00080000 x25=0x00080000
       19315000	      1930	80001978	416f8133	sub	x2,x31,x22	 x31:0x00000001 x22:0x00000001  x2=0x00000000
       19325000	      1931	8000197c	00672d33	slt	x26,x14,x6	 x14:0x00000001  x6:0x10000000 x26=0x00000001
       19335000	      1932	80001980	01ab9113	slli	x2,x23,0x1a	 x23:0x7c8bc2f3  x2=0xcc000000
       19345000	      1933	80001984	a2a47d13	andi	x26,x8,-1494	  x8:0x00000000 x26=0x00000000
       19355000	      1934	80001988	a9fa0913	addi	x18,x20,-1377	 x20:0x80009fc4 x18=0x80009a63
       19365000	      1935	8000198c	00d3a233	slt	x4,x7,x13	  x7:0x7c8bc2f3 x13:0x200027f1  x4=0x00000000
       19375000	      1936	80001990	01965c13	srli	x24,x12,0x19	 x12:0x00000000 x24=0x00000000
       19385000	      1937	80001994	893dfd97	auipc	x27,0x893df	 x27=0x093e0990
       19395000	      1938	80001998	00f78633	add	x12,x15,x15	 x15:0x00000001 x15:0x00000001 x12=0x00000002
       19405000	      1939	8000199c	01c872b3	and	x5,x16,x28	 x16:0x00000000 x28:0x00000001  x5=0x00000000
       19415000	      1940	800019a0	00cece63	blt	x29,x12,800019bc	 x29:0x04fe2000 x12:0x00000002
       19425000	      1941	800019a4	13900863	beq	x0,x25,80001ad4	  x0:0x00000000 x25:0x00080000
       19435000	      1942	800019a8	b9df6693	ori	x13,x30,-1123	 x30:0x80009ec8 x13=0xffffffdd
       19445000	      1943	800019ac	138d9663	bne	x27,x24,80001ad8	 x27:0x093e0990 x24:0x00000000
       19455000	      1944	00000000	00000013	addi	x0,x0,0	  x0:0x00000000
       19465000	      1945	80001ad4	00000013	addi	x0,x0,0	  x0:0x00000000
       19475000	      1946	80001ad8	009ab2b3	sltu	x5,x21,x9	 x21:0x00000000  x9:0x977bc000  x5=0x00000001
       19485000	      1947	80001adc	012501b3	add	x3,x10,x18	 x10:0x00000000 x18:0x80009a63  x3=0x80009a63
       19495000	      1948	80001ae0	4150d3b3	sra	x7,x1,x21	  x1:0x00000000 x21:0x00000000  x7=0x00000000
       19505000	      1949	80001ae4	41e7d0b3	sra	x1,x15,x30	 x15:0x00000001 x30:0x80009ec8  x1=0x00000000
       19515000	      1950	80001ae8	0042fc63	bgeu	x5,x4,80001b00	  x5:0x00000001  x4:0x00000000
       19525000	      1951	00000000	00000013	addi	x0,x0,0	  x0:0x00000000
       19535000	      1952	80001afc	00000013	addi	x0,x0,0	  x0:0x00000000
       19545000	      1953	80001b00	6dd6fe37	lui	x28,0x6dd6f	 x28=0x6dd6f000
       19555000	      1954	80001b04	00395863	bge	x18,x3,80001b14	 x18:0x80009a63  x3:0x80009a63
       19565000	      1955	00000000	00000013	addi	x0,x0,0	  x0:0x00000000
       19575000	      1956	80001b10	00000013	addi	x0,x0,0	  x0:0x00000000
       19585000	      1957	80001b14	00e7c263	blt	x15,x14,80001b18	 x15:0x00000001 x14:0x00000001
       19595000	      1958	80001b18	e6103713	sltiu	x14,x0,-415	  x0:0x00000000 x14=0x00000001
       19605000	      1959	80001b1c	030b8063	beq	x23,x16,80001b3c	 x23:0x7c8bc2f3 x16:0x00000000
       19615000	      1960	80001b20	40c55233	sra	x4,x10,x12	 x10:0x00000000 x12:0x00000002  x4=0x00000000
       19625000	      1961	80001b24	405001b3	sub	x3,x0,x5	  x0:0x00000000  x5:0x00000001  x3=0xffffffff
       19635000	      1962	80001b28	7451b0b7	lui	x1,0x7451b	  x1=0x7451b000
       19645000	      1963	80001b2c	1191a993	slti	x19,x3,281	  x3:0xffffffff x19=0x00000001
       19655000	      1964	80001b30	018a9e63	bne	x21,x24,80001b4c	 x21:0x00000000 x24:0x00000000
       19665000	      1965	80001b34	659ec993	xori	x19,x29,1625	 x29:0x04fe2000 x19=0x04fe2659
       19675000	      1966	80001b38	29c5acb7	lui	x25,0x29c5a	 x25=0x29c5a000
       19685000	      1967	80001b3c	00e75693	srli	x13,x14,0xe	 x14:0x00000001 x13=0x00000000
       19695000	      1968	80001b40	00c29593	slli	x11,x5,0xc	  x5:0x00000001 x11=0x00001000
       19705000	      1969	80001b44	01b7f1b3	and	x3,x15,x27	 x15:0x00000001 x27:0x093e0990  x3=0x00000000
       19715000	      1970	80001b48	3af2f993	andi	x19,x5,943	  x5:0x00000001 x19=0x00000001
       19725000	      1971	80001b4c	014a1413	slli	x8,x20,0x14	 x20:0x80009fc4  x8=0xfc400000
       19735000	      1972	80001b50	00fc14b3	sll	x9,x24,x15	 x24:0x00000000 x15:0x00000001  x9=0x00000000
       19745000	      1973	80001b54	aa744093	xori	x1,x8,-1369	  x8:0xfc400000  x1=0x03bffaa7
       19755000	      1974	80001b58	01ce2633	slt	x12,x28,x28	 x28:0x6dd6f000 x28:0x6dd6f000 x12=0x00000000
       19765000	      1975	80001b5c	57077713	andi	x14,x14,1392	 x14:0x00000001 x14=0x00000000
       19775000	      1976	80001b60	015eb9b3	sltu	x19,x29,x21	 x29:0x04fe2000 x21:0x00000000 x19=0x00000000
       19785000	      1977	80001b64	d9c36213	ori	x4,x6,-612	  x6:0x10000000  x4=0xfffffd9c
       19795000	      1978	80001b68	010f87b3	add	x15,x31,x16	 x31:0x00000001 x16:0x00000000 x15=0x00000001
       19805000	      1979	80001b6c	015ad263	bge	x21,x21,80001b70	 x21:0x00000000 x21:0x00000000
       19815000	      1980	00000000	00000013	addi	x0,x0,0	  x0:0x00000000
       19825000	      1981	80001b6c	00000013	addi	x0,x0,0	  x0:0x00000000
       19835000	      1982	80001b70	5ca0a693	slti	x13,x1,1482	  x1:0x03bffaa7 x13=0x00000000
       19845000	      1983	80001b74	81a87c13	andi	x24,x16,-2022	 x16:0x00000000 x24=0x00000000
       19855000	      1984	80001b78	00b1d133	srl	x2,x3,x11	  x3:0x00000000 x11:0x00001000  x2=0x00000000
       19865000	      1985	80001b7c	bb268593	addi	x11,x13,-1102	 x13:0x00000000 x11=0xfffffbb2
       19875000	      1986	80001b80	004f2903	lw	x18,4(x30)	 x30:0x80009ec8 x18=0x800054b0 PA:0x80009ecc
       19885000	      1987	80001b84	9fe6a293	slti	x5,x13,-1538	 x13:0x00000000  x5=0x00000000
       19895000	      1988	80001b88	0058f733	and	x14,x17,x5	 x17:0x7fff6139  x5:0x00000000 x14=0x00000000
       19905000	      1989	80001b8c	012402b3	add	x5,x8,x18	  x8:0xfc400000 x18:0x800054b0  x5=0x7c4054b0
       19915000	      1990	80001b90	040f0f13	addi	x30,x30,64	 x30:0x80009ec8 x30=0x80009f08
       19925000	      1991	80001b94	00000013	addi	x0,x0,0	  x0:0x00000000
       19935000	      1992	80001b98	00090c93	addi	x25,x18,0	 x18:0x800054b0 x25=0x800054b0
       19945000	      1993	80001b9c	000c8ce7	jalr	x25,x25,0	 x25:0x800054b0 x25=0x80001b9c
       19955000	      1994	00000000	00000013	addi	x0,x0,0	  x0:0x00000000
       19965000	      1995	800054b0	00000013	addi	x0,x0,0	  x0:0x00000000
       19975000	      1996	800054b4	0454f263	bgeu	x9,x5,800054f8	  x9:0x00000000  x5:0x7c4054b0
       19985000	      1997	800054b8	ece47293	andi	x5,x8,-306	  x8:0xfc400000  x5=0xfc400000
       19995000	      1998	800054bc	01119133	sll	x2,x3,x17	  x3:0x00000000 x17:0x7fff6139  x2=0x00000000
       20005000	      1999	800054c0	41808133	sub	x2,x1,x24	  x1:0x03bffaa7 x24:0x00000000  x2=0x03bffaa7
       20015000	      2000	800054c4	5894b493	sltiu	x9,x9,1417	  x9:0x00000000  x9=0x00000001
       20025000	      2001	800054c8	0046e133	or	x2,x13,x4	 x13:0x00000000  x4:0xfffffd9c  x2=0xfffffd9c
       20035000	      2002	800054cc	340a8313	addi	x6,x21,832	 x21:0x00000000  x6=0x00000340
       20045000	      2003	800054d0	01ca06b3	add	x13,x20,x28	 x20:0x80009fc4 x28:0x6dd6f000 x13=0xedd78fc4
       20055000	      2004	800054d4	1ffb7393	andi	x7,x22,511	 x22:0x00000001  x7=0x00000001
       20065000	      2005	800054d8	84c9b593	sltiu	x11,x19,-1972	 x19:0x00000000 x11=0x00000001
       20075000	      2006	800054dc	8e711797	auipc	x15,0x8e711	 x15=0x0e7164d8
       20085000	      2007	800054e0	b2ee3013	sltiu	x0,x28,-1234	 x28:0x6dd6f000
       20095000	      2008	800054e4	00bad133	srl	x2,x21,x11	 x21:0x00000000 x11:0x00000001  x2=0x00000000
       20105000	      2009	800054e8	c896a897	auipc	x17,0xc896a	 x17=0x4896f4e4
       20115000	      2010	800054ec	01a36733	or	x14,x6,x26	  x6:0x00000340 x26:0x00000000 x14=0x00000340
       20125000	      2011	800054f0	2df17897	auipc	x17,0x2df17	 x17=0xadf1c4ec
       20135000	      2012	800054f4	00423033	sltu	x0,x4,x4	  x4:0xfffffd9c  x4:0xfffffd9c
       20145000	      2013	800054f8	014f45b3	xor	x11,x30,x20	 x30:0x80009f08 x20:0x80009fc4 x11=0x000000cc
       20155000	      2014	800054fc	0176e133	or	x2,x13,x23	 x13:0xedd78fc4 x23:0x7c8bc2f3  x2=0xfddfcff7
       20165000	      2015	80005500	0d226893	ori	x17,x4,210	  x4:0xfffffd9c x17=0xfffffdde
       20175000	      2016	80005504	00000013	addi	x0,x0,0	  x0:0x00000000
       20185000	      2017	80005508	a0f88593	addi	x11,x17,-1521	 x17:0xfffffdde x11=0xfffff7ed
       20195000	      2018	8000550c	0068e863	bltu	x17,x6,8000551c	 x17:0xfffffdde  x6:0x00000340
       20205000	      2019	80005510	01540c63	beq	x8,x21,80005528	  x8:0xfc400000 x21:0x00000000
       20215000	      2020	80005514	81864993	xori	x19,x12,-2024	 x12:0x00000000 x19=0xfffff818
       20225000	      2021	80005518	36f8c593	xori	x11,x17,879	 x17:0xfffffdde x11=0xfffffeb1
       20235000	      2022	8000551c	006c5863	bge	x24,x6,8000552c	 x24:0x00000000  x6:0x00000340
       20245000	      2023	80005520	01b019b3	sll	x19,x0,x27	  x0:0x00000000 x27:0x093e0990 x19=0x00000000
       20255000	      2024	80005524	03df1a63	bne	x30,x29,80005558	 x30:0x80009f08 x29:0x04fe2000
       20265000	      2025	00000000	00000013	addi	x0,x0,0	  x0:0x00000000
       20275000	      2026	80005554	00000013	addi	x0,x0,0	  x0:0x00000000
       20285000	      2027	80005558	c76b0f93	addi	x31,x22,-906	 x22:0x00000001 x31=0xfffffc77
       20295000	      2028	8000555c	00811e63	bne	x2,x8,80005578	  x2:0xfddfcff7  x8:0xfc400000
       20305000	      2029	00000000	00000013	addi	x0,x0,0	  x0:0x00000000
       20315000	      2030	80005574	00000013	addi	x0,x0,0	  x0:0x00000000
       20325000	      2031	80005578	40ced593	srai	x11,x29,0xc	 x29:0x04fe2000 x11=0x00004fe2
       20335000	      2032	8000557c	018d0c33	add	x24,x26,x24	 x26:0x00000000 x24:0x00000000 x24=0x00000000
       20345000	      2033	80005580	01aeb433	sltu	x8,x29,x26	 x29:0x04fe2000 x26:0x00000000  x8=0x00000000
       20355000	      2034	80005584	02fe0063	beq	x28,x15,800055a4	 x28:0x6dd6f000 x15:0x0e7164d8
       20365000	      2035	80005588	f4ce0513	addi	x10,x28,-180	 x28:0x6dd6f000 x10=0x6dd6ef4c
       20375000	      2036	8000558c	9e2d0093	addi	x1,x26,-1566	 x26:0x00000000  x1=0xfffff9e2
       20385000	      2037	80005590	04044663	blt	x8,x0,800055dc	  x8:0x00000000  x0:0x00000000
       20395000	      2038	80005594	00c1df93	srli	x31,x3,0xc	  x3:0x00000000 x31=0x00000000
       20405000	      2039	80005598	02616c63	bltu	x2,x6,800055d0	  x2:0xfddfcff7  x6:0x00000340
       20415000	      2040	8000559c	7d68c017	auipc	x0,0x7d68c	
       20425000	      2041	800055a0	00000013	addi	x0,x0,0	  x0:0x00000000
       20435000	      2042	800055a4	011c5ab3	srl	x21,x24,x17	 x24:0x00000000 x17:0xfffffdde x21=0x00000000
       20445000	      2043	800055a8	00d4fc63	bgeu	x9,x13,800055c0	  x9:0x00000001 x13:0xedd78fc4
       20455000	      2044	800055ac	00000013	addi	x0,x0,0	  x0:0x00000000
       20465000	      2045	800055b0	0056ceb3	xor	x29,x13,x5	 x13:0xedd78fc4  x5:0xfc400000 x29=0x11978fc4
       20475000	      2046	800055b4	f01eac13	slti	x24,x29,-255	 x29:0x11978fc4 x24=0x00000000
       20485000	      2047	800055b8	014ace33	xor	x28,x21,x20	 x21:0x00000000 x20:0x80009fc4 x28=0x80009fc4
       20495000	      2048	800055bc	281cd037	lui	x0,0x281cd	
       20505000	      2049	800055c0	03a07863	bgeu	x0,x26,800055f0	  x0:0x00000000 x26:0x00000000
       20515000	      2050	00000000	00000013	addi	x0,x0,0	  x0:0x00000000
       20525000	      2051	800055ec	00000013	addi	x0,x0,0	  x0:0x00000000
       20535000	      2052	800055f0	00bdd213	srli	x4,x27,0xb	 x27:0x093e0990  x4=0x000127c1
       20545000	      2053	800055f4	01a41793	slli	x15,x8,0x1a	  x8:0x00000000 x15=0x00000000
       20555000	      2054	800055f8	00235c33	srl	x24,x6,x2	  x6:0x00000340  x2:0xfddfcff7 x24=0x00000000
       20565000	      2055	800055fc	0157f833	and	x16,x15,x21	 x15:0x00000000 x21:0x00000000 x16=0x00000000
       20575000	      2056	80005600	054e0463	beq	x28,x20,80005648	 x28:0x80009fc4 x20:0x80009fc4
       20585000	      2057	00000000	00000013	addi	x0,x0,0	  x0:0x00000000
       20595000	      2058	80005644	00000013	addi	x0,x0,0	  x0:0x00000000
       20605000	      2059	80005648	01311e13	slli	x28,x2,0x13	  x2:0xfddfcff7 x28=0x7fb80000
       20615000	      2060	8000564c	40d706b3	sub	x13,x14,x13	 x14:0x00000340 x13:0xedd78fc4 x13=0x1228737c
       20625000	      2061	80005650	00f774b3	and	x9,x14,x15	 x14:0x00000340 x15:0x00000000  x9=0x00000000
       20635000	      2062	80005654	011a6663	bltu	x20,x17,80005660	 x20:0x80009fc4 x17:0xfffffdde
       20645000	      2063	00000000	00000013	addi	x0,x0,0	  x0:0x00000000
       20655000	      2064	8000565c	00000013	addi	x0,x0,0	  x0:0x00000000
       20665000	      2065	80005660	0087c833	xor	x16,x15,x8	 x15:0x00000000  x8:0x00000000 x16=0x00000000
       20675000	      2066	80005664	00519893	slli	x17,x3,0x5	  x3:0x00000000 x17=0x00000000
       20685000	      2067	80005668	01645863	bge	x8,x22,80005678	  x8:0x00000000 x22:0x00000001
       20695000	      2068	8000566c	a0838d93	addi	x27,x7,-1528	  x7:0x00000001 x27=0xfffffa09
       20705000	      2069	80005670	0038b0b3	sltu	x1,x17,x3	 x17:0x00000000  x3:0x00000000  x1=0x00000000
       20715000	      2070	80005674	017791b3	sll	x3,x15,x23	 x15:0x00000000 x23:0x7c8bc2f3  x3=0x00000000
       20725000	      2071	80005678	01f451b3	srl	x3,x8,x31	  x8:0x00000000 x31:0x00000000  x3=0x00000000
       20735000	      2072	8000567c	01f85b33	srl	x22,x16,x31	 x16:0x00000000 x31:0x00000000 x22=0x00000000
       20745000	      2073	80005680	00bcf263	bgeu	x25,x11,80005684	 x25:0x80001b9c x11:0x00004fe2
       20755000	      2074	00000000	00000013	addi	x0,x0,0	  x0:0x00000000
       20765000	      2075	80005680	00000013	addi	x0,x0,0	  x0:0x00000000
       20775000	      2076	80005684	40f9d313	srai	x6,x19,0xf	 x19:0x00000000  x6=0x00000000
       20785000	      2077	80005688	efaca313	slti	x6,x25,-262	 x25:0x80001b9c  x6=0x00000001
       20795000	      2078	8000568c	00000013	addi	x0,x0,0	  x0:0x00000000
       20805000	      2079	80005690	005c9313	slli	x6,x25,0x5	 x25:0x80001b9c  x6=0x00037380
       20815000	      2080	80005694	0166b8b3	sltu	x17,x13,x22	 x13:0x1228737c x22:0x00000000 x17=0x00000000
       20825000	      2081	80005698	40235513	srai	x10,x6,0x2	  x6:0x00037380 x10=0x0000dce0
       20835000	      2082	8000569c	8769c413	xori	x8,x19,-1930	 x19:0x00000000  x8=0xfffff876
       20845000	      2083	800056a0	01e6c863	blt	x13,x30,800056b0	 x13:0x1228737c x30:0x80009f08
       20855000	      2084	800056a4	047ff663	bgeu	x31,x7,800056f0	 x31:0x00000000  x7:0x00000001
       20865000	      2085	800056a8	01922933	slt	x18,x4,x25	  x4:0x000127c1 x25:0x80001b9c x18=0x00000000
       20875000	      2086	800056ac	054a9863	bne	x21,x20,800056fc	 x21:0x00000000 x20:0x80009fc4
       20885000	      2087	00000000	00000013	addi	x0,x0,0	  x0:0x00000000
       20895000	      2088	800056f8	00000013	addi	x0,x0,0	  x0:0x00000000
       20905000	      2089	800056fc	99b5e893	ori	x17,x11,-1637	 x11:0x00004fe2 x17=0xfffffffb
       20915000	      2090	80005700	01390cb3	add	x25,x18,x19	 x18:0x00000000 x19:0x00000000 x25=0x00000000
       20925000	      2091	80005704	619a4c13	xori	x24,x20,1561	 x20:0x80009fc4 x24=0x800099dd
       20935000	      2092	80005708	000369b3	or	x19,x6,x0	  x6:0x00037380  x0:0x00000000 x19=0x00037380
       20945000	      2093	8000570c	406fde13	srai	x28,x31,0x6	 x31:0x00000000 x28=0x00000000
       20955000	      2094	80005710	00d765b3	or	x11,x14,x13	 x14:0x00000340 x13:0x1228737c x11=0x1228737c
       20965000	      2095	80005714	0100e133	or	x2,x1,x16	  x1:0x00000000 x16:0x00000000  x2=0x00000000
       20975000	      2096	80005718	010cda93	srli	x21,x25,0x10	 x25:0x00000000 x21=0x00000000
       20985000	      2097	8000571c	003555b3	srl	x11,x10,x3	 x10:0x0000dce0  x3:0x00000000 x11=0x0000dce0
       20995000	      2098	80005720	22e18897	auipc	x17,0x22e18	 x17=0xa2e1d71c
       21005000	      2099	80005724	01179b13	slli	x22,x15,0x11	 x15:0x00000000 x22=0x00000000
       21015000	      2100	80005728	00cb5d93	srli	x27,x22,0xc	 x22:0x00000000 x27=0x00000000
       21025000	      2101	8000572c	40155993	srai	x19,x10,0x1	 x10:0x0000dce0 x19=0x00006e70
       21035000	      2102	80005730	01230533	add	x10,x6,x18	  x6:0x00037380 x18:0x00000000 x10=0x00037380
       21045000	      2103	80005734	00ef5933	srl	x18,x30,x14	 x30:0x80009f08 x14:0x00000340 x18=0x80009f08
       21055000	      2104	80005738	002813b3	sll	x7,x16,x2	 x16:0x00000000  x2:0x00000000  x7=0x00000000
       21065000	      2105	8000573c	418389b3	sub	x19,x7,x24	  x7:0x00000000 x24:0x800099dd x19=0x7fff6623
       21075000	      2106	80005740	00000013	addi	x0,x0,0	  x0:0x00000000
       21085000	      2107	80005744	0192ee33	or	x28,x5,x25	  x5:0xfc400000 x25:0x00000000 x28=0xfc400000
       21095000	      2108	80005748	407881b3	sub	x3,x17,x7	 x17:0xa2e1d71c  x7:0x00000000  x3=0xa2e1d71c
       21105000	      2109	8000574c	4624e013	ori	x0,x9,1122	  x9:0x00000000
       21115000	      2110	80005750	00955d33	srl	x26,x10,x9	 x10:0x00037380  x9:0x00000000 x26=0x00037380
       21125000	      2111	80005754	002712b3	sll	x5,x14,x2	 x14:0x00000340  x2:0x00000000  x5=0x00000340
       21135000	      2112	80005758	07f6e713	ori	x14,x13,127	 x13:0x1228737c x14=0x1228737f
       21145000	      2113	8000575c	0149bdb3	sltu	x27,x19,x20	 x19:0x7fff6623 x20:0x80009fc4 x27=0x00000001
       21155000	      2114	80005760	05589063	bne	x17,x21,800057a0	 x17:0xa2e1d71c x21:0x00000000
       21165000	      2115	00000000	00000013	addi	x0,x0,0	  x0:0x00000000
       21175000	      2116	8000579c	00000013	addi	x0,x0,0	  x0:0x00000000
       21185000	      2117	800057a0	00440ab3	add	x21,x8,x4	  x8:0xfffff876  x4:0x000127c1 x21=0x00012037
       21195000	      2118	800057a4	008d2433	slt	x8,x26,x8	 x26:0x00037380  x8:0xfffff876  x8=0x00000000
       21205000	      2119	800057a8	f4824d97	auipc	x27,0xf4824	 x27=0x748297a4
       21215000	      2120	800057ac	00cf1093	slli	x1,x30,0xc	 x30:0x80009f08  x1=0x09f08000
       21225000	      2121	800057b0	007398b3	sll	x17,x7,x7	  x7:0x00000000  x7:0x00000000 x17=0x00000000
       21235000	      2122	800057b4	40ecd0b3	sra	x1,x25,x14	 x25:0x00000000 x14:0x1228737f  x1=0x00000000
       21245000	      2123	800057b8	0599d263	bge	x19,x25,800057fc	 x19:0x7fff6623 x25:0x00000000
       21255000	      2124	00000000	00000013	addi	x0,x0,0	  x0:0x00000000
       21265000	      2125	800057f8	00000013	addi	x0,x0,0	  x0:0x00000000
       21275000	      2126	800057fc	027be663	bltu	x23,x7,80005828	 x23:0x7c8bc2f3  x7:0x00000000
       21285000	      2127	80005800	01b3d663	bge	x7,x27,8000580c	  x7:0x00000000 x27:0x748297a4
       21295000	      2128	80005804	a564e437	lui	x8,0xa564e	  x8=0xa564e000
       21305000	      2129	80005808	00e71313	slli	x6,x14,0xe	 x14:0x1228737f  x6=0x1cdfc000
       21315000	      2130	8000580c	b17db593	sltiu	x11,x27,-1257	 x27:0x748297a4 x11=0x00000001
       21325000	      2131	80005810	01bd8cb3	add	x25,x27,x27	 x27:0x748297a4 x27:0x748297a4 x25=0xe9052f48
       21335000	      2132	80005814	8aea43b7	lui	x7,0x8aea4	  x7=0x8aea4000
       21345000	      2133	80005818	05edf463	bgeu	x27,x30,80005860	 x27:0x748297a4 x30:0x80009f08
       21355000	      2134	8000581c	012a1e63	bne	x20,x18,80005838	 x20:0x80009fc4 x18:0x80009f08
       21365000	      2135	00000000	00000013	addi	x0,x0,0	  x0:0x00000000
       21375000	      2136	80005834	00000013	addi	x0,x0,0	  x0:0x00000000
       21385000	      2137	80005838	ffd99697	auipc	x13,0xffd99	 x13=0x7fd9e834
       21395000	      2138	8000583c	e6970b13	addi	x22,x14,-407	 x14:0x1228737f x22=0x122871e8
       21405000	      2139	80005840	005a1c63	bne	x20,x5,80005858	 x20:0x80009fc4  x5:0x00000340
       21415000	      2140	00000000	00000013	addi	x0,x0,0	  x0:0x00000000
       21425000	      2141	80005854	00000013	addi	x0,x0,0	  x0:0x00000000
       21435000	      2142	80005858	00689c33	sll	x24,x17,x6	 x17:0x00000000  x6:0x1cdfc000 x24=0x00000000
       21445000	      2143	8000585c	04614063	blt	x2,x6,8000589c	  x2:0x00000000  x6:0x1cdfc000
       21455000	      2144	00000000	00000013	addi	x0,x0,0	  x0:0x00000000
       21465000	      2145	80005898	00000013	addi	x0,x0,0	  x0:0x00000000
       21475000	      2146	8000589c	16700013	addi	x0,x0,359	  x0:0x00000000
       21485000	      2147	800058a0	039df863	bgeu	x27,x25,800058d0	 x27:0x748297a4 x25:0xe9052f48
       21495000	      2148	800058a4	0d4a7c93	andi	x25,x20,212	 x20:0x80009fc4 x25=0x000000c4
       21505000	      2149	800058a8	400b8133	sub	x2,x23,x0	 x23:0x7c8bc2f3  x0:0x00000000  x2=0x7c8bc2f3
       21515000	      2150	800058ac	00dba5b3	slt	x11,x23,x13	 x23:0x7c8bc2f3 x13:0x7fd9e834 x11=0x00000001
       21525000	      2151	800058b0	a668e313	ori	x6,x17,-1434	 x17:0x00000000  x6=0xfffffa66
       21535000	      2152	800058b4	415702b3	sub	x5,x14,x21	 x14:0x1228737f x21:0x00012037  x5=0x12275348
       21545000	      2153	800058b8	015bc133	xor	x2,x23,x21	 x23:0x7c8bc2f3 x21:0x00012037  x2=0x7c8ae2c4
       21555000	      2154	800058bc	0165f833	and	x16,x11,x22	 x11:0x00000001 x22:0x122871e8 x16=0x00000000
       21565000	      2155	800058c0	fe4ec293	xori	x5,x29,-28	 x29:0x11978fc4  x5=0xee687020
       21575000	      2156	800058c4	00916e63	bltu	x2,x9,800058e0	  x2:0x7c8ae2c4  x9:0x00000000
       21585000	      2157	800058c8	009ddb13	srli	x22,x27,0x9	 x27:0x748297a4 x22=0x003a414b
       21595000	      2158	800058cc	00175863	bge	x14,x1,800058dc	 x14:0x1228737f  x1:0x00000000
       21605000	      2159	00000000	00000013	addi	x0,x0,0	  x0:0x00000000
       21615000	      2160	800058d8	00000013	addi	x0,x0,0	  x0:0x00000000
       21625000	      2161	800058dc	00ede0b3	or	x1,x27,x14	 x27:0x748297a4 x14:0x1228737f  x1=0x76aaf7ff
       21635000	      2162	800058e0	417f8db3	sub	x27,x31,x23	 x31:0x00000000 x23:0x7c8bc2f3 x27=0x83743d0d
       21645000	      2163	800058e4	19720313	addi	x6,x4,407	  x4:0x000127c1  x6=0x00012958
       21655000	      2164	800058e8	3c3e2413	slti	x8,x28,963	 x28:0xfc400000  x8=0x00000001
       21665000	      2165	800058ec	02cb7a63	bgeu	x22,x12,80005920	 x22:0x003a414b x12:0x00000000
       21675000	      2166	00000000	00000013	addi	x0,x0,0	  x0:0x00000000
       21685000	      2167	8000591c	00000013	addi	x0,x0,0	  x0:0x00000000
       21695000	      2168	80005920	01578c33	add	x24,x15,x21	 x15:0x00000000 x21:0x00012037 x24=0x00012037
       21705000	      2169	80005924	4061d2b3	sra	x5,x3,x6	  x3:0xa2e1d71c  x6:0x00012958  x5=0xffffffa2
       21715000	      2170	80005928	41d30333	sub	x6,x6,x29	  x6:0x00012958 x29:0x11978fc4  x6=0xee699994
       21725000	      2171	8000592c	4e2ff793	andi	x15,x31,1250	 x31:0x00000000 x15=0x00000000
       21735000	      2172	80005930	01f8b433	sltu	x8,x17,x31	 x17:0x00000000 x31:0x00000000  x8=0x00000000
       21745000	      2173	80005934	021df863	bgeu	x27,x1,80005964	 x27:0x83743d0d  x1:0x76aaf7ff
       21755000	      2174	00000000	00000013	addi	x0,x0,0	  x0:0x00000000
       21765000	      2175	80005960	00000013	addi	x0,x0,0	  x0:0x00000000
       21775000	      2176	80005964	41d95e93	srai	x29,x18,0x1d	 x18:0x80009f08 x29=0xfffffffc
       21785000	      2177	80005968	301662b7	lui	x5,0x30166	  x5=0x30166000
       21795000	      2178	8000596c	bbbecf93	xori	x31,x29,-1093	 x29:0xfffffffc x31=0x00000447
       21805000	      2179	80005970	64848d13	addi	x26,x9,1608	  x9:0x00000000 x26=0x00000648
       21815000	      2180	80005974	408bdeb3	sra	x29,x23,x8	 x23:0x7c8bc2f3  x8:0x00000000 x29=0x7c8bc2f3
       21825000	      2181	80005978	01372ab3	slt	x21,x14,x19	 x14:0x1228737f x19:0x7fff6623 x21=0x00000001
       21835000	      2182	8000597c	804b0c93	addi	x25,x22,-2044	 x22:0x003a414b x25=0x003a394f
       21845000	      2183	80005980	013cfc33	and	x24,x25,x19	 x25:0x003a394f x19:0x7fff6623 x24=0x003a2003
       21855000	      2184	80005984	401780b3	sub	x1,x15,x1	 x15:0x00000000  x1:0x76aaf7ff  x1=0x89550801
       21865000	      2185	80005988	00000013	addi	x0,x0,0	  x0:0x00000000
       21875000	      2186	8000598c	d6a04617	auipc	x12,0xd6a04	 x12=0x56a09988
       21885000	      2187	80005990	1833b393	sltiu	x7,x7,387	  x7:0x8aea4000  x7=0x00000000
       21895000	      2188	80005994	00c483b3	add	x7,x9,x12	  x9:0x00000000 x12:0x56a09988  x7=0x56a09988
       21905000	      2189	80005998	405809b3	sub	x19,x16,x5	 x16:0x00000000  x5:0x30166000 x19=0xcfe9a000
       21915000	      2190	8000599c	006a5593	srli	x11,x20,0x6	 x20:0x80009fc4 x11=0x0200027f
       21925000	      2191	800059a0	8a5d6993	ori	x19,x26,-1883	 x26:0x00000648 x19=0xfffffeed
       21935000	      2192	800059a4	da3bb313	sltiu	x6,x23,-605	 x23:0x7c8bc2f3  x6=0x00000001
       21945000	      2193	800059a8	00b86263	bltu	x16,x11,800059ac	 x16:0x00000000 x11:0x0200027f
       21955000	      2194	00000000	00000013	addi	x0,x0,0	  x0:0x00000000
       21965000	      2195	800059a8	00000013	addi	x0,x0,0	  x0:0x00000000
       21975000	      2196	800059ac	054b1863	bne	x22,x20,800059fc	 x22:0x003a414b x20:0x80009fc4
       21985000	      2197	00000000	00000013	addi	x0,x0,0	  x0:0x00000000
       21995000	      2198	800059f8	00000013	addi	x0,x0,0	  x0:0x00000000
       22005000	      2199	800059fc	41cfdd33	sra	x26,x31,x28	 x31:0x00000447 x28:0xfc400000 x26=0x00000447
       22015000	      2200	80005a00	01f4c3b3	xor	x7,x9,x31	  x9:0x00000000 x31:0x00000447  x7=0x00000447
       22025000	      2201	80005a04	037f6063	bltu	x30,x23,80005a24	 x30:0x80009f08 x23:0x7c8bc2f3
       22035000	      2202	80005a08	00209863	bne	x1,x2,80005a18	  x1:0x89550801  x2:0x7c8ae2c4
       22045000	      2203	00000000	00000013	addi	x0,x0,0	  x0:0x00000000
       22055000	      2204	80005a14	00000013	addi	x0,x0,0	  x0:0x00000000
       22065000	      2205	80005a18	01103c33	sltu	x24,x0,x17	  x0:0x00000000 x17:0x00000000 x24=0x00000000
       22075000	      2206	80005a1c	f62dc493	xori	x9,x27,-158	 x27:0x83743d0d  x9=0x7c8bc26f
       22085000	      2207	80005a20	04af9663	bne	x31,x10,80005a6c	 x31:0x00000447 x10:0x00037380
       22095000	      2208	00000000	00000013	addi	x0,x0,0	  x0:0x00000000
       22105000	      2209	80005a68	00000013	addi	x0,x0,0	  x0:0x00000000
       22115000	      2210	80005a6c	016653b3	srl	x7,x12,x22	 x12:0x56a09988 x22:0x003a414b  x7=0x000ad413
       22125000	      2211	80005a70	a2366897	auipc	x17,0xa2366	 x17=0x2236ba6c
       22135000	      2212	80005a74	01381233	sll	x4,x16,x19	 x16:0x00000000 x19:0xfffffeed  x4=0x00000000
       22145000	      2213	80005a78	45d1f793	andi	x15,x3,1117	  x3:0xa2e1d71c x15=0x0000041c
       22155000	      2214	80005a7c	28943d13	sltiu	x26,x8,649	  x8:0x00000000 x26=0x00000001
       22165000	      2215	80005a80	0492d063	bge	x5,x9,80005ac0	  x5:0x30166000  x9:0x7c8bc26f
       22175000	      2216	80005a84	e1e02d13	slti	x26,x0,-482	  x0:0x00000000 x26=0x00000000
       22185000	      2217	80005a88	01555313	srli	x6,x10,0x15	 x10:0x00037380  x6=0x00000000
       22195000	      2218	80005a8c	04f6f463	bgeu	x13,x15,80005ad4	 x13:0x7fd9e834 x15:0x0000041c
       22205000	      2219	00000000	00000013	addi	x0,x0,0	  x0:0x00000000
       22215000	      2220	80005ad0	00000013	addi	x0,x0,0	  x0:0x00000000
       22225000	      2221	80005ad4	40315f93	srai	x31,x2,0x3	  x2:0x7c8ae2c4 x31=0x0f915c58
       22235000	      2222	80005ad8	403d86b3	sub	x13,x27,x3	 x27:0x83743d0d  x3:0xa2e1d71c x13=0xe09265f1
       22245000	      2223	80005adc	d9197293	andi	x5,x18,-623	 x18:0x80009f08  x5=0x80009d00
       22255000	      2224	80005ae0	39c57393	andi	x7,x10,924	 x10:0x00037380  x7=0x00000380
       22265000	      2225	80005ae4	0118ce63	blt	x17,x17,80005b00	 x17:0x2236ba6c x17:0x2236ba6c
       22275000	      2226	80005ae8	01d6bdb3	sltu	x27,x13,x29	 x13:0xe09265f1 x29:0x7c8bc2f3 x27=0x00000000
       22285000	      2227	80005aec	02d07063	bgeu	x0,x13,80005b0c	  x0:0x00000000 x13:0xe09265f1
       22295000	      2228	80005af0	05bd5863	bge	x26,x27,80005b40	 x26:0x00000000 x27:0x00000000
       22305000	      2229	00000000	00000013	addi	x0,x0,0	  x0:0x00000000
       22315000	      2230	80005b3c	00000013	addi	x0,x0,0	  x0:0x00000000
       22325000	      2231	80005b40	e1718c93	addi	x25,x3,-489	  x3:0xa2e1d71c x25=0xa2e1d533
       22335000	      2232	80005b44	04bcc263	blt	x25,x11,80005b88	 x25:0xa2e1d533 x11:0x0200027f
       22345000	      2233	00000000	00000013	addi	x0,x0,0	  x0:0x00000000
       22355000	      2234	80005b84	00000013	addi	x0,x0,0	  x0:0x00000000
       22365000	      2235	80005b88	02c56c63	bltu	x10,x12,80005bc0	 x10:0x00037380 x12:0x56a09988
       22375000	      2236	00000000	00000013	addi	x0,x0,0	  x0:0x00000000
       22385000	      2237	80005bbc	00000013	addi	x0,x0,0	  x0:0x00000000
       22395000	      2238	80005bc0	01d7f633	and	x12,x15,x29	 x15:0x0000041c x29:0x7c8bc2f3 x12=0x00000010
       22405000	      2239	80005bc4	07eeb517	auipc	x10,0x7eeb	 x10=0x87ef0bc0
       22415000	      2240	80005bc8	00186263	bltu	x16,x1,80005bcc	 x16:0x00000000  x1:0x89550801
       22425000	      2241	00000000	00000013	addi	x0,x0,0	  x0:0x00000000
       22435000	      2242	80005bc8	00000013	addi	x0,x0,0	  x0:0x00000000
       22445000	      2243	80005bcc	403d5d13	srai	x26,x26,0x3	 x26:0x00000000 x26=0x00000000
       22455000	      2244	80005bd0	dbcd8397	auipc	x7,0xdbcd8	  x7=0x5bcddbcc
       22465000	      2245	80005bd4	37073e13	sltiu	x28,x14,880	 x14:0x1228737f x28=0x00000000
       22475000	      2246	80005bd8	015f64b3	or	x9,x30,x21	 x30:0x80009f08 x21:0x00000001  x9=0x80009f09
       22485000	      2247	80005bdc	01850863	beq	x10,x24,80005bec	 x10:0x87ef0bc0 x24:0x00000000
       22495000	      2248	80005be0	019e3c33	sltu	x24,x28,x25	 x28:0x00000000 x25:0xa2e1d533 x24=0x00000001
       22505000	      2249	80005be4	63ecb113	sltiu	x2,x25,1598	 x25:0xa2e1d533  x2=0x00000000
       22515000	      2250	80005be8	b5713293	sltiu	x5,x2,-1193	  x2:0x00000000  x5=0x00000001
       22525000	      2251	80005bec	014fa533	slt	x10,x31,x20	 x31:0x0f915c58 x20:0x80009fc4 x10=0x00000000
       22535000	      2252	80005bf0	018f1d13	slli	x26,x30,0x18	 x30:0x80009f08 x26=0x08000000
       22545000	      2253	80005bf4	00000013	addi	x0,x0,0	  x0:0x00000000
       22555000	      2254	80005bf8	01f7e233	or	x4,x15,x31	 x15:0x0000041c x31:0x0f915c58  x4=0x0f915c5c
       22565000	      2255	80005bfc	41aad633	sra	x12,x21,x26	 x21:0x00000001 x26:0x08000000 x12=0x00000001
       22575000	      2256	80005c00	00000013	addi	x0,x0,0	  x0:0x00000000
       22585000	      2257	80005c04	0150f863	bgeu	x1,x21,80005c14	  x1:0x89550801 x21:0x00000001
       22595000	      2258	00000000	00000013	addi	x0,x0,0	  x0:0x00000000
       22605000	      2259	80005c10	00000013	addi	x0,x0,0	  x0:0x00000000
       22615000	      2260	80005c14	01362eb3	slt	x29,x12,x19	 x12:0x00000001 x19:0xfffffeed x29=0x00000000
       22625000	      2261	80005c18	cce8f093	andi	x1,x17,-818	 x17:0x2236ba6c  x1=0x2236b84c
       22635000	      2262	80005c1c	b9213313	sltiu	x6,x2,-1134	  x2:0x00000000  x6=0x00000001
       22645000	      2263	80005c20	41e05093	srai	x1,x0,0x1e	  x0:0x00000000  x1=0x00000000
       22655000	      2264	80005c24	00b816b3	sll	x13,x16,x11	 x16:0x00000000 x11:0x0200027f x13=0x00000000
       22665000	      2265	80005c28	04d54463	blt	x10,x13,80005c70	 x10:0x00000000 x13:0x00000000
       22675000	      2266	80005c2c	00a7a8b3	slt	x17,x15,x10	 x15:0x0000041c x10:0x00000000 x17=0x00000000
       22685000	      2267	80005c30	e4fe6493	ori	x9,x28,-433	 x28:0x00000000  x9=0xfffffe4f
       22695000	      2268	80005c34	0066d4b3	srl	x9,x13,x6	 x13:0x00000000  x6:0x00000001  x9=0x00000000
       22705000	      2269	80005c38	19843f93	sltiu	x31,x8,408	  x8:0x00000000 x31=0x00000001
       22715000	      2270	80005c3c	013305b3	add	x11,x6,x19	  x6:0x00000001 x19:0xfffffeed x11=0xfffffeee
       22725000	      2271	80005c40	00709c33	sll	x24,x1,x7	  x1:0x00000000  x7:0x5bcddbcc x24=0x00000000
       22735000	      2272	80005c44	00f34db3	xor	x27,x6,x15	  x6:0x00000001 x15:0x0000041c x27=0x0000041d
       22745000	      2273	80005c48	0309dc63	bge	x19,x16,80005c80	 x19:0xfffffeed x16:0x00000000
       22755000	      2274	80005c4c	019a95b3	sll	x11,x21,x25	 x21:0x00000001 x25:0xa2e1d533 x11=0x00080000
       22765000	      2275	80005c50	001b0633	add	x12,x22,x1	 x22:0x003a414b  x1:0x00000000 x12=0x003a414b
       22775000	      2276	80005c54	00b2a8b3	slt	x17,x5,x11	  x5:0x00000001 x11:0x00080000 x17=0x00000001
       22785000	      2277	80005c58	a58fe313	ori	x6,x31,-1448	 x31:0x00000001  x6=0xfffffa59
       22795000	      2278	80005c5c	1f383317	auipc	x6,0x1f383	  x6=0x9f388c58
       22805000	      2279	80005c60	418c5fb3	sra	x31,x24,x24	 x24:0x00000000 x24:0x00000000 x31=0x00000000
       22815000	      2280	80005c64	8daacc13	xori	x24,x21,-1830	 x21:0x00000001 x24=0xfffff8db
       22825000	      2281	80005c68	017022b3	slt	x5,x0,x23	  x0:0x00000000 x23:0x7c8bc2f3  x5=0x00000001
       22835000	      2282	80005c6c	027c5a63	bge	x24,x7,80005ca0	 x24:0xfffff8db  x7:0x5bcddbcc
       22845000	      2283	80005c70	00f69433	sll	x8,x13,x15	 x13:0x00000000 x15:0x0000041c  x8=0x00000000
       22855000	      2284	80005c74	7d7e3f93	sltiu	x31,x28,2007	 x28:0x00000000 x31=0x00000001
       22865000	      2285	80005c78	0026ac33	slt	x24,x13,x2	 x13:0x00000000  x2:0x00000000 x24=0x00000000
       22875000	      2286	80005c7c	01e349b3	xor	x19,x6,x30	  x6:0x9f388c58 x30:0x80009f08 x19=0x1f381350
       22885000	      2287	80005c80	02497063	bgeu	x18,x4,80005ca0	 x18:0x80009f08  x4:0x0f915c5c
       22895000	      2288	00000000	00000013	addi	x0,x0,0	  x0:0x00000000
       22905000	      2289	80005c9c	00000013	addi	x0,x0,0	  x0:0x00000000
       22915000	      2290	80005ca0	f3e14f93	xori	x31,x2,-194	  x2:0x00000000 x31=0xffffff3e
       22925000	      2291	80005ca4	04f29863	bne	x5,x15,80005cf4	  x5:0x00000001 x15:0x0000041c
       22935000	      2292	00000000	00000013	addi	x0,x0,0	  x0:0x00000000
       22945000	      2293	80005cf0	00000013	addi	x0,x0,0	  x0:0x00000000
       22955000	      2294	80005cf4	010bafb3	slt	x31,x23,x16	 x23:0x7c8bc2f3 x16:0x00000000 x31=0x00000000
       22965000	      2295	80005cf8	00000013	addi	x0,x0,0	  x0:0x00000000
       22975000	      2296	80005cfc	928c2213	slti	x4,x24,-1752	 x24:0x00000000  x4=0x00000000
       22985000	      2297	80005d00	00725ab3	srl	x21,x4,x7	  x4:0x00000000  x7:0x5bcddbcc x21=0x00000000
       22995000	      2298	80005d04	4098d7b3	sra	x15,x17,x9	 x17:0x00000001  x9:0x00000000 x15=0x00000001
       23005000	      2299	80005d08	0087d713	srli	x14,x15,0x8	 x15:0x00000001 x14=0x00000000
       23015000	      2300	80005d0c	00000013	addi	x0,x0,0	  x0:0x00000000
       23025000	      2301	80005d10	01229863	bne	x5,x18,80005d20	  x5:0x00000001 x18:0x80009f08
       23035000	      2302	00000000	00000013	addi	x0,x0,0	  x0:0x00000000
       23045000	      2303	80005d1c	00000013	addi	x0,x0,0	  x0:0x00000000
       23055000	      2304	80005d20	18d6e613	ori	x12,x13,397	 x13:0x00000000 x12=0x0000018d
       23065000	      2305	80005d24	049b4463	blt	x22,x9,80005d6c	 x22:0x003a414b  x9:0x00000000
       23075000	      2306	80005d28	f43ac1b7	lui	x3,0xf43ac	  x3=0xf43ac000
       23085000	      2307	80005d2c	015335b3	sltu	x11,x6,x21	  x6:0x9f388c58 x21:0x00000000 x11=0x00000000
       23095000	      2308	80005d30	013c9993	slli	x19,x25,0x13	 x25:0xa2e1d533 x19=0xa9980000
       23105000	      2309	80005d34	01da9013	slli	x0,x21,0x1d	 x21:0x00000000
       23115000	      2310	80005d38	02618063	beq	x3,x6,80005d58	  x3:0xf43ac000  x6:0x9f388c58
       23125000	      2311	80005d3c	006280b3	add	x1,x5,x6	  x5:0x00000001  x6:0x9f388c58  x1=0x9f388c59
       23135000	      2312	80005d40	5943a913	slti	x18,x7,1428	  x7:0x5bcddbcc x18=0x00000000
       23145000	      2313	80005d44	68dbfe13	andi	x28,x23,1677	 x23:0x7c8bc2f3 x28=0x00000281
       23155000	      2314	80005d48	02a89a63	bne	x17,x10,80005d7c	 x17:0x00000001 x10:0x00000000
       23165000	      2315	00000000	00000013	addi	x0,x0,0	  x0:0x00000000
       23175000	      2316	80005d78	00000013	addi	x0,x0,0	  x0:0x00000000
       23185000	      2317	80005d7c	04359063	bne	x11,x3,80005dbc	 x11:0x00000000  x3:0xf43ac000
       23195000	      2318	00000000	00000013	addi	x0,x0,0	  x0:0x00000000
       23205000	      2319	80005db8	00000013	addi	x0,x0,0	  x0:0x00000000
       23215000	      2320	80005dbc	4074de93	srai	x29,x9,0x7	  x9:0x00000000 x29=0x00000000
       23225000	      2321	80005dc0	004e1863	bne	x28,x4,80005dd0	 x28:0x00000281  x4:0x00000000
       23235000	      2322	00000000	00000013	addi	x0,x0,0	  x0:0x00000000
       23245000	      2323	80005dcc	00000013	addi	x0,x0,0	  x0:0x00000000
       23255000	      2324	80005dd0	035ac063	blt	x21,x21,80005df0	 x21:0x00000000 x21:0x00000000
       23265000	      2325	80005dd4	7d1ebb13	sltiu	x22,x29,2001	 x29:0x00000000 x22=0x00000001
       23275000	      2326	80005dd8	04174263	blt	x14,x1,80005e1c	 x14:0x00000000  x1:0x9f388c59
       23285000	      2327	80005ddc	e95efd17	auipc	x26,0xe95ef	 x26=0x695f4dd8
       23295000	      2328	80005de0	68faa213	slti	x4,x21,1679	 x21:0x00000000  x4=0x00000001
       23305000	      2329	80005de4	012b5133	srl	x2,x22,x18	 x22:0x00000001 x18:0x00000000  x2=0x00000001
       23315000	      2330	80005de8	029a4863	blt	x20,x9,80005e18	 x20:0x80009fc4  x9:0x00000000
       23325000	      2331	00000000	00000013	addi	x0,x0,0	  x0:0x00000000
       23335000	      2332	80005e14	00000013	addi	x0,x0,0	  x0:0x00000000
       23345000	      2333	80005e18	0031aeb3	slt	x29,x3,x3	  x3:0xf43ac000  x3:0xf43ac000 x29=0x00000000
       23355000	      2334	80005e1c	03a8a693	slti	x13,x17,58	 x17:0x00000001 x13=0x00000001
       23365000	      2335	80005e20	01c1b8b3	sltu	x17,x3,x28	  x3:0xf43ac000 x28:0x00000281 x17=0x00000000
       23375000	      2336	80005e24	00000013	addi	x0,x0,0	  x0:0x00000000
       23385000	      2337	80005e28	44c1fd13	andi	x26,x3,1100	  x3:0xf43ac000 x26=0x00000000
       23395000	      2338	80005e2c	411007b3	sub	x15,x0,x17	  x0:0x00000000 x17:0x00000000 x15=0x00000000
       23405000	      2339	80005e30	618a7537	lui	x10,0x618a7	 x10=0x618a7000
       23415000	      2340	80005e34	d6bc7293	andi	x5,x24,-661	 x24:0x00000000  x5=0x00000000
       23425000	      2341	80005e38	001404b3	add	x9,x8,x1	  x8:0x00000000  x1:0x9f388c59  x9=0x9f388c59
       23435000	      2342	80005e3c	018c0e63	beq	x24,x24,80005e58	 x24:0x00000000 x24:0x00000000
       23445000	      2343	00000000	00000013	addi	x0,x0,0	  x0:0x00000000
       23455000	      2344	80005e54	00000013	addi	x0,x0,0	  x0:0x00000000
       23465000	      2345	80005e58	c58a30b7	lui	x1,0xc58a3	  x1=0xc58a3000
       23475000	      2346	80005e5c	00e7f2b3	and	x5,x15,x14	 x15:0x00000000 x14:0x00000000  x5=0x00000000
       23485000	      2347	80005e60	05247663	bgeu	x8,x18,80005eac	  x8:0x00000000 x18:0x00000000
       23495000	      2348	00000000	00000013	addi	x0,x0,0	  x0:0x00000000
       23505000	      2349	80005ea8	00000013	addi	x0,x0,0	  x0:0x00000000
       23515000	      2350	80005eac	e0c73e13	sltiu	x28,x14,-500	 x14:0x00000000 x28=0x00000001
       23525000	      2351	80005eb0	00000013	addi	x0,x0,0	  x0:0x00000000
       23535000	      2352	80005eb4	00000013	addi	x0,x0,0	  x0:0x00000000
       23545000	      2353	80005eb8	4027d7b3	sra	x15,x15,x2	 x15:0x00000000  x2:0x00000001 x15=0x00000000
       23555000	      2354	80005ebc	5cc76b13	ori	x22,x14,1484	 x14:0x00000000 x22=0x000005cc
       23565000	      2355	80005ec0	41845233	sra	x4,x8,x24	  x8:0x00000000 x24:0x00000000  x4=0x00000000
       23575000	      2356	80005ec4	00000013	addi	x0,x0,0	  x0:0x00000000
       23585000	      2357	80005ec8	0189c533	xor	x10,x19,x24	 x19:0xa9980000 x24:0x00000000 x10=0xa9980000
       23595000	      2358	80005ecc	017c7833	and	x16,x24,x23	 x24:0x00000000 x23:0x7c8bc2f3 x16=0x00000000
       23605000	      2359	80005ed0	00dc0d33	add	x26,x24,x13	 x24:0x00000000 x13:0x00000001 x26=0x00000001
       23615000	      2360	80005ed4	059bf463	bgeu	x23,x25,80005f1c	 x23:0x7c8bc2f3 x25:0xa2e1d533
       23625000	      2361	80005ed8	559ca093	slti	x1,x25,1369	 x25:0xa2e1d533  x1=0x00000001
       23635000	      2362	80005edc	e3160793	addi	x15,x12,-463	 x12:0x0000018d x15=0xffffffbe
       23645000	      2363	80005ee0	02b4c063	blt	x9,x11,80005f00	  x9:0x9f388c59 x11:0x00000000
       23655000	      2364	00000000	00000013	addi	x0,x0,0	  x0:0x00000000
       23665000	      2365	80005efc	00000013	addi	x0,x0,0	  x0:0x00000000
       23675000	      2366	80005f00	0136e633	or	x12,x13,x19	 x13:0x00000001 x19:0xa9980000 x12=0xa9980001
       23685000	      2367	80005f04	b268a493	slti	x9,x17,-1242	 x17:0x00000000  x9=0x00000000
       23695000	      2368	80005f08	42138613	addi	x12,x7,1057	  x7:0x5bcddbcc x12=0x5bcddfed
       23705000	      2369	80005f0c	01443633	sltu	x12,x8,x20	  x8:0x00000000 x20:0x80009fc4 x12=0x00000001
       23715000	      2370	80005f10	00f9cab3	xor	x21,x19,x15	 x19:0xa9980000 x15:0xffffffbe x21=0x5667ffbe
       23725000	      2371	80005f14	0085c8b3	xor	x17,x11,x8	 x11:0x00000000  x8:0x00000000 x17=0x00000000
       23735000	      2372	80005f18	3f51f393	andi	x7,x3,1013	  x3:0xf43ac000  x7=0x00000000
       23745000	      2373	80005f1c	005992b3	sll	x5,x19,x5	 x19:0xa9980000  x5:0x00000000  x5=0xa9980000
       23755000	      2374	80005f20	00b65e13	srli	x28,x12,0xb	 x12:0x00000001 x28=0x00000000
       23765000	      2375	80005f24	237d6313	ori	x6,x26,567	 x26:0x00000001  x6=0x00000237
       23775000	      2376	80005f28	00451213	slli	x4,x10,0x4	 x10:0xa9980000  x4=0x99800000
       23785000	      2377	80005f2c	015357b3	srl	x15,x6,x21	  x6:0x00000237 x21:0x5667ffbe x15=0x00000000
       23795000	      2378	80005f30	01c51833	sll	x16,x10,x28	 x10:0xa9980000 x28:0x00000000 x16=0xa9980000
       23805000	      2379	80005f34	01bf4cb3	xor	x25,x30,x27	 x30:0x80009f08 x27:0x0000041d x25=0x80009b15
       23815000	      2380	80005f38	0184bb33	sltu	x22,x9,x24	  x9:0x00000000 x24:0x00000000 x22=0x00000000
       23825000	      2381	80005f3c	40efdeb3	sra	x29,x31,x14	 x31:0x00000000 x14:0x00000000 x29=0x00000000
       23835000	      2382	80005f40	987d6393	ori	x7,x26,-1657	 x26:0x00000001  x7=0xfffff987
       23845000	      2383	80005f44	0173de63	bge	x7,x23,80005f60	  x7:0xfffff987 x23:0x7c8bc2f3
       23855000	      2384	80005f48	0035d863	bge	x11,x3,80005f58	 x11:0x00000000  x3:0xf43ac000
       23865000	      2385	00000000	00000013	addi	x0,x0,0	  x0:0x00000000
       23875000	      2386	80005f54	00000013	addi	x0,x0,0	  x0:0x00000000
       23885000	      2387	80005f58	04ecdab7	lui	x21,0x4ecd	 x21=0x04ecd000
       23895000	      2388	80005f5c	daaef593	andi	x11,x29,-598	 x29:0x00000000 x11=0x00000000
       23905000	      2389	80005f60	03fb1a63	bne	x22,x31,80005f94	 x22:0x00000000 x31:0x00000000
       23915000	      2390	80005f64	000d62b3	or	x5,x26,x0	 x26:0x00000001  x0:0x00000000  x5=0x00000001
       23925000	      2391	80005f68	0536f863	bgeu	x13,x19,80005fb8	 x13:0x00000001 x19:0xa9980000
       23935000	      2392	80005f6c	20f47813	andi	x16,x8,527	  x8:0x00000000 x16=0x00000000
       23945000	      2393	80005f70	41ab53b3	sra	x7,x22,x26	 x22:0x00000000 x26:0x00000001  x7=0x00000000
       23955000	      2394	80005f74	01c05213	srli	x4,x0,0x1c	  x0:0x00000000  x4=0x00000000
       23965000	      2395	80005f78	00af58b3	srl	x17,x30,x10	 x30:0x80009f08 x10:0xa9980000 x17=0x80009f08
       23975000	      2396	80005f7c	00c11933	sll	x18,x2,x12	  x2:0x00000001 x12:0x00000001 x18=0x00000002
       23985000	      2397	80005f80	05e14393	xori	x7,x2,94	  x2:0x00000001  x7=0x0000005f
       23995000	      2398	80005f84	419083b3	sub	x7,x1,x25	  x1:0x00000001 x25:0x80009b15  x7=0x7fff64ec
       24005000	      2399	80005f88	41a48ab3	sub	x21,x9,x26	  x9:0x00000000 x26:0x00000001 x21=0xffffffff
       24015000	      2400	80005f8c	00000013	addi	x0,x0,0	  x0:0x00000000
       24025000	      2401	80005f90	de26d0b7	lui	x1,0xde26d	  x1=0xde26d000
       24035000	      2402	80005f94	fd6b0a93	addi	x21,x22,-42	 x22:0x00000000 x21=0xffffffd6
       24045000	      2403	80005f98	04c6c663	blt	x13,x12,80005fe4	 x13:0x00000001 x12:0x00000001
       24055000	      2404	80005f9c	41b45093	srai	x1,x8,0x1b	  x8:0x00000000  x1=0x00000000
       24065000	      2405	80005fa0	00549e13	slli	x28,x9,0x5	  x9:0x00000000 x28=0x00000000
       24075000	      2406	80005fa4	00a8a1b3	slt	x3,x17,x10	 x17:0x80009f08 x10:0xa9980000  x3=0x00000001
       24085000	      2407	80005fa8	03764a63	blt	x12,x23,80005fdc	 x12:0x00000001 x23:0x7c8bc2f3
       24095000	      2408	00000000	00000013	addi	x0,x0,0	  x0:0x00000000
       24105000	      2409	80005fd8	00000013	addi	x0,x0,0	  x0:0x00000000
       24115000	      2410	80005fdc	01bb74b3	and	x9,x22,x27	 x22:0x00000000 x27:0x0000041d  x9=0x00000000
       24125000	      2411	80005fe0	01346663	bltu	x8,x19,80005fec	  x8:0x00000000 x19:0xa9980000
       24135000	      2412	00000000	00000013	addi	x0,x0,0	  x0:0x00000000
       24145000	      2413	80005fe8	00000013	addi	x0,x0,0	  x0:0x00000000
       24155000	      2414	80005fec	40b05d13	srai	x26,x0,0xb	  x0:0x00000000 x26=0x00000000
       24165000	      2415	80005ff0	05aed263	bge	x29,x26,80006034	 x29:0x00000000 x26:0x00000000
       24175000	      2416	00000000	00000013	addi	x0,x0,0	  x0:0x00000000
       24185000	      2417	80006030	00000013	addi	x0,x0,0	  x0:0x00000000
       24195000	      2418	80006034	03f4e863	bltu	x9,x31,80006064	  x9:0x00000000 x31:0x00000000
       24205000	      2419	80006038	00416033	or	x0,x2,x4	  x2:0x00000001  x4:0x00000000
       24215000	      2420	8000603c	83b9b713	sltiu	x14,x19,-1989	 x19:0xa9980000 x14=0x00000001
       24225000	      2421	80006040	00014263	blt	x2,x0,80006044	  x2:0x00000001  x0:0x00000000
       24235000	      2422	80006044	04f56663	bltu	x10,x15,80006090	 x10:0xa9980000 x15:0x00000000
       24245000	      2423	80006048	00d31c33	sll	x24,x6,x13	  x6:0x00000237 x13:0x00000001 x24=0x0000046e
       24255000	      2424	8000604c	03ae1663	bne	x28,x26,80006078	 x28:0x00000000 x26:0x00000000
       24265000	      2425	80006050	03579c63	bne	x15,x21,80006088	 x15:0x00000000 x21:0xffffffd6
       24275000	      2426	00000000	00000013	addi	x0,x0,0	  x0:0x00000000
       24285000	      2427	80006084	00000013	addi	x0,x0,0	  x0:0x00000000
       24295000	      2428	80006088	40e15493	srai	x9,x2,0xe	  x2:0x00000001  x9=0x00000000
       24305000	      2429	8000608c	005fae33	slt	x28,x31,x5	 x31:0x00000000  x5:0x00000001 x28=0x00000001
       24315000	      2430	80006090	4067d493	srai	x9,x15,0x6	 x15:0x00000000  x9=0x00000000
       24325000	      2431	80006094	dbaba593	slti	x11,x23,-582	 x23:0x7c8bc2f3 x11=0x00000000
       24335000	      2432	80006098	47f14313	xori	x6,x2,1151	  x2:0x00000001  x6=0x0000047e
       24345000	      2433	8000609c	417ad293	srai	x5,x21,0x17	 x21:0xffffffd6  x5=0xffffffff
       24355000	      2434	800060a0	009d5413	srli	x8,x26,0x9	 x26:0x00000000  x8=0x00000000
       24365000	      2435	800060a4	01959793	slli	x15,x11,0x19	 x11:0x00000000 x15=0x00000000
       24375000	      2436	800060a8	85c38a93	addi	x21,x7,-1956	  x7:0x7fff64ec x21=0x7fff5d48
       24385000	      2437	800060ac	01ae1713	slli	x14,x28,0x1a	 x28:0x00000001 x14=0x04000000
       24395000	      2438	800060b0	1cdbe613	ori	x12,x23,461	 x23:0x7c8bc2f3 x12=0x7c8bc3ff
       24405000	      2439	800060b4	00eb1293	slli	x5,x22,0xe	 x22:0x00000000  x5=0x00000000
       24415000	      2440	800060b8	0159c133	xor	x2,x19,x21	 x19:0xa9980000 x21:0x7fff5d48  x2=0xd6675d48
       24425000	      2441	800060bc	04e70063	beq	x14,x14,800060fc	 x14:0x04000000 x14:0x04000000
       24435000	      2442	00000000	00000013	addi	x0,x0,0	  x0:0x00000000
       24445000	      2443	800060f8	00000013	addi	x0,x0,0	  x0:0x00000000
       24455000	      2444	800060fc	0040ed33	or	x26,x1,x4	  x1:0x00000000  x4:0x00000000 x26=0x00000000
       24465000	      2445	80006100	01ecedb3	or	x27,x25,x30	 x25:0x80009b15 x30:0x80009f08 x27=0x80009f1d
       24475000	      2446	80006104	5fcb6393	ori	x7,x22,1532	 x22:0x00000000  x7=0x000005fc
       24485000	      2447	80006108	0075dc13	srli	x24,x11,0x7	 x11:0x00000000 x24=0x00000000
       24495000	      2448	8000610c	002be863	bltu	x23,x2,8000611c	 x23:0x7c8bc2f3  x2:0xd6675d48
       24505000	      2449	00000000	00000013	addi	x0,x0,0	  x0:0x00000000
       24515000	      2450	80006118	00000013	addi	x0,x0,0	  x0:0x00000000
       24525000	      2451	8000611c	a00d8cb7	lui	x25,0xa00d8	 x25=0xa00d8000
       24535000	      2452	80006120	75b7fd93	andi	x27,x15,1883	 x15:0x00000000 x27=0x00000000
       24545000	      2453	80006124	01f9d893	srli	x17,x19,0x1f	 x19:0xa9980000 x17=0x00000001
       24555000	      2454	80006128	0078fe93	andi	x29,x17,7	 x17:0x00000001 x29=0x00000001
       24565000	      2455	8000612c	004535b3	sltu	x11,x10,x4	 x10:0xa9980000  x4:0x00000000 x11=0x00000000
       24575000	      2456	80006130	f5fe3613	sltiu	x12,x28,-161	 x28:0x00000001 x12=0x00000001
       24585000	      2457	80006134	01968cb3	add	x25,x13,x25	 x13:0x00000001 x25:0xa00d8000 x25=0xa00d8001
       24595000	      2458	80006138	0d5c6613	ori	x12,x24,213	 x24:0x00000000 x12=0x000000d5
       24605000	      2459	8000613c	2a468513	addi	x10,x13,676	 x13:0x00000001 x10=0x000002a5
       24615000	      2460	80006140	0044d293	srli	x5,x9,0x4	  x9:0x00000000  x5=0x00000000
       24625000	      2461	80006144	0151cc63	blt	x3,x21,8000615c	  x3:0x00000001 x21:0x7fff5d48
       24635000	      2462	00000000	00000013	addi	x0,x0,0	  x0:0x00000000
       24645000	      2463	80006158	00000013	addi	x0,x0,0	  x0:0x00000000
       24655000	      2464	8000615c	02467c63	bgeu	x12,x4,80006194	 x12:0x000000d5  x4:0x00000000
       24665000	      2465	00000000	00000013	addi	x0,x0,0	  x0:0x00000000
       24675000	      2466	80006190	00000013	addi	x0,x0,0	  x0:0x00000000
       24685000	      2467	80006194	4108d213	srai	x4,x17,0x10	 x17:0x00000001  x4=0x00000000
       24695000	      2468	80006198	1c8afab7	lui	x21,0x1c8af	 x21=0x1c8af000
       24705000	      2469	8000619c	8acf8793	addi	x15,x31,-1876	 x31:0x00000000 x15=0xfffff8ac
       24715000	      2470	800061a0	00c8d213	srli	x4,x17,0xc	 x17:0x00000001  x4=0x00000000
       24725000	      2471	800061a4	010571b3	and	x3,x10,x16	 x10:0x000002a5 x16:0x00000000  x3=0x00000000
       24735000	      2472	800061a8	0444d463	bge	x9,x4,800061f0	  x9:0x00000000  x4:0x00000000
       24745000	      2473	00000000	00000013	addi	x0,x0,0	  x0:0x00000000
       24755000	      2474	800061ec	00000013	addi	x0,x0,0	  x0:0x00000000
       24765000	      2475	800061f0	00f1bcb3	sltu	x25,x3,x15	  x3:0x00000000 x15:0xfffff8ac x25=0x00000001
       24775000	      2476	800061f4	ea6e3213	sltiu	x4,x28,-346	 x28:0x00000001  x4=0x00000001
       24785000	      2477	800061f8	016dbcb3	sltu	x25,x27,x22	 x27:0x00000000 x22:0x00000000 x25=0x00000000
       24795000	      2478	800061fc	015a9e63	bne	x21,x21,80006218	 x21:0x1c8af000 x21:0x1c8af000
       24805000	      2479	80006200	00000013	addi	x0,x0,0	  x0:0x00000000
       24815000	      2480	80006204	01e13c33	sltu	x24,x2,x30	  x2:0xd6675d48 x30:0x80009f08 x24=0x00000000
       24825000	      2481	80006208	41b45693	srai	x13,x8,0x1b	  x8:0x00000000 x13=0x00000000
       24835000	      2482	8000620c	00c801b3	add	x3,x16,x12	 x16:0x00000000 x12:0x000000d5  x3=0x000000d5
       24845000	      2483	80006210	0125e233	or	x4,x11,x18	 x11:0x00000000 x18:0x00000002  x4=0x00000002
       24855000	      2484	80006214	00f24733	xor	x14,x4,x15	  x4:0x00000002 x15:0xfffff8ac x14=0xfffff8ae
       24865000	      2485	80006218	41f25d13	srai	x26,x4,0x1f	  x4:0x00000002 x26=0x00000000
       24875000	      2486	8000621c	012cdc93	srli	x25,x25,0x12	 x25:0x00000000 x25=0x00000000
       24885000	      2487	80006220	8af62313	slti	x6,x12,-1873	 x12:0x000000d5  x6=0x00000000
       24895000	      2488	80006224	9863ed93	ori	x27,x7,-1658	  x7:0x000005fc x27=0xfffffdfe
       24905000	      2489	80006228	c9f7b013	sltiu	x0,x15,-865	 x15:0xfffff8ac
       24915000	      2490	8000622c	0429d063	bge	x19,x2,8000626c	 x19:0xa9980000  x2:0xd6675d48
       24925000	      2491	80006230	ad1ef013	andi	x0,x29,-1327	 x29:0x00000001
       24935000	      2492	80006234	400bd5b3	sra	x11,x23,x0	 x23:0x7c8bc2f3  x0:0x00000000 x11=0x7c8bc2f3
       24945000	      2493	80006238	db7b8493	addi	x9,x23,-585	 x23:0x7c8bc2f3  x9=0x7c8bc0aa
       24955000	      2494	8000623c	4161d5b3	sra	x11,x3,x22	  x3:0x000000d5 x22:0x00000000 x11=0x000000d5
       24965000	      2495	80006240	02f45063	bge	x8,x15,80006260	  x8:0x00000000 x15:0xfffff8ac
       24975000	      2496	00000000	00000013	addi	x0,x0,0	  x0:0x00000000
       24985000	      2497	8000625c	00000013	addi	x0,x0,0	  x0:0x00000000
       24995000	      2498	80006260	05d0c063	blt	x1,x29,800062a0	  x1:0x00000000 x29:0x00000001
       25005000	      2499	00000000	00000013	addi	x0,x0,0	  x0:0x00000000
       25015000	      2500	8000629c	00000013	addi	x0,x0,0	  x0:0x00000000
       25025000	      2501	800062a0	01eed133	srl	x2,x29,x30	 x29:0x00000001 x30:0x80009f08  x2=0x00000000
       25035000	      2502	800062a4	01cbdc63	bge	x23,x28,800062bc	 x23:0x7c8bc2f3 x28:0x00000001
       25045000	      2503	00000000	00000013	addi	x0,x0,0	  x0:0x00000000
       25055000	      2504	800062b8	00000013	addi	x0,x0,0	  x0:0x00000000
       25065000	      2505	800062bc	00e130b3	sltu	x1,x2,x14	  x2:0x00000000 x14:0xfffff8ae  x1=0x00000001
       25075000	      2506	800062c0	8fb08597	auipc	x11,0x8fb08	 x11=0x0fb0e2bc
       25085000	      2507	800062c4	d18d7193	andi	x3,x26,-744	 x26:0x00000000  x3=0x00000000
       25095000	      2508	800062c8	000db633	sltu	x12,x27,x0	 x27:0xfffffdfe  x0:0x00000000 x12=0x00000000
       25105000	      2509	800062cc	6fe1af93	slti	x31,x3,1790	  x3:0x00000000 x31=0x00000001
       25115000	      2510	800062d0	41f4d433	sra	x8,x9,x31	  x9:0x7c8bc0aa x31:0x00000001  x8=0x3e45e055
       25125000	      2511	800062d4	01598333	add	x6,x19,x21	 x19:0xa9980000 x21:0x1c8af000  x6=0xc622f000
       25135000	      2512	800062d8	01e933b3	sltu	x7,x18,x30	 x18:0x00000002 x30:0x80009f08  x7=0x00000001
       25145000	      2513	800062dc	01f4afb3	slt	x31,x9,x31	  x9:0x7c8bc0aa x31:0x00000001 x31=0x00000000
       25155000	      2514	800062e0	744a8793	addi	x15,x21,1860	 x21:0x1c8af000 x15=0x1c8af744
       25165000	      2515	800062e4	0006ee63	bltu	x13,x0,80006300	 x13:0x00000000  x0:0x00000000
       25175000	      2516	800062e8	015cffb3	and	x31,x25,x21	 x25:0x00000000 x21:0x1c8af000 x31=0x00000000
       25185000	      2517	800062ec	016cf633	and	x12,x25,x22	 x25:0x00000000 x22:0x00000000 x12=0x00000000
       25195000	      2518	800062f0	00f569b3	or	x19,x10,x15	 x10:0x000002a5 x15:0x1c8af744 x19=0x1c8af7e5
       25205000	      2519	800062f4	41d2d793	srai	x15,x5,0x1d	  x5:0x00000000 x15=0x00000000
       25215000	      2520	800062f8	00a5f863	bgeu	x11,x10,80006308	 x11:0x0fb0e2bc x10:0x000002a5
       25225000	      2521	00000000	00000013	addi	x0,x0,0	  x0:0x00000000
       25235000	      2522	80006304	00000013	addi	x0,x0,0	  x0:0x00000000
       25245000	      2523	80006308	e0654613	xori	x12,x10,-506	 x10:0x000002a5 x12=0xfffffca3
       25255000	      2524	8000630c	01035313	srli	x6,x6,0x10	  x6:0xc622f000  x6=0x0000c622
       25265000	      2525	80006310	01405c93	srli	x25,x0,0x14	  x0:0x00000000 x25=0x00000000
       25275000	      2526	80006314	01009233	sll	x4,x1,x16	  x1:0x00000001 x16:0x00000000  x4=0x00000001
       25285000	      2527	80006318	001fde93	srli	x29,x31,0x1	 x31:0x00000000 x29=0x00000000
       25295000	      2528	8000631c	02a54a63	blt	x10,x10,80006350	 x10:0x000002a5 x10:0x000002a5
       25305000	      2529	80006320	017fadb3	slt	x27,x31,x23	 x31:0x00000000 x23:0x7c8bc2f3 x27=0x00000001
       25315000	      2530	80006324	01345fb3	srl	x31,x8,x19	  x8:0x3e45e055 x19:0x1c8af7e5 x31=0x01f22f02
       25325000	      2531	80006328	401e5993	srai	x19,x28,0x1	 x28:0x00000001 x19=0x00000000
       25335000	      2532	8000632c	83194f93	xori	x31,x18,-1999	 x18:0x00000002 x31=0xfffff833
       25345000	      2533	80006330	41f8d533	sra	x10,x17,x31	 x17:0x00000001 x31:0xfffff833 x10=0x00000000
       25355000	      2534	80006334	416e5eb3	sra	x29,x28,x22	 x28:0x00000001 x22:0x00000000 x29=0x00000001
       25365000	      2535	80006338	03964c63	blt	x12,x25,80006370	 x12:0xfffffca3 x25:0x00000000
       25375000	      2536	00000000	00000013	addi	x0,x0,0	  x0:0x00000000
       25385000	      2537	8000636c	00000013	addi	x0,x0,0	  x0:0x00000000
       25395000	      2538	80006370	00c6dfb3	srl	x31,x13,x12	 x13:0x00000000 x12:0xfffffca3 x31=0x00000000
       25405000	      2539	80006374	a81b7193	andi	x3,x22,-1407	 x22:0x00000000  x3=0x00000000
       25415000	      2540	80006378	400ddfb3	sra	x31,x27,x0	 x27:0x00000001  x0:0x00000000 x31=0x00000001
       25425000	      2541	8000637c	02876a63	bltu	x14,x8,800063b0	 x14:0xfffff8ae  x8:0x3e45e055
       25435000	      2542	80006380	f92f1fb7	lui	x31,0xf92f1	 x31=0xf92f1000
       25445000	      2543	80006384	009cd093	srli	x1,x25,0x9	 x25:0x00000000  x1=0x00000000
       25455000	      2544	80006388	01e867b3	or	x15,x16,x30	 x16:0x00000000 x30:0x80009f08 x15=0x80009f08
       25465000	      2545	8000638c	1cceb537	lui	x10,0x1cceb	 x10=0x1cceb000
       25475000	      2546	80006390	017d7c33	and	x24,x26,x23	 x26:0x00000000 x23:0x7c8bc2f3 x24=0x00000000
       25485000	      2547	80006394	03bed063	bge	x29,x27,800063b4	 x29:0x00000001 x27:0x00000001
       25495000	      2548	00000000	00000013	addi	x0,x0,0	  x0:0x00000000
       25505000	      2549	800063b0	00000013	addi	x0,x0,0	  x0:0x00000000
       25515000	      2550	800063b4	01a35013	srli	x0,x6,0x1a	  x6:0x0000c622
       25525000	      2551	800063b8	01af5413	srli	x8,x30,0x1a	 x30:0x80009f08  x8=0x00000020
       25535000	      2552	800063bc	d450a493	slti	x9,x1,-699	  x1:0x00000000  x9=0x00000000
       25545000	      2553	800063c0	4174d813	srai	x16,x9,0x17	  x9:0x00000000 x16=0x00000000
       25555000	      2554	800063c4	44bb0a93	addi	x21,x22,1099	 x22:0x00000000 x21=0x0000044b
       25565000	      2555	800063c8	006d0233	add	x4,x26,x6	 x26:0x00000000  x6:0x0000c622  x4=0x0000c622
       25575000	      2556	800063cc	04d47863	bgeu	x8,x13,8000641c	  x8:0x00000020 x13:0x00000000
       25585000	      2557	00000000	00000013	addi	x0,x0,0	  x0:0x00000000
       25595000	      2558	80006418	00000013	addi	x0,x0,0	  x0:0x00000000
       25605000	      2559	8000641c	04207663	bgeu	x0,x2,80006468	  x0:0x00000000  x2:0x00000000
       25615000	      2560	00000000	00000013	addi	x0,x0,0	  x0:0x00000000
       25625000	      2561	80006464	00000013	addi	x0,x0,0	  x0:0x00000000
       25635000	      2562	80006468	014633b3	sltu	x7,x12,x20	 x12:0xfffffca3 x20:0x80009fc4  x7=0x00000000
       25645000	      2563	8000646c	018bf9b3	and	x19,x23,x24	 x23:0x7c8bc2f3 x24:0x00000000 x19=0x00000000
       25655000	      2564	80006470	014da1b3	slt	x3,x27,x20	 x27:0x00000001 x20:0x80009fc4  x3=0x00000000
       25665000	      2565	80006474	30912617	auipc	x12,0x30912	 x12=0xb0918470
       25675000	      2566	80006478	01854263	blt	x10,x24,8000647c	 x10:0x1cceb000 x24:0x00000000
       25685000	      2567	8000647c	010ae7b3	or	x15,x21,x16	 x21:0x0000044b x16:0x00000000 x15=0x0000044b
       25695000	      2568	80006480	407c5db3	sra	x27,x24,x7	 x24:0x00000000  x7:0x00000000 x27=0x00000000
       25705000	      2569	80006484	014793b3	sll	x7,x15,x20	 x15:0x0000044b x20:0x80009fc4  x7=0x000044b0
       25715000	      2570	80006488	004ab1b3	sltu	x3,x21,x4	 x21:0x0000044b  x4:0x0000c622  x3=0x00000001
       25725000	      2571	8000648c	029c1c63	bne	x24,x9,800064c4	 x24:0x00000000  x9:0x00000000
       25735000	      2572	80006490	012cd133	srl	x2,x25,x18	 x25:0x00000000 x18:0x00000002  x2=0x00000000
       25745000	      2573	80006494	417ed0b3	sra	x1,x29,x23	 x29:0x00000001 x23:0x7c8bc2f3  x1=0x00000000
       25755000	      2574	80006498	00134863	blt	x6,x1,800064a8	  x6:0x0000c622  x1:0x00000000
       25765000	      2575	8000649c	0051d863	bge	x3,x5,800064ac	  x3:0x00000001  x5:0x00000000
       25775000	      2576	00000000	00000013	addi	x0,x0,0	  x0:0x00000000
       25785000	      2577	800064a8	00000013	addi	x0,x0,0	  x0:0x00000000
       25795000	      2578	800064ac	01edd113	srli	x2,x27,0x1e	 x27:0x00000000  x2=0x00000000
       25805000	      2579	800064b0	041ec863	blt	x29,x1,80006500	 x29:0x00000001  x1:0x00000000
       25815000	      2580	800064b4	03dbf863	bgeu	x23,x29,800064e4	 x23:0x7c8bc2f3 x29:0x00000001
       25825000	      2581	00000000	00000013	addi	x0,x0,0	  x0:0x00000000
       25835000	      2582	800064e0	00000013	addi	x0,x0,0	  x0:0x00000000
       25845000	      2583	800064e4	0068ec33	or	x24,x17,x6	 x17:0x00000001  x6:0x0000c622 x24=0x0000c623
       25855000	      2584	800064e8	011ed113	srli	x2,x29,0x11	 x29:0x00000001  x2=0x00000000
       25865000	      2585	800064ec	007c7e63	bgeu	x24,x7,80006508	 x24:0x0000c623  x7:0x000044b0
       25875000	      2586	00000000	00000013	addi	x0,x0,0	  x0:0x00000000
       25885000	      2587	80006504	00000013	addi	x0,x0,0	  x0:0x00000000
       25895000	      2588	80006508	1049e593	ori	x11,x19,260	 x19:0x00000000 x11=0x00000104
       25905000	      2589	8000650c	cad6ea97	auipc	x21,0xcad6e	 x21=0x4ad74508
       25915000	      2590	80006510	01a97863	bgeu	x18,x26,80006520	 x18:0x00000002 x26:0x00000000
       25925000	      2591	00000000	00000013	addi	x0,x0,0	  x0:0x00000000
       25935000	      2592	8000651c	00000013	addi	x0,x0,0	  x0:0x00000000
       25945000	      2593	80006520	01f41293	slli	x5,x8,0x1f	  x8:0x00000020  x5=0x00000000
       25955000	      2594	80006524	00815f93	srli	x31,x2,0x8	  x2:0x00000000 x31=0x00000000
       25965000	      2595	80006528	03516a63	bltu	x2,x21,8000655c	  x2:0x00000000 x21:0x4ad74508
       25975000	      2596	00000000	00000013	addi	x0,x0,0	  x0:0x00000000
       25985000	      2597	80006558	00000013	addi	x0,x0,0	  x0:0x00000000
       25995000	      2598	8000655c	f6af7813	andi	x16,x30,-150	 x30:0x80009f08 x16=0x80009f08
       26005000	      2599	80006560	02ba7063	bgeu	x20,x11,80006580	 x20:0x80009fc4 x11:0x00000104
       26015000	      2600	00000000	00000013	addi	x0,x0,0	  x0:0x00000000
       26025000	      2601	8000657c	00000013	addi	x0,x0,0	  x0:0x00000000
       26035000	      2602	80006580	01486cb3	or	x25,x16,x20	 x16:0x80009f08 x20:0x80009fc4 x25=0x80009fcc
       26045000	      2603	80006584	00ded933	srl	x18,x29,x13	 x29:0x00000001 x13:0x00000000 x18=0x00000001
       26055000	      2604	80006588	00000013	addi	x0,x0,0	  x0:0x00000000
       26065000	      2605	8000658c	015545b3	xor	x11,x10,x21	 x10:0x1cceb000 x21:0x4ad74508 x11=0x5619f508
       26075000	      2606	80006590	00a1dd13	srli	x26,x3,0xa	  x3:0x00000001 x26=0x00000000
       26085000	      2607	80006594	29fe19b7	lui	x19,0x29fe1	 x19=0x29fe1000
       26095000	      2608	80006598	01ad84b3	add	x9,x27,x26	 x27:0x00000000 x26:0x00000000  x9=0x00000000
       26105000	      2609	8000659c	03c79a63	bne	x15,x28,800065d0	 x15:0x0000044b x28:0x00000001
       26115000	      2610	00000000	00000013	addi	x0,x0,0	  x0:0x00000000
       26125000	      2611	800065cc	00000013	addi	x0,x0,0	  x0:0x00000000
       26135000	      2612	800065d0	042bf463	bgeu	x23,x2,80006618	 x23:0x7c8bc2f3  x2:0x00000000
       26145000	      2613	00000000	00000013	addi	x0,x0,0	  x0:0x00000000
       26155000	      2614	80006614	00000013	addi	x0,x0,0	  x0:0x00000000
       26165000	      2615	80006618	4046d433	sra	x8,x13,x4	 x13:0x00000000  x4:0x0000c622  x8=0x00000000
       26175000	      2616	8000661c	059e7663	bgeu	x28,x25,80006668	 x28:0x00000001 x25:0x80009fcc
       26185000	      2617	80006620	89088b13	addi	x22,x17,-1904	 x17:0x00000001 x22=0xfffff891
       26195000	      2618	80006624	010f8863	beq	x31,x16,80006634	 x31:0x00000000 x16:0x80009f08
       26205000	      2619	80006628	fcc1b113	sltiu	x2,x3,-52	  x3:0x00000001  x2=0x00000001
       26215000	      2620	8000662c	401587b3	sub	x15,x11,x1	 x11:0x5619f508  x1:0x00000000 x15=0x5619f508
       26225000	      2621	80006630	01c41d33	sll	x26,x8,x28	  x8:0x00000000 x28:0x00000001 x26=0x00000000
       26235000	      2622	80006634	f5ca9eb7	lui	x29,0xf5ca9	 x29=0xf5ca9000
       26245000	      2623	80006638	412a08b3	sub	x17,x20,x18	 x20:0x80009fc4 x18:0x00000001 x17=0x80009fc3
       26255000	      2624	8000663c	853f8593	addi	x11,x31,-1965	 x31:0x00000000 x11=0xfffff853
       26265000	      2625	80006640	01c71863	bne	x14,x28,80006650	 x14:0xfffff8ae x28:0x00000001
       26275000	      2626	00000000	00000013	addi	x0,x0,0	  x0:0x00000000
       26285000	      2627	8000664c	00000013	addi	x0,x0,0	  x0:0x00000000
       26295000	      2628	80006650	98308693	addi	x13,x1,-1661	  x1:0x00000000 x13=0xfffff983
       26305000	      2629	80006654	004c9d33	sll	x26,x25,x4	 x25:0x80009fcc  x4:0x0000c622 x26=0x00027f30
       26315000	      2630	80006658	114849b7	lui	x19,0x11484	 x19=0x11484000
       26325000	      2631	8000665c	01f0d733	srl	x14,x1,x31	  x1:0x00000000 x31:0x00000000 x14=0x00000000
       26335000	      2632	80006660	003ad7b3	srl	x15,x21,x3	 x21:0x4ad74508  x3:0x00000001 x15=0x256ba284
       26345000	      2633	80006664	ce457d13	andi	x26,x10,-796	 x10:0x1cceb000 x26=0x1cceb000
       26355000	      2634	80006668	00b78db3	add	x27,x15,x11	 x15:0x256ba284 x11:0xfffff853 x27=0x256b9ad7
       26365000	      2635	8000666c	764d6213	ori	x4,x26,1892	 x26:0x1cceb000  x4=0x1cceb764
       26375000	      2636	80006670	02fdd663	bge	x27,x15,8000669c	 x27:0x256b9ad7 x15:0x256ba284
       26385000	      2637	80006674	586ffe93	andi	x29,x31,1414	 x31:0x00000000 x29=0x00000000
       26395000	      2638	80006678	0019d7b3	srl	x15,x19,x1	 x19:0x11484000  x1:0x00000000 x15=0x11484000
       26405000	      2639	8000667c	f0ace913	ori	x18,x25,-246	 x25:0x80009fcc x18=0xffffffce
       26415000	      2640	80006680	035e4063	blt	x28,x21,800066a0	 x28:0x00000001 x21:0x4ad74508
       26425000	      2641	00000000	00000013	addi	x0,x0,0	  x0:0x00000000
       26435000	      2642	8000669c	00000013	addi	x0,x0,0	  x0:0x00000000
       26445000	      2643	800066a0	00370533	add	x10,x14,x3	 x14:0x00000000  x3:0x00000001 x10=0x00000001
       26455000	      2644	800066a4	417d81b3	sub	x3,x27,x23	 x27:0x256b9ad7 x23:0x7c8bc2f3  x3=0xa8dfd7e4
       26465000	      2645	800066a8	845d3913	sltiu	x18,x26,-1979	 x26:0x1cceb000 x18=0x00000001
       26475000	      2646	800066ac	8d283517	auipc	x10,0x8d283	 x10=0x0d2896a8
       26485000	      2647	800066b0	019d9133	sll	x2,x27,x25	 x27:0x256b9ad7 x25:0x80009fcc  x2=0xb9ad7000
       26495000	      2648	800066b4	b6174113	xori	x2,x14,-1183	 x14:0x00000000  x2=0xfffffb61
       26505000	      2649	800066b8	01f40333	add	x6,x8,x31	  x8:0x00000000 x31:0x00000000  x6=0x00000000
       26515000	      2650	800066bc	9053f013	andi	x0,x7,-1787	  x7:0x000044b0
       26525000	      2651	800066c0	01044e63	blt	x8,x16,800066dc	  x8:0x00000000 x16:0x80009f08
       26535000	      2652	800066c4	05d1f263	bgeu	x3,x29,80006708	  x3:0xa8dfd7e4 x29:0x00000000
       26545000	      2653	00000000	00000013	addi	x0,x0,0	  x0:0x00000000
       26555000	      2654	80006704	00000013	addi	x0,x0,0	  x0:0x00000000
       26565000	      2655	80006708	0022dd33	srl	x26,x5,x2	  x5:0x00000000  x2:0xfffffb61 x26=0x00000000
       26575000	      2656	8000670c	007ba933	slt	x18,x23,x7	 x23:0x7c8bc2f3  x7:0x000044b0 x18=0x00000000
       26585000	      2657	80006710	00390ab3	add	x21,x18,x3	 x18:0x00000000  x3:0xa8dfd7e4 x21=0xa8dfd7e4
       26595000	      2658	80006714	b5243313	sltiu	x6,x8,-1198	  x8:0x00000000  x6=0x00000001
       26605000	      2659	80006718	00cd79b3	and	x19,x26,x12	 x26:0x00000000 x12:0xb0918470 x19=0x00000000
       26615000	      2660	8000671c	019ef833	and	x16,x29,x25	 x29:0x00000000 x25:0x80009fcc x16=0x00000000
       26625000	      2661	80006720	02670863	beq	x14,x6,80006750	 x14:0x00000000  x6:0x00000001
       26635000	      2662	80006724	010d3333	sltu	x6,x26,x16	 x26:0x00000000 x16:0x00000000  x6=0x00000000
       26645000	      2663	80006728	13eb0613	addi	x12,x22,318	 x22:0xfffff891 x12=0xfffff9cf
       26655000	      2664	8000672c	00fd0db3	add	x27,x26,x15	 x26:0x00000000 x15:0x11484000 x27=0x11484000
       26665000	      2665	80006730	0134fdb3	and	x27,x9,x19	  x9:0x00000000 x19:0x00000000 x27=0x00000000
       26675000	      2666	80006734	d623c393	xori	x7,x7,-670	  x7:0x000044b0  x7=0xffffb9d2
       26685000	      2667	80006738	019c4d33	xor	x26,x24,x25	 x24:0x0000c623 x25:0x80009fcc x26=0x800059ef
       26695000	      2668	8000673c	36cd8893	addi	x17,x27,876	 x27:0x00000000 x17=0x0000036c
       26705000	      2669	80006740	e2756693	ori	x13,x10,-473	 x10:0x0d2896a8 x13=0xfffffeaf
       26715000	      2670	80006744	00000013	addi	x0,x0,0	  x0:0x00000000
       26725000	      2671	80006748	013ef033	and	x0,x29,x19	 x29:0x00000000 x19:0x00000000
       26735000	      2672	8000674c	dba47d13	andi	x26,x8,-582	  x8:0x00000000 x26=0x00000000
       26745000	      2673	80006750	bc7a3113	sltiu	x2,x20,-1081	 x20:0x80009fc4  x2=0x00000001
       26755000	      2674	80006754	058c6263	bltu	x24,x24,80006798	 x24:0x0000c623 x24:0x0000c623
       26765000	      2675	80006758	00467b33	and	x22,x12,x4	 x12:0xfffff9cf  x4:0x1cceb764 x22=0x1cceb144
       26775000	      2676	8000675c	0055f733	and	x14,x11,x5	 x11:0xfffff853  x5:0x00000000 x14=0x00000000
       26785000	      2677	80006760	079e2a93	slti	x21,x28,121	 x28:0x00000001 x21=0x00000001
       26795000	      2678	80006764	00becdb3	xor	x27,x29,x11	 x29:0x00000000 x11:0xfffff853 x27=0xfffff853
       26805000	      2679	80006768	5dbee913	ori	x18,x29,1499	 x29:0x00000000 x18=0x000005db
       26815000	      2680	8000676c	01855863	bge	x10,x24,8000677c	 x10:0x0d2896a8 x24:0x0000c623
       26825000	      2681	00000000	00000013	addi	x0,x0,0	  x0:0x00000000
       26835000	      2682	80006778	00000013	addi	x0,x0,0	  x0:0x00000000
       26845000	      2683	8000677c	01214533	xor	x10,x2,x18	  x2:0x00000001 x18:0x000005db x10=0x000005da
       26855000	      2684	80006780	01367533	and	x10,x12,x19	 x12:0xfffff9cf x19:0x00000000 x10=0x00000000
       26865000	      2685	80006784	05116863	bltu	x2,x17,800067d4	  x2:0x00000001 x17:0x0000036c
       26875000	      2686	00000000	00000013	addi	x0,x0,0	  x0:0x00000000
       26885000	      2687	800067d0	00000013	addi	x0,x0,0	  x0:0x00000000
       26895000	      2688	800067d4	00825ab3	srl	x21,x4,x8	  x4:0x1cceb764  x8:0x00000000 x21=0x1cceb764
       26905000	      2689	800067d8	011b4e33	xor	x28,x22,x17	 x22:0x1cceb144 x17:0x0000036c x28=0x1cceb228
       26915000	      2690	800067dc	0bb644b7	lui	x9,0xbb64	  x9=0x0bb64000
       26925000	      2691	800067e0	9fe23437	lui	x8,0x9fe23	  x8=0x9fe23000
       26935000	      2692	800067e4	0002e5b3	or	x11,x5,x0	  x5:0x00000000  x0:0x00000000 x11=0x00000000
       26945000	      2693	800067e8	00405d93	srli	x27,x0,0x4	  x0:0x00000000 x27=0x00000000
       26955000	      2694	800067ec	abe85617	auipc	x12,0xabe85	 x12=0x2be8b7e8
       26965000	      2695	800067f0	002bde13	srli	x28,x23,0x2	 x23:0x7c8bc2f3 x28=0x1f22f0bc
       26975000	      2696	800067f4	a529c697	auipc	x13,0xa529c	 x13=0x252a27f0
       26985000	      2697	800067f8	022ff063	bgeu	x31,x2,80006818	 x31:0x00000000  x2:0x00000001
       26995000	      2698	800067fc	0cb7b693	sltiu	x13,x15,203	 x15:0x11484000 x13=0x00000000
       27005000	      2699	80006800	40988933	sub	x18,x17,x9	 x17:0x0000036c  x9:0x0bb64000 x18=0xf449c36c
       27015000	      2700	80006804	035a9063	bne	x21,x21,80006824	 x21:0x1cceb764 x21:0x1cceb764
       27025000	      2701	80006808	417006b3	sub	x13,x0,x23	  x0:0x00000000 x23:0x7c8bc2f3 x13=0x83743d0d
       27035000	      2702	8000680c	05055663	bge	x10,x16,80006858	 x10:0x00000000 x16:0x00000000
       27045000	      2703	00000000	00000013	addi	x0,x0,0	  x0:0x00000000
       27055000	      2704	80006854	00000013	addi	x0,x0,0	  x0:0x00000000
       27065000	      2705	80006858	29dbc893	xori	x17,x23,669	 x23:0x7c8bc2f3 x17=0x7c8bc06e
       27075000	      2706	8000685c	00fd0533	add	x10,x26,x15	 x26:0x00000000 x15:0x11484000 x10=0x11484000
       27085000	      2707	80006860	03d17a63	bgeu	x2,x29,80006894	  x2:0x00000001 x29:0x00000000
       27095000	      2708	00000000	00000013	addi	x0,x0,0	  x0:0x00000000
       27105000	      2709	80006890	00000013	addi	x0,x0,0	  x0:0x00000000
       27115000	      2710	80006894	01f46863	bltu	x8,x31,800068a4	  x8:0x9fe23000 x31:0x00000000
       27125000	      2711	80006898	0012d933	srl	x18,x5,x1	  x5:0x00000000  x1:0x00000000 x18=0x00000000
       27135000	      2712	8000689c	eafa2b17	auipc	x22,0xeafa2	 x22=0x6afa8898
       27145000	      2713	800068a0	e15a7397	auipc	x7,0xe15a7	  x7=0x615ad89c
       27155000	      2714	800068a4	ddd37d93	andi	x27,x6,-547	  x6:0x00000000 x27=0x00000000
       27165000	      2715	800068a8	db6e2497	auipc	x9,0xdb6e2	  x9=0x5b6e88a4
       27175000	      2716	800068ac	00000013	addi	x0,x0,0	  x0:0x00000000
       27185000	      2717	800068b0	c4483e93	sltiu	x29,x16,-956	 x16:0x00000000 x29=0x00000001
       27195000	      2718	800068b4	00000013	addi	x0,x0,0	  x0:0x00000000
       27205000	      2719	800068b8	2f007c93	andi	x25,x0,752	  x0:0x00000000 x25=0x00000000
       27215000	      2720	800068bc	00a939b3	sltu	x19,x18,x10	 x18:0x00000000 x10:0x11484000 x19=0x00000001
       27225000	      2721	800068c0	41acdcb3	sra	x25,x25,x26	 x25:0x00000000 x26:0x00000000 x25=0x00000000
       27235000	      2722	800068c4	00002197	auipc	x3,0x2	  x3=0x800088c0
       27245000	      2723	800068c8	63718193	addi	x3,x3,1591	  x3:0x800088c0  x3=0x80008ef7
       27255000	      2724	800068cc	00aea433	slt	x8,x29,x10	 x29:0x00000001 x10:0x11484000  x8=0x00000001
       27265000	      2725	800068d0	cbf1cb03	lbu	x22,-833(x3)	  x3:0x80008ef7 x22=0x0000009d PA:0x80008bb6
       27275000	      2726	800068d4	a2118d23	sb	x1,-1478(x3)	  x3:0x80008ef7  x1:0x00000000 PA:0x80008931
       27285000	      2727	800068d8	0184b533	sltu	x10,x9,x24	  x9:0x5b6e88a4 x24:0x0000c623 x10=0x00000000
       27295000	      2728	800068dc	415dd0b3	sra	x1,x27,x21	 x27:0x00000000 x21:0x1cceb764  x1=0x00000000
       27305000	      2729	800068e0	94818f83	lb	x31,-1720(x3)	  x3:0x80008ef7 x31=0x00000024 PA:0x8000883f
       27315000	      2730	800068e4	9a11da83	lhu	x21,-1631(x3)	  x3:0x80008ef7 x21=0x00008283 PA:0x80008898
       27325000	      2731	800068e8	a6213f93	sltiu	x31,x2,-1438	  x2:0x00000001 x31=0x00000001
       27335000	      2732	800068ec	413ad913	srai	x18,x21,0x13	 x21:0x00008283 x18=0x00000000
       27345000	      2733	800068f0	e9857c13	andi	x24,x10,-360	 x10:0x00000000 x24=0x00000000
       27355000	      2734	800068f4	cab18303	lb	x6,-853(x3)	  x3:0x80008ef7  x6=0xffffff89 PA:0x80008ba2
       27365000	      2735	800068f8	d9e18d23	sb	x30,-614(x3)	  x3:0x80008ef7 x30:0x80009f08 PA:0x80008c91
       27375000	      2736	800068fc	49e48713	addi	x14,x9,1182	  x9:0x5b6e88a4 x14=0x5b6e8d42
       27385000	      2737	80006900	00129133	sll	x2,x5,x1	  x5:0x00000000  x1:0x00000000  x2=0x00000000
       27395000	      2738	80006904	ed719583	lh	x11,-297(x3)	  x3:0x80008ef7 x11=0xffffb4b5 PA:0x80008dce
       27405000	      2739	80006908	40e988b3	sub	x17,x19,x14	 x19:0x00000001 x14:0x5b6e8d42 x17=0xa49172bf
       27415000	      2740	8000690c	00000013	addi	x0,x0,0	  x0:0x00000000
       27425000	      2741	80006910	b6818883	lb	x17,-1176(x3)	  x3:0x80008ef7 x17=0x00000044 PA:0x80008a5f
       27435000	      2742	80006914	b6919d83	lh	x27,-1175(x3)	  x3:0x80008ef7 x27=0x00004a4b PA:0x80008a60
       27445000	      2743	80006918	95018583	lb	x11,-1712(x3)	  x3:0x80008ef7 x11=0x0000002c PA:0x80008847
       27455000	      2744	8000691c	a3c1aca3	sw	x28,-1479(x3)	  x3:0x80008ef7 x28:0x1f22f0bc PA:0x80008930
       27465000	      2745	80006920	c30197a3	sh	x16,-977(x3)	  x3:0x80008ef7 x16:0x00000000 PA:0x80008b26
       27475000	      2746	80006924	e7d1db03	lhu	x22,-387(x3)	  x3:0x80008ef7 x22=0x00005e5f PA:0x80008d74
       27485000	      2747	80006928	9211c783	lbu	x15,-1759(x3)	  x3:0x80008ef7 x15=0x00000003 PA:0x80008818
       27495000	      2748	8000692c	019ac9b3	xor	x19,x21,x25	 x21:0x00008283 x25:0x00000000 x19=0x00008283
       27505000	      2749	80006930	d2b1d503	lhu	x10,-725(x3)	  x3:0x80008ef7 x10=0x00000800 PA:0x80008c22
       27515000	      2750	80006934	e7b19883	lh	x17,-389(x3)	  x3:0x80008ef7 x17=0x00005859 PA:0x80008d72
       27525000	      2751	00000000	00000013	addi	x0,x0,0	  x0:0x00000000
       27535000	      2752	80006938	00388433	add	x8,x17,x3	 x17:0x00005859  x3:0x80008ef7  x8=0x8000e750
       27545000	      2753	8000693c	c7218f83	lb	x31,-910(x3)	  x3:0x80008ef7 x31=0x00000052 PA:0x80008b69
       27555000	      2754	80006940	f3e18883	lb	x17,-194(x3)	  x3:0x80008ef7 x17=0x0000001e PA:0x80008e35
       27565000	      2755	80006944	0134d133	srl	x2,x9,x19	  x9:0x5b6e88a4 x19:0x00008283  x2=0x0b6dd114
       27575000	      2756	80006948	e8b1c303	lbu	x6,-373(x3)	  x3:0x80008ef7  x6=0x00000069 PA:0x80008d82
       27585000	      2757	8000694c	a1718083	lb	x1,-1513(x3)	  x3:0x80008ef7  x1=0xfffffff5 PA:0x8000890e
       27595000	      2758	80006950	0154e5b3	or	x11,x9,x21	  x9:0x5b6e88a4 x21:0x00008283 x11=0x5b6e8aa7
       27605000	      2759	80006954	c9f8c393	xori	x7,x17,-865	 x17:0x0000001e  x7=0xfffffc81
       27615000	      2760	80006958	0084b1b3	sltu	x3,x9,x8	  x9:0x5b6e88a4  x8:0x8000e750  x3=0x00000001
       27625000	      2761	8000695c	a6753ab7	lui	x21,0xa6753	 x21=0xa6753000
       27635000	      2762	80006960	00d1d313	srli	x6,x3,0xd	  x3:0x00000001  x6=0x00000000
       27645000	      2763	80006964	034f4863	blt	x30,x20,80006994	 x30:0x80009f08 x20:0x80009fc4
       27655000	      2764	00000000	00000013	addi	x0,x0,0	  x0:0x00000000
       27665000	      2765	80006990	00000013	addi	x0,x0,0	  x0:0x00000000
       27675000	      2766	80006994	00c9ed33	or	x26,x19,x12	 x19:0x00008283 x12:0x2be8b7e8 x26=0x2be8b7eb
       27685000	      2767	80006998	83af8093	addi	x1,x31,-1990	 x31:0x00000052  x1=0xfffff88c
       27695000	      2768	8000699c	01ba3eb3	sltu	x29,x20,x27	 x20:0x80009fc4 x27:0x00004a4b x29=0x00000000
       27705000	      2769	800069a0	055fc263	blt	x31,x21,800069e4	 x31:0x00000052 x21:0xa6753000
       27715000	      2770	800069a4	050f4463	blt	x30,x16,800069ec	 x30:0x80009f08 x16:0x00000000
       27725000	      2771	00000000	00000013	addi	x0,x0,0	  x0:0x00000000
       27735000	      2772	800069e8	00000013	addi	x0,x0,0	  x0:0x00000000
       27745000	      2773	800069ec	54300e13	addi	x28,x0,1347	  x0:0x00000000 x28=0x00000543
       27755000	      2774	800069f0	011383b3	add	x7,x7,x17	  x7:0xfffffc81 x17:0x0000001e  x7=0xfffffc9f
       27765000	      2775	800069f4	7a8171b7	lui	x3,0x7a817	  x3=0x7a817000
       27775000	      2776	800069f8	01f0ce63	blt	x1,x31,80006a14	  x1:0xfffff88c x31:0x00000052
       27785000	      2777	00000000	00000013	addi	x0,x0,0	  x0:0x00000000
       27795000	      2778	80006a10	00000013	addi	x0,x0,0	  x0:0x00000000
       27805000	      2779	80006a14	00d89c13	slli	x24,x17,0xd	 x17:0x0000001e x24=0x0003c000
       27815000	      2780	80006a18	01ec8d33	add	x26,x25,x30	 x25:0x00000000 x30:0x80009f08 x26=0x80009f08
       27825000	      2781	80006a1c	dc79c997	auipc	x19,0xdc79c	 x19=0x5c7a2a18
       27835000	      2782	80006a20	02758c63	beq	x11,x7,80006a58	 x11:0x5b6e8aa7  x7:0xfffffc9f
       27845000	      2783	80006a24	3c1e0393	addi	x7,x28,961	 x28:0x00000543  x7=0x00000904
       27855000	      2784	80006a28	01730863	beq	x6,x23,80006a38	  x6:0x00000000 x23:0x7c8bc2f3
       27865000	      2785	80006a2c	8a01f5b7	lui	x11,0x8a01f	 x11=0x8a01f000
       27875000	      2786	80006a30	00000013	addi	x0,x0,0	  x0:0x00000000
       27885000	      2787	80006a34	c6cb1337	lui	x6,0xc6cb1	  x6=0xc6cb1000
       27895000	      2788	80006a38	01d79c63	bne	x15,x29,80006a50	 x15:0x00000003 x29:0x00000000
       27905000	      2789	00000000	00000013	addi	x0,x0,0	  x0:0x00000000
       27915000	      2790	80006a4c	00000013	addi	x0,x0,0	  x0:0x00000000
       27925000	      2791	80006a50	00000013	addi	x0,x0,0	  x0:0x00000000
       27935000	      2792	80006a54	00427eb3	and	x29,x4,x4	  x4:0x1cceb764  x4:0x1cceb764 x29=0x1cceb764
       27945000	      2793	80006a58	40b15713	srai	x14,x2,0xb	  x2:0x0b6dd114 x14=0x00016dba
       27955000	      2794	80006a5c	004f2903	lw	x18,4(x30)	 x30:0x80009f08 x18=0x8000257c PA:0x80009f0c
       27965000	      2795	80006a60	8e3a3393	sltiu	x7,x20,-1821	 x20:0x80009fc4  x7=0x00000001
       27975000	      2796	80006a64	955d9517	auipc	x10,0x955d9	 x10=0x155dfa60
       27985000	      2797	80006a68	5cdd2513	slti	x10,x26,1485	 x26:0x80009f08 x10=0x00000001
       27995000	      2798	80006a6c	008f0f13	addi	x30,x30,8	 x30:0x80009f08 x30=0x80009f10
       28005000	      2799	80006a70	00ab5193	srli	x3,x22,0xa	 x22:0x00005e5f  x3=0x00000017
       28015000	      2800	80006a74	01aca7b3	slt	x15,x25,x26	 x25:0x00000000 x26:0x80009f08 x15=0x00000000
       28025000	      2801	80006a78	00090c93	addi	x25,x18,0	 x18:0x8000257c x25=0x8000257c
       28035000	      2802	80006a7c	000c8ce7	jalr	x25,x25,0	 x25:0x8000257c x25=0x80006a7c
       28045000	      2803	00000000	00000013	addi	x0,x0,0	  x0:0x00000000
       28055000	      2804	8000257c	00000013	addi	x0,x0,0	  x0:0x00000000
       28065000	      2805	80002580	03895463	bge	x18,x24,800025a8	 x18:0x8000257c x24:0x0003c000
       28075000	      2806	80002584	02fe1263	bne	x28,x15,800025a8	 x28:0x00000543 x15:0x00000000
       28085000	      2807	00000000	00000013	addi	x0,x0,0	  x0:0x00000000
       28095000	      2808	800025a4	00000013	addi	x0,x0,0	  x0:0x00000000
       28105000	      2809	800025a8	00d06c33	or	x24,x0,x13	  x0:0x00000000 x13:0x83743d0d x24=0x83743d0d
       28115000	      2810	800025ac	0017d6b3	srl	x13,x15,x1	 x15:0x00000000  x1:0xfffff88c x13=0x00000000
       28125000	      2811	800025b0	00000013	addi	x0,x0,0	  x0:0x00000000
       28135000	      2812	800025b4	00040ab3	add	x21,x8,x0	  x8:0x8000e750  x0:0x00000000 x21=0x8000e750
       28145000	      2813	800025b8	2ee68f93	addi	x31,x13,750	 x13:0x00000000 x31=0x000002ee
       28155000	      2814	800025bc	70f7c5b7	lui	x11,0x70f7c	 x11=0x70f7c000
       28165000	      2815	800025c0	004f2903	lw	x18,4(x30)	 x30:0x80009f10 x18=0x8000357c PA:0x80009f14
       28175000	      2816	800025c4	01ed7533	and	x10,x26,x30	 x26:0x80009f08 x30:0x80009f10 x10=0x80009f00
       28185000	      2817	800025c8	03cf0f13	addi	x30,x30,60	 x30:0x80009f10 x30=0x80009f4c
       28195000	      2818	800025cc	012d87b3	add	x15,x27,x18	 x27:0x00004a4b x18:0x8000357c x15=0x80007fc7
       28205000	      2819	800025d0	00190b13	addi	x22,x18,1	 x18:0x8000357c x22=0x8000357d
       28215000	      2820	800025d4	000b0b67	jalr	x22,x22,0	 x22:0x8000357d x22=0x800025d4
       28225000	      2821	00000000	00000013	addi	x0,x0,0	  x0:0x00000000
       28235000	      2822	8000357c	00000013	addi	x0,x0,0	  x0:0x00000000
       28245000	      2823	80003580	00005117	auipc	x2,0x5	  x2=0x8000857c
       28255000	      2824	80003584	5a110113	addi	x2,x2,1441	  x2:0x8000857c  x2=0x80008b1d
       28265000	      2825	80003588	01161c93	slli	x25,x12,0x11	 x12:0x2be8b7e8 x25=0x6fd00000
       28275000	      2826	8000358c	07914683	lbu	x13,121(x2)	  x2:0x80008b1d x13=0x0000007d PA:0x80008b96
       28285000	      2827	80003590	08e10023	sb	x14,128(x2)	  x2:0x80008b1d x14:0x00016dba PA:0x80008b9d
       28295000	      2828	80003594	003d1293	slli	x5,x26,0x3	 x26:0x80009f08  x5=0x0004f840
       28305000	      2829	80003598	f1d10e23	sb	x29,-228(x2)	  x2:0x80008b1d x29:0x1cceb764 PA:0x80008a39
       28315000	      2830	8000359c	c8c2ee13	ori	x28,x5,-884	  x5:0x0004f840 x28=0xfffffccc
       28325000	      2831	800035a0	405ade93	srai	x29,x21,0x5	 x21:0x8000e750 x29=0xfc00073a
       28335000	      2832	800035a4	b41b8693	addi	x13,x23,-1215	 x23:0x7c8bc2f3 x13=0x7c8bbe34
       28345000	      2833	800035a8	05b15683	lhu	x13,91(x2)	  x2:0x80008b1d x13=0x00006263 PA:0x80008b78
       28355000	      2834	800035ac	41b88333	sub	x6,x17,x27	 x17:0x0000001e x27:0x00004a4b  x6=0xffffb5d3
       28365000	      2835	800035b0	fdd15303	lhu	x6,-35(x2)	  x2:0x80008b1d  x6=0x0000e0e1 PA:0x80008afa
       28375000	      2836	800035b4	0ba10123	sb	x26,162(x2)	  x2:0x80008b1d x26:0x80009f08 PA:0x80008bbf
       28385000	      2837	800035b8	f9414483	lbu	x9,-108(x2)	  x2:0x80008b1d  x9=0x0000009a PA:0x80008ab1
       28395000	      2838	800035bc	0163f0b3	and	x1,x7,x22	  x7:0x00000001 x22:0x800025d4  x1=0x00000000
       28405000	      2839	800035c0	f0b15883	lhu	x17,-245(x2)	  x2:0x80008b1d x17=0x00001213 PA:0x80008a28
       28415000	      2840	800035c4	41db5993	srai	x19,x22,0x1d	 x22:0x800025d4 x19=0xfffffffc
       28425000	      2841	800035c8	0f214383	lbu	x7,242(x2)	  x2:0x80008b1d  x7=0x000000f4 PA:0x80008c0f
       28435000	      2842	800035cc	01e4d533	srl	x10,x9,x30	  x9:0x0000009a x30:0x80009f4c x10=0x00000000
       28445000	      2843	800035d0	0095d413	srli	x8,x11,0x9	 x11:0x70f7c000  x8=0x00387be0
       28455000	      2844	800035d4	011d9cb3	sll	x25,x27,x17	 x27:0x00004a4b x17:0x00001213 x25=0x52580000
       28465000	      2845	800035d8	01da44b3	xor	x9,x20,x29	 x20:0x80009fc4 x29:0xfc00073a  x9=0x7c0098fe
       28475000	      2846	800035dc	fc514883	lbu	x17,-59(x2)	  x2:0x80008b1d x17=0x000000c9 PA:0x80008ae2
       28485000	      2847	800035e0	00a75693	srli	x13,x14,0xa	 x14:0x00016dba x13=0x0000005b
       28495000	      2848	800035e4	00e9aeb3	slt	x29,x19,x14	 x19:0xfffffffc x14:0x00016dba x29=0x00000001
       28505000	      2849	800035e8	0dc14583	lbu	x11,220(x2)	  x2:0x80008b1d x11=0x000000e2 PA:0x80008bf9
       28515000	      2850	800035ec	016ac633	xor	x12,x21,x22	 x21:0x8000e750 x22:0x800025d4 x12=0x0000c284
       28525000	      2851	800035f0	edf16313	ori	x6,x2,-289	  x2:0x80008b1d  x6=0xffffffdf
       28535000	      2852	800035f4	fed15083	lhu	x1,-19(x2)	  x2:0x80008b1d  x1=0x0000f0f1 PA:0x80008b0a
       28545000	      2853	800035f8	0fd15203	lhu	x4,253(x2)	  x2:0x80008b1d  x4=0x0000c401 PA:0x80008c1a
       28555000	      2854	800035fc	03210f23	sb	x18,62(x2)	  x2:0x80008b1d x18:0x8000357c PA:0x80008b5b
       28565000	      2855	80003600	00e55933	srl	x18,x10,x14	 x10:0x00000000 x14:0x00016dba x18=0x00000000
       28575000	      2856	80003604	018762b3	or	x5,x14,x24	 x14:0x00016dba x24:0x83743d0d  x5=0x83757dbf
       28585000	      2857	80003608	01d537b3	sltu	x15,x10,x29	 x10:0x00000000 x29:0x00000001 x15=0x00000001
       28595000	      2858	8000360c	0b310423	sb	x19,168(x2)	  x2:0x80008b1d x19:0xfffffffc PA:0x80008bc5
       28605000	      2859	80003610	3901a493	slti	x9,x3,912	  x3:0x00000017  x9=0x00000001
       28615000	      2860	80003614	0c4103a3	sb	x4,199(x2)	  x2:0x80008b1d  x4:0x0000c401 PA:0x80008be4
       28625000	      2861	80003618	00a13333	sltu	x6,x2,x10	  x2:0x80008b1d x10:0x00000000  x6=0x00000000
       28635000	      2862	8000361c	f4911303	lh	x6,-183(x2)	  x2:0x80008b1d  x6=0x00004c4d PA:0x80008a66
       28645000	      2863	80003620	00005717	auipc	x14,0x5	 x14=0x8000861c
       28655000	      2864	80003624	d7a70713	addi	x14,x14,-646	 x14:0x8000861c x14=0x80008396
       28665000	      2865	80003628	fe872923	sw	x8,-14(x14)	 x14:0x80008396  x8:0x00387be0 PA:0x80008388
       28675000	      2866	8000362c	b095fd13	andi	x26,x11,-1271	 x11:0x000000e2 x26=0x00000000
       28685000	      2867	80003630	ff270da3	sb	x18,-5(x14)	 x14:0x80008396 x18:0x00000000 PA:0x80008391
       28695000	      2868	80003634	00b71723	sh	x11,14(x14)	 x14:0x80008396 x11:0x000000e2 PA:0x800083a4
       28705000	      2869	80003638	61642f93	slti	x31,x8,1558	  x8:0x00387be0 x31=0x00000000
       28715000	      2870	8000363c	ffc74d03	lbu	x26,-4(x14)	 x14:0x80008396 x26=0x00000049 PA:0x80008392
       28725000	      2871	80003640	5c608093	addi	x1,x1,1478	  x1:0x0000f0f1  x1=0x0000f6b7
       28735000	      2872	80003644	00953eb3	sltu	x29,x10,x9	 x10:0x00000000  x9:0x00000001 x29=0x00000001
       28745000	      2873	80003648	00174583	lbu	x11,1(x14)	 x14:0x80008396 x11=0x0000004c PA:0x80008397
       28755000	      2874	8000364c	fe170a23	sb	x1,-12(x14)	 x14:0x80008396  x1:0x0000f6b7 PA:0x8000838a
       28765000	      2875	80003650	ffc75e03	lhu	x28,-4(x14)	 x14:0x80008396 x28=0x00004849 PA:0x80008392
       28775000	      2876	80003654	ff070ea3	sb	x16,-3(x14)	 x14:0x80008396 x16:0x00000000 PA:0x80008393
       28785000	      2877	80003658	d871a193	slti	x3,x3,-633	  x3:0x00000017  x3=0x00000000
       28795000	      2878	8000365c	417b86b3	sub	x13,x23,x23	 x23:0x7c8bc2f3 x23:0x7c8bc2f3 x13=0x00000000
       28805000	      2879	80003660	ff774503	lbu	x10,-9(x14)	 x14:0x80008396 x10=0x00000046 PA:0x8000838d
       28815000	      2880	80003664	ffc74103	lbu	x2,-4(x14)	 x14:0x80008396  x2=0x00000049 PA:0x80008392
       28825000	      2881	00000000	00000013	addi	x0,x0,0	  x0:0x00000000
       28835000	      2882	80003668	c2270493	addi	x9,x14,-990	 x14:0x80008396  x9=0x80007fb8
       28845000	      2883	8000366c	019705a3	sb	x25,11(x14)	 x14:0x80008396 x25:0x52580000 PA:0x800083a1
       28855000	      2884	80003670	008707a3	sb	x8,15(x14)	 x14:0x80008396  x8:0x00387be0 PA:0x800083a5
       28865000	      2885	80003674	2988d8b7	lui	x17,0x2988d	 x17=0x2988d000
       28875000	      2886	80003678	00000013	addi	x0,x0,0	  x0:0x00000000
       28885000	      2887	8000367c	fff70e83	lb	x29,-1(x14)	 x14:0x80008396 x29=0x0000004e PA:0x80008395
       28895000	      2888	80003680	00770a83	lb	x21,7(x14)	 x14:0x80008396 x21=0x00000056 PA:0x8000839d
       28905000	      2889	80003684	012707a3	sb	x18,15(x14)	 x14:0x80008396 x18:0x00000000 PA:0x800083a5
       28915000	      2890	80003688	b9afad13	slti	x26,x31,-1126	 x31:0x00000000 x26=0x00000000
       28925000	      2891	8000368c	ff074503	lbu	x10,-16(x14)	 x14:0x80008396 x10=0x0000003d PA:0x80008386
       28935000	      2892	80003690	ff774003	lbu	x0,-9(x14)	 x14:0x80008396 PA:0x8000838d
       28945000	      2893	80003694	40e4d413	srai	x8,x9,0xe	  x9:0x80007fb8  x8=0xfffe0001
       28955000	      2894	80003698	ffc74a83	lbu	x21,-4(x14)	 x14:0x80008396 x21=0x00000049 PA:0x80008392
       28965000	      2895	8000369c	ff470ba3	sb	x20,-9(x14)	 x14:0x80008396 x20:0x80009fc4 PA:0x8000838d
       28975000	      2896	800036a0	00005097	auipc	x1,0x5	  x1=0x8000869c
       28985000	      2897	800036a4	39d08093	addi	x1,x1,925	  x1:0x8000869c  x1=0x80008a39
       28995000	      2898	800036a8	01bf31b3	sltu	x3,x30,x27	 x30:0x80009f4c x27:0x00004a4b  x3=0x00000000
       29005000	      2899	800036ac	037098a3	sh	x23,49(x1)	  x1:0x80008a39 x23:0x7c8bc2f3 PA:0x80008a6a
       29015000	      2900	800036b0	fd6084a3	sb	x22,-55(x1)	  x1:0x80008a39 x22:0x800025d4 PA:0x80008a02
       29025000	      2901	800036b4	bc397137	lui	x2,0xbc397	  x2=0xbc397000
       29035000	      2902	800036b8	01baf9b3	and	x19,x21,x27	 x21:0x00000049 x27:0x00004a4b x19=0x00000049
       29045000	      2903	800036bc	41ae5c13	srai	x24,x28,0x1a	 x28:0x00004849 x24=0x00000000
       29055000	      2904	800036c0	406154b3	sra	x9,x2,x6	  x2:0xbc397000  x6:0x00004c4d  x9=0xfffde1cb
       29065000	      2905	800036c4	fcb0c503	lbu	x10,-53(x1)	  x1:0x80008a39 x10=0x00000000 PA:0x80008a04
       29075000	      2906	800036c8	fcc0c183	lbu	x3,-52(x1)	  x1:0x80008a39  x3=0x00000099 PA:0x80008a05
       29085000	      2907	800036cc	014a42b3	xor	x5,x20,x20	 x20:0x80009fc4 x20:0x80009fc4  x5=0x00000000
       29095000	      2908	800036d0	74174493	xori	x9,x14,1857	 x14:0x80008396  x9=0x800084d7
       29105000	      2909	800036d4	f2d02f93	slti	x31,x0,-211	  x0:0x00000000 x31=0x00000000
       29115000	      2910	800036d8	00d4fc33	and	x24,x9,x13	  x9:0x800084d7 x13:0x00000000 x24=0x00000000
       29125000	      2911	800036dc	924e1c17	auipc	x24,0x924e1	 x24=0x124e46d8
       29135000	      2912	800036e0	fc608203	lb	x4,-58(x1)	  x1:0x80008a39  x4=0xffffffe4 PA:0x800089ff
       29145000	      2913	800036e4	b3633993	sltiu	x19,x6,-1226	  x6:0x00004c4d x19=0x00000001
       29155000	      2914	800036e8	fd508683	lb	x13,-43(x1)	  x1:0x80008a39 x13=0xfffffff5 PA:0x80008a0e
       29165000	      2915	800036ec	fe40ce03	lbu	x28,-28(x1)	  x1:0x80008a39 x28=0x00000006 PA:0x80008a1d
       29175000	      2916	800036f0	002a5393	srli	x7,x20,0x2	 x20:0x80009fc4  x7=0x200027f1
       29185000	      2917	800036f4	41198fb3	sub	x31,x19,x17	 x19:0x00000001 x17:0x2988d000 x31=0xd6773001
       29195000	      2918	800036f8	fcb08e83	lb	x29,-53(x1)	  x1:0x80008a39 x29=0x00000000 PA:0x80008a04
       29205000	      2919	800036fc	00000013	addi	x0,x0,0	  x0:0x00000000
       29215000	      2920	80003700	00000013	addi	x0,x0,0	  x0:0x00000000
       29225000	      2921	80003704	4107d5b3	sra	x11,x15,x16	 x15:0x00000001 x16:0x00000000 x11=0x00000001
       29235000	      2922	80003708	e0f6d7b7	lui	x15,0xe0f6d	 x15=0xe0f6d000
       29245000	      2923	8000370c	fd70a603	lw	x12,-41(x1)	  x1:0x80008a39 x12=0xf8f9fbfb PA:0x80008a10
       29255000	      2924	80003710	012f5793	srli	x15,x30,0x12	 x30:0x80009f4c x15=0x00002000
       29265000	      2925	80003714	014036b3	sltu	x13,x0,x20	  x0:0x00000000 x20:0x80009fc4 x13=0x00000001
       29275000	      2926	80003718	00000013	addi	x0,x0,0	  x0:0x00000000
       29285000	      2927	8000371c	ffc08883	lb	x17,-4(x1)	  x1:0x80008a39 x17=0x0000001e PA:0x80008a35
       29295000	      2928	80003720	01424d33	xor	x26,x4,x20	  x4:0xffffffe4 x20:0x80009fc4 x26=0x7fff6020
       29305000	      2929	80003724	416b5413	srai	x8,x22,0x16	 x22:0x800025d4  x8=0xfffffe00
       29315000	      2930	80003728	3c8d2993	slti	x19,x26,968	 x26:0x7fff6020 x19=0x00000000
       29325000	      2931	8000372c	00e03533	sltu	x10,x0,x14	  x0:0x00000000 x14:0x80008396 x10=0x00000001
       29335000	      2932	80003730	a6160213	addi	x4,x12,-1439	 x12:0xf8f9fbfb  x4=0xf8f9f65c
       29345000	      2933	80003734	00d215b3	sll	x11,x4,x13	  x4:0xf8f9f65c x13:0x00000001 x11=0xf1f3ecb8
       29355000	      2934	80003738	0150dc03	lhu	x24,21(x1)	  x1:0x80008a39 x24=0x00003435 PA:0x80008a4e
       29365000	      2935	8000373c	ff109403	lh	x8,-15(x1)	  x1:0x80008a39  x8=0x00001011 PA:0x80008a2a
       29375000	      2936	80003740	2015a113	slti	x2,x11,513	 x11:0xf1f3ecb8  x2=0x00000001
       29385000	      2937	80003744	e01c0393	addi	x7,x24,-511	 x24:0x00003435  x7=0x00003236
       29395000	      2938	80003748	013849b3	xor	x19,x16,x19	 x16:0x00000000 x19:0x00000000 x19=0x00000000
       29405000	      2939	8000374c	00000013	addi	x0,x0,0	  x0:0x00000000
       29415000	      2940	80003750	04a80063	beq	x16,x10,80003790	 x16:0x00000000 x10:0x00000001
       29425000	      2941	80003754	0078dd93	srli	x27,x17,0x7	 x17:0x0000001e x27=0x00000000
       29435000	      2942	80003758	01d4aeb3	slt	x29,x9,x29	  x9:0x800084d7 x29:0x00000000 x29=0x00000001
       29445000	      2943	8000375c	0034eab3	or	x21,x9,x3	  x9:0x800084d7  x3:0x00000099 x21=0x800084df
       29455000	      2944	80003760	006fd113	srli	x2,x31,0x6	 x31:0xd6773001  x2=0x0359dcc0
       29465000	      2945	80003764	0120d0b3	srl	x1,x1,x18	  x1:0x80008a39 x18:0x00000000  x1=0x80008a39
       29475000	      2946	80003768	02204063	blt	x0,x2,80003788	  x0:0x00000000  x2:0x0359dcc0
       29485000	      2947	00000000	00000013	addi	x0,x0,0	  x0:0x00000000
       29495000	      2948	80003784	00000013	addi	x0,x0,0	  x0:0x00000000
       29505000	      2949	80003788	01d34263	blt	x6,x29,8000378c	  x6:0x00004c4d x29:0x00000001
       29515000	      2950	8000378c	001e1293	slli	x5,x28,0x1	 x28:0x00000006  x5=0x0000000c
       29525000	      2951	80003790	7031fa93	andi	x21,x3,1795	  x3:0x00000099 x21=0x00000001
       29535000	      2952	80003794	00cb1633	sll	x12,x22,x12	 x22:0x800025d4 x12:0xf8f9fbfb x12=0xa0000000
       29545000	      2953	80003798	026d4e63	blt	x26,x6,800037d4	 x26:0x7fff6020  x6:0x00004c4d
       29555000	      2954	8000379c	008b1e93	slli	x29,x22,0x8	 x22:0x800025d4 x29=0x0025d400
       29565000	      2955	800037a0	003df633	and	x12,x27,x3	 x27:0x00000000  x3:0x00000099 x12=0x00000000
       29575000	      2956	800037a4	017354b3	srl	x9,x6,x23	  x6:0x00004c4d x23:0x7c8bc2f3  x9=0x00000000
       29585000	      2957	800037a8	40ca8db3	sub	x27,x21,x12	 x21:0x00000001 x12:0x00000000 x27=0x00000001
       29595000	      2958	800037ac	006b9e63	bne	x23,x6,800037c8	 x23:0x7c8bc2f3  x6:0x00004c4d
       29605000	      2959	00000000	00000013	addi	x0,x0,0	  x0:0x00000000
       29615000	      2960	800037c4	00000013	addi	x0,x0,0	  x0:0x00000000
       29625000	      2961	800037c8	01ce4033	xor	x0,x28,x28	 x28:0x00000006 x28:0x00000006
       29635000	      2962	800037cc	00000013	addi	x0,x0,0	  x0:0x00000000
       29645000	      2963	800037d0	000a36b3	sltu	x13,x20,x0	 x20:0x80009fc4  x0:0x00000000 x13=0x00000000
       29655000	      2964	800037d4	049f6063	bltu	x30,x9,80003814	 x30:0x80009f4c  x9:0x00000000
       29665000	      2965	800037d8	008dca63	blt	x27,x8,800037ec	 x27:0x00000001  x8:0x00001011
       29675000	      2966	00000000	00000013	addi	x0,x0,0	  x0:0x00000000
       29685000	      2967	800037e8	00000013	addi	x0,x0,0	  x0:0x00000000
       29695000	      2968	800037ec	a0ce2797	auipc	x15,0xa0ce2	 x15=0x20ce57e8
       29705000	      2969	800037f0	41aa01b3	sub	x3,x20,x26	 x20:0x80009fc4 x26:0x7fff6020  x3=0x00013fa4
       29715000	      2970	800037f4	00830663	beq	x6,x8,80003800	  x6:0x00004c4d  x8:0x00001011
       29725000	      2971	800037f8	01ee1113	slli	x2,x28,0x1e	 x28:0x00000006  x2=0x80000000
       29735000	      2972	800037fc	018482b3	add	x5,x9,x24	  x9:0x00000000 x24:0x00003435  x5=0x00003435
       29745000	      2973	80003800	01f39213	slli	x4,x7,0x1f	  x7:0x00003236  x4=0x00000000
       29755000	      2974	80003804	8dd5e117	auipc	x2,0x8dd5e	  x2=0x0dd61800
       29765000	      2975	80003808	b95b7093	andi	x1,x22,-1131	 x22:0x800025d4  x1=0x80002194
       29775000	      2976	8000380c	03217863	bgeu	x2,x18,8000383c	  x2:0x0dd61800 x18:0x00000000
       29785000	      2977	00000000	00000013	addi	x0,x0,0	  x0:0x00000000
       29795000	      2978	80003838	00000013	addi	x0,x0,0	  x0:0x00000000
       29805000	      2979	8000383c	002d3433	sltu	x8,x26,x2	 x26:0x7fff6020  x2:0x0dd61800  x8=0x00000000
       29815000	      2980	80003840	0084d113	srli	x2,x9,0x8	  x9:0x00000000  x2=0x00000000
       29825000	      2981	80003844	b8068513	addi	x10,x13,-1152	 x13:0x00000000 x10=0xfffffb80
       29835000	      2982	80003848	a047b213	sltiu	x4,x15,-1532	 x15:0x20ce57e8  x4=0x00000001
       29845000	      2983	8000384c	02d5d863	bge	x11,x13,8000387c	 x11:0xf1f3ecb8 x13:0x00000000
       29855000	      2984	80003850	0195fab3	and	x21,x11,x25	 x11:0xf1f3ecb8 x25:0x52580000 x21=0x50500000
       29865000	      2985	80003854	00549593	slli	x11,x9,0x5	  x9:0x00000000 x11=0x00000000
       29875000	      2986	80003858	00d4c633	xor	x12,x9,x13	  x9:0x00000000 x13:0x00000000 x12=0x00000000
       29885000	      2987	8000385c	00b06733	or	x14,x0,x11	  x0:0x00000000 x11:0x00000000 x14=0x00000000
       29895000	      2988	80003860	418684b3	sub	x9,x13,x24	 x13:0x00000000 x24:0x00003435  x9=0xffffcbcb
       29905000	      2989	80003864	00e99213	slli	x4,x19,0xe	 x19:0x00000000  x4=0x00000000
       29915000	      2990	80003868	41c05f93	srai	x31,x0,0x1c	  x0:0x00000000 x31=0x00000000
       29925000	      2991	8000386c	01671413	slli	x8,x14,0x16	 x14:0x00000000  x8=0x00000000
       29935000	      2992	80003870	00e31513	slli	x10,x6,0xe	  x6:0x00004c4d x10=0x13134000
       29945000	      2993	80003874	91428313	addi	x6,x5,-1772	  x5:0x00003435  x6=0x00002d49
       29955000	      2994	80003878	02f1d263	bge	x3,x15,8000389c	  x3:0x00013fa4 x15:0x20ce57e8
       29965000	      2995	8000387c	01239133	sll	x2,x7,x18	  x7:0x00003236 x18:0x00000000  x2=0x00003236
       29975000	      2996	80003880	007291b3	sll	x3,x5,x7	  x5:0x00003435  x7:0x00003236  x3=0x0d400000
       29985000	      2997	80003884	1c960317	auipc	x6,0x1c960	  x6=0x9c963880
       29995000	      2998	80003888	41015c33	sra	x24,x2,x16	  x2:0x00003236 x16:0x00000000 x24=0x00003236
       30005000	      2999	8000388c	0019d793	srli	x15,x19,0x1	 x19:0x00000000 x15=0x00000000
       30015000	      3000	80003890	40a25793	srai	x15,x4,0xa	  x4:0x00000000 x15=0x00000000
       30025000	      3001	80003894	63d56993	ori	x19,x10,1597	 x10:0x13134000 x19=0x1313463d
       30035000	      3002	80003898	0551d263	bge	x3,x21,800038dc	  x3:0x0d400000 x21:0x50500000
       30045000	      3003	8000389c	47feff93	andi	x31,x29,1151	 x29:0x0025d400 x31=0x00000400
       30055000	      3004	800038a0	00ffe733	or	x14,x31,x15	 x31:0x00000400 x15:0x00000000 x14=0x00000400
       30065000	      3005	800038a4	7a89c297	auipc	x5,0x7a89c	  x5=0xfa89f8a0
       30075000	      3006	800038a8	87866e17	auipc	x28,0x87866	 x28=0x078698a4
       30085000	      3007	800038ac	1dce2f97	auipc	x31,0x1dce2	 x31=0x9dce58a8
       30095000	      3008	800038b0	00b1f0b3	and	x1,x3,x11	  x3:0x0d400000 x11:0x00000000  x1=0x00000000
       30105000	      3009	800038b4	0197f7b3	and	x15,x15,x25	 x15:0x00000000 x25:0x52580000 x15=0x00000000
       30115000	      3010	800038b8	0110a4b3	slt	x9,x1,x17	  x1:0x00000000 x17:0x0000001e  x9=0x00000001
       30125000	      3011	800038bc	13bee613	ori	x12,x29,315	 x29:0x0025d400 x12=0x0025d53b
       30135000	      3012	800038c0	013c2613	slti	x12,x24,19	 x24:0x00003236 x12=0x00000000
       30145000	      3013	800038c4	01e646b3	xor	x13,x12,x30	 x12:0x00000000 x30:0x80009f4c x13=0x80009f4c
       30155000	      3014	800038c8	00e84db3	xor	x27,x16,x14	 x16:0x00000000 x14:0x00000400 x27=0x00000400
       30165000	      3015	800038cc	010e6ab3	or	x21,x28,x16	 x28:0x078698a4 x16:0x00000000 x21=0x078698a4
       30175000	      3016	800038d0	01a19e33	sll	x28,x3,x26	  x3:0x0d400000 x26:0x7fff6020 x28=0x0d400000
       30185000	      3017	800038d4	01d5d0b3	srl	x1,x11,x29	 x11:0x00000000 x29:0x0025d400  x1=0x00000000
       30195000	      3018	800038d8	042f4e63	blt	x30,x2,80003934	 x30:0x80009f4c  x2:0x00003236
       30205000	      3019	00000000	00000013	addi	x0,x0,0	  x0:0x00000000
       30215000	      3020	80003930	00000013	addi	x0,x0,0	  x0:0x00000000
       30225000	      3021	80003934	01161993	slli	x19,x12,0x11	 x12:0x00000000 x19=0x00000000
       30235000	      3022	80003938	01e34eb3	xor	x29,x6,x30	  x6:0x9c963880 x30:0x80009f4c x29=0x1c96a7cc
       30245000	      3023	8000393c	70dbf037	lui	x0,0x70dbf	
       30255000	      3024	80003940	00154463	blt	x10,x1,80003948	 x10:0x13134000  x1:0x00000000
       30265000	      3025	80003944	9abf5617	auipc	x12,0x9abf5	 x12=0x1abf8940
       30275000	      3026	80003948	41af8233	sub	x4,x31,x26	 x31:0x9dce58a8 x26:0x7fff6020  x4=0x1dcef888
       30285000	      3027	8000394c	00000013	addi	x0,x0,0	  x0:0x00000000
       30295000	      3028	80003950	01b05733	srl	x14,x0,x27	  x0:0x00000000 x27:0x00000400 x14=0x00000000
       30305000	      3029	80003954	05a19263	bne	x3,x26,80003998	  x3:0x0d400000 x26:0x7fff6020
       30315000	      3030	00000000	00000013	addi	x0,x0,0	  x0:0x00000000
       30325000	      3031	80003994	00000013	addi	x0,x0,0	  x0:0x00000000
       30335000	      3032	80003998	00fc3633	sltu	x12,x24,x15	 x24:0x00003236 x15:0x00000000 x12=0x00000000
       30345000	      3033	8000399c	e9161d37	lui	x26,0xe9161	 x26=0xe9161000
       30355000	      3034	800039a0	89726293	ori	x5,x4,-1897	  x4:0x1dcef888  x5=0xfffff89f
       30365000	      3035	800039a4	0163dab3	srl	x21,x7,x22	  x7:0x00003236 x22:0x800025d4 x21=0x00000000
       30375000	      3036	800039a8	01ebd9b3	srl	x19,x23,x30	 x23:0x7c8bc2f3 x30:0x80009f4c x19=0x0007c8bc
       30385000	      3037	800039ac	21ee6113	ori	x2,x28,542	 x28:0x0d400000  x2=0x0d40021e
       30395000	      3038	800039b0	00c99213	slli	x4,x19,0xc	 x19:0x0007c8bc  x4=0x7c8bc000
       30405000	      3039	800039b4	03ade063	bltu	x27,x26,800039d4	 x27:0x00000400 x26:0xe9161000
       30415000	      3040	00000000	00000013	addi	x0,x0,0	  x0:0x00000000
       30425000	      3041	800039d0	00000013	addi	x0,x0,0	  x0:0x00000000
       30435000	      3042	800039d4	01844b33	xor	x22,x8,x24	  x8:0x00000000 x24:0x00003236 x22=0x00003236
       30445000	      3043	800039d8	fbada9b7	lui	x19,0xfbada	 x19=0xfbada000
       30455000	      3044	800039dc	94bac797	auipc	x15,0x94bac	 x15=0x14baf9d8
       30465000	      3045	800039e0	004df233	and	x4,x27,x4	 x27:0x00000400  x4:0x7c8bc000  x4=0x00000000
       30475000	      3046	800039e4	64b68813	addi	x16,x13,1611	 x13:0x80009f4c x16=0x8000a597
       30485000	      3047	800039e8	402258b3	sra	x17,x4,x2	  x4:0x00000000  x2:0x0d40021e x17=0x00000000
       30495000	      3048	800039ec	ffffe397	auipc	x7,0xffffe	  x7=0x800019e8
       30505000	      3049	800039f0	7c038393	addi	x7,x7,1984	  x7:0x800019e8  x7=0x800021a8
       30515000	      3050	800039f4	00000013	addi	x0,x0,0	  x0:0x00000000
       30525000	      3051	800039f8	010709b3	add	x19,x14,x16	 x14:0x00000000 x16:0x8000a597 x19=0x8000a597
       30535000	      3052	800039fc	0149dab3	srl	x21,x19,x20	 x19:0x8000a597 x20:0x80009fc4 x21=0x08000a59
       30545000	      3053	80003a00	e33926b7	lui	x13,0xe3392	 x13=0xe3392000
       30555000	      3054	80003a04	fcb38393	addi	x7,x7,-53	  x7:0x800021a8  x7=0x80002173
       30565000	      3055	80003a08	4a40b713	sltiu	x14,x1,1188	  x1:0x00000000 x14=0x00000001
       30575000	      3056	80003a0c	03538967	jalr	x18,x7,53	  x7:0x80002173 x18=0x80003a0c
       30585000	      3057	00000000	00000013	addi	x0,x0,0	  x0:0x00000000
       30595000	      3058	800021a8	00000013	addi	x0,x0,0	  x0:0x00000000
       30605000	      3059	800021ac	6c92b513	sltiu	x10,x5,1737	  x5:0xfffff89f x10=0x00000000
       30615000	      3060	800021b0	ff8f0f13	addi	x30,x30,-8	 x30:0x80009f4c x30=0x80009f44
       30625000	      3061	800021b4	0181d1b3	srl	x3,x3,x24	  x3:0x0d400000 x24:0x00003236  x3=0x00000035
       30635000	      3062	800021b8	405e88b3	sub	x17,x29,x5	 x29:0x1c96a7cc  x5:0xfffff89f x17=0x1c96af2d
       30645000	      3063	800021bc	012f2223	sw	x18,4(x30)	 x30:0x80009f44 x18:0x80003a0c PA:0x80009f48
       30655000	      3064	800021c0	405c5313	srai	x6,x24,0x5	 x24:0x00003236  x6=0x00000191
       30665000	      3065	800021c4	012c9cb3	sll	x25,x25,x18	 x25:0x52580000 x18:0x80003a0c x25=0x80000000
       30675000	      3066	800021c8	00319eb3	sll	x29,x3,x3	  x3:0x00000035  x3:0x00000035 x29=0x06a00000
       30685000	      3067	800021cc	c079e897	auipc	x17,0xc079e	 x17=0x407a01c8
       30695000	      3068	800021d0	85714213	xori	x4,x2,-1961	  x2:0x0d40021e  x4=0xf2bffa49
       30705000	      3069	800021d4	d7180b13	addi	x22,x16,-655	 x16:0x8000a597 x22=0x8000a308
       30715000	      3070	800021d8	00000497	auipc	x9,0x0	  x9=0x800021d4
       30725000	      3071	800021dc	4c048493	addi	x9,x9,1216	  x9:0x800021d4  x9=0x80002694
       30735000	      3072	800021e0	ce248493	addi	x9,x9,-798	  x9:0x80002694  x9=0x80002376
       30745000	      3073	800021e4	417d8433	sub	x8,x27,x23	 x27:0x00000400 x23:0x7c8bc2f3  x8=0x8374410d
       30755000	      3074	800021e8	012de0b3	or	x1,x27,x18	 x27:0x00000400 x18:0x80003a0c  x1=0x80003e0c
       30765000	      3075	800021ec	9ba92317	auipc	x6,0x9ba92	  x6=0x1ba941e8
       30775000	      3076	800021f0	00390533	add	x10,x18,x3	 x18:0x80003a0c  x3:0x00000035 x10=0x80003a41
       30785000	      3077	800021f4	31f48967	jalr	x18,x9,799	  x9:0x80002376 x18=0x800021f4
       30795000	      3078	00000000	00000013	addi	x0,x0,0	  x0:0x00000000
       30805000	      3079	80002694	00000013	addi	x0,x0,0	  x0:0x00000000
       30815000	      3080	80002698	9b6e7d93	andi	x27,x28,-1610	 x28:0x0d400000 x27=0x0d400000
       30825000	      3081	8000269c	00000013	addi	x0,x0,0	  x0:0x00000000
       30835000	      3082	800026a0	9f6dc713	xori	x14,x27,-1546	 x27:0x0d400000 x14=0xf2bff9f6
       30845000	      3083	800026a4	0ac9cb13	xori	x22,x19,172	 x19:0x8000a597 x22=0x8000a53b
       30855000	      3084	800026a8	01acf463	bgeu	x25,x26,800026b0	 x25:0x80000000 x26:0xe9161000
       30865000	      3085	800026ac	01879fb3	sll	x31,x15,x24	 x15:0x14baf9d8 x24:0x00003236 x31=0x76000000
       30875000	      3086	800026b0	fd8f0f13	addi	x30,x30,-40	 x30:0x80009f44 x30=0x80009f1c
       30885000	      3087	800026b4	01449613	slli	x12,x9,0x14	  x9:0x80002376 x12=0x37600000
       30895000	      3088	800026b8	7f877513	andi	x10,x14,2040	 x14:0xf2bff9f6 x10=0x000001f0
       30905000	      3089	800026bc	012f2223	sw	x18,4(x30)	 x30:0x80009f1c x18:0x800021f4 PA:0x80009f20
       30915000	      3090	800026c0	00010333	add	x6,x2,x0	  x2:0x0d40021e  x0:0x00000000  x6=0x0d40021e
       30925000	      3091	800026c4	19ac8e13	addi	x28,x25,410	 x25:0x80000000 x28=0x8000019a
       30935000	      3092	800026c8	00000013	addi	x0,x0,0	  x0:0x00000000
       30945000	      3093	800026cc	00006197	auipc	x3,0x6	  x3=0x800086c8
       30955000	      3094	800026d0	fc918193	addi	x3,x3,-55	  x3:0x800086c8  x3=0x80008691
       30965000	      3095	800026d4	f5c197a3	sh	x28,-177(x3)	  x3:0x80008691 x28:0x8000019a PA:0x800085e0
       30975000	      3096	800026d8	08a18503	lb	x10,138(x3)	  x3:0x80008691 x10=0xffffffd0 PA:0x8000871b
       30985000	      3097	800026dc	0771ac83	lw	x25,119(x3)	  x3:0x80008691 x25=0xc0c1c2c3 PA:0x80008708
       30995000	      3098	800026e0	01a1c583	lbu	x11,26(x3)	  x3:0x80008691 x11=0x00000060 PA:0x800086ab
       31005000	      3099	800026e4	bc00b993	sltiu	x19,x1,-1088	  x1:0x80003e0c x19=0x00000001
       31015000	      3100	800026e8	0ef1c603	lbu	x12,239(x3)	  x3:0x80008691 x12=0x0000003b PA:0x80008780
       31025000	      3101	800026ec	fba18103	lb	x2,-70(x3)	  x3:0x80008691  x2=0x00000000 PA:0x8000864b
       31035000	      3102	800026f0	04018f83	lb	x31,64(x3)	  x3:0x80008691 x31=0xffffff8a PA:0x800086d1
       31045000	      3103	800026f4	40288033	sub	x0,x17,x2	 x17:0x407a01c8  x2:0x00000000
       31055000	      3104	800026f8	003cb7b3	sltu	x15,x25,x3	 x25:0xc0c1c2c3  x3:0x80008691 x15=0x00000000
       31065000	      3105	800026fc	00829eb3	sll	x29,x5,x8	  x5:0xfffff89f  x8:0x8374410d x29=0xff13e000
       31075000	      3106	80002700	a57f97b7	lui	x15,0xa57f9	 x15=0xa57f9000
       31085000	      3107	80002704	40fa04b3	sub	x9,x20,x15	 x20:0x80009fc4 x15:0xa57f9000  x9=0xda810fc4
       31095000	      3108	80002708	0c418223	sb	x4,196(x3)	  x3:0x80008691  x4:0xf2bffa49 PA:0x80008755
       31105000	      3109	8000270c	01364033	xor	x0,x12,x19	 x12:0x0000003b x19:0x00000001
       31115000	      3110	80002710	fc818623	sb	x8,-52(x3)	  x3:0x80008691  x8:0x8374410d PA:0x8000865d
       31125000	      3111	80002714	4168d313	srai	x6,x17,0x16	 x17:0x407a01c8  x6=0x00000101
       31135000	      3112	80002718	018a5793	srli	x15,x20,0x18	 x20:0x80009fc4 x15=0x00000080
       31145000	      3113	8000271c	001ffc33	and	x24,x31,x1	 x31:0xffffff8a  x1:0x80003e0c x24=0x80003e08
       31155000	      3114	80002720	00759133	sll	x2,x11,x7	 x11:0x00000060  x7:0x80002173  x2=0x03000000
       31165000	      3115	80002724	027190a3	sh	x7,33(x3)	  x3:0x80008691  x7:0x80002173 PA:0x800086b2
       31175000	      3116	80002728	0162b0b3	sltu	x1,x5,x22	  x5:0xfffff89f x22:0x8000a53b  x1=0x00000000
       31185000	      3117	8000272c	0fa1c483	lbu	x9,250(x3)	  x3:0x80008691  x9=0x00000040 PA:0x8000878b
       31195000	      3118	80002730	00006797	auipc	x15,0x6	 x15=0x8000872c
       31205000	      3119	80002734	60a78793	addi	x15,x15,1546	 x15:0x8000872c x15=0x80008d36
       31215000	      3120	80002738	019419b3	sll	x19,x8,x25	  x8:0x8374410d x25:0xc0c1c2c3 x19=0x1ba20868
       31225000	      3121	8000273c	604f8693	addi	x13,x31,1540	 x31:0xffffff8a x13=0x0000058e
       31235000	      3122	80002740	00be3133	sltu	x2,x28,x11	 x28:0x8000019a x11:0x00000060  x2=0x00000000
       31245000	      3123	80002744	01175733	srl	x14,x14,x17	 x14:0xf2bff9f6 x17:0x407a01c8 x14=0x00f2bff9
       31255000	      3124	80002748	bd2781a3	sb	x18,-1085(x15)	 x15:0x80008d36 x18:0x800021f4 PA:0x800088f9
       31265000	      3125	8000274c	00fd4e33	xor	x28,x26,x15	 x26:0xe9161000 x15:0x80008d36 x28=0x69169d36
       31275000	      3126	80002750	012c6033	or	x0,x24,x18	 x24:0x80003e08 x18:0x800021f4
       31285000	      3127	80002754	95866313	ori	x6,x12,-1704	 x12:0x0000003b  x6=0xfffff97b
       31295000	      3128	80002758	41ea8ab3	sub	x21,x21,x30	 x21:0x08000a59 x30:0x80009f1c x21=0x87ff6b3d
       31305000	      3129	8000275c	415650b3	sra	x1,x12,x21	 x12:0x0000003b x21:0x87ff6b3d  x1=0x00000000
       31315000	      3130	80002760	10078423	sb	x0,264(x15)	 x15:0x80008d36  x0:0x00000000 PA:0x80008e3e
       31325000	      3131	80002764	786f0593	addi	x11,x30,1926	 x30:0x80009f1c x11=0x8000a6a2
       31335000	      3132	80002768	4196d313	srai	x6,x13,0x19	 x13:0x0000058e  x6=0x00000000
       31345000	      3133	8000276c	7834cfb7	lui	x31,0x7834c	 x31=0x7834c000
       31355000	      3134	80002770	1e278ea3	sb	x2,509(x15)	 x15:0x80008d36  x2:0x00000000 PA:0x80008f33
       31365000	      3135	80002774	0140efb3	or	x31,x1,x20	  x1:0x00000000 x20:0x80009fc4 x31=0x80009fc4
       31375000	      3136	80002778	d5a789a3	sb	x26,-685(x15)	 x15:0x80008d36 x26:0xe9161000 PA:0x80008a89
       31385000	      3137	8000277c	4105d833	sra	x16,x11,x16	 x11:0x8000a6a2 x16:0x8000a597 x16=0xffffff00
       31395000	      3138	80002780	0e693e93	sltiu	x29,x18,230	 x18:0x800021f4 x29=0x00000000
       31405000	      3139	80002784	61e9f693	andi	x13,x19,1566	 x19:0x1ba20868 x13=0x00000008
       31415000	      3140	80002788	c2e79923	sh	x14,-974(x15)	 x15:0x80008d36 x14:0x00f2bff9 PA:0x80008968
       31425000	      3141	8000278c	eb778803	lb	x16,-329(x15)	 x15:0x80008d36 x16=0xffffffd6 PA:0x80008bed
       31435000	      3142	80002790	0074a233	slt	x4,x9,x7	  x9:0x00000040  x7:0x80002173  x4=0x00000000
       31445000	      3143	80002794	2017ca83	lbu	x21,513(x15)	 x15:0x80008d36 x21=0x0000001c PA:0x80008f37
       31455000	      3144	80002798	00297333	and	x6,x18,x2	 x18:0x800021f4  x2:0x00000000  x6=0x00000000
       31465000	      3145	8000279c	404b0033	sub	x0,x22,x4	 x22:0x8000a53b  x4:0x00000000
       31475000	      3146	800027a0	40d20133	sub	x2,x4,x13	  x4:0x00000000 x13:0x00000008  x2=0xfffffff8
       31485000	      3147	800027a4	23d783a3	sb	x29,551(x15)	 x15:0x80008d36 x29:0x00000000 PA:0x80008f5d
       31495000	      3148	800027a8	27d78e23	sb	x29,636(x15)	 x15:0x80008d36 x29:0x00000000 PA:0x80008fb2
       31505000	      3149	800027ac	d057cd03	lbu	x26,-763(x15)	 x15:0x80008d36 x26=0x00000020 PA:0x80008a3b
       31515000	      3150	800027b0	412ad893	srai	x17,x21,0x12	 x21:0x0000001c x17=0x00000000
       31525000	      3151	800027b4	b8778303	lb	x6,-1145(x15)	 x15:0x80008d36  x6=0xffffffa6 PA:0x800088bd
       31535000	      3152	800027b8	0c478fa3	sb	x4,223(x15)	 x15:0x80008d36  x4:0x00000000 PA:0x80008e15
       31545000	      3153	800027bc	00006817	auipc	x16,0x6	 x16=0x800087b8
       31555000	      3154	800027c0	44880813	addi	x16,x16,1096	 x16:0x800087b8 x16=0x80008c00
       31565000	      3155	800027c4	000b3033	sltu	x0,x22,x0	 x22:0x8000a53b  x0:0x00000000
       31575000	      3156	800027c8	03780c03	lb	x24,55(x16)	 x16:0x80008c00 x24=0x0000001c PA:0x80008c37
       31585000	      3157	800027cc	01292eb3	slt	x29,x18,x18	 x18:0x800021f4 x18:0x800021f4 x29=0x00000000
       31595000	      3158	800027d0	40c05193	srai	x3,x0,0xc	  x0:0x00000000  x3=0x00000000
       31605000	      3159	800027d4	fdf803a3	sb	x31,-57(x16)	 x16:0x80008c00 x31:0x80009fc4 PA:0x80008bc7
       31615000	      3160	800027d8	02e80823	sb	x14,48(x16)	 x16:0x80008c00 x14:0x00f2bff9 PA:0x80008c30
       31625000	      3161	800027dc	02c80103	lb	x2,44(x16)	 x16:0x80008c00  x2=0x00000017 PA:0x80008c2c
       31635000	      3162	800027e0	c1a2ec93	ori	x25,x5,-998	  x5:0xfffff89f x25=0xfffffc9f
       31645000	      3163	800027e4	fc980503	lb	x10,-55(x16)	 x16:0x80008c00 x10=0xffffffb2 PA:0x80008bc9
       31655000	      3164	800027e8	00882e03	lw	x28,8(x16)	 x16:0x80008c00 x28=0xf0f1f2f3 PA:0x80008c08
       31665000	      3165	800027ec	019f1fb3	sll	x31,x30,x25	 x30:0x80009f1c x25:0xfffffc9f x31=0x00000000
       31675000	      3166	800027f0	01a85d83	lhu	x27,26(x16)	 x16:0x80008c00 x27=0x0000c401 PA:0x80008c1a
       31685000	      3167	800027f4	01d4bcb3	sltu	x25,x9,x29	  x9:0x00000040 x29:0x00000000 x25=0x00000000
       31695000	      3168	800027f8	01784403	lbu	x8,23(x16)	 x16:0x80008c00  x8=0x00000000 PA:0x80008c17
       31705000	      3169	800027fc	03680203	lb	x4,54(x16)	 x16:0x80008c00  x4=0x0000001d PA:0x80008c36
       31715000	      3170	80002800	4d3a0ab7	lui	x21,0x4d3a0	 x21=0x4d3a0000
       31725000	      3171	80002804	fd581c23	sh	x21,-40(x16)	 x16:0x80008c00 x21:0x4d3a0000 PA:0x80008bd8
       31735000	      3172	80002808	00eaf4b3	and	x9,x21,x14	 x21:0x4d3a0000 x14:0x00f2bff9  x9=0x00320000
       31745000	      3173	8000280c	cc80f313	andi	x6,x1,-824	  x1:0x00000000  x6=0x00000000
       31755000	      3174	80002810	00a9b633	sltu	x12,x19,x10	 x19:0x1ba20868 x10:0xffffffb2 x12=0x00000001
       31765000	      3175	80002814	001ecab3	xor	x21,x29,x1	 x29:0x00000000  x1:0x00000000 x21=0x00000000
       31775000	      3176	80002818	03881723	sh	x24,46(x16)	 x16:0x80008c00 x24:0x0000001c PA:0x80008c2e
       31785000	      3177	8000281c	00000013	addi	x0,x0,0	  x0:0x00000000
       31795000	      3178	80002820	402807b3	sub	x15,x16,x2	 x16:0x80008c00  x2:0x00000017 x15=0x80008be9
       31805000	      3179	80002824	41f2da93	srai	x21,x5,0x1f	  x5:0xfffff89f x21=0xffffffff
       31815000	      3180	80002828	01b6d663	bge	x13,x27,80002834	 x13:0x00000008 x27:0x0000c401
       31825000	      3181	8000282c	7084dfb7	lui	x31,0x7084d	 x31=0x7084d000
       31835000	      3182	80002830	401e0c33	sub	x24,x28,x1	 x28:0xf0f1f2f3  x1:0x00000000 x24=0xf0f1f2f3
       31845000	      3183	80002834	01ffc263	blt	x31,x31,80002838	 x31:0x7084d000 x31:0x7084d000
       31855000	      3184	80002838	cbfbb893	sltiu	x17,x23,-833	 x23:0x7c8bc2f3 x17=0x00000001
       31865000	      3185	8000283c	fbbce813	ori	x16,x25,-69	 x25:0x00000000 x16=0xffffffbb
       31875000	      3186	80002840	c302f413	andi	x8,x5,-976	  x5:0xfffff89f  x8=0xfffff810
       31885000	      3187	80002844	711fab37	lui	x22,0x711fa	 x22=0x711fa000
       31895000	      3188	80002848	463d7a93	andi	x21,x26,1123	 x26:0x00000020 x21=0x00000020
       31905000	      3189	8000284c	00111913	slli	x18,x2,0x1	  x2:0x00000017 x18=0x0000002e
       31915000	      3190	80002850	00f31263	bne	x6,x15,80002854	  x6:0x00000000 x15:0x80008be9
       31925000	      3191	00000000	00000013	addi	x0,x0,0	  x0:0x00000000
       31935000	      3192	80002850	00000013	addi	x0,x0,0	  x0:0x00000000
       31945000	      3193	80002854	015a2ab3	slt	x21,x20,x21	 x20:0x80009fc4 x21:0x00000020 x21=0x00000001
       31955000	      3194	80002858	b4a9bc37	lui	x24,0xb4a9b	 x24=0xb4a9b000
       31965000	      3195	8000285c	02937e63	bgeu	x6,x9,80002898	  x6:0x00000000  x9:0x00320000
       31975000	      3196	80002860	0479c863	blt	x19,x7,800028b0	 x19:0x1ba20868  x7:0x80002173
       31985000	      3197	80002864	305a8613	addi	x12,x21,773	 x21:0x00000001 x12=0x00000306
       31995000	      3198	80002868	36b2d437	lui	x8,0x36b2d	  x8=0x36b2d000
       32005000	      3199	8000286c	026bec63	bltu	x23,x6,800028a4	 x23:0x7c8bc2f3  x6:0x00000000
       32015000	      3200	80002870	e9e38893	addi	x17,x7,-354	  x7:0x80002173 x17=0x80002011
       32025000	      3201	80002874	40cc8133	sub	x2,x25,x12	 x25:0x00000000 x12:0x00000306  x2=0xfffffcfa
       32035000	      3202	80002878	01f9d893	srli	x17,x19,0x1f	 x19:0x1ba20868 x17=0x00000000
       32045000	      3203	8000287c	afad7d17	auipc	x26,0xafad7	 x26=0x2fad9878
       32055000	      3204	80002880	4174de93	srai	x29,x9,0x17	  x9:0x00320000 x29=0x00000000
       32065000	      3205	80002884	4130d593	srai	x11,x1,0x13	  x1:0x00000000 x11=0x00000000
       32075000	      3206	80002888	406bd513	srai	x10,x23,0x6	 x23:0x7c8bc2f3 x10=0x01f22f0b
       32085000	      3207	8000288c	019451b3	srl	x3,x8,x25	  x8:0x36b2d000 x25:0x00000000  x3=0x36b2d000
       32095000	      3208	80002890	0060c033	xor	x0,x1,x6	  x1:0x00000000  x6:0x00000000
       32105000	      3209	80002894	40190733	sub	x14,x18,x1	 x18:0x0000002e  x1:0x00000000 x14=0x0000002e
       32115000	      3210	80002898	89194fb7	lui	x31,0x89194	 x31=0x89194000
       32125000	      3211	8000289c	010dee63	bltu	x27,x16,800028b8	 x27:0x0000c401 x16:0xffffffbb
       32135000	      3212	00000000	00000013	addi	x0,x0,0	  x0:0x00000000
       32145000	      3213	800028b4	00000013	addi	x0,x0,0	  x0:0x00000000
       32155000	      3214	800028b8	04120063	beq	x4,x1,800028f8	  x4:0x0000001d  x1:0x00000000
       32165000	      3215	800028bc	d26e0ab7	lui	x21,0xd26e0	 x21=0xd26e0000
       32175000	      3216	800028c0	01512fb3	slt	x31,x2,x21	  x2:0xfffffcfa x21:0xd26e0000 x31=0x00000000
       32185000	      3217	800028c4	adb1ad13	slti	x26,x3,-1317	  x3:0x36b2d000 x26=0x00000000
       32195000	      3218	800028c8	00b5a333	slt	x6,x11,x11	 x11:0x00000000 x11:0x00000000  x6=0x00000000
       32205000	      3219	800028cc	00998533	add	x10,x19,x9	 x19:0x1ba20868  x9:0x00320000 x10=0x1bd40868
       32215000	      3220	800028d0	5235b713	sltiu	x14,x11,1315	 x11:0x00000000 x14=0x00000001
       32225000	      3221	800028d4	1df68593	addi	x11,x13,479	 x13:0x00000008 x11=0x000001e7
       32235000	      3222	800028d8	005f2733	slt	x14,x30,x5	 x30:0x80009f1c  x5:0xfffff89f x14=0x00000001
       32245000	      3223	800028dc	f61e0c13	addi	x24,x28,-159	 x28:0xf0f1f2f3 x24=0xf0f1f254
       32255000	      3224	800028e0	006dcab3	xor	x21,x27,x6	 x27:0x0000c401  x6:0x00000000 x21=0x0000c401
       32265000	      3225	800028e4	00000013	addi	x0,x0,0	  x0:0x00000000
       32275000	      3226	800028e8	0065f8b3	and	x17,x11,x6	 x11:0x000001e7  x6:0x00000000 x17=0x00000000
       32285000	      3227	800028ec	1b513e93	sltiu	x29,x2,437	  x2:0xfffffcfa x29=0x00000000
       32295000	      3228	800028f0	ec4d3897	auipc	x17,0xec4d3	 x17=0x6c4d58ec
       32305000	      3229	800028f4	0172da63	bge	x5,x23,80002908	  x5:0xfffff89f x23:0x7c8bc2f3
       32315000	      3230	800028f8	1713c113	xori	x2,x7,369	  x7:0x80002173  x2=0x80002002
       32325000	      3231	800028fc	0430e663	bltu	x1,x3,80002948	  x1:0x00000000  x3:0x36b2d000
       32335000	      3232	00000000	00000013	addi	x0,x0,0	  x0:0x00000000
       32345000	      3233	80002944	00000013	addi	x0,x0,0	  x0:0x00000000
       32355000	      3234	80002948	40e2d133	sra	x2,x5,x14	  x5:0xfffff89f x14:0x00000001  x2=0xfffffc4f
       32365000	      3235	8000294c	0083d5b3	srl	x11,x7,x8	  x7:0x80002173  x8:0x36b2d000 x11=0x80002173
       32375000	      3236	80002950	019f5233	srl	x4,x30,x25	 x30:0x80009f1c x25:0x00000000  x4=0x80009f1c
       32385000	      3237	80002954	31bcc813	xori	x16,x25,795	 x25:0x00000000 x16=0x0000031b
       32395000	      3238	80002958	75b84413	xori	x8,x16,1883	 x16:0x0000031b  x8=0x00000440
       32405000	      3239	8000295c	03855863	bge	x10,x24,8000298c	 x10:0x1bd40868 x24:0xf0f1f254
       32415000	      3240	00000000	00000013	addi	x0,x0,0	  x0:0x00000000
       32425000	      3241	80002988	00000013	addi	x0,x0,0	  x0:0x00000000
       32435000	      3242	8000298c	01c1f463	bgeu	x3,x28,80002994	  x3:0x36b2d000 x28:0xf0f1f2f3
       32445000	      3243	80002990	01b78a63	beq	x15,x27,800029a4	 x15:0x80008be9 x27:0x0000c401
       32455000	      3244	80002994	01792633	slt	x12,x18,x23	 x18:0x0000002e x23:0x7c8bc2f3 x12=0x00000001
       32465000	      3245	80002998	dc64e013	ori	x0,x9,-570	  x9:0x00320000
       32475000	      3246	8000299c	41ac82b3	sub	x5,x25,x26	 x25:0x00000000 x26:0x00000000  x5=0x00000000
       32485000	      3247	800029a0	8206b993	sltiu	x19,x13,-2016	 x13:0x00000008 x19=0x00000001
       32495000	      3248	800029a4	d8248313	addi	x6,x9,-638	  x9:0x00320000  x6=0x0031fd82
       32505000	      3249	800029a8	4027d833	sra	x16,x15,x2	 x15:0x80008be9  x2:0xfffffc4f x16=0xffff0001
       32515000	      3250	800029ac	00c37a63	bgeu	x6,x12,800029c0	  x6:0x0031fd82 x12:0x00000001
       32525000	      3251	00000000	00000013	addi	x0,x0,0	  x0:0x00000000
       32535000	      3252	800029bc	00000013	addi	x0,x0,0	  x0:0x00000000
       32545000	      3253	800029c0	014a4eb3	xor	x29,x20,x20	 x20:0x80009fc4 x20:0x80009fc4 x29=0x00000000
       32555000	      3254	800029c4	794b6293	ori	x5,x22,1940	 x22:0x711fa000  x5=0x711fa794
       32565000	      3255	800029c8	017df933	and	x18,x27,x23	 x27:0x0000c401 x23:0x7c8bc2f3 x18=0x0000c001
       32575000	      3256	800029cc	01486fb3	or	x31,x16,x20	 x16:0xffff0001 x20:0x80009fc4 x31=0xffff9fc5
       32585000	      3257	800029d0	00006717	auipc	x14,0x6	 x14=0x800089cc
       32595000	      3258	800029d4	00570713	addi	x14,x14,5	 x14:0x800089cc x14=0x800089d1
       32605000	      3259	800029d8	00775283	lhu	x5,7(x14)	 x14:0x800089d1  x5=0x0000c2c3 PA:0x800089d8
       32615000	      3260	800029dc	03c70823	sb	x28,48(x14)	 x14:0x800089d1 x28:0xf0f1f2f3 PA:0x80008a01
       32625000	      3261	800029e0	01474e83	lbu	x29,20(x14)	 x14:0x800089d1 x29=0x000000ce PA:0x800089e5
       32635000	      3262	800029e4	6668b413	sltiu	x8,x17,1638	 x17:0x6c4d58ec  x8=0x00000000
       32645000	      3263	800029e8	00569333	sll	x6,x13,x5	 x13:0x00000008  x5:0x0000c2c3  x6=0x00000040
       32655000	      3264	800029ec	0177da93	srli	x21,x15,0x17	 x15:0x80008be9 x21=0x00000100
       32665000	      3265	800029f0	00000013	addi	x0,x0,0	  x0:0x00000000
       32675000	      3266	800029f4	011f5e13	srli	x28,x30,0x11	 x30:0x80009f1c x28=0x00004000
       32685000	      3267	800029f8	02a74203	lbu	x4,42(x14)	 x14:0x800089d1  x4=0x000000e0 PA:0x800089fb
       32695000	      3268	800029fc	01decb33	xor	x22,x29,x29	 x29:0x000000ce x29:0x000000ce x22=0x00000000
       32705000	      3269	80002a00	fc570923	sb	x5,-46(x14)	 x14:0x800089d1  x5:0x0000c2c3 PA:0x800089a3
       32715000	      3270	80002a04	01d70523	sb	x29,10(x14)	 x14:0x800089d1 x29:0x000000ce PA:0x800089db
       32725000	      3271	80002a08	02770823	sb	x7,48(x14)	 x14:0x800089d1  x7:0x80002173 PA:0x80008a01
       32735000	      3272	80002a0c	7b4d0793	addi	x15,x26,1972	 x26:0x00000000 x15=0x000007b4
       32745000	      3273	80002a10	00570d03	lb	x26,5(x14)	 x14:0x800089d1 x26=0xffffffbd PA:0x800089d6
       32755000	      3274	80002a14	56592793	slti	x15,x18,1381	 x18:0x0000c001 x15=0x00000000
       32765000	      3275	80002a18	ffb70d23	sb	x27,-6(x14)	 x14:0x800089d1 x27:0x0000c401 PA:0x800089cb
       32775000	      3276	80002a1c	fd1711a3	sh	x17,-61(x14)	 x14:0x800089d1 x17:0x6c4d58ec PA:0x80008994
       32785000	      3277	80002a20	dc0f8593	addi	x11,x31,-576	 x31:0xffff9fc5 x11=0xffff9d85
       32795000	      3278	80002a24	41f8de13	srai	x28,x17,0x1f	 x17:0x6c4d58ec x28=0x00000000
       32805000	      3279	80002a28	ffa74403	lbu	x8,-6(x14)	 x14:0x800089d1  x8=0x00000001 PA:0x800089cb
       32815000	      3280	80002a2c	03070023	sb	x16,32(x14)	 x14:0x800089d1 x16:0xffff0001 PA:0x800089f1
       32825000	      3281	80002a30	28d5b4b7	lui	x9,0x28d5b	  x9=0x28d5b000
       32835000	      3282	80002a34	fca74e83	lbu	x29,-54(x14)	 x14:0x800089d1 x29=0x00000080 PA:0x8000899b
       32845000	      3283	80002a38	fc570103	lb	x2,-59(x14)	 x14:0x800089d1  x2=0x0000007d PA:0x80008996
       32855000	      3284	80002a3c	fec70723	sb	x12,-18(x14)	 x14:0x800089d1 x12:0x00000001 PA:0x800089bf
       32865000	      3285	80002a40	01570e83	lb	x29,21(x14)	 x14:0x800089d1 x29=0xffffffcd PA:0x800089e6
       32875000	      3286	80002a44	fc571483	lh	x9,-59(x14)	 x14:0x800089d1  x9=0x00007c7d PA:0x80008996
       32885000	      3287	80002a48	003d92b3	sll	x5,x27,x3	 x27:0x0000c401  x3:0x36b2d000  x5=0x0000c401
       32895000	      3288	80002a4c	55004d93	xori	x27,x0,1360	  x0:0x00000000 x27=0x00000550
       32905000	      3289	80002a50	e92a7e93	andi	x29,x20,-366	 x20:0x80009fc4 x29=0x80009e80
       32915000	      3290	80002a54	1fa8b913	sltiu	x18,x17,506	 x17:0x6c4d58ec x18=0x00000000
       32925000	      3291	80002a58	01df1d13	slli	x26,x30,0x1d	 x30:0x80009f1c x26=0x80000000
       32935000	      3292	80002a5c	02c56863	bltu	x10,x12,80002a8c	 x10:0x1bd40868 x12:0x00000001
       32945000	      3293	80002a60	41c50eb3	sub	x29,x10,x28	 x10:0x1bd40868 x28:0x00000000 x29=0x1bd40868
       32955000	      3294	80002a64	01a6c463	blt	x13,x26,80002a6c	 x13:0x00000008 x26:0x80000000
       32965000	      3295	80002a68	00f8fb33	and	x22,x17,x15	 x17:0x6c4d58ec x15:0x00000000 x22=0x00000000
       32975000	      3296	80002a6c	0048b7b3	sltu	x15,x17,x4	 x17:0x6c4d58ec  x4:0x000000e0 x15=0x00000000
       32985000	      3297	80002a70	009c9a63	bne	x25,x9,80002a84	 x25:0x00000000  x9:0x00007c7d
       32995000	      3298	00000000	00000013	addi	x0,x0,0	  x0:0x00000000
       33005000	      3299	80002a80	00000013	addi	x0,x0,0	  x0:0x00000000
       33015000	      3300	80002a84	001e3433	sltu	x8,x28,x1	 x28:0x00000000  x1:0x00000000  x8=0x00000000
       33025000	      3301	80002a88	005f7a63	bgeu	x30,x5,80002a9c	 x30:0x80009f1c  x5:0x0000c401
       33035000	      3302	00000000	00000013	addi	x0,x0,0	  x0:0x00000000
       33045000	      3303	80002a98	00000013	addi	x0,x0,0	  x0:0x00000000
       33055000	      3304	80002a9c	01b2c5b3	xor	x11,x5,x27	  x5:0x0000c401 x27:0x00000550 x11=0x0000c151
       33065000	      3305	80002aa0	0120b733	sltu	x14,x1,x18	  x1:0x00000000 x18:0x00000000 x14=0x00000000
       33075000	      3306	80002aa4	04176863	bltu	x14,x1,80002af4	 x14:0x00000000  x1:0x00000000
       33085000	      3307	80002aa8	00000013	addi	x0,x0,0	  x0:0x00000000
       33095000	      3308	80002aac	008a9a63	bne	x21,x8,80002ac0	 x21:0x00000100  x8:0x00000000
       33105000	      3309	00000000	00000013	addi	x0,x0,0	  x0:0x00000000
       33115000	      3310	80002abc	00000013	addi	x0,x0,0	  x0:0x00000000
       33125000	      3311	80002ac0	00a55533	srl	x10,x10,x10	 x10:0x1bd40868 x10:0x1bd40868 x10=0x001bd408
       33135000	      3312	80002ac4	01b5bd33	sltu	x26,x11,x27	 x11:0x0000c151 x27:0x00000550 x26=0x00000000
       33145000	      3313	80002ac8	024eea63	bltu	x29,x4,80002afc	 x29:0x1bd40868  x4:0x000000e0
       33155000	      3314	80002acc	405cdb33	sra	x22,x25,x5	 x25:0x00000000  x5:0x0000c401 x22=0x00000000
       33165000	      3315	80002ad0	01267e33	and	x28,x12,x18	 x12:0x00000001 x18:0x00000000 x28=0x00000000
       33175000	      3316	80002ad4	01b5a6b3	slt	x13,x11,x27	 x11:0x0000c151 x27:0x00000550 x13=0x00000000
       33185000	      3317	80002ad8	01d9f9b3	and	x19,x19,x29	 x19:0x00000001 x29:0x1bd40868 x19=0x00000000
       33195000	      3318	80002adc	00604ab3	xor	x21,x0,x6	  x0:0x00000000  x6:0x00000040 x21=0x00000040
       33205000	      3319	80002ae0	01f5a4b3	slt	x9,x11,x31	 x11:0x0000c151 x31:0xffff9fc5  x9=0x00000000
       33215000	      3320	80002ae4	01008333	add	x6,x1,x16	  x1:0x00000000 x16:0xffff0001  x6=0xffff0001
       33225000	      3321	80002ae8	402fd313	srai	x6,x31,0x2	 x31:0xffff9fc5  x6=0xffffe7f1
       33235000	      3322	80002aec	00ef8833	add	x16,x31,x14	 x31:0xffff9fc5 x14:0x00000000 x16=0xffff9fc5
       33245000	      3323	80002af0	b3f87513	andi	x10,x16,-1217	 x16:0xffff9fc5 x10=0xffff9b05
       33255000	      3324	80002af4	0074d2b3	srl	x5,x9,x7	  x9:0x00000000  x7:0x80002173  x5=0x00000000
       33265000	      3325	80002af8	1fbd7e93	andi	x29,x26,507	 x26:0x00000000 x29=0x00000000
       33275000	      3326	80002afc	3eea0893	addi	x17,x20,1006	 x20:0x80009fc4 x17=0x8000a3b2
       33285000	      3327	80002b00	018dc733	xor	x14,x27,x24	 x27:0x00000550 x24:0xf0f1f254 x14=0xf0f1f704
       33295000	      3328	80002b04	4562b4b7	lui	x9,0x4562b	  x9=0x4562b000
       33305000	      3329	80002b08	94b94113	xori	x2,x18,-1717	 x18:0x00000000  x2=0xfffff94b
       33315000	      3330	80002b0c	40455393	srai	x7,x10,0x4	 x10:0xffff9b05  x7=0xfffff9b0
       33325000	      3331	80002b10	012c98b3	sll	x17,x25,x18	 x25:0x00000000 x18:0x00000000 x17=0x00000000
       33335000	      3332	80002b14	03f1de63	bge	x3,x31,80002b50	  x3:0x36b2d000 x31:0xffff9fc5
       33345000	      3333	00000000	00000013	addi	x0,x0,0	  x0:0x00000000
       33355000	      3334	80002b4c	00000013	addi	x0,x0,0	  x0:0x00000000
       33365000	      3335	80002b50	0161c463	blt	x3,x22,80002b58	  x3:0x36b2d000 x22:0x00000000
       33375000	      3336	80002b54	009d4b33	xor	x22,x26,x9	 x26:0x00000000  x9:0x4562b000 x22=0x4562b000
       33385000	      3337	80002b58	02f55e63	bge	x10,x15,80002b94	 x10:0xffff9b05 x15:0x00000000
       33395000	      3338	80002b5c	c0c80337	lui	x6,0xc0c80	  x6=0xc0c80000
       33405000	      3339	80002b60	03ff8863	beq	x31,x31,80002b90	 x31:0xffff9fc5 x31:0xffff9fc5
       33415000	      3340	00000000	00000013	addi	x0,x0,0	  x0:0x00000000
       33425000	      3341	80002b8c	00000013	addi	x0,x0,0	  x0:0x00000000
       33435000	      3342	80002b90	00635c13	srli	x24,x6,0x6	  x6:0xc0c80000 x24=0x03032000
       33445000	      3343	80002b94	01b879b3	and	x19,x16,x27	 x16:0xffff9fc5 x27:0x00000550 x19=0x00000540
       33455000	      3344	80002b98	4059d033	sra	x0,x19,x5	 x19:0x00000540  x5:0x00000000
       33465000	      3345	80002b9c	018d1133	sll	x2,x26,x24	 x26:0x00000000 x24:0x03032000  x2=0x00000000
       33475000	      3346	80002ba0	010aeeb3	or	x29,x21,x16	 x21:0x00000040 x16:0xffff9fc5 x29=0xffff9fc5
       33485000	      3347	80002ba4	40868c33	sub	x24,x13,x8	 x13:0x00000000  x8:0x00000000 x24=0x00000000
       33495000	      3348	80002ba8	01947433	and	x8,x8,x25	  x8:0x00000000 x25:0x00000000  x8=0x00000000
       33505000	      3349	80002bac	511c7817	auipc	x16,0x511c7	 x16=0xd11c9ba8
       33515000	      3350	80002bb0	01c2f133	and	x2,x5,x28	  x5:0x00000000 x28:0x00000000  x2=0x00000000
       33525000	      3351	80002bb4	140ad817	auipc	x16,0x140ad	 x16=0x940afbb0
       33535000	      3352	80002bb8	014a9463	bne	x21,x20,80002bc0	 x21:0x00000040 x20:0x80009fc4
       33545000	      3353	00000000	00000013	addi	x0,x0,0	  x0:0x00000000
       33555000	      3354	80002bbc	00000013	addi	x0,x0,0	  x0:0x00000000
       33565000	      3355	80002bc0	4b95b893	sltiu	x17,x11,1209	 x11:0x0000c151 x17=0x00000000
       33575000	      3356	80002bc4	4a598cb7	lui	x25,0x4a598	 x25=0x4a598000
       33585000	      3357	80002bc8	00006317	auipc	x6,0x6	  x6=0x80008bc4
       33595000	      3358	80002bcc	c5730313	addi	x6,x6,-937	  x6:0x80008bc4  x6=0x8000881b
       33605000	      3359	80002bd0	272eec13	ori	x24,x29,626	 x29:0xffff9fc5 x24=0xffff9ff7
       33615000	      3360	80002bd4	ee582c93	slti	x25,x16,-283	 x16:0x940afbb0 x25=0x00000001
       33625000	      3361	80002bd8	62935283	lhu	x5,1577(x6)	  x6:0x8000881b  x5=0x00002e2f PA:0x80008e44
       33635000	      3362	80002bdc	77c30423	sb	x28,1896(x6)	  x6:0x8000881b x28:0x00000000 PA:0x80008f83
       33645000	      3363	80002be0	3b730fa3	sb	x23,959(x6)	  x6:0x8000881b x23:0x7c8bc2f3 PA:0x80008bda
       33655000	      3364	80002be4	847fbd17	auipc	x26,0x847fb	 x26=0x047fdbe0
       33665000	      3365	80002be8	50230623	sb	x2,1292(x6)	  x6:0x8000881b  x2:0x00000000 PA:0x80008d27
       33675000	      3366	80002bec	004267b3	or	x15,x4,x4	  x4:0x000000e0  x4:0x000000e0 x15=0x000000e0
       33685000	      3367	80002bf0	00938133	add	x2,x7,x9	  x7:0xfffff9b0  x9:0x4562b000  x2=0x4562a9b0
       33695000	      3368	80002bf4	2ca30903	lb	x18,714(x6)	  x6:0x8000881b x18=0xffffffce PA:0x80008ae5
       33705000	      3369	80002bf8	41fd8eb3	sub	x29,x27,x31	 x27:0x00000550 x31:0xffff9fc5 x29=0x0000658b
       33715000	      3370	80002bfc	018f5513	srli	x10,x30,0x18	 x30:0x80009f1c x10=0x00000080
       33725000	      3371	80002c00	72730ea3	sb	x7,1853(x6)	  x6:0x8000881b  x7:0xfffff9b0 PA:0x80008f58
       33735000	      3372	80002c04	38e34083	lbu	x1,910(x6)	  x6:0x8000881b  x1=0x00000092 PA:0x80008ba9
       33745000	      3373	80002c08	3c230723	sb	x2,974(x6)	  x6:0x8000881b  x2:0x4562a9b0 PA:0x80008be9
       33755000	      3374	80002c0c	45630023	sb	x22,1088(x6)	  x6:0x8000881b x22:0x4562b000 PA:0x80008c5b
       33765000	      3375	80002c10	4a630523	sb	x6,1194(x6)	  x6:0x8000881b  x6:0x8000881b PA:0x80008cc5
       33775000	      3376	80002c14	0dfc3d93	sltiu	x27,x24,223	 x24:0xffff9ff7 x27=0x00000000
       33785000	      3377	80002c18	60b30123	sb	x11,1538(x6)	  x6:0x8000881b x11:0x0000c151 PA:0x80008e1d
       33795000	      3378	80002c1c	b8d70837	lui	x16,0xb8d70	 x16=0xb8d70000
       33805000	      3379	80002c20	05c34603	lbu	x12,92(x6)	  x6:0x8000881b x12=0x0000005c PA:0x80008877
       33815000	      3380	80002c24	04931783	lh	x15,73(x6)	  x6:0x8000881b x15=0x00004e4f PA:0x80008864
       33825000	      3381	80002c28	01a0d5b3	srl	x11,x1,x26	  x1:0x00000092 x26:0x047fdbe0 x11=0x00000092
       33835000	      3382	80002c2c	41434403	lbu	x8,1044(x6)	  x6:0x8000881b  x8=0x00000000 PA:0x80008c2f
       33845000	      3383	80002c30	002276b3	and	x13,x4,x2	  x4:0x000000e0  x2:0x4562a9b0 x13=0x000000a0
       33855000	      3384	80002c34	00000013	addi	x0,x0,0	  x0:0x00000000
       33865000	      3385	80002c38	008cd593	srli	x11,x25,0x8	 x25:0x00000001 x11=0x00000000
       33875000	      3386	80002c3c	61a34003	lbu	x0,1562(x6)	  x6:0x8000881b PA:0x80008e35
       33885000	      3387	80002c40	59335703	lhu	x14,1427(x6)	  x6:0x8000881b x14=0x00009495 PA:0x80008dae
       33895000	      3388	80002c44	09c34c03	lbu	x24,156(x6)	  x6:0x8000881b x24=0x0000009c PA:0x800088b7
       33905000	      3389	80002c48	7592e713	ori	x14,x5,1881	  x5:0x00002e2f x14=0x00002f7f
       33915000	      3390	80002c4c	5888f393	andi	x7,x17,1416	 x17:0x00000000  x7=0x00000000
       33925000	      3391	80002c50	76030d03	lb	x26,1888(x6)	  x6:0x8000881b x26=0x00000060 PA:0x80008f7b
       33935000	      3392	80002c54	41965913	srai	x18,x12,0x19	 x12:0x0000005c x18=0x00000000
       33945000	      3393	80002c58	1ae30783	lb	x15,430(x6)	  x6:0x8000881b x15=0xffffffb2 PA:0x800089c9
       33955000	      3394	80002c5c	ccb07a93	andi	x21,x0,-821	  x0:0x00000000 x21=0x00000000
       33965000	      3395	80002c60	00f89033	sll	x0,x17,x15	 x17:0x00000000 x15:0xffffffb2
       33975000	      3396	80002c64	0d630103	lb	x2,214(x6)	  x6:0x8000881b  x2=0xffffffda PA:0x800088f1
       33985000	      3397	80002c68	03234d03	lbu	x26,50(x6)	  x6:0x8000881b x26=0x00000036 PA:0x8000884d
       33995000	      3398	80002c6c	3a834383	lbu	x7,936(x6)	  x6:0x8000881b  x7=0x000000a8 PA:0x80008bc3
       34005000	      3399	80002c70	5c830003	lb	x0,1480(x6)	  x6:0x8000881b PA:0x80008de3
       34015000	      3400	80002c74	a0b0fe13	andi	x28,x1,-1525	  x1:0x00000092 x28=0x00000002
       34025000	      3401	80002c78	59f35783	lhu	x15,1439(x6)	  x6:0x8000881b x15=0x0000a0a1 PA:0x80008dba
       34035000	      3402	80002c7c	01a75fb3	srl	x31,x14,x26	 x14:0x00002f7f x26:0x00000036 x31=0x00000000
       34045000	      3403	80002c80	1ff30e83	lb	x29,511(x6)	  x6:0x8000881b x29=0x00000001 PA:0x80008a1a
       34055000	      3404	80002c84	06234883	lbu	x17,98(x6)	  x6:0x8000881b x17=0x00000066 PA:0x8000887d
       34065000	      3405	80002c88	6b9304a3	sb	x25,1705(x6)	  x6:0x8000881b x25:0x00000001 PA:0x80008ec4
       34075000	      3406	80002c8c	6f230323	sb	x18,1766(x6)	  x6:0x8000881b x18:0x00000000 PA:0x80008f01
       34085000	      3407	80002c90	34030c83	lb	x25,832(x6)	  x6:0x8000881b x25=0x0000007c PA:0x80008b5b
       34095000	      3408	80002c94	f77a0013	addi	x0,x20,-137	 x20:0x80009fc4
       34105000	      3409	80002c98	0317fc63	bgeu	x15,x17,80002cd0	 x15:0x0000a0a1 x17:0x00000066
       34115000	      3410	00000000	00000013	addi	x0,x0,0	  x0:0x00000000
       34125000	      3411	80002ccc	00000013	addi	x0,x0,0	  x0:0x00000000
       34135000	      3412	80002cd0	01257a63	bgeu	x10,x18,80002ce4	 x10:0x00000080 x18:0x00000000
       34145000	      3413	00000000	00000013	addi	x0,x0,0	  x0:0x00000000
       34155000	      3414	80002ce0	00000013	addi	x0,x0,0	  x0:0x00000000
       34165000	      3415	80002ce4	01f49993	slli	x19,x9,0x1f	  x9:0x4562b000 x19=0x00000000
       34175000	      3416	80002ce8	f5161b37	lui	x22,0xf5161	 x22=0xf5161000
       34185000	      3417	80002cec	00000013	addi	x0,x0,0	  x0:0x00000000
       34195000	      3418	80002cf0	011e3133	sltu	x2,x28,x17	 x28:0x00000002 x17:0x00000066  x2=0x00000001
       34205000	      3419	80002cf4	58d3a993	slti	x19,x7,1421	  x7:0x000000a8 x19=0x00000001
       34215000	      3420	80002cf8	00761293	slli	x5,x12,0x7	 x12:0x0000005c  x5=0x00002e00
       34225000	      3421	80002cfc	3af60393	addi	x7,x12,943	 x12:0x0000005c  x7=0x0000040b
       34235000	      3422	80002d00	01c15513	srli	x10,x2,0x1c	  x2:0x00000001 x10=0x00000000
       34245000	      3423	80002d04	00416e63	bltu	x2,x4,80002d20	  x2:0x00000001  x4:0x000000e0
       34255000	      3424	00000000	00000013	addi	x0,x0,0	  x0:0x00000000
       34265000	      3425	80002d1c	00000013	addi	x0,x0,0	  x0:0x00000000
       34275000	      3426	80002d20	0635ef93	ori	x31,x11,99	 x11:0x00000000 x31=0x00000063
       34285000	      3427	80002d24	02724263	blt	x4,x7,80002d48	  x4:0x000000e0  x7:0x0000040b
       34295000	      3428	00000000	00000013	addi	x0,x0,0	  x0:0x00000000
       34305000	      3429	80002d44	00000013	addi	x0,x0,0	  x0:0x00000000
       34315000	      3430	80002d48	01735913	srli	x18,x6,0x17	  x6:0x8000881b x18=0x00000100
       34325000	      3431	80002d4c	0002d293	srli	x5,x5,0x0	  x5:0x00002e00  x5=0x00002e00
       34335000	      3432	80002d50	0110e263	bltu	x1,x17,80002d54	  x1:0x00000092 x17:0x00000066
       34345000	      3433	80002d54	017a2c33	slt	x24,x20,x23	 x20:0x80009fc4 x23:0x7c8bc2f3 x24=0x00000001
       34355000	      3434	80002d58	00736db3	or	x27,x6,x7	  x6:0x8000881b  x7:0x0000040b x27=0x80008c1b
       34365000	      3435	80002d5c	703cf513	andi	x10,x25,1795	 x25:0x0000007c x10=0x00000000
       34375000	      3436	80002d60	05ace063	bltu	x25,x26,80002da0	 x25:0x0000007c x26:0x00000036
       34385000	      3437	80002d64	1ab27993	andi	x19,x4,427	  x4:0x000000e0 x19=0x000000a0
       34395000	      3438	80002d68	01165863	bge	x12,x17,80002d78	 x12:0x0000005c x17:0x00000066
       34405000	      3439	80002d6c	01f01863	bne	x0,x31,80002d7c	  x0:0x00000000 x31:0x00000063
       34415000	      3440	00000000	00000013	addi	x0,x0,0	  x0:0x00000000
       34425000	      3441	80002d78	00000013	addi	x0,x0,0	  x0:0x00000000
       34435000	      3442	80002d7c	006e9e63	bne	x29,x6,80002d98	 x29:0x00000001  x6:0x8000881b
       34445000	      3443	00000000	00000013	addi	x0,x0,0	  x0:0x00000000
       34455000	      3444	80002d94	00000013	addi	x0,x0,0	  x0:0x00000000
       34465000	      3445	80002d98	04ca6863	bltu	x20,x12,80002de8	 x20:0x80009fc4 x12:0x0000005c
       34475000	      3446	80002d9c	014ba133	slt	x2,x23,x20	 x23:0x7c8bc2f3 x20:0x80009fc4  x2=0x00000000
       34485000	      3447	80002da0	fc25c6b7	lui	x13,0xfc25c	 x13=0xfc25c000
       34495000	      3448	80002da4	008e30b3	sltu	x1,x28,x8	 x28:0x00000002  x8:0x00000000  x1=0x00000000
       34505000	      3449	80002da8	40aa0eb3	sub	x29,x20,x10	 x20:0x80009fc4 x10:0x00000000 x29=0x80009fc4
       34515000	      3450	80002dac	01f7e3b3	or	x7,x15,x31	 x15:0x0000a0a1 x31:0x00000063  x7=0x0000a0e3
       34525000	      3451	80002db0	01955c93	srli	x25,x10,0x19	 x10:0x00000000 x25=0x00000000
       34535000	      3452	80002db4	406c5633	sra	x12,x24,x6	 x24:0x00000001  x6:0x8000881b x12=0x00000000
       34545000	      3453	80002db8	06c2c393	xori	x7,x5,108	  x5:0x00002e00  x7=0x00002e6c
       34555000	      3454	80002dbc	b7833293	sltiu	x5,x6,-1160	  x6:0x8000881b  x5=0x00000001
       34565000	      3455	80002dc0	410bd493	srai	x9,x23,0x10	 x23:0x7c8bc2f3  x9=0x00007c8b
       34575000	      3456	80002dc4	01781e93	slli	x29,x16,0x17	 x16:0xb8d70000 x29=0x00000000
       34585000	      3457	80002dc8	0a2f2693	slti	x13,x30,162	 x30:0x80009f1c x13=0x00000001
       34595000	      3458	80002dcc	01465493	srli	x9,x12,0x14	 x12:0x00000000  x9=0x00000000
       34605000	      3459	80002dd0	ad63b813	sltiu	x16,x7,-1322	  x7:0x00002e6c x16=0x00000001
       34615000	      3460	80002dd4	01645513	srli	x10,x8,0x16	  x8:0x00000000 x10=0x00000000
       34625000	      3461	80002dd8	00ea9393	slli	x7,x21,0xe	 x21:0x00000000  x7=0x00000000
       34635000	      3462	80002ddc	0fed3993	sltiu	x19,x26,254	 x26:0x00000036 x19=0x00000001
       34645000	      3463	80002de0	50c36893	ori	x17,x6,1292	  x6:0x8000881b x17=0x80008d1f
       34655000	      3464	80002de4	00fc8d33	add	x26,x25,x15	 x25:0x00000000 x15:0x0000a0a1 x26=0x0000a0a1
       34665000	      3465	80002de8	01aef2b3	and	x5,x29,x26	 x29:0x00000000 x26:0x0000a0a1  x5=0x00000000
       34675000	      3466	80002dec	02f1ee63	bltu	x3,x15,80002e28	  x3:0x36b2d000 x15:0x0000a0a1
       34685000	      3467	80002df0	7809ae93	slti	x29,x19,1920	 x19:0x00000001 x29=0x00000001
       34695000	      3468	80002df4	01501b33	sll	x22,x0,x21	  x0:0x00000000 x21:0x00000000 x22=0x00000000
       34705000	      3469	80002df8	419c5613	srai	x12,x24,0x19	 x24:0x00000001 x12=0x00000000
       34715000	      3470	80002dfc	70eff993	andi	x19,x31,1806	 x31:0x00000063 x19=0x00000002
       34725000	      3471	80002e00	ae9c7193	andi	x3,x24,-1303	 x24:0x00000001  x3=0x00000001
       34735000	      3472	80002e04	010d1233	sll	x4,x26,x16	 x26:0x0000a0a1 x16:0x00000001  x4=0x00014142
       34745000	      3473	80002e08	03a91a63	bne	x18,x26,80002e3c	 x18:0x00000100 x26:0x0000a0a1
       34755000	      3474	00000000	00000013	addi	x0,x0,0	  x0:0x00000000
       34765000	      3475	80002e38	00000013	addi	x0,x0,0	  x0:0x00000000
       34775000	      3476	80002e3c	b1cf4c17	auipc	x24,0xb1cf4	 x24=0x31cf6e38
       34785000	      3477	80002e40	04b7f063	bgeu	x15,x11,80002e80	 x15:0x0000a0a1 x11:0x00000000
       34795000	      3478	00000000	00000013	addi	x0,x0,0	  x0:0x00000000
       34805000	      3479	80002e7c	00000013	addi	x0,x0,0	  x0:0x00000000
       34815000	      3480	80002e80	0105d513	srli	x10,x11,0x10	 x11:0x00000000 x10=0x00000000
       34825000	      3481	80002e84	00fde433	or	x8,x27,x15	 x27:0x80008c1b x15:0x0000a0a1  x8=0x8000acbb
       34835000	      3482	80002e88	024c9463	bne	x25,x4,80002eb0	 x25:0x00000000  x4:0x00014142
       34845000	      3483	00000000	00000013	addi	x0,x0,0	  x0:0x00000000
       34855000	      3484	80002eac	00000013	addi	x0,x0,0	  x0:0x00000000
       34865000	      3485	80002eb0	005ddb33	srl	x22,x27,x5	 x27:0x80008c1b  x5:0x00000000 x22=0x80008c1b
       34875000	      3486	80002eb4	00831a63	bne	x6,x8,80002ec8	  x6:0x8000881b  x8:0x8000acbb
       34885000	      3487	00000000	00000013	addi	x0,x0,0	  x0:0x00000000
       34895000	      3488	80002ec4	00000013	addi	x0,x0,0	  x0:0x00000000
       34905000	      3489	80002ec8	004998b3	sll	x17,x19,x4	 x19:0x00000002  x4:0x00014142 x17=0x00000008
       34915000	      3490	80002ecc	00726633	or	x12,x4,x7	  x4:0x00014142  x7:0x00000000 x12=0x00014142
       34925000	      3491	80002ed0	00327863	bgeu	x4,x3,80002ee0	  x4:0x00014142  x3:0x00000001
       34935000	      3492	00000000	00000013	addi	x0,x0,0	  x0:0x00000000
       34945000	      3493	80002edc	00000013	addi	x0,x0,0	  x0:0x00000000
       34955000	      3494	80002ee0	418d55b3	sra	x11,x26,x24	 x26:0x0000a0a1 x24:0x31cf6e38 x11=0x00000000
       34965000	      3495	80002ee4	406dd993	srai	x19,x27,0x6	 x27:0x80008c1b x19=0xfe000230
       34975000	      3496	80002ee8	00910a63	beq	x2,x9,80002efc	  x2:0x00000000  x9:0x00000000
       34985000	      3497	00000000	00000013	addi	x0,x0,0	  x0:0x00000000
       34995000	      3498	80002ef8	00000013	addi	x0,x0,0	  x0:0x00000000
       35005000	      3499	80002efc	405a5813	srai	x16,x20,0x5	 x20:0x80009fc4 x16=0xfc0004fe
       35015000	      3500	80002f00	033b0e63	beq	x22,x19,80002f3c	 x22:0x80008c1b x19:0xfe000230
       35025000	      3501	80002f04	40505713	srai	x14,x0,0x5	  x0:0x00000000 x14=0x00000000
       35035000	      3502	80002f08	00000013	addi	x0,x0,0	  x0:0x00000000
       35045000	      3503	80002f0c	04c58063	beq	x11,x12,80002f4c	 x11:0x00000000 x12:0x00014142
       35055000	      3504	80002f10	01d21433	sll	x8,x4,x29	  x4:0x00014142 x29:0x00000001  x8=0x00028284
       35065000	      3505	80002f14	8ca62093	slti	x1,x12,-1846	 x12:0x00014142  x1=0x00000000
       35075000	      3506	80002f18	02bdcc63	blt	x27,x11,80002f50	 x27:0x80008c1b x11:0x00000000
       35085000	      3507	00000000	00000013	addi	x0,x0,0	  x0:0x00000000
       35095000	      3508	80002f4c	00000013	addi	x0,x0,0	  x0:0x00000000
       35105000	      3509	80002f50	01b6c263	blt	x13,x27,80002f54	 x13:0x00000001 x27:0x80008c1b
       35115000	      3510	80002f54	00d6f463	bgeu	x13,x13,80002f5c	 x13:0x00000001 x13:0x00000001
       35125000	      3511	00000000	00000013	addi	x0,x0,0	  x0:0x00000000
       35135000	      3512	80002f58	00000013	addi	x0,x0,0	  x0:0x00000000
       35145000	      3513	80002f5c	003ed093	srli	x1,x29,0x3	 x29:0x00000001  x1=0x00000000
       35155000	      3514	80002f60	e03c6e17	auipc	x28,0xe03c6	 x28=0x603c8f5c
       35165000	      3515	80002f64	03c58e63	beq	x11,x28,80002fa0	 x11:0x00000000 x28:0x603c8f5c
       35175000	      3516	80002f68	cf984e93	xori	x29,x16,-775	 x16:0xfc0004fe x29=0x03fff807
       35185000	      3517	80002f6c	00f8de63	bge	x17,x15,80002f88	 x17:0x00000008 x15:0x0000a0a1
       35195000	      3518	80002f70	402dd613	srai	x12,x27,0x2	 x27:0x80008c1b x12=0xe0002306
       35205000	      3519	80002f74	01103b33	sltu	x22,x0,x17	  x0:0x00000000 x17:0x00000008 x22=0x00000001
       35215000	      3520	80002f78	401ddc13	srai	x24,x27,0x1	 x27:0x80008c1b x24=0xc000460d
       35225000	      3521	80002f7c	000d8a63	beq	x27,x0,80002f90	 x27:0x80008c1b  x0:0x00000000
       35235000	      3522	80002f80	0018d463	bge	x17,x1,80002f88	 x17:0x00000008  x1:0x00000000
       35245000	      3523	00000000	00000013	addi	x0,x0,0	  x0:0x00000000
       35255000	      3524	80002f84	00000013	addi	x0,x0,0	  x0:0x00000000
       35265000	      3525	80002f88	03279463	bne	x15,x18,80002fb0	 x15:0x0000a0a1 x18:0x00000100
       35275000	      3526	00000000	00000013	addi	x0,x0,0	  x0:0x00000000
       35285000	      3527	80002fac	00000013	addi	x0,x0,0	  x0:0x00000000
       35295000	      3528	80002fb0	022a0e63	beq	x20,x2,80002fec	 x20:0x80009fc4  x2:0x00000000
       35305000	      3529	80002fb4	0104d663	bge	x9,x16,80002fc0	  x9:0x00000000 x16:0xfc0004fe
       35315000	      3530	00000000	00000013	addi	x0,x0,0	  x0:0x00000000
       35325000	      3531	80002fbc	00000013	addi	x0,x0,0	  x0:0x00000000
       35335000	      3532	80002fc0	41780cb3	sub	x25,x16,x23	 x16:0xfc0004fe x23:0x7c8bc2f3 x25=0x7f74420b
       35345000	      3533	80002fc4	4ddca897	auipc	x17,0x4ddca	 x17=0xcddccfc0
       35355000	      3534	80002fc8	01acddb3	srl	x27,x25,x26	 x25:0x7f74420b x26:0x0000a0a1 x27=0x3fba2105
       35365000	      3535	80002fcc	63cb2913	slti	x18,x22,1596	 x22:0x00000001 x18=0x00000001
       35375000	      3536	80002fd0	003ffa63	bgeu	x31,x3,80002fe4	 x31:0x00000063  x3:0x00000001
       35385000	      3537	00000000	00000013	addi	x0,x0,0	  x0:0x00000000
       35395000	      3538	80002fe0	00000013	addi	x0,x0,0	  x0:0x00000000
       35405000	      3539	80002fe4	014156b3	srl	x13,x2,x20	  x2:0x00000000 x20:0x80009fc4 x13=0x00000000
       35415000	      3540	80002fe8	416cd733	sra	x14,x25,x22	 x25:0x7f74420b x22:0x00000001 x14=0x3fba2105
       35425000	      3541	80002fec	2e4b6e93	ori	x29,x22,740	 x22:0x00000001 x29=0x000002e5
       35435000	      3542	80002ff0	befc3097	auipc	x1,0xbefc3	  x1=0x3efc5fec
       35445000	      3543	80002ff4	032e6863	bltu	x28,x18,80003024	 x28:0x603c8f5c x18:0x00000001
       35455000	      3544	80002ff8	22e9ed17	auipc	x26,0x22e9e	 x26=0xa2ea0ff4
       35465000	      3545	80002ffc	41365d13	srai	x26,x12,0x13	 x12:0xe0002306 x26=0xfffffc00
       35475000	      3546	80003000	05ae6063	bltu	x28,x26,80003040	 x28:0x603c8f5c x26:0xfffffc00
       35485000	      3547	00000000	00000013	addi	x0,x0,0	  x0:0x00000000
       35495000	      3548	8000303c	00000013	addi	x0,x0,0	  x0:0x00000000
       35505000	      3549	80003040	01a9edb3	or	x27,x19,x26	 x19:0xfe000230 x26:0xfffffc00 x27=0xfffffe30
       35515000	      3550	80003044	01411433	sll	x8,x2,x20	  x2:0x00000000 x20:0x80009fc4  x8=0x00000000
       35525000	      3551	80003048	000b4533	xor	x10,x22,x0	 x22:0x00000001  x0:0x00000000 x10=0x00000001
       35535000	      3552	8000304c	4f463a93	sltiu	x21,x12,1268	 x12:0xe0002306 x21=0x00000000
       35545000	      3553	80003050	de960113	addi	x2,x12,-535	 x12:0xe0002306  x2=0xe00020ef
       35555000	      3554	80003054	00c95113	srli	x2,x18,0xc	 x18:0x00000001  x2=0x00000000
       35565000	      3555	80003058	00611863	bne	x2,x6,80003068	  x2:0x00000000  x6:0x8000881b
       35575000	      3556	00000000	00000013	addi	x0,x0,0	  x0:0x00000000
       35585000	      3557	80003064	00000013	addi	x0,x0,0	  x0:0x00000000
       35595000	      3558	80003068	413c03b3	sub	x7,x24,x19	 x24:0xc000460d x19:0xfe000230  x7=0xc20043dd
       35605000	      3559	8000306c	046be663	bltu	x23,x6,800030b8	 x23:0x7c8bc2f3  x6:0x8000881b
       35615000	      3560	00000000	00000013	addi	x0,x0,0	  x0:0x00000000
       35625000	      3561	800030b4	00000013	addi	x0,x0,0	  x0:0x00000000
       35635000	      3562	800030b8	403c5c33	sra	x24,x24,x3	 x24:0xc000460d  x3:0x00000001 x24=0xe0002306
       35645000	      3563	800030bc	26a83293	sltiu	x5,x16,618	 x16:0xfc0004fe  x5=0x00000000
       35655000	      3564	800030c0	003cf863	bgeu	x25,x3,800030d0	 x25:0x7f74420b  x3:0x00000001
       35665000	      3565	00000000	00000013	addi	x0,x0,0	  x0:0x00000000
       35675000	      3566	800030cc	00000013	addi	x0,x0,0	  x0:0x00000000
       35685000	      3567	800030d0	02871e63	bne	x14,x8,8000310c	 x14:0x3fba2105  x8:0x00000000
       35695000	      3568	00000000	00000013	addi	x0,x0,0	  x0:0x00000000
       35705000	      3569	80003108	00000013	addi	x0,x0,0	  x0:0x00000000
       35715000	      3570	8000310c	01f4a333	slt	x6,x9,x31	  x9:0x00000000 x31:0x00000063  x6=0x00000001
       35725000	      3571	80003110	001430b3	sltu	x1,x8,x1	  x8:0x00000000  x1:0x3efc5fec  x1=0x00000001
       35735000	      3572	80003114	000d1093	slli	x1,x26,0x0	 x26:0xfffffc00  x1=0xfffffc00
       35745000	      3573	80003118	03ce8263	beq	x29,x28,8000313c	 x29:0x000002e5 x28:0x603c8f5c
       35755000	      3574	8000311c	bac5af93	slti	x31,x11,-1108	 x11:0x00000000 x31=0x00000000
       35765000	      3575	80003120	3e5ab413	sltiu	x8,x21,997	 x21:0x00000000  x8=0x00000001
       35775000	      3576	80003124	01419e93	slli	x29,x3,0x14	  x3:0x00000001 x29=0x00100000
       35785000	      3577	80003128	014fb833	sltu	x16,x31,x20	 x31:0x00000000 x20:0x80009fc4 x16=0x00000001
       35795000	      3578	8000312c	0023c1b3	xor	x3,x7,x2	  x7:0xc20043dd  x2:0x00000000  x3=0xc20043dd
       35805000	      3579	80003130	04830913	addi	x18,x6,72	  x6:0x00000001 x18=0x00000049
       35815000	      3580	80003134	00e8aab3	slt	x21,x17,x14	 x17:0xcddccfc0 x14:0x3fba2105 x21=0x00000001
       35825000	      3581	80003138	01f99413	slli	x8,x19,0x1f	 x19:0xfe000230  x8=0x00000000
       35835000	      3582	8000313c	00ba0a63	beq	x20,x11,80003150	 x20:0x80009fc4 x11:0x00000000
       35845000	      3583	80003140	01557333	and	x6,x10,x21	 x10:0x00000001 x21:0x00000001  x6=0x00000001
       35855000	      3584	80003144	41bfd233	sra	x4,x31,x27	 x31:0x00000000 x27:0xfffffe30  x4=0x00000000
       35865000	      3585	80003148	011754b3	srl	x9,x14,x17	 x14:0x3fba2105 x17:0xcddccfc0  x9=0x3fba2105
       35875000	      3586	8000314c	404ed313	srai	x6,x29,0x4	 x29:0x00100000  x6=0x00010000
       35885000	      3587	80003150	01cd01b3	add	x3,x26,x28	 x26:0xfffffc00 x28:0x603c8f5c  x3=0x603c8b5c
       35895000	      3588	80003154	00ae5c33	srl	x24,x28,x10	 x28:0x603c8f5c x10:0x00000001 x24=0x301e47ae
       35905000	      3589	80003158	eeb7e893	ori	x17,x15,-277	 x15:0x0000a0a1 x17=0xfffffeeb
       35915000	      3590	8000315c	008b7e33	and	x28,x22,x8	 x22:0x00000001  x8:0x00000000 x28=0x00000000
       35925000	      3591	80003160	00291eb3	sll	x29,x18,x2	 x18:0x00000049  x2:0x00000000 x29=0x00000049
       35935000	      3592	80003164	00945293	srli	x5,x8,0x9	  x8:0x00000000  x5=0x00000000
       35945000	      3593	80003168	9ca75097	auipc	x1,0x9ca75	  x1=0x1ca78164
       35955000	      3594	8000316c	01f21813	slli	x16,x4,0x1f	  x4:0x00000000 x16=0x00000000
       35965000	      3595	80003170	0050a0b3	slt	x1,x1,x5	  x1:0x1ca78164  x5:0x00000000  x1=0x00000000
       35975000	      3596	80003174	fb82cb13	xori	x22,x5,-72	  x5:0x00000000 x22=0xffffffb8
       35985000	      3597	80003178	87eebd93	sltiu	x27,x29,-1922	 x29:0x00000049 x27=0x00000001
       35995000	      3598	8000317c	0165cc33	xor	x24,x11,x22	 x11:0x00000000 x22:0xffffffb8 x24=0xffffffb8
       36005000	      3599	80003180	04bbf063	bgeu	x23,x11,800031c0	 x23:0x7c8bc2f3 x11:0x00000000
       36015000	      3600	00000000	00000013	addi	x0,x0,0	  x0:0x00000000
       36025000	      3601	800031bc	00000013	addi	x0,x0,0	  x0:0x00000000
       36035000	      3602	800031c0	96155d37	lui	x26,0x96155	 x26=0x96155000
       36045000	      3603	800031c4	3f908613	addi	x12,x1,1017	  x1:0x00000000 x12=0x000003f9
       36055000	      3604	800031c8	0097f6b3	and	x13,x15,x9	 x15:0x0000a0a1  x9:0x3fba2105 x13=0x00002001
       36065000	      3605	800031cc	00000013	addi	x0,x0,0	  x0:0x00000000
       36075000	      3606	800031d0	3c5a6793	ori	x15,x20,965	 x20:0x80009fc4 x15=0x80009fc5
       36085000	      3607	800031d4	00001813	slli	x16,x0,0x0	  x0:0x00000000 x16=0x00000000
       36095000	      3608	800031d8	00c4d333	srl	x6,x9,x12	  x9:0x3fba2105 x12:0x000003f9  x6=0x0000001f
       36105000	      3609	800031dc	01dcea63	bltu	x25,x29,800031f0	 x25:0x7f74420b x29:0x00000049
       36115000	      3610	800031e0	41fa5533	sra	x10,x20,x31	 x20:0x80009fc4 x31:0x00000000 x10=0x80009fc4
       36125000	      3611	800031e4	00d439b3	sltu	x19,x8,x13	  x8:0x00000000 x13:0x00002001 x19=0x00000001
       36135000	      3612	800031e8	006d5863	bge	x26,x6,800031f8	 x26:0x96155000  x6:0x0000001f
       36145000	      3613	800031ec	456d7993	andi	x19,x26,1110	 x26:0x96155000 x19=0x00000000
       36155000	      3614	800031f0	40b10833	sub	x16,x2,x11	  x2:0x00000000 x11:0x00000000 x16=0x00000000
       36165000	      3615	800031f4	02fd7063	bgeu	x26,x15,80003214	 x26:0x96155000 x15:0x80009fc5
       36175000	      3616	00000000	00000013	addi	x0,x0,0	  x0:0x00000000
       36185000	      3617	80003210	00000013	addi	x0,x0,0	  x0:0x00000000
       36195000	      3618	80003214	7067ba93	sltiu	x21,x15,1798	 x15:0x80009fc5 x21=0x00000000
       36205000	      3619	80003218	002c96b3	sll	x13,x25,x2	 x25:0x7f74420b  x2:0x00000000 x13=0x7f74420b
       36215000	      3620	8000321c	009bf7b3	and	x15,x23,x9	 x23:0x7c8bc2f3  x9:0x3fba2105 x15=0x3c8a0001
       36225000	      3621	80003220	57e98f93	addi	x31,x19,1406	 x19:0x00000000 x31=0x0000057e
       36235000	      3622	80003224	00000013	addi	x0,x0,0	  x0:0x00000000
       36245000	      3623	80003228	3289c393	xori	x7,x19,808	 x19:0x00000000  x7=0x00000328
       36255000	      3624	8000322c	00d4cd33	xor	x26,x9,x13	  x9:0x3fba2105 x13:0x7f74420b x26=0x40ce630e
       36265000	      3625	80003230	38fe1e97	auipc	x29,0x38fe1	 x29=0xb8fe422c
       36275000	      3626	80003234	5d007413	andi	x8,x0,1488	  x0:0x00000000  x8=0x00000000
       36285000	      3627	80003238	01cadeb3	srl	x29,x21,x28	 x21:0x00000000 x28:0x00000000 x29=0x00000000
       36295000	      3628	8000323c	00c4d2b3	srl	x5,x9,x12	  x9:0x3fba2105 x12:0x000003f9  x5=0x0000001f
       36305000	      3629	80003240	014b5833	srl	x16,x22,x20	 x22:0xffffffb8 x20:0x80009fc4 x16=0x0ffffffb
       36315000	      3630	80003244	bb3bb017	auipc	x0,0xbb3bb	
       36325000	      3631	80003248	0087c033	xor	x0,x15,x8	 x15:0x3c8a0001  x8:0x00000000
       36335000	      3632	8000324c	417a5813	srai	x16,x20,0x17	 x20:0x80009fc4 x16=0xffffff00
       36345000	      3633	80003250	41ead113	srai	x2,x21,0x1e	 x21:0x00000000  x2=0x00000000
       36355000	      3634	80003254	0122db33	srl	x22,x5,x18	  x5:0x0000001f x18:0x00000049 x22=0x00000000
       36365000	      3635	80003258	00646863	bltu	x8,x6,80003268	  x8:0x00000000  x6:0x0000001f
       36375000	      3636	00000000	00000013	addi	x0,x0,0	  x0:0x00000000
       36385000	      3637	80003264	00000013	addi	x0,x0,0	  x0:0x00000000
       36395000	      3638	80003268	038c0e63	beq	x24,x24,800032a4	 x24:0xffffffb8 x24:0xffffffb8
       36405000	      3639	00000000	00000013	addi	x0,x0,0	  x0:0x00000000
       36415000	      3640	800032a0	00000013	addi	x0,x0,0	  x0:0x00000000
       36425000	      3641	800032a4	01022cb3	slt	x25,x4,x16	  x4:0x00000000 x16:0xffffff00 x25=0x00000000
       36435000	      3642	800032a8	00270633	add	x12,x14,x2	 x14:0x3fba2105  x2:0x00000000 x12=0x3fba2105
       36445000	      3643	800032ac	40845133	sra	x2,x8,x8	  x8:0x00000000  x8:0x00000000  x2=0x00000000
       36455000	      3644	800032b0	4ae8b313	sltiu	x6,x17,1198	 x17:0xfffffeeb  x6=0x00000000
       36465000	      3645	800032b4	c3d8a113	slti	x2,x17,-963	 x17:0xfffffeeb  x2=0x00000000
       36475000	      3646	800032b8	0056b6b3	sltu	x13,x13,x5	 x13:0x7f74420b  x5:0x0000001f x13=0x00000000
       36485000	      3647	800032bc	007e6d33	or	x26,x28,x7	 x28:0x00000000  x7:0x00000328 x26=0x00000328
       36495000	      3648	800032c0	c1960e93	addi	x29,x12,-999	 x12:0x3fba2105 x29=0x3fba1d1e
       36505000	      3649	800032c4	025c8063	beq	x25,x5,800032e4	 x25:0x00000000  x5:0x0000001f
       36515000	      3650	800032c8	00151263	bne	x10,x1,800032cc	 x10:0x80009fc4  x1:0x00000000
       36525000	      3651	00000000	00000013	addi	x0,x0,0	  x0:0x00000000
       36535000	      3652	800032c8	00000013	addi	x0,x0,0	  x0:0x00000000
       36545000	      3653	800032cc	3b501617	auipc	x12,0x3b501	 x12=0xbb5042c8
       36555000	      3654	800032d0	01e91c33	sll	x24,x18,x30	 x18:0x00000049 x30:0x80009f1c x24=0x90000000
       36565000	      3655	800032d4	007d83b3	add	x7,x27,x7	 x27:0x00000001  x7:0x00000328  x7=0x00000329
       36575000	      3656	800032d8	4cbcc613	xori	x12,x25,1227	 x25:0x00000000 x12=0x000004cb
       36585000	      3657	800032dc	01bf4ab3	xor	x21,x30,x27	 x30:0x80009f1c x27:0x00000001 x21=0x80009f1d
       36595000	      3658	800032e0	40815713	srai	x14,x2,0x8	  x2:0x00000000 x14=0x00000000
       36605000	      3659	800032e4	4175d733	sra	x14,x11,x23	 x11:0x00000000 x23:0x7c8bc2f3 x14=0x00000000
       36615000	      3660	800032e8	0152fe63	bgeu	x5,x21,80003304	  x5:0x0000001f x21:0x80009f1d
       36625000	      3661	800032ec	00693b33	sltu	x22,x18,x6	 x18:0x00000049  x6:0x00000000 x22=0x00000000
       36635000	      3662	800032f0	00b5e9b3	or	x19,x11,x11	 x11:0x00000000 x11:0x00000000 x19=0x00000000
       36645000	      3663	800032f4	03037863	bgeu	x6,x16,80003324	  x6:0x00000000 x16:0xffffff00
       36655000	      3664	800032f8	cea7cd13	xori	x26,x15,-790	 x15:0x3c8a0001 x26=0xc375fceb
       36665000	      3665	800032fc	007cca63	blt	x25,x7,80003310	 x25:0x00000000  x7:0x00000329
       36675000	      3666	00000000	00000013	addi	x0,x0,0	  x0:0x00000000
       36685000	      3667	8000330c	00000013	addi	x0,x0,0	  x0:0x00000000
       36695000	      3668	80003310	05d49663	bne	x9,x29,8000335c	  x9:0x3fba2105 x29:0x3fba1d1e
       36705000	      3669	00000000	00000013	addi	x0,x0,0	  x0:0x00000000
       36715000	      3670	80003358	00000013	addi	x0,x0,0	  x0:0x00000000
       36725000	      3671	8000335c	408f57b3	sra	x15,x30,x8	 x30:0x80009f1c  x8:0x00000000 x15=0x80009f1c
       36735000	      3672	80003360	002d04b3	add	x9,x26,x2	 x26:0xc375fceb  x2:0x00000000  x9=0xc375fceb
       36745000	      3673	80003364	a31f2c93	slti	x25,x30,-1487	 x30:0x80009f1c x25=0x00000001
       36755000	      3674	80003368	8ca7c613	xori	x12,x15,-1846	 x15:0x80009f1c x12=0x7fff67d6
       36765000	      3675	8000336c	27edc993	xori	x19,x27,638	 x27:0x00000001 x19=0x0000027f
       36775000	      3676	80003370	005d5ab3	srl	x21,x26,x5	 x26:0xc375fceb  x5:0x0000001f x21=0x00000001
       36785000	      3677	80003374	01717463	bgeu	x2,x23,8000337c	  x2:0x00000000 x23:0x7c8bc2f3
       36795000	      3678	80003378	033e5c63	bge	x28,x19,800033b0	 x28:0x00000000 x19:0x0000027f
       36805000	      3679	8000337c	00c8f533	and	x10,x17,x12	 x17:0xfffffeeb x12:0x7fff67d6 x10=0x7fff66c2
       36815000	      3680	80003380	028b5863	bge	x22,x8,800033b0	 x22:0x00000000  x8:0x00000000
       36825000	      3681	00000000	00000013	addi	x0,x0,0	  x0:0x00000000
       36835000	      3682	800033ac	00000013	addi	x0,x0,0	  x0:0x00000000
       36845000	      3683	800033b0	003a0263	beq	x20,x3,800033b4	 x20:0x80009fc4  x3:0x603c8b5c
       36855000	      3684	800033b4	f0157c17	auipc	x24,0xf0157	 x24=0x7015a3b0
       36865000	      3685	800033b8	009d0e63	beq	x26,x9,800033d4	 x26:0xc375fceb  x9:0xc375fceb
       36875000	      3686	00000000	00000013	addi	x0,x0,0	  x0:0x00000000
       36885000	      3687	800033d0	00000013	addi	x0,x0,0	  x0:0x00000000
       36895000	      3688	800033d4	01669b13	slli	x22,x13,0x16	 x13:0x00000000 x22=0x00000000
       36905000	      3689	800033d8	00000013	addi	x0,x0,0	  x0:0x00000000
       36915000	      3690	800033dc	010a83b3	add	x7,x21,x16	 x21:0x00000001 x16:0xffffff00  x7=0xffffff01
       36925000	      3691	800033e0	40375813	srai	x16,x14,0x3	 x14:0x00000000 x16=0x00000000
       36935000	      3692	800033e4	17aea593	slti	x11,x29,378	 x29:0x3fba1d1e x11=0x00000000
       36945000	      3693	800033e8	02208063	beq	x1,x2,80003408	  x1:0x00000000  x2:0x00000000
       36955000	      3694	00000000	00000013	addi	x0,x0,0	  x0:0x00000000
       36965000	      3695	80003404	00000013	addi	x0,x0,0	  x0:0x00000000
       36975000	      3696	80003408	00641893	slli	x17,x8,0x6	  x8:0x00000000 x17=0x00000000
       36985000	      3697	8000340c	011528b3	slt	x17,x10,x17	 x10:0x7fff66c2 x17:0x00000000 x17=0x00000000
       36995000	      3698	80003410	81408113	addi	x2,x1,-2028	  x1:0x00000000  x2=0xfffff814
       37005000	      3699	80003414	aa8c7a93	andi	x21,x24,-1368	 x24:0x7015a3b0 x21=0x7015a2a0
       37015000	      3700	80003418	019ad113	srli	x2,x21,0x19	 x21:0x7015a2a0  x2=0x00000038
       37025000	      3701	8000341c	01b15093	srli	x1,x2,0x1b	  x2:0x00000038  x1=0x00000000
       37035000	      3702	80003420	b8dc12b7	lui	x5,0xb8dc1	  x5=0xb8dc1000
       37045000	      3703	80003424	018b9193	slli	x3,x23,0x18	 x23:0x7c8bc2f3  x3=0xf3000000
       37055000	      3704	80003428	01f4f463	bgeu	x9,x31,80003430	  x9:0xc375fceb x31:0x0000057e
       37065000	      3705	00000000	00000013	addi	x0,x0,0	  x0:0x00000000
       37075000	      3706	8000342c	00000013	addi	x0,x0,0	  x0:0x00000000
       37085000	      3707	80003430	15130517	auipc	x10,0x15130	 x10=0x9513342c
       37095000	      3708	80003434	00515793	srli	x15,x2,0x5	  x2:0x00000038 x15=0x00000001
       37105000	      3709	80003438	eaef6013	ori	x0,x30,-338	 x30:0x80009f1c
       37115000	      3710	8000343c	0497c063	blt	x15,x9,8000347c	 x15:0x00000001  x9:0xc375fceb
       37125000	      3711	80003440	00a317b3	sll	x15,x6,x10	  x6:0x00000000 x10:0x9513342c x15=0x00000000
       37135000	      3712	80003444	733cb213	sltiu	x4,x25,1843	 x25:0x00000001  x4=0x00000001
       37145000	      3713	80003448	1f608693	addi	x13,x1,502	  x1:0x00000000 x13=0x000001f6
       37155000	      3714	8000344c	018414b3	sll	x9,x8,x24	  x8:0x00000000 x24:0x7015a3b0  x9=0x00000000
       37165000	      3715	80003450	004d8a63	beq	x27,x4,80003464	 x27:0x00000001  x4:0x00000001
       37175000	      3716	00000000	00000013	addi	x0,x0,0	  x0:0x00000000
       37185000	      3717	80003460	00000013	addi	x0,x0,0	  x0:0x00000000
       37195000	      3718	80003464	01229893	slli	x17,x5,0x12	  x5:0xb8dc1000 x17=0x40000000
       37205000	      3719	80003468	400e80b3	sub	x1,x29,x0	 x29:0x3fba1d1e  x0:0x00000000  x1=0x3fba1d1e
       37215000	      3720	8000346c	411b5b33	sra	x22,x22,x17	 x22:0x00000000 x17:0x40000000 x22=0x00000000
       37225000	      3721	80003470	01755833	srl	x16,x10,x23	 x10:0x9513342c x23:0x7c8bc2f3 x16=0x000012a2
       37235000	      3722	80003474	dc2e0893	addi	x17,x28,-574	 x28:0x00000000 x17=0xfffffdc2
       37245000	      3723	80003478	02201463	bne	x0,x2,800034a0	  x0:0x00000000  x2:0x00000038
       37255000	      3724	00000000	00000013	addi	x0,x0,0	  x0:0x00000000
       37265000	      3725	8000349c	00000013	addi	x0,x0,0	  x0:0x00000000
       37275000	      3726	800034a0	ab1c4513	xori	x10,x24,-1359	 x24:0x7015a3b0 x10=0x8fea5901
       37285000	      3727	800034a4	01404db3	xor	x27,x0,x20	  x0:0x00000000 x20:0x80009fc4 x27=0x80009fc4
       37295000	      3728	800034a8	00d4fa63	bgeu	x9,x13,800034bc	  x9:0x00000000 x13:0x000001f6
       37305000	      3729	800034ac	005d0463	beq	x26,x5,800034b4	 x26:0xc375fceb  x5:0xb8dc1000
       37315000	      3730	800034b0	0091d513	srli	x10,x3,0x9	  x3:0xf3000000 x10=0x00798000
       37325000	      3731	800034b4	00c7ca63	blt	x15,x12,800034c8	 x15:0x00000000 x12:0x7fff67d6
       37335000	      3732	00000000	00000013	addi	x0,x0,0	  x0:0x00000000
       37345000	      3733	800034c4	00000013	addi	x0,x0,0	  x0:0x00000000
       37355000	      3734	800034c8	00000013	addi	x0,x0,0	  x0:0x00000000
       37365000	      3735	800034cc	0067a3b3	slt	x7,x15,x6	 x15:0x00000000  x6:0x00000000  x7=0x00000000
       37375000	      3736	800034d0	9d93a393	slti	x7,x7,-1575	  x7:0x00000000  x7=0x00000000
       37385000	      3737	800034d4	004f2903	lw	x18,4(x30)	 x30:0x80009f1c x18=0x800021f4 PA:0x80009f20
       37395000	      3738	800034d8	0051c833	xor	x16,x3,x5	  x3:0xf3000000  x5:0xb8dc1000 x16=0x4bdc1000
       37405000	      3739	800034dc	00e74533	xor	x10,x14,x14	 x14:0x00000000 x14:0x00000000 x10=0x00000000
       37415000	      3740	800034e0	028f0f13	addi	x30,x30,40	 x30:0x80009f1c x30=0x80009f44
       37425000	      3741	800034e4	3b370717	auipc	x14,0x3b370	 x14=0xbb3734e0
       37435000	      3742	800034e8	00e61093	slli	x1,x12,0xe	 x12:0x7fff67d6  x1=0xd9f58000
       37445000	      3743	800034ec	fe3bf313	andi	x6,x23,-29	 x23:0x7c8bc2f3  x6=0x7c8bc2e3
       37455000	      3744	800034f0	00e21213	slli	x4,x4,0xe	  x4:0x00000001  x4=0x00004000
       37465000	      3745	800034f4	00190993	addi	x19,x18,1	 x18:0x800021f4 x19=0x800021f5
       37475000	      3746	800034f8	000989e7	jalr	x19,x19,0	 x19:0x800021f5 x19=0x800034f8
       37485000	      3747	00000000	00000013	addi	x0,x0,0	  x0:0x00000000
       37495000	      3748	800021f4	00000013	addi	x0,x0,0	  x0:0x00000000
       37505000	      3749	800021f8	00006197	auipc	x3,0x6	  x3=0x800081f4
       37515000	      3750	800021fc	0c118193	addi	x3,x3,193	  x3:0x800081f4  x3=0x800082b5
       37525000	      3751	80002200	c725a493	slti	x9,x11,-910	 x11:0x00000000  x9=0x00000000
       37535000	      3752	80002204	eee183a3	sb	x14,-281(x3)	  x3:0x800082b5 x14:0xbb3734e0 PA:0x8000819c
       37545000	      3753	80002208	00000013	addi	x0,x0,0	  x0:0x00000000
       37555000	      3754	8000220c	08018c83	lb	x25,128(x3)	  x3:0x800082b5 x25=0xffffffee PA:0x80008335
       37565000	      3755	80002210	3c518023	sb	x5,960(x3)	  x3:0x800082b5  x5:0xb8dc1000 PA:0x80008675
       37575000	      3756	80002214	ee51c803	lbu	x16,-283(x3)	  x3:0x800082b5 x16=0x00000051 PA:0x8000819a
       37585000	      3757	80002218	02818123	sb	x8,34(x3)	  x3:0x800082b5  x8:0x00000000 PA:0x800082d7
       37595000	      3758	8000221c	005c0c33	add	x24,x24,x5	 x24:0x7015a3b0  x5:0xb8dc1000 x24=0x28f1b3b0
       37605000	      3759	80002220	008e02b3	add	x5,x28,x8	 x28:0x00000000  x8:0x00000000  x5=0x00000000
       37615000	      3760	80002224	40c65e13	srai	x28,x12,0xc	 x12:0x7fff67d6 x28=0x0007fff6
       37625000	      3761	80002228	44a1cd83	lbu	x27,1098(x3)	  x3:0x800082b5 x27=0x000000b4 PA:0x800086ff
       37635000	      3762	8000222c	eff18023	sb	x31,-288(x3)	  x3:0x800082b5 x31:0x0000057e PA:0x80008195
       37645000	      3763	80002230	dc919783	lh	x15,-567(x3)	  x3:0x800082b5 x15=0x00003435 PA:0x8000807e
       37655000	      3764	80002234	412d8033	sub	x0,x27,x18	 x27:0x000000b4 x18:0x800021f4
       37665000	      3765	80002238	40cdd833	sra	x16,x27,x12	 x27:0x000000b4 x12:0x7fff67d6 x16=0x00000000
       37675000	      3766	8000223c	f0218123	sb	x2,-254(x3)	  x3:0x800082b5  x2:0x00000038 PA:0x800081b7
       37685000	      3767	80002240	01025eb3	srl	x29,x4,x16	  x4:0x00004000 x16:0x00000000 x29=0x00004000
       37695000	      3768	80002244	01815393	srli	x7,x2,0x18	  x2:0x00000038  x7=0x00000000
       37705000	      3769	80002248	c59b7d13	andi	x26,x22,-935	 x22:0x00000000 x26=0x00000000
       37715000	      3770	8000224c	0130e733	or	x14,x1,x19	  x1:0xd9f58000 x19:0x800034f8 x14=0xd9f5b4f8
       37725000	      3771	80002250	41cf86b3	sub	x13,x31,x28	 x31:0x0000057e x28:0x0007fff6 x13=0xfff80588
       37735000	      3772	80002254	f351dc03	lhu	x24,-203(x3)	  x3:0x800082b5 x24=0x0000a0a1 PA:0x800081ea
       37745000	      3773	80002258	08319383	lh	x7,131(x3)	  x3:0x800082b5  x7=0xfffff2f3 PA:0x80008338
       37755000	      3774	8000225c	402a0233	sub	x4,x20,x2	 x20:0x80009fc4  x2:0x00000038  x4=0x80009f8c
       37765000	      3775	80002260	2ad18c23	sb	x13,696(x3)	  x3:0x800082b5 x13:0xfff80588 PA:0x8000856d
       37775000	      3776	80002264	12318623	sb	x3,300(x3)	  x3:0x800082b5  x3:0x800082b5 PA:0x800083e1
       37785000	      3777	80002268	0d01ce03	lbu	x28,208(x3)	  x3:0x800082b5 x28=0x0000002f PA:0x80008385
       37795000	      3778	8000226c	0eb19003	lh	x0,235(x3)	  x3:0x800082b5 PA:0x800083a0
       37805000	      3779	80002270	41d18583	lb	x11,1053(x3)	  x3:0x800082b5 x11=0xffffff89 PA:0x800086d2
       37815000	      3780	80002274	029e9863	bne	x29,x9,800022a4	 x29:0x00004000  x9:0x00000000
       37825000	      3781	00000000	00000013	addi	x0,x0,0	  x0:0x00000000
       37835000	      3782	800022a0	00000013	addi	x0,x0,0	  x0:0x00000000
       37845000	      3783	800022a4	dd6c6e93	ori	x29,x24,-554	 x24:0x0000a0a1 x29=0xfffffdf7
       37855000	      3784	800022a8	408c5313	srai	x6,x24,0x8	 x24:0x0000a0a1  x6=0x000000a0
       37865000	      3785	800022ac	028a9063	bne	x21,x8,800022cc	 x21:0x7015a2a0  x8:0x00000000
       37875000	      3786	00000000	00000013	addi	x0,x0,0	  x0:0x00000000
       37885000	      3787	800022c8	00000013	addi	x0,x0,0	  x0:0x00000000
       37895000	      3788	800022cc	4098db33	sra	x22,x17,x9	 x17:0xfffffdc2  x9:0x00000000 x22=0xfffffdc2
       37905000	      3789	800022d0	01182833	slt	x16,x16,x17	 x16:0x00000000 x17:0xfffffdc2 x16=0x00000000
       37915000	      3790	800022d4	22176893	ori	x17,x14,545	 x14:0xd9f5b4f8 x17=0xd9f5b6f9
       37925000	      3791	800022d8	0126de13	srli	x28,x13,0x12	 x13:0xfff80588 x28=0x00003ffe
       37935000	      3792	800022dc	40b909b3	sub	x19,x18,x11	 x18:0x800021f4 x11:0xffffff89 x19=0x8000226b
       37945000	      3793	800022e0	4016d413	srai	x8,x13,0x1	 x13:0xfff80588  x8=0xfffc02c4
       37955000	      3794	800022e4	4178dd33	sra	x26,x17,x23	 x17:0xd9f5b6f9 x23:0x7c8bc2f3 x26=0xfffffb3e
       37965000	      3795	800022e8	405a0cb3	sub	x25,x20,x5	 x20:0x80009fc4  x5:0x00000000 x25=0x80009fc4
       37975000	      3796	800022ec	00000013	addi	x0,x0,0	  x0:0x00000000
       37985000	      3797	800022f0	039d8e63	beq	x27,x25,8000232c	 x27:0x000000b4 x25:0x80009fc4
       37995000	      3798	800022f4	00b7bdb3	sltu	x27,x15,x11	 x15:0x00003435 x11:0xffffff89 x27=0x00000001
       38005000	      3799	800022f8	00d19a93	slli	x21,x3,0xd	  x3:0x800082b5 x21=0x1056a000
       38015000	      3800	800022fc	05393613	sltiu	x12,x18,83	 x18:0x800021f4 x12=0x00000000
       38025000	      3801	80002300	00000013	addi	x0,x0,0	  x0:0x00000000
       38035000	      3802	80002304	a3278813	addi	x16,x15,-1486	 x15:0x00003435 x16=0x00002e67
       38045000	      3803	80002308	01d87a63	bgeu	x16,x29,8000231c	 x16:0x00002e67 x29:0xfffffdf7
       38055000	      3804	8000230c	4a723293	sltiu	x5,x4,1191	  x4:0x80009f8c  x5=0x00000000
       38065000	      3805	80002310	b8a93813	sltiu	x16,x18,-1142	 x18:0x800021f4 x16=0x00000001
       38075000	      3806	80002314	459983b7	lui	x7,0x45998	  x7=0x45998000
       38085000	      3807	80002318	026bcc63	blt	x23,x6,80002350	 x23:0x7c8bc2f3  x6:0x000000a0
       38095000	      3808	8000231c	009871b3	and	x3,x16,x9	 x16:0x00000001  x9:0x00000000  x3=0x00000000
       38105000	      3809	80002320	002d8c63	beq	x27,x2,80002338	 x27:0x00000001  x2:0x00000038
       38115000	      3810	80002324	01b8dcb3	srl	x25,x17,x27	 x17:0xd9f5b6f9 x27:0x00000001 x25=0x6cfadb7c
       38125000	      3811	80002328	81693e13	sltiu	x28,x18,-2026	 x18:0x800021f4 x28=0x00000001
       38135000	      3812	8000232c	40875133	sra	x2,x14,x8	 x14:0xd9f5b4f8  x8:0xfffc02c4  x2=0xfd9f5b4f
       38145000	      3813	80002330	11b73d93	sltiu	x27,x14,283	 x14:0xd9f5b4f8 x27=0x00000000
       38155000	      3814	80002334	8b138617	auipc	x12,0x8b138	 x12=0x0b13a330
       38165000	      3815	80002338	01eaf463	bgeu	x21,x30,80002340	 x21:0x1056a000 x30:0x80009f44
       38175000	      3816	8000233c	00b20ab3	add	x21,x4,x11	  x4:0x80009f8c x11:0xffffff89 x21=0x80009f15
       38185000	      3817	80002340	00f85433	srl	x8,x16,x15	 x16:0x00000001 x15:0x00003435  x8=0x00000000
       38195000	      3818	80002344	004dd8b3	srl	x17,x27,x4	 x27:0x00000000  x4:0x80009f8c x17=0x00000000
       38205000	      3819	80002348	41e1d333	sra	x6,x3,x30	  x3:0x00000000 x30:0x80009f44  x6=0x00000000
       38215000	      3820	8000234c	01d0ca63	blt	x1,x29,80002360	  x1:0xd9f58000 x29:0xfffffdf7
       38225000	      3821	00000000	00000013	addi	x0,x0,0	  x0:0x00000000
       38235000	      3822	8000235c	00000013	addi	x0,x0,0	  x0:0x00000000
       38245000	      3823	80002360	005c6663	bltu	x24,x5,8000236c	 x24:0x0000a0a1  x5:0x00000000
       38255000	      3824	80002364	05974063	blt	x14,x25,800023a4	 x14:0xd9f5b4f8 x25:0x6cfadb7c
       38265000	      3825	00000000	00000013	addi	x0,x0,0	  x0:0x00000000
       38275000	      3826	800023a0	00000013	addi	x0,x0,0	  x0:0x00000000
       38285000	      3827	800023a4	f024a993	slti	x19,x9,-254	  x9:0x00000000 x19=0x00000000
       38295000	      3828	800023a8	8c0cfa93	andi	x21,x25,-1856	 x25:0x6cfadb7c x21=0x6cfad840
       38305000	      3829	800023ac	0134de33	srl	x28,x9,x19	  x9:0x00000000 x19:0x00000000 x28=0x00000000
       38315000	      3830	800023b0	41ca5433	sra	x8,x20,x28	 x20:0x80009fc4 x28:0x00000000  x8=0x80009fc4
       38325000	      3831	800023b4	00a49c63	bne	x9,x10,800023cc	  x9:0x00000000 x10:0x00000000
       38335000	      3832	800023b8	40e406b3	sub	x13,x8,x14	  x8:0x80009fc4 x14:0xd9f5b4f8 x13=0xa60aeacc
       38345000	      3833	800023bc	016b0c63	beq	x22,x22,800023d4	 x22:0xfffffdc2 x22:0xfffffdc2
       38355000	      3834	00000000	00000013	addi	x0,x0,0	  x0:0x00000000
       38365000	      3835	800023d0	00000013	addi	x0,x0,0	  x0:0x00000000
       38375000	      3836	800023d4	00604463	blt	x0,x6,800023dc	  x0:0x00000000  x6:0x00000000
       38385000	      3837	800023d8	c51b8713	addi	x14,x23,-943	 x23:0x7c8bc2f3 x14=0x7c8bbf44
       38395000	      3838	800023dc	000616b3	sll	x13,x12,x0	 x12:0x0b13a330  x0:0x00000000 x13=0x0b13a330
       38405000	      3839	800023e0	03fffa63	bgeu	x31,x31,80002414	 x31:0x0000057e x31:0x0000057e
       38415000	      3840	00000000	00000013	addi	x0,x0,0	  x0:0x00000000
       38425000	      3841	80002410	00000013	addi	x0,x0,0	  x0:0x00000000
       38435000	      3842	80002414	00fcb933	sltu	x18,x25,x15	 x25:0x6cfadb7c x15:0x00003435 x18=0x00000000
       38445000	      3843	80002418	96960413	addi	x8,x12,-1687	 x12:0x0b13a330  x8=0x0b139c99
       38455000	      3844	8000241c	01f07663	bgeu	x0,x31,80002428	  x0:0x00000000 x31:0x0000057e
       38465000	      3845	80002420	0028f463	bgeu	x17,x2,80002428	 x17:0x00000000  x2:0xfd9f5b4f
       38475000	      3846	80002424	6f988713	addi	x14,x17,1785	 x17:0x00000000 x14=0x000006f9
       38485000	      3847	80002428	00000013	addi	x0,x0,0	  x0:0x00000000
       38495000	      3848	8000242c	030acc63	blt	x21,x16,80002464	 x21:0x6cfad840 x16:0x00000001
       38505000	      3849	80002430	00d141b3	xor	x3,x2,x13	  x2:0xfd9f5b4f x13:0x0b13a330  x3=0xf68cf87f
       38515000	      3850	80002434	00dd9e63	bne	x27,x13,80002450	 x27:0x00000000 x13:0x0b13a330
       38525000	      3851	00000000	00000013	addi	x0,x0,0	  x0:0x00000000
       38535000	      3852	8000244c	00000013	addi	x0,x0,0	  x0:0x00000000
       38545000	      3853	80002450	00bf5d13	srli	x26,x30,0xb	 x30:0x80009f44 x26=0x00100013
       38555000	      3854	80002454	0197fcb3	and	x25,x15,x25	 x15:0x00003435 x25:0x6cfadb7c x25=0x00001034
       38565000	      3855	80002458	10dcf893	andi	x17,x25,269	 x25:0x00001034 x17=0x00000004
       38575000	      3856	8000245c	41dc53b3	sra	x7,x24,x29	 x24:0x0000a0a1 x29:0xfffffdf7  x7=0x00000000
       38585000	      3857	80002460	01abf633	and	x12,x23,x26	 x23:0x7c8bc2f3 x26:0x00100013 x12=0x00000013
       38595000	      3858	80002464	00864933	xor	x18,x12,x8	 x12:0x00000013  x8:0x0b139c99 x18=0x0b139c8a
       38605000	      3859	80002468	0421e263	bltu	x3,x2,800024ac	  x3:0xf68cf87f  x2:0xfd9f5b4f
       38615000	      3860	00000000	00000013	addi	x0,x0,0	  x0:0x00000000
       38625000	      3861	800024a8	00000013	addi	x0,x0,0	  x0:0x00000000
       38635000	      3862	800024ac	03cf4a63	blt	x30,x28,800024e0	 x30:0x80009f44 x28:0x00000000
       38645000	      3863	00000000	00000013	addi	x0,x0,0	  x0:0x00000000
       38655000	      3864	800024dc	00000013	addi	x0,x0,0	  x0:0x00000000
       38665000	      3865	800024e0	03fbd063	bge	x23,x31,80002500	 x23:0x7c8bc2f3 x31:0x0000057e
       38675000	      3866	00000000	00000013	addi	x0,x0,0	  x0:0x00000000
       38685000	      3867	800024fc	00000013	addi	x0,x0,0	  x0:0x00000000
       38695000	      3868	80002500	00000013	addi	x0,x0,0	  x0:0x00000000
       38705000	      3869	80002504	e715e193	ori	x3,x11,-399	 x11:0xffffff89  x3=0xfffffff9
       38715000	      3870	80002508	004f2903	lw	x18,4(x30)	 x30:0x80009f44 x18=0x80003a0c PA:0x80009f48
       38725000	      3871	8000250c	f9cc6f93	ori	x31,x24,-100	 x24:0x0000a0a1 x31=0xffffffbd
       38735000	      3872	80002510	00a80033	add	x0,x16,x10	 x16:0x00000001 x10:0x00000000
       38745000	      3873	80002514	008f0f13	addi	x30,x30,8	 x30:0x80009f44 x30=0x80009f4c
       38755000	      3874	80002518	51577713	andi	x14,x14,1301	 x14:0x000006f9 x14=0x00000411
       38765000	      3875	8000251c	0021d293	srli	x5,x3,0x2	  x3:0xfffffff9  x5=0x3ffffffe
       38775000	      3876	80002520	8b6fbe13	sltiu	x28,x31,-1866	 x31:0xffffffbd x28=0x00000000
       38785000	      3877	80002524	40cd04b3	sub	x9,x26,x12	 x26:0x00100013 x12:0x00000013  x9=0x00100000
       38795000	      3878	80002528	00939fb3	sll	x31,x7,x9	  x7:0x00000000  x9:0x00100000 x31=0x00000000
       38805000	      3879	8000252c	00190513	addi	x10,x18,1	 x18:0x80003a0c x10=0x80003a0d
       38815000	      3880	80002530	00050567	jalr	x10,x10,0	 x10:0x80003a0d x10=0x80002530
       38825000	      3881	00000000	00000013	addi	x0,x0,0	  x0:0x00000000
       38835000	      3882	80003a0c	00000013	addi	x0,x0,0	  x0:0x00000000
       38845000	      3883	80003a10	931ab1b7	lui	x3,0x931ab	  x3=0x931ab000
       38855000	      3884	80003a14	018fda63	bge	x31,x24,80003a28	 x31:0x00000000 x24:0x0000a0a1
       38865000	      3885	80003a18	c554b013	sltiu	x0,x9,-939	  x9:0x00100000
       38875000	      3886	80003a1c	03004263	blt	x0,x16,80003a40	  x0:0x00000000 x16:0x00000001
       38885000	      3887	00000000	00000013	addi	x0,x0,0	  x0:0x00000000
       38895000	      3888	80003a3c	00000013	addi	x0,x0,0	  x0:0x00000000
       38905000	      3889	80003a40	787b4413	xori	x8,x22,1927	 x22:0xfffffdc2  x8=0xfffffa45
       38915000	      3890	80003a44	00edd833	srl	x16,x27,x14	 x27:0x00000000 x14:0x00000411 x16=0x00000000
       38925000	      3891	80003a48	00b3d333	srl	x6,x7,x11	  x7:0x00000000 x11:0xffffff89  x6=0x00000000
       38935000	      3892	80003a4c	05baf617	auipc	x12,0x5baf	 x12=0x85bb2a48
       38945000	      3893	80003a50	7039c817	auipc	x16,0x7039c	 x16=0xf039fa4c
       38955000	      3894	80003a54	01dadb33	srl	x22,x21,x29	 x21:0x6cfad840 x29:0xfffffdf7 x22=0x000000d9
       38965000	      3895	80003a58	00a6f663	bgeu	x13,x10,80003a64	 x13:0x0b13a330 x10:0x80002530
       38975000	      3896	80003a5c	002fd193	srli	x3,x31,0x2	 x31:0x00000000  x3=0x00000000
       38985000	      3897	80003a60	10237593	andi	x11,x6,258	  x6:0x00000000 x11=0x00000000
       38995000	      3898	80003a64	01925433	srl	x8,x4,x25	  x4:0x80009f8c x25:0x00001034  x8=0x00000800
       39005000	      3899	80003a68	93708993	addi	x19,x1,-1737	  x1:0xd9f58000 x19=0xd9f57937
       39015000	      3900	80003a6c	eb9d45b7	lui	x11,0xeb9d4	 x11=0xeb9d4000
       39025000	      3901	80003a70	74c26293	ori	x5,x4,1868	  x4:0x80009f8c  x5=0x80009fcc
       39035000	      3902	80003a74	001dde13	srli	x28,x27,0x1	 x27:0x00000000 x28=0x00000000
       39045000	      3903	80003a78	01fec833	xor	x16,x29,x31	 x29:0xfffffdf7 x31:0x00000000 x16=0xfffffdf7
       39055000	      3904	80003a7c	016d04b3	add	x9,x26,x22	 x26:0x00100013 x22:0x000000d9  x9=0x001000ec
       39065000	      3905	80003a80	00d3d093	srli	x1,x7,0xd	  x7:0x00000000  x1=0x00000000
       39075000	      3906	80003a84	052be463	bltu	x23,x18,80003acc	 x23:0x7c8bc2f3 x18:0x80003a0c
       39085000	      3907	00000000	00000013	addi	x0,x0,0	  x0:0x00000000
       39095000	      3908	80003ac8	00000013	addi	x0,x0,0	  x0:0x00000000
       39105000	      3909	80003acc	00d6e663	bltu	x13,x13,80003ad8	 x13:0x0b13a330 x13:0x0b13a330
       39115000	      3910	80003ad0	00395193	srli	x3,x18,0x3	 x18:0x80003a0c  x3=0x10000741
       39125000	      3911	80003ad4	41a1dd93	srai	x27,x3,0x1a	  x3:0x10000741 x27=0x00000004
       39135000	      3912	80003ad8	c69462b7	lui	x5,0xc6946	  x5=0xc6946000
       39145000	      3913	80003adc	01f68a63	beq	x13,x31,80003af0	 x13:0x0b13a330 x31:0x00000000
       39155000	      3914	80003ae0	00000013	addi	x0,x0,0	  x0:0x00000000
       39165000	      3915	80003ae4	01b9c9b3	xor	x19,x19,x27	 x19:0xd9f57937 x27:0x00000004 x19=0xd9f57933
       39175000	      3916	80003ae8	011d9193	slli	x3,x27,0x11	 x27:0x00000004  x3=0x00080000
       39185000	      3917	80003aec	008d5db3	srl	x27,x26,x8	 x26:0x00100013  x8:0x00000800 x27=0x00100013
       39195000	      3918	80003af0	4154dc13	srai	x24,x9,0x15	  x9:0x001000ec x24=0x00000000
       39205000	      3919	80003af4	6c132d13	slti	x26,x6,1729	  x6:0x00000000 x26=0x00000001
       39215000	      3920	80003af8	001a54b3	srl	x9,x20,x1	 x20:0x80009fc4  x1:0x00000000  x9=0x80009fc4
       39225000	      3921	80003afc	4880f113	andi	x2,x1,1160	  x1:0x00000000  x2=0x00000000
       39235000	      3922	80003b00	00baf5b3	and	x11,x21,x11	 x21:0x6cfad840 x11:0xeb9d4000 x11=0x68984000
       39245000	      3923	80003b04	9bafb293	sltiu	x5,x31,-1606	 x31:0x00000000  x5=0x00000001
       39255000	      3924	80003b08	4becf397	auipc	x7,0x4becf	  x7=0xcbed2b04
       39265000	      3925	80003b0c	012df533	and	x10,x27,x18	 x27:0x00100013 x18:0x80003a0c x10=0x00000000
       39275000	      3926	80003b10	013636b3	sltu	x13,x12,x19	 x12:0x85bb2a48 x19:0xd9f57933 x13=0x00000001
       39285000	      3927	80003b14	01eb5993	srli	x19,x22,0x1e	 x22:0x000000d9 x19=0x00000000
       39295000	      3928	80003b18	01f6ce33	xor	x28,x13,x31	 x13:0x00000001 x31:0x00000000 x28=0x00000001
       39305000	      3929	80003b1c	392f9517	auipc	x10,0x392f9	 x10=0xb92fcb18
       39315000	      3930	80003b20	13bcc093	xori	x1,x25,315	 x25:0x00001034  x1=0x0000110f
       39325000	      3931	80003b24	023f8c63	beq	x31,x3,80003b5c	 x31:0x00000000  x3:0x00080000
       39335000	      3932	80003b28	01fe4b33	xor	x22,x28,x31	 x28:0x00000001 x31:0x00000000 x22=0x00000001
       39345000	      3933	80003b2c	001dfcb3	and	x25,x27,x1	 x27:0x00100013  x1:0x0000110f x25=0x00000003
       39355000	      3934	80003b30	0009fe33	and	x28,x19,x0	 x19:0x00000000  x0:0x00000000 x28=0x00000000
       39365000	      3935	80003b34	00f14d33	xor	x26,x2,x15	  x2:0x00000000 x15:0x00003435 x26=0x00003435
       39375000	      3936	80003b38	015d84b3	add	x9,x27,x21	 x27:0x00100013 x21:0x6cfad840  x9=0x6d0ad853
       39385000	      3937	80003b3c	0291e863	bltu	x3,x9,80003b6c	  x3:0x00080000  x9:0x6d0ad853
       39395000	      3938	00000000	00000013	addi	x0,x0,0	  x0:0x00000000
       39405000	      3939	80003b68	00000013	addi	x0,x0,0	  x0:0x00000000
       39415000	      3940	80003b6c	78396d13	ori	x26,x18,1923	 x18:0x80003a0c x26=0x80003f8f
       39425000	      3941	80003b70	400607b3	sub	x15,x12,x0	 x12:0x85bb2a48  x0:0x00000000 x15=0x85bb2a48
       39435000	      3942	80003b74	0107cdb3	xor	x27,x15,x16	 x15:0x85bb2a48 x16:0xfffffdf7 x27=0x7a44d7bf
       39445000	      3943	80003b78	01b30a63	beq	x6,x27,80003b8c	  x6:0x00000000 x27:0x7a44d7bf
       39455000	      3944	80003b7c	018971b3	and	x3,x18,x24	 x18:0x80003a0c x24:0x00000000  x3=0x00000000
       39465000	      3945	80003b80	01a39633	sll	x12,x7,x26	  x7:0xcbed2b04 x26:0x80003f8f x12=0x95820000
       39475000	      3946	80003b84	fc692993	slti	x19,x18,-58	 x18:0x80003a0c x19=0x00000001
       39485000	      3947	80003b88	f8a38d97	auipc	x27,0xf8a38	 x27=0x78a3bb84
       39495000	      3948	80003b8c	00a02cb3	slt	x25,x0,x10	  x0:0x00000000 x10:0xb92fcb18 x25=0x00000000
       39505000	      3949	80003b90	b8bc9b17	auipc	x22,0xb8bc9	 x22=0x38bccb8c
       39515000	      3950	80003b94	00647b13	andi	x22,x8,6	  x8:0x00000800 x22=0x00000000
       39525000	      3951	80003b98	00000013	addi	x0,x0,0	  x0:0x00000000
       39535000	      3952	80003b9c	0116c6b3	xor	x13,x13,x17	 x13:0x00000001 x17:0x00000004 x13=0x00000005
       39545000	      3953	80003ba0	407d56b3	sra	x13,x26,x7	 x26:0x80003f8f  x7:0xcbed2b04 x13=0xf80003f8
       39555000	      3954	80003ba4	043ae063	bltu	x21,x3,80003be4	 x21:0x6cfad840  x3:0x00000000
       39565000	      3955	80003ba8	00803db3	sltu	x27,x0,x8	  x0:0x00000000  x8:0x00000800 x27=0x00000001
       39575000	      3956	80003bac	051d5463	bge	x26,x17,80003bf4	 x26:0x80003f8f x17:0x00000004
       39585000	      3957	80003bb0	036b1c63	bne	x22,x22,80003be8	 x22:0x00000000 x22:0x00000000
       39595000	      3958	80003bb4	001f5a93	srli	x21,x30,0x1	 x30:0x80009f4c x21=0x40004fa6
       39605000	      3959	80003bb8	30170393	addi	x7,x14,769	 x14:0x00000411  x7=0x00000712
       39615000	      3960	80003bbc	15fa6193	ori	x3,x20,351	 x20:0x80009fc4  x3=0x80009fdf
       39625000	      3961	80003bc0	c5ed7a93	andi	x21,x26,-930	 x26:0x80003f8f x21=0x80003c0e
       39635000	      3962	80003bc4	000ad933	srl	x18,x21,x0	 x21:0x80003c0e  x0:0x00000000 x18=0x80003c0e
       39645000	      3963	80003bc8	01c44463	blt	x8,x28,80003bd0	  x8:0x00000800 x28:0x00000000
       39655000	      3964	80003bcc	599e4213	xori	x4,x28,1433	 x28:0x00000000  x4=0x00000599
       39665000	      3965	80003bd0	01595633	srl	x12,x18,x21	 x18:0x80003c0e x21:0x80003c0e x12=0x00020000
       39675000	      3966	80003bd4	00d6d463	bge	x13,x13,80003bdc	 x13:0xf80003f8 x13:0xf80003f8
       39685000	      3967	00000000	00000013	addi	x0,x0,0	  x0:0x00000000
       39695000	      3968	80003bd8	00000013	addi	x0,x0,0	  x0:0x00000000
       39705000	      3969	80003bdc	7e312b13	slti	x22,x2,2019	  x2:0x00000000 x22=0x00000001
       39715000	      3970	80003be0	c0f90317	auipc	x6,0xc0f90	  x6=0x40f93bdc
       39725000	      3971	80003be4	d283c313	xori	x6,x7,-728	  x7:0x00000712  x6=0xfffffa3a
       39735000	      3972	80003be8	0102d813	srli	x16,x5,0x10	  x5:0x00000001 x16=0x00000000
       39745000	      3973	80003bec	c269c393	xori	x7,x19,-986	 x19:0x00000001  x7=0xfffffc27
       39755000	      3974	80003bf0	015adf93	srli	x31,x21,0x15	 x21:0x80003c0e x31=0x00000400
       39765000	      3975	80003bf4	0175e333	or	x6,x11,x23	 x11:0x68984000 x23:0x7c8bc2f3  x6=0x7c9bc2f3
       39775000	      3976	80003bf8	00106c63	bltu	x0,x1,80003c10	  x0:0x00000000  x1:0x0000110f
       39785000	      3977	00000000	00000013	addi	x0,x0,0	  x0:0x00000000
       39795000	      3978	80003c0c	00000013	addi	x0,x0,0	  x0:0x00000000
       39805000	      3979	80003c10	05676263	bltu	x14,x22,80003c54	 x14:0x00000411 x22:0x00000001
       39815000	      3980	80003c14	56290213	addi	x4,x18,1378	 x18:0x80003c0e  x4=0x80004170
       39825000	      3981	80003c18	07126e37	lui	x28,0x7126	 x28=0x07126000
       39835000	      3982	80003c1c	01ba2eb3	slt	x29,x20,x27	 x20:0x80009fc4 x27:0x00000001 x29=0x00000001
       39845000	      3983	80003c20	f985e393	ori	x7,x11,-104	 x11:0x68984000  x7=0xffffff98
       39855000	      3984	80003c24	010447b3	xor	x15,x8,x16	  x8:0x00000800 x16:0x00000000 x15=0x00000800
       39865000	      3985	80003c28	00655813	srli	x16,x10,0x6	 x10:0xb92fcb18 x16=0x02e4bf2c
       39875000	      3986	80003c2c	0fe98213	addi	x4,x19,254	 x19:0x00000001  x4=0x000000ff
       39885000	      3987	80003c30	00000013	addi	x0,x0,0	  x0:0x00000000
       39895000	      3988	80003c34	03446c63	bltu	x8,x20,80003c6c	  x8:0x00000800 x20:0x80009fc4
       39905000	      3989	00000000	00000013	addi	x0,x0,0	  x0:0x00000000
       39915000	      3990	80003c68	00000013	addi	x0,x0,0	  x0:0x00000000
       39925000	      3991	80003c6c	415e0233	sub	x4,x28,x21	 x28:0x07126000 x21:0x80003c0e  x4=0x871223f2
       39935000	      3992	80003c70	005e1db3	sll	x27,x28,x5	 x28:0x07126000  x5:0x00000001 x27=0x0e24c000
       39945000	      3993	80003c74	00d6d413	srli	x8,x13,0xd	 x13:0xf80003f8  x8=0x0007c000
       39955000	      3994	80003c78	40315013	srai	x0,x2,0x3	  x2:0x00000000
       39965000	      3995	80003c7c	00dfc633	xor	x12,x31,x13	 x31:0x00000400 x13:0xf80003f8 x12=0xf80007f8
       39975000	      3996	80003c80	fc0c0413	addi	x8,x24,-64	 x24:0x00000000  x8=0xffffffc0
       39985000	      3997	80003c84	d9562313	slti	x6,x12,-619	 x12:0xf80007f8  x6=0x00000001
       39995000	      3998	80003c88	40b85413	srai	x8,x16,0xb	 x16:0x02e4bf2c  x8=0x00005c97
       40005000	      3999	80003c8c	00d000b3	add	x1,x0,x13	  x0:0x00000000 x13:0xf80003f8  x1=0xf80003f8
       40015000	      4000	80003c90	000ffeb3	and	x29,x31,x0	 x31:0x00000400  x0:0x00000000 x29=0x00000000
       40025000	      4001	80003c94	015a5c33	srl	x24,x20,x21	 x20:0x80009fc4 x21:0x80003c0e x24=0x00020002
       40035000	      4002	80003c98	75356093	ori	x1,x10,1875	 x10:0xb92fcb18  x1=0xb92fcf5b
       40045000	      4003	80003c9c	413405b3	sub	x11,x8,x19	  x8:0x00005c97 x19:0x00000001 x11=0x00005c96
       40055000	      4004	80003ca0	03314063	blt	x2,x19,80003cc0	  x2:0x00000000 x19:0x00000001
       40065000	      4005	00000000	00000013	addi	x0,x0,0	  x0:0x00000000
       40075000	      4006	80003cbc	00000013	addi	x0,x0,0	  x0:0x00000000
       40085000	      4007	80003cc0	00000013	addi	x0,x0,0	  x0:0x00000000
       40095000	      4008	80003cc4	03951463	bne	x10,x25,80003cec	 x10:0xb92fcb18 x25:0x00000000
       40105000	      4009	00000000	00000013	addi	x0,x0,0	  x0:0x00000000
       40115000	      4010	80003ce8	00000013	addi	x0,x0,0	  x0:0x00000000
       40125000	      4011	80003cec	62d02493	slti	x9,x0,1581	  x0:0x00000000  x9=0x00000001
       40135000	      4012	80003cf0	01529f93	slli	x31,x5,0x15	  x5:0x00000001 x31=0x00200000
       40145000	      4013	80003cf4	5706e513	ori	x10,x13,1392	 x13:0xf80003f8 x10=0xf80007f8
       40155000	      4014	80003cf8	00fe44b3	xor	x9,x28,x15	 x28:0x07126000 x15:0x00000800  x9=0x07126800
       40165000	      4015	80003cfc	01f50db3	add	x27,x10,x31	 x10:0xf80007f8 x31:0x00200000 x27=0xf82007f8
       40175000	      4016	80003d00	00000013	addi	x0,x0,0	  x0:0x00000000
       40185000	      4017	80003d04	00f9f3b3	and	x7,x19,x15	 x19:0x00000001 x15:0x00000800  x7=0x00000000
       40195000	      4018	80003d08	0123d233	srl	x4,x7,x18	  x7:0x00000000 x18:0x80003c0e  x4=0x00000000
       40205000	      4019	80003d0c	0152f833	and	x16,x5,x21	  x5:0x00000001 x21:0x80003c0e x16=0x00000000
       40215000	      4020	80003d10	010e03b3	add	x7,x28,x16	 x28:0x07126000 x16:0x00000000  x7=0x07126000
       40225000	      4021	80003d14	0b9fb313	sltiu	x6,x31,185	 x31:0x00200000  x6=0x00000000
       40235000	      4022	80003d18	a65ddc37	lui	x24,0xa65dd	 x24=0xa65dd000
       40245000	      4023	80003d1c	40c8d933	sra	x18,x17,x12	 x17:0x00000004 x12:0xf80007f8 x18=0x00000000
       40255000	      4024	80003d20	0eb7f513	andi	x10,x15,235	 x15:0x00000800 x10=0x00000000
       40265000	      4025	80003d24	02cf8663	beq	x31,x12,80003d50	 x31:0x00200000 x12:0xf80007f8
       40275000	      4026	80003d28	110def93	ori	x31,x27,272	 x27:0xf82007f8 x31=0xf82007f8
       40285000	      4027	80003d2c	08f7e093	ori	x1,x15,143	 x15:0x00000800  x1=0x0000088f
       40295000	      4028	80003d30	25958313	addi	x6,x11,601	 x11:0x00005c96  x6=0x00005eef
       40305000	      4029	80003d34	00375463	bge	x14,x3,80003d3c	 x14:0x00000411  x3:0x80009fdf
       40315000	      4030	00000000	00000013	addi	x0,x0,0	  x0:0x00000000
       40325000	      4031	80003d38	00000013	addi	x0,x0,0	  x0:0x00000000
       40335000	      4032	80003d3c	5cd00c13	addi	x24,x0,1485	  x0:0x00000000 x24=0x000005cd
       40345000	      4033	80003d40	00db0233	add	x4,x22,x13	 x22:0x00000001 x13:0xf80003f8  x4=0xf80003f9
       40355000	      4034	80003d44	1d5a3993	sltiu	x19,x20,469	 x20:0x80009fc4 x19=0x00000000
       40365000	      4035	80003d48	00185b33	srl	x22,x16,x1	 x16:0x00000000  x1:0x0000088f x22=0x00000000
       40375000	      4036	80003d4c	4b474f93	xori	x31,x14,1204	 x14:0x00000411 x31=0x000000a5
       40385000	      4037	80003d50	043d6cb7	lui	x25,0x43d6	 x25=0x043d6000
       40395000	      4038	80003d54	40ff0833	sub	x16,x30,x15	 x30:0x80009f4c x15:0x00000800 x16=0x8000974c
       40405000	      4039	80003d58	02e9f463	bgeu	x19,x14,80003d80	 x19:0x00000000 x14:0x00000411
       40415000	      4040	80003d5c	00000013	addi	x0,x0,0	  x0:0x00000000
       40425000	      4041	80003d60	00821e63	bne	x4,x8,80003d7c	  x4:0xf80003f9  x8:0x00005c97
       40435000	      4042	00000000	00000013	addi	x0,x0,0	  x0:0x00000000
       40445000	      4043	80003d78	00000013	addi	x0,x0,0	  x0:0x00000000
       40455000	      4044	80003d7c	00931233	sll	x4,x6,x9	  x6:0x00005eef  x9:0x07126800  x4=0x00005eef
       40465000	      4045	80003d80	e6320f93	addi	x31,x4,-413	  x4:0x00005eef x31=0x00005d52
       40475000	      4046	80003d84	fcd7c013	xori	x0,x15,-51	 x15:0x00000800
       40485000	      4047	80003d88	0180bb33	sltu	x22,x1,x24	  x1:0x0000088f x24:0x000005cd x22=0x00000000
       40495000	      4048	80003d8c	4006d033	sra	x0,x13,x0	 x13:0xf80003f8  x0:0x00000000
       40505000	      4049	80003d90	201c4e13	xori	x28,x24,513	 x24:0x000005cd x28=0x000007cc
       40515000	      4050	80003d94	037f9c63	bne	x31,x23,80003dcc	 x31:0x00005d52 x23:0x7c8bc2f3
       40525000	      4051	00000000	00000013	addi	x0,x0,0	  x0:0x00000000
       40535000	      4052	80003dc8	00000013	addi	x0,x0,0	  x0:0x00000000
       40545000	      4053	80003dcc	01e33eb3	sltu	x29,x6,x30	  x6:0x00005eef x30:0x80009f4c x29=0x00000001
       40555000	      4054	80003dd0	0037c933	xor	x18,x15,x3	 x15:0x00000800  x3:0x80009fdf x18=0x800097df
       40565000	      4055	80003dd4	026d4663	blt	x26,x6,80003e00	 x26:0x80003f8f  x6:0x00005eef
       40575000	      4056	00000000	00000013	addi	x0,x0,0	  x0:0x00000000
       40585000	      4057	80003dfc	00000013	addi	x0,x0,0	  x0:0x00000000
       40595000	      4058	80003e00	1ed7c513	xori	x10,x15,493	 x15:0x00000800 x10=0x000009ed
       40605000	      4059	80003e04	00845593	srli	x11,x8,0x8	  x8:0x00005c97 x11=0x0000005c
       40615000	      4060	80003e08	00999b13	slli	x22,x19,0x9	 x19:0x00000000 x22=0x00000000
       40625000	      4061	80003e0c	004f2903	lw	x18,4(x30)	 x30:0x80009f4c x18=0x80000148 PA:0x80009f50
       40635000	      4062	80003e10	40dadc93	srai	x25,x21,0xd	 x21:0x80003c0e x25=0xfffc0001
       40645000	      4063	80003e14	038f0f13	addi	x30,x30,56	 x30:0x80009f4c x30=0x80009f84
       40655000	      4064	80003e18	00479a93	slli	x21,x15,0x4	 x15:0x00000800 x21=0x00008000
       40665000	      4065	80003e1c	00090d13	addi	x26,x18,0	 x18:0x80000148 x26=0x80000148
       40675000	      4066	80003e20	000d0d67	jalr	x26,x26,0	 x26:0x80000148 x26=0x80003e20
       40685000	      4067	00000000	00000013	addi	x0,x0,0	  x0:0x00000000
       40695000	      4068	80000148	00000013	addi	x0,x0,0	  x0:0x00000000
       40705000	      4069	8000014c	00008817	auipc	x16,0x8	 x16=0x80008148
       40715000	      4070	80000150	39b80813	addi	x16,x16,923	 x16:0x80008148 x16=0x800084e3
       40725000	      4071	80000154	3d963893	sltiu	x17,x12,985	 x12:0xf80007f8 x17=0x00000000
       40735000	      4072	80000158	01f0fb33	and	x22,x1,x31	  x1:0x0000088f x31:0x00005d52 x22=0x00000802
       40745000	      4073	8000015c	5e3a4413	xori	x8,x20,1507	 x20:0x80009fc4  x8=0x80009a27
       40755000	      4074	80000160	ffc80723	sb	x28,-18(x16)	 x16:0x800084e3 x28:0x000007cc PA:0x800084d1
       40765000	      4075	80000164	fdf81aa3	sh	x31,-43(x16)	 x16:0x800084e3 x31:0x00005d52 PA:0x800084b8
       40775000	      4076	80000168	10338737	lui	x14,0x10338	 x14=0x10338000
       40785000	      4077	8000016c	fc280903	lb	x18,-62(x16)	 x16:0x800084e3 x18=0x0000005e PA:0x800084a5
       40795000	      4078	80000170	415f5593	srai	x11,x30,0x15	 x30:0x80009f84 x11=0xfffffc00
       40805000	      4079	80000174	01a983b3	add	x7,x19,x26	 x19:0x00000000 x26:0x80003e20  x7=0x80003e20
       40815000	      4080	80000178	005e1c13	slli	x24,x28,0x5	 x28:0x000007cc x24=0x0000f980
       40825000	      4081	8000017c	fcc817a3	sh	x12,-49(x16)	 x16:0x800084e3 x12:0xf80007f8 PA:0x800084b2
       40835000	      4082	80000180	43fef513	andi	x10,x29,1087	 x29:0x00000001 x10=0x00000001
       40845000	      4083	80000184	014a4133	xor	x2,x20,x20	 x20:0x80009fc4 x20:0x80009fc4  x2=0x00000000
       40855000	      4084	80000188	fdb82ca3	sw	x27,-39(x16)	 x16:0x800084e3 x27:0xf82007f8 PA:0x800084bc
       40865000	      4085	8000018c	cf5f2113	slti	x2,x30,-779	 x30:0x80009f84  x2=0x00000001
       40875000	      4086	80000190	ff781483	lh	x9,-9(x16)	 x16:0x800084e3  x9=0xffff9091 PA:0x800084da
       40885000	      4087	80000194	01a3cc33	xor	x24,x7,x26	  x7:0x80003e20 x26:0x80003e20 x24=0x00000000
       40895000	      4088	80000198	408cd3b3	sra	x7,x25,x8	 x25:0xfffc0001  x8:0x80009a27  x7=0xfffff800
       40905000	      4089	8000019c	017bd893	srli	x17,x23,0x17	 x23:0x7c8bc2f3 x17=0x000000f9
       40915000	      4090	800001a0	40a50133	sub	x2,x10,x10	 x10:0x00000001 x10:0x00000001  x2=0x00000000
       40925000	      4091	800001a4	fc784783	lbu	x15,-57(x16)	 x16:0x800084e3 x15=0x00000061 PA:0x800084aa
       40935000	      4092	800001a8	00609593	slli	x11,x1,0x6	  x1:0x0000088f x11=0x000223c0
       40945000	      4093	800001ac	01180e23	sb	x17,28(x16)	 x16:0x800084e3 x17:0x000000f9 PA:0x800084ff
       40955000	      4094	800001b0	00980b23	sb	x9,22(x16)	 x16:0x800084e3  x9:0xffff9091 PA:0x800084f9
       40965000	      4095	800001b4	00671233	sll	x4,x14,x6	 x14:0x10338000  x6:0x00005eef  x4=0xc0000000
       40975000	      4096	800001b8	fc480503	lb	x10,-60(x16)	 x16:0x800084e3 x10=0x0000005c PA:0x800084a7
       40985000	      4097	800001bc	ef5b5e17	auipc	x28,0xef5b5	 x28=0x6f5b51b8
       40995000	      4098	800001c0	00000013	addi	x0,x0,0	  x0:0x00000000
       41005000	      4099	800001c4	ff384103	lbu	x2,-13(x16)	 x16:0x800084e3  x2=0x0000001b PA:0x800084d6
       41015000	      4100	800001c8	0102dd93	srli	x27,x5,0x10	  x5:0x00000001 x27=0x00000000
       41025000	      4101	800001cc	4078d793	srai	x15,x17,0x7	 x17:0x000000f9 x15=0x00000001
       41035000	      4102	800001d0	00d85283	lhu	x5,13(x16)	 x16:0x800084e3  x5=0x0000aaab PA:0x800084f0
       41045000	      4103	800001d4	00bb9533	sll	x10,x23,x11	 x23:0x7c8bc2f3 x11:0x000223c0 x10=0x7c8bc2f3
       41055000	      4104	800001d8	00059433	sll	x8,x11,x0	 x11:0x000223c0  x0:0x00000000  x8=0x000223c0
       41065000	      4105	800001dc	003b0cb3	add	x25,x22,x3	 x22:0x00000802  x3:0x80009fdf x25=0x8000a7e1
       41075000	      4106	800001e0	03a80b03	lb	x22,58(x16)	 x16:0x800084e3 x22=0xffffffd6 PA:0x8000851d
       41085000	      4107	800001e4	00180123	sb	x1,2(x16)	 x16:0x800084e3  x1:0x0000088f PA:0x800084e5
       41095000	      4108	800001e8	40825413	srai	x8,x4,0x8	  x4:0xc0000000  x8=0xffc00000
       41105000	      4109	800001ec	00684603	lbu	x12,6(x16)	 x16:0x800084e3 x12=0x000000a2 PA:0x800084e9
       41115000	      4110	800001f0	00bd7833	and	x16,x26,x11	 x26:0x80003e20 x11:0x000223c0 x16=0x00002200
       41125000	      4111	800001f4	00eb56b3	srl	x13,x22,x14	 x22:0xffffffd6 x14:0x10338000 x13=0xffffffd6
       41135000	      4112	800001f8	62e4bc37	lui	x24,0x62e4b	 x24=0x62e4b000
       41145000	      4113	800001fc	00406533	or	x10,x0,x4	  x0:0x00000000  x4:0xc0000000 x10=0xc0000000
       41155000	      4114	80000200	00d85f93	srli	x31,x16,0xd	 x16:0x00002200 x31=0x00000001
       41165000	      4115	80000204	012f5e93	srli	x29,x30,0x12	 x30:0x80009f84 x29=0x00002000
       41175000	      4116	80000208	0036d4b3	srl	x9,x13,x3	 x13:0xffffffd6  x3:0x80009fdf  x9=0x00000001
       41185000	      4117	8000020c	e8757e13	andi	x28,x10,-377	 x10:0xc0000000 x28=0xc0000000
       41195000	      4118	80000210	83047c13	andi	x24,x8,-2000	  x8:0xffc00000 x24=0xffc00000
       41205000	      4119	80000214	00ded263	bge	x29,x13,80000218	 x29:0x00002000 x13:0xffffffd6
       41215000	      4120	00000000	00000013	addi	x0,x0,0	  x0:0x00000000
       41225000	      4121	80000214	00000013	addi	x0,x0,0	  x0:0x00000000
       41235000	      4122	80000218	79d5e193	ori	x3,x11,1949	 x11:0x000223c0  x3=0x000227dd
       41245000	      4123	8000021c	026d1a63	bne	x26,x6,80000250	 x26:0x80003e20  x6:0x00005eef
       41255000	      4124	00000000	00000013	addi	x0,x0,0	  x0:0x00000000
       41265000	      4125	8000024c	00000013	addi	x0,x0,0	  x0:0x00000000
       41275000	      4126	80000250	f6784713	xori	x14,x16,-153	 x16:0x00002200 x14=0xffffdd67
       41285000	      4127	80000254	9c798197	auipc	x3,0x9c798	  x3=0x1c798250
       41295000	      4128	80000258	01ecd013	srli	x0,x25,0x1e	 x25:0x8000a7e1
       41305000	      4129	8000025c	016d1d93	slli	x27,x26,0x16	 x26:0x80003e20 x27=0x88000000
       41315000	      4130	80000260	401d0533	sub	x10,x26,x1	 x26:0x80003e20  x1:0x0000088f x10=0x80003591
       41325000	      4131	80000264	00923033	sltu	x0,x4,x9	  x4:0xc0000000  x9:0x00000001
       41335000	      4132	80000268	046d9463	bne	x27,x6,800002b0	 x27:0x88000000  x6:0x00005eef
       41345000	      4133	00000000	00000013	addi	x0,x0,0	  x0:0x00000000
       41355000	      4134	800002ac	00000013	addi	x0,x0,0	  x0:0x00000000
       41365000	      4135	800002b0	002cddb3	srl	x27,x25,x2	 x25:0x8000a7e1  x2:0x0000001b x27=0x00000010
       41375000	      4136	800002b4	01d28e33	add	x28,x5,x29	  x5:0x0000aaab x29:0x00002000 x28=0x0000caab
       41385000	      4137	800002b8	1dc42e93	slti	x29,x8,476	  x8:0xffc00000 x29=0x00000001
       41395000	      4138	800002bc	06661063	bne	x12,x6,8000031c	 x12:0x000000a2  x6:0x00005eef
       41405000	      4139	00000000	00000013	addi	x0,x0,0	  x0:0x00000000
       41415000	      4140	80000318	00000013	addi	x0,x0,0	  x0:0x00000000
       41425000	      4141	8000031c	015d9863	bne	x27,x21,8000032c	 x27:0x00000010 x21:0x00008000
       41435000	      4142	00000000	00000013	addi	x0,x0,0	  x0:0x00000000
       41445000	      4143	80000328	00000013	addi	x0,x0,0	  x0:0x00000000
       41455000	      4144	8000032c	00701013	slli	x0,x0,0x7	  x0:0x00000000
       41465000	      4145	80000330	0036d1b3	srl	x3,x13,x3	 x13:0xffffffd6  x3:0x1c798250  x3=0x0000ffff
       41475000	      4146	80000334	9ddaa613	slti	x12,x21,-1571	 x21:0x00008000 x12=0x00000000
       41485000	      4147	80000338	41495c13	srai	x24,x18,0x14	 x18:0x0000005e x24=0x00000000
       41495000	      4148	8000033c	00000013	addi	x0,x0,0	  x0:0x00000000
       41505000	      4149	80000340	07f04713	xori	x14,x0,127	  x0:0x00000000 x14=0x0000007f
       41515000	      4150	80000344	519ee297	auipc	x5,0x519ee	  x5=0xd19ee340
       41525000	      4151	80000348	00c71293	slli	x5,x14,0xc	 x14:0x0000007f  x5=0x0007f000
       41535000	      4152	8000034c	00c90263	beq	x18,x12,80000350	 x18:0x0000005e x12:0x00000000
       41545000	      4153	80000350	024a8663	beq	x21,x4,8000037c	 x21:0x00008000  x4:0xc0000000
       41555000	      4154	80000354	0223f263	bgeu	x7,x2,80000378	  x7:0xfffff800  x2:0x0000001b
       41565000	      4155	00000000	00000013	addi	x0,x0,0	  x0:0x00000000
       41575000	      4156	80000374	00000013	addi	x0,x0,0	  x0:0x00000000
       41585000	      4157	80000378	00050a63	beq	x10,x0,8000038c	 x10:0x80003591  x0:0x00000000
       41595000	      4158	8000037c	400e0533	sub	x10,x28,x0	 x28:0x0000caab  x0:0x00000000 x10=0x0000caab
       41605000	      4159	80000380	4196d293	srai	x5,x13,0x19	 x13:0xffffffd6  x5=0xffffffff
       41615000	      4160	80000384	01d41613	slli	x12,x8,0x1d	  x8:0xffc00000 x12=0x00000000
       41625000	      4161	80000388	000e2833	slt	x16,x28,x0	 x28:0x0000caab  x0:0x00000000 x16=0x00000000
       41635000	      4162	8000038c	016f5ab3	srl	x21,x30,x22	 x30:0x80009f84 x22:0xffffffd6 x21=0x00000200
       41645000	      4163	80000390	40d38fb3	sub	x31,x7,x13	  x7:0xfffff800 x13:0xffffffd6 x31=0xfffff82a
       41655000	      4164	80000394	4174f493	andi	x9,x9,1047	  x9:0x00000001  x9=0x00000001
       41665000	      4165	80000398	f8da6293	ori	x5,x20,-115	 x20:0x80009fc4  x5=0xffffffcd
       41675000	      4166	8000039c	415c5fb3	sra	x31,x24,x21	 x24:0x00000000 x21:0x00000200 x31=0x00000000
       41685000	      4167	800003a0	8ea4c913	xori	x18,x9,-1814	  x9:0x00000001 x18=0xfffff8eb
       41695000	      4168	800003a4	01b316b3	sll	x13,x6,x27	  x6:0x00005eef x27:0x00000010 x13=0x5eef0000
       41705000	      4169	800003a8	fa347913	andi	x18,x8,-93	  x8:0xffc00000 x18=0xffc00000
       41715000	      4170	800003ac	00911833	sll	x16,x2,x9	  x2:0x0000001b  x9:0x00000001 x16=0x00000036
       41725000	      4171	800003b0	014b9533	sll	x10,x23,x20	 x23:0x7c8bc2f3 x20:0x80009fc4 x10=0xc8bc2f30
       41735000	      4172	800003b4	afb52417	auipc	x8,0xafb52	  x8=0x2fb523b0
       41745000	      4173	800003b8	6432a513	slti	x10,x5,1603	  x5:0xffffffcd x10=0x00000001
       41755000	      4174	800003bc	40f35793	srai	x15,x6,0xf	  x6:0x00005eef x15=0x00000000
       41765000	      4175	800003c0	40efdb33	sra	x22,x31,x14	 x31:0x00000000 x14:0x0000007f x22=0x00000000
       41775000	      4176	800003c4	0037f433	and	x8,x15,x3	 x15:0x00000000  x3:0x0000ffff  x8=0x00000000
       41785000	      4177	800003c8	03661e63	bne	x12,x22,80000404	 x12:0x00000000 x22:0x00000000
       41795000	      4178	800003cc	41d10433	sub	x8,x2,x29	  x2:0x0000001b x29:0x00000001  x8=0x0000001a
       41805000	      4179	800003d0	414f5493	srai	x9,x30,0x14	 x30:0x80009f84  x9=0xfffff800
       41815000	      4180	800003d4	03beea63	bltu	x29,x27,80000408	 x29:0x00000001 x27:0x00000010
       41825000	      4181	00000000	00000013	addi	x0,x0,0	  x0:0x00000000
       41835000	      4182	80000404	00000013	addi	x0,x0,0	  x0:0x00000000
       41845000	      4183	80000408	79b42d13	slti	x26,x8,1947	  x8:0x0000001a x26=0x00000001
       41855000	      4184	8000040c	014ce233	or	x4,x25,x20	 x25:0x8000a7e1 x20:0x80009fc4  x4=0x8000bfe5
       41865000	      4185	80000410	009a15b3	sll	x11,x20,x9	 x20:0x80009fc4  x9:0xfffff800 x11=0x80009fc4
       41875000	      4186	80000414	20c77517	auipc	x10,0x20c77	 x10=0xa0c77410
       41885000	      4187	80000418	0006cc63	blt	x13,x0,80000430	 x13:0x5eef0000  x0:0x00000000
       41895000	      4188	8000041c	b3c40513	addi	x10,x8,-1220	  x8:0x0000001a x10=0xfffffb56
       41905000	      4189	80000420	85d37193	andi	x3,x6,-1955	  x6:0x00005eef  x3=0x0000584d
       41915000	      4190	80000424	01a7dd93	srli	x27,x15,0x1a	 x15:0x00000000 x27=0x00000000
       41925000	      4191	80000428	9abd0713	addi	x14,x26,-1621	 x26:0x00000001 x14=0xfffff9ac
       41935000	      4192	8000042c	00000013	addi	x0,x0,0	  x0:0x00000000
       41945000	      4193	80000430	40318b33	sub	x22,x3,x3	  x3:0x0000584d  x3:0x0000584d x22=0x00000000
       41955000	      4194	80000434	40070933	sub	x18,x14,x0	 x14:0xfffff9ac  x0:0x00000000 x18=0xfffff9ac
       41965000	      4195	80000438	cfcb9b17	auipc	x22,0xcfcb9	 x22=0x4fcb9434
       41975000	      4196	8000043c	025ee263	bltu	x29,x5,80000460	 x29:0x00000001  x5:0xffffffcd
       41985000	      4197	00000000	00000013	addi	x0,x0,0	  x0:0x00000000
       41995000	      4198	8000045c	00000013	addi	x0,x0,0	  x0:0x00000000
       42005000	      4199	80000460	182a7393	andi	x7,x20,386	 x20:0x80009fc4  x7=0x00000180
       42015000	      4200	80000464	6008fd13	andi	x26,x17,1536	 x17:0x000000f9 x26=0x00000000
       42025000	      4201	80000468	b50a1637	lui	x12,0xb50a1	 x12=0xb50a1000
       42035000	      4202	8000046c	43ea0d93	addi	x27,x20,1086	 x20:0x80009fc4 x27=0x8000a402
       42045000	      4203	80000470	9450ef97	auipc	x31,0x9450e	 x31=0x1450e46c
       42055000	      4204	80000474	d7826613	ori	x12,x4,-648	  x4:0x8000bfe5 x12=0xfffffffd
       42065000	      4205	80000478	00c4ea63	bltu	x9,x12,8000048c	  x9:0xfffff800 x12:0xfffffffd
       42075000	      4206	00000000	00000013	addi	x0,x0,0	  x0:0x00000000
       42085000	      4207	80000488	00000013	addi	x0,x0,0	  x0:0x00000000
       42095000	      4208	8000048c	01e30863	beq	x6,x30,8000049c	  x6:0x00005eef x30:0x80009f84
       42105000	      4209	80000490	03ffea63	bltu	x31,x31,800004c4	 x31:0x1450e46c x31:0x1450e46c
       42115000	      4210	80000494	02949c63	bne	x9,x9,800004cc	  x9:0xfffff800  x9:0xfffff800
       42125000	      4211	80000498	4047db13	srai	x22,x15,0x4	 x15:0x00000000 x22=0x00000000
       42135000	      4212	8000049c	01c20733	add	x14,x4,x28	  x4:0x8000bfe5 x28:0x0000caab x14=0x80018a90
       42145000	      4213	800004a0	012d1593	slli	x11,x26,0x12	 x26:0x00000000 x11=0x00000000
       42155000	      4214	800004a4	9ccc3e93	sltiu	x29,x24,-1588	 x24:0x00000000 x29=0x00000001
       42165000	      4215	800004a8	408d02b3	sub	x5,x26,x8	 x26:0x00000000  x8:0x0000001a  x5=0xffffffe6
       42175000	      4216	800004ac	9e01ad17	auipc	x26,0x9e01a	 x26=0x1e01a4a8
       42185000	      4217	800004b0	017560b3	or	x1,x10,x23	 x10:0xfffffb56 x23:0x7c8bc2f3  x1=0xfffffbf7
       42195000	      4218	800004b4	3099a713	slti	x14,x19,777	 x19:0x00000000 x14=0x00000001
       42205000	      4219	800004b8	01d37333	and	x6,x6,x29	  x6:0x00005eef x29:0x00000001  x6=0x00000001
       42215000	      4220	800004bc	6b4ffc13	andi	x24,x31,1716	 x31:0x1450e46c x24=0x00000424
       42225000	      4221	800004c0	01cece33	xor	x28,x29,x28	 x29:0x00000001 x28:0x0000caab x28=0x0000caaa
       42235000	      4222	800004c4	31d9b013	sltiu	x0,x19,797	 x19:0x00000000
       42245000	      4223	800004c8	07d48f93	addi	x31,x9,125	  x9:0xfffff800 x31=0xfffff87d
       42255000	      4224	800004cc	01911413	slli	x8,x2,0x19	  x2:0x0000001b  x8=0x36000000
       42265000	      4225	800004d0	00000b97	auipc	x23,0x0	 x23=0x800004cc
       42275000	      4226	800004d4	00cb8b93	addi	x23,x23,12	 x23:0x800004cc x23=0x800004d8
       42285000	      4227	800004d8	000b8067	jalr	x0,x23,0	 x23:0x800004d8
       42295000	      4228	00000000	00000013	addi	x0,x0,0	  x0:0x00000000
       42305000	      4229	800004d8	00000013	addi	x0,x0,0	  x0:0x00000000
       42315000	      4230	800004dc	00100193	addi	x3,x0,1	  x0:0x00000000  x3=0x00000001
       42325000	      4231	800004e0	00000073	ecall	
       42335000	      4232	800004e4	8a040d17	auipc	x26,0x8a040	 x26=0x0a0404e0
