		Time			Cycle	PC		Insn	Decoded instruction	Register and memory contents
          65000	         5	80000004	00000293	addi	x5,x0,0	  x0:0x00000000  x5=0x00000000
          75000	         6	80000008	00000313	addi	x6,x0,0	  x0:0x00000000  x6=0x00000000
          85000	         7	8000000c	00628263	beq	x5,x6,80000010	  x5:0x00000000  x6:0x00000000
          95000	         8	00000000	00000013	addi	x0,x0,0	  x0:0x00000000
         105000	         9	8000000c	00000013	addi	x0,x0,0	  x0:0x00000000
         115000	        10	80000010	00000097	auipc	x1,0x0	  x1=0x8000000c
         125000	        11	80000014	00c08093	addi	x1,x1,12	  x1:0x8000000c  x1=0x80000018
         135000	        12	80000018	00008067	jalr	x0,x1,0	  x1:0x80000018
         145000	        13	00000000	00000013	addi	x0,x0,0	  x0:0x00000000
         155000	        14	80000018	00000013	addi	x0,x0,0	  x0:0x00000000
         165000	        15	8000001c	400002b7	lui	x5,0x40000	  x5=0x40000000
         175000	        16	80000020	10028293	addi	x5,x5,256	  x5:0x40000000  x5=0x40000100
         185000	        17	80000024	00000013	addi	x0,x0,0	  x0:0x00000000
         195000	        18	80000028	0000a817	auipc	x16,0xa	 x16=0x8000a024
         205000	        19	8000002c	fa080813	addi	x16,x16,-96	 x16:0x8000a024 x16=0x80009fc4
         215000	        20	80000030	00007297	auipc	x5,0x7	  x5=0x8000702c
         225000	        21	80000034	48428293	addi	x5,x5,1156	  x5:0x8000702c  x5=0x800074b0
         235000	        22	80000038	0012e293	ori	x5,x5,1	  x5:0x800074b0  x5=0x800074b1
         245000	        23	8000003c	00000013	addi	x0,x0,0	  x0:0x00000000
         255000	        24	80000040	00000297	auipc	x5,0x0	  x5=0x8000003c
         265000	        25	80000044	02028293	addi	x5,x5,32	  x5:0x8000003c  x5=0x8000005c
         275000	        26	80000048	00000013	addi	x0,x0,0	  x0:0x00000000
         285000	        27	8000004c	00000013	addi	x0,x0,0	  x0:0x00000000
         295000	        28	80000050	000022b7	lui	x5,0x2	  x5=0x00002000
         305000	        29	80000054	80028293	addi	x5,x5,-2048	  x5:0x00002000  x5=0x00001800
         315000	        30	80000058	00000013	addi	x0,x0,0	  x0:0x00000000
         325000	        31	8000005c	00000013	addi	x0,x0,0	  x0:0x00000000
         335000	        32	80000060	dced5037	lui	x0,0xdced5	
         345000	        33	80000064	f8b00013	addi	x0,x0,-117	  x0:0x00000000
         355000	        34	80000068	800000b7	lui	x1,0x80000	  x1=0x80000000
         365000	        35	8000006c	fbb21137	lui	x2,0xfbb21	  x2=0xfbb21000
         375000	        36	80000070	55210113	addi	x2,x2,1362	  x2:0xfbb21000  x2=0xfbb21552
         385000	        37	80000074	fc9df1b7	lui	x3,0xfc9df	  x3=0xfc9df000
         395000	        38	80000078	81318193	addi	x3,x3,-2029	  x3:0xfc9df000  x3=0xfc9de813
         405000	        39	8000007c	80000237	lui	x4,0x80000	  x4=0x80000000
         415000	        40	80000080	374bd2b7	lui	x5,0x374bd	  x5=0x374bd000
         425000	        41	80000084	37828293	addi	x5,x5,888	  x5:0x374bd000  x5=0x374bd378
         435000	        42	80000088	fae48337	lui	x6,0xfae48	  x6=0xfae48000
         445000	        43	8000008c	30f30313	addi	x6,x6,783	  x6:0xfae48000  x6=0xfae4830f
         455000	        44	80000090	3e1de3b7	lui	x7,0x3e1de	  x7=0x3e1de000
         465000	        45	80000094	44138393	addi	x7,x7,1089	  x7:0x3e1de000  x7=0x3e1de441
         475000	        46	80000098	00000413	addi	x8,x0,0	  x0:0x00000000  x8=0x00000000
         485000	        47	8000009c	00600493	addi	x9,x0,6	  x0:0x00000000  x9=0x00000006
         495000	        48	800000a0	d7cf1537	lui	x10,0xd7cf1	 x10=0xd7cf1000
         505000	        49	800000a4	ba950513	addi	x10,x10,-1111	 x10:0xd7cf1000 x10=0xd7cf0ba9
         515000	        50	800000a8	800005b7	lui	x11,0x80000	 x11=0x80000000
         525000	        51	800000ac	00600613	addi	x12,x0,6	  x0:0x00000000 x12=0x00000006
         535000	        52	800000b0	f41a16b7	lui	x13,0xf41a1	 x13=0xf41a1000
         545000	        53	800000b4	afa68693	addi	x13,x13,-1286	 x13:0xf41a1000 x13=0xf41a0afa
         555000	        54	800000b8	f76c6737	lui	x14,0xf76c6	 x14=0xf76c6000
         565000	        55	800000bc	d5b70713	addi	x14,x14,-677	 x14:0xf76c6000 x14=0xf76c5d5b
         575000	        56	800000c0	c8cd37b7	lui	x15,0xc8cd3	 x15=0xc8cd3000
         585000	        57	800000c4	87578793	addi	x15,x15,-1931	 x15:0xc8cd3000 x15=0xc8cd2875
         595000	        58	800000c8	fd6c88b7	lui	x17,0xfd6c8	 x17=0xfd6c8000
         605000	        59	800000cc	5d888893	addi	x17,x17,1496	 x17:0xfd6c8000 x17=0xfd6c85d8
         615000	        60	800000d0	00000913	addi	x18,x0,0	  x0:0x00000000 x18=0x00000000
         625000	        61	800000d4	00a00993	addi	x19,x0,10	  x0:0x00000000 x19=0x0000000a
         635000	        62	800000d8	00000a13	addi	x20,x0,0	  x0:0x00000000 x20=0x00000000
         645000	        63	800000dc	00400a93	addi	x21,x0,4	  x0:0x00000000 x21=0x00000004
         655000	        64	800000e0	f5826b37	lui	x22,0xf5826	 x22=0xf5826000
         665000	        65	800000e4	fb6b0b13	addi	x22,x22,-74	 x22:0xf5826000 x22=0xf5825fb6
         675000	        66	800000e8	00100c13	addi	x24,x0,1	  x0:0x00000000 x24=0x00000001
         685000	        67	800000ec	00200c93	addi	x25,x0,2	  x0:0x00000000 x25=0x00000002
         695000	        68	800000f0	80000d37	lui	x26,0x80000	 x26=0x80000000
         705000	        69	800000f4	f5931db7	lui	x27,0xf5931	 x27=0xf5931000
         715000	        70	800000f8	0b7d8d93	addi	x27,x27,183	 x27:0xf5931000 x27=0xf59310b7
         725000	        71	800000fc	dd8c1e37	lui	x28,0xdd8c1	 x28=0xdd8c1000
         735000	        72	80000100	bdfe0e13	addi	x28,x28,-1057	 x28:0xdd8c1000 x28=0xdd8c0bdf
         745000	        73	80000104	00600e93	addi	x29,x0,6	  x0:0x00000000 x29=0x00000006
         755000	        74	80000108	00000f13	addi	x30,x0,0	  x0:0x00000000 x30=0x00000000
         765000	        75	8000010c	00000f93	addi	x31,x0,0	  x0:0x00000000 x31=0x00000000
         775000	        76	80000110	0000ab97	auipc	x23,0xa	 x23=0x8000a10c
         785000	        77	80000114	e78b8b93	addi	x23,x23,-392	 x23:0x8000a10c x23=0x80009f84
         795000	        78	80000118	6c4fc113	xori	x2,x31,1732	 x31:0x00000000  x2=0x000006c4
         805000	        79	8000011c	1291c663	blt	x3,x9,80000248	  x3:0xfc9de813  x9:0x00000006
         815000	        80	00000000	00000013	addi	x0,x0,0	  x0:0x00000000
         825000	        81	80000244	00000013	addi	x0,x0,0	  x0:0x00000000
         835000	        82	80000248	01841e33	sll	x28,x8,x24	  x8:0x00000000 x24:0x00000001 x28=0x00000000
         845000	        83	8000024c	00000013	addi	x0,x0,0	  x0:0x00000000
         855000	        84	80000250	00f94a63	blt	x18,x15,80000264	 x18:0x00000000 x15:0xc8cd2875
         865000	        85	80000254	4057d3b3	sra	x7,x15,x5	 x15:0xc8cd2875  x5:0x374bd378  x7=0xffffffc8
         875000	        86	80000258	003a5c63	bge	x20,x3,80000270	 x20:0x00000000  x3:0xfc9de813
         885000	        87	00000000	00000013	addi	x0,x0,0	  x0:0x00000000
         895000	        88	8000026c	00000013	addi	x0,x0,0	  x0:0x00000000
         905000	        89	80000270	8ff3ce93	xori	x29,x7,-1793	  x7:0xffffffc8 x29=0x00000737
         915000	        90	80000274	055f5063	bge	x30,x21,800002b4	 x30:0x00000000 x21:0x00000004
         925000	        91	80000278	00a1a7b3	slt	x15,x3,x10	  x3:0xfc9de813 x10:0xd7cf0ba9 x15=0x00000000
         935000	        92	8000027c	00000013	addi	x0,x0,0	  x0:0x00000000
         945000	        93	80000280	02f07863	bgeu	x0,x15,800002b0	  x0:0x00000000 x15:0x00000000
         955000	        94	00000000	00000013	addi	x0,x0,0	  x0:0x00000000
         965000	        95	800002ac	00000013	addi	x0,x0,0	  x0:0x00000000
         975000	        96	800002b0	418b8433	sub	x8,x23,x24	 x23:0x80009f84 x24:0x00000001  x8=0x80009f83
         985000	        97	800002b4	52c37c93	andi	x25,x6,1324	  x6:0xfae4830f x25=0x0000010c
         995000	        98	800002b8	b90495b7	lui	x11,0xb9049	 x11=0xb9049000
        1005000	        99	800002bc	41c755b3	sra	x11,x14,x28	 x14:0xf76c5d5b x28:0x00000000 x11=0xf76c5d5b
        1015000	       100	800002c0	01098eb3	add	x29,x19,x16	 x19:0x0000000a x16:0x80009fc4 x29=0x80009fce
        1025000	       101	800002c4	00625cb3	srl	x25,x4,x6	  x4:0x80000000  x6:0xfae4830f x25=0x00010000
        1035000	       102	800002c8	2839c513	xori	x10,x19,643	 x19:0x0000000a x10=0x00000289
        1045000	       103	800002cc	00460b33	add	x22,x12,x4	 x12:0x00000006  x4:0x80000000 x22=0x80000006
        1055000	       104	800002d0	003ed333	srl	x6,x29,x3	 x29:0x80009fce  x3:0xfc9de813  x6=0x00001000
        1065000	       105	800002d4	0108f2b3	and	x5,x17,x16	 x17:0xfd6c85d8 x16:0x80009fc4  x5=0x800085c0
        1075000	       106	800002d8	015178b3	and	x17,x2,x21	  x2:0x000006c4 x21:0x00000004 x17=0x00000004
        1085000	       107	800002dc	01c4afb3	slt	x31,x9,x28	  x9:0x00000006 x28:0x00000000 x31=0x00000000
        1095000	       108	800002e0	022e9063	bne	x29,x2,80000300	 x29:0x80009fce  x2:0x000006c4
        1105000	       109	00000000	00000013	addi	x0,x0,0	  x0:0x00000000
        1115000	       110	800002fc	00000013	addi	x0,x0,0	  x0:0x00000000
        1125000	       111	80000300	01d31a93	slli	x21,x6,0x1d	  x6:0x00001000 x21=0x00000000
        1135000	       112	80000304	27d8b713	sltiu	x14,x17,637	 x17:0x00000004 x14=0x00000001
        1145000	       113	80000308	411cd3b3	sra	x7,x25,x17	 x25:0x00010000 x17:0x00000004  x7=0x00001000
        1155000	       114	8000030c	bd5b3897	auipc	x17,0xbd5b3	 x17=0x3d5b3308
        1165000	       115	80000310	41990933	sub	x18,x18,x25	 x18:0x00000000 x25:0x00010000 x18=0xffff0000
        1175000	       116	80000314	038d0c63	beq	x26,x24,8000034c	 x26:0x80000000 x24:0x00000001
        1185000	       117	80000318	006f8a33	add	x20,x31,x6	 x31:0x00000000  x6:0x00001000 x20=0x00001000
        1195000	       118	8000031c	01746c63	bltu	x8,x23,80000334	  x8:0x80009f83 x23:0x80009f84
        1205000	       119	00000000	00000013	addi	x0,x0,0	  x0:0x00000000
        1215000	       120	80000330	00000013	addi	x0,x0,0	  x0:0x00000000
        1225000	       121	80000334	41dcd193	srai	x3,x25,0x1d	 x25:0x00010000  x3=0x00000000
        1235000	       122	80000338	e4fb8a13	addi	x20,x23,-433	 x23:0x80009f84 x20=0x80009dd3
        1245000	       123	8000033c	015e63b3	or	x7,x28,x21	 x28:0x00000000 x21:0x00000000  x7=0x00000000
        1255000	       124	80000340	c8d6ff13	andi	x30,x13,-883	 x13:0xf41a0afa x30=0xf41a0888
        1265000	       125	80000344	5e486893	ori	x17,x16,1508	 x16:0x80009fc4 x17=0x80009fe4
        1275000	       126	80000348	00000013	addi	x0,x0,0	  x0:0x00000000
        1285000	       127	8000034c	00c19993	slli	x19,x3,0xc	  x3:0x00000000 x19=0x00000000
        1295000	       128	80000350	0ffd8613	addi	x12,x27,255	 x27:0xf59310b7 x12=0xf59311b6
        1305000	       129	80000354	00f4a8b3	slt	x17,x9,x15	  x9:0x00000006 x15:0x00000000 x17=0x00000000
        1315000	       130	80000358	01c276b3	and	x13,x4,x28	  x4:0x80000000 x28:0x00000000 x13=0x00000000
        1325000	       131	8000035c	01402f33	slt	x30,x0,x20	  x0:0x00000000 x20:0x80009dd3 x30=0x00000000
        1335000	       132	80000360	00a5bd33	sltu	x26,x11,x10	 x11:0xf76c5d5b x10:0x00000289 x26=0x00000000
        1345000	       133	80000364	7ce8a393	slti	x7,x17,1998	 x17:0x00000000  x7=0x00000001
        1355000	       134	80000368	004ab433	sltu	x8,x21,x4	 x21:0x00000000  x4:0x80000000  x8=0x00000001
        1365000	       135	8000036c	008e7d33	and	x26,x28,x8	 x28:0x00000000  x8:0x00000001 x26=0x00000000
        1375000	       136	80000370	00002617	auipc	x12,0x2	 x12=0x8000236c
        1385000	       137	80000374	fd460613	addi	x12,x12,-44	 x12:0x8000236c x12=0x80002340
        1395000	       138	80000378	41bc0733	sub	x14,x24,x27	 x24:0x00000001 x27:0xf59310b7 x14=0x0a6cef4a
        1405000	       139	8000037c	0132d213	srli	x4,x5,0x13	  x5:0x800085c0  x4=0x00001000
        1415000	       140	80000380	0062aeb3	slt	x29,x5,x6	  x5:0x800085c0  x6:0x00001000 x29=0x00000001
        1425000	       141	80000384	00950cb3	add	x25,x10,x9	 x10:0x00000289  x9:0x00000006 x25=0x0000028f
        1435000	       142	80000388	d462fd93	andi	x27,x5,-698	  x5:0x800085c0 x27=0x80008540
        1445000	       143	8000038c	cf360613	addi	x12,x12,-781	 x12:0x80002340 x12=0x80002033
        1455000	       144	80000390	00a1dc63	bge	x3,x10,800003a8	  x3:0x00000000 x10:0x00000289
        1465000	       145	80000394	62a28893	addi	x17,x5,1578	  x5:0x800085c0 x17=0x80008bea
        1475000	       146	80000398	01144db3	xor	x27,x8,x17	  x8:0x00000001 x17:0x80008bea x27=0x80008beb
        1485000	       147	8000039c	e3f9ca93	xori	x21,x19,-449	 x19:0x00000000 x21=0xfffffe3f
        1495000	       148	800003a0	0132eb33	or	x22,x5,x19	  x5:0x800085c0 x19:0x00000000 x22=0x800085c0
        1505000	       149	800003a4	688cce93	xori	x29,x25,1672	 x25:0x0000028f x29=0x00000407
        1515000	       150	800003a8	30e60367	jalr	x6,x12,782	 x12:0x80002033  x6=0x800003a8
        1525000	       151	00000000	00000013	addi	x0,x0,0	  x0:0x00000000
        1535000	       152	80002340	00000013	addi	x0,x0,0	  x0:0x00000000
        1545000	       153	80002344	eda52413	slti	x8,x10,-294	 x10:0x00000289  x8=0x00000000
        1555000	       154	80002348	fd0b8b93	addi	x23,x23,-48	 x23:0x80009f84 x23=0x80009f54
        1565000	       155	8000234c	6b937b13	andi	x22,x6,1721	  x6:0x800003a8 x22=0x000002a8
        1575000	       156	80002350	93c4ec93	ori	x25,x9,-1732	  x9:0x00000006 x25=0xfffff93e
        1585000	       157	80002354	00824a33	xor	x20,x4,x8	  x4:0x00001000  x8:0x00000000 x20=0x00001000
        1595000	       158	80002358	4109d713	srai	x14,x19,0x10	 x19:0x00000000 x14=0x00000000
        1605000	       159	8000235c	b56c0b13	addi	x22,x24,-1194	 x24:0x00000001 x22=0xfffffb57
        1615000	       160	80002360	0027f1b3	and	x3,x15,x2	 x15:0x00000000  x2:0x000006c4  x3=0x00000000
        1625000	       161	80002364	2881fc13	andi	x24,x3,648	  x3:0x00000000 x24=0x00000000
        1635000	       162	80002368	f98bcfb7	lui	x31,0xf98bc	 x31=0xf98bc000
        1645000	       163	8000236c	006ba223	sw	x6,4(x23)	 x23:0x80009f54  x6:0x800003a8 PA:0x80009f58
        1655000	       164	80002370	016aa7b3	slt	x15,x21,x22	 x21:0xfffffe3f x22:0xfffffb57 x15=0x00000000
        1665000	       165	80002374	001dd193	srli	x3,x27,0x1	 x27:0x80008beb  x3=0x400045f5
        1675000	       166	80002378	40736713	ori	x14,x6,1031	  x6:0x800003a8 x14=0x800007af
        1685000	       167	8000237c	41e45993	srai	x19,x8,0x1e	  x8:0x00000000 x19=0x00000000
        1695000	       168	80002380	d6bf4393	xori	x7,x30,-661	 x30:0x00000000  x7=0xfffffd6b
        1705000	       169	80002384	08c4d1b7	lui	x3,0x8c4d	  x3=0x08c4d000
        1715000	       170	80002388	7d0b2793	slti	x15,x22,2000	 x22:0xfffffb57 x15=0x00000001
        1725000	       171	8000238c	018a2933	slt	x18,x20,x24	 x20:0x00001000 x24:0x00000000 x18=0x00000000
        1735000	       172	80002390	0183e533	or	x10,x7,x24	  x7:0xfffffd6b x24:0x00000000 x10=0xfffffd6b
        1745000	       173	80002394	672bd517	auipc	x10,0x672bd	 x10=0xe72bf390
        1755000	       174	80002398	1f10036f	jal	x6,80002398	  x6=0x80002398
        1765000	       175	00000000	00000013	addi	x0,x0,0	  x0:0x00000000
        1775000	       176	80002d84	00000013	addi	x0,x0,0	  x0:0x00000000
        1785000	       177	80002d88	fd4b8b93	addi	x23,x23,-44	 x23:0x80009f54 x23=0x80009f28
        1795000	       178	80002d8c	00060b33	add	x22,x12,x0	 x12:0x80002033  x0:0x00000000 x22=0x80002033
        1805000	       179	80002d90	006ba223	sw	x6,4(x23)	 x23:0x80009f28  x6:0x80002398 PA:0x80009f2c
        1815000	       180	80002d94	4145c513	xori	x10,x11,1044	 x11:0xf76c5d5b x10=0xf76c594f
        1825000	       181	80002d98	01ddd693	srli	x13,x27,0x1d	 x27:0x80008beb x13=0x00000004
        1835000	       182	80002d9c	0078f9b3	and	x19,x17,x7	 x17:0x80008bea  x7:0xfffffd6b x19=0x8000896a
        1845000	       183	80002da0	01f8b133	sltu	x2,x17,x31	 x17:0x80008bea x31:0xf98bc000  x2=0x00000001
        1855000	       184	80002da4	015f5613	srli	x12,x30,0x15	 x30:0x00000000 x12=0x00000000
        1865000	       185	80002da8	006cbdb3	sltu	x27,x25,x6	 x25:0xfffff93e  x6:0x80002398 x27=0x00000000
        1875000	       186	80002dac	00c2fcb3	and	x25,x5,x12	  x5:0x800085c0 x12:0x00000000 x25=0x00000000
        1885000	       187	80002db0	ffffd117	auipc	x2,0xffffd	  x2=0x7ffffdac
        1895000	       188	80002db4	62010113	addi	x2,x2,1568	  x2:0x7ffffdac  x2=0x800003cc
        1905000	       189	80002db8	00000013	addi	x0,x0,0	  x0:0x00000000
        1915000	       190	80002dbc	019bd933	srl	x18,x23,x25	 x23:0x80009f28 x25:0x00000000 x18=0x80009f28
        1925000	       191	80002dc0	889d7013	andi	x0,x26,-1911	 x26:0x00000000
        1935000	       192	80002dc4	0012eb33	or	x22,x5,x1	  x5:0x800085c0  x1:0x80000000 x22=0x800085c0
        1945000	       193	80002dc8	41ae04b3	sub	x9,x28,x26	 x28:0x00000000 x26:0x00000000  x9=0x00000000
        1955000	       194	80002dcc	def22a93	slti	x21,x4,-529	  x4:0x00001000 x21=0x00000000
        1965000	       195	80002dd0	12410113	addi	x2,x2,292	  x2:0x800003cc  x2=0x800004f0
        1975000	       196	80002dd4	008d5293	srli	x5,x26,0x8	 x26:0x00000000  x5=0x00000000
        1985000	       197	80002dd8	01bed913	srli	x18,x29,0x1b	 x29:0x00000407 x18=0x00000000
        1995000	       198	80002ddc	00231cb3	sll	x25,x6,x2	  x6:0x80002398  x2:0x800004f0 x25=0x23980000
        2005000	       199	80002de0	edc10367	jalr	x6,x2,-292	  x2:0x800004f0  x6=0x80002de0
        2015000	       200	00000000	00000013	addi	x0,x0,0	  x0:0x00000000
        2025000	       201	800003cc	00000013	addi	x0,x0,0	  x0:0x00000000
        2035000	       202	800003d0	319c8e17	auipc	x28,0x319c8	 x28=0xb19c83cc
        2045000	       203	800003d4	1e273393	sltiu	x7,x14,482	 x14:0x800007af  x7=0x00000000
        2055000	       204	800003d8	4144df33	sra	x30,x9,x20	  x9:0x00000000 x20:0x00001000 x30=0x00000000
        2065000	       205	800003dc	00ce4663	blt	x28,x12,800003e8	 x28:0xb19c83cc x12:0x00000000
        2075000	       206	00000000	00000013	addi	x0,x0,0	  x0:0x00000000
        2085000	       207	800003e4	00000013	addi	x0,x0,0	  x0:0x00000000
        2095000	       208	800003e8	fc0b8b93	addi	x23,x23,-64	 x23:0x80009f28 x23=0x80009ee8
        2105000	       209	800003ec	009516b3	sll	x13,x10,x9	 x10:0xf76c594f  x9:0x00000000 x13=0xf76c594f
        2115000	       210	800003f0	006ba223	sw	x6,4(x23)	 x23:0x80009ee8  x6:0x80002de0 PA:0x80009eec
        2125000	       211	800003f4	00966933	or	x18,x12,x9	 x12:0x00000000  x9:0x00000000 x18=0x00000000
        2135000	       212	800003f8	01fcc533	xor	x10,x25,x31	 x25:0x23980000 x31:0xf98bc000 x10=0xda13c000
        2145000	       213	800003fc	86ba3893	sltiu	x17,x20,-1941	 x20:0x00001000 x17=0x00000001
        2155000	       214	80000400	01af62b3	or	x5,x30,x26	 x30:0x00000000 x26:0x00000000  x5=0x00000000
        2165000	       215	80000404	00000013	addi	x0,x0,0	  x0:0x00000000
        2175000	       216	80000408	00506a63	bltu	x0,x5,8000041c	  x0:0x00000000  x5:0x00000000
        2185000	       217	8000040c	00000013	addi	x0,x0,0	  x0:0x00000000
        2195000	       218	80000410	012f5593	srli	x11,x30,0x12	 x30:0x00000000 x11=0x00000000
        2205000	       219	80000414	00f5e3b3	or	x7,x11,x15	 x11:0x00000000 x15:0x00000001  x7=0x00000001
        2215000	       220	80000418	00000013	addi	x0,x0,0	  x0:0x00000000
        2225000	       221	8000041c	0290236f	jal	x6,8000041c	  x6=0x8000041c
        2235000	       222	00000000	00000013	addi	x0,x0,0	  x0:0x00000000
        2245000	       223	80002c40	00000013	addi	x0,x0,0	  x0:0x00000000
        2255000	       224	80002c44	ff4b8b93	addi	x23,x23,-12	 x23:0x80009ee8 x23=0x80009edc
        2265000	       225	80002c48	00000013	addi	x0,x0,0	  x0:0x00000000
        2275000	       226	80002c4c	006ba223	sw	x6,4(x23)	 x23:0x80009edc  x6:0x8000041c PA:0x80009ee0
        2285000	       227	80002c50	6bb26d13	ori	x26,x4,1723	  x4:0x00001000 x26=0x000016bb
        2295000	       228	80002c54	0118d013	srli	x0,x17,0x11	 x17:0x00000001
        2305000	       229	80002c58	01929213	slli	x4,x5,0x19	  x5:0x00000000  x4=0x00000000
        2315000	       230	80002c5c	0191d913	srli	x18,x3,0x19	  x3:0x08c4d000 x18=0x00000004
        2325000	       231	80002c60	00000013	addi	x0,x0,0	  x0:0x00000000
        2335000	       232	80002c64	c184f517	auipc	x10,0xc184f	 x10=0x41851c60
        2345000	       233	80002c68	005f26b3	slt	x13,x30,x5	 x30:0x00000000  x5:0x00000000 x13=0x00000000
        2355000	       234	80002c6c	01fece33	xor	x28,x29,x31	 x29:0x00000407 x31:0xf98bc000 x28=0xf98bc407
        2365000	       235	80002c70	404c5713	srai	x14,x24,0x4	 x24:0x00000000 x14=0x00000000
        2375000	       236	80002c74	577dbc93	sltiu	x25,x27,1399	 x27:0x00000000 x25=0x00000001
        2385000	       237	80002c78	0196dc93	srli	x25,x13,0x19	 x13:0x00000000 x25=0x00000000
        2395000	       238	80002c7c	00ac22b3	slt	x5,x24,x10	 x24:0x00000000 x10:0x41851c60  x5=0x00000001
        2405000	       239	80002c80	28fd7893	andi	x17,x26,655	 x26:0x000016bb x17=0x0000028b
        2415000	       240	80002c84	5690336f	jal	x6,80002c84	  x6=0x80002c84
        2425000	       241	00000000	00000013	addi	x0,x0,0	  x0:0x00000000
        2435000	       242	800069e8	00000013	addi	x0,x0,0	  x0:0x00000000
        2445000	       243	800069ec	001e8933	add	x18,x29,x1	 x29:0x00000407  x1:0x80000000 x18=0x80000407
        2455000	       244	800069f0	00e67463	bgeu	x12,x14,800069f8	 x12:0x00000000 x14:0x00000000
        2465000	       245	00000000	00000013	addi	x0,x0,0	  x0:0x00000000
        2475000	       246	800069f4	00000013	addi	x0,x0,0	  x0:0x00000000
        2485000	       247	800069f8	fd8b8b93	addi	x23,x23,-40	 x23:0x80009edc x23=0x80009eb4
        2495000	       248	800069fc	76cbf113	andi	x2,x23,1900	 x23:0x80009eb4  x2=0x00000624
        2505000	       249	80006a00	b0ad9fb7	lui	x31,0xb0ad9	 x31=0xb0ad9000
        2515000	       250	80006a04	006ba223	sw	x6,4(x23)	 x23:0x80009eb4  x6:0x80002c84 PA:0x80009eb8
        2525000	       251	80006a08	01e26eb3	or	x29,x4,x30	  x4:0x00000000 x30:0x00000000 x29=0x00000000
        2535000	       252	80006a0c	e5e6f593	andi	x11,x13,-418	 x13:0x00000000 x11=0x00000000
        2545000	       253	80006a10	01349913	slli	x18,x9,0x13	  x9:0x00000000 x18=0x00000000
        2555000	       254	80006a14	dc7e9317	auipc	x6,0xdc7e9	  x6=0x5c7efa10
        2565000	       255	80006a18	ffffbc97	auipc	x25,0xffffb	 x25=0x80001a14
        2575000	       256	80006a1c	08cc8c93	addi	x25,x25,140	 x25:0x80001a14 x25=0x80001aa0
        2585000	       257	80006a20	01975033	srl	x0,x14,x25	 x14:0x00000000 x25:0x80001aa0
        2595000	       258	80006a24	373c8c93	addi	x25,x25,883	 x25:0x80001aa0 x25=0x80001e13
        2605000	       259	80006a28	009ab633	sltu	x12,x21,x9	 x21:0x00000000  x9:0x00000000 x12=0x00000000
        2615000	       260	80006a2c	01d05b33	srl	x22,x0,x29	  x0:0x00000000 x29:0x00000000 x22=0x00000000
        2625000	       261	80006a30	fa94bd17	auipc	x26,0xfa94b	 x26=0x7a951a2c
        2635000	       262	80006a34	00f98133	add	x2,x19,x15	 x19:0x8000896a x15:0x00000001  x2=0x8000896b
        2645000	       263	80006a38	ab437293	andi	x5,x6,-1356	  x6:0x5c7efa10  x5=0x5c7efa10
        2655000	       264	80006a3c	c3a1ee17	auipc	x28,0xc3a1e	 x28=0x43a24a38
        2665000	       265	80006a40	0119e463	bltu	x19,x17,80006a48	 x19:0x8000896a x17:0x0000028b
        2675000	       266	80006a44	009e7733	and	x14,x28,x9	 x28:0x43a24a38  x9:0x00000000 x14=0x00000000
        2685000	       267	80006a48	c8ec8367	jalr	x6,x25,-882	 x25:0x80001e13  x6=0x80006a48
        2695000	       268	00000000	00000013	addi	x0,x0,0	  x0:0x00000000
        2705000	       269	80001aa0	00000013	addi	x0,x0,0	  x0:0x00000000
        2715000	       270	80001aa4	01389f13	slli	x30,x17,0x13	 x17:0x0000028b x30=0x14580000
        2725000	       271	80001aa8	2c5dc437	lui	x8,0x2c5dc	  x8=0x2c5dc000
        2735000	       272	80001aac	fc0b8b93	addi	x23,x23,-64	 x23:0x80009eb4 x23=0x80009e74
        2745000	       273	80001ab0	00571633	sll	x12,x14,x5	 x14:0x00000000  x5:0x5c7efa10 x12=0x00000000
        2755000	       274	80001ab4	00f79a93	slli	x21,x15,0xf	 x15:0x00000001 x21=0x00008000
        2765000	       275	80001ab8	01ea63b3	or	x7,x20,x30	 x20:0x00001000 x30:0x14580000  x7=0x14581000
        2775000	       276	80001abc	406fdeb3	sra	x29,x31,x6	 x31:0xb0ad9000  x6:0x80006a48 x29=0xffb0ad90
        2785000	       277	80001ac0	006ba223	sw	x6,4(x23)	 x23:0x80009e74  x6:0x80006a48 PA:0x80009e78
        2795000	       278	80001ac4	512b4c93	xori	x25,x22,1298	 x22:0x00000000 x25=0x00000512
        2805000	       279	80001ac8	08db3c93	sltiu	x25,x22,141	 x22:0x00000000 x25=0x00000001
        2815000	       280	80001acc	00001d97	auipc	x27,0x1	 x27=0x80002ac8
        2825000	       281	80001ad0	fc0d8d93	addi	x27,x27,-64	 x27:0x80002ac8 x27=0x80002a88
        2835000	       282	80001ad4	15dd8d93	addi	x27,x27,349	 x27:0x80002a88 x27=0x80002be5
        2845000	       283	80001ad8	41875f93	srai	x31,x14,0x18	 x14:0x00000000 x31=0x00000000
        2855000	       284	80001adc	5081fd13	andi	x26,x3,1288	  x3:0x08c4d000 x26=0x00000000
        2865000	       285	80001ae0	4028dd13	srai	x26,x17,0x2	 x17:0x0000028b x26=0x000000a2
        2875000	       286	80001ae4	01669713	slli	x14,x13,0x16	 x13:0x00000000 x14=0x00000000
        2885000	       287	80001ae8	00b83633	sltu	x12,x16,x11	 x16:0x80009fc4 x11:0x00000000 x12=0x00000000
        2895000	       288	80001aec	40e2d633	sra	x12,x5,x14	  x5:0x5c7efa10 x14:0x00000000 x12=0x5c7efa10
        2905000	       289	80001af0	4129d133	sra	x2,x19,x18	 x19:0x8000896a x18:0x00000000  x2=0x8000896a
        2915000	       290	80001af4	01501863	bne	x0,x21,80001b04	  x0:0x00000000 x21:0x00008000
        2925000	       291	00000000	00000013	addi	x0,x0,0	  x0:0x00000000
        2935000	       292	80001b00	00000013	addi	x0,x0,0	  x0:0x00000000
        2945000	       293	80001b04	ea3d8367	jalr	x6,x27,-349	 x27:0x80002be5  x6=0x80001b04
        2955000	       294	00000000	00000013	addi	x0,x0,0	  x0:0x00000000
        2965000	       295	80002a88	00000013	addi	x0,x0,0	  x0:0x00000000
        2975000	       296	80002a8c	01f3ab33	slt	x22,x7,x31	  x7:0x14581000 x31:0x00000000 x22=0x00000000
        2985000	       297	80002a90	fe0b8b93	addi	x23,x23,-32	 x23:0x80009e74 x23=0x80009e54
        2995000	       298	80002a94	018546b3	xor	x13,x10,x24	 x10:0x41851c60 x24:0x00000000 x13=0x41851c60
        3005000	       299	80002a98	01b34533	xor	x10,x6,x27	  x6:0x80001b04 x27:0x80002be5 x10=0x000030e1
        3015000	       300	80002a9c	006ba223	sw	x6,4(x23)	 x23:0x80009e54  x6:0x80001b04 PA:0x80009e58
        3025000	       301	80002aa0	41a4dd13	srai	x26,x9,0x1a	  x9:0x00000000 x26=0x00000000
        3035000	       302	80002aa4	01deaab3	slt	x21,x29,x29	 x29:0xffb0ad90 x29:0xffb0ad90 x21=0x00000000
        3045000	       303	80002aa8	00c81933	sll	x18,x16,x12	 x16:0x80009fc4 x12:0x5c7efa10 x18=0x9fc40000
        3055000	       304	80002aac	00fb9c63	bne	x23,x15,80002ac4	 x23:0x80009e54 x15:0x00000001
        3065000	       305	00000000	00000013	addi	x0,x0,0	  x0:0x00000000
        3075000	       306	80002ac0	00000013	addi	x0,x0,0	  x0:0x00000000
        3085000	       307	80002ac4	01911293	slli	x5,x2,0x19	  x2:0x8000896a  x5=0xd4000000
        3095000	       308	80002ac8	0036d693	srli	x13,x13,0x3	 x13:0x41851c60 x13=0x0830a38c
        3105000	       309	80002acc	00065863	bge	x12,x0,80002adc	 x12:0x5c7efa10  x0:0x00000000
        3115000	       310	00000000	00000013	addi	x0,x0,0	  x0:0x00000000
        3125000	       311	80002ad8	00000013	addi	x0,x0,0	  x0:0x00000000
        3135000	       312	80002adc	01bf3ab3	sltu	x21,x30,x27	 x30:0x14580000 x27:0x80002be5 x21=0x00000001
        3145000	       313	80002ae0	01306b33	or	x22,x0,x19	  x0:0x00000000 x19:0x8000896a x22=0x8000896a
        3155000	       314	80002ae4	019bad33	slt	x26,x23,x25	 x23:0x80009e54 x25:0x00000001 x26=0x00000001
        3165000	       315	80002ae8	b452ac93	slti	x25,x5,-1211	  x5:0xd4000000 x25=0x00000001
        3175000	       316	80002aec	017de263	bltu	x27,x23,80002af0	 x27:0x80002be5 x23:0x80009e54
        3185000	       317	00000000	00000013	addi	x0,x0,0	  x0:0x00000000
        3195000	       318	80002aec	00000013	addi	x0,x0,0	  x0:0x00000000
        3205000	       319	80002af0	00f6d713	srli	x14,x13,0xf	 x13:0x0830a38c x14=0x00001061
        3215000	       320	80002af4	40fdd8b3	sra	x17,x27,x15	 x27:0x80002be5 x15:0x00000001 x17=0xc00015f2
        3225000	       321	80002af8	01805493	srli	x9,x0,0x18	  x0:0x00000000  x9=0x00000000
        3235000	       322	80002afc	011123b3	slt	x7,x2,x17	  x2:0x8000896a x17:0xc00015f2  x7=0x00000001
        3245000	       323	80002b00	00348c63	beq	x9,x3,80002b18	  x9:0x00000000  x3:0x08c4d000
        3255000	       324	80002b04	de32a913	slti	x18,x5,-541	  x5:0xd4000000 x18=0x00000001
        3265000	       325	80002b08	4004d713	srai	x14,x9,0x0	  x9:0x00000000 x14=0x00000000
        3275000	       326	80002b0c	00b60863	beq	x12,x11,80002b1c	 x12:0x5c7efa10 x11:0x00000000
        3285000	       327	80002b10	d79ce113	ori	x2,x25,-647	 x25:0x00000001  x2=0xfffffd79
        3295000	       328	80002b14	01823d33	sltu	x26,x4,x24	  x4:0x00000000 x24:0x00000000 x26=0x00000000
        3305000	       329	80002b18	054d5863	bge	x26,x20,80002b68	 x26:0x00000000 x20:0x00001000
        3315000	       330	80002b1c	00000013	addi	x0,x0,0	  x0:0x00000000
        3325000	       331	80002b20	01b05933	srl	x18,x0,x27	  x0:0x00000000 x27:0x80002be5 x18=0x00000000
        3335000	       332	80002b24	00000013	addi	x0,x0,0	  x0:0x00000000
        3345000	       333	80002b28	003e8cb3	add	x25,x29,x3	 x29:0xffb0ad90  x3:0x08c4d000 x25=0x08757d90
        3355000	       334	80002b2c	09e0a313	slti	x6,x1,158	  x1:0x80000000  x6=0x00000001
        3365000	       335	80002b30	038f0c63	beq	x30,x24,80002b68	 x30:0x14580000 x24:0x00000000
        3375000	       336	80002b34	00ed9633	sll	x12,x27,x14	 x27:0x80002be5 x14:0x00000000 x12=0x80002be5
        3385000	       337	80002b38	00000013	addi	x0,x0,0	  x0:0x00000000
        3395000	       338	80002b3c	93d45d37	lui	x26,0x93d45	 x26=0x93d45000
        3405000	       339	80002b40	00375463	bge	x14,x3,80002b48	 x14:0x00000000  x3:0x08c4d000
        3415000	       340	80002b44	00000013	addi	x0,x0,0	  x0:0x00000000
        3425000	       341	80002b48	02e80a63	beq	x16,x14,80002b7c	 x16:0x80009fc4 x14:0x00000000
        3435000	       342	80002b4c	001e3f33	sltu	x30,x28,x1	 x28:0x43a24a38  x1:0x80000000 x30=0x00000001
        3445000	       343	80002b50	00baadb3	slt	x27,x21,x11	 x21:0x00000001 x11:0x00000000 x27=0x00000000
        3455000	       344	80002b54	00abe433	or	x8,x23,x10	 x23:0x80009e54 x10:0x000030e1  x8=0x8000bef5
        3465000	       345	80002b58	01d77d33	and	x26,x14,x29	 x14:0x00000000 x29:0xffb0ad90 x26=0x00000000
        3475000	       346	80002b5c	ffe5ce17	auipc	x28,0xffe5c	 x28=0x7fe5eb58
        3485000	       347	80002b60	0166c8b3	xor	x17,x13,x22	 x13:0x0830a38c x22:0x8000896a x17=0x88302ae6
        3495000	       348	80002b64	009f49b3	xor	x19,x30,x9	 x30:0x00000001  x9:0x00000000 x19=0x00000001
        3505000	       349	80002b68	47db8f93	addi	x31,x23,1149	 x23:0x80009e54 x31=0x8000a2d1
        3515000	       350	80002b6c	03d57463	bgeu	x10,x29,80002b94	 x10:0x000030e1 x29:0xffb0ad90
        3525000	       351	80002b70	01fe64b3	or	x9,x28,x31	 x28:0x7fe5eb58 x31:0x8000a2d1  x9=0xffe5ebd9
        3535000	       352	80002b74	016ed733	srl	x14,x29,x22	 x29:0xffb0ad90 x22:0x8000896a x14=0x003fec2b
        3545000	       353	80002b78	007bce33	xor	x28,x23,x7	 x23:0x80009e54  x7:0x00000001 x28=0x80009e55
        3555000	       354	80002b7c	005f1513	slli	x10,x30,0x5	 x30:0x00000001 x10=0x00000020
        3565000	       355	80002b80	008845b3	xor	x11,x16,x8	 x16:0x80009fc4  x8:0x8000bef5 x11=0x00002131
        3575000	       356	80002b84	4159d633	sra	x12,x19,x21	 x19:0x00000001 x21:0x00000001 x12=0x00000000
        3585000	       357	80002b88	925caf13	slti	x30,x25,-1755	 x25:0x08757d90 x30=0x00000000
        3595000	       358	80002b8c	014cbdb3	sltu	x27,x25,x20	 x25:0x08757d90 x20:0x00001000 x27=0x00000000
        3605000	       359	80002b90	00db23b3	slt	x7,x22,x13	 x22:0x8000896a x13:0x0830a38c  x7=0x00000001
        3615000	       360	80002b94	7e30d637	lui	x12,0x7e30d	 x12=0x7e30d000
        3625000	       361	80002b98	005e4433	xor	x8,x28,x5	 x28:0x80009e55  x5:0xd4000000  x8=0x54009e55
        3635000	       362	80002b9c	001f3b33	sltu	x22,x30,x1	 x30:0x00000000  x1:0x80000000 x22=0x00000001
        3645000	       363	80002ba0	b03aba13	sltiu	x20,x21,-1277	 x21:0x00000001 x20=0x00000001
        3655000	       364	80002ba4	9c87fc93	andi	x25,x15,-1592	 x15:0x00000001 x25=0x00000000
        3665000	       365	80002ba8	00aa8a33	add	x20,x21,x10	 x21:0x00000001 x10:0x00000020 x20=0x00000021
        3675000	       366	80002bac	010df463	bgeu	x27,x16,80002bb4	 x27:0x00000000 x16:0x80009fc4
        3685000	       367	80002bb0	03fd4063	blt	x26,x31,80002bd0	 x26:0x00000000 x31:0x8000a2d1
        3695000	       368	80002bb4	011153b3	srl	x7,x2,x17	  x2:0xfffffd79 x17:0x88302ae6  x7=0x03fffff5
        3705000	       369	80002bb8	04ba4063	blt	x20,x11,80002bf8	 x20:0x00000021 x11:0x00002131
        3715000	       370	00000000	00000013	addi	x0,x0,0	  x0:0x00000000
        3725000	       371	80002bf4	00000013	addi	x0,x0,0	  x0:0x00000000
        3735000	       372	80002bf8	40b45633	sra	x12,x8,x11	  x8:0x54009e55 x11:0x00002131 x12=0x00002a00
        3745000	       373	80002bfc	014a3eb3	sltu	x29,x20,x20	 x20:0x00000021 x20:0x00000021 x29=0x00000000
        3755000	       374	80002c00	01608933	add	x18,x1,x22	  x1:0x80000000 x22:0x00000001 x18=0x80000001
        3765000	       375	80002c04	862b9197	auipc	x3,0x862b9	  x3=0x062bbc00
        3775000	       376	80002c08	cb886f13	ori	x30,x16,-840	 x16:0x80009fc4 x30=0xfffffffc
        3785000	       377	80002c0c	01c2e463	bltu	x5,x28,80002c14	  x5:0xd4000000 x28:0x80009e55
        3795000	       378	80002c10	00cdd793	srli	x15,x27,0xc	 x27:0x00000000 x15=0x00000000
        3805000	       379	80002c14	e60ce217	auipc	x4,0xe60ce	  x4=0x660d0c10
        3815000	       380	80002c18	01c411b3	sll	x3,x8,x28	  x8:0x54009e55 x28:0x80009e55  x3=0xcaa00000
        3825000	       381	80002c1c	004ba303	lw	x6,4(x23)	 x23:0x80009e54  x6=0x80001b04 PA:0x80009e58
        3835000	       382	80002c20	011e9393	slli	x7,x29,0x11	 x29:0x00000000  x7=0x00000000
        3845000	       383	80002c24	00266ab3	or	x21,x12,x2	 x12:0x00002a00  x2:0xfffffd79 x21=0xffffff79
        3855000	       384	80002c28	020b8b93	addi	x23,x23,32	 x23:0x80009e54 x23=0x80009e74
        3865000	       385	80002c2c	1b3c7517	auipc	x10,0x1b3c7	 x10=0x9b3c9c28
        3875000	       386	80002c30	01225033	srl	x0,x4,x18	  x4:0x660d0c10 x18:0x80000001
        3885000	       387	80002c34	dff9c713	xori	x14,x19,-513	 x19:0x00000001 x14=0xfffffdfe
        3895000	       388	80002c38	210ec993	xori	x19,x29,528	 x29:0x00000000 x19=0x00000210
        3905000	       389	80002c3c	00130993	addi	x19,x6,1	  x6:0x80001b04 x19=0x80001b05
        3915000	       390	80002c40	000989e7	jalr	x19,x19,0	 x19:0x80001b05 x19=0x80002c40
        3925000	       391	00000000	00000013	addi	x0,x0,0	  x0:0x00000000
        3935000	       392	80001b04	00000013	addi	x0,x0,0	  x0:0x00000000
        3945000	       393	80001b08	3c2bc737	lui	x14,0x3c2bc	 x14=0x3c2bc000
        3955000	       394	80001b0c	02467263	bgeu	x12,x4,80001b30	 x12:0x00002a00  x4:0x660d0c10
        3965000	       395	80001b10	00a246b3	xor	x13,x4,x10	  x4:0x660d0c10 x10:0x9b3c9c28 x13=0xfd319038
        3975000	       396	80001b14	40c458b3	sra	x17,x8,x12	  x8:0x54009e55 x12:0x00002a00 x17=0x54009e55
        3985000	       397	80001b18	00c22b33	slt	x22,x4,x12	  x4:0x660d0c10 x12:0x00002a00 x22=0x00000000
        3995000	       398	80001b1c	00df12b3	sll	x5,x30,x13	 x30:0xfffffffc x13:0xfd319038  x5=0xfc000000
        4005000	       399	80001b20	01f13a33	sltu	x20,x2,x31	  x2:0xfffffd79 x31:0x8000a2d1 x20=0x00000000
        4015000	       400	80001b24	c1a4c417	auipc	x8,0xc1a4c	  x8=0x41a4db20
        4025000	       401	80001b28	008ab8b3	sltu	x17,x21,x8	 x21:0xffffff79  x8:0x41a4db20 x17=0x00000000
        4035000	       402	80001b2c	011414b3	sll	x9,x8,x17	  x8:0x41a4db20 x17:0x00000000  x9=0x41a4db20
        4045000	       403	80001b30	75d0036f	jal	x6,80001b30	  x6=0x80001b30
        4055000	       404	00000000	00000013	addi	x0,x0,0	  x0:0x00000000
        4065000	       405	80002a88	00000013	addi	x0,x0,0	  x0:0x00000000
        4075000	       406	80002a8c	01f3ab33	slt	x22,x7,x31	  x7:0x00000000 x31:0x8000a2d1 x22=0x00000000
        4085000	       407	80002a90	fe0b8b93	addi	x23,x23,-32	 x23:0x80009e74 x23=0x80009e54
        4095000	       408	80002a94	018546b3	xor	x13,x10,x24	 x10:0x9b3c9c28 x24:0x00000000 x13=0x9b3c9c28
        4105000	       409	80002a98	01b34533	xor	x10,x6,x27	  x6:0x80001b30 x27:0x00000000 x10=0x80001b30
        4115000	       410	80002a9c	006ba223	sw	x6,4(x23)	 x23:0x80009e54  x6:0x80001b30 PA:0x80009e58
        4125000	       411	80002aa0	41a4dd13	srai	x26,x9,0x1a	  x9:0x41a4db20 x26=0x00000010
        4135000	       412	80002aa4	01deaab3	slt	x21,x29,x29	 x29:0x00000000 x29:0x00000000 x21=0x00000000
        4145000	       413	80002aa8	00c81933	sll	x18,x16,x12	 x16:0x80009fc4 x12:0x00002a00 x18=0x80009fc4
        4155000	       414	80002aac	00fb9c63	bne	x23,x15,80002ac4	 x23:0x80009e54 x15:0x00000000
        4165000	       415	00000000	00000013	addi	x0,x0,0	  x0:0x00000000
        4175000	       416	80002ac0	00000013	addi	x0,x0,0	  x0:0x00000000
        4185000	       417	80002ac4	01911293	slli	x5,x2,0x19	  x2:0xfffffd79  x5=0xf2000000
        4195000	       418	80002ac8	0036d693	srli	x13,x13,0x3	 x13:0x9b3c9c28 x13=0x13679385
        4205000	       419	80002acc	00065863	bge	x12,x0,80002adc	 x12:0x00002a00  x0:0x00000000
        4215000	       420	00000000	00000013	addi	x0,x0,0	  x0:0x00000000
        4225000	       421	80002ad8	00000013	addi	x0,x0,0	  x0:0x00000000
        4235000	       422	80002adc	01bf3ab3	sltu	x21,x30,x27	 x30:0xfffffffc x27:0x00000000 x21=0x00000000
        4245000	       423	80002ae0	01306b33	or	x22,x0,x19	  x0:0x00000000 x19:0x80002c40 x22=0x80002c40
        4255000	       424	80002ae4	019bad33	slt	x26,x23,x25	 x23:0x80009e54 x25:0x00000000 x26=0x00000001
        4265000	       425	80002ae8	b452ac93	slti	x25,x5,-1211	  x5:0xf2000000 x25=0x00000001
        4275000	       426	80002aec	017de263	bltu	x27,x23,80002af0	 x27:0x00000000 x23:0x80009e54
        4285000	       427	00000000	00000013	addi	x0,x0,0	  x0:0x00000000
        4295000	       428	80002aec	00000013	addi	x0,x0,0	  x0:0x00000000
        4305000	       429	80002af0	00f6d713	srli	x14,x13,0xf	 x13:0x13679385 x14=0x000026cf
        4315000	       430	80002af4	40fdd8b3	sra	x17,x27,x15	 x27:0x00000000 x15:0x00000000 x17=0x00000000
        4325000	       431	80002af8	01805493	srli	x9,x0,0x18	  x0:0x00000000  x9=0x00000000
        4335000	       432	80002afc	011123b3	slt	x7,x2,x17	  x2:0xfffffd79 x17:0x00000000  x7=0x00000001
        4345000	       433	80002b00	00348c63	beq	x9,x3,80002b18	  x9:0x00000000  x3:0xcaa00000
        4355000	       434	80002b04	de32a913	slti	x18,x5,-541	  x5:0xf2000000 x18=0x00000001
        4365000	       435	80002b08	4004d713	srai	x14,x9,0x0	  x9:0x00000000 x14=0x00000000
        4375000	       436	80002b0c	00b60863	beq	x12,x11,80002b1c	 x12:0x00002a00 x11:0x00002131
        4385000	       437	80002b10	d79ce113	ori	x2,x25,-647	 x25:0x00000001  x2=0xfffffd79
        4395000	       438	80002b14	01823d33	sltu	x26,x4,x24	  x4:0x660d0c10 x24:0x00000000 x26=0x00000000
        4405000	       439	80002b18	054d5863	bge	x26,x20,80002b68	 x26:0x00000000 x20:0x00000000
        4415000	       440	00000000	00000013	addi	x0,x0,0	  x0:0x00000000
        4425000	       441	80002b64	00000013	addi	x0,x0,0	  x0:0x00000000
        4435000	       442	80002b68	47db8f93	addi	x31,x23,1149	 x23:0x80009e54 x31=0x8000a2d1
        4445000	       443	80002b6c	03d57463	bgeu	x10,x29,80002b94	 x10:0x80001b30 x29:0x00000000
        4455000	       444	00000000	00000013	addi	x0,x0,0	  x0:0x00000000
        4465000	       445	80002b90	00000013	addi	x0,x0,0	  x0:0x00000000
        4475000	       446	80002b94	7e30d637	lui	x12,0x7e30d	 x12=0x7e30d000
        4485000	       447	80002b98	005e4433	xor	x8,x28,x5	 x28:0x80009e55  x5:0xf2000000  x8=0x72009e55
        4495000	       448	80002b9c	001f3b33	sltu	x22,x30,x1	 x30:0xfffffffc  x1:0x80000000 x22=0x00000000
        4505000	       449	80002ba0	b03aba13	sltiu	x20,x21,-1277	 x21:0x00000000 x20=0x00000001
        4515000	       450	80002ba4	9c87fc93	andi	x25,x15,-1592	 x15:0x00000000 x25=0x00000000
        4525000	       451	80002ba8	00aa8a33	add	x20,x21,x10	 x21:0x00000000 x10:0x80001b30 x20=0x80001b30
        4535000	       452	80002bac	010df463	bgeu	x27,x16,80002bb4	 x27:0x00000000 x16:0x80009fc4
        4545000	       453	80002bb0	03fd4063	blt	x26,x31,80002bd0	 x26:0x00000000 x31:0x8000a2d1
        4555000	       454	80002bb4	011153b3	srl	x7,x2,x17	  x2:0xfffffd79 x17:0x00000000  x7=0xfffffd79
        4565000	       455	80002bb8	04ba4063	blt	x20,x11,80002bf8	 x20:0x80001b30 x11:0x00002131
        4575000	       456	00000000	00000013	addi	x0,x0,0	  x0:0x00000000
        4585000	       457	80002bf4	00000013	addi	x0,x0,0	  x0:0x00000000
        4595000	       458	80002bf8	40b45633	sra	x12,x8,x11	  x8:0x72009e55 x11:0x00002131 x12=0x00003900
        4605000	       459	80002bfc	014a3eb3	sltu	x29,x20,x20	 x20:0x80001b30 x20:0x80001b30 x29=0x00000000
        4615000	       460	80002c00	01608933	add	x18,x1,x22	  x1:0x80000000 x22:0x00000000 x18=0x80000000
        4625000	       461	80002c04	862b9197	auipc	x3,0x862b9	  x3=0x062bbc00
        4635000	       462	80002c08	cb886f13	ori	x30,x16,-840	 x16:0x80009fc4 x30=0xfffffffc
        4645000	       463	80002c0c	01c2e463	bltu	x5,x28,80002c14	  x5:0xf2000000 x28:0x80009e55
        4655000	       464	80002c10	00cdd793	srli	x15,x27,0xc	 x27:0x00000000 x15=0x00000000
        4665000	       465	80002c14	e60ce217	auipc	x4,0xe60ce	  x4=0x660d0c10
        4675000	       466	80002c18	01c411b3	sll	x3,x8,x28	  x8:0x72009e55 x28:0x80009e55  x3=0xcaa00000
        4685000	       467	80002c1c	004ba303	lw	x6,4(x23)	 x23:0x80009e54  x6=0x80001b30 PA:0x80009e58
        4695000	       468	80002c20	011e9393	slli	x7,x29,0x11	 x29:0x00000000  x7=0x00000000
        4705000	       469	80002c24	00266ab3	or	x21,x12,x2	 x12:0x00003900  x2:0xfffffd79 x21=0xfffffd79
        4715000	       470	80002c28	020b8b93	addi	x23,x23,32	 x23:0x80009e54 x23=0x80009e74
        4725000	       471	80002c2c	1b3c7517	auipc	x10,0x1b3c7	 x10=0x9b3c9c28
        4735000	       472	80002c30	01225033	srl	x0,x4,x18	  x4:0x660d0c10 x18:0x80000000
        4745000	       473	80002c34	dff9c713	xori	x14,x19,-513	 x19:0x80002c40 x14=0x7fffd1bf
        4755000	       474	80002c38	210ec993	xori	x19,x29,528	 x29:0x00000000 x19=0x00000210
        4765000	       475	80002c3c	00130993	addi	x19,x6,1	  x6:0x80001b30 x19=0x80001b31
        4775000	       476	80002c40	000989e7	jalr	x19,x19,0	 x19:0x80001b31 x19=0x80002c40
        4785000	       477	00000000	00000013	addi	x0,x0,0	  x0:0x00000000
        4795000	       478	80001b30	00000013	addi	x0,x0,0	  x0:0x00000000
        4805000	       479	80001b34	02b98863	beq	x19,x11,80001b64	 x19:0x80002c40 x11:0x00002131
        4815000	       480	80001b38	001e8863	beq	x29,x1,80001b48	 x29:0x00000000  x1:0x80000000
        4825000	       481	80001b3c	b1b80d13	addi	x26,x16,-1253	 x16:0x80009fc4 x26=0x80009adf
        4835000	       482	80001b40	f064eab7	lui	x21,0xf064e	 x21=0xf064e000
        4845000	       483	80001b44	05944463	blt	x8,x25,80001b8c	  x8:0x72009e55 x25:0x00000000
        4855000	       484	80001b48	005aadb3	slt	x27,x21,x5	 x21:0xf064e000  x5:0xf2000000 x27=0x00000001
        4865000	       485	80001b4c	0128cd33	xor	x26,x17,x18	 x17:0x00000000 x18:0x80000000 x26=0x80000000
        4875000	       486	80001b50	00002f33	slt	x30,x0,x0	  x0:0x00000000  x0:0x00000000 x30=0x00000000
        4885000	       487	80001b54	01838a63	beq	x7,x24,80001b68	  x7:0x00000000 x24:0x00000000
        4895000	       488	00000000	00000013	addi	x0,x0,0	  x0:0x00000000
        4905000	       489	80001b64	00000013	addi	x0,x0,0	  x0:0x00000000
        4915000	       490	80001b68	4154d033	sra	x0,x9,x21	  x9:0x00000000 x21:0xf064e000
        4925000	       491	80001b6c	9029f913	andi	x18,x19,-1790	 x19:0x80002c40 x18=0x80002800
        4935000	       492	80001b70	ca5fbf13	sltiu	x30,x31,-859	 x31:0x8000a2d1 x30=0x00000001
        4945000	       493	80001b74	9b3c6393	ori	x7,x24,-1613	 x24:0x00000000  x7=0xfffff9b3
        4955000	       494	80001b78	00d78463	beq	x15,x13,80001b80	 x15:0x00000000 x13:0x13679385
        4965000	       495	80001b7c	01c49313	slli	x6,x9,0x1c	  x9:0x00000000  x6=0x00000000
        4975000	       496	80001b80	a1c07893	andi	x17,x0,-1508	  x0:0x00000000 x17=0x00000000
        4985000	       497	80001b84	2b3b8893	addi	x17,x23,691	 x23:0x80009e74 x17=0x8000a127
        4995000	       498	80001b88	05811863	bne	x2,x24,80001bd8	  x2:0xfffffd79 x24:0x00000000
        5005000	       499	00000000	00000013	addi	x0,x0,0	  x0:0x00000000
        5015000	       500	80001bd4	00000013	addi	x0,x0,0	  x0:0x00000000
        5025000	       501	80001bd8	018915b3	sll	x11,x18,x24	 x18:0x80002800 x24:0x00000000 x11=0x80002800
        5035000	       502	80001bdc	0052cc33	xor	x24,x5,x5	  x5:0xf2000000  x5:0xf2000000 x24=0x00000000
        5045000	       503	80001be0	00ea6133	or	x2,x20,x14	 x20:0x80001b30 x14:0x7fffd1bf  x2=0xffffdbbf
        5055000	       504	80001be4	41a10a33	sub	x20,x2,x26	  x2:0xffffdbbf x26:0x80000000 x20=0x7fffdbbf
        5065000	       505	80001be8	67d56493	ori	x9,x10,1661	 x10:0x9b3c9c28  x9=0x9b3c9e7d
        5075000	       506	80001bec	16ab2013	slti	x0,x22,362	 x22:0x00000000
        5085000	       507	80001bf0	40b2d033	sra	x0,x5,x11	  x5:0xf2000000 x11:0x80002800
        5095000	       508	80001bf4	01bba3b3	slt	x7,x23,x27	 x23:0x80009e74 x27:0x00000001  x7=0x00000001
        5105000	       509	80001bf8	0266e663	bltu	x13,x6,80001c24	 x13:0x13679385  x6:0x00000000
        5115000	       510	80001bfc	4069d4b3	sra	x9,x19,x6	 x19:0x80002c40  x6:0x00000000  x9=0x80002c40
        5125000	       511	80001c00	004c9e63	bne	x25,x4,80001c1c	 x25:0x00000000  x4:0x660d0c10
        5135000	       512	00000000	00000013	addi	x0,x0,0	  x0:0x00000000
        5145000	       513	80001c18	00000013	addi	x0,x0,0	  x0:0x00000000
        5155000	       514	80001c1c	008a66b3	or	x13,x20,x8	 x20:0x7fffdbbf  x8:0x72009e55 x13=0x7fffdfff
        5165000	       515	80001c20	035d6063	bltu	x26,x21,80001c40	 x26:0x80000000 x21:0xf064e000
        5175000	       516	00000000	00000013	addi	x0,x0,0	  x0:0x00000000
        5185000	       517	80001c3c	00000013	addi	x0,x0,0	  x0:0x00000000
        5195000	       518	80001c40	002a5533	srl	x10,x20,x2	 x20:0x7fffdbbf  x2:0xffffdbbf x10=0x00000000
        5205000	       519	80001c44	004ba303	lw	x6,4(x23)	 x23:0x80009e74  x6=0x80006a48 PA:0x80009e78
        5215000	       520	80001c48	00fd41b3	xor	x3,x26,x15	 x26:0x80000000 x15:0x00000000  x3=0x80000000
        5225000	       521	80001c4c	040b8b93	addi	x23,x23,64	 x23:0x80009e74 x23=0x80009eb4
        5235000	       522	80001c50	001eda93	srli	x21,x29,0x1	 x29:0x00000000 x21=0x00000000
        5245000	       523	80001c54	005ce933	or	x18,x25,x5	 x25:0x00000000  x5:0xf2000000 x18=0xf2000000
        5255000	       524	80001c58	003c2233	slt	x4,x24,x3	 x24:0x00000000  x3:0x80000000  x4=0x00000000
        5265000	       525	80001c5c	00e77b33	and	x22,x14,x14	 x14:0x7fffd1bf x14:0x7fffd1bf x22=0x7fffd1bf
        5275000	       526	80001c60	00030993	addi	x19,x6,0	  x6:0x80006a48 x19=0x80006a48
        5285000	       527	80001c64	000989e7	jalr	x19,x19,0	 x19:0x80006a48 x19=0x80001c64
        5295000	       528	00000000	00000013	addi	x0,x0,0	  x0:0x00000000
        5305000	       529	80006a48	00000013	addi	x0,x0,0	  x0:0x00000000
        5315000	       530	80006a4c	4196dd33	sra	x26,x13,x25	 x13:0x7fffdfff x25:0x00000000 x26=0x7fffdfff
        5325000	       531	80006a50	007881b3	add	x3,x17,x7	 x17:0x8000a127  x7:0x00000001  x3=0x8000a128
        5335000	       532	80006a54	c8484e13	xori	x28,x16,-892	 x16:0x80009fc4 x28=0x7fff6340
        5345000	       533	80006a58	24e9b193	sltiu	x3,x19,590	 x19:0x80001c64  x3=0x00000000
        5355000	       534	80006a5c	74acb413	sltiu	x8,x25,1866	 x25:0x00000000  x8=0x00000001
        5365000	       535	80006a60	01301db3	sll	x27,x0,x19	  x0:0x00000000 x19:0x80001c64 x27=0x00000000
        5375000	       536	80006a64	64c9ff97	auipc	x31,0x64c9f	 x31=0xe4ca5a60
        5385000	       537	80006a68	ffffbe97	auipc	x29,0xffffb	 x29=0x80001a64
        5395000	       538	80006a6c	03ce8e93	addi	x29,x29,60	 x29:0x80001a64 x29=0x80001aa0
        5405000	       539	80006a70	01014ab3	xor	x21,x2,x16	  x2:0xffffdbbf x16:0x80009fc4 x21=0x7fff447b
        5415000	       540	80006a74	350e8e93	addi	x29,x29,848	 x29:0x80001aa0 x29=0x80001df0
        5425000	       541	80006a78	013e15b3	sll	x11,x28,x19	 x28:0x7fff6340 x19:0x80001c64 x11=0xfff63400
        5435000	       542	80006a7c	4069d293	srai	x5,x19,0x6	 x19:0x80001c64  x5=0xfe000071
        5445000	       543	80006a80	cb0e8367	jalr	x6,x29,-848	 x29:0x80001df0  x6=0x80006a80
        5455000	       544	00000000	00000013	addi	x0,x0,0	  x0:0x00000000
        5465000	       545	80001aa0	00000013	addi	x0,x0,0	  x0:0x00000000
        5475000	       546	80001aa4	01389f13	slli	x30,x17,0x13	 x17:0x8000a127 x30=0x09380000
        5485000	       547	80001aa8	2c5dc437	lui	x8,0x2c5dc	  x8=0x2c5dc000
        5495000	       548	80001aac	fc0b8b93	addi	x23,x23,-64	 x23:0x80009eb4 x23=0x80009e74
        5505000	       549	80001ab0	00571633	sll	x12,x14,x5	 x14:0x7fffd1bf  x5:0xfe000071 x12=0xa37e0000
        5515000	       550	80001ab4	00f79a93	slli	x21,x15,0xf	 x15:0x00000000 x21=0x00000000
        5525000	       551	80001ab8	01ea63b3	or	x7,x20,x30	 x20:0x7fffdbbf x30:0x09380000  x7=0x7fffdbbf
        5535000	       552	80001abc	406fdeb3	sra	x29,x31,x6	 x31:0xe4ca5a60  x6:0x80006a80 x29=0xe4ca5a60
        5545000	       553	80001ac0	006ba223	sw	x6,4(x23)	 x23:0x80009e74  x6:0x80006a80 PA:0x80009e78
        5555000	       554	80001ac4	512b4c93	xori	x25,x22,1298	 x22:0x7fffd1bf x25=0x7fffd4ad
        5565000	       555	80001ac8	08db3c93	sltiu	x25,x22,141	 x22:0x7fffd1bf x25=0x00000000
        5575000	       556	80001acc	00001d97	auipc	x27,0x1	 x27=0x80002ac8
        5585000	       557	80001ad0	fc0d8d93	addi	x27,x27,-64	 x27:0x80002ac8 x27=0x80002a88
        5595000	       558	80001ad4	15dd8d93	addi	x27,x27,349	 x27:0x80002a88 x27=0x80002be5
        5605000	       559	80001ad8	41875f93	srai	x31,x14,0x18	 x14:0x7fffd1bf x31=0x0000007f
        5615000	       560	80001adc	5081fd13	andi	x26,x3,1288	  x3:0x00000000 x26=0x00000000
        5625000	       561	80001ae0	4028dd13	srai	x26,x17,0x2	 x17:0x8000a127 x26=0xe0002849
        5635000	       562	80001ae4	01669713	slli	x14,x13,0x16	 x13:0x7fffdfff x14=0xffc00000
        5645000	       563	80001ae8	00b83633	sltu	x12,x16,x11	 x16:0x80009fc4 x11:0xfff63400 x12=0x00000001
        5655000	       564	80001aec	40e2d633	sra	x12,x5,x14	  x5:0xfe000071 x14:0xffc00000 x12=0xfe000071
        5665000	       565	80001af0	4129d133	sra	x2,x19,x18	 x19:0x80001c64 x18:0xf2000000  x2=0x80001c64
        5675000	       566	80001af4	01501863	bne	x0,x21,80001b04	  x0:0x00000000 x21:0x00000000
        5685000	       567	80001af8	4012db13	srai	x22,x5,0x1	  x5:0xfe000071 x22=0xff000038
        5695000	       568	80001afc	edc2d597	auipc	x11,0xedc2d	 x11=0x6dc2eaf8
        5705000	       569	80001b00	62c23513	sltiu	x10,x4,1580	  x4:0x00000000 x10=0x00000001
        5715000	       570	80001b04	ea3d8367	jalr	x6,x27,-349	 x27:0x80002be5  x6=0x80001b04
        5725000	       571	00000000	00000013	addi	x0,x0,0	  x0:0x00000000
        5735000	       572	80002a88	00000013	addi	x0,x0,0	  x0:0x00000000
        5745000	       573	80002a8c	01f3ab33	slt	x22,x7,x31	  x7:0x7fffdbbf x31:0x0000007f x22=0x00000000
        5755000	       574	80002a90	fe0b8b93	addi	x23,x23,-32	 x23:0x80009e74 x23=0x80009e54
        5765000	       575	80002a94	018546b3	xor	x13,x10,x24	 x10:0x00000001 x24:0x00000000 x13=0x00000001
        5775000	       576	80002a98	01b34533	xor	x10,x6,x27	  x6:0x80001b04 x27:0x80002be5 x10=0x000030e1
        5785000	       577	80002a9c	006ba223	sw	x6,4(x23)	 x23:0x80009e54  x6:0x80001b04 PA:0x80009e58
        5795000	       578	80002aa0	41a4dd13	srai	x26,x9,0x1a	  x9:0x80002c40 x26=0xffffffe0
        5805000	       579	80002aa4	01deaab3	slt	x21,x29,x29	 x29:0xe4ca5a60 x29:0xe4ca5a60 x21=0x00000000
        5815000	       580	80002aa8	00c81933	sll	x18,x16,x12	 x16:0x80009fc4 x12:0xfe000071 x18=0x3f880000
        5825000	       581	80002aac	00fb9c63	bne	x23,x15,80002ac4	 x23:0x80009e54 x15:0x00000000
        5835000	       582	00000000	00000013	addi	x0,x0,0	  x0:0x00000000
        5845000	       583	80002ac0	00000013	addi	x0,x0,0	  x0:0x00000000
        5855000	       584	80002ac4	01911293	slli	x5,x2,0x19	  x2:0x80001c64  x5=0xc8000000
        5865000	       585	80002ac8	0036d693	srli	x13,x13,0x3	 x13:0x00000001 x13=0x00000000
        5875000	       586	80002acc	00065863	bge	x12,x0,80002adc	 x12:0xfe000071  x0:0x00000000
        5885000	       587	80002ad0	007edc63	bge	x29,x7,80002ae8	 x29:0xe4ca5a60  x7:0x7fffdbbf
        5895000	       588	80002ad4	0150d393	srli	x7,x1,0x15	  x1:0x80000000  x7=0x00000400
        5905000	       589	80002ad8	00306eb3	or	x29,x0,x3	  x0:0x00000000  x3:0x00000000 x29=0x00000000
        5915000	       590	80002adc	01bf3ab3	sltu	x21,x30,x27	 x30:0x09380000 x27:0x80002be5 x21=0x00000001
        5925000	       591	80002ae0	01306b33	or	x22,x0,x19	  x0:0x00000000 x19:0x80001c64 x22=0x80001c64
        5935000	       592	80002ae4	019bad33	slt	x26,x23,x25	 x23:0x80009e54 x25:0x00000000 x26=0x00000001
        5945000	       593	80002ae8	b452ac93	slti	x25,x5,-1211	  x5:0xc8000000 x25=0x00000001
        5955000	       594	80002aec	017de263	bltu	x27,x23,80002af0	 x27:0x80002be5 x23:0x80009e54
        5965000	       595	00000000	00000013	addi	x0,x0,0	  x0:0x00000000
        5975000	       596	80002aec	00000013	addi	x0,x0,0	  x0:0x00000000
        5985000	       597	80002af0	00f6d713	srli	x14,x13,0xf	 x13:0x00000000 x14=0x00000000
        5995000	       598	80002af4	40fdd8b3	sra	x17,x27,x15	 x27:0x80002be5 x15:0x00000000 x17=0x80002be5
        6005000	       599	80002af8	01805493	srli	x9,x0,0x18	  x0:0x00000000  x9=0x00000000
        6015000	       600	80002afc	011123b3	slt	x7,x2,x17	  x2:0x80001c64 x17:0x80002be5  x7=0x00000001
        6025000	       601	80002b00	00348c63	beq	x9,x3,80002b18	  x9:0x00000000  x3:0x00000000
        6035000	       602	00000000	00000013	addi	x0,x0,0	  x0:0x00000000
        6045000	       603	80002b14	00000013	addi	x0,x0,0	  x0:0x00000000
        6055000	       604	80002b18	054d5863	bge	x26,x20,80002b68	 x26:0x00000001 x20:0x7fffdbbf
        6065000	       605	80002b1c	00000013	addi	x0,x0,0	  x0:0x00000000
        6075000	       606	80002b20	01b05933	srl	x18,x0,x27	  x0:0x00000000 x27:0x80002be5 x18=0x00000000
        6085000	       607	80002b24	00000013	addi	x0,x0,0	  x0:0x00000000
        6095000	       608	80002b28	003e8cb3	add	x25,x29,x3	 x29:0x00000000  x3:0x00000000 x25=0x00000000
        6105000	       609	80002b2c	09e0a313	slti	x6,x1,158	  x1:0x80000000  x6=0x00000001
        6115000	       610	80002b30	038f0c63	beq	x30,x24,80002b68	 x30:0x09380000 x24:0x00000000
        6125000	       611	80002b34	00ed9633	sll	x12,x27,x14	 x27:0x80002be5 x14:0x00000000 x12=0x80002be5
        6135000	       612	80002b38	00000013	addi	x0,x0,0	  x0:0x00000000
        6145000	       613	80002b3c	93d45d37	lui	x26,0x93d45	 x26=0x93d45000
        6155000	       614	80002b40	00375463	bge	x14,x3,80002b48	 x14:0x00000000  x3:0x00000000
        6165000	       615	00000000	00000013	addi	x0,x0,0	  x0:0x00000000
        6175000	       616	80002b44	00000013	addi	x0,x0,0	  x0:0x00000000
        6185000	       617	80002b48	02e80a63	beq	x16,x14,80002b7c	 x16:0x80009fc4 x14:0x00000000
        6195000	       618	80002b4c	001e3f33	sltu	x30,x28,x1	 x28:0x7fff6340  x1:0x80000000 x30=0x00000001
        6205000	       619	80002b50	00baadb3	slt	x27,x21,x11	 x21:0x00000001 x11:0x6dc2eaf8 x27=0x00000001
        6215000	       620	80002b54	00abe433	or	x8,x23,x10	 x23:0x80009e54 x10:0x000030e1  x8=0x8000bef5
        6225000	       621	80002b58	01d77d33	and	x26,x14,x29	 x14:0x00000000 x29:0x00000000 x26=0x00000000
        6235000	       622	80002b5c	ffe5ce17	auipc	x28,0xffe5c	 x28=0x7fe5eb58
        6245000	       623	80002b60	0166c8b3	xor	x17,x13,x22	 x13:0x00000000 x22:0x80001c64 x17=0x80001c64
        6255000	       624	80002b64	009f49b3	xor	x19,x30,x9	 x30:0x00000001  x9:0x00000000 x19=0x00000001
        6265000	       625	80002b68	47db8f93	addi	x31,x23,1149	 x23:0x80009e54 x31=0x8000a2d1
        6275000	       626	80002b6c	03d57463	bgeu	x10,x29,80002b94	 x10:0x000030e1 x29:0x00000000
        6285000	       627	00000000	00000013	addi	x0,x0,0	  x0:0x00000000
        6295000	       628	80002b90	00000013	addi	x0,x0,0	  x0:0x00000000
        6305000	       629	80002b94	7e30d637	lui	x12,0x7e30d	 x12=0x7e30d000
        6315000	       630	80002b98	005e4433	xor	x8,x28,x5	 x28:0x7fe5eb58  x5:0xc8000000  x8=0xb7e5eb58
        6325000	       631	80002b9c	001f3b33	sltu	x22,x30,x1	 x30:0x00000001  x1:0x80000000 x22=0x00000001
        6335000	       632	80002ba0	b03aba13	sltiu	x20,x21,-1277	 x21:0x00000001 x20=0x00000001
        6345000	       633	80002ba4	9c87fc93	andi	x25,x15,-1592	 x15:0x00000000 x25=0x00000000
        6355000	       634	80002ba8	00aa8a33	add	x20,x21,x10	 x21:0x00000001 x10:0x000030e1 x20=0x000030e2
        6365000	       635	80002bac	010df463	bgeu	x27,x16,80002bb4	 x27:0x00000001 x16:0x80009fc4
        6375000	       636	80002bb0	03fd4063	blt	x26,x31,80002bd0	 x26:0x00000000 x31:0x8000a2d1
        6385000	       637	80002bb4	011153b3	srl	x7,x2,x17	  x2:0x80001c64 x17:0x80001c64  x7=0x080001c6
        6395000	       638	80002bb8	04ba4063	blt	x20,x11,80002bf8	 x20:0x000030e2 x11:0x6dc2eaf8
        6405000	       639	00000000	00000013	addi	x0,x0,0	  x0:0x00000000
        6415000	       640	80002bf4	00000013	addi	x0,x0,0	  x0:0x00000000
        6425000	       641	80002bf8	40b45633	sra	x12,x8,x11	  x8:0xb7e5eb58 x11:0x6dc2eaf8 x12=0xffffffb7
        6435000	       642	80002bfc	014a3eb3	sltu	x29,x20,x20	 x20:0x000030e2 x20:0x000030e2 x29=0x00000000
        6445000	       643	80002c00	01608933	add	x18,x1,x22	  x1:0x80000000 x22:0x00000001 x18=0x80000001
        6455000	       644	80002c04	862b9197	auipc	x3,0x862b9	  x3=0x062bbc00
        6465000	       645	80002c08	cb886f13	ori	x30,x16,-840	 x16:0x80009fc4 x30=0xfffffffc
        6475000	       646	80002c0c	01c2e463	bltu	x5,x28,80002c14	  x5:0xc8000000 x28:0x7fe5eb58
        6485000	       647	80002c10	00cdd793	srli	x15,x27,0xc	 x27:0x00000001 x15=0x00000000
        6495000	       648	80002c14	e60ce217	auipc	x4,0xe60ce	  x4=0x660d0c10
        6505000	       649	80002c18	01c411b3	sll	x3,x8,x28	  x8:0xb7e5eb58 x28:0x7fe5eb58  x3=0x58000000
        6515000	       650	80002c1c	004ba303	lw	x6,4(x23)	 x23:0x80009e54  x6=0x80001b04 PA:0x80009e58
        6525000	       651	80002c20	011e9393	slli	x7,x29,0x11	 x29:0x00000000  x7=0x00000000
        6535000	       652	80002c24	00266ab3	or	x21,x12,x2	 x12:0xffffffb7  x2:0x80001c64 x21=0xfffffff7
        6545000	       653	80002c28	020b8b93	addi	x23,x23,32	 x23:0x80009e54 x23=0x80009e74
        6555000	       654	80002c2c	1b3c7517	auipc	x10,0x1b3c7	 x10=0x9b3c9c28
        6565000	       655	80002c30	01225033	srl	x0,x4,x18	  x4:0x660d0c10 x18:0x80000001
        6575000	       656	80002c34	dff9c713	xori	x14,x19,-513	 x19:0x00000001 x14=0xfffffdfe
        6585000	       657	80002c38	210ec993	xori	x19,x29,528	 x29:0x00000000 x19=0x00000210
        6595000	       658	80002c3c	00130993	addi	x19,x6,1	  x6:0x80001b04 x19=0x80001b05
        6605000	       659	80002c40	000989e7	jalr	x19,x19,0	 x19:0x80001b05 x19=0x80002c40
        6615000	       660	00000000	00000013	addi	x0,x0,0	  x0:0x00000000
        6625000	       661	80001b04	00000013	addi	x0,x0,0	  x0:0x00000000
        6635000	       662	80001b08	3c2bc737	lui	x14,0x3c2bc	 x14=0x3c2bc000
        6645000	       663	80001b0c	02467263	bgeu	x12,x4,80001b30	 x12:0xffffffb7  x4:0x660d0c10
        6655000	       664	00000000	00000013	addi	x0,x0,0	  x0:0x00000000
        6665000	       665	80001b2c	00000013	addi	x0,x0,0	  x0:0x00000000
        6675000	       666	80001b30	75d0036f	jal	x6,80001b30	  x6=0x80001b30
        6685000	       667	00000000	00000013	addi	x0,x0,0	  x0:0x00000000
        6695000	       668	80002a88	00000013	addi	x0,x0,0	  x0:0x00000000
        6705000	       669	80002a8c	01f3ab33	slt	x22,x7,x31	  x7:0x00000000 x31:0x8000a2d1 x22=0x00000000
        6715000	       670	80002a90	fe0b8b93	addi	x23,x23,-32	 x23:0x80009e74 x23=0x80009e54
        6725000	       671	80002a94	018546b3	xor	x13,x10,x24	 x10:0x9b3c9c28 x24:0x00000000 x13=0x9b3c9c28
        6735000	       672	80002a98	01b34533	xor	x10,x6,x27	  x6:0x80001b30 x27:0x00000001 x10=0x80001b31
        6745000	       673	80002a9c	006ba223	sw	x6,4(x23)	 x23:0x80009e54  x6:0x80001b30 PA:0x80009e58
        6755000	       674	80002aa0	41a4dd13	srai	x26,x9,0x1a	  x9:0x00000000 x26=0x00000000
        6765000	       675	80002aa4	01deaab3	slt	x21,x29,x29	 x29:0x00000000 x29:0x00000000 x21=0x00000000
        6775000	       676	80002aa8	00c81933	sll	x18,x16,x12	 x16:0x80009fc4 x12:0xffffffb7 x18=0xe2000000
        6785000	       677	80002aac	00fb9c63	bne	x23,x15,80002ac4	 x23:0x80009e54 x15:0x00000000
        6795000	       678	00000000	00000013	addi	x0,x0,0	  x0:0x00000000
        6805000	       679	80002ac0	00000013	addi	x0,x0,0	  x0:0x00000000
        6815000	       680	80002ac4	01911293	slli	x5,x2,0x19	  x2:0x80001c64  x5=0xc8000000
        6825000	       681	80002ac8	0036d693	srli	x13,x13,0x3	 x13:0x9b3c9c28 x13=0x13679385
        6835000	       682	80002acc	00065863	bge	x12,x0,80002adc	 x12:0xffffffb7  x0:0x00000000
        6845000	       683	80002ad0	007edc63	bge	x29,x7,80002ae8	 x29:0x00000000  x7:0x00000000
        6855000	       684	00000000	00000013	addi	x0,x0,0	  x0:0x00000000
        6865000	       685	80002ae4	00000013	addi	x0,x0,0	  x0:0x00000000
        6875000	       686	80002ae8	b452ac93	slti	x25,x5,-1211	  x5:0xc8000000 x25=0x00000001
        6885000	       687	80002aec	017de263	bltu	x27,x23,80002af0	 x27:0x00000001 x23:0x80009e54
        6895000	       688	00000000	00000013	addi	x0,x0,0	  x0:0x00000000
        6905000	       689	80002aec	00000013	addi	x0,x0,0	  x0:0x00000000
        6915000	       690	80002af0	00f6d713	srli	x14,x13,0xf	 x13:0x13679385 x14=0x000026cf
        6925000	       691	80002af4	40fdd8b3	sra	x17,x27,x15	 x27:0x00000001 x15:0x00000000 x17=0x00000001
        6935000	       692	80002af8	01805493	srli	x9,x0,0x18	  x0:0x00000000  x9=0x00000000
        6945000	       693	80002afc	011123b3	slt	x7,x2,x17	  x2:0x80001c64 x17:0x00000001  x7=0x00000001
        6955000	       694	80002b00	00348c63	beq	x9,x3,80002b18	  x9:0x00000000  x3:0x58000000
        6965000	       695	80002b04	de32a913	slti	x18,x5,-541	  x5:0xc8000000 x18=0x00000001
        6975000	       696	80002b08	4004d713	srai	x14,x9,0x0	  x9:0x00000000 x14=0x00000000
        6985000	       697	80002b0c	00b60863	beq	x12,x11,80002b1c	 x12:0xffffffb7 x11:0x6dc2eaf8
        6995000	       698	80002b10	d79ce113	ori	x2,x25,-647	 x25:0x00000001  x2=0xfffffd79
        7005000	       699	80002b14	01823d33	sltu	x26,x4,x24	  x4:0x660d0c10 x24:0x00000000 x26=0x00000000
        7015000	       700	80002b18	054d5863	bge	x26,x20,80002b68	 x26:0x00000000 x20:0x000030e2
        7025000	       701	80002b1c	00000013	addi	x0,x0,0	  x0:0x00000000
        7035000	       702	80002b20	01b05933	srl	x18,x0,x27	  x0:0x00000000 x27:0x00000001 x18=0x00000000
        7045000	       703	80002b24	00000013	addi	x0,x0,0	  x0:0x00000000
        7055000	       704	80002b28	003e8cb3	add	x25,x29,x3	 x29:0x00000000  x3:0x58000000 x25=0x58000000
        7065000	       705	80002b2c	09e0a313	slti	x6,x1,158	  x1:0x80000000  x6=0x00000001
        7075000	       706	80002b30	038f0c63	beq	x30,x24,80002b68	 x30:0xfffffffc x24:0x00000000
        7085000	       707	80002b34	00ed9633	sll	x12,x27,x14	 x27:0x00000001 x14:0x00000000 x12=0x00000001
        7095000	       708	80002b38	00000013	addi	x0,x0,0	  x0:0x00000000
        7105000	       709	80002b3c	93d45d37	lui	x26,0x93d45	 x26=0x93d45000
        7115000	       710	80002b40	00375463	bge	x14,x3,80002b48	 x14:0x00000000  x3:0x58000000
        7125000	       711	80002b44	00000013	addi	x0,x0,0	  x0:0x00000000
        7135000	       712	80002b48	02e80a63	beq	x16,x14,80002b7c	 x16:0x80009fc4 x14:0x00000000
        7145000	       713	80002b4c	001e3f33	sltu	x30,x28,x1	 x28:0x7fe5eb58  x1:0x80000000 x30=0x00000001
        7155000	       714	80002b50	00baadb3	slt	x27,x21,x11	 x21:0x00000000 x11:0x6dc2eaf8 x27=0x00000001
        7165000	       715	80002b54	00abe433	or	x8,x23,x10	 x23:0x80009e54 x10:0x80001b31  x8=0x80009f75
        7175000	       716	80002b58	01d77d33	and	x26,x14,x29	 x14:0x00000000 x29:0x00000000 x26=0x00000000
        7185000	       717	80002b5c	ffe5ce17	auipc	x28,0xffe5c	 x28=0x7fe5eb58
        7195000	       718	80002b60	0166c8b3	xor	x17,x13,x22	 x13:0x13679385 x22:0x00000000 x17=0x13679385
        7205000	       719	80002b64	009f49b3	xor	x19,x30,x9	 x30:0x00000001  x9:0x00000000 x19=0x00000001
        7215000	       720	80002b68	47db8f93	addi	x31,x23,1149	 x23:0x80009e54 x31=0x8000a2d1
        7225000	       721	80002b6c	03d57463	bgeu	x10,x29,80002b94	 x10:0x80001b31 x29:0x00000000
        7235000	       722	00000000	00000013	addi	x0,x0,0	  x0:0x00000000
        7245000	       723	80002b90	00000013	addi	x0,x0,0	  x0:0x00000000
        7255000	       724	80002b94	7e30d637	lui	x12,0x7e30d	 x12=0x7e30d000
        7265000	       725	80002b98	005e4433	xor	x8,x28,x5	 x28:0x7fe5eb58  x5:0xc8000000  x8=0xb7e5eb58
        7275000	       726	80002b9c	001f3b33	sltu	x22,x30,x1	 x30:0x00000001  x1:0x80000000 x22=0x00000001
        7285000	       727	80002ba0	b03aba13	sltiu	x20,x21,-1277	 x21:0x00000000 x20=0x00000001
        7295000	       728	80002ba4	9c87fc93	andi	x25,x15,-1592	 x15:0x00000000 x25=0x00000000
        7305000	       729	80002ba8	00aa8a33	add	x20,x21,x10	 x21:0x00000000 x10:0x80001b31 x20=0x80001b31
        7315000	       730	80002bac	010df463	bgeu	x27,x16,80002bb4	 x27:0x00000001 x16:0x80009fc4
        7325000	       731	80002bb0	03fd4063	blt	x26,x31,80002bd0	 x26:0x00000000 x31:0x8000a2d1
        7335000	       732	80002bb4	011153b3	srl	x7,x2,x17	  x2:0xfffffd79 x17:0x13679385  x7=0x07ffffeb
        7345000	       733	80002bb8	04ba4063	blt	x20,x11,80002bf8	 x20:0x80001b31 x11:0x6dc2eaf8
        7355000	       734	00000000	00000013	addi	x0,x0,0	  x0:0x00000000
        7365000	       735	80002bf4	00000013	addi	x0,x0,0	  x0:0x00000000
        7375000	       736	80002bf8	40b45633	sra	x12,x8,x11	  x8:0xb7e5eb58 x11:0x6dc2eaf8 x12=0xffffffb7
        7385000	       737	80002bfc	014a3eb3	sltu	x29,x20,x20	 x20:0x80001b31 x20:0x80001b31 x29=0x00000000
        7395000	       738	80002c00	01608933	add	x18,x1,x22	  x1:0x80000000 x22:0x00000001 x18=0x80000001
        7405000	       739	80002c04	862b9197	auipc	x3,0x862b9	  x3=0x062bbc00
        7415000	       740	80002c08	cb886f13	ori	x30,x16,-840	 x16:0x80009fc4 x30=0xfffffffc
        7425000	       741	80002c0c	01c2e463	bltu	x5,x28,80002c14	  x5:0xc8000000 x28:0x7fe5eb58
        7435000	       742	80002c10	00cdd793	srli	x15,x27,0xc	 x27:0x00000001 x15=0x00000000
        7445000	       743	80002c14	e60ce217	auipc	x4,0xe60ce	  x4=0x660d0c10
        7455000	       744	80002c18	01c411b3	sll	x3,x8,x28	  x8:0xb7e5eb58 x28:0x7fe5eb58  x3=0x58000000
        7465000	       745	80002c1c	004ba303	lw	x6,4(x23)	 x23:0x80009e54  x6=0x80001b30 PA:0x80009e58
        7475000	       746	80002c20	011e9393	slli	x7,x29,0x11	 x29:0x00000000  x7=0x00000000
        7485000	       747	80002c24	00266ab3	or	x21,x12,x2	 x12:0xffffffb7  x2:0xfffffd79 x21=0xffffffff
        7495000	       748	80002c28	020b8b93	addi	x23,x23,32	 x23:0x80009e54 x23=0x80009e74
        7505000	       749	80002c2c	1b3c7517	auipc	x10,0x1b3c7	 x10=0x9b3c9c28
        7515000	       750	80002c30	01225033	srl	x0,x4,x18	  x4:0x660d0c10 x18:0x80000001
        7525000	       751	80002c34	dff9c713	xori	x14,x19,-513	 x19:0x00000001 x14=0xfffffdfe
        7535000	       752	80002c38	210ec993	xori	x19,x29,528	 x29:0x00000000 x19=0x00000210
        7545000	       753	80002c3c	00130993	addi	x19,x6,1	  x6:0x80001b30 x19=0x80001b31
        7555000	       754	80002c40	000989e7	jalr	x19,x19,0	 x19:0x80001b31 x19=0x80002c40
        7565000	       755	00000000	00000013	addi	x0,x0,0	  x0:0x00000000
        7575000	       756	80001b30	00000013	addi	x0,x0,0	  x0:0x00000000
        7585000	       757	80001b34	02b98863	beq	x19,x11,80001b64	 x19:0x80002c40 x11:0x6dc2eaf8
        7595000	       758	80001b38	001e8863	beq	x29,x1,80001b48	 x29:0x00000000  x1:0x80000000
        7605000	       759	80001b3c	b1b80d13	addi	x26,x16,-1253	 x16:0x80009fc4 x26=0x80009adf
        7615000	       760	80001b40	f064eab7	lui	x21,0xf064e	 x21=0xf064e000
        7625000	       761	80001b44	05944463	blt	x8,x25,80001b8c	  x8:0xb7e5eb58 x25:0x00000000
        7635000	       762	00000000	00000013	addi	x0,x0,0	  x0:0x00000000
        7645000	       763	80001b88	00000013	addi	x0,x0,0	  x0:0x00000000
        7655000	       764	80001b8c	03909463	bne	x1,x25,80001bb4	  x1:0x80000000 x25:0x00000000
        7665000	       765	00000000	00000013	addi	x0,x0,0	  x0:0x00000000
        7675000	       766	80001bb0	00000013	addi	x0,x0,0	  x0:0x00000000
        7685000	       767	80001bb4	00439393	slli	x7,x7,0x4	  x7:0x00000000  x7=0x00000000
        7695000	       768	80001bb8	679d6017	auipc	x0,0x679d6	
        7705000	       769	80001bbc	4fa9a2b7	lui	x5,0x4fa9a	  x5=0x4fa9a000
        7715000	       770	80001bc0	01a858b3	srl	x17,x16,x26	 x16:0x80009fc4 x26:0x80009adf x17=0x00000001
        7725000	       771	80001bc4	411888b3	sub	x17,x17,x17	 x17:0x00000001 x17:0x00000001 x17=0x00000000
        7735000	       772	80001bc8	00c58013	addi	x0,x11,12	 x11:0x6dc2eaf8
        7745000	       773	80001bcc	01621cb3	sll	x25,x4,x22	  x4:0x660d0c10 x22:0x00000001 x25=0xcc1a1820
        7755000	       774	80001bd0	417c0d33	sub	x26,x24,x23	 x24:0x00000000 x23:0x80009e74 x26=0x7fff618c
        7765000	       775	80001bd4	419185b3	sub	x11,x3,x25	  x3:0x58000000 x25:0xcc1a1820 x11=0x8be5e7e0
        7775000	       776	80001bd8	018915b3	sll	x11,x18,x24	 x18:0x80000001 x24:0x00000000 x11=0x80000001
        7785000	       777	80001bdc	0052cc33	xor	x24,x5,x5	  x5:0x4fa9a000  x5:0x4fa9a000 x24=0x00000000
        7795000	       778	80001be0	00ea6133	or	x2,x20,x14	 x20:0x80001b31 x14:0xfffffdfe  x2=0xffffffff
        7805000	       779	80001be4	41a10a33	sub	x20,x2,x26	  x2:0xffffffff x26:0x7fff618c x20=0x80009e73
        7815000	       780	80001be8	67d56493	ori	x9,x10,1661	 x10:0x9b3c9c28  x9=0x9b3c9e7d
        7825000	       781	80001bec	16ab2013	slti	x0,x22,362	 x22:0x00000001
        7835000	       782	80001bf0	40b2d033	sra	x0,x5,x11	  x5:0x4fa9a000 x11:0x80000001
        7845000	       783	80001bf4	01bba3b3	slt	x7,x23,x27	 x23:0x80009e74 x27:0x00000001  x7=0x00000001
        7855000	       784	80001bf8	0266e663	bltu	x13,x6,80001c24	 x13:0x13679385  x6:0x80001b30
        7865000	       785	00000000	00000013	addi	x0,x0,0	  x0:0x00000000
        7875000	       786	80001c20	00000013	addi	x0,x0,0	  x0:0x00000000
        7885000	       787	80001c24	00980e63	beq	x16,x9,80001c40	 x16:0x80009fc4  x9:0x9b3c9e7d
        7895000	       788	80001c28	a1ed2413	slti	x8,x26,-1506	 x26:0x7fff618c  x8=0x00000000
        7905000	       789	80001c2c	000e5ab3	srl	x21,x28,x0	 x28:0x7fe5eb58  x0:0x00000000 x21=0x7fe5eb58
        7915000	       790	80001c30	00000013	addi	x0,x0,0	  x0:0x00000000
        7925000	       791	80001c34	0188c663	blt	x17,x24,80001c40	 x17:0x00000000 x24:0x00000000
        7935000	       792	80001c38	af657513	andi	x10,x10,-1290	 x10:0x9b3c9c28 x10=0x9b3c9820
        7945000	       793	80001c3c	41775633	sra	x12,x14,x23	 x14:0xfffffdfe x23:0x80009e74 x12=0xffffffff
        7955000	       794	80001c40	002a5533	srl	x10,x20,x2	 x20:0x80009e73  x2:0xffffffff x10=0x00000001
        7965000	       795	80001c44	004ba303	lw	x6,4(x23)	 x23:0x80009e74  x6=0x80006a80 PA:0x80009e78
        7975000	       796	80001c48	00fd41b3	xor	x3,x26,x15	 x26:0x7fff618c x15:0x00000000  x3=0x7fff618c
        7985000	       797	80001c4c	040b8b93	addi	x23,x23,64	 x23:0x80009e74 x23=0x80009eb4
        7995000	       798	80001c50	001eda93	srli	x21,x29,0x1	 x29:0x00000000 x21=0x00000000
        8005000	       799	80001c54	005ce933	or	x18,x25,x5	 x25:0xcc1a1820  x5:0x4fa9a000 x18=0xcfbbb820
        8015000	       800	80001c58	003c2233	slt	x4,x24,x3	 x24:0x00000000  x3:0x7fff618c  x4=0x00000001
        8025000	       801	80001c5c	00e77b33	and	x22,x14,x14	 x14:0xfffffdfe x14:0xfffffdfe x22=0xfffffdfe
        8035000	       802	80001c60	00030993	addi	x19,x6,0	  x6:0x80006a80 x19=0x80006a80
        8045000	       803	80001c64	000989e7	jalr	x19,x19,0	 x19:0x80006a80 x19=0x80001c64
        8055000	       804	00000000	00000013	addi	x0,x0,0	  x0:0x00000000
        8065000	       805	80006a80	00000013	addi	x0,x0,0	  x0:0x00000000
        8075000	       806	80006a84	f42fa213	slti	x4,x31,-190	 x31:0x8000a2d1  x4=0x00000001
        8085000	       807	80006a88	007605b3	add	x11,x12,x7	 x12:0xffffffff  x7:0x00000001 x11=0x00000000
        8095000	       808	80006a8c	040d8663	beq	x27,x0,80006ad8	 x27:0x00000001  x0:0x00000000
        8105000	       809	80006a90	401689b3	sub	x19,x13,x1	 x13:0x13679385  x1:0x80000000 x19=0x93679385
        8115000	       810	80006a94	00e48263	beq	x9,x14,80006a98	  x9:0x9b3c9e7d x14:0xfffffdfe
        8125000	       811	80006a98	dc46c8b7	lui	x17,0xdc46c	 x17=0xdc46c000
        8135000	       812	80006a9c	54ba9797	auipc	x15,0x54ba9	 x15=0xd4bafa98
        8145000	       813	80006aa0	00000013	addi	x0,x0,0	  x0:0x00000000
        8155000	       814	80006aa4	00000013	addi	x0,x0,0	  x0:0x00000000
        8165000	       815	80006aa8	012f3cb3	sltu	x25,x30,x18	 x30:0xfffffffc x18:0xcfbbb820 x25=0x00000000
        8175000	       816	80006aac	01681313	slli	x6,x16,0x16	 x16:0x80009fc4  x6=0xf1000000
        8185000	       817	80006ab0	00b03733	sltu	x14,x0,x11	  x0:0x00000000 x11:0x00000000 x14=0x00000000
        8195000	       818	80006ab4	c3163c13	sltiu	x24,x12,-975	 x12:0xffffffff x24=0x00000000
        8205000	       819	80006ab8	01cced33	or	x26,x25,x28	 x25:0x00000000 x28:0x7fe5eb58 x26=0x7fe5eb58
        8215000	       820	80006abc	f3efb993	sltiu	x19,x31,-194	 x31:0x8000a2d1 x19=0x00000001
        8225000	       821	80006ac0	9c873693	sltiu	x13,x14,-1592	 x14:0x00000000 x13=0x00000001
        8235000	       822	80006ac4	5dd96413	ori	x8,x18,1501	 x18:0xcfbbb820  x8=0xcfbbbdfd
        8245000	       823	80006ac8	0126f733	and	x14,x13,x18	 x13:0x00000001 x18:0xcfbbb820 x14=0x00000000
        8255000	       824	80006acc	01df69b3	or	x19,x30,x29	 x30:0xfffffffc x29:0x00000000 x19=0xfffffffc
        8265000	       825	80006ad0	01980a63	beq	x16,x25,80006ae4	 x16:0x80009fc4 x25:0x00000000
        8275000	       826	80006ad4	30c4ae13	slti	x28,x9,780	  x9:0x9b3c9e7d x28=0x00000001
        8285000	       827	80006ad8	0398ee63	bltu	x17,x25,80006b14	 x17:0xdc46c000 x25:0x00000000
        8295000	       828	80006adc	0296ec63	bltu	x13,x9,80006b14	 x13:0x00000001  x9:0x9b3c9e7d
        8305000	       829	00000000	00000013	addi	x0,x0,0	  x0:0x00000000
        8315000	       830	80006b10	00000013	addi	x0,x0,0	  x0:0x00000000
        8325000	       831	80006b14	638dfb17	auipc	x22,0x638df	 x22=0xe38e5b10
        8335000	       832	80006b18	01e3eeb3	or	x29,x7,x30	  x7:0x00000001 x30:0xfffffffc x29=0xfffffffd
        8345000	       833	80006b1c	004ba303	lw	x6,4(x23)	 x23:0x80009eb4  x6=0x80002c84 PA:0x80009eb8
        8355000	       834	00000000	00000013	addi	x0,x0,0	  x0:0x00000000
        8365000	       835	80006b20	009356b3	srl	x13,x6,x9	  x6:0x80002c84  x9:0x9b3c9e7d x13=0x00000004
        8375000	       836	80006b24	00a11a93	slli	x21,x2,0xa	  x2:0xffffffff x21=0xfffffc00
        8385000	       837	80006b28	4142d633	sra	x12,x5,x20	  x5:0x4fa9a000 x20:0x80009e73 x12=0x000009f5
        8395000	       838	80006b2c	000b1b13	slli	x22,x22,0x0	 x22:0xe38e5b10 x22=0xe38e5b10
        8405000	       839	80006b30	028b8b93	addi	x23,x23,40	 x23:0x80009eb4 x23=0x80009edc
        8415000	       840	80006b34	00f69193	slli	x3,x13,0xf	 x13:0x00000004  x3=0x00020000
        8425000	       841	80006b38	01edfdb3	and	x27,x27,x30	 x27:0x00000001 x30:0xfffffffc x27=0x00000000
        8435000	       842	80006b3c	00030593	addi	x11,x6,0	  x6:0x80002c84 x11=0x80002c84
        8445000	       843	80006b40	000585e7	jalr	x11,x11,0	 x11:0x80002c84 x11=0x80006b40
        8455000	       844	00000000	00000013	addi	x0,x0,0	  x0:0x00000000
        8465000	       845	80002c84	00000013	addi	x0,x0,0	  x0:0x00000000
        8475000	       846	80002c88	4039d2b3	sra	x5,x19,x3	 x19:0xfffffffc  x3:0x00020000  x5=0xfffffffc
        8485000	       847	80002c8c	7e4192b7	lui	x5,0x7e419	  x5=0x7e419000
        8495000	       848	80002c90	05379063	bne	x15,x19,80002cd0	 x15:0xd4bafa98 x19:0xfffffffc
        8505000	       849	00000000	00000013	addi	x0,x0,0	  x0:0x00000000
        8515000	       850	80002ccc	00000013	addi	x0,x0,0	  x0:0x00000000
        8525000	       851	80002cd0	00ed5933	srl	x18,x26,x14	 x26:0x7fe5eb58 x14:0x00000000 x18=0x7fe5eb58
        8535000	       852	80002cd4	01d9c733	xor	x14,x19,x29	 x19:0xfffffffc x29:0xfffffffd x14=0x00000001
        8545000	       853	80002cd8	04331663	bne	x6,x3,80002d24	  x6:0x80002c84  x3:0x00020000
        8555000	       854	00000000	00000013	addi	x0,x0,0	  x0:0x00000000
        8565000	       855	80002d20	00000013	addi	x0,x0,0	  x0:0x00000000
        8575000	       856	80002d24	00272e33	slt	x28,x14,x2	 x14:0x00000001  x2:0xffffffff x28=0x00000000
        8585000	       857	80002d28	41fe0633	sub	x12,x28,x31	 x28:0x00000000 x31:0x8000a2d1 x12=0x7fff5d2f
        8595000	       858	80002d2c	004d3e33	sltu	x28,x26,x4	 x26:0x7fe5eb58  x4:0x00000001 x28=0x00000000
        8605000	       859	80002d30	0131e863	bltu	x3,x19,80002d40	  x3:0x00020000 x19:0xfffffffc
        8615000	       860	00000000	00000013	addi	x0,x0,0	  x0:0x00000000
        8625000	       861	80002d3c	00000013	addi	x0,x0,0	  x0:0x00000000
        8635000	       862	80002d40	6305ac17	auipc	x24,0x6305a	 x24=0xe305cd3c
        8645000	       863	80002d44	005c6a63	bltu	x24,x5,80002d58	 x24:0xe305cd3c  x5:0x7e419000
        8655000	       864	80002d48	01343533	sltu	x10,x8,x19	  x8:0xcfbbbdfd x19:0xfffffffc x10=0x00000001
        8665000	       865	80002d4c	01cf5a93	srli	x21,x30,0x1c	 x30:0xfffffffc x21=0x0000000f
        8675000	       866	80002d50	00ec5a33	srl	x20,x24,x14	 x24:0xe305cd3c x14:0x00000001 x20=0x7182e69e
        8685000	       867	80002d54	41350733	sub	x14,x10,x19	 x10:0x00000001 x19:0xfffffffc x14=0x00000005
        8695000	       868	80002d58	e512f693	andi	x13,x5,-431	  x5:0x7e419000 x13=0x7e419000
        8705000	       869	80002d5c	006e31b3	sltu	x3,x28,x6	 x28:0x00000000  x6:0x80002c84  x3=0x00000001
        8715000	       870	80002d60	40085293	srai	x5,x16,0x0	 x16:0x80009fc4  x5=0x80009fc4
        8725000	       871	80002d64	38a2f493	andi	x9,x5,906	  x5:0x80009fc4  x9=0x00000380
        8735000	       872	80002d68	004ba303	lw	x6,4(x23)	 x23:0x80009edc  x6=0x8000041c PA:0x80009ee0
        8745000	       873	80002d6c	01899213	slli	x4,x19,0x18	 x19:0xfffffffc  x4=0xfc000000
        8755000	       874	80002d70	df17b413	sltiu	x8,x15,-527	 x15:0xd4bafa98  x8=0x00000001
        8765000	       875	80002d74	38a5eb13	ori	x22,x11,906	 x11:0x80006b40 x22=0x80006bca
        8775000	       876	80002d78	00cb8b93	addi	x23,x23,12	 x23:0x80009edc x23=0x80009ee8
        8785000	       877	80002d7c	00000013	addi	x0,x0,0	  x0:0x00000000
        8795000	       878	80002d80	00030f93	addi	x31,x6,0	  x6:0x8000041c x31=0x8000041c
        8805000	       879	80002d84	000f8fe7	jalr	x31,x31,0	 x31:0x8000041c x31=0x80002d84
        8815000	       880	00000000	00000013	addi	x0,x0,0	  x0:0x00000000
        8825000	       881	8000041c	00000013	addi	x0,x0,0	  x0:0x00000000
        8835000	       882	80000420	01955c33	srl	x24,x10,x25	 x10:0x00000001 x25:0x00000000 x24=0x00000001
        8845000	       883	80000424	01cbbab3	sltu	x21,x23,x28	 x23:0x80009ee8 x28:0x00000000 x21=0x00000000
        8855000	       884	80000428	c332c393	xori	x7,x5,-973	  x5:0x80009fc4  x7=0x7fff63f7
        8865000	       885	8000042c	00002d17	auipc	x26,0x2	 x26=0x80002428
        8875000	       886	80000430	d00d0d13	addi	x26,x26,-768	 x26:0x80002428 x26=0x80002128
        8885000	       887	80000434	fa3a3413	sltiu	x8,x20,-93	 x20:0x7182e69e  x8=0x00000001
        8895000	       888	80000438	fe8d0d13	addi	x26,x26,-24	 x26:0x80002128 x26=0x80002110
        8905000	       889	8000043c	0109a8b3	slt	x17,x19,x16	 x19:0xfffffffc x16:0x80009fc4 x17=0x00000000
        8915000	       890	80000440	018d0367	jalr	x6,x26,24	 x26:0x80002110  x6=0x80000440
        8925000	       891	00000000	00000013	addi	x0,x0,0	  x0:0x00000000
        8935000	       892	80002128	00000013	addi	x0,x0,0	  x0:0x00000000
        8945000	       893	8000212c	fc8b8b93	addi	x23,x23,-56	 x23:0x80009ee8 x23=0x80009eb0
        8955000	       894	80002130	003c3133	sltu	x2,x24,x3	 x24:0x00000001  x3:0x00000001  x2=0x00000000
        8965000	       895	80002134	0026d113	srli	x2,x13,0x2	 x13:0x7e419000  x2=0x1f906400
        8975000	       896	80002138	8d44f393	andi	x7,x9,-1836	  x9:0x00000380  x7=0x00000080
        8985000	       897	8000213c	01e35213	srli	x4,x6,0x1e	  x6:0x80000440  x4=0x00000002
        8995000	       898	80002140	01275fb3	srl	x31,x14,x18	 x14:0x00000005 x18:0x7fe5eb58 x31=0x00000000
        9005000	       899	80002144	efa7fd13	andi	x26,x15,-262	 x15:0xd4bafa98 x26=0xd4bafa98
        9015000	       900	80002148	006ba223	sw	x6,4(x23)	 x23:0x80009eb0  x6:0x80000440 PA:0x80009eb4
        9025000	       901	8000214c	001a1d33	sll	x26,x20,x1	 x20:0x7182e69e  x1:0x80000000 x26=0x7182e69e
        9035000	       902	80002150	009dddb3	srl	x27,x27,x9	 x27:0x00000000  x9:0x00000380 x27=0x00000000
        9045000	       903	80002154	6b072e93	slti	x29,x14,1712	 x14:0x00000005 x29=0x00000001
        9055000	       904	80002158	403ade33	sra	x28,x21,x3	 x21:0x00000000  x3:0x00000001 x28=0x00000000
        9065000	       905	8000215c	40bcd693	srai	x13,x25,0xb	 x25:0x00000000 x13=0x00000000
        9075000	       906	80002160	02f45a63	bge	x8,x15,80002194	  x8:0x00000001 x15:0xd4bafa98
        9085000	       907	00000000	00000013	addi	x0,x0,0	  x0:0x00000000
        9095000	       908	80002190	00000013	addi	x0,x0,0	  x0:0x00000000
        9105000	       909	80002194	78feb993	sltiu	x19,x29,1935	 x29:0x00000001 x19=0x00000001
        9115000	       910	80002198	00e44863	blt	x8,x14,800021a8	  x8:0x00000001 x14:0x00000005
        9125000	       911	00000000	00000013	addi	x0,x0,0	  x0:0x00000000
        9135000	       912	800021a4	00000013	addi	x0,x0,0	  x0:0x00000000
        9145000	       913	800021a8	408a5f93	srai	x31,x20,0x8	 x20:0x7182e69e x31=0x007182e6
        9155000	       914	800021ac	fe14f993	andi	x19,x9,-31	  x9:0x00000380 x19=0x00000380
        9165000	       915	800021b0	5a067513	andi	x10,x12,1440	 x12:0x7fff5d2f x10=0x00000520
        9175000	       916	800021b4	572d6f13	ori	x30,x26,1394	 x26:0x7182e69e x30=0x7182e7fe
        9185000	       917	800021b8	00c46e63	bltu	x8,x12,800021d4	  x8:0x00000001 x12:0x7fff5d2f
        9195000	       918	00000000	00000013	addi	x0,x0,0	  x0:0x00000000
        9205000	       919	800021d0	00000013	addi	x0,x0,0	  x0:0x00000000
        9215000	       920	800021d4	7ebace93	xori	x29,x21,2027	 x21:0x00000000 x29=0x000007eb
        9225000	       921	800021d8	00f3d733	srl	x14,x7,x15	  x7:0x00000080 x15:0xd4bafa98 x14=0x00000000
        9235000	       922	800021dc	042c8663	beq	x25,x2,80002228	 x25:0x00000000  x2:0x1f906400
        9245000	       923	800021e0	fe95a597	auipc	x11,0xfe95a	 x11=0x7e95c1dc
        9255000	       924	800021e4	ac03c313	xori	x6,x7,-1344	  x7:0x00000080  x6=0xfffffa40
        9265000	       925	800021e8	40ac8db3	sub	x27,x25,x10	 x25:0x00000000 x10:0x00000520 x27=0xfffffae0
        9275000	       926	800021ec	017024b3	slt	x9,x0,x23	  x0:0x00000000 x23:0x80009eb0  x9=0x00000000
        9285000	       927	800021f0	04750263	beq	x10,x7,80002234	 x10:0x00000520  x7:0x00000080
        9295000	       928	800021f4	00b29863	bne	x5,x11,80002204	  x5:0x80009fc4 x11:0x7e95c1dc
        9305000	       929	00000000	00000013	addi	x0,x0,0	  x0:0x00000000
        9315000	       930	80002200	00000013	addi	x0,x0,0	  x0:0x00000000
        9325000	       931	80002204	698c4f13	xori	x30,x24,1688	 x24:0x00000001 x30=0x00000699
        9335000	       932	80002208	0209c863	blt	x19,x0,80002238	 x19:0x00000380  x0:0x00000000
        9345000	       933	8000220c	01499613	slli	x12,x19,0x14	 x19:0x00000380 x12=0x38000000
        9355000	       934	80002210	01b89c13	slli	x24,x17,0x1b	 x17:0x00000000 x24=0x00000000
        9365000	       935	80002214	015e02b3	add	x5,x28,x21	 x28:0x00000000 x21:0x00000000  x5=0x00000000
        9375000	       936	80002218	4096db13	srai	x22,x13,0x9	 x13:0x00000000 x22=0x00000000
        9385000	       937	8000221c	77d7bc93	sltiu	x25,x15,1917	 x15:0xd4bafa98 x25=0x00000000
        9395000	       938	80002220	01fd83b3	add	x7,x27,x31	 x27:0xfffffae0 x31:0x007182e6  x7=0x00717dc6
        9405000	       939	80002224	a882ca13	xori	x20,x5,-1400	  x5:0x00000000 x20=0xfffffa88
        9415000	       940	80002228	40bd5a13	srai	x20,x26,0xb	 x26:0x7182e69e x20=0x000e305c
        9425000	       941	8000222c	fe6c7b13	andi	x22,x24,-26	 x24:0x00000000 x22=0x00000000
        9435000	       942	80002230	03b6ca63	blt	x13,x27,80002264	 x13:0x00000000 x27:0xfffffae0
        9445000	       943	80002234	028a1e63	bne	x20,x8,80002270	 x20:0x000e305c  x8:0x00000001
        9455000	       944	00000000	00000013	addi	x0,x0,0	  x0:0x00000000
        9465000	       945	8000226c	00000013	addi	x0,x0,0	  x0:0x00000000
        9475000	       946	80002270	00575c33	srl	x24,x14,x5	 x14:0x00000000  x5:0x00000000 x24=0x00000000
        9485000	       947	80002274	00331e63	bne	x6,x3,80002290	  x6:0xfffffa40  x3:0x00000001
        9495000	       948	00000000	00000013	addi	x0,x0,0	  x0:0x00000000
        9505000	       949	8000228c	00000013	addi	x0,x0,0	  x0:0x00000000
        9515000	       950	80002290	00c63433	sltu	x8,x12,x12	 x12:0x38000000 x12:0x38000000  x8=0x00000000
        9525000	       951	80002294	1b577437	lui	x8,0x1b577	  x8=0x1b577000
        9535000	       952	80002298	017a4733	xor	x14,x20,x23	 x20:0x000e305c x23:0x80009eb0 x14=0x800eaeec
        9545000	       953	8000229c	04f0c663	blt	x1,x15,800022e8	  x1:0x80000000 x15:0xd4bafa98
        9555000	       954	00000000	00000013	addi	x0,x0,0	  x0:0x00000000
        9565000	       955	800022e4	00000013	addi	x0,x0,0	  x0:0x00000000
        9575000	       956	800022e8	3b7a4e93	xori	x29,x20,951	 x20:0x000e305c x29=0x000e33eb
        9585000	       957	800022ec	26137713	andi	x14,x6,609	  x6:0xfffffa40 x14=0x00000240
        9595000	       958	800022f0	02a3d663	bge	x7,x10,8000231c	  x7:0x00717dc6 x10:0x00000520
        9605000	       959	00000000	00000013	addi	x0,x0,0	  x0:0x00000000
        9615000	       960	80002318	00000013	addi	x0,x0,0	  x0:0x00000000
        9625000	       961	8000231c	dd214793	xori	x15,x2,-558	  x2:0x1f906400 x15=0xe06f99d2
        9635000	       962	80002320	41eb5693	srai	x13,x22,0x1e	 x22:0x00000000 x13=0x00000000
        9645000	       963	80002324	004ba303	lw	x6,4(x23)	 x23:0x80009eb0  x6=0x80000440 PA:0x80009eb4
        9655000	       964	80002328	019fa733	slt	x14,x31,x25	 x31:0x007182e6 x25:0x00000000 x14=0x00000000
        9665000	       965	8000232c	00f33733	sltu	x14,x6,x15	  x6:0x80000440 x15:0xe06f99d2 x14=0x00000001
        9675000	       966	80002330	b7130393	addi	x7,x6,-1167	  x6:0x80000440  x7=0x7fffffb1
        9685000	       967	80002334	038b8b93	addi	x23,x23,56	 x23:0x80009eb0 x23=0x80009ee8
        9695000	       968	80002338	dd8da693	slti	x13,x27,-552	 x27:0xfffffae0 x13=0x00000001
        9705000	       969	8000233c	00130e93	addi	x29,x6,1	  x6:0x80000440 x29=0x80000441
        9715000	       970	80002340	000e8ee7	jalr	x29,x29,0	 x29:0x80000441 x29=0x80002340
        9725000	       971	00000000	00000013	addi	x0,x0,0	  x0:0x00000000
        9735000	       972	80000440	00000013	addi	x0,x0,0	  x0:0x00000000
        9745000	       973	80000444	00008117	auipc	x2,0x8	  x2=0x80008440
        9755000	       974	80000448	6c410113	addi	x2,x2,1732	  x2:0x80008440  x2=0x80008b04
        9765000	       975	8000044c	6c448e93	addi	x29,x9,1732	  x9:0x00000000 x29=0x000006c4
        9775000	       976	80000450	8474fc93	andi	x25,x9,-1977	  x9:0x00000000 x25=0x00000000
        9785000	       977	80000454	41b68233	sub	x4,x13,x27	 x13:0x00000001 x27:0xfffffae0  x4=0x00000521
        9795000	       978	80000458	2dbaca37	lui	x20,0x2dbac	 x20=0x2dbac000
        9805000	       979	8000045c	000b2d33	slt	x26,x22,x0	 x22:0x00000000  x0:0x00000000 x26=0x00000000
        9815000	       980	80000460	fac10ca3	sb	x12,-71(x2)	  x2:0x80008b04 x12:0x38000000 PA:0x80008abd
        9825000	       981	80000464	f1510703	lb	x14,-235(x2)	  x2:0x80008b04 x14=0x00000002 PA:0x80008a19
        9835000	       982	80000468	028104a3	sb	x8,41(x2)	  x2:0x80008b04  x8:0x1b577000 PA:0x80008b2d
        9845000	       983	8000046c	0ba15503	lhu	x10,186(x2)	  x2:0x80008b04 x10=0x0000a4a5 PA:0x80008bbe
        9855000	       984	80000470	013f86b3	add	x13,x31,x19	 x31:0x007182e6 x19:0x00000380 x13=0x00718666
        9865000	       985	80000474	01862933	slt	x18,x12,x24	 x12:0x38000000 x24:0x00000000 x18=0x00000000
        9875000	       986	80000478	051104a3	sb	x17,73(x2)	  x2:0x80008b04 x17:0x00000000 PA:0x80008b4d
        9885000	       987	8000047c	03410f03	lb	x30,52(x2)	  x2:0x80008b04 x30=0x00000023 PA:0x80008b38
        9895000	       988	80000480	fc114203	lbu	x4,-63(x2)	  x2:0x80008b04  x4=0x000000ae PA:0x80008ac5
        9905000	       989	00000000	00000013	addi	x0,x0,0	  x0:0x00000000
        9915000	       990	80000484	0040d233	srl	x4,x1,x4	  x1:0x80000000  x4:0x000000ae  x4=0x00020000
        9925000	       991	80000488	396a5317	auipc	x6,0x396a5	  x6=0xb96a5484
        9935000	       992	8000048c	f6c11283	lh	x5,-148(x2)	  x2:0x80008b04  x5=0x00005a5b PA:0x80008a70
        9945000	       993	80000490	4133dc93	srai	x25,x7,0x13	  x7:0x7fffffb1 x25=0x00000fff
        9955000	       994	80000494	40ff8f33	sub	x30,x31,x15	 x31:0x007182e6 x15:0xe06f99d2 x30=0x2001e914
        9965000	       995	80000498	09710503	lb	x10,151(x2)	  x2:0x80008b04 x10=0xffffff80 PA:0x80008b9b
        9975000	       996	8000049c	0151c7b3	xor	x15,x3,x21	  x3:0x00000001 x21:0x00000000 x15=0x00000001
        9985000	       997	800004a0	0149ecb3	or	x25,x19,x20	 x19:0x00000380 x20:0x2dbac000 x25=0x2dbac380
        9995000	       998	800004a4	0bf108a3	sb	x31,177(x2)	  x2:0x80008b04 x31:0x007182e6 PA:0x80008bb5
       10005000	       999	800004a8	2660ea93	ori	x21,x1,614	  x1:0x80000000 x21=0x80000266
       10015000	      1000	800004ac	0fe10fa3	sb	x30,255(x2)	  x2:0x80008b04 x30:0x2001e914 PA:0x80008c03
       10025000	      1001	800004b0	0e314303	lbu	x6,227(x2)	  x2:0x80008b04  x6=0x000000cc PA:0x80008be7
       10035000	      1002	800004b4	b5d3ab13	slti	x22,x7,-1187	  x7:0x7fffffb1 x22=0x00000000
       10045000	      1003	800004b8	007145b3	xor	x11,x2,x7	  x2:0x80008b04  x7:0x7fffffb1 x11=0xffff74b5
       10055000	      1004	800004bc	007c8333	add	x6,x25,x7	 x25:0x2dbac380  x7:0x7fffffb1  x6=0xadbac331
       10065000	      1005	800004c0	f7d10d83	lb	x27,-131(x2)	  x2:0x80008b04 x27=0x0000006a PA:0x80008a81
       10075000	      1006	800004c4	018e5613	srli	x12,x28,0x18	 x28:0x00000000 x12=0x00000000
       10085000	      1007	800004c8	92714293	xori	x5,x2,-1753	  x2:0x80008b04  x5=0x7fff7223
       10095000	      1008	800004cc	00000013	addi	x0,x0,0	  x0:0x00000000
       10105000	      1009	800004d0	4141b693	sltiu	x13,x3,1044	  x3:0x00000001 x13=0x00000001
       10115000	      1010	800004d4	008bf7b3	and	x15,x23,x8	 x23:0x80009ee8  x8:0x1b577000 x15=0x00001000
       10125000	      1011	800004d8	0edcb413	sltiu	x8,x25,237	 x25:0x2dbac380  x8=0x00000000
       10135000	      1012	800004dc	0176e733	or	x14,x13,x23	 x13:0x00000001 x23:0x80009ee8 x14=0x80009ee9
       10145000	      1013	800004e0	00f473b3	and	x7,x8,x15	  x8:0x00000000 x15:0x00001000  x7=0x00000000
       10155000	      1014	800004e4	fc1102a3	sb	x1,-59(x2)	  x2:0x80008b04  x1:0x80000000 PA:0x80008ac9
       10165000	      1015	800004e8	5508edb7	lui	x27,0x5508e	 x27=0x5508e000
       10175000	      1016	800004ec	eddc2393	slti	x7,x24,-291	 x24:0x00000000  x7=0x00000000
       10185000	      1017	800004f0	0d611023	sh	x22,192(x2)	  x2:0x80008b04 x22:0x00000000 PA:0x80008bc4
       10195000	      1018	800004f4	9b15f797	auipc	x15,0x9b15f	 x15=0x1b15f4f0
       10205000	      1019	800004f8	01d45633	srl	x12,x8,x29	  x8:0x00000000 x29:0x000006c4 x12=0x00000000
       10215000	      1020	800004fc	411681b3	sub	x3,x13,x17	 x13:0x00000001 x17:0x00000000  x3=0x00000001
       10225000	      1021	80000500	0b810783	lb	x15,184(x2)	  x2:0x80008b04 x15=0xffffffa7 PA:0x80008bbc
       10235000	      1022	80000504	f1e10b23	sb	x30,-234(x2)	  x2:0x80008b04 x30:0x2001e914 PA:0x80008a1a
       10245000	      1023	80000508	00008717	auipc	x14,0x8	 x14=0x80008504
       10255000	      1024	8000050c	f8370713	addi	x14,x14,-125	 x14:0x80008504 x14=0x80008487
       10265000	      1025	80000510	fce74d83	lbu	x27,-50(x14)	 x14:0x80008487 x27=0x0000000e PA:0x80008455
       10275000	      1026	80000514	04f71103	lh	x2,79(x14)	 x14:0x80008487  x2=0xffff8c8d PA:0x800084d6
       10285000	      1027	80000518	012e5793	srli	x15,x28,0x12	 x28:0x00000000 x15=0x00000000
       10295000	      1028	8000051c	f0971ba3	sh	x9,-233(x14)	 x14:0x80008487  x9:0x00000000 PA:0x8000839e
       10305000	      1029	80000520	09971683	lh	x13,153(x14)	 x14:0x80008487 x13=0xffffdadb PA:0x80008520
       10315000	      1030	80000524	5df26d13	ori	x26,x4,1503	  x4:0x00020000 x26=0x000205df
       10325000	      1031	80000528	05a70423	sb	x26,72(x14)	 x14:0x80008487 x26:0x000205df PA:0x800084cf
       10335000	      1032	8000052c	01f05213	srli	x4,x0,0x1f	  x0:0x00000000  x4=0x00000000
       10345000	      1033	80000530	faa70603	lb	x12,-86(x14)	 x14:0x80008487 x12=0xffffffea PA:0x80008431
       10355000	      1034	80000534	ff670c83	lb	x25,-10(x14)	 x14:0x80008487 x25=0x00000036 PA:0x8000847d
       10365000	      1035	80000538	0b070223	sb	x16,164(x14)	 x14:0x80008487 x16:0x80009fc4 PA:0x8000852b
       10375000	      1036	8000053c	09c70583	lb	x11,156(x14)	 x14:0x80008487 x11=0xffffffd8 PA:0x80008523
       10385000	      1037	80000540	019b12b3	sll	x5,x22,x25	 x22:0x00000000 x25:0x00000036  x5=0x00000000
       10395000	      1038	80000544	f9774c83	lbu	x25,-105(x14)	 x14:0x80008487 x25=0x000000d5 PA:0x8000841e
       10405000	      1039	80000548	0da70e03	lb	x28,218(x14)	 x14:0x80008487 x28=0x0000001a PA:0x80008561
       10415000	      1040	8000054c	03870d03	lb	x26,56(x14)	 x14:0x80008487 x26=0x00000074 PA:0x800084bf
       10425000	      1041	80000550	fb670c83	lb	x25,-74(x14)	 x14:0x80008487 x25=0xfffffff6 PA:0x8000843d
       10435000	      1042	80000554	04c74c83	lbu	x25,76(x14)	 x14:0x80008487 x25=0x00000088 PA:0x800084d3
       10445000	      1043	80000558	401359b3	sra	x19,x6,x1	  x6:0xadbac331  x1:0x80000000 x19=0xadbac331
       10455000	      1044	8000055c	fa074b03	lbu	x22,-96(x14)	 x14:0x80008487 x22=0x000000dc PA:0x80008427
       10465000	      1045	80000560	40c65c93	srai	x25,x12,0xc	 x12:0xffffffea x25=0xffffffff
       10475000	      1046	80000564	0ac70aa3	sb	x12,181(x14)	 x14:0x80008487 x12:0xffffffea PA:0x8000853c
       10485000	      1047	80000568	00bda133	slt	x2,x27,x11	 x27:0x0000000e x11:0xffffffd8  x2=0x00000000
       10495000	      1048	8000056c	05c708a3	sb	x28,81(x14)	 x14:0x80008487 x28:0x0000001a PA:0x800084d8
       10505000	      1049	80000570	f5c70e03	lb	x28,-164(x14)	 x14:0x80008487 x28=0xffffff98 PA:0x800083e3
       10515000	      1050	00000000	00000013	addi	x0,x0,0	  x0:0x00000000
       10525000	      1051	80000574	0bc70403	lb	x8,188(x14)	 x14:0x80008487  x8=0xfffffff8 PA:0x80008543
       10535000	      1052	80000578	61c8b4b7	lui	x9,0x61c8b	  x9=0x61c8b000
       10545000	      1053	8000057c	4150df33	sra	x30,x1,x21	  x1:0x80000000 x21:0x80000266 x30=0xfe000000
       10555000	      1054	80000580	410dd3b3	sra	x7,x27,x16	 x27:0x0000000e x16:0x80009fc4  x7=0x00000000
       10565000	      1055	80000584	072703a3	sb	x18,103(x14)	 x14:0x80008487 x18:0x00000000 PA:0x800084ee
       10575000	      1056	80000588	00008597	auipc	x11,0x8	 x11=0x80008584
       10585000	      1057	8000058c	20b58593	addi	x11,x11,523	 x11:0x80008584 x11=0x8000878f
       10595000	      1058	80000590	0045c703	lbu	x14,4(x11)	 x11:0x8000878f x14=0x00000048 PA:0x80008793
       10605000	      1059	80000594	ff858f83	lb	x31,-8(x11)	 x11:0x8000878f x31=0x0000003c PA:0x80008787
       10615000	      1060	80000598	ff658883	lb	x17,-10(x11)	 x11:0x8000878f x17=0x0000003e PA:0x80008785
       10625000	      1061	8000059c	a07ca793	slti	x15,x25,-1529	 x25:0xffffffff x15=0x00000000
       10635000	      1062	800005a0	01258523	sb	x18,10(x11)	 x11:0x8000878f x18:0x00000000 PA:0x80008799
       10645000	      1063	800005a4	ffa58603	lb	x12,-6(x11)	 x11:0x8000878f x12=0x00000042 PA:0x80008789
       10655000	      1064	800005a8	010585a3	sb	x16,11(x11)	 x11:0x8000878f x16:0x80009fc4 PA:0x8000879a
       10665000	      1065	800005ac	ff258483	lb	x9,-14(x11)	 x11:0x8000878f  x9=0x0000003a PA:0x80008781
       10675000	      1066	800005b0	fff58e83	lb	x29,-1(x11)	 x11:0x8000878f x29=0x00000045 PA:0x8000878e
       10685000	      1067	800005b4	00359383	lh	x7,3(x11)	 x11:0x8000878f  x7=0x00004849 PA:0x80008792
       10695000	      1068	800005b8	00b7a933	slt	x18,x15,x11	 x15:0x00000000 x11:0x8000878f x18=0x00000000
       10705000	      1069	800005bc	00fd01b3	add	x3,x26,x15	 x26:0x00000074 x15:0x00000000  x3=0x00000074
       10715000	      1070	800005c0	ff358f23	sb	x19,-2(x11)	 x11:0x8000878f x19:0xadbac331 PA:0x8000878d
       10725000	      1071	800005c4	ff05a8a3	sw	x16,-15(x11)	 x11:0x8000878f x16:0x80009fc4 PA:0x80008780
       10735000	      1072	800005c8	01e593a3	sh	x30,7(x11)	 x11:0x8000878f x30:0xfe000000 PA:0x80008796
       10745000	      1073	800005cc	fe459ea3	sh	x4,-3(x11)	 x11:0x8000878f  x4:0x00000000 PA:0x8000878c
       10755000	      1074	800005d0	ff358b03	lb	x22,-13(x11)	 x11:0x8000878f x22=0x00000000 PA:0x80008782
       10765000	      1075	800005d4	dc5ab793	sltiu	x15,x21,-571	 x21:0x80000266 x15=0x00000001
       10775000	      1076	800005d8	01da4633	xor	x12,x20,x29	 x20:0x2dbac000 x29:0x00000045 x12=0x2dbac045
       10785000	      1077	800005dc	0035cd83	lbu	x27,3(x11)	 x11:0x8000878f x27=0x00000049 PA:0x80008792
       10795000	      1078	800005e0	599d4a13	xori	x20,x26,1433	 x26:0x00000074 x20=0x000005ed
       10805000	      1079	800005e4	0165a6a3	sw	x22,13(x11)	 x11:0x8000878f x22:0x00000000 PA:0x8000879c
       10815000	      1080	800005e8	00a82633	slt	x12,x16,x10	 x16:0x80009fc4 x10:0xffffff80 x12=0x00000001
       10825000	      1081	800005ec	0028bab3	sltu	x21,x17,x2	 x17:0x0000003e  x2:0x00000000 x21=0x00000000
       10835000	      1082	800005f0	011db6b3	sltu	x13,x27,x17	 x27:0x00000049 x17:0x0000003e x13=0x00000000
       10845000	      1083	800005f4	003d28b3	slt	x17,x26,x3	 x26:0x00000074  x3:0x00000074 x17=0x00000000
       10855000	      1084	800005f8	f9fcea13	ori	x20,x25,-97	 x25:0xffffffff x20=0xffffffff
       10865000	      1085	800005fc	00658183	lb	x3,6(x11)	 x11:0x8000878f  x3=0x0000004e PA:0x80008795
       10875000	      1086	80000600	d08cfa93	andi	x21,x25,-760	 x25:0xffffffff x21=0xfffffd08
       10885000	      1087	80000604	ff758da3	sb	x23,-5(x11)	 x11:0x8000878f x23:0x80009ee8 PA:0x8000878a
       10895000	      1088	80000608	9989e793	ori	x15,x19,-1640	 x19:0xadbac331 x15=0xfffffbb9
       10905000	      1089	8000060c	01367213	andi	x4,x12,19	 x12:0x00000001  x4=0x00000001
       10915000	      1090	80000610	01d81993	slli	x19,x16,0x1d	 x16:0x80009fc4 x19=0x80000000
       10925000	      1091	80000614	00d595a3	sh	x13,11(x11)	 x11:0x8000878f x13:0x00000000 PA:0x8000879a
       10935000	      1092	80000618	fec58f23	sb	x12,-2(x11)	 x11:0x8000878f x12:0x00000001 PA:0x8000878d
       10945000	      1093	8000061c	e1affc93	andi	x25,x31,-486	 x31:0x0000003c x25=0x00000018
       10955000	      1094	80000620	ffd58c23	sb	x29,-8(x11)	 x11:0x8000878f x29:0x00000045 PA:0x80008787
       10965000	      1095	80000624	9fc9c793	xori	x15,x19,-1540	 x19:0x80000000 x15=0x7ffff9fc
       10975000	      1096	80000628	ff85aaa3	sw	x24,-11(x11)	 x11:0x8000878f x24:0x00000000 PA:0x80008784
       10985000	      1097	8000062c	197ff697	auipc	x13,0x197ff	 x13=0x997ff628
       10995000	      1098	80000630	50598393	addi	x7,x19,1285	 x19:0x80000000  x7=0x80000505
       11005000	      1099	80000634	0181eab3	or	x21,x3,x24	  x3:0x0000004e x24:0x00000000 x21=0x0000004e
       11015000	      1100	80000638	00358323	sb	x3,6(x11)	 x11:0x8000878f  x3:0x0000004e PA:0x80008795
       11025000	      1101	8000063c	ff258f83	lb	x31,-14(x11)	 x11:0x8000878f x31=0xffffff9f PA:0x80008781
       11035000	      1102	80000640	00008217	auipc	x4,0x8	  x4=0x8000863c
       11045000	      1103	80000644	a8220213	addi	x4,x4,-1406	  x4:0x8000863c  x4=0x800080be
       11055000	      1104	80000648	8701a497	auipc	x9,0x8701a	  x9=0x0701a644
       11065000	      1105	8000064c	26720d23	sb	x7,634(x4)	  x4:0x800080be  x7:0x80000505 PA:0x80008338
       11075000	      1106	80000650	cf73a637	lui	x12,0xcf73a	 x12=0xcf73a000
       11085000	      1107	80000654	2a721523	sh	x7,682(x4)	  x4:0x800080be  x7:0x80000505 PA:0x80008368
       11095000	      1108	80000658	2e124a03	lbu	x20,737(x4)	  x4:0x800080be x20=0x00000000 PA:0x8000839f
       11105000	      1109	8000065c	00724d03	lbu	x26,7(x4)	  x4:0x800080be x26=0x0000007e PA:0x800080c5
       11115000	      1110	80000660	27b20603	lb	x12,635(x4)	  x4:0x800080be x12=0xfffffff2 PA:0x80008339
       11125000	      1111	80000664	01429cb3	sll	x25,x5,x20	  x5:0x00000000 x20:0x00000000 x25=0x00000000
       11135000	      1112	80000668	00e22883	lw	x17,14(x4)	  x4:0x800080be x17=0x84858687 PA:0x800080cc
       11145000	      1113	8000066c	01dd1d93	slli	x27,x26,0x1d	 x26:0x0000007e x27=0xc0000000
       11155000	      1114	80000670	01e481b3	add	x3,x9,x30	  x9:0x0701a644 x30:0xfe000000  x3=0x0501a644
       11165000	      1115	80000674	6b524403	lbu	x8,1717(x4)	  x4:0x800080be  x8=0x00000028 PA:0x80008773
       11175000	      1116	80000678	e4622013	slti	x0,x4,-442	  x4:0x800080be
       11185000	      1117	8000067c	01197e93	andi	x29,x18,17	 x18:0x00000000 x29=0x00000000
       11195000	      1118	80000680	51b204a3	sb	x27,1289(x4)	  x4:0x800080be x27:0xc0000000 PA:0x800085c7
       11205000	      1119	80000684	fcf20f03	lb	x30,-49(x4)	  x4:0x800080be x30=0x00000046 PA:0x8000808d
       11215000	      1120	80000688	6b3205a3	sb	x19,1707(x4)	  x4:0x800080be x19:0x80000000 PA:0x80008769
       11225000	      1121	8000068c	6a820ba3	sb	x8,1719(x4)	  x4:0x800080be  x8:0x00000028 PA:0x80008775
       11235000	      1122	80000690	e32ff4b7	lui	x9,0xe32ff	  x9=0xe32ff000
       11245000	      1123	80000694	40621f23	sh	x6,1054(x4)	  x4:0x800080be  x6:0xadbac331 PA:0x800084dc
       11255000	      1124	80000698	4d3209a3	sb	x19,1235(x4)	  x4:0x800080be x19:0x80000000 PA:0x80008591
       11265000	      1125	8000069c	23420383	lb	x7,564(x4)	  x4:0x800080be  x7=0xffffffa9 PA:0x800082f2
       11275000	      1126	800006a0	69124303	lbu	x6,1681(x4)	  x4:0x800080be  x6=0x00000004 PA:0x8000874f
       11285000	      1127	800006a4	5af20a93	addi	x21,x4,1455	  x4:0x800080be x21=0x8000866d
       11295000	      1128	800006a8	0141dab3	srl	x21,x3,x20	  x3:0x0501a644 x20:0x00000000 x21=0x0501a644
       11305000	      1129	800006ac	00397db3	and	x27,x18,x3	 x18:0x00000000  x3:0x0501a644 x27=0x00000000
       11315000	      1130	800006b0	4fe20ca3	sb	x30,1273(x4)	  x4:0x800080be x30:0x00000046 PA:0x800085b7
       11325000	      1131	800006b4	0a824703	lbu	x14,168(x4)	  x4:0x800080be x14=0x0000001d PA:0x80008166
       11335000	      1132	800006b8	0cdfe793	ori	x15,x31,205	 x31:0xffffff9f x15=0xffffffdf
       11345000	      1133	800006bc	20724d03	lbu	x26,519(x4)	  x4:0x800080be x26=0x0000007e PA:0x800082c5
       11355000	      1134	800006c0	48520e83	lb	x29,1157(x4)	  x4:0x800080be x29=0xfffffff8 PA:0x80008543
       11365000	      1135	800006c4	0084b033	sltu	x0,x9,x8	  x9:0xe32ff000  x8:0x00000028
       11375000	      1136	800006c8	017e9013	slli	x0,x29,0x17	 x29:0xfffffff8
       11385000	      1137	800006cc	01ba5a33	srl	x20,x20,x27	 x20:0x00000000 x27:0x00000000 x20=0x00000000
       11395000	      1138	800006d0	00277e33	and	x28,x14,x2	 x14:0x0000001d  x2:0x00000000 x28=0x00000000
       11405000	      1139	800006d4	4091d593	srai	x11,x3,0x9	  x3:0x0501a644 x11=0x000280d3
       11415000	      1140	800006d8	3dbfe513	ori	x10,x31,987	 x31:0xffffff9f x10=0xffffffdf
       11425000	      1141	800006dc	2bb20783	lb	x15,699(x4)	  x4:0x800080be x15=0x00000032 PA:0x80008379
       11435000	      1142	800006e0	3c820783	lb	x15,968(x4)	  x4:0x800080be x15=0x0000003d PA:0x80008486
       11445000	      1143	800006e4	a8b1f893	andi	x17,x3,-1397	  x3:0x0501a644 x17=0x0501a200
       11455000	      1144	800006e8	39920fa3	sb	x25,927(x4)	  x4:0x800080be x25:0x00000000 PA:0x8000845d
       11465000	      1145	800006ec	08922323	sw	x9,134(x4)	  x4:0x800080be  x9:0xe32ff000 PA:0x80008144
       11475000	      1146	800006f0	00009f17	auipc	x30,0x9	 x30=0x800096ec
       11485000	      1147	800006f4	8c0f0f13	addi	x30,x30,-1856	 x30:0x800096ec x30=0x80008fac
       11495000	      1148	800006f8	0068ad33	slt	x26,x17,x6	 x17:0x0501a200  x6:0x00000004 x26=0x00000000
       11505000	      1149	800006fc	000f1483	lh	x9,0(x30)	 x30:0x80008fac  x9=0xffff9697 PA:0x80008fac
       11515000	      1150	80000700	014f0b33	add	x22,x30,x20	 x30:0x80008fac x20:0x00000000 x22=0x80008fac
       11525000	      1151	80000704	0bd5e193	ori	x3,x11,189	 x11:0x000280d3  x3=0x000280ff
       11535000	      1152	80000708	002f2823	sw	x2,16(x30)	 x30:0x80008fac  x2:0x00000000 PA:0x80008fbc
       11545000	      1153	8000070c	007f0b03	lb	x22,7(x30)	 x30:0x80008fac x22=0xffffff98 PA:0x80008fb3
       11555000	      1154	80000710	01a431b3	sltu	x3,x8,x26	  x8:0x00000028 x26:0x00000000  x3=0x00000000
       11565000	      1155	80000714	ff2f1883	lh	x17,-14(x30)	 x30:0x80008fac x17=0xffff8485 PA:0x80008f9e
       11575000	      1156	80000718	ff8f1483	lh	x9,-8(x30)	 x30:0x80008fac  x9=0xffff8e8f PA:0x80008fa4
       11585000	      1157	8000071c	936a12b7	lui	x5,0x936a1	  x5=0x936a1000
       11595000	      1158	80000720	53fb1697	auipc	x13,0x53fb1	 x13=0xd3fb171c
       11605000	      1159	80000724	00e96ab3	or	x21,x18,x14	 x18:0x00000000 x14:0x0000001d x21=0x0000001d
       11615000	      1160	80000728	ffdf0d83	lb	x27,-3(x30)	 x30:0x80008fac x27=0xffffff92 PA:0x80008fa9
       11625000	      1161	8000072c	013f06a3	sb	x19,13(x30)	 x30:0x80008fac x19:0x80000000 PA:0x80008fb9
       11635000	      1162	80000730	00000013	addi	x0,x0,0	  x0:0x00000000
       11645000	      1163	80000734	ff4f2203	lw	x4,-12(x30)	 x30:0x80008fac  x4=0x88898a8b PA:0x80008fa0
       11655000	      1164	80000738	21d13a37	lui	x20,0x21d13	 x20=0x21d13000
       11665000	      1165	8000073c	00bf1723	sh	x11,14(x30)	 x30:0x80008fac x11:0x000280d3 PA:0x80008fba
       11675000	      1166	80000740	b0eb8893	addi	x17,x23,-1266	 x23:0x80009ee8 x17=0x800099f6
       11685000	      1167	80000744	ffcf0383	lb	x7,-4(x30)	 x30:0x80008fac  x7=0xffffff93 PA:0x80008fa8
       11695000	      1168	80000748	011c7b33	and	x22,x24,x17	 x24:0x00000000 x17:0x800099f6 x22=0x00000000
       11705000	      1169	8000074c	ff7f4683	lbu	x13,-9(x30)	 x30:0x80008fac x13=0x00000088 PA:0x80008fa3
       11715000	      1170	00000000	00000013	addi	x0,x0,0	  x0:0x00000000
       11725000	      1171	80000750	00df0683	lb	x13,13(x30)	 x30:0x80008fac x13=0x00000000 PA:0x80008fb9
       11735000	      1172	80000754	ff5f0d03	lb	x26,-11(x30)	 x30:0x80008fac x26=0xffffff8a PA:0x80008fa1
       11745000	      1173	80000758	00bf0b03	lb	x22,11(x30)	 x30:0x80008fac x22=0xffffff9c PA:0x80008fb7
       11755000	      1174	8000075c	00d3d933	srl	x18,x7,x13	  x7:0xffffff93 x13:0x00000000 x18=0xffffff93
       11765000	      1175	80000760	00af4483	lbu	x9,10(x30)	 x30:0x80008fac  x9=0x0000009d PA:0x80008fb6
       11775000	      1176	80000764	ffcf1e83	lh	x29,-4(x30)	 x30:0x80008fac x29=0xffff9293 PA:0x80008fa8
       11785000	      1177	80000768	00008e17	auipc	x28,0x8	 x28=0x80008764
       11795000	      1178	8000076c	2a3e0e13	addi	x28,x28,675	 x28:0x80008764 x28=0x80008a07
       11805000	      1179	80000770	fb0e0a83	lb	x21,-80(x28)	 x28:0x80008a07 x21=0xffffff9c PA:0x800089b7
       11815000	      1180	80000774	00265333	srl	x6,x12,x2	 x12:0xfffffff2  x2:0x00000000  x6=0xfffffff2
       11825000	      1181	80000778	00f16cb3	or	x25,x2,x15	  x2:0x00000000 x15:0x0000003d x25=0x0000003d
       11835000	      1182	8000077c	6f5cad93	slti	x27,x25,1781	 x25:0x0000003d x27=0x00000001
       11845000	      1183	80000780	f46e4e83	lbu	x29,-186(x28)	 x28:0x80008a07 x29=0x00000036 PA:0x8000894d
       11855000	      1184	80000784	00dbba33	sltu	x20,x23,x13	 x23:0x80009ee8 x13:0x00000000 x20=0x00000000
       11865000	      1185	80000788	15217b37	lui	x22,0x15217	 x22=0x15217000
       11875000	      1186	8000078c	41888733	sub	x14,x17,x24	 x17:0x800099f6 x24:0x00000000 x14=0x800099f6
       11885000	      1187	80000790	e4d33f13	sltiu	x30,x6,-435	  x6:0xfffffff2 x30=0x00000000
       11895000	      1188	80000794	0774c893	xori	x17,x9,119	  x9:0x0000009d x17=0x000000ea
       11905000	      1189	80000798	0109ba33	sltu	x20,x19,x16	 x19:0x80000000 x16:0x80009fc4 x20=0x00000001
       11915000	      1190	8000079c	0e3e1d83	lh	x27,227(x28)	 x28:0x80008a07 x27=0xffffd0d1 PA:0x80008aea
       11925000	      1191	800007a0	00000013	addi	x0,x0,0	  x0:0x00000000
       11935000	      1192	800007a4	40fd02b3	sub	x5,x26,x15	 x26:0xffffff8a x15:0x0000003d  x5=0xffffff4d
       11945000	      1193	800007a8	0123bb33	sltu	x22,x7,x18	  x7:0xffffff93 x18:0xffffff93 x22=0x00000000
       11955000	      1194	800007ac	f7333f13	sltiu	x30,x6,-141	  x6:0xfffffff2 x30=0x00000000
       11965000	      1195	800007b0	00000013	addi	x0,x0,0	  x0:0x00000000
       11975000	      1196	800007b4	016637b3	sltu	x15,x12,x22	 x12:0xfffffff2 x22:0x00000000 x15=0x00000000
       11985000	      1197	800007b8	015107b3	add	x15,x2,x21	  x2:0x00000000 x21:0xffffff9c x15=0xffffff9c
       11995000	      1198	800007bc	40a8d713	srai	x14,x17,0xa	 x17:0x000000ea x14=0x00000000
       12005000	      1199	800007c0	0f7e4183	lbu	x3,247(x28)	 x28:0x80008a07  x3=0x000000e5 PA:0x80008afe
       12015000	      1200	800007c4	01031793	slli	x15,x6,0x10	  x6:0xfffffff2 x15=0xfff20000
       12025000	      1201	800007c8	010e7cb3	and	x25,x28,x16	 x28:0x80008a07 x16:0x80009fc4 x25=0x80008a04
       12035000	      1202	800007cc	0e9e18a3	sh	x9,241(x28)	 x28:0x80008a07  x9:0x0000009d PA:0x80008af8
       12045000	      1203	800007d0	01ac0033	add	x0,x24,x26	 x24:0x00000000 x26:0xffffff8a
       12055000	      1204	800007d4	015a8533	add	x10,x21,x21	 x21:0xffffff9c x21:0xffffff9c x10=0xffffff38
       12065000	      1205	800007d8	083e0783	lb	x15,131(x28)	 x28:0x80008a07 x15=0x00000071 PA:0x80008a8a
       12075000	      1206	800007dc	44ccf593	andi	x11,x25,1100	 x25:0x80008a04 x11=0x00000004
       12085000	      1207	800007e0	e0d97993	andi	x19,x18,-499	 x18:0xffffff93 x19=0xfffffe01
       12095000	      1208	800007e4	4e71bf93	sltiu	x31,x3,1255	  x3:0x000000e5 x31=0x00000001
       12105000	      1209	800007e8	fbae0383	lb	x7,-70(x28)	 x28:0x80008a07  x7=0xffffffaa PA:0x800089c1
       12115000	      1210	800007ec	fe3e4003	lbu	x0,-29(x28)	 x28:0x80008a07 PA:0x800089ea
       12125000	      1211	800007f0	27d3cf97	auipc	x31,0x27d3c	 x31=0xa7d3c7ec
       12135000	      1212	800007f4	0136fc33	and	x24,x13,x19	 x13:0x00000000 x19:0xfffffe01 x24=0x00000000
       12145000	      1213	800007f8	0c0e0023	sb	x0,192(x28)	 x28:0x80008a07  x0:0x00000000 PA:0x80008ac7
       12155000	      1214	800007fc	01ca5393	srli	x7,x20,0x1c	 x20:0x00000001  x7=0x00000000
       12165000	      1215	80000800	641eca37	lui	x20,0x641ec	 x20=0x641ec000
       12175000	      1216	80000804	d4a9cb13	xori	x22,x19,-694	 x19:0xfffffe01 x22=0x0000034b
       12185000	      1217	80000808	012af8b3	and	x17,x21,x18	 x21:0xffffff9c x18:0xffffff93 x17=0xffffff90
       12195000	      1218	8000080c	0a0e0f83	lb	x31,160(x28)	 x28:0x80008a07 x31=0xffffff8c PA:0x80008aa7
       12205000	      1219	80000810	00ef4233	xor	x4,x30,x14	 x30:0x00000000 x14:0x00000000  x4=0x00000000
       12215000	      1220	80000814	009c6e33	or	x28,x24,x9	 x24:0x00000000  x9:0x0000009d x28=0x0000009d
       12225000	      1221	80000818	0093adb3	slt	x27,x7,x9	  x7:0x00000000  x9:0x0000009d x27=0x00000001
       12235000	      1222	8000081c	011f8cb3	add	x25,x31,x17	 x31:0xffffff8c x17:0xffffff90 x25=0xffffff1c
       12245000	      1223	80000820	dbb7ca93	xori	x21,x15,-581	 x15:0x00000071 x21=0xfffffdca
       12255000	      1224	80000824	00c97533	and	x10,x18,x12	 x18:0xffffff93 x12:0xfffffff2 x10=0xffffff92
       12265000	      1225	80000828	018edc13	srli	x24,x29,0x18	 x29:0x00000036 x24=0x00000000
       12275000	      1226	8000082c	00f68633	add	x12,x13,x15	 x13:0x00000000 x15:0x00000071 x12=0x00000071
       12285000	      1227	80000830	cb5a3613	sltiu	x12,x20,-843	 x20:0x641ec000 x12=0x00000001
       12295000	      1228	80000834	6e77bf13	sltiu	x30,x15,1767	 x15:0x00000071 x30=0x00000001
       12305000	      1229	80000838	fa84a993	slti	x19,x9,-88	  x9:0x0000009d x19=0x00000000
       12315000	      1230	8000083c	0191c333	xor	x6,x3,x25	  x3:0x000000e5 x25:0xffffff1c  x6=0xfffffff9
       12325000	      1231	80000840	019771b3	and	x3,x14,x25	 x14:0x00000000 x25:0xffffff1c  x3=0x00000000
       12335000	      1232	80000844	b92eb937	lui	x18,0xb92eb	 x18=0xb92eb000
       12345000	      1233	80000848	411bdeb3	sra	x29,x23,x17	 x23:0x80009ee8 x17:0xffffff90 x29=0xffff8000
       12355000	      1234	8000084c	007001b3	add	x3,x0,x7	  x0:0x00000000  x7:0x00000000  x3=0x00000000
       12365000	      1235	80000850	006047b3	xor	x15,x0,x6	  x0:0x00000000  x6:0xfffffff9 x15=0xfffffff9
       12375000	      1236	80000854	00891533	sll	x10,x18,x8	 x18:0xb92eb000  x8:0x00000028 x10=0x2eb00000
       12385000	      1237	80000858	000c16b3	sll	x13,x24,x0	 x24:0x00000000  x0:0x00000000 x13=0x00000000
       12395000	      1238	8000085c	015775b3	and	x11,x14,x21	 x14:0x00000000 x21:0xfffffdca x11=0x00000000
       12405000	      1239	80000860	00d9d8b3	srl	x17,x19,x13	 x19:0x00000000 x13:0x00000000 x17=0x00000000
       12415000	      1240	80000864	43beea93	ori	x21,x29,1083	 x29:0xffff8000 x21=0xffff843b
       12425000	      1241	80000868	00cbde13	srli	x28,x23,0xc	 x23:0x80009ee8 x28=0x00080009
       12435000	      1242	8000086c	0e6b6663	bltu	x22,x6,80000958	 x22:0x0000034b  x6:0xfffffff9
       12445000	      1243	00000000	00000013	addi	x0,x0,0	  x0:0x00000000
       12455000	      1244	80000954	00000013	addi	x0,x0,0	  x0:0x00000000
       12465000	      1245	80000958	01694013	xori	x0,x18,22	 x18:0xb92eb000
       12475000	      1246	8000095c	00d631b3	sltu	x3,x12,x13	 x12:0x00000001 x13:0x00000000  x3=0x00000000
       12485000	      1247	80000960	04575863	bge	x14,x5,800009b0	 x14:0x00000000  x5:0xffffff4d
       12495000	      1248	00000000	00000013	addi	x0,x0,0	  x0:0x00000000
       12505000	      1249	800009ac	00000013	addi	x0,x0,0	  x0:0x00000000
       12515000	      1250	800009b0	00865693	srli	x13,x12,0x8	 x12:0x00000001 x13=0x00000000
       12525000	      1251	800009b4	00b11793	slli	x15,x2,0xb	  x2:0x00000000 x15=0x00000000
       12535000	      1252	800009b8	40fc5a33	sra	x20,x24,x15	 x24:0x00000000 x15:0x00000000 x20=0x00000000
       12545000	      1253	800009bc	4851a513	slti	x10,x3,1157	  x3:0x00000000 x10=0x00000001
       12555000	      1254	800009c0	00c69f13	slli	x30,x13,0xc	 x13:0x00000000 x30=0x00000000
       12565000	      1255	800009c4	014d3cb3	sltu	x25,x26,x20	 x26:0xffffff8a x20:0x00000000 x25=0x00000000
       12575000	      1256	800009c8	02147263	bgeu	x8,x1,800009ec	  x8:0x00000028  x1:0x80000000
       12585000	      1257	800009cc	e487bd93	sltiu	x27,x15,-440	 x15:0x00000000 x27=0x00000001
       12595000	      1258	800009d0	000e09b3	add	x19,x28,x0	 x28:0x00080009  x0:0x00000000 x19=0x00080009
       12605000	      1259	800009d4	fb65b213	sltiu	x4,x11,-74	 x11:0x00000000  x4=0x00000001
       12615000	      1260	800009d8	41f1d5b3	sra	x11,x3,x31	  x3:0x00000000 x31:0xffffff8c x11=0x00000000
       12625000	      1261	800009dc	4075d733	sra	x14,x11,x7	 x11:0x00000000  x7:0x00000000 x14=0x00000000
       12635000	      1262	800009e0	009776b3	and	x13,x14,x9	 x14:0x00000000  x9:0x0000009d x13=0x00000000
       12645000	      1263	800009e4	01ea1a63	bne	x20,x30,800009f8	 x20:0x00000000 x30:0x00000000
       12655000	      1264	800009e8	4082d193	srai	x3,x5,0x8	  x5:0xffffff4d  x3=0xffffffff
       12665000	      1265	800009ec	0166c9b3	xor	x19,x13,x22	 x13:0x00000000 x22:0x0000034b x19=0x0000034b
       12675000	      1266	800009f0	711a6d13	ori	x26,x20,1809	 x20:0x00000000 x26=0x00000711
       12685000	      1267	800009f4	40dd5a93	srai	x21,x26,0xd	 x26:0x00000711 x21=0x00000000
       12695000	      1268	800009f8	0076c9b3	xor	x19,x13,x7	 x13:0x00000000  x7:0x00000000 x19=0x00000000
       12705000	      1269	800009fc	02b0dc63	bge	x1,x11,80000a34	  x1:0x80000000 x11:0x00000000
       12715000	      1270	80000a00	49226a93	ori	x21,x4,1170	  x4:0x00000001 x21=0x00000493
       12725000	      1271	80000a04	00000013	addi	x0,x0,0	  x0:0x00000000
       12735000	      1272	80000a08	00000013	addi	x0,x0,0	  x0:0x00000000
       12745000	      1273	80000a0c	49a0d717	auipc	x14,0x49a0d	 x14=0xc9a0da08
       12755000	      1274	80000a10	003b7263	bgeu	x22,x3,80000a14	 x22:0x0000034b  x3:0xffffffff
       12765000	      1275	80000a14	01535eb3	srl	x29,x6,x21	  x6:0xfffffff9 x21:0x00000493 x29=0x00001fff
       12775000	      1276	80000a18	00585c33	srl	x24,x16,x5	 x16:0x80009fc4  x5:0xffffff4d x24=0x00040004
       12785000	      1277	80000a1c	01c44663	blt	x8,x28,80000a28	  x8:0x00000028 x28:0x00080009
       12795000	      1278	00000000	00000013	addi	x0,x0,0	  x0:0x00000000
       12805000	      1279	80000a24	00000013	addi	x0,x0,0	  x0:0x00000000
       12815000	      1280	80000a28	c66eb013	sltiu	x0,x29,-922	 x29:0x00001fff
       12825000	      1281	80000a2c	01aa4b33	xor	x22,x20,x26	 x20:0x00000000 x26:0x00000711 x22=0x00000711
       12835000	      1282	80000a30	018d4633	xor	x12,x26,x24	 x26:0x00000711 x24:0x00040004 x12=0x00040715
       12845000	      1283	80000a34	01962c33	slt	x24,x12,x25	 x12:0x00040715 x25:0x00000000 x24=0x00000000
       12855000	      1284	80000a38	47e46593	ori	x11,x8,1150	  x8:0x00000028 x11=0x0000047e
       12865000	      1285	80000a3c	e5e0bd37	lui	x26,0xe5e0b	 x26=0xe5e0b000
       12875000	      1286	80000a40	02f58463	beq	x11,x15,80000a68	 x11:0x0000047e x15:0x00000000
       12885000	      1287	80000a44	035ef263	bgeu	x29,x21,80000a68	 x29:0x00001fff x21:0x00000493
       12895000	      1288	00000000	00000013	addi	x0,x0,0	  x0:0x00000000
       12905000	      1289	80000a64	00000013	addi	x0,x0,0	  x0:0x00000000
       12915000	      1290	80000a68	41a35c93	srai	x25,x6,0x1a	  x6:0xfffffff9 x25=0xffffffff
       12925000	      1291	80000a6c	12ca4b13	xori	x22,x20,300	 x20:0x00000000 x22=0x0000012c
       12935000	      1292	80000a70	34796393	ori	x7,x18,839	 x18:0xb92eb000  x7=0xb92eb347
       12945000	      1293	80000a74	024f5e63	bge	x30,x4,80000ab0	 x30:0x00000000  x4:0x00000001
       12955000	      1294	80000a78	001b5c13	srli	x24,x22,0x1	 x22:0x0000012c x24=0x00000096
       12965000	      1295	80000a7c	9a2205b7	lui	x11,0x9a220	 x11=0x9a220000
       12975000	      1296	80000a80	77a84613	xori	x12,x16,1914	 x16:0x80009fc4 x12=0x800098be
       12985000	      1297	80000a84	04bbc263	blt	x23,x11,80000ac8	 x23:0x80009ee8 x11:0x9a220000
       12995000	      1298	00000000	00000013	addi	x0,x0,0	  x0:0x00000000
       13005000	      1299	80000ac4	00000013	addi	x0,x0,0	  x0:0x00000000
       13015000	      1300	80000ac8	010a5c93	srli	x25,x20,0x10	 x20:0x00000000 x25=0x00000000
       13025000	      1301	80000acc	f57c2493	slti	x9,x24,-169	 x24:0x00000096  x9=0x00000000
       13035000	      1302	80000ad0	00000013	addi	x0,x0,0	  x0:0x00000000
       13045000	      1303	80000ad4	019d75b3	and	x11,x26,x25	 x26:0xe5e0b000 x25:0x00000000 x11=0x00000000
       13055000	      1304	80000ad8	0033d033	srl	x0,x7,x3	  x7:0xb92eb347  x3:0xffffffff
       13065000	      1305	80000adc	d58eee37	lui	x28,0xd58ee	 x28=0xd58ee000
       13075000	      1306	80000ae0	00d95033	srl	x0,x18,x13	 x18:0xb92eb000 x13:0x00000000
       13085000	      1307	80000ae4	ba3bbc13	sltiu	x24,x23,-1117	 x23:0x80009ee8 x24=0x00000001
       13095000	      1308	80000ae8	00e82cb3	slt	x25,x16,x14	 x16:0x80009fc4 x14:0xc9a0da08 x25=0x00000001
       13105000	      1309	80000aec	02dd0663	beq	x26,x13,80000b18	 x26:0xe5e0b000 x13:0x00000000
       13115000	      1310	80000af0	00331613	slli	x12,x6,0x3	  x6:0xfffffff9 x12=0xffffffc8
       13125000	      1311	80000af4	2e19ef13	ori	x30,x19,737	 x19:0x00000000 x30=0x000002e1
       13135000	      1312	80000af8	0433d463	bge	x7,x3,80000b40	  x7:0xb92eb347  x3:0xffffffff
       13145000	      1313	80000afc	8a061537	lui	x10,0x8a061	 x10=0x8a061000
       13155000	      1314	80000b00	91894293	xori	x5,x18,-1768	 x18:0xb92eb000  x5=0x46d14918
       13165000	      1315	80000b04	ab6c7f93	andi	x31,x24,-1354	 x24:0x00000001 x31=0x00000000
       13175000	      1316	80000b08	00d69a33	sll	x20,x13,x13	 x13:0x00000000 x13:0x00000000 x20=0x00000000
       13185000	      1317	80000b0c	019781b3	add	x3,x15,x25	 x15:0x00000000 x25:0x00000001  x3=0x00000001
       13195000	      1318	80000b10	00b50d33	add	x26,x10,x11	 x10:0x8a061000 x11:0x00000000 x26=0x8a061000
       13205000	      1319	80000b14	02e6f463	bgeu	x13,x14,80000b3c	 x13:0x00000000 x14:0xc9a0da08
       13215000	      1320	80000b18	00000013	addi	x0,x0,0	  x0:0x00000000
       13225000	      1321	80000b1c	049ee663	bltu	x29,x9,80000b68	 x29:0x00001fff  x9:0x00000000
       13235000	      1322	80000b20	00a624b3	slt	x9,x12,x10	 x12:0xffffffc8 x10:0x8a061000  x9=0x00000000
       13245000	      1323	80000b24	00e897b3	sll	x15,x17,x14	 x17:0x00000000 x14:0xc9a0da08 x15=0x00000000
       13255000	      1324	80000b28	405d0133	sub	x2,x26,x5	 x26:0x8a061000  x5:0x46d14918  x2=0x4334c6e8
       13265000	      1325	80000b2c	0008f2b3	and	x5,x17,x0	 x17:0x00000000  x0:0x00000000  x5=0x00000000
       13275000	      1326	80000b30	005dffb3	and	x31,x27,x5	 x27:0x00000001  x5:0x00000000 x31=0x00000000
       13285000	      1327	80000b34	0054eab3	or	x21,x9,x5	  x9:0x00000000  x5:0x00000000 x21=0x00000000
       13295000	      1328	80000b38	01d38c33	add	x24,x7,x29	  x7:0xb92eb347 x29:0x00001fff x24=0xb92ed346
       13305000	      1329	80000b3c	9660af93	slti	x31,x1,-1690	  x1:0x80000000 x31=0x00000001
       13315000	      1330	80000b40	005adf33	srl	x30,x21,x5	 x21:0x00000000  x5:0x00000000 x30=0x00000000
       13325000	      1331	80000b44	0120ad33	slt	x26,x1,x18	  x1:0x80000000 x18:0xb92eb000 x26=0x00000001
       13335000	      1332	80000b48	02ddc463	blt	x27,x13,80000b70	 x27:0x00000001 x13:0x00000000
       13345000	      1333	80000b4c	6ebee717	auipc	x14,0x6ebee	 x14=0xeebeeb48
       13355000	      1334	80000b50	5c3b3c37	lui	x24,0x5c3b3	 x24=0x5c3b3000
       13365000	      1335	80000b54	9e6d6c13	ori	x24,x26,-1562	 x26:0x00000001 x24=0xfffff9e7
       13375000	      1336	80000b58	10fd4e93	xori	x29,x26,271	 x26:0x00000001 x29=0x0000010e
       13385000	      1337	80000b5c	548f7cb7	lui	x25,0x548f7	 x25=0x548f7000
       13395000	      1338	80000b60	00133db3	sltu	x27,x6,x1	  x6:0xfffffff9  x1:0x80000000 x27=0x00000000
       13405000	      1339	80000b64	20904f93	xori	x31,x0,521	  x0:0x00000000 x31=0x00000209
       13415000	      1340	80000b68	86152613	slti	x12,x10,-1951	 x10:0x8a061000 x12=0x00000001
       13425000	      1341	80000b6c	f265a213	slti	x4,x11,-218	 x11:0x00000000  x4=0x00000000
       13435000	      1342	80000b70	5af73593	sltiu	x11,x14,1455	 x14:0xeebeeb48 x11=0x00000000
       13445000	      1343	80000b74	dcc46017	auipc	x0,0xdcc46	
       13455000	      1344	80000b78	01458c63	beq	x11,x20,80000b90	 x11:0x00000000 x20:0x00000000
       13465000	      1345	00000000	00000013	addi	x0,x0,0	  x0:0x00000000
       13475000	      1346	80000b8c	00000013	addi	x0,x0,0	  x0:0x00000000
       13485000	      1347	80000b90	00687863	bgeu	x16,x6,80000ba0	 x16:0x80009fc4  x6:0xfffffff9
       13495000	      1348	80000b94	401b8e33	sub	x28,x23,x1	 x23:0x80009ee8  x1:0x80000000 x28=0x00009ee8
       13505000	      1349	80000b98	6a12c893	xori	x17,x5,1697	  x5:0x00000000 x17=0x000006a1
       13515000	      1350	80000b9c	028e0c63	beq	x28,x8,80000bd4	 x28:0x00009ee8  x8:0x00000028
       13525000	      1351	80000ba0	00061133	sll	x2,x12,x0	 x12:0x00000001  x0:0x00000000  x2=0x00000001
       13535000	      1352	80000ba4	181d41b7	lui	x3,0x181d4	  x3=0x181d4000
       13545000	      1353	80000ba8	00000013	addi	x0,x0,0	  x0:0x00000000
       13555000	      1354	80000bac	044ee663	bltu	x29,x4,80000bf8	 x29:0x0000010e  x4:0x00000000
       13565000	      1355	80000bb0	02e99663	bne	x19,x14,80000bdc	 x19:0x00000000 x14:0xeebeeb48
       13575000	      1356	00000000	00000013	addi	x0,x0,0	  x0:0x00000000
       13585000	      1357	80000bd8	00000013	addi	x0,x0,0	  x0:0x00000000
       13595000	      1358	80000bdc	04fe5263	bge	x28,x15,80000c20	 x28:0x00009ee8 x15:0x00000000
       13605000	      1359	00000000	00000013	addi	x0,x0,0	  x0:0x00000000
       13615000	      1360	80000c1c	00000013	addi	x0,x0,0	  x0:0x00000000
       13625000	      1361	80000c20	e3acee13	ori	x28,x25,-454	 x25:0x548f7000 x28=0xfffffe3a
       13635000	      1362	80000c24	01d1b1b3	sltu	x3,x3,x29	  x3:0x181d4000 x29:0x0000010e  x3=0x00000000
       13645000	      1363	80000c28	4e107993	andi	x19,x0,1249	  x0:0x00000000 x19=0x00000000
       13655000	      1364	80000c2c	017b64b3	or	x9,x22,x23	 x22:0x0000012c x23:0x80009ee8  x9=0x80009fec
       13665000	      1365	80000c30	027a7c63	bgeu	x20,x7,80000c68	 x20:0x00000000  x7:0xb92eb347
       13675000	      1366	80000c34	04240263	beq	x8,x2,80000c78	  x8:0x00000028  x2:0x00000001
       13685000	      1367	80000c38	01ed8263	beq	x27,x30,80000c3c	 x27:0x00000000 x30:0x00000000
       13695000	      1368	00000000	00000013	addi	x0,x0,0	  x0:0x00000000
       13705000	      1369	80000c38	00000013	addi	x0,x0,0	  x0:0x00000000
       13715000	      1370	80000c3c	40460c33	sub	x24,x12,x4	 x12:0x00000001  x4:0x00000000 x24=0x00000001
       13725000	      1371	80000c40	02f10263	beq	x2,x15,80000c64	  x2:0x00000001 x15:0x00000000
       13735000	      1372	80000c44	a0a82013	slti	x0,x16,-1526	 x16:0x80009fc4
       13745000	      1373	80000c48	419ad993	srai	x19,x21,0x19	 x21:0x00000000 x19=0x00000000
       13755000	      1374	80000c4c	5acdfc93	andi	x25,x27,1452	 x27:0x00000000 x25=0x00000000
       13765000	      1375	80000c50	002e28b3	slt	x17,x28,x2	 x28:0xfffffe3a  x2:0x00000001 x17=0x00000001
       13775000	      1376	80000c54	7fde7993	andi	x19,x28,2045	 x28:0xfffffe3a x19=0x00000638
       13785000	      1377	80000c58	01191d33	sll	x26,x18,x17	 x18:0xb92eb000 x17:0x00000001 x26=0x725d6000
       13795000	      1378	80000c5c	00de0db3	add	x27,x28,x13	 x28:0xfffffe3a x13:0x00000000 x27=0xfffffe3a
       13805000	      1379	80000c60	00309533	sll	x10,x1,x3	  x1:0x80000000  x3:0x00000000 x10=0x80000000
       13815000	      1380	80000c64	038ad463	bge	x21,x24,80000c8c	 x21:0x00000000 x24:0x00000001
       13825000	      1381	80000c68	4254cc17	auipc	x24,0x4254c	 x24=0xc254cc64
       13835000	      1382	80000c6c	baa8aa13	slti	x20,x17,-1110	 x17:0x00000001 x20=0x00000000
       13845000	      1383	80000c70	056c6263	bltu	x24,x22,80000cb4	 x24:0xc254cc64 x22:0x0000012c
       13855000	      1384	80000c74	9fcc3913	sltiu	x18,x24,-1540	 x24:0xc254cc64 x18=0x00000001
       13865000	      1385	80000c78	0192bfb3	sltu	x31,x5,x25	  x5:0x00000000 x25:0x00000000 x31=0x00000000
       13875000	      1386	80000c7c	c8543913	sltiu	x18,x8,-891	  x8:0x00000028 x18=0x00000001
       13885000	      1387	80000c80	00963c33	sltu	x24,x12,x9	 x12:0x00000001  x9:0x80009fec x24=0x00000001
       13895000	      1388	80000c84	40585a93	srai	x21,x16,0x5	 x16:0x80009fc4 x21=0xfc0004fe
       13905000	      1389	80000c88	e2916e93	ori	x29,x2,-471	  x2:0x00000001 x29=0xfffffe29
       13915000	      1390	80000c8c	01344133	xor	x2,x8,x19	  x8:0x00000028 x19:0x00000638  x2=0x00000610
       13925000	      1391	80000c90	8d3d6313	ori	x6,x26,-1837	 x26:0x725d6000  x6=0xfffff8d3
       13935000	      1392	80000c94	00539613	slli	x12,x7,0x5	  x7:0xb92eb347 x12=0x25d668e0
       13945000	      1393	80000c98	00b445b3	xor	x11,x8,x11	  x8:0x00000028 x11:0x00000000 x11=0x00000028
       13955000	      1394	80000c9c	29c87a17	auipc	x20,0x29c87	 x20=0xa9c87c98
       13965000	      1395	80000ca0	05d5f663	bgeu	x11,x29,80000cec	 x11:0x00000028 x29:0xfffffe29
       13975000	      1396	80000ca4	04f64863	blt	x12,x15,80000cf4	 x12:0x25d668e0 x15:0x00000000
       13985000	      1397	80000ca8	01d7acb3	slt	x25,x15,x29	 x15:0x00000000 x29:0xfffffe29 x25=0x00000000
       13995000	      1398	80000cac	40f20f33	sub	x30,x4,x15	  x4:0x00000000 x15:0x00000000 x30=0x00000000
       14005000	      1399	80000cb0	038f1663	bne	x30,x24,80000cdc	 x30:0x00000000 x24:0x00000001
       14015000	      1400	00000000	00000013	addi	x0,x0,0	  x0:0x00000000
       14025000	      1401	80000cd8	00000013	addi	x0,x0,0	  x0:0x00000000
       14035000	      1402	80000cdc	133bbb13	sltiu	x22,x23,307	 x23:0x80009ee8 x22=0x00000000
       14045000	      1403	80000ce0	eb50c893	xori	x17,x1,-331	  x1:0x80000000 x17=0x7ffffeb5
       14055000	      1404	80000ce4	b79a0217	auipc	x4,0xb79a0	  x4=0x379a0ce0
       14065000	      1405	80000ce8	037f7263	bgeu	x30,x23,80000d0c	 x30:0x00000000 x23:0x80009ee8
       14075000	      1406	80000cec	0104f2b3	and	x5,x9,x16	  x9:0x80009fec x16:0x80009fc4  x5=0x80009fc4
       14085000	      1407	80000cf0	019dce33	xor	x28,x27,x25	 x27:0xfffffe3a x25:0x00000000 x28=0xfffffe3a
       14095000	      1408	80000cf4	013d9413	slli	x8,x27,0x13	 x27:0xfffffe3a  x8=0xf1d00000
       14105000	      1409	80000cf8	b8af4313	xori	x6,x30,-1142	 x30:0x00000000  x6=0xfffffb8a
       14115000	      1410	80000cfc	013f1663	bne	x30,x19,80000d08	 x30:0x00000000 x19:0x00000638
       14125000	      1411	00000000	00000013	addi	x0,x0,0	  x0:0x00000000
       14135000	      1412	80000d04	00000013	addi	x0,x0,0	  x0:0x00000000
       14145000	      1413	80000d08	385f3493	sltiu	x9,x30,901	 x30:0x00000000  x9=0x00000001
       14155000	      1414	80000d0c	00a89d93	slli	x27,x17,0xa	 x17:0x7ffffeb5 x27=0xfffad400
       14165000	      1415	80000d10	00002697	auipc	x13,0x2	 x13=0x80002d0c
       14175000	      1416	80000d14	70868693	addi	x13,x13,1800	 x13:0x80002d0c x13=0x80003414
       14185000	      1417	80000d18	ba8db993	sltiu	x19,x27,-1112	 x27:0xfffad400 x19=0x00000001
       14195000	      1418	80000d1c	2bd68693	addi	x13,x13,701	 x13:0x80003414 x13=0x800036d1
       14205000	      1419	80000d20	6add4793	xori	x15,x26,1709	 x26:0x725d6000 x15=0x725d66ad
       14215000	      1420	80000d24	01fe1913	slli	x18,x28,0x1f	 x28:0xfffffe3a x18=0x00000000
       14225000	      1421	80000d28	00a371b3	and	x3,x6,x10	  x6:0xfffffb8a x10:0x80000000  x3=0x80000000
       14235000	      1422	80000d2c	00000013	addi	x0,x0,0	  x0:0x00000000
       14245000	      1423	80000d30	11958e37	lui	x28,0x11958	 x28=0x11958000
       14255000	      1424	80000d34	00b849b3	xor	x19,x16,x11	 x16:0x80009fc4 x11:0x00000028 x19=0x80009fec
       14265000	      1425	80000d38	d4468367	jalr	x6,x13,-700	 x13:0x800036d1  x6=0x80000d38
       14275000	      1426	00000000	00000013	addi	x0,x0,0	  x0:0x00000000
       14285000	      1427	80003414	00000013	addi	x0,x0,0	  x0:0x00000000
       14295000	      1428	80003418	554eaf93	slti	x31,x29,1364	 x29:0xfffffe29 x31=0x00000001
       14305000	      1429	8000341c	fd4b8b93	addi	x23,x23,-44	 x23:0x80009ee8 x23=0x80009ebc
       14315000	      1430	80003420	40d25a33	sra	x20,x4,x13	  x4:0x379a0ce0 x13:0x800036d1 x20=0x00001bcd
       14325000	      1431	80003424	9eb62893	slti	x17,x12,-1557	 x12:0x25d668e0 x17=0x00000000
       14335000	      1432	80003428	01904cb3	xor	x25,x0,x25	  x0:0x00000000 x25:0x00000000 x25=0x00000000
       14345000	      1433	8000342c	e36a7f93	andi	x31,x20,-458	 x20:0x00001bcd x31=0x00001a04
       14355000	      1434	80003430	00000013	addi	x0,x0,0	  x0:0x00000000
       14365000	      1435	80003434	0b6e7a13	andi	x20,x28,182	 x28:0x11958000 x20=0x00000000
       14375000	      1436	80003438	00289193	slli	x3,x17,0x2	 x17:0x00000000  x3=0x00000000
       14385000	      1437	8000343c	006ba223	sw	x6,4(x23)	 x23:0x80009ebc  x6:0x80000d38 PA:0x80009ec0
       14395000	      1438	80003440	e0bef013	andi	x0,x29,-501	 x29:0xfffffe29
       14405000	      1439	80003444	0225f593	andi	x11,x11,34	 x11:0x00000028 x11=0x00000020
       14415000	      1440	80003448	00006197	auipc	x3,0x6	  x3=0x80009444
       14425000	      1441	8000344c	81018193	addi	x3,x3,-2032	  x3:0x80009444  x3=0x80008c54
       14435000	      1442	80003450	0041c633	xor	x12,x3,x4	  x3:0x80008c54  x4:0x379a0ce0 x12=0xb79a80b4
       14445000	      1443	80003454	6b6e2693	slti	x13,x28,1718	 x28:0x11958000 x13=0x00000000
       14455000	      1444	80003458	70c4c893	xori	x17,x9,1804	  x9:0x00000001 x17=0x0000070d
       14465000	      1445	8000345c	01b6fc33	and	x24,x13,x27	 x13:0x00000000 x27:0xfffad400 x24=0x00000000
       14475000	      1446	80003460	01631c33	sll	x24,x6,x22	  x6:0x80000d38 x22:0x00000000 x24=0x80000d38
       14485000	      1447	80003464	41ead2b3	sra	x5,x21,x30	 x21:0xfc0004fe x30:0x00000000  x5=0xfc0004fe
       14495000	      1448	80003468	965a6317	auipc	x6,0x965a6	  x6=0x165a9464
       14505000	      1449	8000346c	e2e183a3	sb	x14,-473(x3)	  x3:0x80008c54 x14:0xeebeeb48 PA:0x80008a7b
       14515000	      1450	80003470	d7918823	sb	x25,-656(x3)	  x3:0x80008c54 x25:0x00000000 PA:0x800089c4
       14525000	      1451	80003474	00590eb3	add	x29,x18,x5	 x18:0x00000000  x5:0xfc0004fe x29=0xfc0004fe
       14535000	      1452	80003478	09118483	lb	x9,145(x3)	  x3:0x80008c54  x9=0xffffffce PA:0x80008ce5
       14545000	      1453	8000347c	d7f182a3	sb	x31,-667(x3)	  x3:0x80008c54 x31:0x00001a04 PA:0x800089b9
       14555000	      1454	80003480	ca127293	andi	x5,x4,-863	  x4:0x379a0ce0  x5=0x379a0ca0
       14565000	      1455	80003484	017c3033	sltu	x0,x24,x23	 x24:0x80000d38 x23:0x80009ebc
       14575000	      1456	80003488	01366433	or	x8,x12,x19	 x12:0xb79a80b4 x19:0x80009fec  x8=0xb79a9ffc
       14585000	      1457	8000348c	d951c003	lbu	x0,-619(x3)	  x3:0x80008c54 PA:0x800089e9
       14595000	      1458	80003490	80322cb7	lui	x25,0x80322	 x25=0x80322000
       14605000	      1459	80003494	99f07f93	andi	x31,x0,-1633	  x0:0x00000000 x31=0x00000000
       14615000	      1460	80003498	1c9183a3	sb	x9,455(x3)	  x3:0x80008c54  x9:0xffffffce PA:0x80008e1b
       14625000	      1461	8000349c	01e2fc33	and	x24,x5,x30	  x5:0x379a0ca0 x30:0x00000000 x24=0x00000000
       14635000	      1462	800034a0	33a47213	andi	x4,x8,826	  x8:0xb79a9ffc  x4=0x00000338
       14645000	      1463	800034a4	00037333	and	x6,x6,x0	  x6:0x165a9464  x0:0x00000000  x6=0x00000000
       14655000	      1464	800034a8	cc293713	sltiu	x14,x18,-830	 x18:0x00000000 x14=0x00000001
       14665000	      1465	800034ac	97ac0593	addi	x11,x24,-1670	 x24:0x00000000 x11=0xfffff97a
       14675000	      1466	800034b0	014eb933	sltu	x18,x29,x20	 x29:0xfc0004fe x20:0x00000000 x18=0x00000000
       14685000	      1467	800034b4	2df1a223	sw	x31,708(x3)	  x3:0x80008c54 x31:0x00000000 PA:0x80008f18
       14695000	      1468	800034b8	27218d03	lb	x26,626(x3)	  x3:0x80008c54 x26=0xffffffad PA:0x80008ec6
       14705000	      1469	800034bc	d3f189a3	sb	x31,-717(x3)	  x3:0x80008c54 x31:0x00000000 PA:0x80008987
       14715000	      1470	800034c0	18d182a3	sb	x13,389(x3)	  x3:0x80008c54 x13:0x00000000 PA:0x80008dd9
       14725000	      1471	800034c4	d931cd83	lbu	x27,-621(x3)	  x3:0x80008c54 x27=0x000000cc PA:0x800089e7
       14735000	      1472	800034c8	eeb19223	sh	x11,-284(x3)	  x3:0x80008c54 x11:0xfffff97a PA:0x80008b38
       14745000	      1473	800034cc	03318b03	lb	x22,51(x3)	  x3:0x80008c54 x22=0x0000006c PA:0x80008c87
       14755000	      1474	800034d0	d791ca83	lbu	x21,-647(x3)	  x3:0x80008c54 x21=0x000000b6 PA:0x800089cd
       14765000	      1475	800034d4	13318003	lb	x0,307(x3)	  x3:0x80008c54 PA:0x80008d87
       14775000	      1476	800034d8	00005c97	auipc	x25,0x5	 x25=0x800084d4
       14785000	      1477	800034dc	c25c8c93	addi	x25,x25,-987	 x25:0x800084d4 x25=0x800080f9
       14795000	      1478	800034e0	048cc503	lbu	x10,72(x25)	 x25:0x800080f9 x10=0x000000fa PA:0x80008141
       14805000	      1479	800034e4	019cd1b3	srl	x3,x25,x25	 x25:0x800080f9 x25:0x800080f9  x3=0x00000040
       14815000	      1480	800034e8	8903a213	slti	x4,x7,-1904	  x7:0xb92eb347  x4=0x00000001
       14825000	      1481	800034ec	1b5c9aa3	sh	x21,437(x25)	 x25:0x800080f9 x21:0x000000b6 PA:0x800082ae
       14835000	      1482	800034f0	412201b3	sub	x3,x4,x18	  x4:0x00000001 x18:0x00000000  x3=0x00000001
       14845000	      1483	800034f4	548cce03	lbu	x28,1352(x25)	 x25:0x800080f9 x28=0x000000fa PA:0x80008641
       14855000	      1484	800034f8	4125d313	srai	x6,x11,0x12	 x11:0xfffff97a  x6=0xffffffff
       14865000	      1485	800034fc	fa4c8aa3	sb	x4,-75(x25)	 x25:0x800080f9  x4:0x00000001 PA:0x800080ae
       14875000	      1486	80003500	004587b3	add	x15,x11,x4	 x11:0xfffff97a  x4:0x00000001 x15=0xfffff97b
       14885000	      1487	80003504	52cc8d03	lb	x26,1324(x25)	 x25:0x800080f9 x26=0xffffffde PA:0x80008625
       14895000	      1488	00000000	00000013	addi	x0,x0,0	  x0:0x00000000
       14905000	      1489	80003508	01a405b3	add	x11,x8,x26	  x8:0xb79a9ffc x26:0xffffffde x11=0xb79a9fda
       14915000	      1490	8000350c	06ac90a3	sh	x10,97(x25)	 x25:0x800080f9 x10:0x000000fa PA:0x8000815a
       14925000	      1491	80003510	be9577b7	lui	x15,0xbe957	 x15=0xbe957000
       14935000	      1492	80003514	6af03c13	sltiu	x24,x0,1711	  x0:0x00000000 x24=0x00000001
       14945000	      1493	80003518	605c8703	lb	x14,1541(x25)	 x25:0x800080f9 x14=0xffffffb5 PA:0x800086fe
       14955000	      1494	8000351c	00cf24b3	slt	x9,x30,x12	 x30:0x00000000 x12:0xb79a80b4  x9=0x00000000
       14965000	      1495	80003520	ddf3b613	sltiu	x12,x7,-545	  x7:0xb92eb347 x12=0x00000001
       14975000	      1496	80003524	97a77713	andi	x14,x14,-1670	 x14:0xffffffb5 x14=0xfffff930
       14985000	      1497	80003528	635ccf83	lbu	x31,1589(x25)	 x25:0x800080f9 x31=0x000000e5 PA:0x8000872e
       14995000	      1498	8000352c	41ec8f23	sb	x30,1054(x25)	 x25:0x800080f9 x30:0x00000000 PA:0x80008517
       15005000	      1499	80003530	4e4c82a3	sb	x4,1253(x25)	 x25:0x800080f9  x4:0x00000001 PA:0x800085de
       15015000	      1500	80003534	3dcbcc13	xori	x24,x23,988	 x23:0x80009ebc x24=0x80009d60
       15025000	      1501	80003538	0071cf33	xor	x30,x3,x7	  x3:0x00000001  x7:0xb92eb347 x30=0xb92eb346
       15035000	      1502	8000353c	33bc8aa3	sb	x27,821(x25)	 x25:0x800080f9 x27:0x000000cc PA:0x8000842e
       15045000	      1503	80003540	42cc8983	lb	x19,1068(x25)	 x25:0x800080f9 x19=0xffffffde PA:0x80008525
       15055000	      1504	80003544	509c8a03	lb	x20,1289(x25)	 x25:0x800080f9 x20=0xffffffb9 PA:0x80008602
       15065000	      1505	80003548	fd2cc303	lbu	x6,-46(x25)	 x25:0x800080f9  x6=0x00000080 PA:0x800080cb
       15075000	      1506	8000354c	01790ab3	add	x21,x18,x23	 x18:0x00000000 x23:0x80009ebc x21=0x80009ebc
       15085000	      1507	80003550	505c9b03	lh	x22,1285(x25)	 x25:0x800080f9 x22=0xffffb4b5 PA:0x800085fe
       15095000	      1508	80003554	aa7fff17	auipc	x30,0xaa7ff	 x30=0x2a802550
       15105000	      1509	80003558	008bfeb3	and	x29,x23,x8	 x23:0x80009ebc  x8:0xb79a9ffc x29=0x80009ebc
       15115000	      1510	8000355c	4e8cc683	lbu	x13,1256(x25)	 x25:0x800080f9 x13=0x0000009a PA:0x800085e1
       15125000	      1511	80003560	41dbdeb3	sra	x29,x23,x29	 x23:0x80009ebc x29:0x80009ebc x29=0xfffffff8
       15135000	      1512	80003564	199bc2b7	lui	x5,0x199bc	  x5=0x199bc000
       15145000	      1513	80003568	f6dded97	auipc	x27,0xf6dde	 x27=0x76de1564
       15155000	      1514	8000356c	44ccc383	lbu	x7,1100(x25)	 x25:0x800080f9  x7=0x000000fe PA:0x80008545
       15165000	      1515	80003570	01c356b3	srl	x13,x6,x28	  x6:0x00000080 x28:0x000000fa x13=0x00000000
       15175000	      1516	80003574	67acca03	lbu	x20,1658(x25)	 x25:0x800080f9 x20=0x00000028 PA:0x80008773
       15185000	      1517	80003578	01e9d513	srli	x10,x19,0x1e	 x19:0xffffffde x10=0x00000003
       15195000	      1518	8000357c	a4e2a613	slti	x12,x5,-1458	  x5:0x199bc000 x12=0x00000000
       15205000	      1519	80003580	22ec8a83	lb	x21,558(x25)	 x25:0x800080f9 x21=0xffffffdc PA:0x80008327
       15215000	      1520	80003584	4e1bda17	auipc	x20,0x4e1bd	 x20=0xce1c0580
       15225000	      1521	80003588	01ad95b3	sll	x11,x27,x26	 x27:0x76de1564 x26:0xffffffde x11=0x00000000
       15235000	      1522	8000358c	000c0033	add	x0,x24,x0	 x24:0x80009d60  x0:0x00000000
       15245000	      1523	80003590	05ac8003	lb	x0,90(x25)	 x25:0x800080f9 PA:0x80008153
       15255000	      1524	80003594	472c8183	lb	x3,1138(x25)	 x25:0x800080f9  x3=0x00000020 PA:0x8000856b
       15265000	      1525	80003598	548c8023	sb	x8,1344(x25)	 x25:0x800080f9  x8:0xb79a9ffc PA:0x80008639
       15275000	      1526	8000359c	4afcc583	lbu	x11,1199(x25)	 x25:0x800080f9 x11=0x00000063 PA:0x800085a8
       15285000	      1527	800035a0	fdfc9a03	lh	x20,-33(x25)	 x25:0x800080f9 x20=0xffff9293 PA:0x800080d8
       15295000	      1528	800035a4	00005697	auipc	x13,0x5	 x13=0x800085a0
       15305000	      1529	800035a8	e7268693	addi	x13,x13,-398	 x13:0x800085a0 x13=0x80008412
       15315000	      1530	800035ac	ff669a83	lh	x21,-10(x13)	 x13:0x80008412 x21=0xffffc2c3 PA:0x80008408
       15325000	      1531	800035b0	00a69c03	lh	x24,10(x13)	 x13:0x80008412 x24=0xffffd6d7 PA:0x8000841c
       15335000	      1532	800035b4	ff068c83	lb	x25,-16(x13)	 x13:0x80008412 x25=0xffffffb9 PA:0x80008402
       15345000	      1533	800035b8	00868f03	lb	x30,8(x13)	 x13:0x80008412 x30=0xffffffd1 PA:0x8000841a
       15355000	      1534	800035bc	a7ad1497	auipc	x9,0xa7ad1	  x9=0x27ad45b8
       15365000	      1535	800035c0	01f0af33	slt	x30,x1,x31	  x1:0x80000000 x31:0x000000e5 x30=0x00000001
       15375000	      1536	800035c4	ff6689a3	sb	x22,-13(x13)	 x13:0x80008412 x22:0xffffb4b5 PA:0x80008405
       15385000	      1537	800035c8	018c6cb3	or	x25,x24,x24	 x24:0xffffd6d7 x24:0xffffd6d7 x25=0xffffd6d7
       15395000	      1538	800035cc	0036ca83	lbu	x21,3(x13)	 x13:0x80008412 x21=0x000000ce PA:0x80008415
       15405000	      1539	800035d0	4049d713	srai	x14,x19,0x4	 x19:0xffffffde x14=0xfffffffd
       15415000	      1540	800035d4	6c986c17	auipc	x24,0x6c986	 x24=0xec9895d0
       15425000	      1541	800035d8	d7e64fb7	lui	x31,0xd7e64	 x31=0xd7e64000
       15435000	      1542	800035dc	0088d313	srli	x6,x17,0x8	 x17:0x0000070d  x6=0x00000007
       15445000	      1543	800035e0	8aabab13	slti	x22,x23,-1878	 x23:0x80009ebc x22=0x00000001
       15455000	      1544	800035e4	ffe68c03	lb	x24,-2(x13)	 x13:0x80008412 x24=0xffffffcb PA:0x80008410
       15465000	      1545	800035e8	01769123	sh	x23,2(x13)	 x13:0x80008412 x23:0x80009ebc PA:0x80008414
       15475000	      1546	800035ec	00b68a83	lb	x21,11(x13)	 x13:0x80008412 x21=0xffffffd6 PA:0x8000841d
       15485000	      1547	00000000	00000013	addi	x0,x0,0	  x0:0x00000000
       15495000	      1548	800035f0	01ba9e93	slli	x29,x21,0x1b	 x21:0xffffffd6 x29=0xb0000000
       15505000	      1549	800035f4	00a5df93	srli	x31,x11,0xa	 x11:0x00000063 x31=0x00000000
       15515000	      1550	800035f8	0107a8b3	slt	x17,x15,x16	 x15:0xbe957000 x16:0x80009fc4 x17=0x00000000
       15525000	      1551	800035fc	00b8bdb3	sltu	x27,x17,x11	 x17:0x00000000 x11:0x00000063 x27=0x00000001
       15535000	      1552	80003600	00269103	lh	x2,2(x13)	 x13:0x80008412  x2=0xffff9ebc PA:0x80008414
       15545000	      1553	80003604	01e5e233	or	x4,x11,x30	 x11:0x00000063 x30:0x00000001  x4=0x00000063
       15555000	      1554	80003608	01b95113	srli	x2,x18,0x1b	 x18:0x00000000  x2=0x00000000
       15565000	      1555	8000360c	00d85533	srl	x10,x16,x13	 x16:0x80009fc4 x13:0x80008412 x10=0x00002000
       15575000	      1556	80003610	00650633	add	x12,x10,x6	 x10:0x00002000  x6:0x00000007 x12=0x00002007
       15585000	      1557	80003614	ffb6c103	lbu	x2,-5(x13)	 x13:0x80008412  x2=0x000000c6 PA:0x8000840d
       15595000	      1558	80003618	01f8d713	srli	x14,x17,0x1f	 x17:0x00000000 x14=0x00000000
       15605000	      1559	8000361c	419bd733	sra	x14,x23,x25	 x23:0x80009ebc x25:0xffffd6d7 x14=0xffffff00
       15615000	      1560	80003620	4c96e597	auipc	x11,0x4c96e	 x11=0xcc97161c
       15625000	      1561	80003624	fe36a923	sw	x3,-14(x13)	 x13:0x80008412  x3:0x00000020 PA:0x80008404
       15635000	      1562	80003628	01469823	sh	x20,16(x13)	 x13:0x80008412 x20:0xffff9293 PA:0x80008422
       15645000	      1563	8000362c	830d3193	sltiu	x3,x26,-2000	 x26:0xffffffde  x3=0x00000000
       15655000	      1564	80003630	00000013	addi	x0,x0,0	  x0:0x00000000
       15665000	      1565	80003634	ffa69203	lh	x4,-6(x13)	 x13:0x80008412  x4=0xffffc6c7 PA:0x8000840c
       15675000	      1566	80003638	ff16c903	lbu	x18,-15(x13)	 x13:0x80008412 x18=0x000000b8 PA:0x80008403
       15685000	      1567	8000363c	41e4d613	srai	x12,x9,0x1e	  x9:0x27ad45b8 x12=0x00000000
       15695000	      1568	80003640	ffa68d03	lb	x26,-6(x13)	 x13:0x80008412 x26=0xffffffc7 PA:0x8000840c
       15705000	      1569	80003644	fee68fa3	sb	x14,-1(x13)	 x13:0x80008412 x14:0xffffff00 PA:0x80008411
       15715000	      1570	80003648	00005117	auipc	x2,0x5	  x2=0x80008644
       15725000	      1571	8000364c	e1710113	addi	x2,x2,-489	  x2:0x80008644  x2=0x8000845b
       15735000	      1572	80003650	01235893	srli	x17,x6,0x12	  x6:0x00000007 x17=0x00000000
       15745000	      1573	80003654	25c11ba3	sh	x28,599(x2)	  x2:0x8000845b x28:0x000000fa PA:0x800086b2
       15755000	      1574	80003658	523ee893	ori	x17,x29,1315	 x29:0xb0000000 x17=0xb0000523
       15765000	      1575	8000365c	688cc213	xori	x4,x25,1672	 x25:0xffffd6d7  x4=0xffffd05f
       15775000	      1576	80003660	fa911e83	lh	x29,-87(x2)	  x2:0x8000845b x29=0x00000020 PA:0x80008404
       15785000	      1577	80003664	09c10c03	lb	x24,156(x2)	  x2:0x8000845b x24=0xffffffac PA:0x800084f7
       15795000	      1578	80003668	40cb02b3	sub	x5,x22,x12	 x22:0x00000001 x12:0x00000000  x5=0x00000001
       15805000	      1579	8000366c	0cc10b03	lb	x22,204(x2)	  x2:0x8000845b x22=0xffffffdc PA:0x80008527
       15815000	      1580	80003670	50fbdc17	auipc	x24,0x50fbd	 x24=0xd0fc066c
       15825000	      1581	80003674	f7c14c03	lbu	x24,-132(x2)	  x2:0x8000845b x24=0x0000008c PA:0x800083d7
       15835000	      1582	80003678	00000013	addi	x0,x0,0	  x0:0x00000000
       15845000	      1583	8000367c	524b4e93	xori	x29,x22,1316	 x22:0xffffffdc x29=0xfffffaf8
       15855000	      1584	80003680	87a42c13	slti	x24,x8,-1926	  x8:0xb79a9ffc x24=0x00000001
       15865000	      1585	80003684	00626ab3	or	x21,x4,x6	  x4:0xffffd05f  x6:0x00000007 x21=0xffffd05f
       15875000	      1586	80003688	ccf14c83	lbu	x25,-817(x2)	  x2:0x8000845b x25=0x000000e1 PA:0x8000812a
       15885000	      1587	8000368c	a87bf013	andi	x0,x23,-1401	 x23:0x80009ebc
       15895000	      1588	80003690	2cc14183	lbu	x3,716(x2)	  x2:0x8000845b  x3=0x000000dc PA:0x80008727
       15905000	      1589	80003694	ce010c83	lb	x25,-800(x2)	  x2:0x8000845b x25=0xfffffff0 PA:0x8000813b
       15915000	      1590	80003698	10510c23	sb	x5,280(x2)	  x2:0x8000845b  x5:0x00000001 PA:0x80008573
       15925000	      1591	8000369c	175122a3	sw	x21,357(x2)	  x2:0x8000845b x21:0xffffd05f PA:0x800085c0
       15935000	      1592	800036a0	01f7d213	srli	x4,x15,0x1f	 x15:0xbe957000  x4=0x00000001
       15945000	      1593	800036a4	306124a3	sw	x6,777(x2)	  x2:0x8000845b  x6:0x00000007 PA:0x80008764
       15955000	      1594	800036a8	00b39793	slli	x15,x7,0xb	  x7:0x000000fe x15=0x0007f000
       15965000	      1595	800036ac	00811893	slli	x17,x2,0x8	  x2:0x8000845b x17=0x00845b00
       15975000	      1596	800036b0	c6b15583	lhu	x11,-917(x2)	  x2:0x8000845b x11=0x00007c7d PA:0x800080c6
       15985000	      1597	800036b4	cc314903	lbu	x18,-829(x2)	  x2:0x8000845b x18=0x000000d5 PA:0x8000811e
       15995000	      1598	800036b8	d0512a03	lw	x20,-763(x2)	  x2:0x8000845b x20=0x18191a1b PA:0x80008160
       16005000	      1599	800036bc	018d1a13	slli	x20,x26,0x18	 x26:0xffffffc7 x20=0xc7000000
       16015000	      1600	800036c0	a0434c13	xori	x24,x6,-1532	  x6:0x00000007 x24=0xfffffa03
       16025000	      1601	800036c4	dca10d03	lb	x26,-566(x2)	  x2:0x8000845b x26=0xffffffde PA:0x80008225
       16035000	      1602	800036c8	010ba633	slt	x12,x23,x16	 x23:0x80009ebc x16:0x80009fc4 x12=0x00000001
       16045000	      1603	800036cc	000388b3	add	x17,x7,x0	  x7:0x000000fe  x0:0x00000000 x17=0x000000fe
       16055000	      1604	800036d0	40a9d313	srai	x6,x19,0xa	 x19:0xffffffde  x6=0xffffffff
       16065000	      1605	800036d4	b80fe313	ori	x6,x31,-1152	 x31:0x00000000  x6=0xfffffb80
       16075000	      1606	800036d8	3af10d23	sb	x15,954(x2)	  x2:0x8000845b x15:0x0007f000 PA:0x80008815
       16085000	      1607	800036dc	0039a213	slti	x4,x19,3	 x19:0xffffffde  x4=0x00000001
       16095000	      1608	800036e0	07810b03	lb	x22,120(x2)	  x2:0x8000845b x22=0xffffff88 PA:0x800084d3
       16105000	      1609	800036e4	488c4c93	xori	x25,x24,1160	 x24:0xfffffa03 x25=0xfffffe8b
       16115000	      1610	800036e8	5d3ef593	andi	x11,x29,1491	 x29:0xfffffaf8 x11=0x000000d0
       16125000	      1611	800036ec	d1610a83	lb	x21,-746(x2)	  x2:0x8000845b x21=0x0000002a PA:0x80008171
       16135000	      1612	800036f0	15710e83	lb	x29,343(x2)	  x2:0x8000845b x29=0x00000069 PA:0x800085b2
       16145000	      1613	800036f4	4546e613	ori	x12,x13,1108	 x13:0x80008412 x12=0x80008456
       16155000	      1614	800036f8	d1315283	lhu	x5,-749(x2)	  x2:0x8000845b  x5=0x00002425 PA:0x8000816e
       16165000	      1615	800036fc	0a410283	lb	x5,164(x2)	  x2:0x8000845b  x5=0xffffffb4 PA:0x800084ff
       16175000	      1616	80003700	000ad413	srli	x8,x21,0x0	 x21:0x0000002a  x8=0x0000002a
       16185000	      1617	80003704	2c5f0e93	addi	x29,x30,709	 x30:0x00000001 x29=0x000002c6
       16195000	      1618	80003708	018e9eb3	sll	x29,x29,x24	 x29:0x000002c6 x24:0xfffffa03 x29=0x00001630
       16205000	      1619	8000370c	d1912f03	lw	x30,-743(x2)	  x2:0x8000845b x30=0x2c2d2e2f PA:0x80008174
       16215000	      1620	80003710	00005117	auipc	x2,0x5	  x2=0x8000870c
       16225000	      1621	80003714	1dc10113	addi	x2,x2,476	  x2:0x8000870c  x2=0x800088e8
       16235000	      1622	80003718	00d10a83	lb	x21,13(x2)	  x2:0x800088e8 x21=0xffffffde PA:0x800088f5
       16245000	      1623	8000371c	76ed1937	lui	x18,0x76ed1	 x18=0x76ed1000
       16255000	      1624	80003720	f38a4c13	xori	x24,x20,-200	 x20:0xc7000000 x24=0x38ffff38
       16265000	      1625	80003724	ff310f03	lb	x30,-13(x2)	  x2:0x800088e8 x30=0xffffffc0 PA:0x800088db
       16275000	      1626	80003728	ff114003	lbu	x0,-15(x2)	  x2:0x800088e8 PA:0x800088d9
       16285000	      1627	8000372c	ffd14f83	lbu	x31,-3(x2)	  x2:0x800088e8 x31=0x000000ce PA:0x800088e5
       16295000	      1628	80003730	00814d03	lbu	x26,8(x2)	  x2:0x800088e8 x26=0x000000db PA:0x800088f0
       16305000	      1629	80003734	aa116413	ori	x8,x2,-1375	  x2:0x800088e8  x8=0xfffffae9
       16315000	      1630	80003738	ff714383	lbu	x7,-9(x2)	  x2:0x800088e8  x7=0x000000c4 PA:0x800088df
       16325000	      1631	8000373c	01d62b33	slt	x22,x12,x29	 x12:0x80008456 x29:0x00001630 x22=0x00000001
       16335000	      1632	80003740	74eff397	auipc	x7,0x74eff	  x7=0xf4f0273c
       16345000	      1633	80003744	410285b3	sub	x11,x5,x16	  x5:0xffffffb4 x16:0x80009fc4 x11=0x7fff5ff0
       16355000	      1634	80003748	00e306b3	add	x13,x6,x14	  x6:0xfffffb80 x14:0xffffff00 x13=0xfffffa80
       16365000	      1635	8000374c	ff614503	lbu	x10,-10(x2)	  x2:0x800088e8 x10=0x000000c5 PA:0x800088de
       16375000	      1636	80003750	0050ffb3	and	x31,x1,x5	  x1:0x80000000  x5:0xffffffb4 x31=0x80000000
       16385000	      1637	80003754	00514a03	lbu	x20,5(x2)	  x2:0x800088e8 x20=0x000000d6 PA:0x800088ed
       16395000	      1638	80003758	003a87b3	add	x15,x21,x3	 x21:0xffffffde  x3:0x000000dc x15=0x000000ba
       16405000	      1639	8000375c	01899033	sll	x0,x19,x24	 x19:0xffffffde x24:0x38ffff38
       16415000	      1640	80003760	00c14783	lbu	x15,12(x2)	  x2:0x800088e8 x15=0x000000df PA:0x800088f4
       16425000	      1641	80003764	fff14283	lbu	x5,-1(x2)	  x2:0x800088e8  x5=0x000000cc PA:0x800088e7
       16435000	      1642	80003768	01014a83	lbu	x21,16(x2)	  x2:0x800088e8 x21=0x000000e3 PA:0x800088f8
       16445000	      1643	8000376c	00061eb3	sll	x29,x12,x0	 x12:0x80008456  x0:0x00000000 x29=0x80008456
       16455000	      1644	80003770	00907db3	and	x27,x0,x9	  x0:0x00000000  x9:0x27ad45b8 x27=0x00000000
       16465000	      1645	80003774	ff010603	lb	x12,-16(x2)	  x2:0x800088e8 x12=0xffffffc3 PA:0x800088d8
       16475000	      1646	80003778	ff710483	lb	x9,-9(x2)	  x2:0x800088e8  x9=0xffffffc4 PA:0x800088df
       16485000	      1647	8000377c	00b14a03	lbu	x20,11(x2)	  x2:0x800088e8 x20=0x000000d8 PA:0x800088f3
       16495000	      1648	80003780	00000013	addi	x0,x0,0	  x0:0x00000000
       16505000	      1649	80003784	009f94b3	sll	x9,x31,x9	 x31:0x80000000  x9:0xffffffc4  x9=0x00000000
       16515000	      1650	80003788	ffb14683	lbu	x13,-5(x2)	  x2:0x800088e8 x13=0x000000c8 PA:0x800088e3
       16525000	      1651	8000378c	fff10f23	sb	x31,-2(x2)	  x2:0x800088e8 x31:0x80000000 PA:0x800088e6
       16535000	      1652	80003790	00214403	lbu	x8,2(x2)	  x2:0x800088e8  x8=0x000000d1 PA:0x800088ea
       16545000	      1653	80003794	00215183	lhu	x3,2(x2)	  x2:0x800088e8  x3=0x0000d0d1 PA:0x800088ea
       16555000	      1654	00000000	00000013	addi	x0,x0,0	  x0:0x00000000
       16565000	      1655	80003798	00314c83	lbu	x25,3(x2)	  x2:0x800088e8 x25=0x000000d0 PA:0x800088eb
       16575000	      1656	8000379c	ff114a03	lbu	x20,-15(x2)	  x2:0x800088e8 x20=0x000000c2 PA:0x800088d9
       16585000	      1657	800037a0	ff015383	lhu	x7,-16(x2)	  x2:0x800088e8  x7=0x0000c2c3 PA:0x800088d8
       16595000	      1658	800037a4	406d86b3	sub	x13,x27,x6	 x27:0x00000000  x6:0xfffffb80 x13=0x00000480
       16605000	      1659	800037a8	00811703	lh	x14,8(x2)	  x2:0x800088e8 x14=0xffffdadb PA:0x800088f0
       16615000	      1660	800037ac	013af433	and	x8,x21,x19	 x21:0x000000e3 x19:0xffffffde  x8=0x000000c2
       16625000	      1661	800037b0	fef10823	sb	x15,-16(x2)	  x2:0x800088e8 x15:0x000000df PA:0x800088d8
       16635000	      1662	800037b4	ff110c03	lb	x24,-15(x2)	  x2:0x800088e8 x24=0xffffffc2 PA:0x800088d9
       16645000	      1663	800037b8	00a11683	lh	x13,10(x2)	  x2:0x800088e8 x13=0xffffd8d9 PA:0x800088f2
       16655000	      1664	800037bc	00615c03	lhu	x24,6(x2)	  x2:0x800088e8 x24=0x0000d4d5 PA:0x800088ee
       16665000	      1665	800037c0	00005717	auipc	x14,0x5	 x14=0x800087bc
       16675000	      1666	800037c4	34c70713	addi	x14,x14,844	 x14:0x800087bc x14=0x80008b08
       16685000	      1667	800037c8	e8a63b13	sltiu	x22,x12,-374	 x12:0xffffffc3 x22=0x00000000
       16695000	      1668	800037cc	03b70683	lb	x13,59(x14)	 x14:0x80008b08 x13=0x00000028 PA:0x80008b43
       16705000	      1669	800037d0	00a97d33	and	x26,x18,x10	 x18:0x76ed1000 x10:0x000000c5 x26=0x00000000
       16715000	      1670	800037d4	cf6dcf13	xori	x30,x27,-778	 x27:0x00000000 x30=0xfffffcf6
       16725000	      1671	800037d8	0af70b03	lb	x22,175(x14)	 x14:0x80008b08 x22=0xffffff9c PA:0x80008bb7
       16735000	      1672	800037dc	019bae33	slt	x28,x23,x25	 x23:0x80009ebc x25:0x000000d0 x28=0x00000001
       16745000	      1673	800037e0	00611d93	slli	x27,x2,0x6	  x2:0x800088e8 x27=0x00223a00
       16755000	      1674	800037e4	fb174483	lbu	x9,-79(x14)	 x14:0x80008b08  x9=0x000000a2 PA:0x80008ab9
       16765000	      1675	800037e8	f9170623	sb	x17,-116(x14)	 x14:0x80008b08 x17:0x000000fe PA:0x80008a94
       16775000	      1676	800037ec	07e70e83	lb	x29,126(x14)	 x14:0x80008b08 x29=0x0000006d PA:0x80008b86
       16785000	      1677	00000000	00000013	addi	x0,x0,0	  x0:0x00000000
       16795000	      1678	800037f0	003ebd33	sltu	x26,x29,x3	 x29:0x0000006d  x3:0x0000d0d1 x26=0x00000001
       16805000	      1679	800037f4	00361b33	sll	x22,x12,x3	 x12:0xffffffc3  x3:0x0000d0d1 x22=0xff860000
       16815000	      1680	800037f8	06174c03	lbu	x24,97(x14)	 x14:0x80008b08 x24=0x00000052 PA:0x80008b69
       16825000	      1681	800037fc	01a6e333	or	x6,x13,x26	 x13:0x00000028 x26:0x00000001  x6=0x00000029
       16835000	      1682	80003800	00abd433	srl	x8,x23,x10	 x23:0x80009ebc x10:0x000000c5  x8=0x040004f5
       16845000	      1683	80003804	f68addb7	lui	x27,0xf68ad	 x27=0xf68ad000
       16855000	      1684	80003808	f05700a3	sb	x5,-255(x14)	 x14:0x80008b08  x5:0x000000cc PA:0x80008a09
       16865000	      1685	8000380c	f0d74f03	lbu	x30,-243(x14)	 x14:0x80008b08 x30=0x000000fe PA:0x80008a15
       16875000	      1686	80003810	001fbeb3	sltu	x29,x31,x1	 x31:0x80000000  x1:0x80000000 x29=0x00000000
       16885000	      1687	80003814	4c689997	auipc	x19,0x4c689	 x19=0xcc68c810
       16895000	      1688	80003818	fde75d03	lhu	x26,-34(x14)	 x14:0x80008b08 x26=0x0000cccd PA:0x80008ae6
       16905000	      1689	8000381c	99103413	sltiu	x8,x0,-1647	  x0:0x00000000  x8=0x00000001
       16915000	      1690	80003820	00d7c8b3	xor	x17,x15,x13	 x15:0x000000df x13:0x00000028 x17=0x000000f7
       16925000	      1691	80003824	010be893	ori	x17,x23,16	 x23:0x80009ebc x17=0x80009ebc
       16935000	      1692	80003828	00dcd913	srli	x18,x25,0xd	 x25:0x000000d0 x18=0x00000000
       16945000	      1693	8000382c	01c18cb3	add	x25,x3,x28	  x3:0x0000d0d1 x28:0x00000001 x25=0x0000d0d2
       16955000	      1694	80003830	20ee3413	sltiu	x8,x28,526	 x28:0x00000001  x8=0x00000001
       16965000	      1695	80003834	00e46133	or	x2,x8,x14	  x8:0x00000001 x14:0x80008b08  x2=0x80008b09
       16975000	      1696	80003838	40158fb3	sub	x31,x11,x1	 x11:0x7fff5ff0  x1:0x80000000 x31=0xffff5ff0
       16985000	      1697	8000383c	00c6c233	xor	x4,x13,x12	 x13:0x00000028 x12:0xffffffc3  x4=0xffffffeb
       16995000	      1698	80003840	0149b4b3	sltu	x9,x19,x20	 x19:0xcc68c810 x20:0x000000c2  x9=0x00000000
       17005000	      1699	80003844	41875e33	sra	x28,x14,x24	 x14:0x80008b08 x24:0x00000052 x28=0xffffe000
       17015000	      1700	80003848	8982a3b7	lui	x7,0x8982a	  x7=0x8982a000
       17025000	      1701	8000384c	00875b03	lhu	x22,8(x14)	 x14:0x80008b08 x22=0x0000fafb PA:0x80008b10
       17035000	      1702	80003850	00005d97	auipc	x27,0x5	 x27=0x8000884c
       17045000	      1703	80003854	32dd8d93	addi	x27,x27,813	 x27:0x8000884c x27=0x80008b79
       17055000	      1704	80003858	00000013	addi	x0,x0,0	  x0:0x00000000
       17065000	      1705	8000385c	00279633	sll	x12,x15,x2	 x15:0x000000df  x2:0x80008b09 x12=0x0001be00
       17075000	      1706	80003860	02bd8923	sb	x11,50(x27)	 x27:0x80008b79 x11:0x7fff5ff0 PA:0x80008bab
       17085000	      1707	80003864	f72dc683	lbu	x13,-142(x27)	 x27:0x80008b79 x13=0x000000d0 PA:0x80008aeb
       17095000	      1708	80003868	0c2dc483	lbu	x9,194(x27)	 x27:0x80008b79  x9=0x00000020 PA:0x80008c3b
       17105000	      1709	8000386c	0c6dcf83	lbu	x31,198(x27)	 x27:0x80008b79 x31=0x00000024 PA:0x80008c3f
       17115000	      1710	80003870	01bdab03	lw	x22,27(x27)	 x27:0x80008b79 x22=0x7c7d7e7f PA:0x80008b94
       17125000	      1711	80003874	00741b33	sll	x22,x8,x7	  x8:0x00000001  x7:0x8982a000 x22=0x00000001
       17135000	      1712	80003878	9b682393	slti	x7,x16,-1610	 x16:0x80009fc4  x7=0x00000001
       17145000	      1713	8000387c	f11d9183	lh	x3,-239(x27)	 x27:0x80008b79  x3=0x00007071 PA:0x80008a8a
       17155000	      1714	80003880	fcafca93	xori	x21,x31,-54	 x31:0x00000024 x21=0xffffffee
       17165000	      1715	80003884	f00d9ea3	sh	x0,-227(x27)	 x27:0x80008b79  x0:0x00000000 PA:0x80008a96
       17175000	      1716	80003888	f99ddb03	lhu	x22,-103(x27)	 x27:0x80008b79 x22=0x0000f8f9 PA:0x80008b12
       17185000	      1717	8000388c	f26d8903	lb	x18,-218(x27)	 x27:0x80008b79 x18=0xffffff84 PA:0x80008a9f
       17195000	      1718	80003890	f71d9003	lh	x0,-143(x27)	 x27:0x80008b79 PA:0x80008aea
       17205000	      1719	80003894	7c253417	auipc	x8,0x7c253	  x8=0xfc256890
       17215000	      1720	80003898	00cd8e23	sb	x12,28(x27)	 x27:0x80008b79 x12:0x0001be00 PA:0x80008b95
       17225000	      1721	8000389c	e1cfb997	auipc	x19,0xe1cfb	 x19=0x61cfe898
       17235000	      1722	800038a0	c1de1d17	auipc	x26,0xc1de1	 x26=0x41de489c
       17245000	      1723	800038a4	008ac8b3	xor	x17,x21,x8	 x21:0xffffffee  x8:0xfc256890 x17=0x03da977e
       17255000	      1724	800038a8	0b9d9ca3	sh	x25,185(x27)	 x27:0x80008b79 x25:0x0000d0d2 PA:0x80008c32
       17265000	      1725	800038ac	077ae317	auipc	x6,0x77ae	  x6=0x877b18a8
       17275000	      1726	800038b0	017ff333	and	x6,x31,x23	 x31:0x00000024 x23:0x80009ebc  x6=0x00000024
       17285000	      1727	800038b4	f04d8283	lb	x5,-252(x27)	 x27:0x80008b79  x5=0x00000066 PA:0x80008a7d
       17295000	      1728	800038b8	c0ae3313	sltiu	x6,x28,-1014	 x28:0xffffe000  x6=0x00000001
       17305000	      1729	800038bc	fc0d8a83	lb	x21,-64(x27)	 x27:0x80008b79 x21=0xfffffff9 PA:0x80008b39
       17315000	      1730	800038c0	fded8c23	sb	x30,-40(x27)	 x27:0x80008b79 x30:0x000000fe PA:0x80008b51
       17325000	      1731	800038c4	008d35b3	sltu	x11,x26,x8	 x26:0x41de489c  x8:0xfc256890 x11=0x00000001
       17335000	      1732	800038c8	01e6d293	srli	x5,x13,0x1e	 x13:0x000000d0  x5=0x00000000
       17345000	      1733	800038cc	000d8a83	lb	x21,0(x27)	 x27:0x80008b79 x21=0x00000062 PA:0x80008b79
       17355000	      1734	800038d0	00005e17	auipc	x28,0x5	 x28=0x800088cc
       17365000	      1735	800038d4	46fe0e13	addi	x28,x28,1135	 x28:0x800088cc x28=0x80008d3b
       17375000	      1736	800038d8	f8be5203	lhu	x4,-117(x28)	 x28:0x80008d3b  x4=0x0000acad PA:0x80008cc6
       17385000	      1737	800038dc	014f5a93	srli	x21,x30,0x14	 x30:0x000000fe x21=0x00000000
       17395000	      1738	800038e0	0aee4f03	lbu	x30,174(x28)	 x28:0x80008d3b x30=0x000000d2 PA:0x80008de9
       17405000	      1739	800038e4	016cd033	srl	x0,x25,x22	 x25:0x0000d0d2 x22:0x0000f8f9
       17415000	      1740	800038e8	016a1593	slli	x11,x20,0x16	 x20:0x000000c2 x11=0x30800000
       17425000	      1741	800038ec	052e0123	sb	x18,66(x28)	 x28:0x80008d3b x18:0xffffff84 PA:0x80008d7d
       17435000	      1742	800038f0	ffae0b03	lb	x22,-6(x28)	 x28:0x80008d3b x22=0x0000001e PA:0x80008d35
       17445000	      1743	00000000	00000013	addi	x0,x0,0	  x0:0x00000000
       17455000	      1744	800038f4	00eb7733	and	x14,x22,x14	 x22:0x0000001e x14:0x80008b08 x14=0x00000008
       17465000	      1745	800038f8	f7ae04a3	sb	x26,-151(x28)	 x28:0x80008d3b x26:0x41de489c PA:0x80008ca4
       17475000	      1746	800038fc	0c6e0f03	lb	x30,198(x28)	 x28:0x80008d3b x30=0xffffffea PA:0x80008e01
       17485000	      1747	80003900	010d1db3	sll	x27,x26,x16	 x26:0x41de489c x16:0x80009fc4 x27=0x1de489c0
       17495000	      1748	80003904	00000013	addi	x0,x0,0	  x0:0x00000000
       17505000	      1749	80003908	0b5e08a3	sb	x21,177(x28)	 x28:0x80008d3b x21:0x00000000 PA:0x80008dec
       17515000	      1750	8000390c	4149dcb3	sra	x25,x19,x20	 x19:0x61cfe898 x20:0x000000c2 x25=0x1873fa26
       17525000	      1751	80003910	01f86a13	ori	x20,x16,31	 x16:0x80009fc4 x20=0x80009fdf
       17535000	      1752	80003914	050e0b23	sb	x16,86(x28)	 x28:0x80008d3b x16:0x80009fc4 PA:0x80008d91
       17545000	      1753	80003918	00a3a5b3	slt	x11,x7,x10	  x7:0x00000001 x10:0x000000c5 x11=0x00000001
       17555000	      1754	8000391c	047e4783	lbu	x15,71(x28)	 x28:0x80008d3b x15=0x00000069 PA:0x80008d82
       17565000	      1755	80003920	01b02a33	slt	x20,x0,x27	  x0:0x00000000 x27:0x1de489c0 x20=0x00000001
       17575000	      1756	80003924	fc0e0b03	lb	x22,-64(x28)	 x28:0x80008d3b x22=0xffffffe0 PA:0x80008cfb
       17585000	      1757	80003928	01f5f9b3	and	x19,x11,x31	 x11:0x00000001 x31:0x00000024 x19=0x00000000
       17595000	      1758	8000392c	006de9b3	or	x19,x27,x6	 x27:0x1de489c0  x6:0x00000001 x19=0x1de489c1
       17605000	      1759	80003930	0835a893	slti	x17,x11,131	 x11:0x00000001 x17=0x00000001
       17615000	      1760	80003934	14f72513	slti	x10,x14,335	 x14:0x00000008 x10=0x00000001
       17625000	      1761	80003938	06ce0383	lb	x7,108(x28)	 x28:0x80008d3b  x7=0xffffff8c PA:0x80008da7
       17635000	      1762	8000393c	fcae0823	sb	x10,-48(x28)	 x28:0x80008d3b x10:0x00000001 PA:0x80008d0b
       17645000	      1763	80003940	00005117	auipc	x2,0x5	  x2=0x8000893c
       17655000	      1764	80003944	43110113	addi	x2,x2,1073	  x2:0x8000893c  x2=0x80008d6d
       17665000	      1765	80003948	04408f93	addi	x31,x1,68	  x1:0x80000000 x31=0x80000044
       17675000	      1766	8000394c	0ad10223	sb	x13,164(x2)	  x2:0x80008d6d x13:0x000000d0 PA:0x80008e11
       17685000	      1767	80003950	014fde93	srli	x29,x31,0x14	 x31:0x80000044 x29=0x00000800
       17695000	      1768	80003954	04a10b03	lb	x22,74(x2)	  x2:0x80008d6d x22=0xffffff9c PA:0x80008db7
       17705000	      1769	80003958	fa710923	sb	x7,-78(x2)	  x2:0x80008d6d  x7:0xffffff8c PA:0x80008d1f
       17715000	      1770	8000395c	00da5e13	srli	x28,x20,0xd	 x20:0x00000001 x28=0x00000000
       17725000	      1771	80003960	0f510923	sb	x21,242(x2)	  x2:0x80008d6d x21:0x00000000 PA:0x80008e5f
       17735000	      1772	80003964	01c55b33	srl	x22,x10,x28	 x10:0x00000001 x28:0x00000000 x22=0x00000001
       17745000	      1773	80003968	0af10da3	sb	x15,187(x2)	  x2:0x80008d6d x15:0x00000069 PA:0x80008e28
       17755000	      1774	8000396c	4f74b797	auipc	x15,0x4f74b	 x15=0xcf74e968
       17765000	      1775	80003970	d155f417	auipc	x8,0xd155f	  x8=0x5156296c
       17775000	      1776	80003974	ffc14a03	lbu	x20,-4(x2)	  x2:0x80008d6d x20=0x00000052 PA:0x80008d69
       17785000	      1777	80003978	08c10fa3	sb	x12,159(x2)	  x2:0x80008d6d x12:0x0001be00 PA:0x80008e0c
       17795000	      1778	8000397c	00c95d33	srl	x26,x18,x12	 x18:0xffffff84 x12:0x0001be00 x26=0xffffff84
       17805000	      1779	80003980	01dfdb33	srl	x22,x31,x29	 x31:0x80000044 x29:0x00000800 x22=0x80000044
       17815000	      1780	80003984	00017cb3	and	x25,x2,x0	  x2:0x80008d6d  x0:0x00000000 x25=0x00000000
       17825000	      1781	80003988	00bb5033	srl	x0,x22,x11	 x22:0x80000044 x11:0x00000001
       17835000	      1782	8000398c	01510123	sb	x21,2(x2)	  x2:0x80008d6d x21:0x00000000 PA:0x80008d6f
       17845000	      1783	80003990	9391c293	xori	x5,x3,-1735	  x3:0x00007071  x5=0xffff8948
       17855000	      1784	80003994	de22a913	slti	x18,x5,-542	  x5:0xffff8948 x18=0x00000001
       17865000	      1785	80003998	00a69733	sll	x14,x13,x10	 x13:0x000000d0 x10:0x00000001 x14=0x000001a0
       17875000	      1786	8000399c	4d37f013	andi	x0,x15,1235	 x15:0xcf74e968
       17885000	      1787	800039a0	01510823	sb	x21,16(x2)	  x2:0x80008d6d x21:0x00000000 PA:0x80008d7d
       17895000	      1788	800039a4	012c38b3	sltu	x17,x24,x18	 x24:0x00000052 x18:0x00000001 x17=0x00000000
       17905000	      1789	800039a8	fb110983	lb	x19,-79(x2)	  x2:0x80008d6d x19=0x00000005 PA:0x80008d1e
       17915000	      1790	800039ac	2adf7793	andi	x15,x30,685	 x30:0xffffffea x15=0x000002a8
       17925000	      1791	800039b0	fe014003	lbu	x0,-32(x2)	  x2:0x80008d6d PA:0x80008d4d
       17935000	      1792	800039b4	06810683	lb	x13,104(x2)	  x2:0x80008d6d x13=0xffffffbe PA:0x80008dd5
       17945000	      1793	800039b8	01e3d5b3	srl	x11,x7,x30	  x7:0xffffff8c x30:0xffffffea x11=0x003fffff
       17955000	      1794	800039bc	0f814583	lbu	x11,248(x2)	  x2:0x80008d6d x11=0x0000004e PA:0x80008e65
       17965000	      1795	800039c0	00677433	and	x8,x14,x6	 x14:0x000001a0  x6:0x00000001  x8=0x00000000
       17975000	      1796	800039c4	00ff0933	add	x18,x30,x15	 x30:0xffffffea x15:0x000002a8 x18=0x00000292
       17985000	      1797	800039c8	00546fb3	or	x31,x8,x5	  x8:0x00000000  x5:0xffff8948 x31=0xffff8948
       17995000	      1798	800039cc	025127a3	sw	x5,47(x2)	  x2:0x80008d6d  x5:0xffff8948 PA:0x80008d9c
       18005000	      1799	800039d0	04414583	lbu	x11,68(x2)	  x2:0x80008d6d x11=0x0000009a PA:0x80008db1
       18015000	      1800	00000000	00000013	addi	x0,x0,0	  x0:0x00000000
       18025000	      1801	800039d4	0065efb3	or	x31,x11,x6	 x11:0x0000009a  x6:0x00000001 x31=0x0000009b
       18035000	      1802	800039d8	7d6a7013	andi	x0,x20,2006	 x20:0x00000052
       18045000	      1803	800039dc	012f6d13	ori	x26,x30,18	 x30:0xffffffea x26=0xfffffffa
       18055000	      1804	800039e0	07910f23	sb	x25,126(x2)	  x2:0x80008d6d x25:0x00000000 PA:0x80008deb
       18065000	      1805	800039e4	00b115a3	sh	x11,11(x2)	  x2:0x80008d6d x11:0x0000009a PA:0x80008d78
       18075000	      1806	800039e8	0182cb33	xor	x22,x5,x24	  x5:0xffff8948 x24:0x00000052 x22=0xffff891a
       18085000	      1807	800039ec	27934f97	auipc	x31,0x27934	 x31=0xa79379e8
       18095000	      1808	800039f0	00889493	slli	x9,x17,0x8	 x17:0x00000000  x9=0x00000000
       18105000	      1809	800039f4	fd810903	lb	x18,-40(x2)	  x2:0x80008d6d x18=0x0000002e PA:0x80008d45
       18115000	      1810	800039f8	00005717	auipc	x14,0x5	 x14=0x800089f4
       18125000	      1811	800039fc	a5470713	addi	x14,x14,-1452	 x14:0x800089f4 x14=0x80008448
       18135000	      1812	80003a00	00170103	lb	x2,1(x14)	 x14:0x80008448  x2=0x00000002 PA:0x80008449
       18145000	      1813	80003a04	f8170d83	lb	x27,-127(x14)	 x14:0x80008448 x27=0xffffff82 PA:0x800083c9
       18155000	      1814	80003a08	f0a74183	lbu	x3,-246(x14)	 x14:0x80008448  x3=0x00000009 PA:0x80008352
       18165000	      1815	80003a0c	010a5193	srli	x3,x20,0x10	 x20:0x00000052  x3=0x00000000
       18175000	      1816	80003a10	037709a3	sb	x23,51(x14)	 x14:0x80008448 x23:0x80009ebc PA:0x8000847b
       18185000	      1817	80003a14	07c74403	lbu	x8,124(x14)	 x14:0x80008448  x8=0x0000007f PA:0x800084c4
       18195000	      1818	80003a18	00c319b3	sll	x19,x6,x12	  x6:0x00000001 x12:0x0001be00 x19=0x00000001
       18205000	      1819	80003a1c	f6075403	lhu	x8,-160(x14)	 x14:0x80008448  x8=0x00006263 PA:0x800083a8
       18215000	      1820	80003a20	41d60033	sub	x0,x12,x29	 x12:0x0001be00 x29:0x00000800
       18225000	      1821	80003a24	04a74603	lbu	x12,74(x14)	 x14:0x80008448 x12=0x00000049 PA:0x80008492
       18235000	      1822	80003a28	0bb74503	lbu	x10,187(x14)	 x14:0x80008448 x10=0x000000b8 PA:0x80008503
       18245000	      1823	80003a2c	f0d70183	lb	x3,-243(x14)	 x14:0x80008448  x3=0x0000000e PA:0x80008355
       18255000	      1824	80003a30	01ed9db3	sll	x27,x27,x30	 x27:0xffffff82 x30:0xffffffea x27=0xfffe0800
       18265000	      1825	80003a34	01cd96b3	sll	x13,x27,x28	 x27:0xfffe0800 x28:0x00000000 x13=0xfffe0800
       18275000	      1826	80003a38	6211fd93	andi	x27,x3,1569	  x3:0x0000000e x27=0x00000000
       18285000	      1827	80003a3c	f9f70e83	lb	x29,-97(x14)	 x14:0x80008448 x29=0xffffff9c PA:0x800083e7
       18295000	      1828	00000000	00000013	addi	x0,x0,0	  x0:0x00000000
       18305000	      1829	80003a40	00bef5b3	and	x11,x29,x11	 x29:0xffffff9c x11:0x0000009a x11=0x00000098
       18315000	      1830	80003a44	005eba33	sltu	x20,x29,x5	 x29:0xffffff9c  x5:0xffff8948 x20=0x00000000
       18325000	      1831	80003a48	0d170f83	lb	x31,209(x14)	 x14:0x80008448 x31=0xffffffd2 PA:0x80008519
       18335000	      1832	80003a4c	fe072f83	lw	x31,-32(x14)	 x14:0x80008448 x31=0xe0e1e2e3 PA:0x80008428
       18345000	      1833	80003a50	05770da3	sb	x23,91(x14)	 x14:0x80008448 x23:0x80009ebc PA:0x800084a3
       18355000	      1834	80003a54	ffc75683	lhu	x13,-4(x14)	 x14:0x80008448 x13=0x0000feff PA:0x80008444
       18365000	      1835	80003a58	07370203	lb	x4,115(x14)	 x14:0x80008448  x4=0x00000070 PA:0x800084bb
       18375000	      1836	80003a5c	015841b3	xor	x3,x16,x21	 x16:0x80009fc4 x21:0x00000000  x3=0x80009fc4
       18385000	      1837	80003a60	fdd74e83	lbu	x29,-35(x14)	 x14:0x80008448 x29=0x000000de PA:0x80008425
       18395000	      1838	80003a64	01ffc7b3	xor	x15,x31,x31	 x31:0xe0e1e2e3 x31:0xe0e1e2e3 x15=0x00000000
       18405000	      1839	80003a68	012c65b3	or	x11,x24,x18	 x24:0x00000052 x18:0x0000002e x11=0x0000007e
       18415000	      1840	80003a6c	00e74183	lbu	x3,14(x14)	 x14:0x80008448  x3=0x0000000d PA:0x80008456
       18425000	      1841	80003a70	00a701a3	sb	x10,3(x14)	 x14:0x80008448 x10:0x000000b8 PA:0x8000844b
       18435000	      1842	80003a74	01a27d33	and	x26,x4,x26	  x4:0x00000070 x26:0xfffffffa x26=0x00000070
       18445000	      1843	80003a78	f1e701a3	sb	x30,-253(x14)	 x14:0x80008448 x30:0xffffffea PA:0x8000834b
       18455000	      1844	80003a7c	1379c313	xori	x6,x19,311	 x19:0x00000001  x6=0x00000136
       18465000	      1845	80003a80	f3674f83	lbu	x31,-202(x14)	 x14:0x80008448 x31=0x00000035 PA:0x8000837e
       18475000	      1846	80003a84	4171db33	sra	x22,x3,x23	  x3:0x0000000d x23:0x80009ebc x22=0x00000000
       18485000	      1847	80003a88	503aaa37	lui	x20,0x503aa	 x20=0x503aa000
       18495000	      1848	80003a8c	00533433	sltu	x8,x6,x5	  x6:0x00000136  x5:0xffff8948  x8=0x00000001
       18505000	      1849	80003a90	019fe8b3	or	x17,x31,x25	 x31:0x00000035 x25:0x00000000 x17=0x00000035
       18515000	      1850	80003a94	f1f70383	lb	x7,-225(x14)	 x14:0x80008448  x7=0x0000001c PA:0x80008367
       18525000	      1851	80003a98	fbd70123	sb	x29,-94(x14)	 x14:0x80008448 x29:0x000000de PA:0x800083ea
       18535000	      1852	80003a9c	0e370d83	lb	x27,227(x14)	 x14:0x80008448 x27=0xffffffc4 PA:0x8000852b
       18545000	      1853	80003aa0	007acf33	xor	x30,x21,x7	 x21:0x00000000  x7:0x0000001c x30=0x0000001c
       18555000	      1854	80003aa4	02870523	sb	x8,42(x14)	 x14:0x80008448  x8:0x00000001 PA:0x80008472
       18565000	      1855	80003aa8	01d41333	sll	x6,x8,x29	  x8:0x00000001 x29:0x000000de  x6=0x40000000
       18575000	      1856	80003aac	41fed593	srai	x11,x29,0x1f	 x29:0x000000de x11=0x00000000
       18585000	      1857	80003ab0	bd238313	addi	x6,x7,-1070	  x7:0x0000001c  x6=0xfffffbee
       18595000	      1858	80003ab4	2c5f8693	addi	x13,x31,709	 x31:0x00000035 x13=0x000002fa
       18605000	      1859	80003ab8	fb671023	sh	x22,-96(x14)	 x14:0x80008448 x22:0x00000000 PA:0x800083e8
       18615000	      1860	80003abc	fcd74603	lbu	x12,-51(x14)	 x14:0x80008448 x12=0x0000009e PA:0x80008415
       18625000	      1861	80003ac0	0bd71923	sh	x29,178(x14)	 x14:0x80008448 x29:0x000000de PA:0x800084fa
       18635000	      1862	80003ac4	00005e17	auipc	x28,0x5	 x28=0x80008ac0
       18645000	      1863	80003ac8	3f8e0e13	addi	x28,x28,1016	 x28:0x80008ac0 x28=0x80008eb8
       18655000	      1864	80003acc	f4be0c03	lb	x24,-181(x28)	 x28:0x80008eb8 x24=0xffffffe8 PA:0x80008e03
       18665000	      1865	80003ad0	6a61c013	xori	x0,x3,1702	  x3:0x0000000d
       18675000	      1866	80003ad4	050e5d83	lhu	x27,80(x28)	 x28:0x80008eb8 x27=0x0000f2f3 PA:0x80008f08
       18685000	      1867	80003ad8	fe1e0a03	lb	x20,-31(x28)	 x28:0x80008eb8 x20=0xffffff82 PA:0x80008e99
       18695000	      1868	80003adc	017854b3	srl	x9,x16,x23	 x16:0x80009fc4 x23:0x80009ebc  x9=0x00000008
       18705000	      1869	80003ae0	0179e133	or	x2,x19,x23	 x19:0x00000001 x23:0x80009ebc  x2=0x80009ebd
       18715000	      1870	80003ae4	00ad58b3	srl	x17,x26,x10	 x26:0x00000070 x10:0x000000b8 x17=0x00000000
       18725000	      1871	80003ae8	414b5393	srai	x7,x22,0x14	 x22:0x00000000  x7=0x00000000
       18735000	      1872	80003aec	00000013	addi	x0,x0,0	  x0:0x00000000
       18745000	      1873	80003af0	07fe0ea3	sb	x31,125(x28)	 x28:0x80008eb8 x31:0x00000035 PA:0x80008f35
       18755000	      1874	80003af4	400b5db3	sra	x27,x22,x0	 x22:0x00000000  x0:0x00000000 x27=0x00000000
       18765000	      1875	80003af8	8a2af313	andi	x6,x21,-1886	 x21:0x00000000  x6=0x00000000
       18775000	      1876	80003afc	fabe0e83	lb	x29,-85(x28)	 x28:0x80008eb8 x29=0x00000048 PA:0x80008e63
       18785000	      1877	80003b00	4959c013	xori	x0,x19,1173	 x19:0x00000001
       18795000	      1878	80003b04	03ae0703	lb	x14,58(x28)	 x28:0x80008eb8 x14=0xffffffd9 PA:0x80008ef2
       18805000	      1879	80003b08	01618733	add	x14,x3,x22	  x3:0x0000000d x22:0x00000000 x14=0x0000000d
       18815000	      1880	80003b0c	f14e03a3	sb	x20,-249(x28)	 x28:0x80008eb8 x20:0xffffff82 PA:0x80008dbf
       18825000	      1881	80003b10	f20e5383	lhu	x7,-224(x28)	 x28:0x80008eb8  x7=0x000000c3 PA:0x80008dd8
       18835000	      1882	80003b14	40db3e93	sltiu	x29,x22,1037	 x22:0x00000000 x29=0x00000001
       18845000	      1883	80003b18	41855913	srai	x18,x10,0x18	 x10:0x000000b8 x18=0x00000000
       18855000	      1884	80003b1c	82eba413	slti	x8,x23,-2002	 x23:0x80009ebc  x8=0x00000001
       18865000	      1885	80003b20	01a75113	srli	x2,x14,0x1a	 x14:0x0000000d  x2=0x00000000
       18875000	      1886	80003b24	fbde0903	lb	x18,-67(x28)	 x28:0x80008eb8 x18=0x0000005e PA:0x80008e75
       18885000	      1887	80003b28	010f9293	slli	x5,x31,0x10	 x31:0x00000035  x5=0x00350000
       18895000	      1888	80003b2c	043e4283	lbu	x5,67(x28)	 x28:0x80008eb8  x5=0x000000e0 PA:0x80008efb
       18905000	      1889	80003b30	5b9fc413	xori	x8,x31,1465	 x31:0x00000035  x8=0x0000058c
       18915000	      1890	80003b34	78c38793	addi	x15,x7,1932	  x7:0x000000c3 x15=0x0000084f
       18925000	      1891	80003b38	00b35593	srli	x11,x6,0xb	  x6:0x00000000 x11=0x00000000
       18935000	      1892	80003b3c	41b10033	sub	x0,x2,x27	  x2:0x00000000 x27:0x00000000
       18945000	      1893	80003b40	1d0d8993	addi	x19,x27,464	 x27:0x00000000 x19=0x000001d0
       18955000	      1894	80003b44	f04e1823	sh	x4,-240(x28)	 x28:0x80008eb8  x4:0x00000070 PA:0x80008dc8
       18965000	      1895	80003b48	fe7e4583	lbu	x11,-25(x28)	 x28:0x80008eb8 x11=0x00000084 PA:0x80008e9f
       18975000	      1896	80003b4c	f2de4c03	lbu	x24,-211(x28)	 x28:0x80008eb8 x24=0x000000ce PA:0x80008de5
       18985000	      1897	80003b50	011e2933	slt	x18,x28,x17	 x28:0x80008eb8 x17:0x00000000 x18=0x00000001
       18995000	      1898	80003b54	01ce59b3	srl	x19,x28,x28	 x28:0x80008eb8 x28:0x80008eb8 x19=0x00000080
       19005000	      1899	80003b58	fc3e4c83	lbu	x25,-61(x28)	 x28:0x80008eb8 x25=0x00000060 PA:0x80008e7b
       19015000	      1900	80003b5c	025e0383	lb	x7,37(x28)	 x28:0x80008eb8  x7=0xffffffc6 PA:0x80008edd
       19025000	      1901	80003b60	5265e017	auipc	x0,0x5265e	
       19035000	      1902	80003b64	f65e1723	sh	x5,-146(x28)	 x28:0x80008eb8  x5:0x000000e0 PA:0x80008e26
       19045000	      1903	80003b68	f9be2423	sw	x27,-120(x28)	 x28:0x80008eb8 x27:0x00000000 PA:0x80008e40
       19055000	      1904	80003b6c	f92e5a83	lhu	x21,-110(x28)	 x28:0x80008eb8 x21=0x00003031 PA:0x80008e4a
       19065000	      1905	80003b70	891b7b13	andi	x22,x22,-1903	 x22:0x00000000 x22=0x00000000
       19075000	      1906	80003b74	01c52d33	slt	x26,x10,x28	 x10:0x000000b8 x28:0x80008eb8 x26=0x00000000
       19085000	      1907	80003b78	f17e0c03	lb	x24,-233(x28)	 x28:0x80008eb8 x24=0xffffffb4 PA:0x80008dcf
       19095000	      1908	00000000	00000013	addi	x0,x0,0	  x0:0x00000000
       19105000	      1909	80003b7c	0b8e0303	lb	x6,184(x28)	 x28:0x80008eb8  x6=0x0000005b PA:0x80008f70
       19115000	      1910	80003b80	41610133	sub	x2,x2,x22	  x2:0x00000000 x22:0x00000000  x2=0x00000000
       19125000	      1911	80003b84	00ab6233	or	x4,x22,x10	 x22:0x00000000 x10:0x000000b8  x4=0x000000b8
       19135000	      1912	80003b88	fdbe1423	sh	x27,-56(x28)	 x28:0x80008eb8 x27:0x00000000 PA:0x80008e80
       19145000	      1913	80003b8c	0e3e0b03	lb	x22,227(x28)	 x28:0x80008eb8 x22=0xffffff80 PA:0x80008f9b
       19155000	      1914	80003b90	02de4703	lbu	x14,45(x28)	 x28:0x80008eb8 x14=0x000000ce PA:0x80008ee5
       19165000	      1915	80003b94	ff8e2483	lw	x9,-8(x28)	 x28:0x80008eb8  x9=0x98999a9b PA:0x80008eb0
       19175000	      1916	80003b98	00005217	auipc	x4,0x5	  x4=0x80008b94
       19185000	      1917	80003b9c	9be20213	addi	x4,x4,-1602	  x4:0x80008b94  x4=0x80008552
       19195000	      1918	80003ba0	ff720f83	lb	x31,-9(x4)	  x4:0x80008552 x31=0x00000002 PA:0x80008549
       19205000	      1919	00000000	00000013	addi	x0,x0,0	  x0:0x00000000
       19215000	      1920	80003ba4	01ff87b3	add	x15,x31,x31	 x31:0x00000002 x31:0x00000002 x15=0x00000004
       19225000	      1921	80003ba8	0076a3b3	slt	x7,x13,x7	 x13:0x000002fa  x7:0xffffffc6  x7=0x00000000
       19235000	      1922	80003bac	02724a83	lbu	x21,39(x4)	  x4:0x80008552 x21=0x00000032 PA:0x80008579
       19245000	      1923	80003bb0	00000013	addi	x0,x0,0	  x0:0x00000000
       19255000	      1924	80003bb4	003f3933	sltu	x18,x30,x3	 x30:0x0000001c  x3:0x0000000d x18=0x00000000
       19265000	      1925	80003bb8	ff921e23	sh	x25,-4(x4)	  x4:0x80008552 x25:0x00000060 PA:0x8000854e
       19275000	      1926	80003bbc	fc324703	lbu	x14,-61(x4)	  x4:0x80008552 x14=0x000000ce PA:0x80008515
       19285000	      1927	80003bc0	fc924003	lbu	x0,-55(x4)	  x4:0x80008552 PA:0x8000851b
       19295000	      1928	80003bc4	ff6202a3	sb	x22,-27(x4)	  x4:0x80008552 x22:0xffffff80 PA:0x80008537
       19305000	      1929	80003bc8	fc8208a3	sb	x8,-47(x4)	  x4:0x80008552  x8:0x0000058c PA:0x80008523
       19315000	      1930	80003bcc	41e4dfb3	sra	x31,x9,x30	  x9:0x98999a9b x30:0x0000001c x31=0xfffffff9
       19325000	      1931	80003bd0	402fddb3	sra	x27,x31,x2	 x31:0xfffffff9  x2:0x00000000 x27=0xfffffff9
       19335000	      1932	80003bd4	03225983	lhu	x19,50(x4)	  x4:0x80008552 x19=0x00003e3f PA:0x80008584
       19345000	      1933	80003bd8	01921c23	sh	x25,24(x4)	  x4:0x80008552 x25:0x00000060 PA:0x8000856a
       19355000	      1934	80003bdc	03420fa3	sb	x20,63(x4)	  x4:0x80008552 x20:0xffffff82 PA:0x80008591
       19365000	      1935	80003be0	b8abe513	ori	x10,x23,-1142	 x23:0x80009ebc x10=0xffffffbe
       19375000	      1936	80003be4	01053133	sltu	x2,x10,x16	 x10:0xffffffbe x16:0x80009fc4  x2=0x00000000
       19385000	      1937	80003be8	03424783	lbu	x15,52(x4)	  x4:0x80008552 x15=0x0000003d PA:0x80008586
       19395000	      1938	80003bec	41945eb3	sra	x29,x8,x25	  x8:0x0000058c x25:0x00000060 x29=0x0000058c
       19405000	      1939	80003bf0	009f3533	sltu	x10,x30,x9	 x30:0x0000001c  x9:0x98999a9b x10=0x00000001
       19415000	      1940	80003bf4	01b200a3	sb	x27,1(x4)	  x4:0x80008552 x27:0xfffffff9 PA:0x80008553
       19425000	      1941	80003bf8	fc024683	lbu	x13,-64(x4)	  x4:0x80008552 x13=0x000000c9 PA:0x80008512
       19435000	      1942	80003bfc	00f7ec33	or	x24,x15,x15	 x15:0x0000003d x15:0x0000003d x24=0x0000003d
       19445000	      1943	80003c00	0181d933	srl	x18,x3,x24	  x3:0x0000000d x24:0x0000003d x18=0x00000000
       19455000	      1944	80003c04	003105b3	add	x11,x2,x3	  x2:0x00000000  x3:0x0000000d x11=0x0000000d
       19465000	      1945	80003c08	fff24783	lbu	x15,-1(x4)	  x4:0x80008552 x15=0x0000000a PA:0x80008551
       19475000	      1946	80003c0c	02b20283	lb	x5,43(x4)	  x4:0x80008552  x5=0x00000036 PA:0x8000857d
       19485000	      1947	80003c10	01e20a03	lb	x20,30(x4)	  x4:0x80008552 x20=0x0000002b PA:0x80008570
       19495000	      1948	80003c14	00b24603	lbu	x12,11(x4)	  x4:0x80008552 x12=0x00000016 PA:0x8000855d
       19505000	      1949	80003c18	02825283	lhu	x5,40(x4)	  x4:0x80008552  x5=0x00003031 PA:0x8000857a
       19515000	      1950	80003c1c	80827293	andi	x5,x4,-2040	  x4:0x80008552  x5=0x80008000
       19525000	      1951	80003c20	02b20da3	sb	x11,59(x4)	  x4:0x80008552 x11:0x0000000d PA:0x8000858d
       19535000	      1952	80003c24	40b45eb3	sra	x29,x8,x11	  x8:0x0000058c x11:0x0000000d x29=0x00000000
       19545000	      1953	80003c28	412a8a33	sub	x20,x21,x18	 x21:0x00000032 x18:0x00000000 x20=0x00000032
       19555000	      1954	80003c2c	003d97b3	sll	x15,x27,x3	 x27:0xfffffff9  x3:0x0000000d x15=0xffff2000
       19565000	      1955	80003c30	fee204a3	sb	x14,-23(x4)	  x4:0x80008552 x14:0x000000ce PA:0x8000853b
       19575000	      1956	80003c34	44bfa793	slti	x15,x31,1099	 x31:0xfffffff9 x15=0x00000001
       19585000	      1957	80003c38	72fb6593	ori	x11,x22,1839	 x22:0xffffff80 x11=0xffffffaf
       19595000	      1958	80003c3c	76305cb7	lui	x25,0x76305	 x25=0x76305000
       19605000	      1959	80003c40	13b6bd13	sltiu	x26,x13,315	 x13:0x000000c9 x26=0x00000001
       19615000	      1960	80003c44	02520a83	lb	x21,37(x4)	  x4:0x80008552 x21=0x0000002c PA:0x80008577
       19625000	      1961	80003c48	03320283	lb	x5,51(x4)	  x4:0x80008552  x5=0x0000003e PA:0x80008585
       19635000	      1962	80003c4c	2768ccb7	lui	x25,0x2768c	 x25=0x2768c000
       19645000	      1963	80003c50	008dda93	srli	x21,x27,0x8	 x27:0xfffffff9 x21=0x00ffffff
       19655000	      1964	80003c54	00f1de33	srl	x28,x3,x15	  x3:0x0000000d x15:0x00000001 x28=0x00000006
       19665000	      1965	80003c58	fe520ca3	sb	x5,-7(x4)	  x4:0x80008552  x5:0x0000003e PA:0x8000854b
       19675000	      1966	80003c5c	fe821823	sh	x8,-16(x4)	  x4:0x80008552  x8:0x0000058c PA:0x80008542
       19685000	      1967	80003c60	00004497	auipc	x9,0x4	  x9=0x80007c5c
       19695000	      1968	80003c64	41948493	addi	x9,x9,1049	  x9:0x80007c5c  x9=0x80008075
       19705000	      1969	80003c68	ff7481a3	sb	x23,-29(x9)	  x9:0x80008075 x23:0x80009ebc PA:0x80008058
       19715000	      1970	80003c6c	0047fdb3	and	x27,x15,x4	 x15:0x00000001  x4:0x80008552 x27=0x00000000
       19725000	      1971	80003c70	ff64cc03	lbu	x24,-10(x9)	  x9:0x80008075 x24=0x00000020 PA:0x8000806b
       19735000	      1972	80003c74	fe048b23	sb	x0,-10(x9)	  x9:0x80008075  x0:0x00000000 PA:0x8000806b
       19745000	      1973	80003c78	01283cb3	sltu	x25,x16,x18	 x16:0x80009fc4 x18:0x00000000 x25=0x00000000
       19755000	      1974	80003c7c	451eb113	sltiu	x2,x29,1105	 x29:0x00000000  x2=0x00000001
       19765000	      1975	80003c80	fe24c183	lbu	x3,-30(x9)	  x9:0x80008075  x3=0x0000000c PA:0x80008057
       19775000	      1976	80003c84	fd84ce03	lbu	x28,-40(x9)	  x9:0x80008075 x28=0x00000006 PA:0x8000804d
       19785000	      1977	80003c88	fc54a9a3	sw	x5,-45(x9)	  x9:0x80008075  x5:0x0000003e PA:0x80008048
       19795000	      1978	80003c8c	fce48f23	sb	x14,-34(x9)	  x9:0x80008075 x14:0x000000ce PA:0x80008053
       19805000	      1979	80003c90	03f49983	lh	x19,63(x9)	  x9:0x80008075 x19=0x00006e6f PA:0x800080b4
       19815000	      1980	80003c94	ff948c23	sb	x25,-8(x9)	  x9:0x80008075 x25:0x00000000 PA:0x8000806d
       19825000	      1981	80003c98	fd549f83	lh	x31,-43(x9)	  x9:0x80008075 x31=0x00000000 PA:0x8000804a
       19835000	      1982	80003c9c	418203b3	sub	x7,x4,x24	  x4:0x80008552 x24:0x00000020  x7=0x80008532
       19845000	      1983	80003ca0	9f174c93	xori	x25,x14,-1551	 x14:0x000000ce x25=0xfffff93f
       19855000	      1984	80003ca4	9479e213	ori	x4,x19,-1721	 x19:0x00006e6f  x4=0xffffff6f
       19865000	      1985	80003ca8	00553133	sltu	x2,x10,x5	 x10:0x00000001  x5:0x0000003e  x2=0x00000001
       19875000	      1986	80003cac	fe749503	lh	x10,-25(x9)	  x9:0x80008075 x10=0x00001617 PA:0x8000805c
       19885000	      1987	80003cb0	ffc48b03	lb	x22,-4(x9)	  x9:0x80008075 x22=0x0000002a PA:0x80008071
       19895000	      1988	80003cb4	26384637	lui	x12,0x26384	 x12=0x26384000
       19905000	      1989	80003cb8	40c9dfb3	sra	x31,x19,x12	 x19:0x00006e6f x12:0x26384000 x31=0x00006e6f
       19915000	      1990	80003cbc	00ce0733	add	x14,x28,x12	 x28:0x00000006 x12:0x26384000 x14=0x26384006
       19925000	      1991	80003cc0	fd448903	lb	x18,-44(x9)	  x9:0x80008075 x18=0x00000000 PA:0x80008049
       19935000	      1992	80003cc4	018b1393	slli	x7,x22,0x18	 x22:0x0000002a  x7=0x2a000000
       19945000	      1993	80003cc8	01bf9d93	slli	x27,x31,0x1b	 x31:0x00006e6f x27=0x78000000
       19955000	      1994	80003ccc	ff048f83	lb	x31,-16(x9)	  x9:0x80008075 x31=0x0000001e PA:0x80008065
       19965000	      1995	80003cd0	1c9af713	andi	x14,x21,457	 x21:0x00ffffff x14=0x000001c9
       19975000	      1996	80003cd4	fe34c683	lbu	x13,-29(x9)	  x9:0x80008075 x13=0x000000bc PA:0x80008058
       19985000	      1997	80003cd8	01548d03	lb	x26,21(x9)	  x9:0x80008075 x26=0x00000041 PA:0x8000808a
       19995000	      1998	80003cdc	ffc48c83	lb	x25,-4(x9)	  x9:0x80008075 x25=0x0000002a PA:0x80008071
       20005000	      1999	80003ce0	02448383	lb	x7,36(x9)	  x9:0x80008075  x7=0x00000052 PA:0x80008099
       20015000	      2000	80003ce4	00879c93	slli	x25,x15,0x8	 x15:0x00000001 x25=0x00000100
       20025000	      2001	80003ce8	0168c7b3	xor	x15,x17,x22	 x17:0x00000000 x22:0x0000002a x15=0x0000002a
       20035000	      2002	80003cec	02f4a383	lw	x7,47(x9)	  x9:0x80008075  x7=0x5c5d5e5f PA:0x800080a4
       20045000	      2003	80003cf0	00b48903	lb	x18,11(x9)	  x9:0x80008075 x18=0x0000003b PA:0x80008080
       20055000	      2004	80003cf4	0159dd93	srli	x27,x19,0x15	 x19:0x00006e6f x27=0x00000000
       20065000	      2005	80003cf8	00000013	addi	x0,x0,0	  x0:0x00000000
       20075000	      2006	80003cfc	fe949b03	lh	x22,-23(x9)	  x9:0x80008075 x22=0x00001415 PA:0x8000805e
       20085000	      2007	80003d00	0344ca03	lbu	x20,52(x9)	  x9:0x80008075 x20=0x00000062 PA:0x800080a9
       20095000	      2008	80003d04	ff5494a3	sh	x21,-23(x9)	  x9:0x80008075 x21:0x00ffffff PA:0x8000805e
       20105000	      2009	80003d08	01d01733	sll	x14,x0,x29	  x0:0x00000000 x29:0x00000000 x14=0x00000000
       20115000	      2010	80003d0c	00c0d593	srli	x11,x1,0xc	  x1:0x80000000 x11=0x00080000
       20125000	      2011	80003d10	fcf49aa3	sh	x15,-43(x9)	  x9:0x80008075 x15:0x0000002a PA:0x8000804a
       20135000	      2012	80003d14	0364cd83	lbu	x27,54(x9)	  x9:0x80008075 x27=0x00000060 PA:0x800080ab
       20145000	      2013	80003d18	0054d383	lhu	x7,5(x9)	  x9:0x80008075  x7=0x00003031 PA:0x8000807a
       20155000	      2014	80003d1c	fff48ba3	sb	x31,-9(x9)	  x9:0x80008075 x31:0x0000001e PA:0x8000806c
       20165000	      2015	80003d20	fc248e23	sb	x2,-36(x9)	  x9:0x80008075  x2:0x00000001 PA:0x80008051
       20175000	      2016	80003d24	00004117	auipc	x2,0x4	  x2=0x80007d20
       20185000	      2017	80003d28	5ba10113	addi	x2,x2,1466	  x2:0x80007d20  x2=0x800082da
       20195000	      2018	80003d2c	005fd593	srli	x11,x31,0x5	 x31:0x0000001e x11=0x00000000
       20205000	      2019	80003d30	fc612883	lw	x17,-58(x2)	  x2:0x800082da x17=0x58595a5b PA:0x800082a0
       20215000	      2020	80003d34	372ccd93	xori	x27,x25,882	 x25:0x00000100 x27=0x00000272
       20225000	      2021	80003d38	f6910da3	sb	x9,-133(x2)	  x2:0x800082da  x9:0x80008075 PA:0x80008255
       20235000	      2022	80003d3c	87263793	sltiu	x15,x12,-1934	 x12:0x26384000 x15=0x00000001
       20245000	      2023	80003d40	00d31a93	slli	x21,x6,0xd	  x6:0x0000005b x21=0x000b6000
       20255000	      2024	80003d44	00aeb933	sltu	x18,x29,x10	 x29:0x00000000 x10:0x00001617 x18=0x00000001
       20265000	      2025	80003d48	412a0933	sub	x18,x20,x18	 x20:0x00000062 x18:0x00000001 x18=0x00000061
       20275000	      2026	80003d4c	67d36213	ori	x4,x6,1661	  x6:0x0000005b  x4=0x0000067f
       20285000	      2027	80003d50	f2015d37	lui	x26,0xf2015	 x26=0xf2015000
       20295000	      2028	80003d54	01e20f33	add	x30,x4,x30	  x4:0x0000067f x30:0x0000001c x30=0x0000069b
       20305000	      2029	80003d58	632406b7	lui	x13,0x63240	 x13=0x63240000
       20315000	      2030	80003d5c	069105a3	sb	x9,107(x2)	  x2:0x800082da  x9:0x80008075 PA:0x80008345
       20325000	      2031	80003d60	f0110283	lb	x5,-255(x2)	  x2:0x800082da  x5=0xffffff90 PA:0x800081db
       20335000	      2032	80003d64	014eb733	sltu	x14,x29,x20	 x29:0x00000000 x20:0x00000062 x14=0x00000001
       20345000	      2033	80003d68	01d15733	srl	x14,x2,x29	  x2:0x800082da x29:0x00000000 x14=0x800082da
       20355000	      2034	80003d6c	00000013	addi	x0,x0,0	  x0:0x00000000
       20365000	      2035	80003d70	e3444713	xori	x14,x8,-460	  x8:0x0000058c x14=0xfffffbb8
       20375000	      2036	80003d74	73f4ef13	ori	x30,x9,1855	  x9:0x80008075 x30=0x8000877f
       20385000	      2037	80003d78	d40e2013	slti	x0,x28,-704	 x28:0x00000006
       20395000	      2038	80003d7c	03814d03	lbu	x26,56(x2)	  x2:0x800082da x26=0x000000c9 PA:0x80008312
       20405000	      2039	80003d80	00b101a3	sb	x11,3(x2)	  x2:0x800082da x11:0x00000000 PA:0x800082dd
       20415000	      2040	80003d84	07ee8997	auipc	x19,0x7ee8	 x19=0x87eebd80
       20425000	      2041	80003d88	75b63613	sltiu	x12,x12,1883	 x12:0x26384000 x12=0x00000000
       20435000	      2042	80003d8c	25a48793	addi	x15,x9,602	  x9:0x80008075 x15=0x800082cf
       20445000	      2043	80003d90	01ee9d13	slli	x26,x29,0x1e	 x29:0x00000000 x26=0x00000000
       20455000	      2044	80003d94	40295d13	srai	x26,x18,0x2	 x18:0x00000061 x26=0x00000018
       20465000	      2045	80003d98	01711823	sh	x23,16(x2)	  x2:0x800082da x23:0x80009ebc PA:0x800082ea
       20475000	      2046	80003d9c	6bdac713	xori	x14,x21,1725	 x21:0x000b6000 x14=0x000b66bd
       20485000	      2047	80003da0	92131f17	auipc	x30,0x92131	 x30=0x12134d9c
       20495000	      2048	80003da4	019482b3	add	x5,x9,x25	  x9:0x80008075 x25:0x00000100  x5=0x80008175
       20505000	      2049	80003da8	00b10603	lb	x12,11(x2)	  x2:0x800082da x12=0xffffff9e PA:0x800082e5
       20515000	      2050	80003dac	0046cb33	xor	x22,x13,x4	 x13:0x63240000  x4:0x0000067f x22=0x6324067f
       20525000	      2051	80003db0	06d10603	lb	x12,109(x2)	  x2:0x800082da x12=0xfffffffc PA:0x80008347
       20535000	      2052	80003db4	f5114e03	lbu	x28,-175(x2)	  x2:0x800082da x28=0x000000e0 PA:0x8000822b
       20545000	      2053	80003db8	00cfbc33	sltu	x24,x31,x12	 x31:0x0000001e x12:0xfffffffc x24=0x00000001
       20555000	      2054	80003dbc	014add93	srli	x27,x21,0x14	 x21:0x000b6000 x27=0x00000000
       20565000	      2055	80003dc0	fb114903	lbu	x18,-79(x2)	  x2:0x800082da x18=0x00000040 PA:0x8000828b
       20575000	      2056	80003dc4	41dbde13	srai	x28,x23,0x1d	 x23:0x80009ebc x28=0xfffffffc
       20585000	      2057	80003dc8	00badf93	srli	x31,x21,0xb	 x21:0x000b6000 x31=0x0000016c
       20595000	      2058	80003dcc	ff211f83	lh	x31,-14(x2)	  x2:0x800082da x31=0xffff8687 PA:0x800082cc
       20605000	      2059	80003dd0	00005297	auipc	x5,0x5	  x5=0x80008dcc
       20615000	      2060	80003dd4	0ee28293	addi	x5,x5,238	  x5:0x80008dcc  x5=0x80008eba
       20625000	      2061	80003dd8	e9129623	sh	x17,-372(x5)	  x5:0x80008eba x17:0x58595a5b PA:0x80008d46
       20635000	      2062	80003ddc	ccc29e03	lh	x28,-820(x5)	  x5:0x80008eba x28=0x00006c6d PA:0x80008b86
       20645000	      2063	80003de0	00000013	addi	x0,x0,0	  x0:0x00000000
       20655000	      2064	80003de4	96728203	lb	x4,-1689(x5)	  x5:0x80008eba  x4=0x0000000a PA:0x80008821
       20665000	      2065	80003de8	0f0c3893	sltiu	x17,x24,240	 x24:0x00000001 x17=0x00000001
       20675000	      2066	80003dec	01f28783	lb	x15,31(x5)	  x5:0x80008eba x15=0xffffffc2 PA:0x80008ed9
       20685000	      2067	80003df0	03b2ca03	lbu	x20,59(x5)	  x5:0x80008eba x20=0x000000de PA:0x80008ef5
       20695000	      2068	80003df4	b622a403	lw	x8,-1182(x5)	  x5:0x80008eba  x8=0x04050607 PA:0x80008a1c
       20705000	      2069	80003df8	0a4e6513	ori	x10,x28,164	 x28:0x00006c6d x10=0x00006ced
       20715000	      2070	80003dfc	9a72cc83	lbu	x25,-1625(x5)	  x5:0x80008eba x25=0x0000004a PA:0x80008861
       20725000	      2071	80003e00	115286a3	sb	x21,269(x5)	  x5:0x80008eba x21:0x000b6000 PA:0x80008fc7
       20735000	      2072	80003e04	0e341b17	auipc	x22,0xe341	 x22=0x8e344e00
       20745000	      2073	80003e08	9f22a403	lw	x8,-1550(x5)	  x5:0x80008eba  x8=0x94959697 PA:0x800088ac
       20755000	      2074	80003e0c	d7e28a83	lb	x21,-642(x5)	  x5:0x80008eba x21=0x00000023 PA:0x80008c38
       20765000	      2075	80003e10	404a59b3	sra	x19,x20,x4	 x20:0x000000de  x4:0x0000000a x19=0x00000000
       20775000	      2076	80003e14	0084dc33	srl	x24,x9,x8	  x9:0x80008075  x8:0x94959697 x24=0x00000100
       20785000	      2077	80003e18	41c7d013	srai	x0,x15,0x1c	 x15:0xffffffc2
       20795000	      2078	80003e1c	a992c003	lbu	x0,-1383(x5)	  x5:0x80008eba PA:0x80008953
       20805000	      2079	80003e20	eca29923	sh	x10,-302(x5)	  x5:0x80008eba x10:0x00006ced PA:0x80008d8c
       20815000	      2080	80003e24	ebf28f83	lb	x31,-321(x5)	  x5:0x80008eba x31=0x00000000 PA:0x80008d79
       20825000	      2081	80003e28	41d96313	ori	x6,x18,1053	 x18:0x00000040  x6=0x0000045d
       20835000	      2082	80003e2c	407a5f33	sra	x30,x20,x7	 x20:0x000000de  x7:0x00003031 x30=0x00000000
       20845000	      2083	80003e30	b2628023	sb	x6,-1248(x5)	  x5:0x80008eba  x6:0x0000045d PA:0x800089da
       20855000	      2084	80003e34	9d90fd93	andi	x27,x1,-1575	  x1:0x80000000 x27=0x80000000
       20865000	      2085	80003e38	abd28c83	lb	x25,-1347(x5)	  x5:0x80008eba x25=0x0000005c PA:0x80008977
       20875000	      2086	80003e3c	00005617	auipc	x12,0x5	 x12=0x80008e38
       20885000	      2087	80003e40	8b260613	addi	x12,x12,-1870	 x12:0x80008e38 x12=0x800086ea
       20895000	      2088	80003e44	fd460583	lb	x11,-44(x12)	 x12:0x800086ea x11=0x00000075 PA:0x800086be
       20905000	      2089	80003e48	693a4793	xori	x15,x20,1683	 x20:0x000000de x15=0x0000064d
       20915000	      2090	80003e4c	d4208393	addi	x7,x1,-702	  x1:0x80000000  x7=0x7ffffd42
       20925000	      2091	80003e50	05b64483	lbu	x9,91(x12)	 x12:0x800086ea  x9=0x000000fe PA:0x80008745
       20935000	      2092	80003e54	f7361923	sh	x19,-142(x12)	 x12:0x800086ea x19:0x00000000 PA:0x8000865c
       20945000	      2093	80003e58	ff6604a3	sb	x22,-23(x12)	 x12:0x800086ea x22:0x8e344e00 PA:0x800086d3
       20955000	      2094	80003e5c	b09eb193	sltiu	x3,x29,-1271	 x29:0x00000000  x3=0x00000001
       20965000	      2095	80003e60	d50f4b13	xori	x22,x30,-688	 x30:0x00000000 x22=0xfffffd50
       20975000	      2096	80003e64	f1564b03	lbu	x22,-235(x12)	 x12:0x800086ea x22=0x000000b4 PA:0x800085ff
       20985000	      2097	80003e68	01350f33	add	x30,x10,x19	 x10:0x00006ced x19:0x00000000 x30=0x00006ced
       20995000	      2098	80003e6c	0a360f03	lb	x30,163(x12)	 x12:0x800086ea x30=0x00000001 PA:0x8000878d
       21005000	      2099	80003e70	00bad933	srl	x18,x21,x11	 x21:0x00000023 x11:0x00000075 x18=0x00000000
       21015000	      2100	80003e74	013f1713	slli	x14,x30,0x13	 x30:0x00000001 x14=0x00080000
       21025000	      2101	80003e78	f1861a23	sh	x24,-236(x12)	 x12:0x800086ea x24:0x00000100 PA:0x800085fe
       21035000	      2102	80003e7c	b1edf213	andi	x4,x27,-1250	 x27:0x80000000  x4=0x80000000
       21045000	      2103	80003e80	f7a60fa3	sb	x26,-129(x12)	 x12:0x800086ea x26:0x00000018 PA:0x80008669
       21055000	      2104	80003e84	fef60503	lb	x10,-17(x12)	 x12:0x800086ea x10=0xffffff92 PA:0x800086d9
       21065000	      2105	80003e88	00564e03	lbu	x28,5(x12)	 x12:0x800086ea x28=0x000000a4 PA:0x800086ef
       21075000	      2106	80003e8c	05f7bf13	sltiu	x30,x15,95	 x15:0x0000064d x30=0x00000000
       21085000	      2107	80003e90	085606a3	sb	x5,141(x12)	 x12:0x800086ea  x5:0x80008eba PA:0x80008777
       21095000	      2108	80003e94	01e60483	lb	x9,30(x12)	 x12:0x800086ea  x9=0xffffffc3 PA:0x80008708
       21105000	      2109	80003e98	07260aa3	sb	x18,117(x12)	 x12:0x800086ea x18:0x00000000 PA:0x8000875f
       21115000	      2110	80003e9c	f9460da3	sb	x20,-101(x12)	 x12:0x800086ea x20:0x000000de PA:0x80008685
       21125000	      2111	80003ea0	e788e893	ori	x17,x17,-392	 x17:0x00000001 x17=0xfffffe79
       21135000	      2112	80003ea4	f1560283	lb	x5,-235(x12)	 x12:0x800086ea  x5=0x00000001 PA:0x800085ff
       21145000	      2113	80003ea8	01160d03	lb	x26,17(x12)	 x12:0x800086ea x26=0xffffffb0 PA:0x800086fb
       21155000	      2114	80003eac	f0764583	lbu	x11,-249(x12)	 x12:0x800086ea x11=0x000000aa PA:0x800085f1
       21165000	      2115	80003eb0	b4e44a37	lui	x20,0xb4e44	 x20=0xb4e44000
       21175000	      2116	80003eb4	014a25b3	slt	x11,x20,x20	 x20:0xb4e44000 x20:0xb4e44000 x11=0x00000000
       21185000	      2117	80003eb8	175b3193	sltiu	x3,x22,373	 x22:0x000000b4  x3=0x00000001
       21195000	      2118	80003ebc	f0a61c03	lh	x24,-246(x12)	 x12:0x800086ea x24=0xffffaeaf PA:0x800085f4
       21205000	      2119	80003ec0	f3c65203	lhu	x4,-196(x12)	 x12:0x800086ea  x4=0x0000dcdd PA:0x80008626
       21215000	      2120	80003ec4	f7a603a3	sb	x26,-153(x12)	 x12:0x800086ea x26:0xffffffb0 PA:0x80008651
       21225000	      2121	80003ec8	016b6b33	or	x22,x22,x22	 x22:0x000000b4 x22:0x000000b4 x22=0x000000b4
       21235000	      2122	80003ecc	00831a93	slli	x21,x6,0x8	  x6:0x0000045d x21=0x00045d00
       21245000	      2123	80003ed0	02a61d83	lh	x27,42(x12)	 x12:0x800086ea x27=0xffffcecf PA:0x80008714
       21255000	      2124	80003ed4	16317713	andi	x14,x2,355	  x2:0x800082da x14=0x00000042
       21265000	      2125	80003ed8	08860423	sb	x8,136(x12)	 x12:0x800086ea  x8:0x94959697 PA:0x80008772
       21275000	      2126	80003edc	0d760da3	sb	x23,219(x12)	 x12:0x800086ea x23:0x80009ebc PA:0x800087c5
       21285000	      2127	80003ee0	00000013	addi	x0,x0,0	  x0:0x00000000
       21295000	      2128	80003ee4	00000013	addi	x0,x0,0	  x0:0x00000000
       21305000	      2129	80003ee8	03d2f063	bgeu	x5,x29,80003f08	  x5:0x00000001 x29:0x00000000
       21315000	      2130	00000000	00000013	addi	x0,x0,0	  x0:0x00000000
       21325000	      2131	80003f04	00000013	addi	x0,x0,0	  x0:0x00000000
       21335000	      2132	80003f08	03058863	beq	x11,x16,80003f38	 x11:0x00000000 x16:0x80009fc4
       21345000	      2133	80003f0c	404a0db3	sub	x27,x20,x4	 x20:0xb4e44000  x4:0x0000dcdd x27=0xb4e36323
       21355000	      2134	80003f10	eb9e8e97	auipc	x29,0xeb9e8	 x29=0x6b9ebf0c
       21365000	      2135	80003f14	01989333	sll	x6,x17,x25	 x17:0xfffffe79 x25:0x0000005c  x6=0x90000000
       21375000	      2136	80003f18	02b27663	bgeu	x4,x11,80003f44	  x4:0x0000dcdd x11:0x00000000
       21385000	      2137	00000000	00000013	addi	x0,x0,0	  x0:0x00000000
       21395000	      2138	80003f40	00000013	addi	x0,x0,0	  x0:0x00000000
       21405000	      2139	80003f44	05ce1463	bne	x28,x28,80003f8c	 x28:0x000000a4 x28:0x000000a4
       21415000	      2140	80003f48	00d95663	bge	x18,x13,80003f54	 x18:0x00000000 x13:0x63240000
       21425000	      2141	80003f4c	030b9663	bne	x23,x16,80003f78	 x23:0x80009ebc x16:0x80009fc4
       21435000	      2142	00000000	00000013	addi	x0,x0,0	  x0:0x00000000
       21445000	      2143	80003f74	00000013	addi	x0,x0,0	  x0:0x00000000
       21455000	      2144	80003f78	03caec63	bltu	x21,x28,80003fb0	 x21:0x00045d00 x28:0x000000a4
       21465000	      2145	80003f7c	e6090693	addi	x13,x18,-416	 x18:0x00000000 x13=0xfffffe60
       21475000	      2146	80003f80	832e7a93	andi	x21,x28,-1998	 x28:0x000000a4 x21=0x00000020
       21485000	      2147	80003f84	0056e8b3	or	x17,x13,x5	 x13:0xfffffe60  x5:0x00000001 x17=0xfffffe61
       21495000	      2148	80003f88	035c7e63	bgeu	x24,x21,80003fc4	 x24:0xffffaeaf x21:0x00000020
       21505000	      2149	00000000	00000013	addi	x0,x0,0	  x0:0x00000000
       21515000	      2150	80003fc0	00000013	addi	x0,x0,0	  x0:0x00000000
       21525000	      2151	80003fc4	014e69b3	or	x19,x28,x20	 x28:0x000000a4 x20:0xb4e44000 x19=0xb4e440a4
       21535000	      2152	80003fc8	908c8693	addi	x13,x25,-1784	 x25:0x0000005c x13=0xfffff964
       21545000	      2153	80003fcc	4080d433	sra	x8,x1,x8	  x1:0x80000000  x8:0x94959697  x8=0xffffff00
       21555000	      2154	80003fd0	01edbe33	sltu	x28,x27,x30	 x27:0xb4e36323 x30:0x00000000 x28=0x00000000
       21565000	      2155	80003fd4	01eaa3b3	slt	x7,x21,x30	 x21:0x00000020 x30:0x00000000  x7=0x00000000
       21575000	      2156	80003fd8	30d08393	addi	x7,x1,781	  x1:0x80000000  x7=0x8000030d
       21585000	      2157	80003fdc	286e8a93	addi	x21,x29,646	 x29:0x6b9ebf0c x21=0x6b9ec192
       21595000	      2158	80003fe0	004a79b3	and	x19,x20,x4	 x20:0xb4e44000  x4:0x0000dcdd x19=0x00004000
       21605000	      2159	80003fe4	84914113	xori	x2,x2,-1975	  x2:0x800082da  x2=0x7fff7a93
       21615000	      2160	80003fe8	019e67b3	or	x15,x28,x25	 x28:0x00000000 x25:0x0000005c x15=0x0000005c
       21625000	      2161	80003fec	01872ab3	slt	x21,x14,x24	 x14:0x00000042 x24:0xffffaeaf x21=0x00000000
       21635000	      2162	80003ff0	40180fb3	sub	x31,x16,x1	 x16:0x80009fc4  x1:0x80000000 x31=0x00009fc4
       21645000	      2163	80003ff4	01133937	lui	x18,0x1133	 x18=0x01133000
       21655000	      2164	80003ff8	0438f863	bgeu	x17,x3,80004048	 x17:0xfffffe61  x3:0x00000001
       21665000	      2165	00000000	00000013	addi	x0,x0,0	  x0:0x00000000
       21675000	      2166	80004044	00000013	addi	x0,x0,0	  x0:0x00000000
       21685000	      2167	80004048	00d978b3	and	x17,x18,x13	 x18:0x01133000 x13:0xfffff964 x17=0x01133000
       21695000	      2168	8000404c	00fcdd33	srl	x26,x25,x15	 x25:0x0000005c x15:0x0000005c x26=0x00000000
       21705000	      2169	80004050	69bb5e97	auipc	x29,0x69bb5	 x29=0xe9bb904c
       21715000	      2170	80004054	006f9e63	bne	x31,x6,80004070	 x31:0x00009fc4  x6:0x90000000
       21725000	      2171	00000000	00000013	addi	x0,x0,0	  x0:0x00000000
       21735000	      2172	8000406c	00000013	addi	x0,x0,0	  x0:0x00000000
       21745000	      2173	80004070	40dbd593	srai	x11,x23,0xd	 x23:0x80009ebc x11=0xfffc0004
       21755000	      2174	80004074	002a1c93	slli	x25,x20,0x2	 x20:0xb4e44000 x25=0xd3910000
       21765000	      2175	80004078	7808b793	sltiu	x15,x17,1920	 x17:0x01133000 x15=0x00000000
       21775000	      2176	8000407c	00686ab3	or	x21,x16,x6	 x16:0x80009fc4  x6:0x90000000 x21=0x90009fc4
       21785000	      2177	80004080	01001413	slli	x8,x0,0x10	  x0:0x00000000  x8=0x00000000
       21795000	      2178	80004084	00000013	addi	x0,x0,0	  x0:0x00000000
       21805000	      2179	80004088	8c84a293	slti	x5,x9,-1848	  x9:0xffffffc3  x5=0x00000000
       21815000	      2180	8000408c	00000013	addi	x0,x0,0	  x0:0x00000000
       21825000	      2181	80004090	ea91b893	sltiu	x17,x3,-343	  x3:0x00000001 x17=0x00000001
       21835000	      2182	80004094	02beea63	bltu	x29,x11,800040c8	 x29:0xe9bb904c x11:0xfffc0004
       21845000	      2183	00000000	00000013	addi	x0,x0,0	  x0:0x00000000
       21855000	      2184	800040c4	00000013	addi	x0,x0,0	  x0:0x00000000
       21865000	      2185	800040c8	571e7413	andi	x8,x28,1393	 x28:0x00000000  x8=0x00000000
       21875000	      2186	800040cc	00764933	xor	x18,x12,x7	 x12:0x800086ea  x7:0x8000030d x18=0x000085e7
       21885000	      2187	800040d0	d7b82d93	slti	x27,x16,-645	 x16:0x80009fc4 x27=0x00000001
       21895000	      2188	800040d4	00627433	and	x8,x4,x6	  x4:0x0000dcdd  x6:0x90000000  x8=0x00000000
       21905000	      2189	800040d8	00efe2b3	or	x5,x31,x14	 x31:0x00009fc4 x14:0x00000042  x5=0x00009fc6
       21915000	      2190	800040dc	010d46b3	xor	x13,x26,x16	 x26:0x00000000 x16:0x80009fc4 x13=0x80009fc4
       21925000	      2191	800040e0	40455d13	srai	x26,x10,0x4	 x10:0xffffff92 x26=0xfffffff9
       21935000	      2192	800040e4	614f9b37	lui	x22,0x614f9	 x22=0x614f9000
       21945000	      2193	800040e8	d2702c13	slti	x24,x0,-729	  x0:0x00000000 x24=0x00000000
       21955000	      2194	800040ec	b7dccc13	xori	x24,x25,-1155	 x25:0xd3910000 x24=0x2c6efb7d
       21965000	      2195	800040f0	43baedb7	lui	x27,0x43bae	 x27=0x43bae000
       21975000	      2196	800040f4	049cf863	bgeu	x25,x9,80004144	 x25:0xd3910000  x9:0xffffffc3
       21985000	      2197	800040f8	10e96c13	ori	x24,x18,270	 x18:0x000085e7 x24=0x000085ef
       21995000	      2198	800040fc	017db633	sltu	x12,x27,x23	 x27:0x43bae000 x23:0x80009ebc x12=0x00000001
       22005000	      2199	80004100	015fefb3	or	x31,x31,x21	 x31:0x00009fc4 x21:0x90009fc4 x31=0x90009fc4
       22015000	      2200	80004104	d2507413	andi	x8,x0,-731	  x0:0x00000000  x8=0x00000000
       22025000	      2201	80004108	01649d33	sll	x26,x9,x22	  x9:0xffffffc3 x22:0x614f9000 x26=0xffffffc3
       22035000	      2202	8000410c	00000013	addi	x0,x0,0	  x0:0x00000000
       22045000	      2203	80004110	01c7d6b3	srl	x13,x15,x28	 x15:0x00000000 x28:0x00000000 x13=0x00000000
       22055000	      2204	80004114	18de7f93	andi	x31,x28,397	 x28:0x00000000 x31=0x00000000
       22065000	      2205	80004118	004a7263	bgeu	x20,x4,8000411c	 x20:0xb4e44000  x4:0x0000dcdd
       22075000	      2206	00000000	00000013	addi	x0,x0,0	  x0:0x00000000
       22085000	      2207	80004118	00000013	addi	x0,x0,0	  x0:0x00000000
       22095000	      2208	8000411c	00a55e63	bge	x10,x10,80004138	 x10:0xffffff92 x10:0xffffff92
       22105000	      2209	00000000	00000013	addi	x0,x0,0	  x0:0x00000000
       22115000	      2210	80004134	00000013	addi	x0,x0,0	  x0:0x00000000
       22125000	      2211	80004138	06994013	xori	x0,x18,105	 x18:0x000085e7
       22135000	      2212	8000413c	e0ecfd93	andi	x27,x25,-498	 x25:0xd3910000 x27=0xd3910000
       22145000	      2213	80004140	af557113	andi	x2,x10,-1291	 x10:0xffffff92  x2=0xfffffa90
       22155000	      2214	80004144	d39b3e13	sltiu	x28,x22,-711	 x22:0x614f9000 x28=0x00000001
       22165000	      2215	80004148	006e2133	slt	x2,x28,x6	 x28:0x00000001  x6:0x90000000  x2=0x00000000
       22175000	      2216	8000414c	00b13733	sltu	x14,x2,x11	  x2:0x00000000 x11:0xfffc0004 x14=0x00000001
       22185000	      2217	80004150	c76d4d93	xori	x27,x26,-906	 x26:0xffffffc3 x27=0x000003b5
       22195000	      2218	80004154	01d59263	bne	x11,x29,80004158	 x11:0xfffc0004 x29:0xe9bb904c
       22205000	      2219	00000000	00000013	addi	x0,x0,0	  x0:0x00000000
       22215000	      2220	80004154	00000013	addi	x0,x0,0	  x0:0x00000000
       22225000	      2221	80004158	0035f4b3	and	x9,x11,x3	 x11:0xfffc0004  x3:0x00000001  x9=0x00000000
       22235000	      2222	8000415c	da9b2213	slti	x4,x22,-599	 x22:0x614f9000  x4=0x00000000
       22245000	      2223	80004160	019ed713	srli	x14,x29,0x19	 x29:0xe9bb904c x14=0x00000074
       22255000	      2224	80004164	66198593	addi	x11,x19,1633	 x19:0x00004000 x11=0x00004661
       22265000	      2225	80004168	00a1d2b3	srl	x5,x3,x10	  x3:0x00000001 x10:0xffffff92  x5=0x00000000
       22275000	      2226	8000416c	010db9b3	sltu	x19,x27,x16	 x27:0x000003b5 x16:0x80009fc4 x19=0x00000001
       22285000	      2227	80004170	00144533	xor	x10,x8,x1	  x8:0x00000000  x1:0x80000000 x10=0x80000000
       22295000	      2228	80004174	001be333	or	x6,x23,x1	 x23:0x80009ebc  x1:0x80000000  x6=0x80009ebc
       22305000	      2229	80004178	a6664717	auipc	x14,0xa6664	 x14=0x26668174
       22315000	      2230	8000417c	0362d263	bge	x5,x22,800041a0	  x5:0x00000000 x22:0x614f9000
       22325000	      2231	80004180	04136863	bltu	x6,x1,800041d0	  x6:0x80009ebc  x1:0x80000000
       22335000	      2232	80004184	1886cc93	xori	x25,x13,392	 x13:0x00000000 x25=0x00000188
       22345000	      2233	80004188	406ad893	srai	x17,x21,0x6	 x21:0x90009fc4 x17=0xfe40027f
       22355000	      2234	8000418c	00fb3333	sltu	x6,x22,x15	 x22:0x614f9000 x15:0x00000000  x6=0x00000000
       22365000	      2235	80004190	9669e893	ori	x17,x19,-1690	 x19:0x00000001 x17=0xfffff967
       22375000	      2236	80004194	014649b3	xor	x19,x12,x20	 x12:0x00000001 x20:0xb4e44000 x19=0xb4e44001
       22385000	      2237	80004198	01d0c4b3	xor	x9,x1,x29	  x1:0x80000000 x29:0xe9bb904c  x9=0x69bb904c
       22395000	      2238	8000419c	97067993	andi	x19,x12,-1680	 x12:0x00000001 x19=0x00000000
       22405000	      2239	800041a0	41328033	sub	x0,x5,x19	  x5:0x00000000 x19:0x00000000
       22415000	      2240	800041a4	00b305b3	add	x11,x6,x11	  x6:0x00000000 x11:0x00004661 x11=0x00004661
       22425000	      2241	800041a8	01be5213	srli	x4,x28,0x1b	 x28:0x00000001  x4=0x00000000
       22435000	      2242	800041ac	01302133	slt	x2,x0,x19	  x0:0x00000000 x19:0x00000000  x2=0x00000000
       22445000	      2243	800041b0	0166ed33	or	x26,x13,x22	 x13:0x00000000 x22:0x614f9000 x26=0x614f9000
       22455000	      2244	800041b4	00202233	slt	x4,x0,x2	  x0:0x00000000  x2:0x00000000  x4=0x00000000
       22465000	      2245	800041b8	6d60fc93	andi	x25,x1,1750	  x1:0x80000000 x25=0x00000000
       22475000	      2246	800041bc	b584bd13	sltiu	x26,x9,-1192	  x9:0x69bb904c x26=0x00000001
       22485000	      2247	800041c0	016513b3	sll	x7,x10,x22	 x10:0x80000000 x22:0x614f9000  x7=0x80000000
       22495000	      2248	800041c4	02f10663	beq	x2,x15,800041f0	  x2:0x00000000 x15:0x00000000
       22505000	      2249	00000000	00000013	addi	x0,x0,0	  x0:0x00000000
       22515000	      2250	800041ec	00000013	addi	x0,x0,0	  x0:0x00000000
       22525000	      2251	800041f0	024f6e63	bltu	x30,x4,8000422c	 x30:0x00000000  x4:0x00000000
       22535000	      2252	800041f4	0426d663	bge	x13,x2,80004240	 x13:0x00000000  x2:0x00000000
       22545000	      2253	00000000	00000013	addi	x0,x0,0	  x0:0x00000000
       22555000	      2254	8000423c	00000013	addi	x0,x0,0	  x0:0x00000000
       22565000	      2255	80004240	04865263	bge	x12,x8,80004284	 x12:0x00000001  x8:0x00000000
       22575000	      2256	00000000	00000013	addi	x0,x0,0	  x0:0x00000000
       22585000	      2257	80004280	00000013	addi	x0,x0,0	  x0:0x00000000
       22595000	      2258	80004284	00165a93	srli	x21,x12,0x1	 x12:0x00000001 x21=0x00000000
       22605000	      2259	80004288	01c3bb33	sltu	x22,x7,x28	  x7:0x80000000 x28:0x00000001 x22=0x00000000
       22615000	      2260	8000428c	0059f263	bgeu	x19,x5,80004290	 x19:0x00000000  x5:0x00000000
       22625000	      2261	00000000	00000013	addi	x0,x0,0	  x0:0x00000000
       22635000	      2262	8000428c	00000013	addi	x0,x0,0	  x0:0x00000000
       22645000	      2263	80004290	00a5df13	srli	x30,x11,0xa	 x11:0x00004661 x30=0x00000011
       22655000	      2264	80004294	a2753193	sltiu	x3,x10,-1497	 x10:0x80000000  x3=0x00000001
       22665000	      2265	80004298	c6254d93	xori	x27,x10,-926	 x10:0x80000000 x27=0x7ffffc62
       22675000	      2266	8000429c	01c5e3b3	or	x7,x11,x28	 x11:0x00004661 x28:0x00000001  x7=0x00004661
       22685000	      2267	800042a0	012b7133	and	x2,x22,x18	 x22:0x00000000 x18:0x000085e7  x2=0x00000000
       22695000	      2268	800042a4	00bba1b3	slt	x3,x23,x11	 x23:0x80009ebc x11:0x00004661  x3=0x00000001
       22705000	      2269	800042a8	531b8e17	auipc	x28,0x531b8	 x28=0xd31bc2a4
       22715000	      2270	800042ac	b6e96297	auipc	x5,0xb6e96	  x5=0x36e9a2a8
       22725000	      2271	800042b0	cd2b4e17	auipc	x28,0xcd2b4	 x28=0x4d2b82ac
       22735000	      2272	800042b4	01339013	slli	x0,x7,0x13	  x7:0x00004661
       22745000	      2273	800042b8	dcaa6d13	ori	x26,x20,-566	 x20:0xb4e44000 x26=0xfffffdca
       22755000	      2274	800042bc	01c39e93	slli	x29,x7,0x1c	  x7:0x00004661 x29=0x10000000
       22765000	      2275	800042c0	41e25a93	srai	x21,x4,0x1e	  x4:0x00000000 x21=0x00000000
       22775000	      2276	800042c4	00ad1933	sll	x18,x26,x10	 x26:0xfffffdca x10:0x80000000 x18=0xfffffdca
       22785000	      2277	800042c8	038a7663	bgeu	x20,x24,800042f4	 x20:0xb4e44000 x24:0x000085ef
       22795000	      2278	00000000	00000013	addi	x0,x0,0	  x0:0x00000000
       22805000	      2279	800042f0	00000013	addi	x0,x0,0	  x0:0x00000000
       22815000	      2280	800042f4	018f5033	srl	x0,x30,x24	 x30:0x00000011 x24:0x000085ef
       22825000	      2281	800042f8	c8adea13	ori	x20,x27,-886	 x27:0x7ffffc62 x20=0xfffffcea
       22835000	      2282	800042fc	05717263	bgeu	x2,x23,80004340	  x2:0x00000000 x23:0x80009ebc
       22845000	      2283	80004300	2b16a493	slti	x9,x13,689	 x13:0x00000000  x9=0x00000001
       22855000	      2284	80004304	015fda13	srli	x20,x31,0x15	 x31:0x00000000 x20=0x00000000
       22865000	      2285	80004308	00018133	add	x2,x3,x0	  x3:0x00000001  x0:0x00000000  x2=0x00000001
       22875000	      2286	8000430c	013c6233	or	x4,x24,x19	 x24:0x000085ef x19:0x00000000  x4=0x000085ef
       22885000	      2287	80004310	4063d493	srai	x9,x7,0x6	  x7:0x00004661  x9=0x00000119
       22895000	      2288	80004314	8dfffa13	andi	x20,x31,-1825	 x31:0x00000000 x20=0x00000000
       22905000	      2289	80004318	0464f463	bgeu	x9,x6,80004360	  x9:0x00000119  x6:0x00000000
       22915000	      2290	00000000	00000013	addi	x0,x0,0	  x0:0x00000000
       22925000	      2291	8000435c	00000013	addi	x0,x0,0	  x0:0x00000000
       22935000	      2292	80004360	8b444393	xori	x7,x8,-1868	  x8:0x00000000  x7=0xfffff8b4
       22945000	      2293	80004364	00c5e463	bltu	x11,x12,8000436c	 x11:0x00004661 x12:0x00000001
       22955000	      2294	80004368	a9f94713	xori	x14,x18,-1377	 x18:0xfffffdca x14=0x00000755
       22965000	      2295	8000436c	00b6cd33	xor	x26,x13,x11	 x13:0x00000000 x11:0x00004661 x26=0x00004661
       22975000	      2296	80004370	039a6a63	bltu	x20,x25,800043a4	 x20:0x00000000 x25:0x00000000
       22985000	      2297	80004374	0153fe63	bgeu	x7,x21,80004390	  x7:0xfffff8b4 x21:0x00000000
       22995000	      2298	00000000	00000013	addi	x0,x0,0	  x0:0x00000000
       23005000	      2299	8000438c	00000013	addi	x0,x0,0	  x0:0x00000000
       23015000	      2300	80004390	fbfdb113	sltiu	x2,x27,-65	 x27:0x7ffffc62  x2=0x00000001
       23025000	      2301	80004394	014f4fb3	xor	x31,x30,x20	 x30:0x00000011 x20:0x00000000 x31=0x00000011
       23035000	      2302	80004398	03066a63	bltu	x12,x16,800043cc	 x12:0x00000001 x16:0x80009fc4
       23045000	      2303	00000000	00000013	addi	x0,x0,0	  x0:0x00000000
       23055000	      2304	800043c8	00000013	addi	x0,x0,0	  x0:0x00000000
       23065000	      2305	800043cc	04cfd463	bge	x31,x12,80004414	 x31:0x00000011 x12:0x00000001
       23075000	      2306	00000000	00000013	addi	x0,x0,0	  x0:0x00000000
       23085000	      2307	80004410	00000013	addi	x0,x0,0	  x0:0x00000000
       23095000	      2308	80004414	00c49513	slli	x10,x9,0xc	  x9:0x00000119 x10=0x00119000
       23105000	      2309	80004418	0044e8b3	or	x17,x9,x4	  x9:0x00000119  x4:0x000085ef x17=0x000085ff
       23115000	      2310	8000441c	01f0ee63	bltu	x1,x31,80004438	  x1:0x80000000 x31:0x00000011
       23125000	      2311	80004420	df2f8213	addi	x4,x31,-526	 x31:0x00000011  x4=0xfffffe03
       23135000	      2312	80004424	00e8d633	srl	x12,x17,x14	 x17:0x000085ff x14:0x00000755 x12=0x00000000
       23145000	      2313	80004428	182c4e37	lui	x28,0x182c4	 x28=0x182c4000
       23155000	      2314	8000442c	00ff7d33	and	x26,x30,x15	 x30:0x00000011 x15:0x00000000 x26=0x00000000
       23165000	      2315	80004430	01955db3	srl	x27,x10,x25	 x10:0x00119000 x25:0x00000000 x27=0x00119000
       23175000	      2316	80004434	00410933	add	x18,x2,x4	  x2:0x00000001  x4:0xfffffe03 x18=0xfffffe04
       23185000	      2317	80004438	413a0fb3	sub	x31,x20,x19	 x20:0x00000000 x19:0x00000000 x31=0x00000000
       23195000	      2318	8000443c	0048d313	srli	x6,x17,0x4	 x17:0x000085ff  x6=0x0000085f
       23205000	      2319	80004440	b3af9917	auipc	x18,0xb3af9	 x18=0x33afd43c
       23215000	      2320	80004444	02d08c63	beq	x1,x13,8000447c	  x1:0x80000000 x13:0x00000000
       23225000	      2321	80004448	01d61113	slli	x2,x12,0x1d	 x12:0x00000000  x2=0x00000000
       23235000	      2322	8000444c	ca5cc993	xori	x19,x25,-859	 x25:0x00000000 x19=0xfffffca5
       23245000	      2323	80004450	007d7263	bgeu	x26,x7,80004454	 x26:0x00000000  x7:0xfffff8b4
       23255000	      2324	80004454	b00d8993	addi	x19,x27,-1280	 x27:0x00119000 x19=0x00118b00
       23265000	      2325	80004458	c09eb417	auipc	x8,0xc09eb	  x8=0x409ef454
       23275000	      2326	8000445c	01b7be33	sltu	x28,x15,x27	 x15:0x00000000 x27:0x00119000 x28=0x00000001
       23285000	      2327	80004460	0444f863	bgeu	x9,x4,800044b0	  x9:0x00000119  x4:0xfffffe03
       23295000	      2328	80004464	0129d993	srli	x19,x19,0x12	 x19:0x00118b00 x19=0x00000004
       23305000	      2329	80004468	0326c063	blt	x13,x18,80004488	 x13:0x00000000 x18:0x33afd43c
       23315000	      2330	00000000	00000013	addi	x0,x0,0	  x0:0x00000000
       23325000	      2331	80004484	00000013	addi	x0,x0,0	  x0:0x00000000
       23335000	      2332	80004488	049c4263	blt	x24,x9,800044cc	 x24:0x000085ef  x9:0x00000119
       23345000	      2333	8000448c	3bb4bcb7	lui	x25,0x3bb4b	 x25=0x3bb4b000
       23355000	      2334	80004490	016da633	slt	x12,x27,x22	 x27:0x00119000 x22:0x00000000 x12=0x00000000
       23365000	      2335	80004494	000badb3	slt	x27,x23,x0	 x23:0x80009ebc  x0:0x00000000 x27=0x00000001
       23375000	      2336	80004498	02bfc663	blt	x31,x11,800044c4	 x31:0x00000000 x11:0x00004661
       23385000	      2337	00000000	00000013	addi	x0,x0,0	  x0:0x00000000
       23395000	      2338	800044c0	00000013	addi	x0,x0,0	  x0:0x00000000
       23405000	      2339	800044c4	01a61633	sll	x12,x12,x26	 x12:0x00000000 x26:0x00000000 x12=0x00000000
       23415000	      2340	800044c8	04b2e263	bltu	x5,x11,8000450c	  x5:0x36e9a2a8 x11:0x00004661
       23425000	      2341	800044cc	40be0733	sub	x14,x28,x11	 x28:0x00000001 x11:0x00004661 x14=0xffffb9a0
       23435000	      2342	800044d0	41fd04b3	sub	x9,x26,x31	 x26:0x00000000 x31:0x00000000  x9=0x00000000
       23445000	      2343	800044d4	989b0137	lui	x2,0x989b0	  x2=0x989b0000
       23455000	      2344	800044d8	03e36863	bltu	x6,x30,80004508	  x6:0x0000085f x30:0x00000011
       23465000	      2345	800044dc	014c0a33	add	x20,x24,x20	 x24:0x000085ef x20:0x00000000 x20=0x000085ef
       23475000	      2346	800044e0	05621863	bne	x4,x22,80004530	  x4:0xfffffe03 x22:0x00000000
       23485000	      2347	00000000	00000013	addi	x0,x0,0	  x0:0x00000000
       23495000	      2348	8000452c	00000013	addi	x0,x0,0	  x0:0x00000000
       23505000	      2349	80004530	01dc1013	slli	x0,x24,0x1d	 x24:0x000085ef
       23515000	      2350	80004534	00efe7b3	or	x15,x31,x14	 x31:0x00000000 x14:0xffffb9a0 x15=0xffffb9a0
       23525000	      2351	80004538	99fe0b17	auipc	x22,0x99fe0	 x22=0x19fe4534
       23535000	      2352	8000453c	009c83b3	add	x7,x25,x9	 x25:0x3bb4b000  x9:0x00000000  x7=0x3bb4b000
       23545000	      2353	80004540	015b97b3	sll	x15,x23,x21	 x23:0x80009ebc x21:0x00000000 x15=0x80009ebc
       23555000	      2354	80004544	41ebdd13	srai	x26,x23,0x1e	 x23:0x80009ebc x26=0xfffffffe
       23565000	      2355	80004548	014becb3	or	x25,x23,x20	 x23:0x80009ebc x20:0x000085ef x25=0x80009fff
       23575000	      2356	8000454c	00811433	sll	x8,x2,x8	  x2:0x989b0000  x8:0x409ef454  x8=0x00000000
       23585000	      2357	80004550	407a06b3	sub	x13,x20,x7	 x20:0x000085ef  x7:0x3bb4b000 x13=0xc44bd5ef
       23595000	      2358	80004554	00a9dc13	srli	x24,x19,0xa	 x19:0x00000004 x24=0x00000000
       23605000	      2359	80004558	00163db3	sltu	x27,x12,x1	 x12:0x00000000  x1:0x80000000 x27=0x00000001
       23615000	      2360	8000455c	02d48263	beq	x9,x13,80004580	  x9:0x00000000 x13:0xc44bd5ef
       23625000	      2361	80004560	009ed933	srl	x18,x29,x9	 x29:0x10000000  x9:0x00000000 x18=0x10000000
       23635000	      2362	80004564	00ec9693	slli	x13,x25,0xe	 x25:0x80009fff x13=0x27ffc000
       23645000	      2363	80004568	56b72993	slti	x19,x14,1387	 x14:0xffffb9a0 x19=0x00000001
       23655000	      2364	8000456c	00000013	addi	x0,x0,0	  x0:0x00000000
       23665000	      2365	80004570	018c1db3	sll	x27,x24,x24	 x24:0x00000000 x24:0x00000000 x27=0x00000000
       23675000	      2366	80004574	fb586513	ori	x10,x16,-75	 x16:0x80009fc4 x10=0xfffffff5
       23685000	      2367	80004578	1aba4393	xori	x7,x20,427	 x20:0x000085ef  x7=0x00008444
       23695000	      2368	8000457c	a1636c13	ori	x24,x6,-1514	  x6:0x0000085f x24=0xfffffa5f
       23705000	      2369	80004580	003b83b3	add	x7,x23,x3	 x23:0x80009ebc  x3:0x00000001  x7=0x80009ebd
       23715000	      2370	80004584	01e66a33	or	x20,x12,x30	 x12:0x00000000 x30:0x00000011 x20=0x00000011
       23725000	      2371	80004588	80878893	addi	x17,x15,-2040	 x15:0x80009ebc x17=0x800096c4
       23735000	      2372	8000458c	01fd1fb3	sll	x31,x26,x31	 x26:0xfffffffe x31:0x00000000 x31=0xfffffffe
       23745000	      2373	80004590	01c14263	blt	x2,x28,80004594	  x2:0x989b0000 x28:0x00000001
       23755000	      2374	00000000	00000013	addi	x0,x0,0	  x0:0x00000000
       23765000	      2375	80004590	00000013	addi	x0,x0,0	  x0:0x00000000
       23775000	      2376	80004594	410bdc33	sra	x24,x23,x16	 x23:0x80009ebc x16:0x80009fc4 x24=0xf80009eb
       23785000	      2377	80004598	01c08933	add	x18,x1,x28	  x1:0x80000000 x28:0x00000001 x18=0x80000001
       23795000	      2378	8000459c	007f8263	beq	x31,x7,800045a0	 x31:0xfffffffe  x7:0x80009ebd
       23805000	      2379	800045a0	029e6463	bltu	x28,x9,800045c8	 x28:0x00000001  x9:0x00000000
       23815000	      2380	800045a4	01f90c33	add	x24,x18,x31	 x18:0x80000001 x31:0xfffffffe x24=0x7fffffff
       23825000	      2381	800045a8	40ca57b3	sra	x15,x20,x12	 x20:0x00000011 x12:0x00000000 x15=0x00000011
       23835000	      2382	800045ac	4111d113	srai	x2,x3,0x11	  x3:0x00000001  x2=0x00000000
       23845000	      2383	800045b0	400b8333	sub	x6,x23,x0	 x23:0x80009ebc  x0:0x00000000  x6=0x80009ebc
       23855000	      2384	800045b4	0035de93	srli	x29,x11,0x3	 x11:0x00004661 x29=0x000008cc
       23865000	      2385	800045b8	038d1663	bne	x26,x24,800045e4	 x26:0xfffffffe x24:0x7fffffff
       23875000	      2386	00000000	00000013	addi	x0,x0,0	  x0:0x00000000
       23885000	      2387	800045e0	00000013	addi	x0,x0,0	  x0:0x00000000
       23895000	      2388	800045e4	01322f33	slt	x30,x4,x19	  x4:0xfffffe03 x19:0x00000001 x30=0x00000001
       23905000	      2389	800045e8	75e092b7	lui	x5,0x75e09	  x5=0x75e09000
       23915000	      2390	800045ec	00000013	addi	x0,x0,0	  x0:0x00000000
       23925000	      2391	800045f0	0134d6b3	srl	x13,x9,x19	  x9:0x00000000 x19:0x00000001 x13=0x00000000
       23935000	      2392	800045f4	79e82f13	slti	x30,x16,1950	 x16:0x80009fc4 x30=0x00000001
       23945000	      2393	800045f8	240ea993	slti	x19,x29,576	 x29:0x000008cc x19=0x00000000
       23955000	      2394	800045fc	051ef463	bgeu	x29,x17,80004644	 x29:0x000008cc x17:0x800096c4
       23965000	      2395	80004600	4069d1b3	sra	x3,x19,x6	 x19:0x00000000  x6:0x80009ebc  x3=0x00000000
       23975000	      2396	80004604	5d8d0f93	addi	x31,x26,1496	 x26:0xfffffffe x31=0x000005d6
       23985000	      2397	80004608	01cd1463	bne	x26,x28,80004610	 x26:0xfffffffe x28:0x00000001
       23995000	      2398	00000000	00000013	addi	x0,x0,0	  x0:0x00000000
       24005000	      2399	8000460c	00000013	addi	x0,x0,0	  x0:0x00000000
       24015000	      2400	80004610	02498a63	beq	x19,x4,80004644	 x19:0x00000000  x4:0xfffffe03
       24025000	      2401	80004614	015b67b3	or	x15,x22,x21	 x22:0x19fe4534 x21:0x00000000 x15=0x19fe4534
       24035000	      2402	80004618	017e9933	sll	x18,x29,x23	 x29:0x000008cc x23:0x80009ebc x18=0xc0000000
       24045000	      2403	8000461c	6d93a997	auipc	x19,0x6d93a	 x19=0xed93e618
       24055000	      2404	80004620	00645eb3	srl	x29,x8,x6	  x8:0x00000000  x6:0x80009ebc x29=0x00000000
       24065000	      2405	80004624	204d6517	auipc	x10,0x204d6	 x10=0xa04da620
       24075000	      2406	80004628	04204463	blt	x0,x2,80004670	  x0:0x00000000  x2:0x00000000
       24085000	      2407	8000462c	03c81463	bne	x16,x28,80004654	 x16:0x80009fc4 x28:0x00000001
       24095000	      2408	00000000	00000013	addi	x0,x0,0	  x0:0x00000000
       24105000	      2409	80004650	00000013	addi	x0,x0,0	  x0:0x00000000
       24115000	      2410	80004654	00c83733	sltu	x14,x16,x12	 x16:0x80009fc4 x12:0x00000000 x14=0x00000000
       24125000	      2411	80004658	01007133	and	x2,x0,x16	  x0:0x00000000 x16:0x80009fc4  x2=0x00000000
       24135000	      2412	8000465c	c771b4b7	lui	x9,0xc771b	  x9=0xc771b000
       24145000	      2413	80004660	41675393	srai	x7,x14,0x16	 x14:0x00000000  x7=0x00000000
       24155000	      2414	80004664	f1712513	slti	x10,x2,-233	  x2:0x00000000 x10=0x00000000
       24165000	      2415	80004668	00ed1033	sll	x0,x26,x14	 x26:0xfffffffe x14:0x00000000
       24175000	      2416	8000466c	41e2d493	srai	x9,x5,0x1e	  x5:0x75e09000  x9=0x00000001
       24185000	      2417	80004670	00a8b933	sltu	x18,x17,x10	 x17:0x800096c4 x10:0x00000000 x18=0x00000000
       24195000	      2418	80004674	04318863	beq	x3,x3,800046c4	  x3:0x00000000  x3:0x00000000
       24205000	      2419	00000000	00000013	addi	x0,x0,0	  x0:0x00000000
       24215000	      2420	800046c0	00000013	addi	x0,x0,0	  x0:0x00000000
       24225000	      2421	800046c4	40a95f33	sra	x30,x18,x10	 x18:0x00000000 x10:0x00000000 x30=0x00000000
       24235000	      2422	800046c8	054fc263	blt	x31,x20,8000470c	 x31:0x000005d6 x20:0x00000011
       24245000	      2423	800046cc	018b6433	or	x8,x22,x24	 x22:0x19fe4534 x24:0x7fffffff  x8=0x7fffffff
       24255000	      2424	800046d0	01355463	bge	x10,x19,800046d8	 x10:0x00000000 x19:0xed93e618
       24265000	      2425	00000000	00000013	addi	x0,x0,0	  x0:0x00000000
       24275000	      2426	800046d4	00000013	addi	x0,x0,0	  x0:0x00000000
       24285000	      2427	800046d8	013f02b3	add	x5,x30,x19	 x30:0x00000000 x19:0xed93e618  x5=0xed93e618
       24295000	      2428	800046dc	4ddec393	xori	x7,x29,1245	 x29:0x00000000  x7=0x000004dd
       24305000	      2429	800046e0	002157b3	srl	x15,x2,x2	  x2:0x00000000  x2:0x00000000 x15=0x00000000
       24315000	      2430	800046e4	a1f23413	sltiu	x8,x4,-1505	  x4:0xfffffe03  x8=0x00000000
       24325000	      2431	800046e8	02d00663	beq	x0,x13,80004714	  x0:0x00000000 x13:0x00000000
       24335000	      2432	00000000	00000013	addi	x0,x0,0	  x0:0x00000000
       24345000	      2433	80004710	00000013	addi	x0,x0,0	  x0:0x00000000
       24355000	      2434	80004714	005d7db3	and	x27,x26,x5	 x26:0xfffffffe  x5:0xed93e618 x27=0xed93e618
       24365000	      2435	80004718	0090ceb3	xor	x29,x1,x9	  x1:0x80000000  x9:0x00000001 x29=0x80000001
       24375000	      2436	8000471c	409e5e93	srai	x29,x28,0x9	 x28:0x00000001 x29=0x00000000
       24385000	      2437	80004720	00b2efb3	or	x31,x5,x11	  x5:0xed93e618 x11:0x00004661 x31=0xed93e679
       24395000	      2438	80004724	01586333	or	x6,x16,x21	 x16:0x80009fc4 x21:0x00000000  x6=0x80009fc4
       24405000	      2439	80004728	58538517	auipc	x10,0x58538	 x10=0xd853c724
       24415000	      2440	8000472c	4150d7b3	sra	x15,x1,x21	  x1:0x80000000 x21:0x00000000 x15=0x80000000
       24425000	      2441	80004730	3db1f993	andi	x19,x3,987	  x3:0x00000000 x19=0x00000000
       24435000	      2442	80004734	4054da13	srai	x20,x9,0x5	  x9:0x00000001 x20=0x00000000
       24445000	      2443	80004738	0139c533	xor	x10,x19,x19	 x19:0x00000000 x19:0x00000000 x10=0x00000000
       24455000	      2444	8000473c	c7c9af93	slti	x31,x19,-900	 x19:0x00000000 x31=0x00000000
       24465000	      2445	80004740	042d7863	bgeu	x26,x2,80004790	 x26:0xfffffffe  x2:0x00000000
       24475000	      2446	00000000	00000013	addi	x0,x0,0	  x0:0x00000000
       24485000	      2447	8000478c	00000013	addi	x0,x0,0	  x0:0x00000000
       24495000	      2448	80004790	bee3fc93	andi	x25,x7,-1042	  x7:0x000004dd x25=0x000000cc
       24505000	      2449	80004794	019337b3	sltu	x15,x6,x25	  x6:0x80009fc4 x25:0x000000cc x15=0x00000000
       24515000	      2450	80004798	147b7913	andi	x18,x22,327	 x22:0x19fe4534 x18=0x00000104
       24525000	      2451	8000479c	ecfaed13	ori	x26,x21,-305	 x21:0x00000000 x26=0xfffffecf
       24535000	      2452	800047a0	419e5ab3	sra	x21,x28,x25	 x28:0x00000001 x25:0x000000cc x21=0x00000000
       24545000	      2453	800047a4	13328313	addi	x6,x5,307	  x5:0xed93e618  x6=0xed93e74b
       24555000	      2454	800047a8	b8ba8c93	addi	x25,x21,-1141	 x21:0x00000000 x25=0xfffffb8b
       24565000	      2455	800047ac	00067d33	and	x26,x12,x0	 x12:0x00000000  x0:0x00000000 x26=0x00000000
       24575000	      2456	800047b0	018d9a93	slli	x21,x27,0x18	 x27:0xed93e618 x21=0x18000000
       24585000	      2457	800047b4	002e59b3	srl	x19,x28,x2	 x28:0x00000001  x2:0x00000000 x19=0x00000001
       24595000	      2458	800047b8	01828663	beq	x5,x24,800047c4	  x5:0xed93e618 x24:0x7fffffff
       24605000	      2459	800047bc	00364e63	blt	x12,x3,800047d8	 x12:0x00000000  x3:0x00000000
       24615000	      2460	800047c0	b8f06013	ori	x0,x0,-1137	  x0:0x00000000
       24625000	      2461	800047c4	000d9793	slli	x15,x27,0x0	 x27:0xed93e618 x15=0xed93e618
       24635000	      2462	800047c8	0098d633	srl	x12,x17,x9	 x17:0x800096c4  x9:0x00000001 x12=0x40004b62
       24645000	      2463	800047cc	0110e1b3	or	x3,x1,x17	  x1:0x80000000 x17:0x800096c4  x3=0x800096c4
       24655000	      2464	800047d0	0016bd33	sltu	x26,x13,x1	 x13:0x00000000  x1:0x80000000 x26=0x00000001
       24665000	      2465	800047d4	041ce663	bltu	x25,x1,80004820	 x25:0xfffffb8b  x1:0x80000000
       24675000	      2466	800047d8	00243433	sltu	x8,x8,x2	  x8:0x00000000  x2:0x00000000  x8=0x00000000
       24685000	      2467	800047dc	0035ca63	blt	x11,x3,800047f0	 x11:0x00004661  x3:0x800096c4
       24695000	      2468	800047e0	0497b717	auipc	x14,0x497b	 x14=0x8497f7dc
       24705000	      2469	800047e4	04ece463	bltu	x25,x14,8000482c	 x25:0xfffffb8b x14:0x8497f7dc
       24715000	      2470	800047e8	006ff933	and	x18,x31,x6	 x31:0x00000000  x6:0xed93e74b x18=0x00000000
       24725000	      2471	800047ec	41b6d433	sra	x8,x13,x27	 x13:0x00000000 x27:0xed93e618  x8=0x00000000
       24735000	      2472	800047f0	341afa17	auipc	x20,0x341af	 x20=0xb41b37ec
       24745000	      2473	800047f4	02c06263	bltu	x0,x12,80004818	  x0:0x00000000 x12:0x40004b62
       24755000	      2474	00000000	00000013	addi	x0,x0,0	  x0:0x00000000
       24765000	      2475	80004814	00000013	addi	x0,x0,0	  x0:0x00000000
       24775000	      2476	80004818	40bedfb3	sra	x31,x29,x11	 x29:0x00000000 x11:0x00004661 x31=0x00000000
       24785000	      2477	8000481c	019a42b3	xor	x5,x20,x25	 x20:0xb41b37ec x25:0xfffffb8b  x5=0x4be4cc67
       24795000	      2478	80004820	05751863	bne	x10,x23,80004870	 x10:0x00000000 x23:0x80009ebc
       24805000	      2479	00000000	00000013	addi	x0,x0,0	  x0:0x00000000
       24815000	      2480	8000486c	00000013	addi	x0,x0,0	  x0:0x00000000
       24825000	      2481	80004870	00647333	and	x6,x8,x6	  x8:0x00000000  x6:0xed93e74b  x6=0x00000000
       24835000	      2482	80004874	00d1dc63	bge	x3,x13,8000488c	  x3:0x800096c4 x13:0x00000000
       24845000	      2483	80004878	0021c463	blt	x3,x2,80004880	  x3:0x800096c4  x2:0x00000000
       24855000	      2484	00000000	00000013	addi	x0,x0,0	  x0:0x00000000
       24865000	      2485	8000487c	00000013	addi	x0,x0,0	  x0:0x00000000
       24875000	      2486	80004880	0083c2b3	xor	x5,x7,x8	  x7:0x000004dd  x8:0x00000000  x5=0x000004dd
       24885000	      2487	80004884	d87784b7	lui	x9,0xd8778	  x9=0xd8778000
       24895000	      2488	80004888	b520e793	ori	x15,x1,-1198	  x1:0x80000000 x15=0xfffffb52
       24905000	      2489	8000488c	01741463	bne	x8,x23,80004894	  x8:0x00000000 x23:0x80009ebc
       24915000	      2490	00000000	00000013	addi	x0,x0,0	  x0:0x00000000
       24925000	      2491	80004890	00000013	addi	x0,x0,0	  x0:0x00000000
       24935000	      2492	80004894	01bec7b3	xor	x15,x29,x27	 x29:0x00000000 x27:0xed93e618 x15=0xed93e618
       24945000	      2493	80004898	416a87b3	sub	x15,x21,x22	 x21:0x18000000 x22:0x19fe4534 x15=0xfe01bacc
       24955000	      2494	8000489c	00e84eb3	xor	x29,x16,x14	 x16:0x80009fc4 x14:0x8497f7dc x29=0x04976818
       24965000	      2495	800048a0	84b6e693	ori	x13,x13,-1973	 x13:0x00000000 x13=0xfffff84b
       24975000	      2496	800048a4	24700437	lui	x8,0x24700	  x8=0x24700000
       24985000	      2497	800048a8	00149f93	slli	x31,x9,0x1	  x9:0xd8778000 x31=0xb0ef0000
       24995000	      2498	800048ac	0125a3b3	slt	x7,x11,x18	 x11:0x00004661 x18:0x00000000  x7=0x00000000
       25005000	      2499	800048b0	4067deb3	sra	x29,x15,x6	 x15:0xfe01bacc  x6:0x00000000 x29=0xfe01bacc
       25015000	      2500	800048b4	00962a33	slt	x20,x12,x9	 x12:0x40004b62  x9:0xd8778000 x20=0x00000000
       25025000	      2501	800048b8	00264e33	xor	x28,x12,x2	 x12:0x40004b62  x2:0x00000000 x28=0x40004b62
       25035000	      2502	800048bc	00611493	slli	x9,x2,0x6	  x2:0x00000000  x9=0x00000000
       25045000	      2503	800048c0	02044463	blt	x8,x0,800048e8	  x8:0x24700000  x0:0x00000000
       25055000	      2504	800048c4	004a5013	srli	x0,x20,0x4	 x20:0x00000000
       25065000	      2505	800048c8	01c68663	beq	x13,x28,800048d4	 x13:0xfffff84b x28:0x40004b62
       25075000	      2506	800048cc	0396ce63	blt	x13,x25,80004908	 x13:0xfffff84b x25:0xfffffb8b
       25085000	      2507	00000000	00000013	addi	x0,x0,0	  x0:0x00000000
       25095000	      2508	80004904	00000013	addi	x0,x0,0	  x0:0x00000000
       25105000	      2509	80004908	00c2ccb7	lui	x25,0xc2c	 x25=0x00c2c000
       25115000	      2510	8000490c	000fdf33	srl	x30,x31,x0	 x31:0xb0ef0000  x0:0x00000000 x30=0xb0ef0000
       25125000	      2511	80004910	014f64b3	or	x9,x30,x20	 x30:0xb0ef0000 x20:0x00000000  x9=0xb0ef0000
       25135000	      2512	80004914	00b16463	bltu	x2,x11,8000491c	  x2:0x00000000 x11:0x00004661
       25145000	      2513	00000000	00000013	addi	x0,x0,0	  x0:0x00000000
       25155000	      2514	80004918	00000013	addi	x0,x0,0	  x0:0x00000000
       25165000	      2515	8000491c	8f243913	sltiu	x18,x8,-1806	  x8:0x24700000 x18=0x00000001
       25175000	      2516	80004920	04f3d463	bge	x7,x15,80004968	  x7:0x00000000 x15:0xfe01bacc
       25185000	      2517	00000000	00000013	addi	x0,x0,0	  x0:0x00000000
       25195000	      2518	80004964	00000013	addi	x0,x0,0	  x0:0x00000000
       25205000	      2519	80004968	01a49613	slli	x12,x9,0x1a	  x9:0xb0ef0000 x12=0x00000000
       25215000	      2520	8000496c	c8a42d93	slti	x27,x8,-886	  x8:0x24700000 x27=0x00000000
       25225000	      2521	80004970	01e59c13	slli	x24,x11,0x1e	 x11:0x00004661 x24=0x40000000
       25235000	      2522	80004974	020e5a63	bge	x28,x0,800049a8	 x28:0x40004b62  x0:0x00000000
       25245000	      2523	00000000	00000013	addi	x0,x0,0	  x0:0x00000000
       25255000	      2524	800049a4	00000013	addi	x0,x0,0	  x0:0x00000000
       25265000	      2525	800049a8	0bb53593	sltiu	x11,x10,187	 x10:0x00000000 x11=0x00000001
       25275000	      2526	800049ac	40a65a93	srai	x21,x12,0xa	 x12:0x00000000 x21=0x00000000
       25285000	      2527	800049b0	413fdb33	sra	x22,x31,x19	 x31:0xb0ef0000 x19:0x00000001 x22=0xd8778000
       25295000	      2528	800049b4	3642cf93	xori	x31,x5,868	  x5:0x000004dd x31=0x000007b9
       25305000	      2529	800049b8	44a69c17	auipc	x24,0x44a69	 x24=0xc4a6d9b4
       25315000	      2530	800049bc	5c340c13	addi	x24,x8,1475	  x8:0x24700000 x24=0x247005c3
       25325000	      2531	800049c0	00208463	beq	x1,x2,800049c8	  x1:0x80000000  x2:0x00000000
       25335000	      2532	800049c4	00148533	add	x10,x9,x1	  x9:0xb0ef0000  x1:0x80000000 x10=0x30ef0000
       25345000	      2533	800049c8	23764213	xori	x4,x12,567	 x12:0x00000000  x4=0x00000237
       25355000	      2534	800049cc	00274cb3	xor	x25,x14,x2	 x14:0x8497f7dc  x2:0x00000000 x25=0x8497f7dc
       25365000	      2535	800049d0	0026c463	blt	x13,x2,800049d8	 x13:0xfffff84b  x2:0x00000000
       25375000	      2536	00000000	00000013	addi	x0,x0,0	  x0:0x00000000
       25385000	      2537	800049d4	00000013	addi	x0,x0,0	  x0:0x00000000
       25395000	      2538	800049d8	0ed8d463	bge	x17,x13,80004ac0	 x17:0x800096c4 x13:0xfffff84b
       25405000	      2539	800049dc	96538c93	addi	x25,x7,-1691	  x7:0x00000000 x25=0xfffff965
       25415000	      2540	800049e0	0c467863	bgeu	x12,x4,80004ab0	 x12:0x00000000  x4:0x00000237
       25425000	      2541	800049e4	ba9d2493	slti	x9,x26,-1111	 x26:0x00000001  x9=0x00000000
       25435000	      2542	800049e8	010d9233	sll	x4,x27,x16	 x27:0x00000000 x16:0x80009fc4  x4=0x00000000
       25445000	      2543	800049ec	0eec5c63	bge	x24,x14,80004ae4	 x24:0x247005c3 x14:0x8497f7dc
       25455000	      2544	00000000	00000013	addi	x0,x0,0	  x0:0x00000000
       25465000	      2545	80004ae0	00000013	addi	x0,x0,0	  x0:0x00000000
       25475000	      2546	80004ae4	40f4d9b3	sra	x19,x9,x15	  x9:0x00000000 x15:0xfe01bacc x19=0x00000000
       25485000	      2547	80004ae8	fbdb7b13	andi	x22,x22,-67	 x22:0xd8778000 x22=0xd8778000
       25495000	      2548	80004aec	abb3d537	lui	x10,0xabb3d	 x10=0xabb3d000
       25505000	      2549	80004af0	013b8463	beq	x23,x19,80004af8	 x23:0x80009ebc x19:0x00000000
       25515000	      2550	80004af4	402407b3	sub	x15,x8,x2	  x8:0x24700000  x2:0x00000000 x15=0x24700000
       25525000	      2551	80004af8	003c9913	slli	x18,x25,0x3	 x25:0xfffff965 x18=0xffffcb28
       25535000	      2552	80004afc	0131db33	srl	x22,x3,x19	  x3:0x800096c4 x19:0x00000000 x22=0x800096c4
       25545000	      2553	80004b00	41a25613	srai	x12,x4,0x1a	  x4:0x00000000 x12=0x00000000
       25555000	      2554	80004b04	41ead1b3	sra	x3,x21,x30	 x21:0x00000000 x30:0xb0ef0000  x3=0x00000000
       25565000	      2555	80004b08	01527e63	bgeu	x4,x21,80004b24	  x4:0x00000000 x21:0x00000000
       25575000	      2556	00000000	00000013	addi	x0,x0,0	  x0:0x00000000
       25585000	      2557	80004b20	00000013	addi	x0,x0,0	  x0:0x00000000
       25595000	      2558	80004b24	007d1f13	slli	x30,x26,0x7	 x26:0x00000001 x30=0x00000080
       25605000	      2559	80004b28	0075aeb3	slt	x29,x11,x7	 x11:0x00000001  x7:0x00000000 x29=0x00000000
       25615000	      2560	80004b2c	03df0a63	beq	x30,x29,80004b60	 x30:0x00000080 x29:0x00000000
       25625000	      2561	80004b30	01be5433	srl	x8,x28,x27	 x28:0x40004b62 x27:0x00000000  x8=0x40004b62
       25635000	      2562	80004b34	00f28fb3	add	x31,x5,x15	  x5:0x000004dd x15:0x24700000 x31=0x247004dd
       25645000	      2563	80004b38	01be5fb3	srl	x31,x28,x27	 x28:0x40004b62 x27:0x00000000 x31=0x40004b62
       25655000	      2564	80004b3c	05c54263	blt	x10,x28,80004b80	 x10:0xabb3d000 x28:0x40004b62
       25665000	      2565	00000000	00000013	addi	x0,x0,0	  x0:0x00000000
       25675000	      2566	80004b7c	00000013	addi	x0,x0,0	  x0:0x00000000
       25685000	      2567	80004b80	41ecd9b3	sra	x19,x25,x30	 x25:0xfffff965 x30:0x00000080 x19=0xfffff965
       25695000	      2568	80004b84	01e50fb3	add	x31,x10,x30	 x10:0xabb3d000 x30:0x00000080 x31=0xabb3d080
       25705000	      2569	80004b88	23bba793	slti	x15,x23,571	 x23:0x80009ebc x15=0x00000001
       25715000	      2570	80004b8c	01418ab3	add	x21,x3,x20	  x3:0x00000000 x20:0x00000000 x21=0x00000000
       25725000	      2571	80004b90	8e470497	auipc	x9,0x8e470	  x9=0x0e474b8c
       25735000	      2572	80004b94	04fdc263	blt	x27,x15,80004bd8	 x27:0x00000000 x15:0x00000001
       25745000	      2573	00000000	00000013	addi	x0,x0,0	  x0:0x00000000
       25755000	      2574	80004bd4	00000013	addi	x0,x0,0	  x0:0x00000000
       25765000	      2575	80004bd8	407f0d33	sub	x26,x30,x7	 x30:0x00000080  x7:0x00000000 x26=0x00000080
       25775000	      2576	80004bdc	ab556d17	auipc	x26,0xab556	 x26=0x2b55abd8
       25785000	      2577	80004be0	03ff6d13	ori	x26,x30,63	 x30:0x00000080 x26=0x000000bf
       25795000	      2578	80004be4	002b8633	add	x12,x23,x2	 x23:0x80009ebc  x2:0x00000000 x12=0x80009ebc
       25805000	      2579	80004be8	0089d033	srl	x0,x19,x8	 x19:0xfffff965  x8:0x40004b62
       25815000	      2580	80004bec	0199b2b3	sltu	x5,x19,x25	 x19:0xfffff965 x25:0xfffff965  x5=0x00000000
       25825000	      2581	80004bf0	04b86863	bltu	x16,x11,80004c40	 x16:0x80009fc4 x11:0x00000001
       25835000	      2582	80004bf4	00e5e8b3	or	x17,x11,x14	 x11:0x00000001 x14:0x8497f7dc x17=0x8497f7dd
       25845000	      2583	80004bf8	aed97393	andi	x7,x18,-1299	 x18:0xffffcb28  x7=0xffffca28
       25855000	      2584	80004bfc	41c85433	sra	x8,x16,x28	 x16:0x80009fc4 x28:0x40004b62  x8=0xe00027f1
       25865000	      2585	80004c00	015f5b33	srl	x22,x30,x21	 x30:0x00000080 x21:0x00000000 x22=0x00000080
       25875000	      2586	80004c04	05cb0863	beq	x22,x28,80004c54	 x22:0x00000080 x28:0x40004b62
       25885000	      2587	80004c08	9c1d7613	andi	x12,x26,-1599	 x26:0x000000bf x12=0x00000081
       25895000	      2588	80004c0c	416f5513	srai	x10,x30,0x16	 x30:0x00000080 x10=0x00000000
       25905000	      2589	80004c10	00a872b3	and	x5,x16,x10	 x16:0x80009fc4 x10:0x00000000  x5=0x00000000
       25915000	      2590	80004c14	7ca76013	ori	x0,x14,1994	 x14:0x8497f7dc
       25925000	      2591	80004c18	01d695b3	sll	x11,x13,x29	 x13:0xfffff84b x29:0x00000000 x11=0xfffff84b
       25935000	      2592	80004c1c	ca467193	andi	x3,x12,-860	 x12:0x00000081  x3=0x00000080
       25945000	      2593	80004c20	01277663	bgeu	x14,x18,80004c2c	 x14:0x8497f7dc x18:0xffffcb28
       25955000	      2594	80004c24	d07f4c93	xori	x25,x30,-761	 x30:0x00000080 x25=0xfffffd87
       25965000	      2595	80004c28	009deeb3	or	x29,x27,x9	 x27:0x00000000  x9:0x0e474b8c x29=0x0e474b8c
       25975000	      2596	80004c2c	0002d113	srli	x2,x5,0x0	  x5:0x00000000  x2=0x00000000
       25985000	      2597	80004c30	02044063	blt	x8,x0,80004c50	  x8:0xe00027f1  x0:0x00000000
       25995000	      2598	00000000	00000013	addi	x0,x0,0	  x0:0x00000000
       26005000	      2599	80004c4c	00000013	addi	x0,x0,0	  x0:0x00000000
       26015000	      2600	80004c50	000819b3	sll	x19,x16,x0	 x16:0x80009fc4  x0:0x00000000 x19=0x80009fc4
       26025000	      2601	80004c54	0102f6b3	and	x13,x5,x16	  x5:0x00000000 x16:0x80009fc4 x13=0x00000000
       26035000	      2602	80004c58	00d95433	srl	x8,x18,x13	 x18:0xffffcb28 x13:0x00000000  x8=0xffffcb28
       26045000	      2603	80004c5c	012712b3	sll	x5,x14,x18	 x14:0x8497f7dc x18:0xffffcb28  x5=0x97f7dc00
       26055000	      2604	80004c60	00000013	addi	x0,x0,0	  x0:0x00000000
       26065000	      2605	80004c64	e777a393	slti	x7,x15,-393	 x15:0x00000001  x7=0x00000000
       26075000	      2606	80004c68	01fe0a63	beq	x28,x31,80004c7c	 x28:0x40004b62 x31:0xabb3d080
       26085000	      2607	80004c6c	009d1533	sll	x10,x26,x9	 x26:0x000000bf  x9:0x0e474b8c x10=0x000bf000
       26095000	      2608	80004c70	00177263	bgeu	x14,x1,80004c74	 x14:0x8497f7dc  x1:0x80000000
       26105000	      2609	00000000	00000013	addi	x0,x0,0	  x0:0x00000000
       26115000	      2610	80004c70	00000013	addi	x0,x0,0	  x0:0x00000000
       26125000	      2611	80004c74	00a78f33	add	x30,x15,x10	 x15:0x00000001 x10:0x000bf000 x30=0x000bf001
       26135000	      2612	80004c78	00285433	srl	x8,x16,x2	 x16:0x80009fc4  x2:0x00000000  x8=0x80009fc4
       26145000	      2613	80004c7c	01241393	slli	x7,x8,0x12	  x8:0x80009fc4  x7=0x7f100000
       26155000	      2614	80004c80	5f917717	auipc	x14,0x5f917	 x14=0xdf91bc7c
       26165000	      2615	80004c84	019f3933	sltu	x18,x30,x25	 x30:0x000bf001 x25:0xfffffd87 x18=0x00000001
       26175000	      2616	80004c88	dd289937	lui	x18,0xdd289	 x18=0xdd289000
       26185000	      2617	80004c8c	014f8c33	add	x24,x31,x20	 x31:0xabb3d080 x20:0x00000000 x24=0xabb3d080
       26195000	      2618	80004c90	01308fb3	add	x31,x1,x19	  x1:0x80000000 x19:0x80009fc4 x31=0x00009fc4
       26205000	      2619	80004c94	013174b3	and	x9,x2,x19	  x2:0x00000000 x19:0x80009fc4  x9=0x00000000
       26215000	      2620	80004c98	03e38463	beq	x7,x30,80004cc0	  x7:0x7f100000 x30:0x000bf001
       26225000	      2621	80004c9c	014a7033	and	x0,x20,x20	 x20:0x00000000 x20:0x00000000
       26235000	      2622	80004ca0	0282cc63	blt	x5,x8,80004cd8	  x5:0x97f7dc00  x8:0x80009fc4
       26245000	      2623	80004ca4	005f9c63	bne	x31,x5,80004cbc	 x31:0x00009fc4  x5:0x97f7dc00
       26255000	      2624	00000000	00000013	addi	x0,x0,0	  x0:0x00000000
       26265000	      2625	80004cb8	00000013	addi	x0,x0,0	  x0:0x00000000
       26275000	      2626	80004cbc	055f0663	beq	x30,x21,80004d08	 x30:0x000bf001 x21:0x00000000
       26285000	      2627	80004cc0	01406233	or	x4,x0,x20	  x0:0x00000000 x20:0x00000000  x4=0x00000000
       26295000	      2628	80004cc4	0037d593	srli	x11,x15,0x3	 x15:0x00000001 x11=0x00000000
       26305000	      2629	80004cc8	78b83e13	sltiu	x28,x16,1931	 x16:0x80009fc4 x28=0x00000000
       26315000	      2630	80004ccc	012bc2b3	xor	x5,x23,x18	 x23:0x80009ebc x18:0xdd289000  x5=0x5d280ebc
       26325000	      2631	80004cd0	00881a63	bne	x16,x8,80004ce4	 x16:0x80009fc4  x8:0x80009fc4
       26335000	      2632	80004cd4	00a4d613	srli	x12,x9,0xa	  x9:0x00000000 x12=0x00000000
       26345000	      2633	80004cd8	67fd7493	andi	x9,x26,1663	 x26:0x000000bf  x9=0x0000003f
       26355000	      2634	80004cdc	0048e463	bltu	x17,x4,80004ce4	 x17:0x8497f7dd  x4:0x00000000
       26365000	      2635	80004ce0	00ed02b3	add	x5,x26,x14	 x26:0x000000bf x14:0xdf91bc7c  x5=0xdf91bd3b
       26375000	      2636	80004ce4	41218233	sub	x4,x3,x18	  x3:0x00000080 x18:0xdd289000  x4=0x22d77080
       26385000	      2637	80004ce8	0135ce63	blt	x11,x19,80004d04	 x11:0x00000000 x19:0x80009fc4
       26395000	      2638	80004cec	679dcc37	lui	x24,0x679dc	 x24=0x679dc000
       26405000	      2639	80004cf0	00e88533	add	x10,x17,x14	 x17:0x8497f7dd x14:0xdf91bc7c x10=0x6429b459
       26415000	      2640	80004cf4	008c7333	and	x6,x24,x8	 x24:0x679dc000  x8:0x80009fc4  x6=0x00008000
       26425000	      2641	80004cf8	00af6eb3	or	x29,x30,x10	 x30:0x000bf001 x10:0x6429b459 x29=0x642bf459
       26435000	      2642	80004cfc	01c665b3	or	x11,x12,x28	 x12:0x00000000 x28:0x00000000 x11=0x00000000
       26445000	      2643	80004d00	015e8633	add	x12,x29,x21	 x29:0x642bf459 x21:0x00000000 x12=0x642bf459
       26455000	      2644	80004d04	01f725b3	slt	x11,x14,x31	 x14:0xdf91bc7c x31:0x00009fc4 x11=0x00000001
       26465000	      2645	80004d08	4075d593	srai	x11,x11,0x7	 x11:0x00000001 x11=0x00000000
       26475000	      2646	80004d0c	4076dc33	sra	x24,x13,x7	 x13:0x00000000  x7:0x7f100000 x24=0x00000000
       26485000	      2647	80004d10	c1bca117	auipc	x2,0xc1bca	  x2=0x41bced0c
       26495000	      2648	80004d14	00cc2b33	slt	x22,x24,x12	 x24:0x00000000 x12:0x642bf459 x22=0x00000001
       26505000	      2649	80004d18	0176d913	srli	x18,x13,0x17	 x13:0x00000000 x18=0x00000000
       26515000	      2650	80004d1c	66a30797	auipc	x15,0x66a30	 x15=0xe6a34d18
       26525000	      2651	80004d20	7017e913	ori	x18,x15,1793	 x15:0xe6a34d18 x18=0xe6a34f19
       26535000	      2652	80004d24	024cf863	bgeu	x25,x4,80004d54	 x25:0xfffffd87  x4:0x22d77080
       26545000	      2653	00000000	00000013	addi	x0,x0,0	  x0:0x00000000
       26555000	      2654	80004d50	00000013	addi	x0,x0,0	  x0:0x00000000
       26565000	      2655	80004d54	7360f693	andi	x13,x1,1846	  x1:0x80000000 x13=0x00000000
       26575000	      2656	80004d58	7942b193	sltiu	x3,x5,1940	  x5:0xdf91bd3b  x3=0x00000000
       26585000	      2657	80004d5c	b708e613	ori	x12,x17,-1168	 x17:0x8497f7dd x12=0xfffffffd
       26595000	      2658	80004d60	40e5d793	srai	x15,x11,0xe	 x11:0x00000000 x15=0x00000000
       26605000	      2659	80004d64	00000013	addi	x0,x0,0	  x0:0x00000000
       26615000	      2660	80004d68	03d75663	bge	x14,x29,80004d94	 x14:0xdf91bc7c x29:0x642bf459
       26625000	      2661	80004d6c	00805133	srl	x2,x0,x8	  x0:0x00000000  x8:0x80009fc4  x2=0x00000000
       26635000	      2662	80004d70	c9483013	sltiu	x0,x16,-876	 x16:0x80009fc4
       26645000	      2663	80004d74	0188bfb3	sltu	x31,x17,x24	 x17:0x8497f7dd x24:0x00000000 x31=0x00000000
       26655000	      2664	80004d78	6723fd13	andi	x26,x7,1650	  x7:0x7f100000 x26=0x00000000
       26665000	      2665	80004d7c	05ac0263	beq	x24,x26,80004dc0	 x24:0x00000000 x26:0x00000000
       26675000	      2666	00000000	00000013	addi	x0,x0,0	  x0:0x00000000
       26685000	      2667	80004dbc	00000013	addi	x0,x0,0	  x0:0x00000000
       26695000	      2668	80004dc0	016b64b3	or	x9,x22,x22	 x22:0x00000001 x22:0x00000001  x9=0x00000001
       26705000	      2669	80004dc4	01395cb3	srl	x25,x18,x19	 x18:0xe6a34f19 x19:0x80009fc4 x25=0x0e6a34f1
       26715000	      2670	80004dc8	41578033	sub	x0,x15,x21	 x15:0x00000000 x21:0x00000000
       26725000	      2671	80004dcc	2c15fb13	andi	x22,x11,705	 x11:0x00000000 x22=0x00000000
       26735000	      2672	80004dd0	71fde113	ori	x2,x27,1823	 x27:0x00000000  x2=0x0000071f
       26745000	      2673	80004dd4	00d037b3	sltu	x15,x0,x13	  x0:0x00000000 x13:0x00000000 x15=0x00000000
       26755000	      2674	80004dd8	b96e0e13	addi	x28,x28,-1130	 x28:0x00000000 x28=0xfffffb96
       26765000	      2675	80004ddc	df69cc93	xori	x25,x19,-522	 x19:0x80009fc4 x25=0x7fff6232
       26775000	      2676	80004de0	433a2a93	slti	x21,x20,1075	 x20:0x00000000 x21=0x00000001
       26785000	      2677	80004de4	d0cb6913	ori	x18,x22,-756	 x22:0x00000000 x18=0xfffffd0c
       26795000	      2678	80004de8	41d55b13	srai	x22,x10,0x1d	 x10:0x6429b459 x22=0x00000003
       26805000	      2679	80004dec	0577d463	bge	x15,x23,80004e34	 x15:0x00000000 x23:0x80009ebc
       26815000	      2680	00000000	00000013	addi	x0,x0,0	  x0:0x00000000
       26825000	      2681	80004e30	00000013	addi	x0,x0,0	  x0:0x00000000
       26835000	      2682	80004e34	01c986b3	add	x13,x19,x28	 x19:0x80009fc4 x28:0xfffffb96 x13=0x80009b5a
       26845000	      2683	80004e38	01a3d2b3	srl	x5,x7,x26	  x7:0x7f100000 x26:0x00000000  x5=0x7f100000
       26855000	      2684	80004e3c	00447663	bgeu	x8,x4,80004e48	  x8:0x80009fc4  x4:0x22d77080
       26865000	      2685	00000000	00000013	addi	x0,x0,0	  x0:0x00000000
       26875000	      2686	80004e44	00000013	addi	x0,x0,0	  x0:0x00000000
       26885000	      2687	80004e48	0169f463	bgeu	x19,x22,80004e50	 x19:0x80009fc4 x22:0x00000003
       26895000	      2688	00000000	00000013	addi	x0,x0,0	  x0:0x00000000
       26905000	      2689	80004e4c	00000013	addi	x0,x0,0	  x0:0x00000000
       26915000	      2690	80004e50	a7738513	addi	x10,x7,-1417	  x7:0x7f100000 x10=0x7f0ffa77
       26925000	      2691	80004e54	ac7fbe17	auipc	x28,0xac7fb	 x28=0x2c7ffe50
       26935000	      2692	80004e58	03ba1463	bne	x20,x27,80004e80	 x20:0x00000000 x27:0x00000000
       26945000	      2693	80004e5c	0026ee63	bltu	x13,x2,80004e78	 x13:0x80009b5a  x2:0x0000071f
       26955000	      2694	80004e60	00893b33	sltu	x22,x18,x8	 x18:0xfffffd0c  x8:0x80009fc4 x22=0x00000000
       26965000	      2695	80004e64	91854613	xori	x12,x10,-1768	 x10:0x7f0ffa77 x12=0x80f0036f
       26975000	      2696	80004e68	01f76633	or	x12,x14,x31	 x14:0xdf91bc7c x31:0x00000000 x12=0xdf91bc7c
       26985000	      2697	80004e6c	410fd1b3	sra	x3,x31,x16	 x31:0x00000000 x16:0x80009fc4  x3=0x00000000
       26995000	      2698	80004e70	01db2133	slt	x2,x22,x29	 x22:0x00000000 x29:0x642bf459  x2=0x00000001
       27005000	      2699	80004e74	79542593	slti	x11,x8,1941	  x8:0x80009fc4 x11=0x00000001
       27015000	      2700	80004e78	0193d933	srl	x18,x7,x25	  x7:0x7f100000 x25:0x7fff6232 x18=0x00001fc4
       27025000	      2701	80004e7c	00035993	srli	x19,x6,0x0	  x6:0x00008000 x19=0x00008000
       27035000	      2702	80004e80	03ea4463	blt	x20,x30,80004ea8	 x20:0x00000000 x30:0x000bf001
       27045000	      2703	00000000	00000013	addi	x0,x0,0	  x0:0x00000000
       27055000	      2704	80004ea4	00000013	addi	x0,x0,0	  x0:0x00000000
       27065000	      2705	80004ea8	00806f33	or	x30,x0,x8	  x0:0x00000000  x8:0x80009fc4 x30=0x80009fc4
       27075000	      2706	80004eac	01c18c33	add	x24,x3,x28	  x3:0x00000000 x28:0x2c7ffe50 x24=0x2c7ffe50
       27085000	      2707	80004eb0	fec4e993	ori	x19,x9,-20	  x9:0x00000001 x19=0xffffffed
       27095000	      2708	80004eb4	04936863	bltu	x6,x9,80004f04	  x6:0x00008000  x9:0x00000001
       27105000	      2709	80004eb8	0141ed33	or	x26,x3,x20	  x3:0x00000000 x20:0x00000000 x26=0x00000000
       27115000	      2710	80004ebc	0070ff93	andi	x31,x1,7	  x1:0x80000000 x31=0x00000000
       27125000	      2711	80004ec0	0000d463	bge	x1,x0,80004ec8	  x1:0x80000000  x0:0x00000000
       27135000	      2712	80004ec4	02480a63	beq	x16,x4,80004ef8	 x16:0x80009fc4  x4:0x22d77080
       27145000	      2713	80004ec8	00000013	addi	x0,x0,0	  x0:0x00000000
       27155000	      2714	80004ecc	007d74b3	and	x9,x26,x7	 x26:0x00000000  x7:0x7f100000  x9=0x00000000
       27165000	      2715	80004ed0	009f22b3	slt	x5,x30,x9	 x30:0x80009fc4  x9:0x00000000  x5=0x00000001
       27175000	      2716	80004ed4	05d8f263	bgeu	x17,x29,80004f18	 x17:0x8497f7dd x29:0x642bf459
       27185000	      2717	00000000	00000013	addi	x0,x0,0	  x0:0x00000000
       27195000	      2718	80004f14	00000013	addi	x0,x0,0	  x0:0x00000000
       27205000	      2719	80004f18	00b59293	slli	x5,x11,0xb	 x11:0x00000001  x5=0x00000800
       27215000	      2720	80004f1c	024e9463	bne	x29,x4,80004f44	 x29:0x642bf459  x4:0x22d77080
       27225000	      2721	00000000	00000013	addi	x0,x0,0	  x0:0x00000000
       27235000	      2722	80004f40	00000013	addi	x0,x0,0	  x0:0x00000000
       27245000	      2723	80004f44	043c5863	bge	x24,x3,80004f94	 x24:0x2c7ffe50  x3:0x00000000
       27255000	      2724	00000000	00000013	addi	x0,x0,0	  x0:0x00000000
       27265000	      2725	80004f90	00000013	addi	x0,x0,0	  x0:0x00000000
       27275000	      2726	80004f94	2eade493	ori	x9,x27,746	 x27:0x00000000  x9=0x000002ea
       27285000	      2727	80004f98	41b6d033	sra	x0,x13,x27	 x13:0x80009b5a x27:0x00000000
       27295000	      2728	80004f9c	33e30a93	addi	x21,x6,830	  x6:0x00008000 x21=0x0000833e
       27305000	      2729	80004fa0	00535293	srli	x5,x6,0x5	  x6:0x00008000  x5=0x00000400
       27315000	      2730	80004fa4	019473b3	and	x7,x8,x25	  x8:0x80009fc4 x25:0x7fff6232  x7=0x00000200
       27325000	      2731	80004fa8	004a4263	blt	x20,x4,80004fac	 x20:0x00000000  x4:0x22d77080
       27335000	      2732	00000000	00000013	addi	x0,x0,0	  x0:0x00000000
       27345000	      2733	80004fa8	00000013	addi	x0,x0,0	  x0:0x00000000
       27355000	      2734	80004fac	5a58fc13	andi	x24,x17,1445	 x17:0x8497f7dd x24=0x00000585
       27365000	      2735	80004fb0	5bc7ec93	ori	x25,x15,1468	 x15:0x00000000 x25=0x000005bc
       27375000	      2736	80004fb4	79717593	andi	x11,x2,1943	  x2:0x00000001 x11=0x00000001
       27385000	      2737	80004fb8	0183aeb3	slt	x29,x7,x24	  x7:0x00000200 x24:0x00000585 x29=0x00000001
       27395000	      2738	80004fbc	00305413	srli	x8,x0,0x3	  x0:0x00000000  x8=0x00000000
       27405000	      2739	80004fc0	02b66663	bltu	x12,x11,80004fec	 x12:0xdf91bc7c x11:0x00000001
       27415000	      2740	80004fc4	00e7f663	bgeu	x15,x14,80004fd0	 x15:0x00000000 x14:0xdf91bc7c
       27425000	      2741	80004fc8	01ac2a33	slt	x20,x24,x26	 x24:0x00000585 x26:0x00000000 x20=0x00000000
       27435000	      2742	80004fcc	029df463	bgeu	x27,x9,80004ff4	 x27:0x00000000  x9:0x000002ea
       27445000	      2743	80004fd0	b208c617	auipc	x12,0xb208c	 x12=0x32090fcc
       27455000	      2744	80004fd4	bb52c713	xori	x14,x5,-1099	  x5:0x00000400 x14=0xffffffb5
       27465000	      2745	80004fd8	9bdd0c93	addi	x25,x26,-1603	 x26:0x00000000 x25=0xfffff9bd
       27475000	      2746	80004fdc	e2e16f13	ori	x30,x2,-466	  x2:0x00000001 x30=0xfffffe2f
       27485000	      2747	80004fe0	04707463	bgeu	x0,x7,80005028	  x0:0x00000000  x7:0x00000200
       27495000	      2748	80004fe4	02a8ce63	blt	x17,x10,80005020	 x17:0x8497f7dd x10:0x7f0ffa77
       27505000	      2749	00000000	00000013	addi	x0,x0,0	  x0:0x00000000
       27515000	      2750	8000501c	00000013	addi	x0,x0,0	  x0:0x00000000
       27525000	      2751	80005020	0026d4b3	srl	x9,x13,x2	 x13:0x80009b5a  x2:0x00000001  x9=0x40004dad
       27535000	      2752	80005024	00000013	addi	x0,x0,0	  x0:0x00000000
       27545000	      2753	80005028	05c44463	blt	x8,x28,80005070	  x8:0x00000000 x28:0x2c7ffe50
       27555000	      2754	00000000	00000013	addi	x0,x0,0	  x0:0x00000000
       27565000	      2755	8000506c	00000013	addi	x0,x0,0	  x0:0x00000000
       27575000	      2756	80005070	0069d893	srli	x17,x19,0x6	 x19:0xffffffed x17=0x03ffffff
       27585000	      2757	80005074	cc427b13	andi	x22,x4,-828	  x4:0x22d77080 x22=0x22d77080
       27595000	      2758	80005078	0005d6b3	srl	x13,x11,x0	 x11:0x00000001  x0:0x00000000 x13=0x00000001
       27605000	      2759	8000507c	18957193	andi	x3,x10,393	 x10:0x7f0ffa77  x3=0x00000001
       27615000	      2760	80005080	01f37eb3	and	x29,x6,x31	  x6:0x00008000 x31:0x00000000 x29=0x00000000
       27625000	      2761	80005084	41fd8433	sub	x8,x27,x31	 x27:0x00000000 x31:0x00000000  x8=0x00000000
       27635000	      2762	80005088	407f5a33	sra	x20,x30,x7	 x30:0xfffffe2f  x7:0x00000200 x20=0xfffffe2f
       27645000	      2763	8000508c	01484e63	blt	x16,x20,800050a8	 x16:0x80009fc4 x20:0xfffffe2f
       27655000	      2764	00000000	00000013	addi	x0,x0,0	  x0:0x00000000
       27665000	      2765	800050a4	00000013	addi	x0,x0,0	  x0:0x00000000
       27675000	      2766	800050a8	002b3fb3	sltu	x31,x22,x2	 x22:0x22d77080  x2:0x00000001 x31=0x00000000
       27685000	      2767	800050ac	40c9d993	srai	x19,x19,0xc	 x19:0xffffffed x19=0xffffffff
       27695000	      2768	800050b0	007f0733	add	x14,x30,x7	 x30:0xfffffe2f  x7:0x00000200 x14=0x0000002f
       27705000	      2769	800050b4	9ae98e13	addi	x28,x19,-1618	 x19:0xffffffff x28=0xfffff9ad
       27715000	      2770	800050b8	0c411463	bne	x2,x4,80005180	  x2:0x00000001  x4:0x22d77080
       27725000	      2771	00000000	00000013	addi	x0,x0,0	  x0:0x00000000
       27735000	      2772	8000517c	00000013	addi	x0,x0,0	  x0:0x00000000
       27745000	      2773	80005180	00996e33	or	x28,x18,x9	 x18:0x00001fc4  x9:0x40004dad x28=0x40005fed
       27755000	      2774	80005184	41380433	sub	x8,x16,x19	 x16:0x80009fc4 x19:0xffffffff  x8=0x80009fc5
       27765000	      2775	80005188	004673b3	and	x7,x12,x4	 x12:0x32090fcc  x4:0x22d77080  x7=0x22010080
       27775000	      2776	8000518c	01b5c463	blt	x11,x27,80005194	 x11:0x00000001 x27:0x00000000
       27785000	      2777	80005190	0124dc13	srli	x24,x9,0x12	  x9:0x40004dad x24=0x00001000
       27795000	      2778	80005194	5614a713	slti	x14,x9,1377	  x9:0x40004dad x14=0x00000000
       27805000	      2779	80005198	01a97eb3	and	x29,x18,x26	 x18:0x00001fc4 x26:0x00000000 x29=0x00000000
       27815000	      2780	8000519c	0049f433	and	x8,x19,x4	 x19:0xffffffff  x4:0x22d77080  x8=0x22d77080
       27825000	      2781	800051a0	018cda33	srl	x20,x25,x24	 x25:0xfffff9bd x24:0x00001000 x20=0xfffff9bd
       27835000	      2782	800051a4	013a5463	bge	x20,x19,800051ac	 x20:0xfffff9bd x19:0xffffffff
       27845000	      2783	800051a8	0292ea63	bltu	x5,x9,800051dc	  x5:0x00000400  x9:0x40004dad
       27855000	      2784	00000000	00000013	addi	x0,x0,0	  x0:0x00000000
       27865000	      2785	800051d8	00000013	addi	x0,x0,0	  x0:0x00000000
       27875000	      2786	800051dc	4724be13	sltiu	x28,x9,1138	  x9:0x40004dad x28=0x00000000
       27885000	      2787	800051e0	00f49c33	sll	x24,x9,x15	  x9:0x40004dad x15:0x00000000 x24=0x40004dad
       27895000	      2788	800051e4	000759b3	srl	x19,x14,x0	 x14:0x00000000  x0:0x00000000 x19=0x00000000
       27905000	      2789	800051e8	4027dd13	srai	x26,x15,0x2	 x15:0x00000000 x26=0x00000000
       27915000	      2790	800051ec	00faccb3	xor	x25,x21,x15	 x21:0x0000833e x15:0x00000000 x25=0x0000833e
       27925000	      2791	800051f0	0045d5b3	srl	x11,x11,x4	 x11:0x00000001  x4:0x22d77080 x11=0x00000001
       27935000	      2792	800051f4	0d393a13	sltiu	x20,x18,211	 x18:0x00001fc4 x20=0x00000000
       27945000	      2793	800051f8	0236c663	blt	x13,x3,80005224	 x13:0x00000001  x3:0x00000001
       27955000	      2794	800051fc	01924463	blt	x4,x25,80005204	  x4:0x22d77080 x25:0x0000833e
       27965000	      2795	80005200	10c78893	addi	x17,x15,268	 x15:0x00000000 x17=0x0000010c
       27975000	      2796	80005204	0038dc33	srl	x24,x17,x3	 x17:0x0000010c  x3:0x00000001 x24=0x00000086
       27985000	      2797	80005208	4188d933	sra	x18,x17,x24	 x17:0x0000010c x24:0x00000086 x18=0x00000004
       27995000	      2798	8000520c	01ed6fb3	or	x31,x26,x30	 x26:0x00000000 x30:0xfffffe2f x31=0xfffffe2f
       28005000	      2799	80005210	00f81e63	bne	x16,x15,8000522c	 x16:0x80009fc4 x15:0x00000000
       28015000	      2800	00000000	00000013	addi	x0,x0,0	  x0:0x00000000
       28025000	      2801	80005228	00000013	addi	x0,x0,0	  x0:0x00000000
       28035000	      2802	8000522c	517c0993	addi	x19,x24,1303	 x24:0x00000086 x19=0x0000059d
       28045000	      2803	80005230	02de5263	bge	x28,x13,80005254	 x28:0x00000000 x13:0x00000001
       28055000	      2804	80005234	d3688f93	addi	x31,x17,-714	 x17:0x0000010c x31=0xfffffe42
       28065000	      2805	80005238	0024ea33	or	x20,x9,x2	  x9:0x40004dad  x2:0x00000001 x20=0x40004dad
       28075000	      2806	8000523c	f408ae13	slti	x28,x17,-192	 x17:0x0000010c x28=0x00000000
       28085000	      2807	80005240	4047d893	srai	x17,x15,0x4	 x15:0x00000000 x17=0x00000000
       28095000	      2808	80005244	00aa1263	bne	x20,x10,80005248	 x20:0x40004dad x10:0x7f0ffa77
       28105000	      2809	00000000	00000013	addi	x0,x0,0	  x0:0x00000000
       28115000	      2810	80005244	00000013	addi	x0,x0,0	  x0:0x00000000
       28125000	      2811	80005248	008158b3	srl	x17,x2,x8	  x2:0x00000001  x8:0x22d77080 x17=0x00000001
       28135000	      2812	8000524c	01f151b3	srl	x3,x2,x31	  x2:0x00000001 x31:0xfffffe42  x3=0x00000000
       28145000	      2813	80005250	01c69693	slli	x13,x13,0x1c	 x13:0x00000001 x13=0x10000000
       28155000	      2814	80005254	402cd013	srai	x0,x25,0x2	 x25:0x0000833e
       28165000	      2815	80005258	006348b3	xor	x17,x6,x6	  x6:0x00008000  x6:0x00008000 x17=0x00000000
       28175000	      2816	8000525c	8539f293	andi	x5,x19,-1965	 x19:0x0000059d  x5=0x00000011
       28185000	      2817	80005260	01119b33	sll	x22,x3,x17	  x3:0x00000000 x17:0x00000000 x22=0x00000000
       28195000	      2818	80005264	4108dc13	srai	x24,x17,0x10	 x17:0x00000000 x24=0x00000000
       28205000	      2819	80005268	01ec6eb3	or	x29,x24,x30	 x24:0x00000000 x30:0xfffffe2f x29=0xfffffe2f
       28215000	      2820	8000526c	048e6663	bltu	x28,x8,800052b8	 x28:0x00000000  x8:0x22d77080
       28225000	      2821	00000000	00000013	addi	x0,x0,0	  x0:0x00000000
       28235000	      2822	800052b4	00000013	addi	x0,x0,0	  x0:0x00000000
       28245000	      2823	800052b8	00000013	addi	x0,x0,0	  x0:0x00000000
       28255000	      2824	800052bc	40cb8ab3	sub	x21,x23,x12	 x23:0x80009ebc x12:0x32090fcc x21=0x4df78ef0
       28265000	      2825	800052c0	4100df93	srai	x31,x1,0x10	  x1:0x80000000 x31=0xffff8000
       28275000	      2826	800052c4	00425593	srli	x11,x4,0x4	  x4:0x22d77080 x11=0x022d7708
       28285000	      2827	800052c8	01221b13	slli	x22,x4,0x12	  x4:0x22d77080 x22=0xc2000000
       28295000	      2828	800052cc	002d2b33	slt	x22,x26,x2	 x26:0x00000000  x2:0x00000001 x22=0x00000001
       28305000	      2829	800052d0	603ba613	slti	x12,x23,1539	 x23:0x80009ebc x12=0x00000001
       28315000	      2830	800052d4	23baad13	slti	x26,x21,571	 x21:0x4df78ef0 x26=0x00000000
       28325000	      2831	800052d8	04c19263	bne	x3,x12,8000531c	  x3:0x00000000 x12:0x00000001
       28335000	      2832	00000000	00000013	addi	x0,x0,0	  x0:0x00000000
       28345000	      2833	80005318	00000013	addi	x0,x0,0	  x0:0x00000000
       28355000	      2834	8000531c	0005b2b3	sltu	x5,x11,x0	 x11:0x022d7708  x0:0x00000000  x5=0x00000000
       28365000	      2835	80005320	017e6537	lui	x10,0x17e6	 x10=0x017e6000
       28375000	      2836	80005324	02040463	beq	x8,x0,8000534c	  x8:0x22d77080  x0:0x00000000
       28385000	      2837	80005328	034f1e63	bne	x30,x20,80005364	 x30:0xfffffe2f x20:0x40004dad
       28395000	      2838	00000000	00000013	addi	x0,x0,0	  x0:0x00000000
       28405000	      2839	80005360	00000013	addi	x0,x0,0	  x0:0x00000000
       28415000	      2840	80005364	01052333	slt	x6,x10,x16	 x10:0x017e6000 x16:0x80009fc4  x6=0x00000000
       28425000	      2841	80005368	053af863	bgeu	x21,x19,800053b8	 x21:0x4df78ef0 x19:0x0000059d
       28435000	      2842	00000000	00000013	addi	x0,x0,0	  x0:0x00000000
       28445000	      2843	800053b4	00000013	addi	x0,x0,0	  x0:0x00000000
       28455000	      2844	800053b8	0249d063	bge	x19,x4,800053d8	 x19:0x0000059d  x4:0x22d77080
       28465000	      2845	800053bc	00b38463	beq	x7,x11,800053c4	  x7:0x22010080 x11:0x022d7708
       28475000	      2846	800053c0	14d7a897	auipc	x17,0x14d7a	 x17=0x94d7f3bc
       28485000	      2847	800053c4	00b61d93	slli	x27,x12,0xb	 x12:0x00000001 x27=0x00000800
       28495000	      2848	800053c8	81bb8297	auipc	x5,0x81bb8	  x5=0x01bbd3c4
       28505000	      2849	800053cc	0144fe33	and	x28,x9,x20	  x9:0x40004dad x20:0x40004dad x28=0x40004dad
       28515000	      2850	800053d0	00000013	addi	x0,x0,0	  x0:0x00000000
       28525000	      2851	800053d4	81160793	addi	x15,x12,-2031	 x12:0x00000001 x15=0xfffff812
       28535000	      2852	800053d8	0284da63	bge	x9,x8,8000540c	  x9:0x40004dad  x8:0x22d77080
       28545000	      2853	00000000	00000013	addi	x0,x0,0	  x0:0x00000000
       28555000	      2854	80005408	00000013	addi	x0,x0,0	  x0:0x00000000
       28565000	      2855	8000540c	e7d30393	addi	x7,x6,-387	  x6:0x00000000  x7=0xfffffe7d
       28575000	      2856	80005410	01e293b3	sll	x7,x5,x30	  x5:0x01bbd3c4 x30:0xfffffe2f  x7=0xe9e20000
       28585000	      2857	80005414	00f05463	bge	x0,x15,8000541c	  x0:0x00000000 x15:0xfffff812
       28595000	      2858	00000000	00000013	addi	x0,x0,0	  x0:0x00000000
       28605000	      2859	80005418	00000013	addi	x0,x0,0	  x0:0x00000000
       28615000	      2860	8000541c	051b6863	bltu	x22,x17,8000546c	 x22:0x00000001 x17:0x94d7f3bc
       28625000	      2861	00000000	00000013	addi	x0,x0,0	  x0:0x00000000
       28635000	      2862	80005468	00000013	addi	x0,x0,0	  x0:0x00000000
       28645000	      2863	8000546c	4058d793	srai	x15,x17,0x5	 x17:0x94d7f3bc x15=0xfca6bf9d
       28655000	      2864	80005470	00000013	addi	x0,x0,0	  x0:0x00000000
       28665000	      2865	80005474	411d54b3	sra	x9,x26,x17	 x26:0x00000000 x17:0x94d7f3bc  x9=0x00000000
       28675000	      2866	80005478	00547133	and	x2,x8,x5	  x8:0x22d77080  x5:0x01bbd3c4  x2=0x00935080
       28685000	      2867	8000547c	049b6463	bltu	x22,x9,800054c4	 x22:0x00000001  x9:0x00000000
       28695000	      2868	80005480	40b68eb3	sub	x29,x13,x11	 x13:0x10000000 x11:0x022d7708 x29=0x0dd288f8
       28705000	      2869	80005484	01ff9d13	slli	x26,x31,0x1f	 x31:0xffff8000 x26=0x00000000
       28715000	      2870	80005488	00509393	slli	x7,x1,0x5	  x1:0x80000000  x7=0x00000000
       28725000	      2871	8000548c	0090d293	srli	x5,x1,0x9	  x1:0x80000000  x5=0x00400000
       28735000	      2872	80005490	01f2b933	sltu	x18,x5,x31	  x5:0x00400000 x31:0xffff8000 x18=0x00000001
       28745000	      2873	80005494	dcccfe17	auipc	x28,0xdcccf	 x28=0x5ccd4490
       28755000	      2874	80005498	01a38b33	add	x22,x7,x26	  x7:0x00000000 x26:0x00000000 x22=0x00000000
       28765000	      2875	8000549c	c5432493	slti	x9,x6,-940	  x6:0x00000000  x9=0x00000000
       28775000	      2876	800054a0	6fe36913	ori	x18,x6,1790	  x6:0x00000000 x18=0x000006fe
       28785000	      2877	800054a4	b228b313	sltiu	x6,x17,-1246	 x17:0x94d7f3bc  x6=0x00000001
       28795000	      2878	800054a8	00a799b3	sll	x19,x15,x10	 x15:0xfca6bf9d x10:0x017e6000 x19=0xfca6bf9d
       28805000	      2879	800054ac	00f39a13	slli	x20,x7,0xf	  x7:0x00000000 x20=0x00000000
       28815000	      2880	800054b0	99592393	slti	x7,x18,-1643	 x18:0x000006fe  x7=0x00000000
       28825000	      2881	800054b4	574a2393	slti	x7,x20,1396	 x20:0x00000000  x7=0x00000001
       28835000	      2882	800054b8	00dd97b3	sll	x15,x27,x13	 x27:0x00000800 x13:0x10000000 x15=0x00000800
       28845000	      2883	800054bc	00c21733	sll	x14,x4,x12	  x4:0x22d77080 x12:0x00000001 x14=0x45aee100
       28855000	      2884	800054c0	c799a393	slti	x7,x19,-903	 x19:0xfca6bf9d  x7=0x00000001
       28865000	      2885	800054c4	40cc5c13	srai	x24,x24,0xc	 x24:0x00000000 x24=0x00000000
       28875000	      2886	800054c8	0159a933	slt	x18,x19,x21	 x19:0xfca6bf9d x21:0x4df78ef0 x18=0x00000001
       28885000	      2887	800054cc	013aee33	or	x28,x21,x19	 x21:0x4df78ef0 x19:0xfca6bf9d x28=0xfdf7bffd
       28895000	      2888	800054d0	531d0c13	addi	x24,x26,1329	 x26:0x00000000 x24=0x00000531
       28905000	      2889	800054d4	7c43fc93	andi	x25,x7,1988	  x7:0x00000001 x25=0x00000000
       28915000	      2890	800054d8	0529e663	bltu	x19,x18,80005524	 x19:0xfca6bf9d x18:0x00000001
       28925000	      2891	800054dc	402d0c33	sub	x24,x26,x2	 x26:0x00000000  x2:0x00935080 x24=0xff6caf80
       28935000	      2892	800054e0	fc881a97	auipc	x21,0xfc881	 x21=0x7c8864dc
       28945000	      2893	800054e4	0013bab3	sltu	x21,x7,x1	  x7:0x00000001  x1:0x80000000 x21=0x00000001
       28955000	      2894	800054e8	ed4b8317	auipc	x6,0xed4b8	  x6=0x6d4bd4e4
       28965000	      2895	800054ec	00a57e33	and	x28,x10,x10	 x10:0x017e6000 x10:0x017e6000 x28=0x017e6000
       28975000	      2896	800054f0	00a91e33	sll	x28,x18,x10	 x18:0x00000001 x10:0x017e6000 x28=0x00000001
       28985000	      2897	800054f4	0121c433	xor	x8,x3,x18	  x3:0x00000000 x18:0x00000001  x8=0x00000001
       28995000	      2898	800054f8	bd7c8d93	addi	x27,x25,-1065	 x25:0x00000000 x27=0xfffffbd7
       29005000	      2899	800054fc	03ea1063	bne	x20,x30,8000551c	 x20:0x00000000 x30:0xfffffe2f
       29015000	      2900	00000000	00000013	addi	x0,x0,0	  x0:0x00000000
       29025000	      2901	80005518	00000013	addi	x0,x0,0	  x0:0x00000000
       29035000	      2902	8000551c	ed357693	andi	x13,x10,-301	 x10:0x017e6000 x13=0x017e6000
       29045000	      2903	80005520	03f84a63	blt	x16,x31,80005554	 x16:0x80009fc4 x31:0xffff8000
       29055000	      2904	00000000	00000013	addi	x0,x0,0	  x0:0x00000000
       29065000	      2905	80005550	00000013	addi	x0,x0,0	  x0:0x00000000
       29075000	      2906	80005554	00000013	addi	x0,x0,0	  x0:0x00000000
       29085000	      2907	80005558	02884e63	blt	x16,x8,80005594	 x16:0x80009fc4  x8:0x00000001
       29095000	      2908	00000000	00000013	addi	x0,x0,0	  x0:0x00000000
       29105000	      2909	80005590	00000013	addi	x0,x0,0	  x0:0x00000000
       29115000	      2910	80005594	65874513	xori	x10,x14,1624	 x14:0x45aee100 x10=0x45aee758
       29125000	      2911	80005598	40225213	srai	x4,x4,0x2	  x4:0x22d77080  x4=0x08b5dc20
       29135000	      2912	8000559c	01939793	slli	x15,x7,0x19	  x7:0x00000001 x15=0x02000000
       29145000	      2913	800055a0	41208733	sub	x14,x1,x18	  x1:0x80000000 x18:0x00000001 x14=0x7fffffff
       29155000	      2914	800055a4	00fc3433	sltu	x8,x24,x15	 x24:0xff6caf80 x15:0x02000000  x8=0x00000000
       29165000	      2915	800055a8	00cf1263	bne	x30,x12,800055ac	 x30:0xfffffe2f x12:0x00000001
       29175000	      2916	00000000	00000013	addi	x0,x0,0	  x0:0x00000000
       29185000	      2917	800055a8	00000013	addi	x0,x0,0	  x0:0x00000000
       29195000	      2918	800055ac	0495d263	bge	x11,x9,800055f0	 x11:0x022d7708  x9:0x00000000
       29205000	      2919	00000000	00000013	addi	x0,x0,0	  x0:0x00000000
       29215000	      2920	800055ec	00000013	addi	x0,x0,0	  x0:0x00000000
       29225000	      2921	800055f0	c8dc4693	xori	x13,x24,-883	 x24:0xff6caf80 x13=0x0093530d
       29235000	      2922	800055f4	00da4533	xor	x10,x20,x13	 x20:0x00000000 x13:0x0093530d x10=0x0093530d
       29245000	      2923	800055f8	01b748b3	xor	x17,x14,x27	 x14:0x7fffffff x27:0xfffffbd7 x17=0x80000428
       29255000	      2924	800055fc	0199d263	bge	x19,x25,80005600	 x19:0xfca6bf9d x25:0x00000000
       29265000	      2925	80005600	01f7afb3	slt	x31,x15,x31	 x15:0x02000000 x31:0xffff8000 x31=0x00000000
       29275000	      2926	80005604	0194e633	or	x12,x9,x25	  x9:0x00000000 x25:0x00000000 x12=0x00000000
       29285000	      2927	80005608	058f6863	bltu	x30,x24,80005658	 x30:0xfffffe2f x24:0xff6caf80
       29295000	      2928	8000560c	403ad8b3	sra	x17,x21,x3	 x21:0x00000001  x3:0x00000000 x17=0x00000001
       29305000	      2929	80005610	00aabeb3	sltu	x29,x21,x10	 x21:0x00000001 x10:0x0093530d x29=0x00000001
       29315000	      2930	80005614	01e766b3	or	x13,x14,x30	 x14:0x7fffffff x30:0xfffffe2f x13=0xffffffff
       29325000	      2931	80005618	f8418613	addi	x12,x3,-124	  x3:0x00000000 x12=0xffffff84
       29335000	      2932	8000561c	f4d85217	auipc	x4,0xf4d85	  x4=0x74d8a618
       29345000	      2933	80005620	4107d233	sra	x4,x15,x16	 x15:0x02000000 x16:0x80009fc4  x4=0x00200000
       29355000	      2934	80005624	400bd013	srai	x0,x23,0x0	 x23:0x80009ebc
       29365000	      2935	80005628	8291e913	ori	x18,x3,-2007	  x3:0x00000000 x18=0xfffff829
       29375000	      2936	8000562c	00e73b33	sltu	x22,x14,x14	 x14:0x7fffffff x14:0x7fffffff x22=0x00000000
       29385000	      2937	80005630	d599fe93	andi	x29,x19,-679	 x19:0xfca6bf9d x29=0xfca6bd19
       29395000	      2938	80005634	049cf863	bgeu	x25,x9,80005684	 x25:0x00000000  x9:0x00000000
       29405000	      2939	00000000	00000013	addi	x0,x0,0	  x0:0x00000000
       29415000	      2940	80005680	00000013	addi	x0,x0,0	  x0:0x00000000
       29425000	      2941	80005684	40ea88b3	sub	x17,x21,x14	 x21:0x00000001 x14:0x7fffffff x17=0x80000002
       29435000	      2942	80005688	a2b8a113	slti	x2,x17,-1493	 x17:0x80000002  x2=0x00000001
       29445000	      2943	8000568c	011e5f33	srl	x30,x28,x17	 x28:0x00000001 x17:0x80000002 x30=0x00000000
       29455000	      2944	80005690	007b83b3	add	x7,x23,x7	 x23:0x80009ebc  x7:0x00000001  x7=0x80009ebd
       29465000	      2945	80005694	0053f933	and	x18,x7,x5	  x7:0x80009ebd  x5:0x00400000 x18=0x00000000
       29475000	      2946	80005698	2ff70c93	addi	x25,x14,767	 x14:0x7fffffff x25=0x800002fe
       29485000	      2947	8000569c	01233733	sltu	x14,x6,x18	  x6:0x6d4bd4e4 x18:0x00000000 x14=0x00000000
       29495000	      2948	800056a0	4091d5b3	sra	x11,x3,x9	  x3:0x00000000  x9:0x00000000 x11=0x00000000
       29505000	      2949	800056a4	0072f933	and	x18,x5,x7	  x5:0x00400000  x7:0x80009ebd x18=0x00000000
       29515000	      2950	800056a8	00af1e13	slli	x28,x30,0xa	 x30:0x00000000 x28=0x00000000
       29525000	      2951	800056ac	400d0fb3	sub	x31,x26,x0	 x26:0x00000000  x0:0x00000000 x31=0x00000000
       29535000	      2952	800056b0	005f1e63	bne	x30,x5,800056cc	 x30:0x00000000  x5:0x00400000
       29545000	      2953	00000000	00000013	addi	x0,x0,0	  x0:0x00000000
       29555000	      2954	800056c8	00000013	addi	x0,x0,0	  x0:0x00000000
       29565000	      2955	800056cc	a26c44b7	lui	x9,0xa26c4	  x9=0xa26c4000
       29575000	      2956	800056d0	4b048213	addi	x4,x9,1200	  x9:0xa26c4000  x4=0xa26c44b0
       29585000	      2957	800056d4	41920b33	sub	x22,x4,x25	  x4:0xa26c44b0 x25:0x800002fe x22=0x226c41b2
       29595000	      2958	800056d8	04064663	blt	x12,x0,80005724	 x12:0xffffff84  x0:0x00000000
       29605000	      2959	00000000	00000013	addi	x0,x0,0	  x0:0x00000000
       29615000	      2960	80005720	00000013	addi	x0,x0,0	  x0:0x00000000
       29625000	      2961	80005724	01d137b3	sltu	x15,x2,x29	  x2:0x00000001 x29:0xfca6bd19 x15=0x00000001
       29635000	      2962	80005728	017b1db3	sll	x27,x22,x23	 x22:0x226c41b2 x23:0x80009ebc x27=0x20000000
       29645000	      2963	8000572c	0342a317	auipc	x6,0x342a	  x6=0x8342f728
       29655000	      2964	80005730	f336bf93	sltiu	x31,x13,-205	 x13:0xffffffff x31=0x00000000
       29665000	      2965	80005734	00000013	addi	x0,x0,0	  x0:0x00000000
       29675000	      2966	80005738	402b58b3	sra	x17,x22,x2	 x22:0x226c41b2  x2:0x00000001 x17=0x113620d9
       29685000	      2967	8000573c	00b16c33	or	x24,x2,x11	  x2:0x00000001 x11:0x00000000 x24=0x00000001
       29695000	      2968	80005740	050d1863	bne	x26,x16,80005790	 x26:0x00000000 x16:0x80009fc4
       29705000	      2969	00000000	00000013	addi	x0,x0,0	  x0:0x00000000
       29715000	      2970	8000578c	00000013	addi	x0,x0,0	  x0:0x00000000
       29725000	      2971	80005790	80844593	xori	x11,x8,-2040	  x8:0x00000000 x11=0xfffff808
       29735000	      2972	80005794	d307a293	slti	x5,x15,-720	 x15:0x00000001  x5=0x00000000
       29745000	      2973	80005798	01cb5413	srli	x8,x22,0x1c	 x22:0x226c41b2  x8=0x00000002
       29755000	      2974	8000579c	e139f313	andi	x6,x19,-493	 x19:0xfca6bf9d  x6=0xfca6be11
       29765000	      2975	800057a0	0197bb33	sltu	x22,x15,x25	 x15:0x00000001 x25:0x800002fe x22=0x00000001
       29775000	      2976	800057a4	810e3417	auipc	x8,0x810e3	  x8=0x010e87a0
       29785000	      2977	800057a8	b1797d97	auipc	x27,0xb1797	 x27=0x3179c7a4
       29795000	      2978	800057ac	01450a63	beq	x10,x20,800057c0	 x10:0x0093530d x20:0x00000000
       29805000	      2979	800057b0	7a86eb17	auipc	x22,0x7a86e	 x22=0xfa8737ac
       29815000	      2980	800057b4	00000013	addi	x0,x0,0	  x0:0x00000000
       29825000	      2981	800057b8	01595993	srli	x19,x18,0x15	 x18:0x00000000 x19=0x00000000
       29835000	      2982	800057bc	00ec6cb3	or	x25,x24,x14	 x24:0x00000001 x14:0x00000000 x25=0x00000001
       29845000	      2983	800057c0	01295d13	srli	x26,x18,0x12	 x18:0x00000000 x26=0x00000000
       29855000	      2984	800057c4	c0777313	andi	x6,x14,-1017	 x14:0x00000000  x6=0x00000000
       29865000	      2985	800057c8	0a393c93	sltiu	x25,x18,163	 x18:0x00000000 x25=0x00000001
       29875000	      2986	800057cc	012128b3	slt	x17,x2,x18	  x2:0x00000001 x18:0x00000000 x17=0x00000000
       29885000	      2987	800057d0	03541463	bne	x8,x21,800057f8	  x8:0x010e87a0 x21:0x00000001
       29895000	      2988	00000000	00000013	addi	x0,x0,0	  x0:0x00000000
       29905000	      2989	800057f4	00000013	addi	x0,x0,0	  x0:0x00000000
       29915000	      2990	800057f8	afd6a793	slti	x15,x13,-1283	 x13:0xffffffff x15=0x00000000
       29925000	      2991	800057fc	1aa63217	auipc	x4,0x1aa63	  x4=0x9aa687f8
       29935000	      2992	80005800	b69da197	auipc	x3,0xb69da	  x3=0x369df7fc
       29945000	      2993	80005804	76e2f697	auipc	x13,0x76e2f	 x13=0xf6e34800
       29955000	      2994	80005808	008eb333	sltu	x6,x29,x8	 x29:0xfca6bd19  x8:0x010e87a0  x6=0x00000000
       29965000	      2995	8000580c	03939e63	bne	x7,x25,80005848	  x7:0x80009ebd x25:0x00000001
       29975000	      2996	00000000	00000013	addi	x0,x0,0	  x0:0x00000000
       29985000	      2997	80005844	00000013	addi	x0,x0,0	  x0:0x00000000
       29995000	      2998	80005848	c39d4f93	xori	x31,x26,-967	 x26:0x00000000 x31=0xfffffc39
       30005000	      2999	8000584c	00000013	addi	x0,x0,0	  x0:0x00000000
       30015000	      3000	80005850	00e4dcb3	srl	x25,x9,x14	  x9:0xa26c4000 x14:0x00000000 x25=0xa26c4000
       30025000	      3001	80005854	41dd0933	sub	x18,x26,x29	 x26:0x00000000 x29:0xfca6bd19 x18=0x035942e7
       30035000	      3002	80005858	5f252e93	slti	x29,x10,1522	 x10:0x0093530d x29=0x00000000
       30045000	      3003	8000585c	02388c63	beq	x17,x3,80005894	 x17:0x00000000  x3:0x369df7fc
       30055000	      3004	80005860	01538463	beq	x7,x21,80005868	  x7:0x80009ebd x21:0x00000001
       30065000	      3005	80005864	00a0d463	bge	x1,x10,8000586c	  x1:0x80000000 x10:0x0093530d
       30075000	      3006	80005868	e4227d93	andi	x27,x4,-446	  x4:0x9aa687f8 x27=0x9aa68640
       30085000	      3007	8000586c	60743393	sltiu	x7,x8,1543	  x8:0x010e87a0  x7=0x00000000
       30095000	      3008	80005870	04855463	bge	x10,x8,800058b8	 x10:0x0093530d  x8:0x010e87a0
       30105000	      3009	80005874	018f3333	sltu	x6,x30,x24	 x30:0x00000000 x24:0x00000001  x6=0x00000001
       30115000	      3010	80005878	6fdc8d13	addi	x26,x25,1789	 x25:0xa26c4000 x26=0xa26c46fd
       30125000	      3011	8000587c	000ef333	and	x6,x29,x0	 x29:0x00000000  x0:0x00000000  x6=0x00000000
       30135000	      3012	80005880	99898393	addi	x7,x19,-1640	 x19:0x00000000  x7=0xfffff998
       30145000	      3013	80005884	01293db3	sltu	x27,x18,x18	 x18:0x035942e7 x18:0x035942e7 x27=0x00000000
       30155000	      3014	80005888	01973ab3	sltu	x21,x14,x25	 x14:0x00000000 x25:0xa26c4000 x21=0x00000001
       30165000	      3015	8000588c	02054663	blt	x10,x0,800058b8	 x10:0x0093530d  x0:0x00000000
       30175000	      3016	80005890	00648c33	add	x24,x9,x6	  x9:0xa26c4000  x6:0x00000000 x24=0xa26c4000
       30185000	      3017	80005894	01049263	bne	x9,x16,80005898	  x9:0xa26c4000 x16:0x80009fc4
       30195000	      3018	00000000	00000013	addi	x0,x0,0	  x0:0x00000000
       30205000	      3019	80005894	00000013	addi	x0,x0,0	  x0:0x00000000
       30215000	      3020	80005898	0197d733	srl	x14,x15,x25	 x15:0x00000000 x25:0xa26c4000 x14=0x00000000
       30225000	      3021	8000589c	003d1cb3	sll	x25,x26,x3	 x26:0xa26c46fd  x3:0x369df7fc x25=0xd0000000
       30235000	      3022	800058a0	be878113	addi	x2,x15,-1048	 x15:0x00000000  x2=0xfffffbe8
       30245000	      3023	800058a4	037d6863	bltu	x26,x23,800058d4	 x26:0xa26c46fd x23:0x80009ebc
       30255000	      3024	800058a8	03f86463	bltu	x16,x31,800058d0	 x16:0x80009fc4 x31:0xfffffc39
       30265000	      3025	00000000	00000013	addi	x0,x0,0	  x0:0x00000000
       30275000	      3026	800058cc	00000013	addi	x0,x0,0	  x0:0x00000000
       30285000	      3027	800058d0	019829b3	slt	x19,x16,x25	 x16:0x80009fc4 x25:0xd0000000 x19=0x00000001
       30295000	      3028	800058d4	39bcac13	slti	x24,x25,923	 x25:0xd0000000 x24=0x00000001
       30305000	      3029	800058d8	7c756eb7	lui	x29,0x7c756	 x29=0x7c756000
       30315000	      3030	800058dc	04e9e463	bltu	x19,x14,80005924	 x19:0x00000001 x14:0x00000000
       30325000	      3031	800058e0	a8b0e393	ori	x7,x1,-1397	  x1:0x80000000  x7=0xfffffa8b
       30335000	      3032	800058e4	2f342713	slti	x14,x8,755	  x8:0x010e87a0 x14=0x00000000
       30345000	      3033	800058e8	01f60433	add	x8,x12,x31	 x12:0xffffff84 x31:0xfffffc39  x8=0xfffffbbd
       30355000	      3034	800058ec	7e0ebb13	sltiu	x22,x29,2016	 x29:0x7c756000 x22=0x00000000
       30365000	      3035	800058f0	1a74ad37	lui	x26,0x1a74a	 x26=0x1a74a000
       30375000	      3036	800058f4	019fdd33	srl	x26,x31,x25	 x31:0xfffffc39 x25:0xd0000000 x26=0xfffffc39
       30385000	      3037	800058f8	21ceb893	sltiu	x17,x29,540	 x29:0x7c756000 x17=0x00000000
       30395000	      3038	800058fc	004b7933	and	x18,x22,x4	 x22:0x00000000  x4:0x9aa687f8 x18=0x00000000
       30405000	      3039	80005900	036bca63	blt	x23,x22,80005934	 x23:0x80009ebc x22:0x00000000
       30415000	      3040	00000000	00000013	addi	x0,x0,0	  x0:0x00000000
       30425000	      3041	80005930	00000013	addi	x0,x0,0	  x0:0x00000000
       30435000	      3042	80005934	00448733	add	x14,x9,x4	  x9:0xa26c4000  x4:0x9aa687f8 x14=0x3d12c7f8
       30445000	      3043	80005938	00ecfa33	and	x20,x25,x14	 x25:0xd0000000 x14:0x3d12c7f8 x20=0x10000000
       30455000	      3044	8000593c	01ef4463	blt	x30,x30,80005944	 x30:0x00000000 x30:0x00000000
       30465000	      3045	80005940	009e5933	srl	x18,x28,x9	 x28:0x00000000  x9:0xa26c4000 x18=0x00000000
       30475000	      3046	80005944	7d0fe893	ori	x17,x31,2000	 x31:0xfffffc39 x17=0xfffffff9
       30485000	      3047	80005948	ef23c5b7	lui	x11,0xef23c	 x11=0xef23c000
       30495000	      3048	8000594c	0019aa33	slt	x20,x19,x1	 x19:0x00000001  x1:0x80000000 x20=0x00000000
       30505000	      3049	80005950	69914313	xori	x6,x2,1689	  x2:0xfffffbe8  x6=0xfffffd71
       30515000	      3050	80005954	01848a93	addi	x21,x9,24	  x9:0xa26c4000 x21=0xa26c4018
       30525000	      3051	80005958	00000013	addi	x0,x0,0	  x0:0x00000000
       30535000	      3052	8000595c	526bba93	sltiu	x21,x23,1318	 x23:0x80009ebc x21=0x00000000
       30545000	      3053	80005960	bf3a3b37	lui	x22,0xbf3a3	 x22=0xbf3a3000
       30555000	      3054	80005964	004f4eb3	xor	x29,x30,x4	 x30:0x00000000  x4:0x9aa687f8 x29=0x9aa687f8
       30565000	      3055	80005968	577f8d93	addi	x27,x31,1399	 x31:0xfffffc39 x27=0x000001b0
       30575000	      3056	8000596c	010eafb3	slt	x31,x29,x16	 x29:0x9aa687f8 x16:0x80009fc4 x31=0x00000000
       30585000	      3057	80005970	03c5fe63	bgeu	x11,x28,800059ac	 x11:0xef23c000 x28:0x00000000
       30595000	      3058	00000000	00000013	addi	x0,x0,0	  x0:0x00000000
       30605000	      3059	800059a8	00000013	addi	x0,x0,0	  x0:0x00000000
       30615000	      3060	800059ac	781044b7	lui	x9,0x78104	  x9=0x78104000
       30625000	      3061	800059b0	005a9463	bne	x21,x5,800059b8	 x21:0x00000000  x5:0x00000000
       30635000	      3062	800059b4	00be15b3	sll	x11,x28,x11	 x28:0x00000000 x11:0xef23c000 x11=0x00000000
       30645000	      3063	800059b8	018474b3	and	x9,x8,x24	  x8:0xfffffbbd x24:0x00000001  x9=0x00000001
       30655000	      3064	800059bc	40f75513	srai	x10,x14,0xf	 x14:0x3d12c7f8 x10=0x00007a25
       30665000	      3065	800059c0	010288b3	add	x17,x5,x16	  x5:0x00000000 x16:0x80009fc4 x17=0x80009fc4
       30675000	      3066	800059c4	03fec463	blt	x29,x31,800059ec	 x29:0x9aa687f8 x31:0x00000000
       30685000	      3067	00000000	00000013	addi	x0,x0,0	  x0:0x00000000
       30695000	      3068	800059e8	00000013	addi	x0,x0,0	  x0:0x00000000
       30705000	      3069	800059ec	04d14863	blt	x2,x13,80005a3c	  x2:0xfffffbe8 x13:0xf6e34800
       30715000	      3070	800059f0	73c97213	andi	x4,x18,1852	 x18:0x00000000  x4=0x00000000
       30725000	      3071	800059f4	a12ff993	andi	x19,x31,-1518	 x31:0x00000000 x19=0x00000000
       30735000	      3072	800059f8	01afb5b3	sltu	x11,x31,x26	 x31:0x00000000 x26:0xfffffc39 x11=0x00000001
       30745000	      3073	800059fc	00a5a7b3	slt	x15,x11,x10	 x11:0x00000001 x10:0x00007a25 x15=0x00000001
       30755000	      3074	80005a00	b3fe4893	xori	x17,x28,-1217	 x28:0x00000000 x17=0xfffffb3f
       30765000	      3075	80005a04	833cb693	sltiu	x13,x25,-1997	 x25:0xd0000000 x13=0x00000001
       30775000	      3076	80005a08	01649113	slli	x2,x9,0x16	  x9:0x00000001  x2=0x00400000
       30785000	      3077	80005a0c	03abd663	bge	x23,x26,80005a38	 x23:0x80009ebc x26:0xfffffc39
       30795000	      3078	80005a10	01861213	slli	x4,x12,0x18	 x12:0xffffff84  x4=0x84000000
       30805000	      3079	80005a14	01eaee63	bltu	x21,x30,80005a30	 x21:0x00000000 x30:0x00000000
       30815000	      3080	80005a18	0018dc63	bge	x17,x1,80005a30	 x17:0xfffffb3f  x1:0x80000000
       30825000	      3081	00000000	00000013	addi	x0,x0,0	  x0:0x00000000
       30835000	      3082	80005a2c	00000013	addi	x0,x0,0	  x0:0x00000000
       30845000	      3083	80005a30	0428e863	bltu	x17,x2,80005a80	 x17:0xfffffb3f  x2:0x00400000
       30855000	      3084	80005a34	4003d213	srai	x4,x7,0x0	  x7:0xfffffa8b  x4=0xfffffa8b
       30865000	      3085	80005a38	01f99f93	slli	x31,x19,0x1f	 x19:0x00000000 x31=0x00000000
       30875000	      3086	80005a3c	000da1b3	slt	x3,x27,x0	 x27:0x000001b0  x0:0x00000000  x3=0x00000000
       30885000	      3087	80005a40	02f7f463	bgeu	x15,x15,80005a68	 x15:0x00000001 x15:0x00000001
       30895000	      3088	00000000	00000013	addi	x0,x0,0	  x0:0x00000000
       30905000	      3089	80005a64	00000013	addi	x0,x0,0	  x0:0x00000000
       30915000	      3090	80005a68	1542c293	xori	x5,x5,340	  x5:0x00000000  x5=0x00000154
       30925000	      3091	80005a6c	01e41013	slli	x0,x8,0x1e	  x8:0xfffffbbd
       30935000	      3092	80005a70	002e2c33	slt	x24,x28,x2	 x28:0x00000000  x2:0x00400000 x24=0x00000001
       30945000	      3093	80005a74	00279893	slli	x17,x15,0x2	 x15:0x00000001 x17=0x00000004
       30955000	      3094	80005a78	0fd0eb13	ori	x22,x1,253	  x1:0x80000000 x22=0x800000fd
       30965000	      3095	80005a7c	40f30733	sub	x14,x6,x15	  x6:0xfffffd71 x15:0x00000001 x14=0xfffffd70
       30975000	      3096	80005a80	01c9b4b3	sltu	x9,x19,x28	 x19:0x00000000 x28:0x00000000  x9=0x00000000
       30985000	      3097	80005a84	00df2933	slt	x18,x30,x13	 x30:0x00000000 x13:0x00000001 x18=0x00000001
       30995000	      3098	80005a88	0064d393	srli	x7,x9,0x6	  x9:0x00000000  x7=0x00000000
       31005000	      3099	80005a8c	013d4263	blt	x26,x19,80005a90	 x26:0xfffffc39 x19:0x00000000
       31015000	      3100	00000000	00000013	addi	x0,x0,0	  x0:0x00000000
       31025000	      3101	80005a8c	00000013	addi	x0,x0,0	  x0:0x00000000
       31035000	      3102	80005a90	400fdf13	srai	x30,x31,0x0	 x31:0x00000000 x30=0x00000000
       31045000	      3103	80005a94	00000013	addi	x0,x0,0	  x0:0x00000000
       31055000	      3104	80005a98	6c2507b7	lui	x15,0x6c250	 x15=0x6c250000
       31065000	      3105	80005a9c	4ca5ad93	slti	x27,x11,1226	 x11:0x00000001 x27=0x00000001
       31075000	      3106	80005aa0	019a6663	bltu	x20,x25,80005aac	 x20:0x00000000 x25:0xd0000000
       31085000	      3107	00000000	00000013	addi	x0,x0,0	  x0:0x00000000
       31095000	      3108	80005aa8	00000013	addi	x0,x0,0	  x0:0x00000000
       31105000	      3109	80005aac	0179ea33	or	x20,x19,x23	 x19:0x00000000 x23:0x80009ebc x20=0x80009ebc
       31115000	      3110	80005ab0	b0f9f313	andi	x6,x19,-1265	 x19:0x00000000  x6=0x00000000
       31125000	      3111	80005ab4	01771e33	sll	x28,x14,x23	 x14:0xfffffd70 x23:0x80009ebc x28=0x00000000
       31135000	      3112	80005ab8	010c7e63	bgeu	x24,x16,80005ad4	 x24:0x00000001 x16:0x80009fc4
       31145000	      3113	80005abc	cf7dec13	ori	x24,x27,-777	 x27:0x00000001 x24=0xfffffcf7
       31155000	      3114	80005ac0	00843e33	sltu	x28,x8,x8	  x8:0xfffffbbd  x8:0xfffffbbd x28=0x00000000
       31165000	      3115	80005ac4	007b1d93	slli	x27,x22,0x7	 x22:0x800000fd x27=0x00007e80
       31175000	      3116	80005ac8	019ca533	slt	x10,x25,x25	 x25:0xd0000000 x25:0xd0000000 x10=0x00000000
       31185000	      3117	80005acc	01bac033	xor	x0,x21,x27	 x21:0x00000000 x27:0x00007e80
       31195000	      3118	80005ad0	00000013	addi	x0,x0,0	  x0:0x00000000
       31205000	      3119	80005ad4	21a6fa13	andi	x20,x13,538	 x13:0x00000001 x20=0x00000000
       31215000	      3120	80005ad8	03e41c63	bne	x8,x30,80005b10	  x8:0xfffffbbd x30:0x00000000
       31225000	      3121	00000000	00000013	addi	x0,x0,0	  x0:0x00000000
       31235000	      3122	80005b0c	00000013	addi	x0,x0,0	  x0:0x00000000
       31245000	      3123	80005b10	013d4cb3	xor	x25,x26,x19	 x26:0xfffffc39 x19:0x00000000 x25=0xfffffc39
       31255000	      3124	80005b14	008f91b3	sll	x3,x31,x8	 x31:0x00000000  x8:0xfffffbbd  x3=0x00000000
       31265000	      3125	80005b18	40a17913	andi	x18,x2,1034	  x2:0x00400000 x18=0x00000000
       31275000	      3126	80005b1c	00a349b3	xor	x19,x6,x10	  x6:0x00000000 x10:0x00000000 x19=0x00000000
       31285000	      3127	80005b20	41a3d2b3	sra	x5,x7,x26	  x7:0x00000000 x26:0xfffffc39  x5=0x00000000
       31295000	      3128	80005b24	14fb2f13	slti	x30,x22,335	 x22:0x800000fd x30=0x00000001
       31305000	      3129	80005b28	0142fd33	and	x26,x5,x20	  x5:0x00000000 x20:0x00000000 x26=0x00000000
       31315000	      3130	80005b2c	043ad463	bge	x21,x3,80005b74	 x21:0x00000000  x3:0x00000000
       31325000	      3131	00000000	00000013	addi	x0,x0,0	  x0:0x00000000
       31335000	      3132	80005b70	00000013	addi	x0,x0,0	  x0:0x00000000
       31345000	      3133	80005b74	00c9e7b3	or	x15,x19,x12	 x19:0x00000000 x12:0xffffff84 x15=0xffffff84
       31355000	      3134	80005b78	01af36b3	sltu	x13,x30,x26	 x30:0x00000001 x26:0x00000000 x13=0x00000000
       31365000	      3135	80005b7c	95492613	slti	x12,x18,-1708	 x18:0x00000000 x12=0x00000000
       31375000	      3136	80005b80	004f11b3	sll	x3,x30,x4	 x30:0x00000001  x4:0xfffffa8b  x3=0x00000800
       31385000	      3137	80005b84	00000013	addi	x0,x0,0	  x0:0x00000000
       31395000	      3138	80005b88	8cf03d93	sltiu	x27,x0,-1841	  x0:0x00000000 x27=0x00000001
       31405000	      3139	80005b8c	fac3c113	xori	x2,x7,-84	  x7:0x00000000  x2=0xffffffac
       31415000	      3140	80005b90	00cf01b3	add	x3,x30,x12	 x30:0x00000001 x12:0x00000000  x3=0x00000001
       31425000	      3141	80005b94	003d1e13	slli	x28,x26,0x3	 x26:0x00000000 x28=0x00000000
       31435000	      3142	80005b98	02e97063	bgeu	x18,x14,80005bb8	 x18:0x00000000 x14:0xfffffd70
       31445000	      3143	80005b9c	03e0f463	bgeu	x1,x30,80005bc4	  x1:0x80000000 x30:0x00000001
       31455000	      3144	00000000	00000013	addi	x0,x0,0	  x0:0x00000000
       31465000	      3145	80005bc0	00000013	addi	x0,x0,0	  x0:0x00000000
       31475000	      3146	80005bc4	db2cce13	xori	x28,x25,-590	 x25:0xfffffc39 x28=0x0000018b
       31485000	      3147	80005bc8	28fc8f93	addi	x31,x25,655	 x25:0xfffffc39 x31=0xfffffec8
       31495000	      3148	80005bcc	01c11893	slli	x17,x2,0x1c	  x2:0xffffffac x17=0xc0000000
       31505000	      3149	80005bd0	c0cda893	slti	x17,x27,-1012	 x27:0x00000001 x17=0x00000000
       31515000	      3150	80005bd4	018bda13	srli	x20,x23,0x18	 x23:0x80009ebc x20=0x00000080
       31525000	      3151	80005bd8	00000013	addi	x0,x0,0	  x0:0x00000000
       31535000	      3152	80005bdc	0173e5b3	or	x11,x7,x23	  x7:0x00000000 x23:0x80009ebc x11=0x80009ebc
       31545000	      3153	80005be0	00000013	addi	x0,x0,0	  x0:0x00000000
       31555000	      3154	80005be4	6284c697	auipc	x13,0x6284c	 x13=0xe2851be0
       31565000	      3155	80005be8	2fd4e313	ori	x6,x9,765	  x9:0x00000000  x6=0x000002fd
       31575000	      3156	80005bec	f7440113	addi	x2,x8,-140	  x8:0xfffffbbd  x2=0xfffffb31
       31585000	      3157	80005bf0	a9cc0d93	addi	x27,x24,-1380	 x24:0xfffffcf7 x27=0xfffff793
       31595000	      3158	80005bf4	d3f6f513	andi	x10,x13,-705	 x13:0xe2851be0 x10=0xe2851920
       31605000	      3159	80005bf8	402d8633	sub	x12,x27,x2	 x27:0xfffff793  x2:0xfffffb31 x12=0xfffffc62
       31615000	      3160	80005bfc	002e85b3	add	x11,x29,x2	 x29:0x9aa687f8  x2:0xfffffb31 x11=0x9aa68329
       31625000	      3161	80005c00	00003417	auipc	x8,0x3	  x8=0x80008bfc
       31635000	      3162	80005c04	ee640413	addi	x8,x8,-282	  x8:0x80008bfc  x8=0x80008ae2
       31645000	      3163	80005c08	fb445003	lhu	x0,-76(x8)	  x8:0x80008ae2 PA:0x80008a96
       31655000	      3164	80005c0c	001c9d13	slli	x26,x25,0x1	 x25:0xfffffc39 x26=0xfffff872
       31665000	      3165	80005c10	0a042f23	sw	x0,190(x8)	  x8:0x80008ae2  x0:0x00000000 PA:0x80008ba0
       31675000	      3166	80005c14	9fd3cf13	xori	x30,x7,-1539	  x7:0x00000000 x30=0xfffff9fd
       31685000	      3167	80005c18	05842323	sw	x24,70(x8)	  x8:0x80008ae2 x24:0xfffffcf7 PA:0x80008b28
       31695000	      3168	80005c1c	01440183	lb	x3,20(x8)	  x8:0x80008ae2  x3=0xffffffdd PA:0x80008af6
       31705000	      3169	80005c20	c0122193	slti	x3,x4,-1023	  x4:0xfffffa8b  x3=0x00000001
       31715000	      3170	80005c24	01d15333	srl	x6,x2,x29	  x2:0xfffffb31 x29:0x9aa687f8  x6=0x000000ff
       31725000	      3171	80005c28	766ca593	slti	x11,x25,1894	 x25:0xfffffc39 x11=0x00000001
       31735000	      3172	80005c2c	41c3d693	srai	x13,x7,0x1c	  x7:0x00000000 x13=0x00000000
       31745000	      3173	80005c30	04a40a03	lb	x20,74(x8)	  x8:0x80008ae2 x20=0x00000017 PA:0x80008b2c
       31755000	      3174	80005c34	c3b65117	auipc	x2,0xc3b65	  x2=0x43b6ac30
       31765000	      3175	80005c38	048403a3	sb	x8,71(x8)	  x8:0x80008ae2  x8:0x80008ae2 PA:0x80008b29
       31775000	      3176	80005c3c	fe942723	sw	x9,-18(x8)	  x8:0x80008ae2  x9:0x00000000 PA:0x80008ad0
       31785000	      3177	80005c40	00000013	addi	x0,x0,0	  x0:0x00000000
       31795000	      3178	80005c44	fdc45f83	lhu	x31,-36(x8)	  x8:0x80008ae2 x31=0x0000a4a5 PA:0x80008abe
       31805000	      3179	80005c48	51b50793	addi	x15,x10,1307	 x10:0xe2851920 x15=0xe2851e3b
       31815000	      3180	80005c4c	0f042923	sw	x16,242(x8)	  x8:0x80008ae2 x16:0x80009fc4 PA:0x80008bd4
       31825000	      3181	80005c50	ba5da013	slti	x0,x27,-1115	 x27:0xfffff793
       31835000	      3182	80005c54	f6641b03	lh	x22,-154(x8)	  x8:0x80008ae2 x22=0x00003233 PA:0x80008a48
       31845000	      3183	80005c58	00000013	addi	x0,x0,0	  x0:0x00000000
       31855000	      3184	80005c5c	fae40b23	sb	x14,-74(x8)	  x8:0x80008ae2 x14:0xfffffd70 PA:0x80008a98
       31865000	      3185	80005c60	04e45283	lhu	x5,78(x8)	  x8:0x80008ae2  x5=0x00001a1b PA:0x80008b30
       31875000	      3186	80005c64	d3747c97	auipc	x25,0xd3747	 x25=0x5374cc60
       31885000	      3187	80005c68	01e35993	srli	x19,x6,0x1e	  x6:0x000000ff x19=0x00000000
       31895000	      3188	80005c6c	f1441503	lh	x10,-236(x8)	  x8:0x80008ae2 x10=0xffffdcdd PA:0x800089f6
       31905000	      3189	80005c70	0047efb3	or	x31,x15,x4	 x15:0xe2851e3b  x4:0xfffffa8b x31=0xfffffebb
       31915000	      3190	80005c74	00eb53b3	srl	x7,x22,x14	 x22:0x00003233 x14:0xfffffd70  x7=0x00000000
       31925000	      3191	80005c78	88f6ba17	auipc	x20,0x88f6b	 x20=0x08f70c74
       31935000	      3192	80005c7c	ffc40703	lb	x14,-4(x8)	  x8:0x80008ae2 x14=0xffffffc5 PA:0x80008ade
       31945000	      3193	80005c80	fb740623	sb	x23,-84(x8)	  x8:0x80008ae2 x23:0x80009ebc PA:0x80008a8e
       31955000	      3194	80005c84	41ea8933	sub	x18,x21,x30	 x21:0x00000000 x30:0xfffff9fd x18=0x00000603
       31965000	      3195	80005c88	0dc40a23	sb	x28,212(x8)	  x8:0x80008ae2 x28:0x0000018b PA:0x80008bb6
       31975000	      3196	80005c8c	40705293	srai	x5,x0,0x7	  x0:0x00000000  x5=0x00000000
       31985000	      3197	80005c90	9c0f6a93	ori	x21,x30,-1600	 x30:0xfffff9fd x21=0xfffff9fd
       31995000	      3198	80005c94	faa407a3	sb	x10,-81(x8)	  x8:0x80008ae2 x10:0xffffdcdd PA:0x80008a91
       32005000	      3199	80005c98	414353b3	sra	x7,x6,x20	  x6:0x000000ff x20:0x08f70c74  x7=0x00000000
       32015000	      3200	80005c9c	fee42723	sw	x14,-18(x8)	  x8:0x80008ae2 x14:0xffffffc5 PA:0x80008ad0
       32025000	      3201	80005ca0	fbe42723	sw	x30,-82(x8)	  x8:0x80008ae2 x30:0xfffff9fd PA:0x80008a90
       32035000	      3202	80005ca4	09f40ba3	sb	x31,151(x8)	  x8:0x80008ae2 x31:0xfffffebb PA:0x80008b79
       32045000	      3203	80005ca8	406adb13	srai	x22,x21,0x6	 x21:0xfffff9fd x22=0xffffffe7
       32055000	      3204	80005cac	01e708b3	add	x17,x14,x30	 x14:0xffffffc5 x30:0xfffff9fd x17=0xfffff9c2
       32065000	      3205	80005cb0	40de86b3	sub	x13,x29,x13	 x29:0x9aa687f8 x13:0x00000000 x13=0x9aa687f8
       32075000	      3206	80005cb4	07a41883	lh	x17,122(x8)	  x8:0x80008ae2 x17=0x00004647 PA:0x80008b5c
       32085000	      3207	80005cb8	05240923	sb	x18,82(x8)	  x8:0x80008ae2 x18:0x00000603 PA:0x80008b34
       32095000	      3208	80005cbc	f488ae93	slti	x29,x17,-184	 x17:0x00004647 x29=0x00000000
       32105000	      3209	80005cc0	e1eece93	xori	x29,x29,-482	 x29:0x00000000 x29=0xfffffe1e
       32115000	      3210	80005cc4	0db40583	lb	x11,219(x8)	  x8:0x80008ae2 x11=0xffffffa6 PA:0x80008bbd
       32125000	      3211	80005cc8	ff1404a3	sb	x17,-23(x8)	  x8:0x80008ae2 x17:0x00004647 PA:0x80008acb
       32135000	      3212	80005ccc	15d37a93	andi	x21,x6,349	  x6:0x000000ff x21=0x0000005d
       32145000	      3213	80005cd0	f4645d03	lhu	x26,-186(x8)	  x8:0x80008ae2 x26=0x00001213 PA:0x80008a28
       32155000	      3214	80005cd4	143ecdb7	lui	x27,0x143ec	 x27=0x143ec000
       32165000	      3215	80005cd8	01e25013	srli	x0,x4,0x1e	  x4:0xfffffa8b
       32175000	      3216	80005cdc	0c842123	sw	x8,194(x8)	  x8:0x80008ae2  x8:0x80008ae2 PA:0x80008ba4
       32185000	      3217	80005ce0	00245783	lhu	x15,2(x8)	  x8:0x80008ae2 x15=0x0000cecf PA:0x80008ae4
       32195000	      3218	80005ce4	07040d03	lb	x26,112(x8)	  x8:0x80008ae2 x26=0x00000039 PA:0x80008b52
       32205000	      3219	80005ce8	93869a37	lui	x20,0x93869	 x20=0x93869000
       32215000	      3220	80005cec	00b40c03	lb	x24,11(x8)	  x8:0x80008ae2 x24=0xffffffd6 PA:0x80008aed
       32225000	      3221	80005cf0	f649a713	slti	x14,x19,-156	 x19:0x00000000 x14=0x00000000
       32235000	      3222	80005cf4	ae0f0993	addi	x19,x30,-1312	 x30:0xfffff9fd x19=0xfffff4dd
       32245000	      3223	80005cf8	6826ba13	sltiu	x20,x13,1666	 x13:0x9aa687f8 x20=0x00000000
       32255000	      3224	80005cfc	e793f8b7	lui	x17,0xe793f	 x17=0xe793f000
       32265000	      3225	80005d00	be6584b7	lui	x9,0xbe658	  x9=0xbe658000
       32275000	      3226	80005d04	01c6f633	and	x12,x13,x28	 x13:0x9aa687f8 x28:0x0000018b x12=0x00000188
       32285000	      3227	80005d08	3c9e2013	slti	x0,x28,969	 x28:0x0000018b
       32295000	      3228	80005d0c	02767063	bgeu	x12,x7,80005d2c	 x12:0x00000188  x7:0x00000000
       32305000	      3229	00000000	00000013	addi	x0,x0,0	  x0:0x00000000
       32315000	      3230	80005d28	00000013	addi	x0,x0,0	  x0:0x00000000
       32325000	      3231	80005d2c	0193c633	xor	x12,x7,x25	  x7:0x00000000 x25:0x5374cc60 x12=0x5374cc60
       32335000	      3232	80005d30	01adc1b3	xor	x3,x27,x26	 x27:0x143ec000 x26:0x00000039  x3=0x143ec039
       32345000	      3233	80005d34	01490463	beq	x18,x20,80005d3c	 x18:0x00000603 x20:0x00000000
       32355000	      3234	80005d38	01a0de63	bge	x1,x26,80005d54	  x1:0x80000000 x26:0x00000039
       32365000	      3235	80005d3c	05d1e863	bltu	x3,x29,80005d8c	  x3:0x143ec039 x29:0xfffffe1e
       32375000	      3236	00000000	00000013	addi	x0,x0,0	  x0:0x00000000
       32385000	      3237	80005d88	00000013	addi	x0,x0,0	  x0:0x00000000
       32395000	      3238	80005d8c	01f25d93	srli	x27,x4,0x1f	  x4:0xfffffa8b x27=0x00000001
       32405000	      3239	80005d90	41828033	sub	x0,x5,x24	  x5:0x00000000 x24:0xffffffd6
       32415000	      3240	80005d94	40980b33	sub	x22,x16,x9	 x16:0x80009fc4  x9:0xbe658000 x22=0xc19b1fc4
       32425000	      3241	80005d98	a97aba93	sltiu	x21,x21,-1385	 x21:0x0000005d x21=0x00000001
       32435000	      3242	80005d9c	00482ab3	slt	x21,x16,x4	 x16:0x80009fc4  x4:0xfffffa8b x21=0x00000001
       32445000	      3243	80005da0	01504f33	xor	x30,x0,x21	  x0:0x00000000 x21:0x00000001 x30=0x00000001
       32455000	      3244	80005da4	0183cc63	blt	x7,x24,80005dbc	  x7:0x00000000 x24:0xffffffd6
       32465000	      3245	80005da8	002637b3	sltu	x15,x12,x2	 x12:0x5374cc60  x2:0x43b6ac30 x15=0x00000000
       32475000	      3246	80005dac	02d90e63	beq	x18,x13,80005de8	 x18:0x00000603 x13:0x9aa687f8
       32485000	      3247	80005db0	418dd7b3	sra	x15,x27,x24	 x27:0x00000001 x24:0xffffffd6 x15=0x00000000
       32495000	      3248	80005db4	4036d913	srai	x18,x13,0x3	 x13:0x9aa687f8 x18=0xf354d0ff
       32505000	      3249	80005db8	407bd193	srai	x3,x23,0x7	 x23:0x80009ebc  x3=0xff00013d
       32515000	      3250	80005dbc	011b5333	srl	x6,x22,x17	 x22:0xc19b1fc4 x17:0xe793f000  x6=0xc19b1fc4
       32525000	      3251	80005dc0	00000013	addi	x0,x0,0	  x0:0x00000000
       32535000	      3252	80005dc4	a020ac93	slti	x25,x1,-1534	  x1:0x80000000 x25=0x00000001
       32545000	      3253	80005dc8	24da7b13	andi	x22,x20,589	 x20:0x00000000 x22=0x00000000
       32555000	      3254	80005dcc	015c55b3	srl	x11,x24,x21	 x24:0xffffffd6 x21:0x00000001 x11=0x7fffffeb
       32565000	      3255	80005dd0	05d65263	bge	x12,x29,80005e14	 x12:0x5374cc60 x29:0xfffffe1e
       32575000	      3256	00000000	00000013	addi	x0,x0,0	  x0:0x00000000
       32585000	      3257	80005e10	00000013	addi	x0,x0,0	  x0:0x00000000
       32595000	      3258	80005e14	98c7cc13	xori	x24,x15,-1652	 x15:0x00000000 x24=0xfffff98c
       32605000	      3259	80005e18	49434b13	xori	x22,x6,1172	  x6:0xc19b1fc4 x22=0xc19b1b50
       32615000	      3260	80005e1c	03181863	bne	x16,x17,80005e4c	 x16:0x80009fc4 x17:0xe793f000
       32625000	      3261	00000000	00000013	addi	x0,x0,0	  x0:0x00000000
       32635000	      3262	80005e48	00000013	addi	x0,x0,0	  x0:0x00000000
       32645000	      3263	80005e4c	01b635b3	sltu	x11,x12,x27	 x12:0x5374cc60 x27:0x00000001 x11=0x00000000
       32655000	      3264	80005e50	01c38633	add	x12,x7,x28	  x7:0x00000000 x28:0x0000018b x12=0x0000018b
       32665000	      3265	80005e54	4138d713	srai	x14,x17,0x13	 x17:0xe793f000 x14=0xfffffcf2
       32675000	      3266	80005e58	40e20133	sub	x2,x4,x14	  x4:0xfffffa8b x14:0xfffffcf2  x2=0xfffffd99
       32685000	      3267	80005e5c	00000013	addi	x0,x0,0	  x0:0x00000000
       32695000	      3268	80005e60	00ae6263	bltu	x28,x10,80005e64	 x28:0x0000018b x10:0xffffdcdd
       32705000	      3269	00000000	00000013	addi	x0,x0,0	  x0:0x00000000
       32715000	      3270	80005e60	00000013	addi	x0,x0,0	  x0:0x00000000
       32725000	      3271	80005e64	01445a93	srli	x21,x8,0x14	  x8:0x80008ae2 x21=0x00000800
       32735000	      3272	80005e68	01a8ef33	or	x30,x17,x26	 x17:0xe793f000 x26:0x00000039 x30=0xe793f039
       32745000	      3273	80005e6c	6076a893	slti	x17,x13,1543	 x13:0x9aa687f8 x17=0x00000001
       32755000	      3274	80005e70	00be0233	add	x4,x28,x11	 x28:0x0000018b x11:0x00000000  x4=0x0000018b
       32765000	      3275	80005e74	01139c13	slli	x24,x7,0x11	  x7:0x00000000 x24=0x00000000
       32775000	      3276	80005e78	413f5513	srai	x10,x30,0x13	 x30:0xe793f039 x10=0xfffffcf2
       32785000	      3277	80005e7c	00a4da93	srli	x21,x9,0xa	  x9:0xbe658000 x21=0x002f9960
       32795000	      3278	80005e80	40dc8eb3	sub	x29,x25,x13	 x25:0x00000001 x13:0x9aa687f8 x29=0x65597809
       32805000	      3279	80005e84	01785533	srl	x10,x16,x23	 x16:0x80009fc4 x23:0x80009ebc x10=0x00000008
       32815000	      3280	80005e88	01e95463	bge	x18,x30,80005e90	 x18:0xf354d0ff x30:0xe793f039
       32825000	      3281	00000000	00000013	addi	x0,x0,0	  x0:0x00000000
       32835000	      3282	80005e8c	00000013	addi	x0,x0,0	  x0:0x00000000
       32845000	      3283	80005e90	00b65d13	srli	x26,x12,0xb	 x12:0x0000018b x26=0x00000000
       32855000	      3284	80005e94	0157d3b3	srl	x7,x15,x21	 x15:0x00000000 x21:0x002f9960  x7=0x00000000
       32865000	      3285	80005e98	01622233	slt	x4,x4,x22	  x4:0x0000018b x22:0xc19b1b50  x4=0x00000000
       32875000	      3286	80005e9c	0078bc33	sltu	x24,x17,x7	 x17:0x00000001  x7:0x00000000 x24=0x00000000
       32885000	      3287	80005ea0	00dced33	or	x26,x25,x13	 x25:0x00000001 x13:0x9aa687f8 x26=0x9aa687f9
       32895000	      3288	80005ea4	01adfa63	bgeu	x27,x26,80005eb8	 x27:0x00000001 x26:0x9aa687f9
       32905000	      3289	80005ea8	ed5c7d93	andi	x27,x24,-299	 x24:0x00000000 x27=0x00000000
       32915000	      3290	80005eac	0c47e863	bltu	x15,x4,80005f7c	 x15:0x00000000  x4:0x00000000
       32925000	      3291	80005eb0	014f65b3	or	x11,x30,x20	 x30:0xe793f039 x20:0x00000000 x11=0xe793f039
       32935000	      3292	80005eb4	2c000f13	addi	x30,x0,704	  x0:0x00000000 x30=0x000002c0
       32945000	      3293	80005eb8	01852633	slt	x12,x10,x24	 x10:0x00000008 x24:0x00000000 x12=0x00000000
       32955000	      3294	80005ebc	56342013	slti	x0,x8,1379	  x8:0x80008ae2
       32965000	      3295	80005ec0	5ae56613	ori	x12,x10,1454	 x10:0x00000008 x12=0x000005ae
       32975000	      3296	80005ec4	e2e18d13	addi	x26,x3,-466	  x3:0xff00013d x26=0xfeffff6b
       32985000	      3297	80005ec8	79459237	lui	x4,0x79459	  x4=0x79459000
       32995000	      3298	80005ecc	01c2a433	slt	x8,x5,x28	  x5:0x00000000 x28:0x0000018b  x8=0x00000001
       33005000	      3299	80005ed0	e571b513	sltiu	x10,x3,-425	  x3:0xff00013d x10=0x00000001
       33015000	      3300	80005ed4	0a457a63	bgeu	x10,x4,80005f88	 x10:0x00000001  x4:0x79459000
       33025000	      3301	80005ed8	00002417	auipc	x8,0x2	  x8=0x80007ed4
       33035000	      3302	80005edc	7db40413	addi	x8,x8,2011	  x8:0x80007ed4  x8=0x800086af
       33045000	      3303	80005ee0	773aa897	auipc	x17,0x773aa	 x17=0xf73afedc
       33055000	      3304	80005ee4	4019d713	srai	x14,x19,0x1	 x19:0xfffff4dd x14=0xfffffa6e
       33065000	      3305	80005ee8	0091b233	sltu	x4,x3,x9	  x3:0xff00013d  x9:0xbe658000  x4=0x00000000
       33075000	      3306	80005eec	004c5f33	srl	x30,x24,x4	 x24:0x00000000  x4:0x00000000 x30=0x00000000
       33085000	      3307	80005ef0	0159db33	srl	x22,x19,x21	 x19:0xfffff4dd x21:0x002f9960 x22=0xfffff4dd
       33095000	      3308	80005ef4	f3c40c23	sb	x28,-200(x8)	  x8:0x800086af x28:0x0000018b PA:0x800085e7
       33105000	      3309	80005ef8	0af41783	lh	x15,175(x8)	  x8:0x800086af x15=0x00000015 PA:0x8000875e
       33115000	      3310	80005efc	0a3404a3	sb	x3,169(x8)	  x8:0x800086af  x3:0xff00013d PA:0x80008758
       33125000	      3311	80005f00	4c1eb613	sltiu	x12,x29,1217	 x29:0x65597809 x12=0x00000000
       33135000	      3312	80005f04	6dc65d97	auipc	x27,0x6dc65	 x27=0xedc6af00
       33145000	      3313	80005f08	01de72b3	and	x5,x28,x29	 x28:0x0000018b x29:0x65597809  x5=0x00000009
       33155000	      3314	80005f0c	0de44c03	lbu	x24,222(x8)	  x8:0x800086af x24=0x00000001 PA:0x8000878d
       33165000	      3315	80005f10	0f945003	lhu	x0,249(x8)	  x8:0x800086af PA:0x800087a8
       33175000	      3316	80005f14	fb844f03	lbu	x30,-72(x8)	  x8:0x800086af x30=0x0000001c PA:0x80008667
       33185000	      3317	80005f18	018e9733	sll	x14,x29,x24	 x29:0x65597809 x24:0x00000001 x14=0xcab2f012
       33195000	      3318	80005f1c	04e40b03	lb	x22,78(x8)	  x8:0x800086af x22=0xffffffb6 PA:0x800086fd
       33205000	      3319	80005f20	00cf67b3	or	x15,x30,x12	 x30:0x0000001c x12:0x00000000 x15=0x0000001c
       33215000	      3320	80005f24	e8780c93	addi	x25,x16,-377	 x16:0x80009fc4 x25=0x80009e4b
       33225000	      3321	80005f28	003f1e13	slli	x28,x30,0x3	 x30:0x0000001c x28=0x000000e0
       33235000	      3322	80005f2c	f3544e83	lbu	x29,-203(x8)	  x8:0x800086af x29=0x0000009f PA:0x800085e4
       33245000	      3323	80005f30	04144483	lbu	x9,65(x8)	  x8:0x800086af  x9=0x000000ab PA:0x800086f0
       33255000	      3324	80005f34	0a040e83	lb	x29,160(x8)	  x8:0x800086af x29=0x00000004 PA:0x8000874f
       33265000	      3325	80005f38	41ca5db3	sra	x27,x20,x28	 x20:0x00000000 x28:0x000000e0 x27=0x00000000
       33275000	      3326	80005f3c	01aec9b3	xor	x19,x29,x26	 x29:0x00000004 x26:0xfeffff6b x19=0xfeffff6f
       33285000	      3327	80005f40	00585913	srli	x18,x16,0x5	 x16:0x80009fc4 x18=0x040004fe
       33295000	      3328	80005f44	f8444003	lbu	x0,-124(x8)	  x8:0x800086af PA:0x80008633
       33305000	      3329	80005f48	9c740293	addi	x5,x8,-1593	  x8:0x800086af  x5=0x80008076
       33315000	      3330	80005f4c	014a1ab3	sll	x21,x20,x20	 x20:0x00000000 x20:0x00000000 x21=0x00000000
       33325000	      3331	80005f50	f1945e83	lhu	x29,-231(x8)	  x8:0x800086af x29=0x00008283 PA:0x800085c8
       33335000	      3332	80005f54	08745603	lhu	x12,135(x8)	  x8:0x800086af x12=0x0000eced PA:0x80008736
       33345000	      3333	80005f58	03eae263	bltu	x21,x30,80005f7c	 x21:0x00000000 x30:0x0000001c
       33355000	      3334	00000000	00000013	addi	x0,x0,0	  x0:0x00000000
       33365000	      3335	80005f78	00000013	addi	x0,x0,0	  x0:0x00000000
       33375000	      3336	80005f7c	eb738c13	addi	x24,x7,-329	  x7:0x00000000 x24=0xfffffeb7
       33385000	      3337	80005f80	41ccd8b3	sra	x17,x25,x28	 x25:0x80009e4b x28:0x000000e0 x17=0x80009e4b
       33395000	      3338	80005f84	05d0f463	bgeu	x1,x29,80005fcc	  x1:0x80000000 x29:0x00008283
       33405000	      3339	00000000	00000013	addi	x0,x0,0	  x0:0x00000000
       33415000	      3340	80005fc8	00000013	addi	x0,x0,0	  x0:0x00000000
       33425000	      3341	80005fcc	002d5293	srli	x5,x26,0x2	 x26:0xfeffff6b  x5=0x3fbfffda
       33435000	      3342	80005fd0	01da9fb3	sll	x31,x21,x29	 x21:0x00000000 x29:0x00008283 x31=0x00000000
       33445000	      3343	80005fd4	00000013	addi	x0,x0,0	  x0:0x00000000
       33455000	      3344	80005fd8	00f5f033	and	x0,x11,x15	 x11:0xe793f039 x15:0x0000001c
       33465000	      3345	80005fdc	72c17993	andi	x19,x2,1836	  x2:0xfffffd99 x19=0x00000508
       33475000	      3346	80005fe0	00c87a63	bgeu	x16,x12,80005ff4	 x16:0x80009fc4 x12:0x0000eced
       33485000	      3347	00000000	00000013	addi	x0,x0,0	  x0:0x00000000
       33495000	      3348	80005ff0	00000013	addi	x0,x0,0	  x0:0x00000000
       33505000	      3349	80005ff4	4f3e0b37	lui	x22,0x4f3e0	 x22=0x4f3e0000
       33515000	      3350	80005ff8	40108a33	sub	x20,x1,x1	  x1:0x80000000  x1:0x80000000 x20=0x00000000
       33525000	      3351	80005ffc	014b5db3	srl	x27,x22,x20	 x22:0x4f3e0000 x20:0x00000000 x27=0x4f3e0000
       33535000	      3352	80006000	9f440037	lui	x0,0x9f440	
       33545000	      3353	80006004	00c74463	blt	x14,x12,8000600c	 x14:0xcab2f012 x12:0x0000eced
       33555000	      3354	00000000	00000013	addi	x0,x0,0	  x0:0x00000000
       33565000	      3355	80006008	00000013	addi	x0,x0,0	  x0:0x00000000
       33575000	      3356	8000600c	7cd6a513	slti	x10,x13,1997	 x13:0x9aa687f8 x10=0x00000001
       33585000	      3357	80006010	6a183113	sltiu	x2,x16,1697	 x16:0x80009fc4  x2=0x00000000
       33595000	      3358	80006014	01e15663	bge	x2,x30,80006020	  x2:0x00000000 x30:0x0000001c
       33605000	      3359	80006018	00000013	addi	x0,x0,0	  x0:0x00000000
       33615000	      3360	8000601c	005ef533	and	x10,x29,x5	 x29:0x00008283  x5:0x3fbfffda x10=0x00008282
       33625000	      3361	80006020	b067c213	xori	x4,x15,-1274	 x15:0x0000001c  x4=0xfffffb1a
       33635000	      3362	80006024	ae8fb893	sltiu	x17,x31,-1304	 x31:0x00000000 x17=0x00000001
       33645000	      3363	80006028	056d1263	bne	x26,x22,8000606c	 x26:0xfeffff6b x22:0x4f3e0000
       33655000	      3364	00000000	00000013	addi	x0,x0,0	  x0:0x00000000
       33665000	      3365	80006068	00000013	addi	x0,x0,0	  x0:0x00000000
       33675000	      3366	8000606c	00115b13	srli	x22,x2,0x1	  x2:0x00000000 x22=0x00000000
       33685000	      3367	80006070	41a55f13	srai	x30,x10,0x1a	 x10:0x00008282 x30=0x00000000
       33695000	      3368	80006074	00802fb3	slt	x31,x0,x8	  x0:0x00000000  x8:0x800086af x31=0x00000000
       33705000	      3369	80006078	00559433	sll	x8,x11,x5	 x11:0xe793f039  x5:0x3fbfffda  x8=0xe4000000
       33715000	      3370	8000607c	01430b33	add	x22,x6,x20	  x6:0xc19b1fc4 x20:0x00000000 x22=0xc19b1fc4
       33725000	      3371	80006080	03ba1c63	bne	x20,x27,800060b8	 x20:0x00000000 x27:0x4f3e0000
       33735000	      3372	00000000	00000013	addi	x0,x0,0	  x0:0x00000000
       33745000	      3373	800060b4	00000013	addi	x0,x0,0	  x0:0x00000000
       33755000	      3374	800060b8	02b55863	bge	x10,x11,800060e8	 x10:0x00008282 x11:0xe793f039
       33765000	      3375	00000000	00000013	addi	x0,x0,0	  x0:0x00000000
       33775000	      3376	800060e4	00000013	addi	x0,x0,0	  x0:0x00000000
       33785000	      3377	800060e8	9254a213	slti	x4,x9,-1755	  x9:0x000000ab  x4=0x00000000
       33795000	      3378	800060ec	f0078b13	addi	x22,x15,-256	 x15:0x0000001c x22=0xffffff1c
       33805000	      3379	800060f0	015e81b3	add	x3,x29,x21	 x29:0x00008283 x21:0x00000000  x3=0x00008283
       33815000	      3380	800060f4	a535e713	ori	x14,x11,-1453	 x11:0xe793f039 x14=0xfffffa7b
       33825000	      3381	800060f8	0193dc33	srl	x24,x7,x25	  x7:0x00000000 x25:0x80009e4b x24=0x00000000
       33835000	      3382	800060fc	01931793	slli	x15,x6,0x19	  x6:0xc19b1fc4 x15=0x88000000
       33845000	      3383	80006100	73a47513	andi	x10,x8,1850	  x8:0xe4000000 x10=0x00000000
       33855000	      3384	80006104	02a54063	blt	x10,x10,80006124	 x10:0x00000000 x10:0x00000000
       33865000	      3385	80006108	9e282e93	slti	x29,x16,-1566	 x16:0x80009fc4 x29=0x00000001
       33875000	      3386	8000610c	01dd3b33	sltu	x22,x26,x29	 x26:0xfeffff6b x29:0x00000001 x22=0x00000000
       33885000	      3387	80006110	01cc88b3	add	x17,x25,x28	 x25:0x80009e4b x28:0x000000e0 x17=0x80009f2b
       33895000	      3388	80006114	414855b3	sra	x11,x16,x20	 x16:0x80009fc4 x20:0x00000000 x11=0x80009fc4
       33905000	      3389	80006118	012afc33	and	x24,x21,x18	 x21:0x00000000 x18:0x040004fe x24=0x00000000
       33915000	      3390	8000611c	00281133	sll	x2,x16,x2	 x16:0x80009fc4  x2:0x00000000  x2=0x80009fc4
       33925000	      3391	80006120	4028d8b3	sra	x17,x17,x2	 x17:0x80009f2b  x2:0x80009fc4 x17=0xf80009f2
       33935000	      3392	80006124	016a8133	add	x2,x21,x22	 x21:0x00000000 x22:0x00000000  x2=0x00000000
       33945000	      3393	80006128	00371433	sll	x8,x14,x3	 x14:0xfffffa7b  x3:0x00008283  x8=0xffffd3d8
       33955000	      3394	8000612c	038cda63	bge	x25,x24,80006160	 x25:0x80009e4b x24:0x00000000
       33965000	      3395	80006130	00801d33	sll	x26,x0,x8	  x0:0x00000000  x8:0xffffd3d8 x26=0x00000000
       33975000	      3396	80006134	5c942513	slti	x10,x8,1481	  x8:0xffffd3d8 x10=0x00000001
       33985000	      3397	80006138	40085293	srai	x5,x16,0x0	 x16:0x80009fc4  x5=0x80009fc4
       33995000	      3398	8000613c	01107c33	and	x24,x0,x17	  x0:0x00000000 x17:0xf80009f2 x24=0x00000000
       34005000	      3399	80006140	012711b3	sll	x3,x14,x18	 x14:0xfffffa7b x18:0x040004fe  x3=0xc0000000
       34015000	      3400	80006144	6598c193	xori	x3,x17,1625	 x17:0xf80009f2  x3=0xf8000fab
       34025000	      3401	80006148	03a8ea63	bltu	x17,x26,8000617c	 x17:0xf80009f2 x26:0x00000000
       34035000	      3402	8000614c	0a736437	lui	x8,0xa736	  x8=0x0a736000
       34045000	      3403	80006150	01af13b3	sll	x7,x30,x26	 x30:0x00000000 x26:0x00000000  x7=0x00000000
       34055000	      3404	80006154	41cedf93	srai	x31,x29,0x1c	 x29:0x00000001 x31=0x00000000
       34065000	      3405	80006158	40ccdd33	sra	x26,x25,x12	 x25:0x80009e4b x12:0x0000eced x26=0xfffc0004
       34075000	      3406	8000615c	0180e333	or	x6,x1,x24	  x1:0x80000000 x24:0x00000000  x6=0x80000000
       34085000	      3407	80006160	40de55b3	sra	x11,x28,x13	 x28:0x000000e0 x13:0x9aa687f8 x11=0x00000000
       34095000	      3408	80006164	404ad393	srai	x7,x21,0x4	 x21:0x00000000  x7=0x00000000
       34105000	      3409	80006168	f4922993	slti	x19,x4,-183	  x4:0x00000000 x19=0x00000000
       34115000	      3410	8000616c	04535863	bge	x6,x5,800061bc	  x6:0x80000000  x5:0x80009fc4
       34125000	      3411	80006170	036bde63	bge	x23,x22,800061ac	 x23:0x80009ebc x22:0x00000000
       34135000	      3412	80006174	00e29f33	sll	x30,x5,x14	  x5:0x80009fc4 x14:0xfffffa7b x30=0x20000000
       34145000	      3413	80006178	00c99f93	slli	x31,x19,0xc	 x19:0x00000000 x31=0x00000000
       34155000	      3414	8000617c	eb25a213	slti	x4,x11,-334	 x11:0x00000000  x4=0x00000000
       34165000	      3415	80006180	0b91ee93	ori	x29,x3,185	  x3:0xf8000fab x29=0xf8000fbb
       34175000	      3416	80006184	dd0f0f93	addi	x31,x30,-560	 x30:0x20000000 x31=0x1ffffdd0
       34185000	      3417	80006188	0710cd93	xori	x27,x1,113	  x1:0x80000000 x27=0x80000071
       34195000	      3418	8000618c	00888cb3	add	x25,x17,x8	 x17:0xf80009f2  x8:0x0a736000 x25=0x027369f2
       34205000	      3419	80006190	04137463	bgeu	x6,x1,800061d8	  x6:0x80000000  x1:0x80000000
       34215000	      3420	00000000	00000013	addi	x0,x0,0	  x0:0x00000000
       34225000	      3421	800061d4	00000013	addi	x0,x0,0	  x0:0x00000000
       34235000	      3422	800061d8	05356863	bltu	x10,x19,80006228	 x10:0x00000001 x19:0x00000000
       34245000	      3423	800061dc	01f82633	slt	x12,x16,x31	 x16:0x80009fc4 x31:0x1ffffdd0 x12=0x00000001
       34255000	      3424	800061e0	82d68993	addi	x19,x13,-2003	 x13:0x9aa687f8 x19=0x9aa68025
       34265000	      3425	800061e4	c735b513	sltiu	x10,x11,-909	 x11:0x00000000 x10=0x00000001
       34275000	      3426	800061e8	014ba633	slt	x12,x23,x20	 x23:0x80009ebc x20:0x00000000 x12=0x00000001
       34285000	      3427	800061ec	05168463	beq	x13,x17,80006234	 x13:0x9aa687f8 x17:0xf80009f2
       34295000	      3428	800061f0	40a284b3	sub	x9,x5,x10	  x5:0x80009fc4 x10:0x00000001  x9=0x80009fc3
       34305000	      3429	800061f4	e2240293	addi	x5,x8,-478	  x8:0x0a736000  x5=0x0a735e22
       34315000	      3430	800061f8	411781b3	sub	x3,x15,x17	 x15:0x88000000 x17:0xf80009f2  x3=0x8ffff60e
       34325000	      3431	800061fc	00000013	addi	x0,x0,0	  x0:0x00000000
       34335000	      3432	80006200	0123beb3	sltu	x29,x7,x18	  x7:0x00000000 x18:0x040004fe x29=0x00000001
       34345000	      3433	80006204	000a1463	bne	x20,x0,8000620c	 x20:0x00000000  x0:0x00000000
       34355000	      3434	80006208	719e3c13	sltiu	x24,x28,1817	 x28:0x000000e0 x24=0x00000001
       34365000	      3435	8000620c	01cfd693	srli	x13,x31,0x1c	 x31:0x1ffffdd0 x13=0x00000001
       34375000	      3436	80006210	39926b13	ori	x22,x4,921	  x4:0x00000000 x22=0x00000399
       34385000	      3437	80006214	00d169b3	or	x19,x2,x13	  x2:0x00000000 x13:0x00000001 x19=0x00000001
       34395000	      3438	80006218	011ec463	blt	x29,x17,80006220	 x29:0x00000001 x17:0xf80009f2
       34405000	      3439	8000621c	00714eb3	xor	x29,x2,x7	  x2:0x00000000  x7:0x00000000 x29=0x00000000
       34415000	      3440	80006220	40ccda93	srai	x21,x25,0xc	 x25:0x027369f2 x21=0x00002736
       34425000	      3441	80006224	00000013	addi	x0,x0,0	  x0:0x00000000
       34435000	      3442	80006228	432e3393	sltiu	x7,x28,1074	 x28:0x000000e0  x7=0x00000001
       34445000	      3443	8000622c	00c15a63	bge	x2,x12,80006240	  x2:0x00000000 x12:0x00000001
       34455000	      3444	80006230	015207b3	add	x15,x4,x21	  x4:0x00000000 x21:0x00002736 x15=0x00002736
       34465000	      3445	80006234	0122d613	srli	x12,x5,0x12	  x5:0x0a735e22 x12=0x0000029c
       34475000	      3446	80006238	40c688b3	sub	x17,x13,x12	 x13:0x00000001 x12:0x0000029c x17=0xfffffd65
       34485000	      3447	8000623c	41bb0033	sub	x0,x22,x27	 x22:0x00000399 x27:0x80000071
       34495000	      3448	80006240	401c5693	srai	x13,x24,0x1	 x24:0x00000001 x13=0x00000000
       34505000	      3449	80006244	41a85433	sra	x8,x16,x26	 x16:0x80009fc4 x26:0xfffc0004  x8=0xf80009fc
       34515000	      3450	80006248	000dafb3	slt	x31,x27,x0	 x27:0x80000071  x0:0x00000000 x31=0x00000001
       34525000	      3451	8000624c	02b97263	bgeu	x18,x11,80006270	 x18:0x040004fe x11:0x00000000
       34535000	      3452	00000000	00000013	addi	x0,x0,0	  x0:0x00000000
       34545000	      3453	8000626c	00000013	addi	x0,x0,0	  x0:0x00000000
       34555000	      3454	80006270	408a0db3	sub	x27,x20,x8	 x20:0x00000000  x8:0xf80009fc x27=0x07fff604
       34565000	      3455	80006274	417d5613	srai	x12,x26,0x17	 x26:0xfffc0004 x12=0xffffffff
       34575000	      3456	80006278	8df40c93	addi	x25,x8,-1825	  x8:0xf80009fc x25=0xf80002db
       34585000	      3457	8000627c	004f51b3	srl	x3,x30,x4	 x30:0x20000000  x4:0x00000000  x3=0x20000000
       34595000	      3458	80006280	00adf7b3	and	x15,x27,x10	 x27:0x07fff604 x10:0x00000001 x15=0x00000000
       34605000	      3459	80006284	00e82eb3	slt	x29,x16,x14	 x16:0x80009fc4 x14:0xfffffa7b x29=0x00000001
       34615000	      3460	80006288	00411c63	bne	x2,x4,800062a0	  x2:0x00000000  x4:0x00000000
       34625000	      3461	8000628c	00416e33	or	x28,x2,x4	  x2:0x00000000  x4:0x00000000 x28=0x00000000
       34635000	      3462	80006290	419b8cb3	sub	x25,x23,x25	 x23:0x80009ebc x25:0xf80002db x25=0x88009be1
       34645000	      3463	80006294	00841933	sll	x18,x8,x8	  x8:0xf80009fc  x8:0xf80009fc x18=0xc0000000
       34655000	      3464	80006298	89593513	sltiu	x10,x18,-1899	 x18:0xc0000000 x10=0x00000001
       34665000	      3465	8000629c	1f394d93	xori	x27,x18,499	 x18:0xc0000000 x27=0xc00001f3
       34675000	      3466	800062a0	00f607b3	add	x15,x12,x15	 x12:0xffffffff x15:0x00000000 x15=0xffffffff
       34685000	      3467	800062a4	00cd9633	sll	x12,x27,x12	 x27:0xc00001f3 x12:0xffffffff x12=0x80000000
       34695000	      3468	800062a8	00f7de13	srli	x28,x15,0xf	 x15:0xffffffff x28=0x0001ffff
       34705000	      3469	800062ac	0211c463	blt	x3,x1,800062d4	  x3:0x20000000  x1:0x80000000
       34715000	      3470	800062b0	dfc8ec93	ori	x25,x17,-516	 x17:0xfffffd65 x25=0xfffffdfd
       34725000	      3471	800062b4	006b31b3	sltu	x3,x22,x6	 x22:0x00000399  x6:0x80000000  x3=0x00000001
       34735000	      3472	800062b8	41bc05b3	sub	x11,x24,x27	 x24:0x00000001 x27:0xc00001f3 x11=0x3ffffe0e
       34745000	      3473	800062bc	014d1293	slli	x5,x26,0x14	 x26:0xfffc0004  x5=0x00400000
       34755000	      3474	800062c0	00dd4463	blt	x26,x13,800062c8	 x26:0xfffc0004 x13:0x00000000
       34765000	      3475	00000000	00000013	addi	x0,x0,0	  x0:0x00000000
       34775000	      3476	800062c4	00000013	addi	x0,x0,0	  x0:0x00000000
       34785000	      3477	800062c8	1ef3be93	sltiu	x29,x7,495	  x7:0x00000001 x29=0x00000001
       34795000	      3478	800062cc	41bc0db3	sub	x27,x24,x27	 x24:0x00000001 x27:0xc00001f3 x27=0x3ffffe0e
       34805000	      3479	800062d0	0435f863	bgeu	x11,x3,80006320	 x11:0x3ffffe0e  x3:0x00000001
       34815000	      3480	00000000	00000013	addi	x0,x0,0	  x0:0x00000000
       34825000	      3481	8000631c	00000013	addi	x0,x0,0	  x0:0x00000000
       34835000	      3482	80006320	4066de33	sra	x28,x13,x6	 x13:0x00000000  x6:0x80000000 x28=0x00000000
       34845000	      3483	80006324	32edc693	xori	x13,x27,814	 x27:0x3ffffe0e x13=0x3ffffd20
       34855000	      3484	80006328	01cc9413	slli	x8,x25,0x1c	 x25:0xfffffdfd  x8=0xd0000000
       34865000	      3485	8000632c	01d2a2b3	slt	x5,x5,x29	  x5:0x00400000 x29:0x00000001  x5=0x00000000
       34875000	      3486	80006330	d96e0593	addi	x11,x28,-618	 x28:0x00000000 x11=0xfffffd96
       34885000	      3487	80006334	0112d593	srli	x11,x5,0x11	  x5:0x00000000 x11=0x00000000
       34895000	      3488	80006338	01298463	beq	x19,x18,80006340	 x19:0x00000001 x18:0xc0000000
       34905000	      3489	8000633c	005287b3	add	x15,x5,x5	  x5:0x00000000  x5:0x00000000 x15=0x00000000
       34915000	      3490	80006340	025f0663	beq	x30,x5,8000636c	 x30:0x20000000  x5:0x00000000
       34925000	      3491	80006344	c674b893	sltiu	x17,x9,-921	  x9:0x80009fc3 x17=0x00000001
       34935000	      3492	80006348	01c323b3	slt	x7,x6,x28	  x6:0x80000000 x28:0x00000000  x7=0x00000001
       34945000	      3493	8000634c	04968463	beq	x13,x9,80006394	 x13:0x3ffffd20  x9:0x80009fc3
       34955000	      3494	80006350	b06cfe93	andi	x29,x25,-1274	 x25:0xfffffdfd x29=0xfffff904
       34965000	      3495	80006354	032b9463	bne	x23,x18,8000637c	 x23:0x80009ebc x18:0xc0000000
       34975000	      3496	00000000	00000013	addi	x0,x0,0	  x0:0x00000000
       34985000	      3497	80006378	00000013	addi	x0,x0,0	  x0:0x00000000
       34995000	      3498	8000637c	224a6d13	ori	x26,x20,548	 x20:0x00000000 x26=0x00000224
       35005000	      3499	80006380	013916b3	sll	x13,x18,x19	 x18:0xc0000000 x19:0x00000001 x13=0x80000000
       35015000	      3500	80006384	41bb57b3	sra	x15,x22,x27	 x22:0x00000399 x27:0x3ffffe0e x15=0x00000000
       35025000	      3501	80006388	009fb3b3	sltu	x7,x31,x9	 x31:0x00000001  x9:0x80009fc3  x7=0x00000001
       35035000	      3502	8000638c	d69af393	andi	x7,x21,-663	 x21:0x00002736  x7=0x00002520
       35045000	      3503	80006390	4062d333	sra	x6,x5,x6	  x5:0x00000000  x6:0x80000000  x6=0x00000000
       35055000	      3504	80006394	00074fb3	xor	x31,x14,x0	 x14:0xfffffa7b  x0:0x00000000 x31=0xfffffa7b
       35065000	      3505	80006398	0094f333	and	x6,x9,x9	  x9:0x80009fc3  x9:0x80009fc3  x6=0x80009fc3
       35075000	      3506	8000639c	00e8ca63	blt	x17,x14,800063b0	 x17:0x00000001 x14:0xfffffa7b
       35085000	      3507	800063a0	409a5113	srai	x2,x20,0x9	 x20:0x00000000  x2=0x00000000
       35095000	      3508	800063a4	00a10db3	add	x27,x2,x10	  x2:0x00000000 x10:0x00000001 x27=0x00000001
       35105000	      3509	800063a8	685ec197	auipc	x3,0x685ec	  x3=0xe85f23a4
       35115000	      3510	800063ac	00f7b4b3	sltu	x9,x15,x15	 x15:0x00000000 x15:0x00000000  x9=0x00000000
       35125000	      3511	800063b0	00b23b33	sltu	x22,x4,x11	  x4:0x00000000 x11:0x00000000 x22=0x00000000
       35135000	      3512	800063b4	8fe13037	lui	x0,0x8fe13	
       35145000	      3513	800063b8	00be05b3	add	x11,x28,x11	 x28:0x00000000 x11:0x00000000 x11=0x00000000
       35155000	      3514	800063bc	0261c863	blt	x3,x6,800063ec	  x3:0xe85f23a4  x6:0x80009fc3
       35165000	      3515	800063c0	010b0fb3	add	x31,x22,x16	 x22:0x00000000 x16:0x80009fc4 x31=0x80009fc4
       35175000	      3516	800063c4	21833493	sltiu	x9,x6,536	  x6:0x80009fc3  x9=0x00000000
       35185000	      3517	800063c8	032d1063	bne	x26,x18,800063e8	 x26:0x00000224 x18:0xc0000000
       35195000	      3518	00000000	00000013	addi	x0,x0,0	  x0:0x00000000
       35205000	      3519	800063e4	00000013	addi	x0,x0,0	  x0:0x00000000
       35215000	      3520	800063e8	02d14e63	blt	x2,x13,80006424	  x2:0x00000000 x13:0x80000000
       35225000	      3521	800063ec	0417e263	bltu	x15,x1,80006430	 x15:0x00000000  x1:0x80000000
       35235000	      3522	00000000	00000013	addi	x0,x0,0	  x0:0x00000000
       35245000	      3523	8000642c	00000013	addi	x0,x0,0	  x0:0x00000000
       35255000	      3524	80006430	881d6013	ori	x0,x26,-1919	 x26:0x00000224
       35265000	      3525	80006434	418f81b3	sub	x3,x31,x24	 x31:0x80009fc4 x24:0x00000001  x3=0x80009fc3
       35275000	      3526	80006438	056cf863	bgeu	x25,x22,80006488	 x25:0xfffffdfd x22:0x00000000
       35285000	      3527	00000000	00000013	addi	x0,x0,0	  x0:0x00000000
       35295000	      3528	80006484	00000013	addi	x0,x0,0	  x0:0x00000000
       35305000	      3529	80006488	03cf8663	beq	x31,x28,800064b4	 x31:0x80009fc4 x28:0x00000000
       35315000	      3530	8000648c	64c64313	xori	x6,x12,1612	 x12:0x80000000  x6=0x8000064c
       35325000	      3531	80006490	00000013	addi	x0,x0,0	  x0:0x00000000
       35335000	      3532	80006494	01f0d463	bge	x1,x31,8000649c	  x1:0x80000000 x31:0x80009fc4
       35345000	      3533	80006498	509f8993	addi	x19,x31,1289	 x31:0x80009fc4 x19=0x8000a4cd
       35355000	      3534	8000649c	00000013	addi	x0,x0,0	  x0:0x00000000
       35365000	      3535	800064a0	00e3c463	blt	x7,x14,800064a8	  x7:0x00002520 x14:0xfffffa7b
       35375000	      3536	800064a4	c7b5afb7	lui	x31,0xc7b5a	 x31=0xc7b5a000
       35385000	      3537	800064a8	00b51893	slli	x17,x10,0xb	 x10:0x00000001 x17=0x00000800
       35395000	      3538	800064ac	af208013	addi	x0,x1,-1294	  x1:0x80000000
       35405000	      3539	800064b0	018159b3	srl	x19,x2,x24	  x2:0x00000000 x24:0x00000001 x19=0x00000000
       35415000	      3540	800064b4	05758863	beq	x11,x23,80006504	 x11:0x00000000 x23:0x80009ebc
       35425000	      3541	800064b8	0181b433	sltu	x8,x3,x24	  x3:0x80009fc3 x24:0x00000001  x8=0x00000000
       35435000	      3542	800064bc	05ca4263	blt	x20,x28,80006500	 x20:0x00000000 x28:0x00000000
       35445000	      3543	800064c0	bd7f4e13	xori	x28,x30,-1065	 x30:0x20000000 x28=0xdffffbd7
       35455000	      3544	800064c4	0563d863	bge	x7,x22,80006514	  x7:0x00002520 x22:0x00000000
       35465000	      3545	00000000	00000013	addi	x0,x0,0	  x0:0x00000000
       35475000	      3546	80006510	00000013	addi	x0,x0,0	  x0:0x00000000
       35485000	      3547	80006514	01091633	sll	x12,x18,x16	 x18:0xc0000000 x16:0x80009fc4 x12=0x00000000
       35495000	      3548	80006518	00375fb3	srl	x31,x14,x3	 x14:0xfffffa7b  x3:0x80009fc3 x31=0x1fffff4f
       35505000	      3549	8000651c	00854c63	blt	x10,x8,80006534	 x10:0x00000001  x8:0x00000000
       35515000	      3550	80006520	01185db3	srl	x27,x16,x17	 x16:0x80009fc4 x17:0x00000800 x27=0x80009fc4
       35525000	      3551	80006524	41ec5b33	sra	x22,x24,x30	 x24:0x00000001 x30:0x20000000 x22=0x00000001
       35535000	      3552	80006528	00000013	addi	x0,x0,0	  x0:0x00000000
       35545000	      3553	8000652c	00000013	addi	x0,x0,0	  x0:0x00000000
       35555000	      3554	80006530	02bfca63	blt	x31,x11,80006564	 x31:0x1fffff4f x11:0x00000000
       35565000	      3555	80006534	01d19c93	slli	x25,x3,0x1d	  x3:0x80009fc3 x25=0x60000000
       35575000	      3556	80006538	03d40463	beq	x8,x29,80006560	  x8:0x00000000 x29:0xfffff904
       35585000	      3557	8000653c	00000013	addi	x0,x0,0	  x0:0x00000000
       35595000	      3558	80006540	41c402b3	sub	x5,x8,x28	  x8:0x00000000 x28:0xdffffbd7  x5=0x20000429
       35605000	      3559	80006544	014c5a63	bge	x24,x20,80006558	 x24:0x00000001 x20:0x00000000
       35615000	      3560	00000000	00000013	addi	x0,x0,0	  x0:0x00000000
       35625000	      3561	80006554	00000013	addi	x0,x0,0	  x0:0x00000000
       35635000	      3562	80006558	002a4cb3	xor	x25,x20,x2	 x20:0x00000000  x2:0x00000000 x25=0x00000000
       35645000	      3563	8000655c	0087c933	xor	x18,x15,x8	 x15:0x00000000  x8:0x00000000 x18=0x00000000
       35655000	      3564	80006560	e050e993	ori	x19,x1,-507	  x1:0x80000000 x19=0xfffffe05
       35665000	      3565	80006564	006b79b3	and	x19,x22,x6	 x22:0x00000001  x6:0x8000064c x19=0x00000000
       35675000	      3566	80006568	01868a33	add	x20,x13,x24	 x13:0x80000000 x24:0x00000001 x20=0x80000001
       35685000	      3567	8000656c	6f7b8f13	addi	x30,x23,1783	 x23:0x80009ebc x30=0x8000a5b3
       35695000	      3568	80006570	752ea593	slti	x11,x29,1874	 x29:0xfffff904 x11=0x00000001
       35705000	      3569	80006574	ef5096b7	lui	x13,0xef509	 x13=0xef509000
       35715000	      3570	80006578	00ce5033	srl	x0,x28,x12	 x28:0xdffffbd7 x12:0x00000000
       35725000	      3571	8000657c	00f91263	bne	x18,x15,80006580	 x18:0x00000000 x15:0x00000000
       35735000	      3572	80006580	0118de63	bge	x17,x17,8000659c	 x17:0x00000800 x17:0x00000800
       35745000	      3573	00000000	00000013	addi	x0,x0,0	  x0:0x00000000
       35755000	      3574	80006598	00000013	addi	x0,x0,0	  x0:0x00000000
       35765000	      3575	8000659c	415d84b3	sub	x9,x27,x21	 x27:0x80009fc4 x21:0x00002736  x9=0x8000788e
       35775000	      3576	800065a0	0136fe33	and	x28,x13,x19	 x13:0xef509000 x19:0x00000000 x28=0x00000000
       35785000	      3577	800065a4	02337263	bgeu	x6,x3,800065c8	  x6:0x8000064c  x3:0x80009fc3
       35795000	      3578	800065a8	0364e063	bltu	x9,x22,800065c8	  x9:0x8000788e x22:0x00000001
       35805000	      3579	800065ac	00f815b3	sll	x11,x16,x15	 x16:0x80009fc4 x15:0x00000000 x11=0x80009fc4
       35815000	      3580	800065b0	41d55133	sra	x2,x10,x29	 x10:0x00000001 x29:0xfffff904  x2=0x00000000
       35825000	      3581	800065b4	002908b3	add	x17,x18,x2	 x18:0x00000000  x2:0x00000000 x17=0x00000000
       35835000	      3582	800065b8	01309013	slli	x0,x1,0x13	  x1:0x80000000
       35845000	      3583	800065bc	00f1d793	srli	x15,x3,0xf	  x3:0x80009fc3 x15=0x00010001
       35855000	      3584	800065c0	034e5863	bge	x28,x20,800065f0	 x28:0x00000000 x20:0x80000001
       35865000	      3585	00000000	00000013	addi	x0,x0,0	  x0:0x00000000
       35875000	      3586	800065ec	00000013	addi	x0,x0,0	  x0:0x00000000
       35885000	      3587	800065f0	00226b33	or	x22,x4,x2	  x4:0x00000000  x2:0x00000000 x22=0x00000000
       35895000	      3588	800065f4	41675c33	sra	x24,x14,x22	 x14:0xfffffa7b x22:0x00000000 x24=0xfffffa7b
       35905000	      3589	800065f8	0556d463	bge	x13,x21,80006640	 x13:0xef509000 x21:0x00002736
       35915000	      3590	800065fc	016badb3	slt	x27,x23,x22	 x23:0x80009ebc x22:0x00000000 x27=0x00000001
       35925000	      3591	80006600	0158ee63	bltu	x17,x21,8000661c	 x17:0x00000000 x21:0x00002736
       35935000	      3592	00000000	00000013	addi	x0,x0,0	  x0:0x00000000
       35945000	      3593	80006618	00000013	addi	x0,x0,0	  x0:0x00000000
       35955000	      3594	8000661c	686c2493	slti	x9,x24,1670	 x24:0xfffffa7b  x9=0x00000001
       35965000	      3595	80006620	03c17463	bgeu	x2,x28,80006648	  x2:0x00000000 x28:0x00000000
       35975000	      3596	00000000	00000013	addi	x0,x0,0	  x0:0x00000000
       35985000	      3597	80006644	00000013	addi	x0,x0,0	  x0:0x00000000
       35995000	      3598	80006648	0ae3c637	lui	x12,0xae3c	 x12=0x0ae3c000
       36005000	      3599	8000664c	0130e333	or	x6,x1,x19	  x1:0x80000000 x19:0x00000000  x6=0x80000000
       36015000	      3600	80006650	01322333	slt	x6,x4,x19	  x4:0x00000000 x19:0x00000000  x6=0x00000000
       36025000	      3601	80006654	00ff1263	bne	x30,x15,80006658	 x30:0x8000a5b3 x15:0x00010001
       36035000	      3602	00000000	00000013	addi	x0,x0,0	  x0:0x00000000
       36045000	      3603	80006654	00000013	addi	x0,x0,0	  x0:0x00000000
       36055000	      3604	80006658	a9526917	auipc	x18,0xa9526	 x18=0x2952c654
       36065000	      3605	8000665c	04051463	bne	x10,x0,800066a4	 x10:0x00000001  x0:0x00000000
       36075000	      3606	00000000	00000013	addi	x0,x0,0	  x0:0x00000000
       36085000	      3607	800066a0	00000013	addi	x0,x0,0	  x0:0x00000000
       36095000	      3608	800066a4	00c41a63	bne	x8,x12,800066b8	  x8:0x00000000 x12:0x0ae3c000
       36105000	      3609	00000000	00000013	addi	x0,x0,0	  x0:0x00000000
       36115000	      3610	800066b4	00000013	addi	x0,x0,0	  x0:0x00000000
       36125000	      3611	800066b8	4efe2213	slti	x4,x28,1263	 x28:0x00000000  x4=0x00000001
       36135000	      3612	800066bc	75c00d93	addi	x27,x0,1884	  x0:0x00000000 x27=0x0000075c
       36145000	      3613	800066c0	0145a4b3	slt	x9,x11,x20	 x11:0x80009fc4 x20:0x80000001  x9=0x00000000
       36155000	      3614	800066c4	9bfd6213	ori	x4,x26,-1601	 x26:0x00000224  x4=0xfffffbbf
       36165000	      3615	800066c8	e2c7a293	slti	x5,x15,-468	 x15:0x00010001  x5=0x00000000
       36175000	      3616	800066cc	008857b3	srl	x15,x16,x8	 x16:0x80009fc4  x8:0x00000000 x15=0x80009fc4
       36185000	      3617	800066d0	014274b3	and	x9,x4,x20	  x4:0xfffffbbf x20:0x80000001  x9=0x80000001
       36195000	      3618	800066d4	0f81c213	xori	x4,x3,248	  x3:0x80009fc3  x4=0x80009f3b
       36205000	      3619	800066d8	776c6193	ori	x3,x24,1910	 x24:0xfffffa7b  x3=0xffffff7f
       36215000	      3620	800066dc	019523b3	slt	x7,x10,x25	 x10:0x00000001 x25:0x00000000  x7=0x00000000
       36225000	      3621	800066e0	008d9a33	sll	x20,x27,x8	 x27:0x0000075c  x8:0x00000000 x20=0x0000075c
       36235000	      3622	800066e4	71606f93	ori	x31,x0,1814	  x0:0x00000000 x31=0x00000716
       36245000	      3623	800066e8	01750133	add	x2,x10,x23	 x10:0x00000001 x23:0x80009ebc  x2=0x80009ebd
       36255000	      3624	800066ec	41a48933	sub	x18,x9,x26	  x9:0x80000001 x26:0x00000224 x18=0x7ffffddd
       36265000	      3625	800066f0	01eec8b3	xor	x17,x29,x30	 x29:0xfffff904 x30:0x8000a5b3 x17=0x7fff5cb7
       36275000	      3626	800066f4	0138d613	srli	x12,x17,0x13	 x17:0x7fff5cb7 x12=0x00000fff
       36285000	      3627	800066f8	00b75a13	srli	x20,x14,0xb	 x14:0xfffffa7b x20=0x001fffff
       36295000	      3628	800066fc	71fc8993	addi	x19,x25,1823	 x25:0x00000000 x19=0x0000071f
       36305000	      3629	80006700	a390f793	andi	x15,x1,-1479	  x1:0x80000000 x15=0x80000000
       36315000	      3630	80006704	01bb9613	slli	x12,x23,0x1b	 x23:0x80009ebc x12=0xe0000000
       36325000	      3631	80006708	d675c493	xori	x9,x11,-665	 x11:0x80009fc4  x9=0x7fff62a3
       36335000	      3632	8000670c	e6564293	xori	x5,x12,-411	 x12:0xe0000000  x5=0x1ffffe65
       36345000	      3633	80006710	409ad513	srai	x10,x21,0x9	 x21:0x00002736 x10=0x00000013
       36355000	      3634	80006714	018d3e33	sltu	x28,x26,x24	 x26:0x00000224 x24:0xfffffa7b x28=0x00000001
       36365000	      3635	80006718	008f2133	slt	x2,x30,x8	 x30:0x8000a5b3  x8:0x00000000  x2=0x00000001
       36375000	      3636	8000671c	04cc6463	bltu	x24,x12,80006764	 x24:0xfffffa7b x12:0xe0000000
       36385000	      3637	80006720	6d334493	xori	x9,x6,1747	  x6:0x00000000  x9=0x000006d3
       36395000	      3638	80006724	01f26333	or	x6,x4,x31	  x4:0x80009f3b x31:0x00000716  x6=0x80009f3f
       36405000	      3639	80006728	0309fe63	bgeu	x19,x16,80006764	 x19:0x0000071f x16:0x80009fc4
       36415000	      3640	8000672c	d704bc93	sltiu	x25,x9,-656	  x9:0x000006d3 x25=0x00000001
       36425000	      3641	80006730	40a15c33	sra	x24,x2,x10	  x2:0x00000001 x10:0x00000013 x24=0x00000000
       36435000	      3642	80006734	0126dd13	srli	x26,x13,0x12	 x13:0xef509000 x26=0x00003bd4
       36445000	      3643	80006738	01119e63	bne	x3,x17,80006754	  x3:0xffffff7f x17:0x7fff5cb7
       36455000	      3644	00000000	00000013	addi	x0,x0,0	  x0:0x00000000
       36465000	      3645	80006750	00000013	addi	x0,x0,0	  x0:0x00000000
       36475000	      3646	80006754	fa5ca897	auipc	x17,0xfa5ca	 x17=0x7a5d0750
       36485000	      3647	80006758	0197b733	sltu	x14,x15,x25	 x15:0x80000000 x25:0x00000001 x14=0x00000000
       36495000	      3648	8000675c	0149c663	blt	x19,x20,80006768	 x19:0x0000071f x20:0x001fffff
       36505000	      3649	00000000	00000013	addi	x0,x0,0	  x0:0x00000000
       36515000	      3650	80006764	00000013	addi	x0,x0,0	  x0:0x00000000
       36525000	      3651	80006768	d1807793	andi	x15,x0,-744	  x0:0x00000000 x15=0x00000000
       36535000	      3652	8000676c	00c01333	sll	x6,x0,x12	  x0:0x00000000 x12:0xe0000000  x6=0x00000000
       36545000	      3653	80006770	05ea1263	bne	x20,x30,800067b4	 x20:0x001fffff x30:0x8000a5b3
       36555000	      3654	00000000	00000013	addi	x0,x0,0	  x0:0x00000000
       36565000	      3655	800067b0	00000013	addi	x0,x0,0	  x0:0x00000000
       36575000	      3656	800067b4	01559493	slli	x9,x11,0x15	 x11:0x80009fc4  x9=0xf8800000
       36585000	      3657	800067b8	01a88463	beq	x17,x26,800067c0	 x17:0x7a5d0750 x26:0x00003bd4
       36595000	      3658	800067bc	011a9d13	slli	x26,x21,0x11	 x21:0x00002736 x26=0x4e6c0000
       36605000	      3659	800067c0	008a9933	sll	x18,x21,x8	 x21:0x00002736  x8:0x00000000 x18=0x00002736
       36615000	      3660	800067c4	01bec463	blt	x29,x27,800067cc	 x29:0xfffff904 x27:0x0000075c
       36625000	      3661	00000000	00000013	addi	x0,x0,0	  x0:0x00000000
       36635000	      3662	800067c8	00000013	addi	x0,x0,0	  x0:0x00000000
       36645000	      3663	800067cc	00000013	addi	x0,x0,0	  x0:0x00000000
       36655000	      3664	800067d0	6ba8e413	ori	x8,x17,1722	 x17:0x7a5d0750  x8=0x7a5d07fa
       36665000	      3665	800067d4	00332a33	slt	x20,x6,x3	  x6:0x00000000  x3:0xffffff7f x20=0x00000000
       36675000	      3666	800067d8	05f3c863	blt	x7,x31,80006828	  x7:0x00000000 x31:0x00000716
       36685000	      3667	00000000	00000013	addi	x0,x0,0	  x0:0x00000000
       36695000	      3668	80006824	00000013	addi	x0,x0,0	  x0:0x00000000
       36705000	      3669	80006828	04a0e263	bltu	x1,x10,8000686c	  x1:0x80000000 x10:0x00000013
       36715000	      3670	8000682c	00d2d3b3	srl	x7,x5,x13	  x5:0x1ffffe65 x13:0xef509000  x7=0x1ffffe65
       36725000	      3671	80006830	00000013	addi	x0,x0,0	  x0:0x00000000
       36735000	      3672	80006834	03c07463	bgeu	x0,x28,8000685c	  x0:0x00000000 x28:0x00000001
       36745000	      3673	80006838	00fe1113	slli	x2,x28,0xf	 x28:0x00000001  x2=0x00008000
       36755000	      3674	8000683c	40d25e93	srai	x29,x4,0xd	  x4:0x80009f3b x29=0xfffc0004
       36765000	      3675	80006840	00d78fb3	add	x31,x15,x13	 x15:0x00000000 x13:0xef509000 x31=0xef509000
       36775000	      3676	80006844	02105063	bge	x0,x1,80006864	  x0:0x00000000  x1:0x80000000
       36785000	      3677	00000000	00000013	addi	x0,x0,0	  x0:0x00000000
       36795000	      3678	80006860	00000013	addi	x0,x0,0	  x0:0x00000000
       36805000	      3679	80006864	00845c93	srli	x25,x8,0x8	  x8:0x7a5d07fa x25=0x007a5d07
       36815000	      3680	80006868	e39b8613	addi	x12,x23,-455	 x23:0x80009ebc x12=0x80009cf5
       36825000	      3681	8000686c	011f6433	or	x8,x30,x17	 x30:0x8000a5b3 x17:0x7a5d0750  x8=0xfa5da7f3
       36835000	      3682	80006870	05f4f263	bgeu	x9,x31,800068b4	  x9:0xf8800000 x31:0xef509000
       36845000	      3683	00000000	00000013	addi	x0,x0,0	  x0:0x00000000
       36855000	      3684	800068b0	00000013	addi	x0,x0,0	  x0:0x00000000
       36865000	      3685	800068b4	02f31a63	bne	x6,x15,800068e8	  x6:0x00000000 x15:0x00000000
       36875000	      3686	800068b8	41d15a13	srai	x20,x2,0x1d	  x2:0x00008000 x20=0x00000000
       36885000	      3687	800068bc	00000013	addi	x0,x0,0	  x0:0x00000000
       36895000	      3688	800068c0	0430f463	bgeu	x1,x3,80006908	  x1:0x80000000  x3:0xffffff7f
       36905000	      3689	800068c4	403bddb3	sra	x27,x23,x3	 x23:0x80009ebc  x3:0xffffff7f x27=0xffffffff
       36915000	      3690	800068c8	d4b10f93	addi	x31,x2,-693	  x2:0x00008000 x31=0x00007d4b
       36925000	      3691	800068cc	630785b7	lui	x11,0x63078	 x11=0x63078000
       36935000	      3692	800068d0	fbef3197	auipc	x3,0xfbef3	  x3=0x7bef98cc
       36945000	      3693	800068d4	a5fc0d93	addi	x27,x24,-1441	 x24:0x00000000 x27=0xfffffa5f
       36955000	      3694	800068d8	f9114593	xori	x11,x2,-111	  x2:0x00008000 x11=0xffff7f91
       36965000	      3695	800068dc	01c01db3	sll	x27,x0,x28	  x0:0x00000000 x28:0x00000001 x27=0x00000000
       36975000	      3696	800068e0	005a65b3	or	x11,x20,x5	 x20:0x00000000  x5:0x1ffffe65 x11=0x1ffffe65
       36985000	      3697	800068e4	40e7d893	srai	x17,x15,0xe	 x15:0x00000000 x17=0x00000000
       36995000	      3698	800068e8	00000013	addi	x0,x0,0	  x0:0x00000000
       37005000	      3699	800068ec	00619663	bne	x3,x6,800068f8	  x3:0x7bef98cc  x6:0x00000000
       37015000	      3700	00000000	00000013	addi	x0,x0,0	  x0:0x00000000
       37025000	      3701	800068f4	00000013	addi	x0,x0,0	  x0:0x00000000
       37035000	      3702	800068f8	00000013	addi	x0,x0,0	  x0:0x00000000
       37045000	      3703	800068fc	00000013	addi	x0,x0,0	  x0:0x00000000
       37055000	      3704	80006900	009f9013	slli	x0,x31,0x9	 x31:0x00007d4b
       37065000	      3705	80006904	00dc2933	slt	x18,x24,x13	 x24:0x00000000 x13:0xef509000 x18=0x00000000
       37075000	      3706	80006908	3f0aa913	slti	x18,x21,1008	 x21:0x00002736 x18=0x00000000
       37085000	      3707	8000690c	41b705b3	sub	x11,x14,x27	 x14:0x00000000 x27:0x00000000 x11=0x00000000
       37095000	      3708	80006910	00f1e733	or	x14,x3,x15	  x3:0x7bef98cc x15:0x00000000 x14=0x7bef98cc
       37105000	      3709	80006914	009d6933	or	x18,x26,x9	 x26:0x4e6c0000  x9:0xf8800000 x18=0xfeec0000
       37115000	      3710	80006918	9fc92913	slti	x18,x18,-1540	 x18:0xfeec0000 x18=0x00000001
       37125000	      3711	8000691c	009dfeb3	and	x29,x27,x9	 x27:0x00000000  x9:0xf8800000 x29=0x00000000
       37135000	      3712	80006920	400cd193	srai	x3,x25,0x0	 x25:0x007a5d07  x3=0x007a5d07
       37145000	      3713	80006924	405b87b3	sub	x15,x23,x5	 x23:0x80009ebc  x5:0x1ffffe65 x15=0x6000a057
       37155000	      3714	80006928	014a1433	sll	x8,x20,x20	 x20:0x00000000 x20:0x00000000  x8=0x00000000
       37165000	      3715	8000692c	014f1fb3	sll	x31,x30,x20	 x30:0x8000a5b3 x20:0x00000000 x31=0x8000a5b3
       37175000	      3716	80006930	008aee63	bltu	x21,x8,8000694c	 x21:0x00002736  x8:0x00000000
       37185000	      3717	80006934	2230c713	xori	x14,x1,547	  x1:0x80000000 x14=0x80000223
       37195000	      3718	80006938	eb38a593	slti	x11,x17,-333	 x17:0x00000000 x11=0x00000000
       37205000	      3719	8000693c	00dfedb3	or	x27,x31,x13	 x31:0x8000a5b3 x13:0xef509000 x27=0xef50b5b3
       37215000	      3720	80006940	40c8d913	srai	x18,x17,0xc	 x17:0x00000000 x18=0x00000000
       37225000	      3721	80006944	e6510993	addi	x19,x2,-411	  x2:0x00008000 x19=0x00007e65
       37235000	      3722	80006948	007812b3	sll	x5,x16,x7	 x16:0x80009fc4  x7:0x1ffffe65  x5=0x0013f880
       37245000	      3723	8000694c	6641e593	ori	x11,x3,1636	  x3:0x007a5d07 x11=0x007a5f67
       37255000	      3724	80006950	408908b3	sub	x17,x18,x8	 x18:0x00000000  x8:0x00000000 x17=0x00000000
       37265000	      3725	80006954	858cb6b7	lui	x13,0x858cb	 x13=0x858cb000
       37275000	      3726	80006958	f6cb3d17	auipc	x26,0xf6cb3	 x26=0x76cb9954
       37285000	      3727	8000695c	0830cd13	xori	x26,x1,131	  x1:0x80000000 x26=0x80000083
       37295000	      3728	80006960	40e359b3	sra	x19,x6,x14	  x6:0x00000000 x14:0x80000223 x19=0x00000000
       37305000	      3729	80006964	2ef10293	addi	x5,x2,751	  x2:0x00008000  x5=0x000082ef
       37315000	      3730	80006968	bde8e593	ori	x11,x17,-1058	 x17:0x00000000 x11=0xfffffbde
       37325000	      3731	8000696c	01d91193	slli	x3,x18,0x1d	 x18:0x00000000  x3=0x00000000
       37335000	      3732	80006970	00058633	add	x12,x11,x0	 x11:0xfffffbde  x0:0x00000000 x12=0xfffffbde
       37345000	      3733	80006974	01ff1293	slli	x5,x30,0x1f	 x30:0x8000a5b3  x5=0x80000000
       37355000	      3734	80006978	4031d593	srai	x11,x3,0x3	  x3:0x00000000 x11=0x00000000
       37365000	      3735	8000697c	62690a93	addi	x21,x18,1574	 x18:0x00000000 x21=0x00000626
       37375000	      3736	80006980	00a3d893	srli	x17,x7,0xa	  x7:0x1ffffe65 x17=0x0007ffff
       37385000	      3737	80006984	d5648893	addi	x17,x9,-682	  x9:0xf8800000 x17=0xf87ffd56
       37395000	      3738	80006988	00e4dab3	srl	x21,x9,x14	  x9:0xf8800000 x14:0x80000223 x21=0x1f100000
       37405000	      3739	8000698c	212f2693	slti	x13,x30,530	 x30:0x8000a5b3 x13=0x00000001
       37415000	      3740	80006990	00562b33	slt	x22,x12,x5	 x12:0xfffffbde  x5:0x80000000 x22=0x00000000
       37425000	      3741	80006994	ec68eb13	ori	x22,x17,-314	 x17:0xf87ffd56 x22=0xffffffd6
       37435000	      3742	80006998	03be0463	beq	x28,x27,800069c0	 x28:0x00000001 x27:0xef50b5b3
       37445000	      3743	8000699c	add50713	addi	x14,x10,-1315	 x10:0x00000013 x14=0xfffffaf0
       37455000	      3744	800069a0	02b6f663	bgeu	x13,x11,800069cc	 x13:0x00000001 x11:0x00000000
       37465000	      3745	00000000	00000013	addi	x0,x0,0	  x0:0x00000000
       37475000	      3746	800069c8	00000013	addi	x0,x0,0	  x0:0x00000000
       37485000	      3747	800069cc	0a9d3f13	sltiu	x30,x26,169	 x26:0x80000083 x30=0x00000000
       37495000	      3748	800069d0	004ba303	lw	x6,4(x23)	 x23:0x80009ebc  x6=0x80000d38 PA:0x80009ec0
       37505000	      3749	800069d4	02cb8b93	addi	x23,x23,44	 x23:0x80009ebc x23=0x80009ee8
       37515000	      3750	800069d8	0090e133	or	x2,x1,x9	  x1:0x80000000  x9:0xf8800000  x2=0xf8800000
       37525000	      3751	800069dc	f30e6037	lui	x0,0xf30e6	
       37535000	      3752	800069e0	d474f593	andi	x11,x9,-697	  x9:0xf8800000 x11=0xf8800000
       37545000	      3753	800069e4	00130d93	addi	x27,x6,1	  x6:0x80000d38 x27=0x80000d39
       37555000	      3754	800069e8	000d8de7	jalr	x27,x27,0	 x27:0x80000d39 x27=0x800069e8
       37565000	      3755	00000000	00000013	addi	x0,x0,0	  x0:0x00000000
       37575000	      3756	80000d38	00000013	addi	x0,x0,0	  x0:0x00000000
       37585000	      3757	80000d3c	57eaf013	andi	x0,x21,1406	 x21:0x1f100000
       37595000	      3758	80000d40	01305533	srl	x10,x0,x19	  x0:0x00000000 x19:0x00000000 x10=0x00000000
       37605000	      3759	80000d44	0053cab3	xor	x21,x7,x5	  x7:0x1ffffe65  x5:0x80000000 x21=0x9ffffe65
       37615000	      3760	80000d48	01524eb3	xor	x29,x4,x21	  x4:0x80009f3b x21:0x9ffffe65 x29=0x1fff615e
       37625000	      3761	80000d4c	01383633	sltu	x12,x16,x19	 x16:0x80009fc4 x19:0x00000000 x12=0x00000000
       37635000	      3762	80000d50	005b4c63	blt	x22,x5,80000d68	 x22:0xffffffd6  x5:0x80000000
       37645000	      3763	80000d54	7386fa13	andi	x20,x13,1848	 x13:0x00000001 x20=0x00000000
       37655000	      3764	80000d58	256b7393	andi	x7,x22,598	 x22:0xffffffd6  x7=0x00000256
       37665000	      3765	80000d5c	00000013	addi	x0,x0,0	  x0:0x00000000
       37675000	      3766	80000d60	64368313	addi	x6,x13,1603	 x13:0x00000001  x6=0x00000644
       37685000	      3767	80000d64	03196c63	bltu	x18,x17,80000d9c	 x18:0x00000000 x17:0xf87ffd56
       37695000	      3768	00000000	00000013	addi	x0,x0,0	  x0:0x00000000
       37705000	      3769	80000d98	00000013	addi	x0,x0,0	  x0:0x00000000
       37715000	      3770	80000d9c	40200633	sub	x12,x0,x2	  x0:0x00000000  x2:0xf8800000 x12=0x07800000
       37725000	      3771	80000da0	407b0633	sub	x12,x22,x7	 x22:0xffffffd6  x7:0x00000256 x12=0xfffffd80
       37735000	      3772	80000da4	01008eb3	add	x29,x1,x16	  x1:0x80000000 x16:0x80009fc4 x29=0x00009fc4
       37745000	      3773	80000da8	0883f037	lui	x0,0x883f	
       37755000	      3774	80000dac	0083d713	srli	x14,x7,0x8	  x7:0x00000256 x14=0x00000002
       37765000	      3775	80000db0	05bf1663	bne	x30,x27,80000dfc	 x30:0x00000000 x27:0x800069e8
       37775000	      3776	00000000	00000013	addi	x0,x0,0	  x0:0x00000000
       37785000	      3777	80000df8	00000013	addi	x0,x0,0	  x0:0x00000000
       37795000	      3778	80000dfc	01b39463	bne	x7,x27,80000e04	  x7:0x00000256 x27:0x800069e8
       37805000	      3779	00000000	00000013	addi	x0,x0,0	  x0:0x00000000
       37815000	      3780	80000e00	00000013	addi	x0,x0,0	  x0:0x00000000
       37825000	      3781	80000e04	006da7b3	slt	x15,x27,x6	 x27:0x800069e8  x6:0x00000644 x15=0x00000001
       37835000	      3782	80000e08	00000013	addi	x0,x0,0	  x0:0x00000000
       37845000	      3783	80000e0c	03e04263	blt	x0,x30,80000e30	  x0:0x00000000 x30:0x00000000
       37855000	      3784	80000e10	4a9da597	auipc	x11,0x4a9da	 x11=0xca9dae0c
       37865000	      3785	80000e14	015c7ab3	and	x21,x24,x21	 x24:0x00000000 x21:0x9ffffe65 x21=0x00000000
       37875000	      3786	80000e18	016984b3	add	x9,x19,x22	 x19:0x00000000 x22:0xffffffd6  x9=0xffffffd6
       37885000	      3787	80000e1c	0179ba33	sltu	x20,x19,x23	 x19:0x00000000 x23:0x80009ee8 x20=0x00000001
       37895000	      3788	80000e20	58029017	auipc	x0,0x58029	
       37905000	      3789	80000e24	19e62c13	slti	x24,x12,414	 x12:0xfffffd80 x24=0x00000001
       37915000	      3790	80000e28	01818a33	add	x20,x3,x24	  x3:0x00000000 x24:0x00000001 x20=0x00000001
       37925000	      3791	80000e2c	6a6be513	ori	x10,x23,1702	 x23:0x80009ee8 x10=0x80009eee
       37935000	      3792	80000e30	0435e263	bltu	x11,x3,80000e74	 x11:0xca9dae0c  x3:0x00000000
       37945000	      3793	80000e34	7b990193	addi	x3,x18,1977	 x18:0x00000000  x3=0x000007b9
       37955000	      3794	80000e38	0ad76a93	ori	x21,x14,173	 x14:0x00000002 x21=0x000000af
       37965000	      3795	80000e3c	00000013	addi	x0,x0,0	  x0:0x00000000
       37975000	      3796	80000e40	9cda2e93	slti	x29,x20,-1587	 x20:0x00000001 x29=0x00000000
       37985000	      3797	80000e44	32700393	addi	x7,x0,807	  x0:0x00000000  x7=0x00000327
       37995000	      3798	80000e48	01e11893	slli	x17,x2,0x1e	  x2:0xf8800000 x17=0x00000000
       38005000	      3799	80000e4c	03e97663	bgeu	x18,x30,80000e78	 x18:0x00000000 x30:0x00000000
       38015000	      3800	00000000	00000013	addi	x0,x0,0	  x0:0x00000000
       38025000	      3801	80000e74	00000013	addi	x0,x0,0	  x0:0x00000000
       38035000	      3802	80000e78	40325b13	srai	x22,x4,0x3	  x4:0x80009f3b x22=0xf00013e7
       38045000	      3803	80000e7c	4aea4e93	xori	x29,x20,1198	 x20:0x00000001 x29=0x000004af
       38055000	      3804	80000e80	bb07aa93	slti	x21,x15,-1104	 x15:0x00000001 x21=0x00000000
       38065000	      3805	80000e84	c02d2e93	slti	x29,x26,-1022	 x26:0x80000083 x29=0x00000001
       38075000	      3806	80000e88	488c0d13	addi	x26,x24,1160	 x24:0x00000001 x26=0x00000489
       38085000	      3807	80000e8c	00e04533	xor	x10,x0,x14	  x0:0x00000000 x14:0x00000002 x10=0x00000002
       38095000	      3808	80000e90	032c6c63	bltu	x24,x18,80000ec8	 x24:0x00000001 x18:0x00000000
       38105000	      3809	80000e94	06fa8a13	addi	x20,x21,111	 x21:0x00000000 x20=0x0000006f
       38115000	      3810	80000e98	01fddab3	srl	x21,x27,x31	 x27:0x800069e8 x31:0x8000a5b3 x21=0x00001000
       38125000	      3811	80000e9c	fad77893	andi	x17,x14,-83	 x14:0x00000002 x17=0x00000000
       38135000	      3812	80000ea0	401a5593	srai	x11,x20,0x1	 x20:0x0000006f x11=0x00000037
       38145000	      3813	80000ea4	01810b33	add	x22,x2,x24	  x2:0xf8800000 x24:0x00000001 x22=0xf8800001
       38155000	      3814	80000ea8	1a2f3993	sltiu	x19,x30,418	 x30:0x00000000 x19=0x00000001
       38165000	      3815	80000eac	00394c33	xor	x24,x18,x3	 x18:0x00000000  x3:0x000007b9 x24=0x000007b9
       38175000	      3816	80000eb0	00af0033	add	x0,x30,x10	 x30:0x00000000 x10:0x00000002
       38185000	      3817	80000eb4	00000013	addi	x0,x0,0	  x0:0x00000000
       38195000	      3818	80000eb8	30dce593	ori	x11,x25,781	 x25:0x007a5d07 x11=0x007a5f0f
       38205000	      3819	80000ebc	412587b3	sub	x15,x11,x18	 x11:0x007a5f0f x18:0x00000000 x15=0x007a5f0f
       38215000	      3820	80000ec0	01e5ce33	xor	x28,x11,x30	 x11:0x007a5f0f x30:0x00000000 x28=0x007a5f0f
       38225000	      3821	80000ec4	d9ec0113	addi	x2,x24,-610	 x24:0x000007b9  x2=0x00000557
       38235000	      3822	80000ec8	0e3eae13	slti	x28,x29,227	 x29:0x00000001 x28=0x00000001
       38245000	      3823	80000ecc	947f2437	lui	x8,0x947f2	  x8=0x947f2000
       38255000	      3824	80000ed0	02997463	bgeu	x18,x9,80000ef8	 x18:0x00000000  x9:0xffffffd6
       38265000	      3825	80000ed4	01d69d93	slli	x27,x13,0x1d	 x13:0x00000001 x27=0x20000000
       38275000	      3826	80000ed8	41685613	srai	x12,x16,0x16	 x16:0x80009fc4 x12=0xfffffe00
       38285000	      3827	80000edc	019505b3	add	x11,x10,x25	 x10:0x00000002 x25:0x007a5d07 x11=0x007a5d09
       38295000	      3828	80000ee0	015c2ab3	slt	x21,x24,x21	 x24:0x000007b9 x21:0x00001000 x21=0x00000001
       38305000	      3829	80000ee4	00eb4533	xor	x10,x22,x14	 x22:0xf8800001 x14:0x00000002 x10=0xf8800003
       38315000	      3830	80000ee8	05389663	bne	x17,x19,80000f34	 x17:0x00000000 x19:0x00000001
       38325000	      3831	00000000	00000013	addi	x0,x0,0	  x0:0x00000000
       38335000	      3832	80000f30	00000013	addi	x0,x0,0	  x0:0x00000000
       38345000	      3833	80000f34	02bb4c63	blt	x22,x11,80000f6c	 x22:0xf8800001 x11:0x007a5d09
       38355000	      3834	00000000	00000013	addi	x0,x0,0	  x0:0x00000000
       38365000	      3835	80000f68	00000013	addi	x0,x0,0	  x0:0x00000000
       38375000	      3836	80000f6c	0278f463	bgeu	x17,x7,80000f94	 x17:0x00000000  x7:0x00000327
       38385000	      3837	80000f70	00ac8263	beq	x25,x10,80000f74	 x25:0x007a5d07 x10:0xf8800003
       38395000	      3838	80000f74	7834dd97	auipc	x27,0x7834d	 x27=0xf834df70
       38405000	      3839	80000f78	00823233	sltu	x4,x4,x8	  x4:0x80009f3b  x8:0x947f2000  x4=0x00000001
       38415000	      3840	80000f7c	4100d4b3	sra	x9,x1,x16	  x1:0x80000000 x16:0x80009fc4  x9=0xf8000000
       38425000	      3841	80000f80	00000013	addi	x0,x0,0	  x0:0x00000000
       38435000	      3842	80000f84	e2747ab7	lui	x21,0xe2747	 x21=0xe2747000
       38445000	      3843	80000f88	01a404b3	add	x9,x8,x26	  x8:0x947f2000 x26:0x00000489  x9=0x947f2489
       38455000	      3844	80000f8c	00000013	addi	x0,x0,0	  x0:0x00000000
       38465000	      3845	80000f90	0178e463	bltu	x17,x23,80000f98	 x17:0x00000000 x23:0x80009ee8
       38475000	      3846	00000000	00000013	addi	x0,x0,0	  x0:0x00000000
       38485000	      3847	80000f94	00000013	addi	x0,x0,0	  x0:0x00000000
       38495000	      3848	80000f98	026e4463	blt	x28,x6,80000fc0	 x28:0x00000001  x6:0x00000644
       38505000	      3849	00000000	00000013	addi	x0,x0,0	  x0:0x00000000
       38515000	      3850	80000fbc	00000013	addi	x0,x0,0	  x0:0x00000000
       38525000	      3851	80000fc0	0074f233	and	x4,x9,x7	  x9:0x947f2489  x7:0x00000327  x4=0x00000001
       38535000	      3852	80000fc4	01027c33	and	x24,x4,x16	  x4:0x00000001 x16:0x80009fc4 x24=0x00000000
       38545000	      3853	80000fc8	cb47b493	sltiu	x9,x15,-844	 x15:0x007a5f0f  x9=0x00000001
       38555000	      3854	80000fcc	d2698037	lui	x0,0xd2698	
       38565000	      3855	80000fd0	00267ab3	and	x21,x12,x2	 x12:0xfffffe00  x2:0x00000557 x21=0x00000400
       38575000	      3856	80000fd4	910c7193	andi	x3,x24,-1776	 x24:0x00000000  x3=0x00000000
       38585000	      3857	80000fd8	00be9313	slli	x6,x29,0xb	 x29:0x00000001  x6=0x00000800
       38595000	      3858	80000fdc	00eeacb3	slt	x25,x29,x14	 x29:0x00000001 x14:0x00000002 x25=0x00000001
       38605000	      3859	80000fe0	2fa302b7	lui	x5,0x2fa30	  x5=0x2fa30000
       38615000	      3860	80000fe4	01ab1e33	sll	x28,x22,x26	 x22:0xf8800001 x26:0x00000489 x28=0x00000200
       38625000	      3861	80000fe8	66400a37	lui	x20,0x66400	 x20=0x66400000
       38635000	      3862	80000fec	00948433	add	x8,x9,x9	  x9:0x00000001  x9:0x00000001  x8=0x00000002
       38645000	      3863	80000ff0	6f7a6e93	ori	x29,x20,1783	 x20:0x66400000 x29=0x664006f7
       38655000	      3864	80000ff4	db16b193	sltiu	x3,x13,-591	 x13:0x00000001  x3=0x00000001
       38665000	      3865	80000ff8	00981633	sll	x12,x16,x9	 x16:0x80009fc4  x9:0x00000001 x12=0x00013f88
       38675000	      3866	80000ffc	417006b3	sub	x13,x0,x23	  x0:0x00000000 x23:0x80009ee8 x13=0x7fff6118
       38685000	      3867	80001000	d7ae6b37	lui	x22,0xd7ae6	 x22=0xd7ae6000
       38695000	      3868	80001004	083dc517	auipc	x10,0x83dc	 x10=0x883dd000
       38705000	      3869	80001008	0073c233	xor	x4,x7,x7	  x7:0x00000327  x7:0x00000327  x4=0x00000000
       38715000	      3870	8000100c	013e7d33	and	x26,x28,x19	 x28:0x00000200 x19:0x00000001 x26=0x00000000
       38725000	      3871	80001010	0496c463	blt	x13,x9,80001058	 x13:0x7fff6118  x9:0x00000001
       38735000	      3872	80001014	001143b3	xor	x7,x2,x1	  x2:0x00000557  x1:0x80000000  x7=0x80000557
       38745000	      3873	80001018	ca0a3493	sltiu	x9,x20,-864	 x20:0x66400000  x9=0x00000001
       38755000	      3874	8000101c	00f00463	beq	x0,x15,80001024	  x0:0x00000000 x15:0x007a5f0f
       38765000	      3875	80001020	004266b3	or	x13,x4,x4	  x4:0x00000000  x4:0x00000000 x13=0x00000000
       38775000	      3876	80001024	0570e263	bltu	x1,x23,80001068	  x1:0x80000000 x23:0x80009ee8
       38785000	      3877	00000000	00000013	addi	x0,x0,0	  x0:0x00000000
       38795000	      3878	80001064	00000013	addi	x0,x0,0	  x0:0x00000000
       38805000	      3879	80001068	00249a63	bne	x9,x2,8000107c	  x9:0x00000001  x2:0x00000557
       38815000	      3880	00000000	00000013	addi	x0,x0,0	  x0:0x00000000
       38825000	      3881	80001078	00000013	addi	x0,x0,0	  x0:0x00000000
       38835000	      3882	8000107c	65f52c93	slti	x25,x10,1631	 x10:0x883dd000 x25=0x00000001
       38845000	      3883	80001080	f9ff6193	ori	x3,x30,-97	 x30:0x00000000  x3=0xffffff9f
       38855000	      3884	80001084	012d1663	bne	x26,x18,80001090	 x26:0x00000000 x18:0x00000000
       38865000	      3885	80001088	00b1ce33	xor	x28,x3,x11	  x3:0xffffff9f x11:0x007a5d09 x28=0xff85a296
       38875000	      3886	8000108c	00ac4a33	xor	x20,x24,x10	 x24:0x00000000 x10:0x883dd000 x20=0x883dd000
       38885000	      3887	80001090	bb39ea93	ori	x21,x19,-1101	 x19:0x00000001 x21=0xfffffbb3
       38895000	      3888	80001094	016428b3	slt	x17,x8,x22	  x8:0x00000002 x22:0xd7ae6000 x17=0x00000000
       38905000	      3889	80001098	01487e63	bgeu	x16,x20,800010b4	 x16:0x80009fc4 x20:0x883dd000
       38915000	      3890	8000109c	00ec0333	add	x6,x24,x14	 x24:0x00000000 x14:0x00000002  x6=0x00000002
       38925000	      3891	800010a0	040bf263	bgeu	x23,x0,800010e4	 x23:0x80009ee8  x0:0x00000000
       38935000	      3892	00000000	00000013	addi	x0,x0,0	  x0:0x00000000
       38945000	      3893	800010e0	00000013	addi	x0,x0,0	  x0:0x00000000
       38955000	      3894	800010e4	00111893	slli	x17,x2,0x1	  x2:0x00000557 x17=0x00000aae
       38965000	      3895	800010e8	00a10a33	add	x20,x2,x10	  x2:0x00000557 x10:0x883dd000 x20=0x883dd557
       38975000	      3896	800010ec	00857cb3	and	x25,x10,x8	 x10:0x883dd000  x8:0x00000002 x25=0x00000000
       38985000	      3897	800010f0	a1c7a913	slti	x18,x15,-1508	 x15:0x007a5f0f x18=0x00000000
       38995000	      3898	800010f4	01b94c63	blt	x18,x27,8000110c	 x18:0x00000000 x27:0xf834df70
       39005000	      3899	800010f8	85ee6693	ori	x13,x28,-1954	 x28:0xff85a296 x13=0xfffffade
       39015000	      3900	800010fc	0168d5b3	srl	x11,x17,x22	 x17:0x00000aae x22:0xd7ae6000 x11=0x00000aae
       39025000	      3901	80001100	41f15433	sra	x8,x2,x31	  x2:0x00000557 x31:0x8000a5b3  x8=0x00000000
       39035000	      3902	80001104	007ffcb3	and	x25,x31,x7	 x31:0x8000a5b3  x7:0x80000557 x25=0x80000513
       39045000	      3903	80001108	01fcfc33	and	x24,x25,x31	 x25:0x80000513 x31:0x8000a5b3 x24=0x80000513
       39055000	      3904	8000110c	01f98533	add	x10,x19,x31	 x19:0x00000001 x31:0x8000a5b3 x10=0x8000a5b4
       39065000	      3905	80001110	417556b3	sra	x13,x10,x23	 x10:0x8000a5b4 x23:0x80009ee8 x13=0xff8000a5
       39075000	      3906	80001114	39d5a413	slti	x8,x11,925	 x11:0x00000aae  x8=0x00000000
       39085000	      3907	80001118	7f307793	andi	x15,x0,2035	  x0:0x00000000 x15=0x00000000
       39095000	      3908	8000111c	01dfaf33	slt	x30,x31,x29	 x31:0x8000a5b3 x29:0x664006f7 x30=0x00000001
       39105000	      3909	80001120	415759b3	sra	x19,x14,x21	 x14:0x00000002 x21:0xfffffbb3 x19=0x00000000
       39115000	      3910	80001124	04aec463	blt	x29,x10,8000116c	 x29:0x664006f7 x10:0x8000a5b4
       39125000	      3911	80001128	b473c337	lui	x6,0xb473c	  x6=0xb473c000
       39135000	      3912	8000112c	919f3e13	sltiu	x28,x30,-1767	 x30:0x00000001 x28=0x00000001
       39145000	      3913	80001130	036b5263	bge	x22,x22,80001154	 x22:0xd7ae6000 x22:0xd7ae6000
       39155000	      3914	00000000	00000013	addi	x0,x0,0	  x0:0x00000000
       39165000	      3915	80001150	00000013	addi	x0,x0,0	  x0:0x00000000
       39175000	      3916	80001154	0112c5b3	xor	x11,x5,x17	  x5:0x2fa30000 x17:0x00000aae x11=0x2fa30aae
       39185000	      3917	80001158	01fb43b3	xor	x7,x22,x31	 x22:0xd7ae6000 x31:0x8000a5b3  x7=0x57aec5b3
       39195000	      3918	8000115c	01c45793	srli	x15,x8,0x1c	  x8:0x00000000 x15=0x00000000
       39205000	      3919	80001160	00000013	addi	x0,x0,0	  x0:0x00000000
       39215000	      3920	80001164	015a7233	and	x4,x20,x21	 x20:0x883dd557 x21:0xfffffbb3  x4=0x883dd113
       39225000	      3921	80001168	010558b3	srl	x17,x10,x16	 x10:0x8000a5b4 x16:0x80009fc4 x17=0x08000a5b
       39235000	      3922	8000116c	011e1993	slli	x19,x28,0x11	 x28:0x00000001 x19=0x00020000
       39245000	      3923	80001170	41e0d013	srai	x0,x1,0x1e	  x1:0x80000000
       39255000	      3924	80001174	00000013	addi	x0,x0,0	  x0:0x00000000
       39265000	      3925	80001178	011f7133	and	x2,x30,x17	 x30:0x00000001 x17:0x08000a5b  x2=0x00000001
       39275000	      3926	8000117c	2bf6c793	xori	x15,x13,703	 x13:0xff8000a5 x15=0xff80021a
       39285000	      3927	80001180	0159df93	srli	x31,x19,0x15	 x19:0x00020000 x31=0x00000000
       39295000	      3928	80001184	05d10263	beq	x2,x29,800011c8	  x2:0x00000001 x29:0x664006f7
       39305000	      3929	80001188	fea58e13	addi	x28,x11,-22	 x11:0x2fa30aae x28=0x2fa30a98
       39315000	      3930	8000118c	5c653a93	sltiu	x21,x10,1478	 x10:0x8000a5b4 x21=0x00000000
       39325000	      3931	80001190	7a4deb37	lui	x22,0x7a4de	 x22=0x7a4de000
       39335000	      3932	80001194	00723233	sltu	x4,x4,x7	  x4:0x883dd113  x7:0x57aec5b3  x4=0x00000000
       39345000	      3933	80001198	00d56c33	or	x24,x10,x13	 x10:0x8000a5b4 x13:0xff8000a5 x24=0xff80a5b5
       39355000	      3934	8000119c	4101d993	srai	x19,x3,0x10	  x3:0xffffff9f x19=0xffffffff
       39365000	      3935	800011a0	00459293	slli	x5,x11,0x4	 x11:0x2fa30aae  x5=0xfa30aae0
       39375000	      3936	800011a4	deedf397	auipc	x7,0xdeedf	  x7=0x5eee01a0
       39385000	      3937	800011a8	41d65b13	srai	x22,x12,0x1d	 x12:0x00013f88 x22=0x00000000
       39395000	      3938	800011ac	0388e463	bltu	x17,x24,800011d4	 x17:0x08000a5b x24:0xff80a5b5
       39405000	      3939	00000000	00000013	addi	x0,x0,0	  x0:0x00000000
       39415000	      3940	800011d0	00000013	addi	x0,x0,0	  x0:0x00000000
       39425000	      3941	800011d4	00c5edb3	or	x27,x11,x12	 x11:0x2fa30aae x12:0x00013f88 x27=0x2fa33fae
       39435000	      3942	800011d8	0598c663	blt	x17,x25,80001224	 x17:0x08000a5b x25:0x80000513
       39445000	      3943	800011dc	402ad613	srai	x12,x21,0x2	 x21:0x00000000 x12=0x00000000
       39455000	      3944	800011e0	08ce7113	andi	x2,x28,140	 x28:0x2fa30a98  x2=0x00000088
       39465000	      3945	800011e4	955d2f13	slti	x30,x26,-1707	 x26:0x00000000 x30=0x00000000
       39475000	      3946	800011e8	00d1e9b3	or	x19,x3,x13	  x3:0xffffff9f x13:0xff8000a5 x19=0xffffffbf
       39485000	      3947	800011ec	018d1913	slli	x18,x26,0x18	 x26:0x00000000 x18=0x00000000
       39495000	      3948	800011f0	41dc5e33	sra	x28,x24,x29	 x24:0xff80a5b5 x29:0x664006f7 x28=0xffffffff
       39505000	      3949	800011f4	6f3bc693	xori	x13,x23,1779	 x23:0x80009ee8 x13=0x8000981b
       39515000	      3950	800011f8	709d6d13	ori	x26,x26,1801	 x26:0x00000000 x26=0x00000709
       39525000	      3951	800011fc	24b44593	xori	x11,x8,587	  x8:0x00000000 x11=0x0000024b
       39535000	      3952	80001200	00e1fdb3	and	x27,x3,x14	  x3:0xffffff9f x14:0x00000002 x27=0x00000002
       39545000	      3953	80001204	02559663	bne	x11,x5,80001230	 x11:0x0000024b  x5:0xfa30aae0
       39555000	      3954	00000000	00000013	addi	x0,x0,0	  x0:0x00000000
       39565000	      3955	8000122c	00000013	addi	x0,x0,0	  x0:0x00000000
       39575000	      3956	80001230	012b6b33	or	x22,x22,x18	 x22:0x00000000 x18:0x00000000 x22=0x00000000
       39585000	      3957	80001234	8a4ac693	xori	x13,x21,-1884	 x21:0x00000000 x13=0xfffff8a4
       39595000	      3958	80001238	0169ddb3	srl	x27,x19,x22	 x19:0xffffffbf x22:0x00000000 x27=0xffffffbf
       39605000	      3959	8000123c	d5dded13	ori	x26,x27,-675	 x27:0xffffffbf x26=0xffffffff
       39615000	      3960	80001240	193af613	andi	x12,x21,403	 x21:0x00000000 x12=0x00000000
       39625000	      3961	80001244	01a3ccb3	xor	x25,x7,x26	  x7:0x5eee01a0 x26:0xffffffff x25=0xa111fe5f
       39635000	      3962	80001248	03f77c63	bgeu	x14,x31,80001280	 x14:0x00000002 x31:0x00000000
       39645000	      3963	00000000	00000013	addi	x0,x0,0	  x0:0x00000000
       39655000	      3964	8000127c	00000013	addi	x0,x0,0	  x0:0x00000000
       39665000	      3965	80001280	01053433	sltu	x8,x10,x16	 x10:0x8000a5b4 x16:0x80009fc4  x8=0x00000000
       39675000	      3966	80001284	e8572513	slti	x10,x14,-379	 x14:0x00000002 x10=0x00000000
       39685000	      3967	80001288	aa883e13	sltiu	x28,x16,-1368	 x16:0x80009fc4 x28=0x00000001
       39695000	      3968	8000128c	0cd4f513	andi	x10,x9,205	  x9:0x00000001 x10=0x00000001
       39705000	      3969	80001290	0052e663	bltu	x5,x5,8000129c	  x5:0xfa30aae0  x5:0xfa30aae0
       39715000	      3970	80001294	000f1633	sll	x12,x30,x0	 x30:0x00000000  x0:0x00000000 x12=0x00000000
       39725000	      3971	80001298	96061c37	lui	x24,0x96061	 x24=0x96061000
       39735000	      3972	8000129c	52d90913	addi	x18,x18,1325	 x18:0x00000000 x18=0x0000052d
       39745000	      3973	800012a0	01a3c933	xor	x18,x7,x26	  x7:0x5eee01a0 x26:0xffffffff x18=0xa111fe5f
       39755000	      3974	800012a4	0078a533	slt	x10,x17,x7	 x17:0x08000a5b  x7:0x5eee01a0 x10=0x00000001
       39765000	      3975	800012a8	017f1a93	slli	x21,x30,0x17	 x30:0x00000000 x21=0x00000000
       39775000	      3976	800012ac	00000013	addi	x0,x0,0	  x0:0x00000000
       39785000	      3977	800012b0	4135dcb3	sra	x25,x11,x19	 x11:0x0000024b x19:0xffffffbf x25=0x00000000
       39795000	      3978	800012b4	c2936e93	ori	x29,x6,-983	  x6:0xb473c000 x29=0xfffffc29
       39805000	      3979	800012b8	03c0dc63	bge	x1,x28,800012f0	  x1:0x80000000 x28:0x00000001
       39815000	      3980	800012bc	03c45463	bge	x8,x28,800012e4	  x8:0x00000000 x28:0x00000001
       39825000	      3981	800012c0	00a41713	slli	x14,x8,0xa	  x8:0x00000000 x14=0x00000000
       39835000	      3982	800012c4	4ab7ed93	ori	x27,x15,1195	 x15:0xff80021a x27=0xff8006bb
       39845000	      3983	800012c8	0149f6b3	and	x13,x19,x20	 x19:0xffffffbf x20:0x883dd557 x13=0x883dd517
       39855000	      3984	800012cc	879788b7	lui	x17,0x87978	 x17=0x87978000
       39865000	      3985	800012d0	41835913	srai	x18,x6,0x18	  x6:0xb473c000 x18=0xffffffb4
       39875000	      3986	800012d4	9b2deb17	auipc	x22,0x9b2de	 x22=0x1b2df2d0
       39885000	      3987	800012d8	4047d993	srai	x19,x15,0x4	 x15:0xff80021a x19=0xfff80021
       39895000	      3988	800012dc	0525e263	bltu	x11,x18,80001320	 x11:0x0000024b x18:0xffffffb4
       39905000	      3989	00000000	00000013	addi	x0,x0,0	  x0:0x00000000
       39915000	      3990	8000131c	00000013	addi	x0,x0,0	  x0:0x00000000
       39925000	      3991	80001320	01f872b3	and	x5,x16,x31	 x16:0x80009fc4 x31:0x00000000  x5=0x00000000
       39935000	      3992	80001324	dc847c13	andi	x24,x8,-568	  x8:0x00000000 x24=0x00000000
       39945000	      3993	80001328	005bc533	xor	x10,x23,x5	 x23:0x80009ee8  x5:0x00000000 x10=0x80009ee8
       39955000	      3994	8000132c	6d0b4b17	auipc	x22,0x6d0b4	 x22=0xed0b5328
       39965000	      3995	80001330	401a0ab3	sub	x21,x20,x1	 x20:0x883dd557  x1:0x80000000 x21=0x083dd557
       39975000	      3996	80001334	049cf663	bgeu	x25,x9,80001380	 x25:0x00000000  x9:0x00000001
       39985000	      3997	80001338	4124d7b3	sra	x15,x9,x18	  x9:0x00000001 x18:0xffffffb4 x15=0x00000000
       39995000	      3998	8000133c	1d17c213	xori	x4,x15,465	 x15:0x00000000  x4=0x000001d1
       40005000	      3999	80001340	cd204793	xori	x15,x0,-814	  x0:0x00000000 x15=0xfffffcd2
       40015000	      4000	80001344	0094a633	slt	x12,x9,x9	  x9:0x00000001  x9:0x00000001 x12=0x00000000
       40025000	      4001	80001348	faae8913	addi	x18,x29,-86	 x29:0xfffffc29 x18=0xfffffbd3
       40035000	      4002	8000134c	00000013	addi	x0,x0,0	  x0:0x00000000
       40045000	      4003	80001350	003f3eb3	sltu	x29,x30,x3	 x30:0x00000000  x3:0xffffff9f x29=0x00000001
       40055000	      4004	80001354	bd4ca213	slti	x4,x25,-1068	 x25:0x00000000  x4=0x00000000
       40065000	      4005	80001358	0089d193	srli	x3,x19,0x8	 x19:0xfff80021  x3=0x00fff800
       40075000	      4006	8000135c	00965293	srli	x5,x12,0x9	 x12:0x00000000  x5=0x00000000
       40085000	      4007	80001360	6ad1c693	xori	x13,x3,1709	  x3:0x00fff800 x13=0x00fffead
       40095000	      4008	80001364	019b1463	bne	x22,x25,8000136c	 x22:0xed0b5328 x25:0x00000000
       40105000	      4009	00000000	00000013	addi	x0,x0,0	  x0:0x00000000
       40115000	      4010	80001368	00000013	addi	x0,x0,0	  x0:0x00000000
       40125000	      4011	8000136c	0107c633	xor	x12,x15,x16	 x15:0xfffffcd2 x16:0x80009fc4 x12=0x7fff6316
       40135000	      4012	80001370	01b32e33	slt	x28,x6,x27	  x6:0xb473c000 x27:0xff8006bb x28=0x00000001
       40145000	      4013	80001374	016ae233	or	x4,x21,x22	 x21:0x083dd557 x22:0xed0b5328  x4=0xed3fd77f
       40155000	      4014	80001378	010d36b3	sltu	x13,x26,x16	 x26:0xffffffff x16:0x80009fc4 x13=0x00000000
       40165000	      4015	8000137c	00ae5a93	srli	x21,x28,0xa	 x28:0x00000001 x21=0x00000000
       40175000	      4016	80001380	00000013	addi	x0,x0,0	  x0:0x00000000
       40185000	      4017	80001384	011ca433	slt	x8,x25,x17	 x25:0x00000000 x17:0x87978000  x8=0x00000000
       40195000	      4018	80001388	2e3b2513	slti	x10,x22,739	 x22:0xed0b5328 x10=0x00000001
       40205000	      4019	8000138c	d81b0113	addi	x2,x22,-639	 x22:0xed0b5328  x2=0xed0b50a9
       40215000	      4020	80001390	d8a83a13	sltiu	x20,x16,-630	 x16:0x80009fc4 x20=0x00000001
       40225000	      4021	80001394	b061b113	sltiu	x2,x3,-1274	  x3:0x00fff800  x2=0x00000001
       40235000	      4022	80001398	40d684b3	sub	x9,x13,x13	 x13:0x00000000 x13:0x00000000  x9=0x00000000
       40245000	      4023	8000139c	0deacf93	xori	x31,x21,222	 x21:0x00000000 x31=0x000000de
       40255000	      4024	800013a0	9a758c93	addi	x25,x11,-1625	 x11:0x0000024b x25=0xfffffbf2
       40265000	      4025	800013a4	41dc5013	srai	x0,x24,0x1d	 x24:0x00000000
       40275000	      4026	800013a8	0113a533	slt	x10,x7,x17	  x7:0x5eee01a0 x17:0x87978000 x10=0x00000000
       40285000	      4027	800013ac	f1d77993	andi	x19,x14,-227	 x14:0x00000000 x19=0x00000000
       40295000	      4028	800013b0	00903333	sltu	x6,x0,x9	  x0:0x00000000  x9:0x00000000  x6=0x00000000
       40305000	      4029	800013b4	8ea7e713	ori	x14,x15,-1814	 x15:0xfffffcd2 x14=0xfffffcfa
       40315000	      4030	800013b8	05968263	beq	x13,x25,800013fc	 x13:0x00000000 x25:0xfffffbf2
       40325000	      4031	800013bc	00000013	addi	x0,x0,0	  x0:0x00000000
       40335000	      4032	800013c0	c8b18993	addi	x19,x3,-885	  x3:0x00fff800 x19=0x00fff48b
       40345000	      4033	800013c4	0392ce63	blt	x5,x25,80001400	  x5:0x00000000 x25:0xfffffbf2
       40355000	      4034	800013c8	40f08933	sub	x18,x1,x15	  x1:0x80000000 x15:0xfffffcd2 x18=0x8000032e
       40365000	      4035	800013cc	00000013	addi	x0,x0,0	  x0:0x00000000
       40375000	      4036	800013d0	af7265b7	lui	x11,0xaf726	 x11=0xaf726000
       40385000	      4037	800013d4	01c5dd13	srli	x26,x11,0x1c	 x11:0xaf726000 x26=0x0000000a
       40395000	      4038	800013d8	f6d3cc93	xori	x25,x7,-147	  x7:0x5eee01a0 x25=0xa111fecd
       40405000	      4039	800013dc	00d99e13	slli	x28,x19,0xd	 x19:0x00fff48b x28=0xfe916000
       40415000	      4040	800013e0	02394263	blt	x18,x3,80001404	 x18:0x8000032e  x3:0x00fff800
       40425000	      4041	00000000	00000013	addi	x0,x0,0	  x0:0x00000000
       40435000	      4042	80001400	00000013	addi	x0,x0,0	  x0:0x00000000
       40445000	      4043	80001404	ebc5e013	ori	x0,x11,-324	 x11:0xaf726000
       40455000	      4044	80001408	7481c493	xori	x9,x3,1864	  x3:0x00fff800  x9=0x00ffff48
       40465000	      4045	8000140c	027f5263	bge	x30,x7,80001430	 x30:0x00000000  x7:0x5eee01a0
       40475000	      4046	80001410	4938bd93	sltiu	x27,x17,1171	 x17:0x87978000 x27=0x00000000
       40485000	      4047	80001414	014b37b3	sltu	x15,x22,x20	 x22:0xed0b5328 x20:0x00000001 x15=0x00000000
       40495000	      4048	80001418	40248633	sub	x12,x9,x2	  x9:0x00ffff48  x2:0x00000001 x12=0x00ffff47
       40505000	      4049	8000141c	41bcd433	sra	x8,x25,x27	 x25:0xa111fecd x27:0x00000000  x8=0xa111fecd
       40515000	      4050	80001420	01791a93	slli	x21,x18,0x17	 x18:0x8000032e x21=0x97000000
       40525000	      4051	80001424	01e36733	or	x14,x6,x30	  x6:0x00000000 x30:0x00000000 x14=0x00000000
       40535000	      4052	80001428	b1882513	slti	x10,x16,-1256	 x16:0x80009fc4 x10=0x00000001
       40545000	      4053	8000142c	41c156b3	sra	x13,x2,x28	  x2:0x00000001 x28:0xfe916000 x13=0x00000001
       40555000	      4054	80001430	f9103513	sltiu	x10,x0,-111	  x0:0x00000000 x10=0x00000001
       40565000	      4055	80001434	04806263	bltu	x0,x8,80001478	  x0:0x00000000  x8:0xa111fecd
       40575000	      4056	00000000	00000013	addi	x0,x0,0	  x0:0x00000000
       40585000	      4057	80001474	00000013	addi	x0,x0,0	  x0:0x00000000
       40595000	      4058	80001478	00e8b6b3	sltu	x13,x17,x14	 x17:0x87978000 x14:0x00000000 x13=0x00000000
       40605000	      4059	8000147c	00e67e63	bgeu	x12,x14,80001498	 x12:0x00ffff47 x14:0x00000000
       40615000	      4060	00000000	00000013	addi	x0,x0,0	  x0:0x00000000
       40625000	      4061	80001494	00000013	addi	x0,x0,0	  x0:0x00000000
       40635000	      4062	80001498	02da5c63	bge	x20,x13,800014d0	 x20:0x00000001 x13:0x00000000
       40645000	      4063	00000000	00000013	addi	x0,x0,0	  x0:0x00000000
       40655000	      4064	800014cc	00000013	addi	x0,x0,0	  x0:0x00000000
       40665000	      4065	800014d0	007d6663	bltu	x26,x7,800014dc	 x26:0x0000000a  x7:0x5eee01a0
       40675000	      4066	00000000	00000013	addi	x0,x0,0	  x0:0x00000000
       40685000	      4067	800014d8	00000013	addi	x0,x0,0	  x0:0x00000000
       40695000	      4068	800014dc	6eaf4493	xori	x9,x30,1770	 x30:0x00000000  x9=0x000006ea
       40705000	      4069	800014e0	87878a93	addi	x21,x15,-1928	 x15:0x00000000 x21=0xfffff878
       40715000	      4070	800014e4	0075ff33	and	x30,x11,x7	 x11:0xaf726000  x7:0x5eee01a0 x30=0x0e620000
       40725000	      4071	800014e8	79aa2f37	lui	x30,0x79aa2	 x30=0x79aa2000
       40735000	      4072	800014ec	01ac7fb3	and	x31,x24,x26	 x24:0x00000000 x26:0x0000000a x31=0x00000000
       40745000	      4073	800014f0	0057eb33	or	x22,x15,x5	 x15:0x00000000  x5:0x00000000 x22=0x00000000
       40755000	      4074	800014f4	41c403b3	sub	x7,x8,x28	  x8:0xa111fecd x28:0xfe916000  x7=0xa2809ecd
       40765000	      4075	800014f8	5729db37	lui	x22,0x5729d	 x22=0x5729d000
       40775000	      4076	800014fc	76c0036f	jal	x6,800014fc	  x6=0x800014fc
       40785000	      4077	00000000	00000013	addi	x0,x0,0	  x0:0x00000000
       40795000	      4078	80001c64	00000013	addi	x0,x0,0	  x0:0x00000000
       40805000	      4079	80001c68	fc0b8b93	addi	x23,x23,-64	 x23:0x80009ee8 x23=0x80009ea8
       40815000	      4080	80001c6c	01b3c3b3	xor	x7,x7,x27	  x7:0xa2809ecd x27:0x00000000  x7=0xa2809ecd
       40825000	      4081	80001c70	40b05693	srai	x13,x0,0xb	  x0:0x00000000 x13=0x00000000
       40835000	      4082	80001c74	40905f33	sra	x30,x0,x9	  x0:0x00000000  x9:0x000006ea x30=0x00000000
       40845000	      4083	80001c78	006ba223	sw	x6,4(x23)	 x23:0x80009ea8  x6:0x800014fc PA:0x80009eac
       40855000	      4084	80001c7c	01d73633	sltu	x12,x14,x29	 x14:0x00000000 x29:0x00000001 x12=0x00000001
       40865000	      4085	80001c80	1f0fa993	slti	x19,x31,496	 x31:0x00000000 x19=0x00000001
       40875000	      4086	80001c84	01198233	add	x4,x19,x17	 x19:0x00000001 x17:0x87978000  x4=0x87978001
       40885000	      4087	80001c88	00325a93	srli	x21,x4,0x3	  x4:0x87978001 x21=0x10f2f000
       40895000	      4088	80001c8c	0c3bee63	bltu	x23,x3,80001d68	 x23:0x80009ea8  x3:0x00fff800
       40905000	      4089	80001c90	00aed193	srli	x3,x29,0xa	 x29:0x00000001  x3=0x00000000
       40915000	      4090	80001c94	00007117	auipc	x2,0x7	  x2=0x80008c90
       40925000	      4091	80001c98	8b510113	addi	x2,x2,-1867	  x2:0x80008c90  x2=0x80008545
       40935000	      4092	80001c9c	04a10683	lb	x13,74(x2)	  x2:0x80008545 x13=0x00000044 PA:0x8000858f
       40945000	      4093	80001ca0	fe98e613	ori	x12,x17,-23	 x17:0x87978000 x12=0xffffffe9
       40955000	      4094	80001ca4	003121b3	slt	x3,x2,x3	  x2:0x80008545  x3:0x00000000  x3=0x00000001
       40965000	      4095	80001ca8	fc30be97	auipc	x29,0xfc30b	 x29=0x7c30cca4
       40975000	      4096	80001cac	0174e1b3	or	x3,x9,x23	  x9:0x000006ea x23:0x80009ea8  x3=0x80009eea
       40985000	      4097	80001cb0	006697b3	sll	x15,x13,x6	 x13:0x00000044  x6:0x800014fc x15=0x40000000
       40995000	      4098	80001cb4	f2510fa3	sb	x5,-193(x2)	  x2:0x80008545  x5:0x00000000 PA:0x80008484
       41005000	      4099	80001cb8	f11101a3	sb	x17,-253(x2)	  x2:0x80008545 x17:0x87978000 PA:0x80008448
       41015000	      4100	80001cbc	e68c7c97	auipc	x25,0xe68c7	 x25=0x668c8cb8
       41025000	      4101	80001cc0	3b91f893	andi	x17,x3,953	  x3:0x80009eea x17=0x000002a8
       41035000	      4102	80001cc4	41be87b3	sub	x15,x29,x27	 x29:0x7c30cca4 x27:0x00000000 x15=0x7c30cca4
       41045000	      4103	80001cc8	0b210883	lb	x17,178(x2)	  x2:0x80008545 x17=0xffffffac PA:0x800085f7
       41055000	      4104	80001ccc	01946433	or	x8,x8,x25	  x8:0xa111fecd x25:0x668c8cb8  x8=0xe79dfefd
       41065000	      4105	80001cd0	00666233	or	x4,x12,x6	 x12:0xffffffe9  x6:0x800014fc  x4=0xfffffffd
       41075000	      4106	80001cd4	f65105a3	sb	x5,-149(x2)	  x2:0x80008545  x5:0x00000000 PA:0x800084b0
       41085000	      4107	80001cd8	009734b3	sltu	x9,x14,x9	 x14:0x00000000  x9:0x000006ea  x9=0x00000001
       41095000	      4108	80001cdc	02410003	lb	x0,36(x2)	  x2:0x80008545 PA:0x80008569
       41105000	      4109	80001ce0	fb911683	lh	x13,-71(x2)	  x2:0x80008545 x13=0xffffb4b5 PA:0x800084fe
       41115000	      4110	80001ce4	01ab8ab3	add	x21,x23,x26	 x23:0x80009ea8 x26:0x0000000a x21=0x80009eb2
       41125000	      4111	80001ce8	0ba11aa3	sh	x26,181(x2)	  x2:0x80008545 x26:0x0000000a PA:0x800085fa
       41135000	      4112	80001cec	f0e109a3	sb	x14,-237(x2)	  x2:0x80008545 x14:0x00000000 PA:0x80008458
       41145000	      4113	80001cf0	0fd15d03	lhu	x26,253(x2)	  x2:0x80008545 x26=0x0000f8f9 PA:0x80008642
       41155000	      4114	80001cf4	005cbb33	sltu	x22,x25,x5	 x25:0x668c8cb8  x5:0x00000000 x22=0x00000000
       41165000	      4115	80001cf8	408652b3	sra	x5,x12,x8	 x12:0xffffffe9  x8:0xe79dfefd  x5=0xffffffff
       41175000	      4116	80001cfc	0159d013	srli	x0,x19,0x15	 x19:0x00000001
       41185000	      4117	80001d00	04b10223	sb	x11,68(x2)	  x2:0x80008545 x11:0xaf726000 PA:0x80008589
       41195000	      4118	80001d04	00c59a93	slli	x21,x11,0xc	 x11:0xaf726000 x21=0x26000000
       41205000	      4119	80001d08	41bc5e13	srai	x28,x24,0x1b	 x24:0x00000000 x28=0x00000000
       41215000	      4120	80001d0c	08111ea3	sh	x1,157(x2)	  x2:0x80008545  x1:0x80000000 PA:0x800085e2
       41225000	      4121	80001d10	0015bb33	sltu	x22,x11,x1	 x11:0xaf726000  x1:0x80000000 x22=0x00000000
       41235000	      4122	80001d14	01b15183	lhu	x3,27(x2)	  x2:0x80008545  x3=0x00001a1b PA:0x80008560
       41245000	      4123	80001d18	03d14483	lbu	x9,61(x2)	  x2:0x80008545  x9=0x00000039 PA:0x80008582
       41255000	      4124	80001d1c	01311883	lh	x17,19(x2)	  x2:0x80008545 x17=0x00001213 PA:0x80008558
       41265000	      4125	80001d20	1945c713	xori	x14,x11,404	 x11:0xaf726000 x14=0xaf726194
       41275000	      4126	80001d24	f6510623	sb	x5,-148(x2)	  x2:0x80008545  x5:0xffffffff PA:0x800084b1
       41285000	      4127	80001d28	0090c433	xor	x8,x1,x9	  x1:0x80000000  x9:0x00000039  x8=0x80000039
       41295000	      4128	80001d2c	f9d10523	sb	x29,-118(x2)	  x2:0x80008545 x29:0x7c30cca4 PA:0x800084cf
       41305000	      4129	80001d30	00fe4b33	xor	x22,x28,x15	 x28:0x00000000 x15:0x7c30cca4 x22=0x7c30cca4
       41315000	      4130	80001d34	03b10523	sb	x27,42(x2)	  x2:0x80008545 x27:0x00000000 PA:0x8000856f
       41325000	      4131	80001d38	1b92beb7	lui	x29,0x1b92b	 x29=0x1b92b000
       41335000	      4132	80001d3c	fe514703	lbu	x14,-27(x2)	  x2:0x80008545 x14=0x000000e1 PA:0x8000852a
       41345000	      4133	80001d40	02439c63	bne	x7,x4,80001d78	  x7:0xa2809ecd  x4:0xfffffffd
       41355000	      4134	00000000	00000013	addi	x0,x0,0	  x0:0x00000000
       41365000	      4135	80001d74	00000013	addi	x0,x0,0	  x0:0x00000000
       41375000	      4136	80001d78	41778fb3	sub	x31,x15,x23	 x15:0x7c30cca4 x23:0x80009ea8 x31=0xfc302dfc
       41385000	      4137	80001d7c	00467d33	and	x26,x12,x4	 x12:0xffffffe9  x4:0xfffffffd x26=0xffffffe9
       41395000	      4138	80001d80	000d4433	xor	x8,x26,x0	 x26:0xffffffe9  x0:0x00000000  x8=0xffffffe9
       41405000	      4139	80001d84	00ed5533	srl	x10,x26,x14	 x26:0xffffffe9 x14:0x000000e1 x10=0x7ffffff4
       41415000	      4140	80001d88	dbf1f193	andi	x3,x3,-577	  x3:0x00001a1b  x3=0x0000181b
       41425000	      4141	80001d8c	710e3c93	sltiu	x25,x28,1808	 x28:0x00000000 x25=0x00000001
       41435000	      4142	80001d90	40a68a33	sub	x20,x13,x10	 x13:0xffffb4b5 x10:0x7ffffff4 x20=0x7fffb4c1
       41445000	      4143	80001d94	05dcc663	blt	x25,x29,80001de0	 x25:0x00000001 x29:0x1b92b000
       41455000	      4144	00000000	00000013	addi	x0,x0,0	  x0:0x00000000
       41465000	      4145	80001ddc	00000013	addi	x0,x0,0	  x0:0x00000000
       41475000	      4146	80001de0	05899063	bne	x19,x24,80001e20	 x19:0x00000001 x24:0x00000000
       41485000	      4147	00000000	00000013	addi	x0,x0,0	  x0:0x00000000
       41495000	      4148	80001e1c	00000013	addi	x0,x0,0	  x0:0x00000000
       41505000	      4149	80001e20	402905b3	sub	x11,x18,x2	 x18:0x8000032e  x2:0x80008545 x11=0xffff7de9
       41515000	      4150	80001e24	77b42313	slti	x6,x8,1915	  x8:0xffffffe9  x6=0x00000001
       41525000	      4151	80001e28	0042d463	bge	x5,x4,80001e30	  x5:0xffffffff  x4:0xfffffffd
       41535000	      4152	00000000	00000013	addi	x0,x0,0	  x0:0x00000000
       41545000	      4153	80001e2c	00000013	addi	x0,x0,0	  x0:0x00000000
       41555000	      4154	80001e30	489d2913	slti	x18,x26,1161	 x26:0xffffffe9 x18=0x00000001
       41565000	      4155	80001e34	d35c6993	ori	x19,x24,-715	 x24:0x00000000 x19=0xfffffd35
       41575000	      4156	80001e38	79196593	ori	x11,x18,1937	 x18:0x00000001 x11=0x00000791
       41585000	      4157	80001e3c	4095d693	srai	x13,x11,0x9	 x11:0x00000791 x13=0x00000003
       41595000	      4158	80001e40	41425a13	srai	x20,x4,0x14	  x4:0xfffffffd x20=0xffffffff
       41605000	      4159	80001e44	01e9ca33	xor	x20,x19,x30	 x19:0xfffffd35 x30:0x00000000 x20=0xfffffd35
       41615000	      4160	80001e48	010434b3	sltu	x9,x8,x16	  x8:0xffffffe9 x16:0x80009fc4  x9=0x00000000
       41625000	      4161	80001e4c	00717793	andi	x15,x2,7	  x2:0x80008545 x15=0x00000005
       41635000	      4162	80001e50	40695b33	sra	x22,x18,x6	 x18:0x00000001  x6:0x00000001 x22=0x00000000
       41645000	      4163	80001e54	039e4c63	blt	x28,x25,80001e8c	 x28:0x00000000 x25:0x00000001
       41655000	      4164	00000000	00000013	addi	x0,x0,0	  x0:0x00000000
       41665000	      4165	80001e88	00000013	addi	x0,x0,0	  x0:0x00000000
       41675000	      4166	80001e8c	008d0cb3	add	x25,x26,x8	 x26:0xffffffe9  x8:0xffffffe9 x25=0xffffffd2
       41685000	      4167	80001e90	81228cb7	lui	x25,0x81228	 x25=0x81228000
       41695000	      4168	80001e94	4a77c193	xori	x3,x15,1191	 x15:0x00000005  x3=0x000004a2
       41705000	      4169	80001e98	013cf633	and	x12,x25,x19	 x25:0x81228000 x19:0xfffffd35 x12=0x81228000
       41715000	      4170	80001e9c	00000013	addi	x0,x0,0	  x0:0x00000000
       41725000	      4171	80001ea0	00000013	addi	x0,x0,0	  x0:0x00000000
       41735000	      4172	80001ea4	4079dcb3	sra	x25,x19,x7	 x19:0xfffffd35  x7:0xa2809ecd x25=0xffffffff
       41745000	      4173	80001ea8	05fec663	blt	x29,x31,80001ef4	 x29:0x1b92b000 x31:0xfc302dfc
       41755000	      4174	80001eac	92944213	xori	x4,x8,-1751	  x8:0xffffffe9  x4=0x000006c0
       41765000	      4175	80001eb0	bd24b393	sltiu	x7,x9,-1070	  x9:0x00000000  x7=0x00000001
       41775000	      4176	80001eb4	013474b3	and	x9,x8,x19	  x8:0xffffffe9 x19:0xfffffd35  x9=0xfffffd21
       41785000	      4177	80001eb8	6d2aa697	auipc	x13,0x6d2aa	 x13=0xed2abeb4
       41795000	      4178	80001ebc	0041ca63	blt	x3,x4,80001ed0	  x3:0x000004a2  x4:0x000006c0
       41805000	      4179	00000000	00000013	addi	x0,x0,0	  x0:0x00000000
       41815000	      4180	80001ecc	00000013	addi	x0,x0,0	  x0:0x00000000
       41825000	      4181	80001ed0	3e5b6113	ori	x2,x22,997	 x22:0x00000000  x2=0x000003e5
       41835000	      4182	80001ed4	4040d2b3	sra	x5,x1,x4	  x1:0x80000000  x4:0x000006c0  x5=0x80000000
       41845000	      4183	80001ed8	02825263	bge	x4,x8,80001efc	  x4:0x000006c0  x8:0xffffffe9
       41855000	      4184	00000000	00000013	addi	x0,x0,0	  x0:0x00000000
       41865000	      4185	80001ef8	00000013	addi	x0,x0,0	  x0:0x00000000
       41875000	      4186	80001efc	41d75613	srai	x12,x14,0x1d	 x14:0x000000e1 x12=0x00000000
       41885000	      4187	80001f00	02b27863	bgeu	x4,x11,80001f30	  x4:0x000006c0 x11:0x00000791
       41895000	      4188	80001f04	0595c063	blt	x11,x25,80001f44	 x11:0x00000791 x25:0xffffffff
       41905000	      4189	80001f08	406908b3	sub	x17,x18,x6	 x18:0x00000001  x6:0x00000001 x17=0x00000000
       41915000	      4190	80001f0c	923df313	andi	x6,x27,-1757	 x27:0x00000000  x6=0x00000000
       41925000	      4191	80001f10	d15e8193	addi	x3,x29,-747	 x29:0x1b92b000  x3=0x1b92ad15
       41935000	      4192	80001f14	002f9013	slli	x0,x31,0x2	 x31:0xfc302dfc
       41945000	      4193	80001f18	01945b13	srli	x22,x8,0x19	  x8:0xffffffe9 x22=0x0000007f
       41955000	      4194	80001f1c	01ac5333	srl	x6,x24,x26	 x24:0x00000000 x26:0xffffffe9  x6=0x00000000
       41965000	      4195	80001f20	01cb12b3	sll	x5,x22,x28	 x22:0x0000007f x28:0x00000000  x5=0x0000007f
       41975000	      4196	80001f24	426f3f13	sltiu	x30,x30,1062	 x30:0x00000000 x30=0x00000001
       41985000	      4197	80001f28	cdee7c93	andi	x25,x28,-802	 x28:0x00000000 x25=0x00000000
       41995000	      4198	80001f2c	01d04463	blt	x0,x29,80001f34	  x0:0x00000000 x29:0x1b92b000
       42005000	      4199	00000000	00000013	addi	x0,x0,0	  x0:0x00000000
       42015000	      4200	80001f30	00000013	addi	x0,x0,0	  x0:0x00000000
       42025000	      4201	80001f34	d9873393	sltiu	x7,x14,-616	 x14:0x000000e1  x7=0x00000001
       42035000	      4202	80001f38	00000013	addi	x0,x0,0	  x0:0x00000000
       42045000	      4203	80001f3c	00970233	add	x4,x14,x9	 x14:0x000000e1  x9:0xfffffd21  x4=0xfffffe02
       42055000	      4204	80001f40	d3017613	andi	x12,x2,-720	  x2:0x000003e5 x12=0x00000120
       42065000	      4205	80001f44	019e9533	sll	x10,x29,x25	 x29:0x1b92b000 x25:0x00000000 x10=0x1b92b000
       42075000	      4206	80001f48	02f81463	bne	x16,x15,80001f70	 x16:0x80009fc4 x15:0x00000005
       42085000	      4207	00000000	00000013	addi	x0,x0,0	  x0:0x00000000
       42095000	      4208	80001f6c	00000013	addi	x0,x0,0	  x0:0x00000000
       42105000	      4209	80001f70	006cf433	and	x8,x25,x6	 x25:0x00000000  x6:0x00000000  x8=0x00000000
       42115000	      4210	80001f74	00260263	beq	x12,x2,80001f78	 x12:0x00000120  x2:0x000003e5
       42125000	      4211	80001f78	00e083b3	add	x7,x1,x14	  x1:0x80000000 x14:0x000000e1  x7=0x800000e1
       42135000	      4212	80001f7c	5cdfb193	sltiu	x3,x31,1485	 x31:0xfc302dfc  x3=0x00000000
       42145000	      4213	80001f80	c91a4e13	xori	x28,x20,-879	 x20:0xfffffd35 x28=0x000001a4
       42155000	      4214	80001f84	dd09be93	sltiu	x29,x19,-560	 x19:0xfffffd35 x29=0x00000001
       42165000	      4215	80001f88	1f17e737	lui	x14,0x1f17e	 x14=0x1f17e000
       42175000	      4216	80001f8c	01541c33	sll	x24,x8,x21	  x8:0x00000000 x21:0x26000000 x24=0x00000000
       42185000	      4217	80001f90	00188463	beq	x17,x1,80001f98	 x17:0x00000000  x1:0x80000000
       42195000	      4218	80001f94	008989b3	add	x19,x19,x8	 x19:0xfffffd35  x8:0x00000000 x19=0xfffffd35
       42205000	      4219	80001f98	009f95b3	sll	x11,x31,x9	 x31:0xfc302dfc  x9:0xfffffd21 x11=0xf8605bf8
       42215000	      4220	80001f9c	017a9233	sll	x4,x21,x23	 x21:0x26000000 x23:0x80009ea8  x4=0x00000000
       42225000	      4221	80001fa0	37febb13	sltiu	x22,x29,895	 x29:0x00000001 x22=0x00000001
       42235000	      4222	80001fa4	0509fc63	bgeu	x19,x16,80001ffc	 x19:0xfffffd35 x16:0x80009fc4
       42245000	      4223	00000000	00000013	addi	x0,x0,0	  x0:0x00000000
       42255000	      4224	80001ff8	00000013	addi	x0,x0,0	  x0:0x00000000
       42265000	      4225	80001ffc	00000013	addi	x0,x0,0	  x0:0x00000000
       42275000	      4226	80002000	047c9663	bne	x25,x7,8000204c	 x25:0x00000000  x7:0x800000e1
       42285000	      4227	00000000	00000013	addi	x0,x0,0	  x0:0x00000000
       42295000	      4228	80002048	00000013	addi	x0,x0,0	  x0:0x00000000
       42305000	      4229	8000204c	3efefd93	andi	x27,x29,1007	 x29:0x00000001 x27=0x00000001
       42315000	      4230	80002050	644b4d13	xori	x26,x22,1604	 x22:0x00000001 x26=0x00000645
       42325000	      4231	80002054	00247463	bgeu	x8,x2,8000205c	  x8:0x00000000  x2:0x000003e5
       42335000	      4232	80002058	40430ab3	sub	x21,x6,x4	  x6:0x00000000  x4:0x00000000 x21=0x00000000
       42345000	      4233	8000205c	00232db3	slt	x27,x6,x2	  x6:0x00000000  x2:0x000003e5 x27=0x00000001
       42355000	      4234	80002060	403b5f33	sra	x30,x22,x3	 x22:0x00000001  x3:0x00000000 x30=0x00000001
       42365000	      4235	80002064	486dee13	ori	x28,x27,1158	 x27:0x00000001 x28=0x00000487
       42375000	      4236	80002068	01e41633	sll	x12,x8,x30	  x8:0x00000000 x30:0x00000001 x12=0x00000000
       42385000	      4237	8000206c	f1957893	andi	x17,x10,-231	 x10:0x1b92b000 x17=0x1b92b000
       42395000	      4238	80002070	02169863	bne	x13,x1,800020a0	 x13:0xed2abeb4  x1:0x80000000
       42405000	      4239	00000000	00000013	addi	x0,x0,0	  x0:0x00000000
       42415000	      4240	8000209c	00000013	addi	x0,x0,0	  x0:0x00000000
       42425000	      4241	800020a0	01251663	bne	x10,x18,800020ac	 x10:0x1b92b000 x18:0x00000001
       42435000	      4242	00000000	00000013	addi	x0,x0,0	  x0:0x00000000
       42445000	      4243	800020a8	00000013	addi	x0,x0,0	  x0:0x00000000
       42455000	      4244	800020ac	40880cb3	sub	x25,x16,x8	 x16:0x80009fc4  x8:0x00000000 x25=0x80009fc4
       42465000	      4245	800020b0	000a0e33	add	x28,x20,x0	 x20:0xfffffd35  x0:0x00000000 x28=0xfffffd35
       42475000	      4246	800020b4	28660493	addi	x9,x12,646	 x12:0x00000000  x9=0x00000286
       42485000	      4247	800020b8	01ab3a33	sltu	x20,x22,x26	 x22:0x00000001 x26:0x00000645 x20=0x00000001
       42495000	      4248	800020bc	416d8b33	sub	x22,x27,x22	 x27:0x00000001 x22:0x00000001 x22=0x00000000
       42505000	      4249	800020c0	0028b533	sltu	x10,x17,x2	 x17:0x1b92b000  x2:0x000003e5 x10=0x00000000
       42515000	      4250	800020c4	440fb593	sltiu	x11,x31,1088	 x31:0xfc302dfc x11=0x00000000
       42525000	      4251	800020c8	018fc733	xor	x14,x31,x24	 x31:0xfc302dfc x24:0x00000000 x14=0xfc302dfc
       42535000	      4252	800020cc	da0aa293	slti	x5,x21,-608	 x21:0x00000000  x5=0x00000000
       42545000	      4253	800020d0	40288733	sub	x14,x17,x2	 x17:0x1b92b000  x2:0x000003e5 x14=0x1b92ac1b
       42555000	      4254	800020d4	00b5f663	bgeu	x11,x11,800020e0	 x11:0x00000000 x11:0x00000000
       42565000	      4255	00000000	00000013	addi	x0,x0,0	  x0:0x00000000
       42575000	      4256	800020dc	00000013	addi	x0,x0,0	  x0:0x00000000
       42585000	      4257	800020e0	00c7d633	srl	x12,x15,x12	 x15:0x00000005 x12:0x00000000 x12=0x00000005
       42595000	      4258	800020e4	01513533	sltu	x10,x2,x21	  x2:0x000003e5 x21:0x00000000 x10=0x00000000
       42605000	      4259	800020e8	017c3033	sltu	x0,x24,x23	 x24:0x00000000 x23:0x80009ea8
       42615000	      4260	800020ec	0114da63	bge	x9,x17,80002100	  x9:0x00000286 x17:0x1b92b000
       42625000	      4261	800020f0	755b7237	lui	x4,0x755b7	  x4=0x755b7000
       42635000	      4262	800020f4	013b69b3	or	x19,x22,x19	 x22:0x00000000 x19:0xfffffd35 x19=0xfffffd35
       42645000	      4263	800020f8	00b6d463	bge	x13,x11,80002100	 x13:0xed2abeb4 x11:0x00000000
       42655000	      4264	800020fc	00608db3	add	x27,x1,x6	  x1:0x80000000  x6:0x00000000 x27=0x80000000
       42665000	      4265	80002100	00000013	addi	x0,x0,0	  x0:0x00000000
       42675000	      4266	80002104	016f1233	sll	x4,x30,x22	 x30:0x00000001 x22:0x00000000  x4=0x00000001
       42685000	      4267	80002108	004ba303	lw	x6,4(x23)	 x23:0x80009ea8  x6=0x800014fc PA:0x80009eac
       42695000	      4268	8000210c	0083ceb3	xor	x29,x7,x8	  x7:0x800000e1  x8:0x00000000 x29=0x800000e1
       42705000	      4269	80002110	040b8b93	addi	x23,x23,64	 x23:0x80009ea8 x23=0x80009ee8
       42715000	      4270	80002114	0573cb37	lui	x22,0x573c	 x22=0x0573c000
       42725000	      4271	80002118	00107193	andi	x3,x0,1	  x0:0x00000000  x3=0x00000000
       42735000	      4272	8000211c	006a04b3	add	x9,x20,x6	 x20:0x00000001  x6:0x800014fc  x9=0x800014fd
       42745000	      4273	80002120	01a791b3	sll	x3,x15,x26	 x15:0x00000005 x26:0x00000645  x3=0x000000a0
       42755000	      4274	80002124	00030393	addi	x7,x6,0	  x6:0x800014fc  x7=0x800014fc
       42765000	      4275	80002128	000383e7	jalr	x7,x7,0	  x7:0x800014fc  x7=0x80002128
       42775000	      4276	00000000	00000013	addi	x0,x0,0	  x0:0x00000000
       42785000	      4277	800014fc	00000013	addi	x0,x0,0	  x0:0x00000000
       42795000	      4278	80001500	0197df13	srli	x30,x15,0x19	 x15:0x00000005 x30=0x00000000
       42805000	      4279	80001504	011c5eb3	srl	x29,x24,x17	 x24:0x00000000 x17:0x1b92b000 x29=0x00000000
       42815000	      4280	80001508	2f322413	slti	x8,x4,755	  x4:0x00000001  x8=0x00000001
       42825000	      4281	8000150c	004124b3	slt	x9,x2,x4	  x2:0x000003e5  x4:0x00000001  x9=0x00000000
       42835000	      4282	80001510	00f682b3	add	x5,x13,x15	 x13:0xed2abeb4 x15:0x00000005  x5=0xed2abeb9
       42845000	      4283	80001514	cc32e113	ori	x2,x5,-829	  x5:0xed2abeb9  x2=0xfffffefb
       42855000	      4284	80001518	009699b3	sll	x19,x13,x9	 x13:0xed2abeb4  x9:0x00000000 x19=0xed2abeb4
       42865000	      4285	8000151c	d9257213	andi	x4,x10,-622	 x10:0x00000000  x4=0x00000000
       42875000	      4286	80001520	03554463	blt	x10,x21,80001548	 x10:0x00000000 x21:0x00000000
       42885000	      4287	80001524	00e60263	beq	x12,x14,80001528	 x12:0x00000005 x14:0x1b92ac1b
       42895000	      4288	80001528	017a7c33	and	x24,x20,x23	 x20:0x00000001 x23:0x80009ee8 x24=0x00000000
       42905000	      4289	8000152c	0457e863	bltu	x15,x5,8000157c	 x15:0x00000005  x5:0xed2abeb9
       42915000	      4290	00000000	00000013	addi	x0,x0,0	  x0:0x00000000
       42925000	      4291	80001578	00000013	addi	x0,x0,0	  x0:0x00000000
       42935000	      4292	8000157c	b8a17413	andi	x8,x2,-1142	  x2:0xfffffefb  x8=0xfffffa8a
       42945000	      4293	80001580	a31b4193	xori	x3,x22,-1487	 x22:0x0573c000  x3=0xfa8c3a31
       42955000	      4294	80001584	40f308b3	sub	x17,x6,x15	  x6:0x800014fc x15:0x00000005 x17=0x800014f7
       42965000	      4295	80001588	003e8eb3	add	x29,x29,x3	 x29:0x00000000  x3:0xfa8c3a31 x29=0xfa8c3a31
       42975000	      4296	8000158c	01916463	bltu	x2,x25,80001594	  x2:0xfffffefb x25:0x80009fc4
       42985000	      4297	80001590	41795793	srai	x15,x18,0x17	 x18:0x00000001 x15=0x00000000
       42995000	      4298	80001594	005d84b3	add	x9,x27,x5	 x27:0x80000000  x5:0xed2abeb9  x9=0x6d2abeb9
       43005000	      4299	80001598	011c5913	srli	x18,x24,0x11	 x24:0x00000000 x18=0x00000000
       43015000	      4300	8000159c	c2b77193	andi	x3,x14,-981	 x14:0x1b92ac1b  x3=0x1b92ac0b
       43025000	      4301	800015a0	013a97b3	sll	x15,x21,x19	 x21:0x00000000 x19:0xed2abeb4 x15=0x00000000
       43035000	      4302	800015a4	01a81693	slli	x13,x16,0x1a	 x16:0x80009fc4 x13=0x10000000
       43045000	      4303	800015a8	41e35c93	srai	x25,x6,0x1e	  x6:0x800014fc x25=0xfffffffe
       43055000	      4304	800015ac	014b65b3	or	x11,x22,x20	 x22:0x0573c000 x20:0x00000001 x11=0x0573c001
       43065000	      4305	800015b0	0115a3b3	slt	x7,x11,x17	 x11:0x0573c001 x17:0x800014f7  x7=0x00000000
       43075000	      4306	800015b4	01035193	srli	x3,x6,0x10	  x6:0x800014fc  x3=0x00008000
       43085000	      4307	800015b8	052af863	bgeu	x21,x18,80001608	 x21:0x00000000 x18:0x00000000
       43095000	      4308	00000000	00000013	addi	x0,x0,0	  x0:0x00000000
       43105000	      4309	80001604	00000013	addi	x0,x0,0	  x0:0x00000000
       43115000	      4310	80001608	00000013	addi	x0,x0,0	  x0:0x00000000
       43125000	      4311	8000160c	01b31793	slli	x15,x6,0x1b	  x6:0x800014fc x15=0xe0000000
       43135000	      4312	80001610	017f79b3	and	x19,x30,x23	 x30:0x00000000 x23:0x80009ee8 x19=0x00000000
       43145000	      4313	80001614	02055663	bge	x10,x0,80001640	 x10:0x00000000  x0:0x00000000
       43155000	      4314	00000000	00000013	addi	x0,x0,0	  x0:0x00000000
       43165000	      4315	8000163c	00000013	addi	x0,x0,0	  x0:0x00000000
       43175000	      4316	80001640	f07e2513	slti	x10,x28,-249	 x28:0xfffffd35 x10=0x00000001
       43185000	      4317	80001644	01ede1b3	or	x3,x27,x30	 x27:0x80000000 x30:0x00000000  x3=0x80000000
       43195000	      4318	80001648	013fd3b3	srl	x7,x31,x19	 x31:0xfc302dfc x19:0x00000000  x7=0xfc302dfc
       43205000	      4319	8000164c	01c95333	srl	x6,x18,x28	 x18:0x00000000 x28:0xfffffd35  x6=0x00000000
       43215000	      4320	80001650	0050d3b3	srl	x7,x1,x5	  x1:0x80000000  x5:0xed2abeb9  x7=0x00000040
       43225000	      4321	80001654	01996433	or	x8,x18,x25	 x18:0x00000000 x25:0xfffffffe  x8=0xfffffffe
       43235000	      4322	80001658	41c785b3	sub	x11,x15,x28	 x15:0xe0000000 x28:0xfffffd35 x11=0xe00002cb
       43245000	      4323	8000165c	8679f693	andi	x13,x19,-1945	 x19:0x00000000 x13=0x00000000
       43255000	      4324	80001660	41c5d433	sra	x8,x11,x28	 x11:0xe00002cb x28:0xfffffd35  x8=0xffffff00
       43265000	      4325	80001664	003215b3	sll	x11,x4,x3	  x4:0x00000000  x3:0x80000000 x11=0x00000000
       43275000	      4326	80001668	825b6213	ori	x4,x22,-2011	 x22:0x0573c000  x4=0xfffff825
       43285000	      4327	8000166c	011fca33	xor	x20,x31,x17	 x31:0xfc302dfc x17:0x800014f7 x20=0x7c30390b
       43295000	      4328	80001670	011983b3	add	x7,x19,x17	 x19:0x00000000 x17:0x800014f7  x7=0x800014f7
       43305000	      4329	80001674	f322c393	xori	x7,x5,-206	  x5:0xed2abeb9  x7=0x12d5418b
       43315000	      4330	80001678	01ae97b3	sll	x15,x29,x26	 x29:0xfa8c3a31 x26:0x00000645 x15=0x51874620
       43325000	      4331	8000167c	00297633	and	x12,x18,x2	 x18:0x00000000  x2:0xfffffefb x12=0x00000000
       43335000	      4332	80001680	002d27b3	slt	x15,x26,x2	 x26:0x00000645  x2:0xfffffefb x15=0x00000000
       43345000	      4333	80001684	53b3c993	xori	x19,x7,1339	  x7:0x12d5418b x19=0x12d544b0
       43355000	      4334	80001688	f3137c13	andi	x24,x6,-207	  x6:0x00000000 x24=0x00000000
       43365000	      4335	8000168c	3b6fff13	andi	x30,x31,950	 x31:0xfc302dfc x30=0x000001b4
       43375000	      4336	80001690	01bb4cb3	xor	x25,x22,x27	 x22:0x0573c000 x27:0x80000000 x25=0x8573c000
       43385000	      4337	80001694	01e54863	blt	x10,x30,800016a4	 x10:0x00000001 x30:0x000001b4
       43395000	      4338	00000000	00000013	addi	x0,x0,0	  x0:0x00000000
       43405000	      4339	800016a0	00000013	addi	x0,x0,0	  x0:0x00000000
       43415000	      4340	800016a4	014c8533	add	x10,x25,x20	 x25:0x8573c000 x20:0x7c30390b x10=0x01a3f90b
       43425000	      4341	800016a8	00008117	auipc	x2,0x8	  x2=0x800096a4
       43435000	      4342	800016ac	81d10113	addi	x2,x2,-2019	  x2:0x800096a4  x2=0x80008ec1
       43445000	      4343	800016b0	d1d10423	sb	x29,-760(x2)	  x2:0x80008ec1 x29:0xfa8c3a31 PA:0x80008bc9
       43455000	      4344	800016b4	01e78ab3	add	x21,x15,x30	 x15:0x00000000 x30:0x000001b4 x21=0x000001b4
       43465000	      4345	800016b8	5d7fc793	xori	x15,x31,1495	 x31:0xfc302dfc x15=0xfc30282b
       43475000	      4346	800016bc	627ab417	auipc	x8,0x627ab	  x8=0xe27ac6b8
       43485000	      4347	800016c0	c7a11ea3	sh	x26,-899(x2)	  x2:0x80008ec1 x26:0x00000645 PA:0x80008b3e
       43495000	      4348	800016c4	01fac433	xor	x8,x21,x31	 x21:0x000001b4 x31:0xfc302dfc  x8=0xfc302c48
       43505000	      4349	800016c8	f0a14d03	lbu	x26,-246(x2)	  x2:0x80008ec1 x26=0x000000b0 PA:0x80008dcb
       43515000	      4350	800016cc	01e8de93	srli	x29,x17,0x1e	 x17:0x800014f7 x29=0x00000002
       43525000	      4351	800016d0	f2114283	lbu	x5,-223(x2)	  x2:0x80008ec1  x5=0x000000c9 PA:0x80008de2
       43535000	      4352	800016d4	00f5f2b3	and	x5,x11,x15	 x11:0x00000000 x15:0xfc30282b  x5=0x00000000
       43545000	      4353	800016d8	00fd5db3	srl	x27,x26,x15	 x26:0x000000b0 x15:0xfc30282b x27=0x00000000
       43555000	      4354	800016dc	01b6c7b3	xor	x15,x13,x27	 x13:0x00000000 x27:0x00000000 x15=0x00000000
       43565000	      4355	800016e0	af30c893	xori	x17,x1,-1293	  x1:0x80000000 x17=0x7ffffaf3
       43575000	      4356	800016e4	2f45aa13	slti	x20,x11,756	 x11:0x00000000 x20=0x00000001
       43585000	      4357	800016e8	d8414f03	lbu	x30,-636(x2)	  x2:0x80008ec1 x30=0x0000002e PA:0x80008c45
       43595000	      4358	800016ec	40695693	srai	x13,x18,0x6	 x18:0x00000000 x13=0x00000000
       43605000	      4359	800016f0	6bb6fc13	andi	x24,x13,1723	 x13:0x00000000 x24=0x00000000
       43615000	      4360	800016f4	0004f8b3	and	x17,x9,x0	  x9:0x6d2abeb9  x0:0x00000000 x17=0x00000000
       43625000	      4361	800016f8	cd9e4c13	xori	x24,x28,-807	 x28:0xfffffd35 x24=0x000001ec
       43635000	      4362	800016fc	81ba8a93	addi	x21,x21,-2021	 x21:0x000001b4 x21=0xfffff9cf
       43645000	      4363	80001700	f0810703	lb	x14,-248(x2)	  x2:0x80008ec1 x14=0x00000000 PA:0x80008dc9
       43655000	      4364	80001704	01779933	sll	x18,x15,x23	 x15:0x00000000 x23:0x80009ee8 x18=0x00000000
       43665000	      4365	80001708	76f62393	slti	x7,x12,1903	 x12:0x00000000  x7=0x00000001
       43675000	      4366	8000170c	96e14683	lbu	x13,-1682(x2)	  x2:0x80008ec1 x13=0x00000014 PA:0x8000882f
       43685000	      4367	80001710	fb3405b7	lui	x11,0xfb340	 x11=0xfb340000
       43695000	      4368	80001714	00680733	add	x14,x16,x6	 x16:0x80009fc4  x6:0x00000000 x14=0x80009fc4
       43705000	      4369	80001718	c2010ca3	sb	x0,-967(x2)	  x2:0x80008ec1  x0:0x00000000 PA:0x80008afa
       43715000	      4370	8000171c	01f6e9b3	or	x19,x13,x31	 x13:0x00000014 x31:0xfc302dfc x19=0xfc302dfc
       43725000	      4371	80001720	019b1733	sll	x14,x22,x25	 x22:0x0573c000 x25:0x8573c000 x14=0x0573c000
       43735000	      4372	80001724	a2d10283	lb	x5,-1491(x2)	  x2:0x80008ec1  x5=0xffffffd5 PA:0x800088ee
       43745000	      4373	80001728	4020d733	sra	x14,x1,x2	  x1:0x80000000  x2:0x80008ec1 x14=0xc0000000
       43755000	      4374	8000172c	d8814283	lbu	x5,-632(x2)	  x2:0x80008ec1  x5=0x00000032 PA:0x80008c49
       43765000	      4375	80001730	a1e14383	lbu	x7,-1506(x2)	  x2:0x80008ec1  x7=0x000000c4 PA:0x800088df
       43775000	      4376	80001734	e6a14d83	lbu	x27,-406(x2)	  x2:0x80008ec1 x27=0x00000010 PA:0x80008d2b
       43785000	      4377	80001738	c9166f13	ori	x30,x12,-879	 x12:0x00000000 x30=0xfffffc91
       43795000	      4378	8000173c	cf2108a3	sb	x18,-783(x2)	  x2:0x80008ec1 x18:0x00000000 PA:0x80008bb2
       43805000	      4379	80001740	41408fb3	sub	x31,x1,x20	  x1:0x80000000 x20:0x00000001 x31=0x7fffffff
       43815000	      4380	80001744	417e01b3	sub	x3,x28,x23	 x28:0xfffffd35 x23:0x80009ee8  x3=0x7fff5e4d
       43825000	      4381	80001748	c2610603	lb	x12,-986(x2)	  x2:0x80008ec1 x12=0xffffffcc PA:0x80008ae7
       43835000	      4382	8000174c	00ae6c33	or	x24,x28,x10	 x28:0xfffffd35 x10:0x01a3f90b x24=0xfffffd3f
       43845000	      4383	80001750	f20c7f97	auipc	x31,0xf20c7	 x31=0x720c874c
       43855000	      4384	80001754	0083dc93	srli	x25,x7,0x8	  x7:0x000000c4 x25=0x00000000
       43865000	      4385	80001758	01d5af33	slt	x30,x11,x29	 x11:0xfb340000 x29:0x00000002 x30=0x00000001
       43875000	      4386	8000175c	8465ceb7	lui	x29,0x8465c	 x29=0x8465c000
       43885000	      4387	80001760	32f14a13	xori	x20,x2,815	  x2:0x80008ec1 x20=0x80008dee
       43895000	      4388	80001764	855ab913	sltiu	x18,x21,-1963	 x21:0xfffff9cf x18=0x00000000
       43905000	      4389	80001768	40f40f33	sub	x30,x8,x15	  x8:0xfc302c48 x15:0x00000000 x30=0xfc302c48
       43915000	      4390	8000176c	4e322293	slti	x5,x4,1251	  x4:0xfffff825  x5=0x00000001
       43925000	      4391	80001770	01674c63	blt	x14,x22,80001788	 x14:0xc0000000 x22:0x0573c000
       43935000	      4392	00000000	00000013	addi	x0,x0,0	  x0:0x00000000
       43945000	      4393	80001784	00000013	addi	x0,x0,0	  x0:0x00000000
       43955000	      4394	80001788	01d58633	add	x12,x11,x29	 x11:0xfb340000 x29:0x8465c000 x12=0x7f99c000
       43965000	      4395	8000178c	bd080993	addi	x19,x16,-1072	 x16:0x80009fc4 x19=0x80009b94
       43975000	      4396	80001790	1384a393	slti	x7,x9,312	  x9:0x6d2abeb9  x7=0x00000000
       43985000	      4397	80001794	841b3513	sltiu	x10,x22,-1983	 x22:0x0573c000 x10=0x00000001
       43995000	      4398	80001798	412dd893	srai	x17,x27,0x12	 x27:0x00000010 x17=0x00000000
       44005000	      4399	8000179c	415203b3	sub	x7,x4,x21	  x4:0xfffff825 x21:0xfffff9cf  x7=0xfffffe56
       44015000	      4400	800017a0	0129db33	srl	x22,x19,x18	 x19:0x80009b94 x18:0x00000000 x22=0x80009b94
       44025000	      4401	800017a4	b6d0e3b7	lui	x7,0xb6d0e	  x7=0xb6d0e000
       44035000	      4402	800017a8	00b3b433	sltu	x8,x7,x11	  x7:0xb6d0e000 x11:0xfb340000  x8=0x00000001
       44045000	      4403	800017ac	00000013	addi	x0,x0,0	  x0:0x00000000
       44055000	      4404	800017b0	6611a893	slti	x17,x3,1633	  x3:0x7fff5e4d x17=0x00000000
       44065000	      4405	800017b4	0b2fce93	xori	x29,x31,178	 x31:0x720c874c x29=0x720c87fe
       44075000	      4406	800017b8	01ae1d33	sll	x26,x28,x26	 x28:0xfffffd35 x26:0x000000b0 x26=0xfd350000
       44085000	      4407	800017bc	043b4663	blt	x22,x3,80001808	 x22:0x80009b94  x3:0x7fff5e4d
       44095000	      4408	00000000	00000013	addi	x0,x0,0	  x0:0x00000000
       44105000	      4409	80001804	00000013	addi	x0,x0,0	  x0:0x00000000
       44115000	      4410	80001808	418b5433	sra	x8,x22,x24	 x22:0x80009b94 x24:0xfffffd3f  x8=0xffffffff
       44125000	      4411	8000180c	9e168193	addi	x3,x13,-1567	 x13:0x00000014  x3=0xfffff9f5
       44135000	      4412	80001810	77943693	sltiu	x13,x8,1913	  x8:0xffffffff x13=0x00000000
       44145000	      4413	80001814	0157bfb3	sltu	x31,x15,x21	 x15:0x00000000 x21:0xfffff9cf x31=0x00000001
       44155000	      4414	80001818	00531333	sll	x6,x6,x5	  x6:0x00000000  x5:0x00000001  x6=0x00000000
       44165000	      4415	8000181c	01b29e63	bne	x5,x27,80001838	  x5:0x00000001 x27:0x00000010
       44175000	      4416	00000000	00000013	addi	x0,x0,0	  x0:0x00000000
       44185000	      4417	80001834	00000013	addi	x0,x0,0	  x0:0x00000000
       44195000	      4418	80001838	eba5a393	slti	x7,x11,-326	 x11:0xfb340000  x7=0x00000001
       44205000	      4419	8000183c	05505263	bge	x0,x21,80001880	  x0:0x00000000 x21:0xfffff9cf
       44215000	      4420	00000000	00000013	addi	x0,x0,0	  x0:0x00000000
       44225000	      4421	8000187c	00000013	addi	x0,x0,0	  x0:0x00000000
       44235000	      4422	80001880	026bf463	bgeu	x23,x6,800018a8	 x23:0x80009ee8  x6:0x00000000
       44245000	      4423	00000000	00000013	addi	x0,x0,0	  x0:0x00000000
       44255000	      4424	800018a4	00000013	addi	x0,x0,0	  x0:0x00000000
       44265000	      4425	800018a8	414b5413	srai	x8,x22,0x14	 x22:0x80009b94  x8=0xfffff800
       44275000	      4426	800018ac	9739a713	slti	x14,x19,-1677	 x19:0x80009b94 x14=0x00000001
       44285000	      4427	800018b0	419fd113	srai	x2,x31,0x19	 x31:0x00000001  x2=0x00000000
       44295000	      4428	800018b4	0e011697	auipc	x13,0xe011	 x13=0x8e0128b0
       44305000	      4429	800018b8	01495db3	srl	x27,x18,x20	 x18:0x00000000 x20:0x80008dee x27=0x00000000
       44315000	      4430	800018bc	00000013	addi	x0,x0,0	  x0:0x00000000
       44325000	      4431	800018c0	7ef13b37	lui	x22,0x7ef13	 x22=0x7ef13000
       44335000	      4432	800018c4	0396f263	bgeu	x13,x25,800018e8	 x13:0x8e0128b0 x25:0x00000000
       44345000	      4433	00000000	00000013	addi	x0,x0,0	  x0:0x00000000
       44355000	      4434	800018e4	00000013	addi	x0,x0,0	  x0:0x00000000
       44365000	      4435	800018e8	405fb013	sltiu	x0,x31,1029	 x31:0x00000001
       44375000	      4436	800018ec	0630c113	xori	x2,x1,99	  x1:0x80000000  x2=0x80000063
       44385000	      4437	800018f0	005e4233	xor	x4,x28,x5	 x28:0xfffffd35  x5:0x00000001  x4=0xfffffd34
       44395000	      4438	800018f4	26298b13	addi	x22,x19,610	 x19:0x80009b94 x22=0x80009df6
       44405000	      4439	800018f8	02cb4c63	blt	x22,x12,80001930	 x22:0x80009df6 x12:0x7f99c000
       44415000	      4440	00000000	00000013	addi	x0,x0,0	  x0:0x00000000
       44425000	      4441	8000192c	00000013	addi	x0,x0,0	  x0:0x00000000
       44435000	      4442	80001930	02415663	bge	x2,x4,8000195c	  x2:0x80000063  x4:0xfffffd34
       44445000	      4443	80001934	2cfc1b17	auipc	x22,0x2cfc1	 x22=0xacfc2930
       44455000	      4444	80001938	031f4263	blt	x30,x17,8000195c	 x30:0xfc302c48 x17:0x00000000
       44465000	      4445	00000000	00000013	addi	x0,x0,0	  x0:0x00000000
       44475000	      4446	80001958	00000013	addi	x0,x0,0	  x0:0x00000000
       44485000	      4447	8000195c	addb0db7	lui	x27,0xaddb0	 x27=0xaddb0000
       44495000	      4448	80001960	011e9d33	sll	x26,x29,x17	 x29:0x720c87fe x17:0x00000000 x26=0x720c87fe
       44505000	      4449	80001964	00fffe63	bgeu	x31,x15,80001980	 x31:0x00000001 x15:0x00000000
       44515000	      4450	00000000	00000013	addi	x0,x0,0	  x0:0x00000000
       44525000	      4451	8000197c	00000013	addi	x0,x0,0	  x0:0x00000000
       44535000	      4452	80001980	05fa8663	beq	x21,x31,800019cc	 x21:0xfffff9cf x31:0x00000001
       44545000	      4453	80001984	62ff2c13	slti	x24,x30,1583	 x30:0xfc302c48 x24=0x00000001
       44555000	      4454	80001988	6e5a6793	ori	x15,x20,1765	 x20:0x80008dee x15=0x80008fef
       44565000	      4455	8000198c	00fa5233	srl	x4,x20,x15	 x20:0x80008dee x15:0x80008fef  x4=0x00010001
       44575000	      4456	80001990	00000013	addi	x0,x0,0	  x0:0x00000000
       44585000	      4457	80001994	01c883b3	add	x7,x17,x28	 x17:0x00000000 x28:0xfffffd35  x7=0xfffffd35
       44595000	      4458	80001998	40005213	srai	x4,x0,0x0	  x0:0x00000000  x4=0x00000000
       44605000	      4459	8000199c	0193f633	and	x12,x7,x25	  x7:0xfffffd35 x25:0x00000000 x12=0x00000000
       44615000	      4460	800019a0	0065afb3	slt	x31,x11,x6	 x11:0xfb340000  x6:0x00000000 x31=0x00000001
       44625000	      4461	800019a4	f3b6ba13	sltiu	x20,x13,-197	 x13:0x8e0128b0 x20=0x00000001
       44635000	      4462	800019a8	00776033	or	x0,x14,x7	 x14:0x00000001  x7:0xfffffd35
       44645000	      4463	800019ac	04b40263	beq	x8,x11,800019f0	  x8:0xfffff800 x11:0xfb340000
       44655000	      4464	800019b0	715a3493	sltiu	x9,x20,1813	 x20:0x00000001  x9=0x00000001
       44665000	      4465	800019b4	018d3f33	sltu	x30,x26,x24	 x26:0x720c87fe x24:0x00000001 x30=0x00000000
       44675000	      4466	800019b8	01a268b3	or	x17,x4,x26	  x4:0x00000000 x26:0x720c87fe x17=0x720c87fe
       44685000	      4467	800019bc	40d202b3	sub	x5,x4,x13	  x4:0x00000000 x13:0x8e0128b0  x5=0x71fed750
       44695000	      4468	800019c0	009302b3	add	x5,x6,x9	  x6:0x00000000  x9:0x00000001  x5=0x00000001
       44705000	      4469	800019c4	9fc86113	ori	x2,x16,-1540	 x16:0x80009fc4  x2=0xfffffffc
       44715000	      4470	800019c8	01d078b3	and	x17,x0,x29	  x0:0x00000000 x29:0x720c87fe x17=0x00000000
       44725000	      4471	800019cc	3d1de513	ori	x10,x27,977	 x27:0xaddb0000 x10=0xaddb03d1
       44735000	      4472	800019d0	01b6c533	xor	x10,x13,x27	 x13:0x8e0128b0 x27:0xaddb0000 x10=0x23da28b0
       44745000	      4473	800019d4	00d2d013	srli	x0,x5,0xd	  x5:0x00000001
       44755000	      4474	800019d8	01634263	blt	x6,x22,800019dc	  x6:0x00000000 x22:0xacfc2930
       44765000	      4475	800019dc	07064913	xori	x18,x12,112	 x12:0x00000000 x18=0x00000070
       44775000	      4476	800019e0	6a353313	sltiu	x6,x10,1699	 x10:0x23da28b0  x6=0x00000000
       44785000	      4477	800019e4	9614ae13	slti	x28,x9,-1695	  x9:0x00000001 x28=0x00000000
       44795000	      4478	800019e8	00000013	addi	x0,x0,0	  x0:0x00000000
       44805000	      4479	800019ec	f7d5ea93	ori	x21,x11,-131	 x11:0xfb340000 x21=0xffffff7d
       44815000	      4480	800019f0	014c5113	srli	x2,x24,0x14	 x24:0x00000001  x2=0x00000000
       44825000	      4481	800019f4	404c5e93	srai	x29,x24,0x4	 x24:0x00000001 x29=0x00000000
       44835000	      4482	800019f8	00000013	addi	x0,x0,0	  x0:0x00000000
       44845000	      4483	800019fc	4e12b613	sltiu	x12,x5,1249	  x5:0x00000001 x12=0x00000001
       44855000	      4484	80001a00	01f6f433	and	x8,x13,x31	 x13:0x8e0128b0 x31:0x00000001  x8=0x00000000
       44865000	      4485	80001a04	02869663	bne	x13,x8,80001a30	 x13:0x8e0128b0  x8:0x00000000
       44875000	      4486	00000000	00000013	addi	x0,x0,0	  x0:0x00000000
       44885000	      4487	80001a2c	00000013	addi	x0,x0,0	  x0:0x00000000
       44895000	      4488	80001a30	016fbdb3	sltu	x27,x31,x22	 x31:0x00000001 x22:0xacfc2930 x27=0x00000001
       44905000	      4489	80001a34	0222e463	bltu	x5,x2,80001a5c	  x5:0x00000001  x2:0x00000000
       44915000	      4490	80001a38	a5bf6117	auipc	x2,0xa5bf6	  x2=0x25bf7a34
       44925000	      4491	80001a3c	ced74413	xori	x8,x14,-787	 x14:0x00000001  x8=0xfffffcec
       44935000	      4492	80001a40	019173b3	and	x7,x2,x25	  x2:0x25bf7a34 x25:0x00000000  x7=0x00000000
       44945000	      4493	80001a44	40670fb3	sub	x31,x14,x6	 x14:0x00000001  x6:0x00000000 x31=0x00000001
       44955000	      4494	80001a48	03661463	bne	x12,x22,80001a70	 x12:0x00000001 x22:0xacfc2930
       44965000	      4495	00000000	00000013	addi	x0,x0,0	  x0:0x00000000
       44975000	      4496	80001a6c	00000013	addi	x0,x0,0	  x0:0x00000000
       44985000	      4497	80001a70	0099c6b3	xor	x13,x19,x9	 x19:0x80009b94  x9:0x00000001 x13=0x80009b95
       44995000	      4498	80001a74	e0228397	auipc	x7,0xe0228	  x7=0x60229a70
       45005000	      4499	80001a78	be3964b7	lui	x9,0xbe396	  x9=0xbe396000
       45015000	      4500	80001a7c	723d0917	auipc	x18,0x723d0	 x18=0xf23d1a78
       45025000	      4501	80001a80	d601a713	slti	x14,x3,-672	  x3:0xfffff9f5 x14=0x00000001
       45035000	      4502	80001a84	01aa7ab3	and	x21,x20,x26	 x20:0x00000001 x26:0x720c87fe x21=0x00000000
       45045000	      4503	80001a88	0186b033	sltu	x0,x13,x24	 x13:0x80009b95 x24:0x00000001
       45055000	      4504	80001a8c	004ba303	lw	x6,4(x23)	 x23:0x80009ee8  x6=0x80002de0 PA:0x80009eec
       45065000	      4505	80001a90	889ecf13	xori	x30,x29,-1911	 x29:0x00000000 x30=0xfffff889
       45075000	      4506	80001a94	040b8b93	addi	x23,x23,64	 x23:0x80009ee8 x23=0x80009f28
       45085000	      4507	80001a98	004fdd33	srl	x26,x31,x4	 x31:0x00000001  x4:0x00000000 x26=0x00000001
       45095000	      4508	80001a9c	00030d93	addi	x27,x6,0	  x6:0x80002de0 x27=0x80002de0
       45105000	      4509	80001aa0	000d8de7	jalr	x27,x27,0	 x27:0x80002de0 x27=0x80001aa0
       45115000	      4510	00000000	00000013	addi	x0,x0,0	  x0:0x00000000
       45125000	      4511	80002de0	00000013	addi	x0,x0,0	  x0:0x00000000
       45135000	      4512	80002de4	00006797	auipc	x15,0x6	 x15=0x80008de0
       45145000	      4513	80002de8	e3978793	addi	x15,x15,-455	 x15:0x80008de0 x15=0x80008c19
       45155000	      4514	80002dec	d2b79b03	lh	x22,-725(x15)	 x15:0x80008c19 x22=0x00002e2f PA:0x80008944
       45165000	      4515	00000000	00000013	addi	x0,x0,0	  x0:0x00000000
       45175000	      4516	80002df0	1f6793a3	sh	x22,487(x15)	 x15:0x80008c19 x22:0x00002e2f PA:0x80008e00
       45185000	      4517	80002df4	1b878c83	lb	x25,440(x15)	 x15:0x80008c19 x25=0xffffffba PA:0x80008dd1
       45195000	      4518	80002df8	0ed3a197	auipc	x3,0xed3a	  x3=0x8ed3cdf4
       45205000	      4519	80002dfc	07584493	xori	x9,x16,117	 x16:0x80009fc4  x9=0x80009fb1
       45215000	      4520	80002e00	ea47cd83	lbu	x27,-348(x15)	 x15:0x80008c19 x27=0x00000000 PA:0x80008abd
       45225000	      4521	80002e04	5319ea93	ori	x21,x19,1329	 x19:0x80009b94 x21=0x80009fb5
       45235000	      4522	80002e08	2107c683	lbu	x13,528(x15)	 x15:0x80008c19 x13=0x00000012 PA:0x80008e29
       45245000	      4523	80002e0c	fef7c603	lbu	x12,-17(x15)	 x15:0x80008c19 x12=0x000000f3 PA:0x80008c08
       45255000	      4524	80002e10	9fcf0493	addi	x9,x30,-1540	 x30:0xfffff889  x9=0xfffff285
       45265000	      4525	80002e14	f8f7dd03	lhu	x26,-113(x15)	 x15:0x80008c19 x26=0x00009293 PA:0x80008ba8
       45275000	      4526	80002e18	24c78003	lb	x0,588(x15)	 x15:0x80008c19 PA:0x80008e65
       45285000	      4527	80002e1c	31c7ce03	lbu	x28,796(x15)	 x15:0x80008c19 x28=0x00000035 PA:0x80008f35
       45295000	      4528	80002e20	01b6f333	and	x6,x13,x27	 x13:0x00000012 x27:0x00000000  x6=0x00000000
       45305000	      4529	80002e24	d7f7d583	lhu	x11,-641(x15)	 x15:0x80008c19 x11=0x00008283 PA:0x80008998
       45315000	      4530	80002e28	ec17d003	lhu	x0,-319(x15)	 x15:0x80008c19 PA:0x80008ada
       45325000	      4531	80002e2c	e427ce03	lbu	x28,-446(x15)	 x15:0x80008c19 x28=0x00000040 PA:0x80008a5b
       45335000	      4532	80002e30	c0d78603	lb	x12,-1011(x15)	 x15:0x80008c19 x12=0x0000000d PA:0x80008826
       45345000	      4533	80002e34	01849593	slli	x11,x9,0x18	  x9:0xfffff285 x11=0x85000000
       45355000	      4534	80002e38	c127cf03	lbu	x30,-1006(x15)	 x15:0x80008c19 x30=0x00000010 PA:0x8000882b
       45365000	      4535	80002e3c	28f79203	lh	x4,655(x15)	 x15:0x80008c19  x4=0xffff9293 PA:0x80008ea8
       45375000	      4536	80002e40	ffb79703	lh	x14,-5(x15)	 x15:0x80008c19 x14=0xfffffeff PA:0x80008c14
       45385000	      4537	80002e44	ec37aa03	lw	x20,-317(x15)	 x15:0x80008c19 x20=0xc4c5c6c7 PA:0x80008adc
       45395000	      4538	80002e48	2bf79503	lh	x10,703(x15)	 x15:0x80008c19 x10=0xffffc2c3 PA:0x80008ed8
       45405000	      4539	80002e4c	e5c7c603	lbu	x12,-420(x15)	 x15:0x80008c19 x12=0x0000005e PA:0x80008a75
       45415000	      4540	80002e50	40458db3	sub	x27,x11,x4	 x11:0x85000000  x4:0xffff9293 x27=0x85006d6d
       45425000	      4541	80002e54	1d678583	lb	x11,470(x15)	 x15:0x80008c19 x11=0xffffffd4 PA:0x80008def
       45435000	      4542	80002e58	579eba93	sltiu	x21,x29,1401	 x29:0x00000000 x21=0x00000001
       45445000	      4543	80002e5c	0b47ada3	sw	x20,187(x15)	 x15:0x80008c19 x20:0xc4c5c6c7 PA:0x80008cd4
       45455000	      4544	80002e60	e1d78003	lb	x0,-483(x15)	 x15:0x80008c19 PA:0x80008a36
       45465000	      4545	80002e64	ee178683	lb	x13,-287(x15)	 x15:0x80008c19 x13=0x00000000 PA:0x80008afa
       45475000	      4546	80002e68	c6378423	sb	x3,-920(x15)	 x15:0x80008c19  x3:0x8ed3cdf4 PA:0x80008881
       45485000	      4547	80002e6c	ef77c703	lbu	x14,-265(x15)	 x15:0x80008c19 x14=0x000000fb PA:0x80008b10
       45495000	      4548	80002e70	13a7c903	lbu	x18,314(x15)	 x15:0x80008c19 x18=0x00000038 PA:0x80008d53
       45505000	      4549	80002e74	010344b3	xor	x9,x6,x16	  x6:0x00000000 x16:0x80009fc4  x9=0x80009fc4
       45515000	      4550	80002e78	013975b3	and	x11,x18,x19	 x18:0x00000038 x19:0x80009b94 x11=0x00000010
       45525000	      4551	80002e7c	ed07c903	lbu	x18,-304(x15)	 x15:0x80008c19 x18=0x000000d2 PA:0x80008ae9
       45535000	      4552	80002e80	ecb79503	lh	x10,-309(x15)	 x15:0x80008c19 x10=0xffffcecf PA:0x80008ae4
       45545000	      4553	80002e84	fb27ce83	lbu	x29,-78(x15)	 x15:0x80008c19 x29=0x000000b0 PA:0x80008bcb
       45555000	      4554	80002e88	41a7de33	sra	x28,x15,x26	 x15:0x80008c19 x26:0x00009293 x28=0xfffff000
       45565000	      4555	80002e8c	27a7c383	lbu	x7,634(x15)	 x15:0x80008c19  x7=0x00000078 PA:0x80008e93
       45575000	      4556	80002e90	00006797	auipc	x15,0x6	 x15=0x80008e8c
       45585000	      4557	80002e94	ecf78793	addi	x15,x15,-305	 x15:0x80008e8c x15=0x80008d5b
       45595000	      4558	80002e98	dfa78a83	lb	x21,-518(x15)	 x15:0x80008d5b x21=0x0000003e PA:0x80008b55
       45605000	      4559	80002e9c	da678003	lb	x0,-602(x15)	 x15:0x80008d5b PA:0x80008b01
       45615000	      4560	80002ea0	27678103	lb	x2,630(x15)	 x15:0x80008d5b  x2=0xffffffba PA:0x80008fd1
       45625000	      4561	80002ea4	41775213	srai	x4,x14,0x17	 x14:0x000000fb  x4=0x00000000
       45635000	      4562	80002ea8	f2a7a6a3	sw	x10,-211(x15)	 x15:0x80008d5b x10:0xffffcecf PA:0x80008c88
       45645000	      4563	80002eac	ee47aaa3	sw	x4,-267(x15)	 x15:0x80008d5b  x4:0x00000000 PA:0x80008c50
       45655000	      4564	80002eb0	fb178a23	sb	x17,-76(x15)	 x15:0x80008d5b x17:0x00000000 PA:0x80008d0f
       45665000	      4565	80002eb4	0357cc83	lbu	x25,53(x15)	 x15:0x80008d5b x25=0x0000007b PA:0x80008d90
       45675000	      4566	80002eb8	ce778223	sb	x7,-796(x15)	 x15:0x80008d5b  x7:0x00000078 PA:0x80008a3f
       45685000	      4567	80002ebc	af6797a3	sh	x22,-1297(x15)	 x15:0x80008d5b x22:0x00002e2f PA:0x8000884a
       45695000	      4568	80002ec0	00280cb3	add	x25,x16,x2	 x16:0x80009fc4  x2:0xffffffba x25=0x80009f7e
       45705000	      4569	80002ec4	01a32fb3	slt	x31,x6,x26	  x6:0x00000000 x26:0x00009293 x31=0x00000001
       45715000	      4570	80002ec8	be67c683	lbu	x13,-1050(x15)	 x15:0x80008d5b x13=0x0000002a PA:0x80008941
       45725000	      4571	80002ecc	0d37df03	lhu	x30,211(x15)	 x15:0x80008d5b x30=0x00001415 PA:0x80008e2e
       45735000	      4572	80002ed0	a74af937	lui	x18,0xa74af	 x18=0xa74af000
       45745000	      4573	80002ed4	0158d933	srl	x18,x17,x21	 x17:0x00000000 x21:0x0000003e x18=0x00000000
       45755000	      4574	80002ed8	003bd893	srli	x17,x23,0x3	 x23:0x80009f28 x17=0x100013e5
       45765000	      4575	80002edc	09a78c03	lb	x24,154(x15)	 x15:0x80008d5b x24=0xffffffde PA:0x80008df5
       45775000	      4576	80002ee0	c647c683	lbu	x13,-924(x15)	 x15:0x80008d5b x13=0x000000a4 PA:0x800089bf
       45785000	      4577	80002ee4	e81793a3	sh	x1,-377(x15)	 x15:0x80008d5b  x1:0x80000000 PA:0x80008be2
       45795000	      4578	80002ee8	23b78e23	sb	x27,572(x15)	 x15:0x80008d5b x27:0x85006d6d PA:0x80008f97
       45805000	      4579	80002eec	e047ce03	lbu	x28,-508(x15)	 x15:0x80008d5b x28=0x00000044 PA:0x80008b5f
       45815000	      4580	80002ef0	f6478283	lb	x5,-156(x15)	 x15:0x80008d5b  x5=0xffffffa4 PA:0x80008cbf
       45825000	      4581	80002ef4	41d10433	sub	x8,x2,x29	  x2:0xffffffba x29:0x000000b0  x8=0xffffff0a
       45835000	      4582	80002ef8	21978423	sb	x25,520(x15)	 x15:0x80008d5b x25:0x80009f7e PA:0x80008f63
       45845000	      4583	80002efc	c2478f83	lb	x31,-988(x15)	 x15:0x80008d5b x31=0x00000064 PA:0x8000897f
       45855000	      4584	80002f00	01aeee33	or	x28,x29,x26	 x29:0x000000b0 x26:0x00009293 x28=0x000092b3
       45865000	      4585	80002f04	e957c483	lbu	x9,-363(x15)	 x15:0x80008d5b  x9=0x000000db PA:0x80008bf0
       45875000	      4586	80002f08	08078303	lb	x6,128(x15)	 x15:0x80008d5b  x6=0xffffffc0 PA:0x80008ddb
       45885000	      4587	80002f0c	34567c93	andi	x25,x12,837	 x12:0x0000005e x25=0x00000044
       45895000	      4588	80002f10	0054dc13	srli	x24,x9,0x5	  x9:0x000000db x24=0x00000006
       45905000	      4589	80002f14	56810013	addi	x0,x2,1384	  x2:0xffffffba
       45915000	      4590	80002f18	a71ff293	andi	x5,x31,-1423	 x31:0x00000064  x5=0x00000060
       45925000	      4591	80002f1c	fdbc94b7	lui	x9,0xfdbc9	  x9=0xfdbc9000
       45935000	      4592	80002f20	01a71e13	slli	x28,x14,0x1a	 x14:0x000000fb x28=0xec000000
       45945000	      4593	80002f24	40e10333	sub	x6,x2,x14	  x2:0xffffffba x14:0x000000fb  x6=0xfffffebf
       45955000	      4594	80002f28	e857a703	lw	x14,-379(x15)	 x15:0x80008d5b x14=0x0000cacb PA:0x80008be0
       45965000	      4595	80002f2c	010328b3	slt	x17,x6,x16	  x6:0xfffffebf x16:0x80009fc4 x17=0x00000000
       45975000	      4596	80002f30	75cc8797	auipc	x15,0x75cc8	 x15=0xf5ccaf2c
       45985000	      4597	80002f34	0201de63	bge	x3,x0,80002f70	  x3:0x8ed3cdf4  x0:0x00000000
       45995000	      4598	80002f38	04a71063	bne	x14,x10,80002f78	 x14:0x0000cacb x10:0xffffcecf
       46005000	      4599	00000000	00000013	addi	x0,x0,0	  x0:0x00000000
       46015000	      4600	80002f74	00000013	addi	x0,x0,0	  x0:0x00000000
       46025000	      4601	80002f78	1b62df37	lui	x30,0x1b62d	 x30=0x1b62d000
       46035000	      4602	80002f7c	02b31e63	bne	x6,x11,80002fb8	  x6:0xfffffebf x11:0x00000010
       46045000	      4603	00000000	00000013	addi	x0,x0,0	  x0:0x00000000
       46055000	      4604	80002fb4	00000013	addi	x0,x0,0	  x0:0x00000000
       46065000	      4605	80002fb8	0c805917	auipc	x18,0xc805	 x18=0x8c807fb4
       46075000	      4606	80002fbc	03790863	beq	x18,x23,80002fec	 x18:0x8c807fb4 x23:0x80009f28
       46085000	      4607	80002fc0	01b6bcb3	sltu	x25,x13,x27	 x13:0x000000a4 x27:0x85006d6d x25=0x00000001
       46095000	      4608	80002fc4	2fec4713	xori	x14,x24,766	 x24:0x00000006 x14=0x000002f8
       46105000	      4609	80002fc8	41c38d33	sub	x26,x7,x28	  x7:0x00000078 x28:0xec000000 x26=0x14000078
       46115000	      4610	80002fcc	2d99f193	andi	x3,x19,729	 x19:0x80009b94  x3=0x00000290
       46125000	      4611	80002fd0	015d9db3	sll	x27,x27,x21	 x27:0x85006d6d x21:0x0000003e x27=0x40000000
       46135000	      4612	80002fd4	02164863	blt	x12,x1,80003004	 x12:0x0000005e  x1:0x80000000
       46145000	      4613	80002fd8	01160b33	add	x22,x12,x17	 x12:0x0000005e x17:0x00000000 x22=0x0000005e
       46155000	      4614	80002fdc	0004d663	bge	x9,x0,80002fe8	  x9:0xfdbc9000  x0:0x00000000
       46165000	      4615	80002fe0	0cd7ea13	ori	x20,x15,205	 x15:0xf5ccaf2c x20=0xf5ccafed
       46175000	      4616	80002fe4	03508263	beq	x1,x21,80003008	  x1:0x80000000 x21:0x0000003e
       46185000	      4617	80002fe8	01704e33	xor	x28,x0,x23	  x0:0x00000000 x23:0x80009f28 x28=0x80009f28
       46195000	      4618	80002fec	0317d063	bge	x15,x17,8000300c	 x15:0xf5ccaf2c x17:0x00000000
       46205000	      4619	80002ff0	4d31a113	slti	x2,x3,1235	  x3:0x00000290  x2=0x00000001
       46215000	      4620	80002ff4	40c8d6b3	sra	x13,x17,x12	 x17:0x00000000 x12:0x0000005e x13=0x00000000
       46225000	      4621	80002ff8	403bd8b3	sra	x17,x23,x3	 x23:0x80009f28  x3:0x00000290 x17=0xffff8000
       46235000	      4622	80002ffc	11ad0893	addi	x17,x26,282	 x26:0x14000078 x17=0x14000192
       46245000	      4623	80003000	952da037	lui	x0,0x952da	
       46255000	      4624	80003004	952acd13	xori	x26,x21,-1710	 x21:0x0000003e x26=0xfffff96c
       46265000	      4625	80003008	41a35e33	sra	x28,x6,x26	  x6:0xfffffebf x26:0xfffff96c x28=0xffffffff
       46275000	      4626	8000300c	01ccc333	xor	x6,x25,x28	 x25:0x00000001 x28:0xffffffff  x6=0xfffffffe
       46285000	      4627	80003010	01e97033	and	x0,x18,x30	 x18:0x8c807fb4 x30:0x1b62d000
       46295000	      4628	80003014	20143993	sltiu	x19,x8,513	  x8:0xffffff0a x19=0x00000000
       46305000	      4629	80003018	01e49933	sll	x18,x9,x30	  x9:0xfdbc9000 x30:0x1b62d000 x18=0xfdbc9000
       46315000	      4630	8000301c	053fc063	blt	x31,x19,8000305c	 x31:0x00000064 x19:0x00000000
       46325000	      4631	80003020	05c17663	bgeu	x2,x28,8000306c	  x2:0x00000001 x28:0xffffffff
       46335000	      4632	80003024	b03c0117	auipc	x2,0xb03c0	  x2=0x303c3020
       46345000	      4633	80003028	006033b3	sltu	x7,x0,x6	  x0:0x00000000  x6:0xfffffffe  x7=0x00000001
       46355000	      4634	8000302c	024f0a63	beq	x30,x4,80003060	 x30:0x1b62d000  x4:0x00000000
       46365000	      4635	80003030	00751f93	slli	x31,x10,0x7	 x10:0xffffcecf x31=0xffe76780
       46375000	      4636	80003034	500d4d93	xori	x27,x26,1280	 x26:0xfffff96c x27=0xfffffc6c
       46385000	      4637	80003038	02bdee63	bltu	x27,x11,80003074	 x27:0xfffffc6c x11:0x00000010
       46395000	      4638	8000303c	03564a63	blt	x12,x21,80003070	 x12:0x0000005e x21:0x0000003e
       46405000	      4639	80003040	5df7b297	auipc	x5,0x5df7b	  x5=0xddf7e03c
       46415000	      4640	80003044	01a308b3	add	x17,x6,x26	  x6:0xfffffffe x26:0xfffff96c x17=0xfffff96a
       46425000	      4641	80003048	41f7d633	sra	x12,x15,x31	 x15:0xf5ccaf2c x31:0xffe76780 x12=0xf5ccaf2c
       46435000	      4642	8000304c	010a8733	add	x14,x21,x16	 x21:0x0000003e x16:0x80009fc4 x14=0x8000a002
       46445000	      4643	80003050	015fb8b3	sltu	x17,x31,x21	 x31:0xffe76780 x21:0x0000003e x17=0x00000000
       46455000	      4644	80003054	d7fcd8b7	lui	x17,0xd7fcd	 x17=0xd7fcd000
       46465000	      4645	80003058	656dcf13	xori	x30,x27,1622	 x27:0xfffffc6c x30=0xfffffa3a
       46475000	      4646	8000305c	03156e63	bltu	x10,x17,80003098	 x10:0xffffcecf x17:0xd7fcd000
       46485000	      4647	80003060	d9240c13	addi	x24,x8,-622	  x8:0xffffff0a x24=0xfffffc9c
       46495000	      4648	80003064	002387b3	add	x15,x7,x2	  x7:0x00000001  x2:0x303c3020 x15=0x303c3021
       46505000	      4649	80003068	001345b3	xor	x11,x6,x1	  x6:0xfffffffe  x1:0x80000000 x11=0x7ffffffe
       46515000	      4650	8000306c	010e1033	sll	x0,x28,x16	 x28:0xffffffff x16:0x80009fc4
       46525000	      4651	80003070	ba1c2b13	slti	x22,x24,-1119	 x24:0xfffffc9c x22=0x00000000
       46535000	      4652	80003074	f0ae6113	ori	x2,x28,-246	 x28:0xffffffff  x2=0xffffffff
       46545000	      4653	80003078	04a69663	bne	x13,x10,800030c4	 x13:0x00000000 x10:0xffffcecf
       46555000	      4654	00000000	00000013	addi	x0,x0,0	  x0:0x00000000
       46565000	      4655	800030c0	00000013	addi	x0,x0,0	  x0:0x00000000
       46575000	      4656	800030c4	03f61e63	bne	x12,x31,80003100	 x12:0xf5ccaf2c x31:0xffe76780
       46585000	      4657	00000000	00000013	addi	x0,x0,0	  x0:0x00000000
       46595000	      4658	800030fc	00000013	addi	x0,x0,0	  x0:0x00000000
       46605000	      4659	80003100	024f0463	beq	x30,x4,80003128	 x30:0xfffffa3a  x4:0x00000000
       46615000	      4660	80003104	96e8ad97	auipc	x27,0x96e8a	 x27=0x16e8d100
       46625000	      4661	80003108	0269dc63	bge	x19,x6,80003140	 x19:0x00000000  x6:0xfffffffe
       46635000	      4662	00000000	00000013	addi	x0,x0,0	  x0:0x00000000
       46645000	      4663	8000313c	00000013	addi	x0,x0,0	  x0:0x00000000
       46655000	      4664	80003140	a2e92797	auipc	x15,0xa2e92	 x15=0x22e9513c
       46665000	      4665	80003144	03eb0e63	beq	x22,x30,80003180	 x22:0x00000000 x30:0xfffffa3a
       46675000	      4666	80003148	01826e33	or	x28,x4,x24	  x4:0x00000000 x24:0xfffffc9c x28=0xfffffc9c
       46685000	      4667	8000314c	494f3897	auipc	x17,0x494f3	 x17=0xc94f6148
       46695000	      4668	80003150	96760913	addi	x18,x12,-1689	 x12:0xf5ccaf2c x18=0xf5cca893
       46705000	      4669	80003154	002d5433	srl	x8,x26,x2	 x26:0xfffff96c  x2:0xffffffff  x8=0x00000001
       46715000	      4670	80003158	45273c13	sltiu	x24,x14,1106	 x14:0x8000a002 x24=0x00000000
       46725000	      4671	8000315c	03668e63	beq	x13,x22,80003198	 x13:0x00000000 x22:0x00000000
       46735000	      4672	00000000	00000013	addi	x0,x0,0	  x0:0x00000000
       46745000	      4673	80003194	00000013	addi	x0,x0,0	  x0:0x00000000
       46755000	      4674	80003198	00f7dcb3	srl	x25,x15,x15	 x15:0x22e9513c x15:0x22e9513c x25=0x00000002
       46765000	      4675	8000319c	0586c513	xori	x10,x13,88	 x13:0x00000000 x10=0x00000058
       46775000	      4676	800031a0	01166463	bltu	x12,x17,800031a8	 x12:0xf5ccaf2c x17:0xc94f6148
       46785000	      4677	800031a4	00000013	addi	x0,x0,0	  x0:0x00000000
       46795000	      4678	800031a8	01705fb3	srl	x31,x0,x23	  x0:0x00000000 x23:0x80009f28 x31=0x00000000
       46805000	      4679	800031ac	06900063	beq	x0,x9,8000320c	  x0:0x00000000  x9:0xfdbc9000
       46815000	      4680	800031b0	061bce63	blt	x23,x1,8000322c	 x23:0x80009f28  x1:0x80000000
       46825000	      4681	800031b4	41d7d733	sra	x14,x15,x29	 x15:0x22e9513c x29:0x000000b0 x14=0x000022e9
       46835000	      4682	800031b8	00f0eab3	or	x21,x1,x15	  x1:0x80000000 x15:0x22e9513c x21=0xa2e9513c
       46845000	      4683	800031bc	80b4d217	auipc	x4,0x80b4d	  x4=0x00b501b8
       46855000	      4684	800031c0	7e748493	addi	x9,x9,2023	  x9:0xfdbc9000  x9=0xfdbc97e7
       46865000	      4685	800031c4	007eea33	or	x20,x29,x7	 x29:0x000000b0  x7:0x00000001 x20=0x000000b1
       46875000	      4686	800031c8	01ad1e93	slli	x29,x26,0x1a	 x26:0xfffff96c x29=0xb0000000
       46885000	      4687	800031cc	00a5e7b3	or	x15,x11,x10	 x11:0x7ffffffe x10:0x00000058 x15=0x7ffffffe
       46895000	      4688	800031d0	9d2c8593	addi	x11,x25,-1582	 x25:0x00000002 x11=0xfffff9d4
       46905000	      4689	800031d4	01f91a93	slli	x21,x18,0x1f	 x18:0xf5cca893 x21=0x80000000
       46915000	      4690	800031d8	402f5193	srai	x3,x30,0x2	 x30:0xfffffa3a  x3=0xfffffe8e
       46925000	      4691	800031dc	70d59737	lui	x14,0x70d59	 x14=0x70d59000
       46935000	      4692	800031e0	400b0d33	sub	x26,x22,x0	 x22:0x00000000  x0:0x00000000 x26=0x00000000
       46945000	      4693	800031e4	8751c1b7	lui	x3,0x8751c	  x3=0x8751c000
       46955000	      4694	800031e8	012068b3	or	x17,x0,x18	  x0:0x00000000 x18:0xf5cca893 x17=0xf5cca893
       46965000	      4695	800031ec	00d664b3	or	x9,x12,x13	 x12:0xf5ccaf2c x13:0x00000000  x9=0xf5ccaf2c
       46975000	      4696	800031f0	01b4fe33	and	x28,x9,x27	  x9:0xf5ccaf2c x27:0x16e8d100 x28=0x14c88100
       46985000	      4697	800031f4	30bce013	ori	x0,x25,779	 x25:0x00000002
       46995000	      4698	800031f8	017a9463	bne	x21,x23,80003200	 x21:0x80000000 x23:0x80009f28
       47005000	      4699	00000000	00000013	addi	x0,x0,0	  x0:0x00000000
       47015000	      4700	800031fc	00000013	addi	x0,x0,0	  x0:0x00000000
       47025000	      4701	80003200	9d0fd36f	jal	x6,80003200	  x6=0x80003200
       47035000	      4702	00000000	00000013	addi	x0,x0,0	  x0:0x00000000
       47045000	      4703	800003cc	00000013	addi	x0,x0,0	  x0:0x00000000
       47055000	      4704	800003d0	319c8e17	auipc	x28,0x319c8	 x28=0xb19c83cc
       47065000	      4705	800003d4	1e273393	sltiu	x7,x14,482	 x14:0x70d59000  x7=0x00000000
       47075000	      4706	800003d8	4144df33	sra	x30,x9,x20	  x9:0xf5ccaf2c x20:0x000000b1 x30=0xfffffae6
       47085000	      4707	800003dc	00ce4663	blt	x28,x12,800003e8	 x28:0xb19c83cc x12:0xf5ccaf2c
       47095000	      4708	00000000	00000013	addi	x0,x0,0	  x0:0x00000000
       47105000	      4709	800003e4	00000013	addi	x0,x0,0	  x0:0x00000000
       47115000	      4710	800003e8	fc0b8b93	addi	x23,x23,-64	 x23:0x80009f28 x23=0x80009ee8
       47125000	      4711	800003ec	009516b3	sll	x13,x10,x9	 x10:0x00000058  x9:0xf5ccaf2c x13=0x00058000
       47135000	      4712	800003f0	006ba223	sw	x6,4(x23)	 x23:0x80009ee8  x6:0x80003200 PA:0x80009eec
       47145000	      4713	800003f4	00966933	or	x18,x12,x9	 x12:0xf5ccaf2c  x9:0xf5ccaf2c x18=0xf5ccaf2c
       47155000	      4714	800003f8	01fcc533	xor	x10,x25,x31	 x25:0x00000002 x31:0x00000000 x10=0x00000002
       47165000	      4715	800003fc	86ba3893	sltiu	x17,x20,-1941	 x20:0x000000b1 x17=0x00000001
       47175000	      4716	80000400	01af62b3	or	x5,x30,x26	 x30:0xfffffae6 x26:0x00000000  x5=0xfffffae6
       47185000	      4717	80000404	00000013	addi	x0,x0,0	  x0:0x00000000
       47195000	      4718	80000408	00506a63	bltu	x0,x5,8000041c	  x0:0x00000000  x5:0xfffffae6
       47205000	      4719	00000000	00000013	addi	x0,x0,0	  x0:0x00000000
       47215000	      4720	80000418	00000013	addi	x0,x0,0	  x0:0x00000000
       47225000	      4721	8000041c	0290236f	jal	x6,8000041c	  x6=0x8000041c
       47235000	      4722	00000000	00000013	addi	x0,x0,0	  x0:0x00000000
       47245000	      4723	80002c40	00000013	addi	x0,x0,0	  x0:0x00000000
       47255000	      4724	80002c44	ff4b8b93	addi	x23,x23,-12	 x23:0x80009ee8 x23=0x80009edc
       47265000	      4725	80002c48	00000013	addi	x0,x0,0	  x0:0x00000000
       47275000	      4726	80002c4c	006ba223	sw	x6,4(x23)	 x23:0x80009edc  x6:0x8000041c PA:0x80009ee0
       47285000	      4727	80002c50	6bb26d13	ori	x26,x4,1723	  x4:0x00b501b8 x26=0x00b507bb
       47295000	      4728	80002c54	0118d013	srli	x0,x17,0x11	 x17:0x00000001
       47305000	      4729	80002c58	01929213	slli	x4,x5,0x19	  x5:0xfffffae6  x4=0xcc000000
       47315000	      4730	80002c5c	0191d913	srli	x18,x3,0x19	  x3:0x8751c000 x18=0x00000043
       47325000	      4731	80002c60	00000013	addi	x0,x0,0	  x0:0x00000000
       47335000	      4732	80002c64	c184f517	auipc	x10,0xc184f	 x10=0x41851c60
       47345000	      4733	80002c68	005f26b3	slt	x13,x30,x5	 x30:0xfffffae6  x5:0xfffffae6 x13=0x00000000
       47355000	      4734	80002c6c	01fece33	xor	x28,x29,x31	 x29:0xb0000000 x31:0x00000000 x28=0xb0000000
       47365000	      4735	80002c70	404c5713	srai	x14,x24,0x4	 x24:0x00000000 x14=0x00000000
       47375000	      4736	80002c74	577dbc93	sltiu	x25,x27,1399	 x27:0x16e8d100 x25=0x00000000
       47385000	      4737	80002c78	0196dc93	srli	x25,x13,0x19	 x13:0x00000000 x25=0x00000000
       47395000	      4738	80002c7c	00ac22b3	slt	x5,x24,x10	 x24:0x00000000 x10:0x41851c60  x5=0x00000001
       47405000	      4739	80002c80	28fd7893	andi	x17,x26,655	 x26:0x00b507bb x17=0x0000028b
       47415000	      4740	80002c84	5690336f	jal	x6,80002c84	  x6=0x80002c84
       47425000	      4741	00000000	00000013	addi	x0,x0,0	  x0:0x00000000
       47435000	      4742	800069e8	00000013	addi	x0,x0,0	  x0:0x00000000
       47445000	      4743	800069ec	001e8933	add	x18,x29,x1	 x29:0xb0000000  x1:0x80000000 x18=0x30000000
       47455000	      4744	800069f0	00e67463	bgeu	x12,x14,800069f8	 x12:0xf5ccaf2c x14:0x00000000
       47465000	      4745	00000000	00000013	addi	x0,x0,0	  x0:0x00000000
       47475000	      4746	800069f4	00000013	addi	x0,x0,0	  x0:0x00000000
       47485000	      4747	800069f8	fd8b8b93	addi	x23,x23,-40	 x23:0x80009edc x23=0x80009eb4
       47495000	      4748	800069fc	76cbf113	andi	x2,x23,1900	 x23:0x80009eb4  x2=0x00000624
       47505000	      4749	80006a00	b0ad9fb7	lui	x31,0xb0ad9	 x31=0xb0ad9000
       47515000	      4750	80006a04	006ba223	sw	x6,4(x23)	 x23:0x80009eb4  x6:0x80002c84 PA:0x80009eb8
       47525000	      4751	80006a08	01e26eb3	or	x29,x4,x30	  x4:0xcc000000 x30:0xfffffae6 x29=0xfffffae6
       47535000	      4752	80006a0c	e5e6f593	andi	x11,x13,-418	 x13:0x00000000 x11=0x00000000
       47545000	      4753	80006a10	01349913	slli	x18,x9,0x13	  x9:0xf5ccaf2c x18=0x79600000
       47555000	      4754	80006a14	dc7e9317	auipc	x6,0xdc7e9	  x6=0x5c7efa10
       47565000	      4755	80006a18	ffffbc97	auipc	x25,0xffffb	 x25=0x80001a14
       47575000	      4756	80006a1c	08cc8c93	addi	x25,x25,140	 x25:0x80001a14 x25=0x80001aa0
       47585000	      4757	80006a20	01975033	srl	x0,x14,x25	 x14:0x00000000 x25:0x80001aa0
       47595000	      4758	80006a24	373c8c93	addi	x25,x25,883	 x25:0x80001aa0 x25=0x80001e13
       47605000	      4759	80006a28	009ab633	sltu	x12,x21,x9	 x21:0x80000000  x9:0xf5ccaf2c x12=0x00000001
       47615000	      4760	80006a2c	01d05b33	srl	x22,x0,x29	  x0:0x00000000 x29:0xfffffae6 x22=0x00000000
       47625000	      4761	80006a30	fa94bd17	auipc	x26,0xfa94b	 x26=0x7a951a2c
       47635000	      4762	80006a34	00f98133	add	x2,x19,x15	 x19:0x00000000 x15:0x7ffffffe  x2=0x7ffffffe
       47645000	      4763	80006a38	ab437293	andi	x5,x6,-1356	  x6:0x5c7efa10  x5=0x5c7efa10
       47655000	      4764	80006a3c	c3a1ee17	auipc	x28,0xc3a1e	 x28=0x43a24a38
       47665000	      4765	80006a40	0119e463	bltu	x19,x17,80006a48	 x19:0x00000000 x17:0x0000028b
       47675000	      4766	00000000	00000013	addi	x0,x0,0	  x0:0x00000000
       47685000	      4767	80006a44	00000013	addi	x0,x0,0	  x0:0x00000000
       47695000	      4768	80006a48	c8ec8367	jalr	x6,x25,-882	 x25:0x80001e13  x6=0x80006a48
       47705000	      4769	00000000	00000013	addi	x0,x0,0	  x0:0x00000000
       47715000	      4770	80001aa0	00000013	addi	x0,x0,0	  x0:0x00000000
       47725000	      4771	80001aa4	01389f13	slli	x30,x17,0x13	 x17:0x0000028b x30=0x14580000
       47735000	      4772	80001aa8	2c5dc437	lui	x8,0x2c5dc	  x8=0x2c5dc000
       47745000	      4773	80001aac	fc0b8b93	addi	x23,x23,-64	 x23:0x80009eb4 x23=0x80009e74
       47755000	      4774	80001ab0	00571633	sll	x12,x14,x5	 x14:0x00000000  x5:0x5c7efa10 x12=0x00000000
       47765000	      4775	80001ab4	00f79a93	slli	x21,x15,0xf	 x15:0x7ffffffe x21=0xffff0000
       47775000	      4776	80001ab8	01ea63b3	or	x7,x20,x30	 x20:0x000000b1 x30:0x14580000  x7=0x145800b1
       47785000	      4777	80001abc	406fdeb3	sra	x29,x31,x6	 x31:0xb0ad9000  x6:0x80006a48 x29=0xffb0ad90
       47795000	      4778	80001ac0	006ba223	sw	x6,4(x23)	 x23:0x80009e74  x6:0x80006a48 PA:0x80009e78
       47805000	      4779	80001ac4	512b4c93	xori	x25,x22,1298	 x22:0x00000000 x25=0x00000512
       47815000	      4780	80001ac8	08db3c93	sltiu	x25,x22,141	 x22:0x00000000 x25=0x00000001
       47825000	      4781	80001acc	00001d97	auipc	x27,0x1	 x27=0x80002ac8
       47835000	      4782	80001ad0	fc0d8d93	addi	x27,x27,-64	 x27:0x80002ac8 x27=0x80002a88
       47845000	      4783	80001ad4	15dd8d93	addi	x27,x27,349	 x27:0x80002a88 x27=0x80002be5
       47855000	      4784	80001ad8	41875f93	srai	x31,x14,0x18	 x14:0x00000000 x31=0x00000000
       47865000	      4785	80001adc	5081fd13	andi	x26,x3,1288	  x3:0x8751c000 x26=0x00000000
       47875000	      4786	80001ae0	4028dd13	srai	x26,x17,0x2	 x17:0x0000028b x26=0x000000a2
       47885000	      4787	80001ae4	01669713	slli	x14,x13,0x16	 x13:0x00000000 x14=0x00000000
       47895000	      4788	80001ae8	00b83633	sltu	x12,x16,x11	 x16:0x80009fc4 x11:0x00000000 x12=0x00000000
       47905000	      4789	80001aec	40e2d633	sra	x12,x5,x14	  x5:0x5c7efa10 x14:0x00000000 x12=0x5c7efa10
       47915000	      4790	80001af0	4129d133	sra	x2,x19,x18	 x19:0x00000000 x18:0x79600000  x2=0x00000000
       47925000	      4791	80001af4	01501863	bne	x0,x21,80001b04	  x0:0x00000000 x21:0xffff0000
       47935000	      4792	00000000	00000013	addi	x0,x0,0	  x0:0x00000000
       47945000	      4793	80001b00	00000013	addi	x0,x0,0	  x0:0x00000000
       47955000	      4794	80001b04	ea3d8367	jalr	x6,x27,-349	 x27:0x80002be5  x6=0x80001b04
       47965000	      4795	00000000	00000013	addi	x0,x0,0	  x0:0x00000000
       47975000	      4796	80002a88	00000013	addi	x0,x0,0	  x0:0x00000000
       47985000	      4797	80002a8c	01f3ab33	slt	x22,x7,x31	  x7:0x145800b1 x31:0x00000000 x22=0x00000000
       47995000	      4798	80002a90	fe0b8b93	addi	x23,x23,-32	 x23:0x80009e74 x23=0x80009e54
       48005000	      4799	80002a94	018546b3	xor	x13,x10,x24	 x10:0x41851c60 x24:0x00000000 x13=0x41851c60
       48015000	      4800	80002a98	01b34533	xor	x10,x6,x27	  x6:0x80001b04 x27:0x80002be5 x10=0x000030e1
       48025000	      4801	80002a9c	006ba223	sw	x6,4(x23)	 x23:0x80009e54  x6:0x80001b04 PA:0x80009e58
       48035000	      4802	80002aa0	41a4dd13	srai	x26,x9,0x1a	  x9:0xf5ccaf2c x26=0xfffffffd
       48045000	      4803	80002aa4	01deaab3	slt	x21,x29,x29	 x29:0xffb0ad90 x29:0xffb0ad90 x21=0x00000000
       48055000	      4804	80002aa8	00c81933	sll	x18,x16,x12	 x16:0x80009fc4 x12:0x5c7efa10 x18=0x9fc40000
       48065000	      4805	80002aac	00fb9c63	bne	x23,x15,80002ac4	 x23:0x80009e54 x15:0x7ffffffe
       48075000	      4806	00000000	00000013	addi	x0,x0,0	  x0:0x00000000
       48085000	      4807	80002ac0	00000013	addi	x0,x0,0	  x0:0x00000000
       48095000	      4808	80002ac4	01911293	slli	x5,x2,0x19	  x2:0x00000000  x5=0x00000000
       48105000	      4809	80002ac8	0036d693	srli	x13,x13,0x3	 x13:0x41851c60 x13=0x0830a38c
       48115000	      4810	80002acc	00065863	bge	x12,x0,80002adc	 x12:0x5c7efa10  x0:0x00000000
       48125000	      4811	00000000	00000013	addi	x0,x0,0	  x0:0x00000000
       48135000	      4812	80002ad8	00000013	addi	x0,x0,0	  x0:0x00000000
       48145000	      4813	80002adc	01bf3ab3	sltu	x21,x30,x27	 x30:0x14580000 x27:0x80002be5 x21=0x00000001
       48155000	      4814	80002ae0	01306b33	or	x22,x0,x19	  x0:0x00000000 x19:0x00000000 x22=0x00000000
       48165000	      4815	80002ae4	019bad33	slt	x26,x23,x25	 x23:0x80009e54 x25:0x00000001 x26=0x00000001
       48175000	      4816	80002ae8	b452ac93	slti	x25,x5,-1211	  x5:0x00000000 x25=0x00000000
       48185000	      4817	80002aec	017de263	bltu	x27,x23,80002af0	 x27:0x80002be5 x23:0x80009e54
       48195000	      4818	00000000	00000013	addi	x0,x0,0	  x0:0x00000000
       48205000	      4819	80002aec	00000013	addi	x0,x0,0	  x0:0x00000000
       48215000	      4820	80002af0	00f6d713	srli	x14,x13,0xf	 x13:0x0830a38c x14=0x00001061
       48225000	      4821	80002af4	40fdd8b3	sra	x17,x27,x15	 x27:0x80002be5 x15:0x7ffffffe x17=0xfffffffe
       48235000	      4822	80002af8	01805493	srli	x9,x0,0x18	  x0:0x00000000  x9=0x00000000
       48245000	      4823	80002afc	011123b3	slt	x7,x2,x17	  x2:0x00000000 x17:0xfffffffe  x7=0x00000000
       48255000	      4824	80002b00	00348c63	beq	x9,x3,80002b18	  x9:0x00000000  x3:0x8751c000
       48265000	      4825	80002b04	de32a913	slti	x18,x5,-541	  x5:0x00000000 x18=0x00000000
       48275000	      4826	80002b08	4004d713	srai	x14,x9,0x0	  x9:0x00000000 x14=0x00000000
       48285000	      4827	80002b0c	00b60863	beq	x12,x11,80002b1c	 x12:0x5c7efa10 x11:0x00000000
       48295000	      4828	80002b10	d79ce113	ori	x2,x25,-647	 x25:0x00000000  x2=0xfffffd79
       48305000	      4829	80002b14	01823d33	sltu	x26,x4,x24	  x4:0xcc000000 x24:0x00000000 x26=0x00000000
       48315000	      4830	80002b18	054d5863	bge	x26,x20,80002b68	 x26:0x00000000 x20:0x000000b1
       48325000	      4831	80002b1c	00000013	addi	x0,x0,0	  x0:0x00000000
       48335000	      4832	80002b20	01b05933	srl	x18,x0,x27	  x0:0x00000000 x27:0x80002be5 x18=0x00000000
       48345000	      4833	80002b24	00000013	addi	x0,x0,0	  x0:0x00000000
       48355000	      4834	80002b28	003e8cb3	add	x25,x29,x3	 x29:0xffb0ad90  x3:0x8751c000 x25=0x87026d90
       48365000	      4835	80002b2c	09e0a313	slti	x6,x1,158	  x1:0x80000000  x6=0x00000001
       48375000	      4836	80002b30	038f0c63	beq	x30,x24,80002b68	 x30:0x14580000 x24:0x00000000
       48385000	      4837	80002b34	00ed9633	sll	x12,x27,x14	 x27:0x80002be5 x14:0x00000000 x12=0x80002be5
       48395000	      4838	80002b38	00000013	addi	x0,x0,0	  x0:0x00000000
       48405000	      4839	80002b3c	93d45d37	lui	x26,0x93d45	 x26=0x93d45000
       48415000	      4840	80002b40	00375463	bge	x14,x3,80002b48	 x14:0x00000000  x3:0x8751c000
       48425000	      4841	00000000	00000013	addi	x0,x0,0	  x0:0x00000000
       48435000	      4842	80002b44	00000013	addi	x0,x0,0	  x0:0x00000000
       48445000	      4843	80002b48	02e80a63	beq	x16,x14,80002b7c	 x16:0x80009fc4 x14:0x00000000
       48455000	      4844	80002b4c	001e3f33	sltu	x30,x28,x1	 x28:0x43a24a38  x1:0x80000000 x30=0x00000001
       48465000	      4845	80002b50	00baadb3	slt	x27,x21,x11	 x21:0x00000001 x11:0x00000000 x27=0x00000000
       48475000	      4846	80002b54	00abe433	or	x8,x23,x10	 x23:0x80009e54 x10:0x000030e1  x8=0x8000bef5
       48485000	      4847	80002b58	01d77d33	and	x26,x14,x29	 x14:0x00000000 x29:0xffb0ad90 x26=0x00000000
       48495000	      4848	80002b5c	ffe5ce17	auipc	x28,0xffe5c	 x28=0x7fe5eb58
       48505000	      4849	80002b60	0166c8b3	xor	x17,x13,x22	 x13:0x0830a38c x22:0x00000000 x17=0x0830a38c
       48515000	      4850	80002b64	009f49b3	xor	x19,x30,x9	 x30:0x00000001  x9:0x00000000 x19=0x00000001
       48525000	      4851	80002b68	47db8f93	addi	x31,x23,1149	 x23:0x80009e54 x31=0x8000a2d1
       48535000	      4852	80002b6c	03d57463	bgeu	x10,x29,80002b94	 x10:0x000030e1 x29:0xffb0ad90
       48545000	      4853	80002b70	01fe64b3	or	x9,x28,x31	 x28:0x7fe5eb58 x31:0x8000a2d1  x9=0xffe5ebd9
       48555000	      4854	80002b74	016ed733	srl	x14,x29,x22	 x29:0xffb0ad90 x22:0x00000000 x14=0xffb0ad90
       48565000	      4855	80002b78	007bce33	xor	x28,x23,x7	 x23:0x80009e54  x7:0x00000000 x28=0x80009e54
       48575000	      4856	80002b7c	005f1513	slli	x10,x30,0x5	 x30:0x00000001 x10=0x00000020
       48585000	      4857	80002b80	008845b3	xor	x11,x16,x8	 x16:0x80009fc4  x8:0x8000bef5 x11=0x00002131
       48595000	      4858	80002b84	4159d633	sra	x12,x19,x21	 x19:0x00000001 x21:0x00000001 x12=0x00000000
       48605000	      4859	80002b88	925caf13	slti	x30,x25,-1755	 x25:0x87026d90 x30=0x00000001
       48615000	      4860	80002b8c	014cbdb3	sltu	x27,x25,x20	 x25:0x87026d90 x20:0x000000b1 x27=0x00000000
       48625000	      4861	80002b90	00db23b3	slt	x7,x22,x13	 x22:0x00000000 x13:0x0830a38c  x7=0x00000001
       48635000	      4862	80002b94	7e30d637	lui	x12,0x7e30d	 x12=0x7e30d000
       48645000	      4863	80002b98	005e4433	xor	x8,x28,x5	 x28:0x80009e54  x5:0x00000000  x8=0x80009e54
       48655000	      4864	80002b9c	001f3b33	sltu	x22,x30,x1	 x30:0x00000001  x1:0x80000000 x22=0x00000001
       48665000	      4865	80002ba0	b03aba13	sltiu	x20,x21,-1277	 x21:0x00000001 x20=0x00000001
       48675000	      4866	80002ba4	9c87fc93	andi	x25,x15,-1592	 x15:0x7ffffffe x25=0x7ffff9c8
       48685000	      4867	80002ba8	00aa8a33	add	x20,x21,x10	 x21:0x00000001 x10:0x00000020 x20=0x00000021
       48695000	      4868	80002bac	010df463	bgeu	x27,x16,80002bb4	 x27:0x00000000 x16:0x80009fc4
       48705000	      4869	80002bb0	03fd4063	blt	x26,x31,80002bd0	 x26:0x00000000 x31:0x8000a2d1
       48715000	      4870	80002bb4	011153b3	srl	x7,x2,x17	  x2:0xfffffd79 x17:0x0830a38c  x7=0x000fffff
       48725000	      4871	80002bb8	04ba4063	blt	x20,x11,80002bf8	 x20:0x00000021 x11:0x00002131
       48735000	      4872	00000000	00000013	addi	x0,x0,0	  x0:0x00000000
       48745000	      4873	80002bf4	00000013	addi	x0,x0,0	  x0:0x00000000
       48755000	      4874	80002bf8	40b45633	sra	x12,x8,x11	  x8:0x80009e54 x11:0x00002131 x12=0xffffc000
       48765000	      4875	80002bfc	014a3eb3	sltu	x29,x20,x20	 x20:0x00000021 x20:0x00000021 x29=0x00000000
       48775000	      4876	80002c00	01608933	add	x18,x1,x22	  x1:0x80000000 x22:0x00000001 x18=0x80000001
       48785000	      4877	80002c04	862b9197	auipc	x3,0x862b9	  x3=0x062bbc00
       48795000	      4878	80002c08	cb886f13	ori	x30,x16,-840	 x16:0x80009fc4 x30=0xfffffffc
       48805000	      4879	80002c0c	01c2e463	bltu	x5,x28,80002c14	  x5:0x00000000 x28:0x80009e54
       48815000	      4880	00000000	00000013	addi	x0,x0,0	  x0:0x00000000
       48825000	      4881	80002c10	00000013	addi	x0,x0,0	  x0:0x00000000
       48835000	      4882	80002c14	e60ce217	auipc	x4,0xe60ce	  x4=0x660d0c10
       48845000	      4883	80002c18	01c411b3	sll	x3,x8,x28	  x8:0x80009e54 x28:0x80009e54  x3=0xe5400000
       48855000	      4884	80002c1c	004ba303	lw	x6,4(x23)	 x23:0x80009e54  x6=0x80001b04 PA:0x80009e58
       48865000	      4885	80002c20	011e9393	slli	x7,x29,0x11	 x29:0x00000000  x7=0x00000000
       48875000	      4886	80002c24	00266ab3	or	x21,x12,x2	 x12:0xffffc000  x2:0xfffffd79 x21=0xfffffd79
       48885000	      4887	80002c28	020b8b93	addi	x23,x23,32	 x23:0x80009e54 x23=0x80009e74
       48895000	      4888	80002c2c	1b3c7517	auipc	x10,0x1b3c7	 x10=0x9b3c9c28
       48905000	      4889	80002c30	01225033	srl	x0,x4,x18	  x4:0x660d0c10 x18:0x80000001
       48915000	      4890	80002c34	dff9c713	xori	x14,x19,-513	 x19:0x00000001 x14=0xfffffdfe
       48925000	      4891	80002c38	210ec993	xori	x19,x29,528	 x29:0x00000000 x19=0x00000210
       48935000	      4892	80002c3c	00130993	addi	x19,x6,1	  x6:0x80001b04 x19=0x80001b05
       48945000	      4893	80002c40	000989e7	jalr	x19,x19,0	 x19:0x80001b05 x19=0x80002c40
       48955000	      4894	00000000	00000013	addi	x0,x0,0	  x0:0x00000000
       48965000	      4895	80001b04	00000013	addi	x0,x0,0	  x0:0x00000000
       48975000	      4896	80001b08	3c2bc737	lui	x14,0x3c2bc	 x14=0x3c2bc000
       48985000	      4897	80001b0c	02467263	bgeu	x12,x4,80001b30	 x12:0xffffc000  x4:0x660d0c10
       48995000	      4898	00000000	00000013	addi	x0,x0,0	  x0:0x00000000
       49005000	      4899	80001b2c	00000013	addi	x0,x0,0	  x0:0x00000000
       49015000	      4900	80001b30	75d0036f	jal	x6,80001b30	  x6=0x80001b30
       49025000	      4901	00000000	00000013	addi	x0,x0,0	  x0:0x00000000
       49035000	      4902	80002a88	00000013	addi	x0,x0,0	  x0:0x00000000
       49045000	      4903	80002a8c	01f3ab33	slt	x22,x7,x31	  x7:0x00000000 x31:0x8000a2d1 x22=0x00000000
       49055000	      4904	80002a90	fe0b8b93	addi	x23,x23,-32	 x23:0x80009e74 x23=0x80009e54
       49065000	      4905	80002a94	018546b3	xor	x13,x10,x24	 x10:0x9b3c9c28 x24:0x00000000 x13=0x9b3c9c28
       49075000	      4906	80002a98	01b34533	xor	x10,x6,x27	  x6:0x80001b30 x27:0x00000000 x10=0x80001b30
       49085000	      4907	80002a9c	006ba223	sw	x6,4(x23)	 x23:0x80009e54  x6:0x80001b30 PA:0x80009e58
       49095000	      4908	80002aa0	41a4dd13	srai	x26,x9,0x1a	  x9:0xffe5ebd9 x26=0xffffffff
       49105000	      4909	80002aa4	01deaab3	slt	x21,x29,x29	 x29:0x00000000 x29:0x00000000 x21=0x00000000
       49115000	      4910	80002aa8	00c81933	sll	x18,x16,x12	 x16:0x80009fc4 x12:0xffffc000 x18=0x80009fc4
       49125000	      4911	80002aac	00fb9c63	bne	x23,x15,80002ac4	 x23:0x80009e54 x15:0x7ffffffe
       49135000	      4912	00000000	00000013	addi	x0,x0,0	  x0:0x00000000
       49145000	      4913	80002ac0	00000013	addi	x0,x0,0	  x0:0x00000000
       49155000	      4914	80002ac4	01911293	slli	x5,x2,0x19	  x2:0xfffffd79  x5=0xf2000000
       49165000	      4915	80002ac8	0036d693	srli	x13,x13,0x3	 x13:0x9b3c9c28 x13=0x13679385
       49175000	      4916	80002acc	00065863	bge	x12,x0,80002adc	 x12:0xffffc000  x0:0x00000000
       49185000	      4917	80002ad0	007edc63	bge	x29,x7,80002ae8	 x29:0x00000000  x7:0x00000000
       49195000	      4918	00000000	00000013	addi	x0,x0,0	  x0:0x00000000
       49205000	      4919	80002ae4	00000013	addi	x0,x0,0	  x0:0x00000000
       49215000	      4920	80002ae8	b452ac93	slti	x25,x5,-1211	  x5:0xf2000000 x25=0x00000001
       49225000	      4921	80002aec	017de263	bltu	x27,x23,80002af0	 x27:0x00000000 x23:0x80009e54
       49235000	      4922	00000000	00000013	addi	x0,x0,0	  x0:0x00000000
       49245000	      4923	80002aec	00000013	addi	x0,x0,0	  x0:0x00000000
       49255000	      4924	80002af0	00f6d713	srli	x14,x13,0xf	 x13:0x13679385 x14=0x000026cf
       49265000	      4925	80002af4	40fdd8b3	sra	x17,x27,x15	 x27:0x00000000 x15:0x7ffffffe x17=0x00000000
       49275000	      4926	80002af8	01805493	srli	x9,x0,0x18	  x0:0x00000000  x9=0x00000000
       49285000	      4927	80002afc	011123b3	slt	x7,x2,x17	  x2:0xfffffd79 x17:0x00000000  x7=0x00000001
       49295000	      4928	80002b00	00348c63	beq	x9,x3,80002b18	  x9:0x00000000  x3:0xe5400000
       49305000	      4929	80002b04	de32a913	slti	x18,x5,-541	  x5:0xf2000000 x18=0x00000001
       49315000	      4930	80002b08	4004d713	srai	x14,x9,0x0	  x9:0x00000000 x14=0x00000000
       49325000	      4931	80002b0c	00b60863	beq	x12,x11,80002b1c	 x12:0xffffc000 x11:0x00002131
       49335000	      4932	80002b10	d79ce113	ori	x2,x25,-647	 x25:0x00000001  x2=0xfffffd79
       49345000	      4933	80002b14	01823d33	sltu	x26,x4,x24	  x4:0x660d0c10 x24:0x00000000 x26=0x00000000
       49355000	      4934	80002b18	054d5863	bge	x26,x20,80002b68	 x26:0x00000000 x20:0x00000021
       49365000	      4935	80002b1c	00000013	addi	x0,x0,0	  x0:0x00000000
       49375000	      4936	80002b20	01b05933	srl	x18,x0,x27	  x0:0x00000000 x27:0x00000000 x18=0x00000000
       49385000	      4937	80002b24	00000013	addi	x0,x0,0	  x0:0x00000000
       49395000	      4938	80002b28	003e8cb3	add	x25,x29,x3	 x29:0x00000000  x3:0xe5400000 x25=0xe5400000
       49405000	      4939	80002b2c	09e0a313	slti	x6,x1,158	  x1:0x80000000  x6=0x00000001
       49415000	      4940	80002b30	038f0c63	beq	x30,x24,80002b68	 x30:0xfffffffc x24:0x00000000
       49425000	      4941	80002b34	00ed9633	sll	x12,x27,x14	 x27:0x00000000 x14:0x00000000 x12=0x00000000
       49435000	      4942	80002b38	00000013	addi	x0,x0,0	  x0:0x00000000
       49445000	      4943	80002b3c	93d45d37	lui	x26,0x93d45	 x26=0x93d45000
       49455000	      4944	80002b40	00375463	bge	x14,x3,80002b48	 x14:0x00000000  x3:0xe5400000
       49465000	      4945	00000000	00000013	addi	x0,x0,0	  x0:0x00000000
       49475000	      4946	80002b44	00000013	addi	x0,x0,0	  x0:0x00000000
       49485000	      4947	80002b48	02e80a63	beq	x16,x14,80002b7c	 x16:0x80009fc4 x14:0x00000000
       49495000	      4948	80002b4c	001e3f33	sltu	x30,x28,x1	 x28:0x80009e54  x1:0x80000000 x30=0x00000000
       49505000	      4949	80002b50	00baadb3	slt	x27,x21,x11	 x21:0x00000000 x11:0x00002131 x27=0x00000001
       49515000	      4950	80002b54	00abe433	or	x8,x23,x10	 x23:0x80009e54 x10:0x80001b30  x8=0x80009f74
       49525000	      4951	80002b58	01d77d33	and	x26,x14,x29	 x14:0x00000000 x29:0x00000000 x26=0x00000000
       49535000	      4952	80002b5c	ffe5ce17	auipc	x28,0xffe5c	 x28=0x7fe5eb58
       49545000	      4953	80002b60	0166c8b3	xor	x17,x13,x22	 x13:0x13679385 x22:0x00000000 x17=0x13679385
       49555000	      4954	80002b64	009f49b3	xor	x19,x30,x9	 x30:0x00000000  x9:0x00000000 x19=0x00000000
       49565000	      4955	80002b68	47db8f93	addi	x31,x23,1149	 x23:0x80009e54 x31=0x8000a2d1
       49575000	      4956	80002b6c	03d57463	bgeu	x10,x29,80002b94	 x10:0x80001b30 x29:0x00000000
       49585000	      4957	00000000	00000013	addi	x0,x0,0	  x0:0x00000000
       49595000	      4958	80002b90	00000013	addi	x0,x0,0	  x0:0x00000000
       49605000	      4959	80002b94	7e30d637	lui	x12,0x7e30d	 x12=0x7e30d000
       49615000	      4960	80002b98	005e4433	xor	x8,x28,x5	 x28:0x7fe5eb58  x5:0xf2000000  x8=0x8de5eb58
       49625000	      4961	80002b9c	001f3b33	sltu	x22,x30,x1	 x30:0x00000000  x1:0x80000000 x22=0x00000001
       49635000	      4962	80002ba0	b03aba13	sltiu	x20,x21,-1277	 x21:0x00000000 x20=0x00000001
       49645000	      4963	80002ba4	9c87fc93	andi	x25,x15,-1592	 x15:0x7ffffffe x25=0x7ffff9c8
       49655000	      4964	80002ba8	00aa8a33	add	x20,x21,x10	 x21:0x00000000 x10:0x80001b30 x20=0x80001b30
       49665000	      4965	80002bac	010df463	bgeu	x27,x16,80002bb4	 x27:0x00000001 x16:0x80009fc4
       49675000	      4966	80002bb0	03fd4063	blt	x26,x31,80002bd0	 x26:0x00000000 x31:0x8000a2d1
       49685000	      4967	80002bb4	011153b3	srl	x7,x2,x17	  x2:0xfffffd79 x17:0x13679385  x7=0x07ffffeb
       49695000	      4968	80002bb8	04ba4063	blt	x20,x11,80002bf8	 x20:0x80001b30 x11:0x00002131
       49705000	      4969	00000000	00000013	addi	x0,x0,0	  x0:0x00000000
       49715000	      4970	80002bf4	00000013	addi	x0,x0,0	  x0:0x00000000
       49725000	      4971	80002bf8	40b45633	sra	x12,x8,x11	  x8:0x8de5eb58 x11:0x00002131 x12=0xffffc6f2
       49735000	      4972	80002bfc	014a3eb3	sltu	x29,x20,x20	 x20:0x80001b30 x20:0x80001b30 x29=0x00000000
       49745000	      4973	80002c00	01608933	add	x18,x1,x22	  x1:0x80000000 x22:0x00000001 x18=0x80000001
       49755000	      4974	80002c04	862b9197	auipc	x3,0x862b9	  x3=0x062bbc00
       49765000	      4975	80002c08	cb886f13	ori	x30,x16,-840	 x16:0x80009fc4 x30=0xfffffffc
       49775000	      4976	80002c0c	01c2e463	bltu	x5,x28,80002c14	  x5:0xf2000000 x28:0x7fe5eb58
       49785000	      4977	80002c10	00cdd793	srli	x15,x27,0xc	 x27:0x00000001 x15=0x00000000
       49795000	      4978	80002c14	e60ce217	auipc	x4,0xe60ce	  x4=0x660d0c10
       49805000	      4979	80002c18	01c411b3	sll	x3,x8,x28	  x8:0x8de5eb58 x28:0x7fe5eb58  x3=0x58000000
       49815000	      4980	80002c1c	004ba303	lw	x6,4(x23)	 x23:0x80009e54  x6=0x80001b30 PA:0x80009e58
       49825000	      4981	80002c20	011e9393	slli	x7,x29,0x11	 x29:0x00000000  x7=0x00000000
       49835000	      4982	80002c24	00266ab3	or	x21,x12,x2	 x12:0xffffc6f2  x2:0xfffffd79 x21=0xfffffffb
       49845000	      4983	80002c28	020b8b93	addi	x23,x23,32	 x23:0x80009e54 x23=0x80009e74
       49855000	      4984	80002c2c	1b3c7517	auipc	x10,0x1b3c7	 x10=0x9b3c9c28
       49865000	      4985	80002c30	01225033	srl	x0,x4,x18	  x4:0x660d0c10 x18:0x80000001
       49875000	      4986	80002c34	dff9c713	xori	x14,x19,-513	 x19:0x00000000 x14=0xfffffdff
       49885000	      4987	80002c38	210ec993	xori	x19,x29,528	 x29:0x00000000 x19=0x00000210
       49895000	      4988	80002c3c	00130993	addi	x19,x6,1	  x6:0x80001b30 x19=0x80001b31
       49905000	      4989	80002c40	000989e7	jalr	x19,x19,0	 x19:0x80001b31 x19=0x80002c40
       49915000	      4990	00000000	00000013	addi	x0,x0,0	  x0:0x00000000
       49925000	      4991	80001b30	00000013	addi	x0,x0,0	  x0:0x00000000
       49935000	      4992	80001b34	02b98863	beq	x19,x11,80001b64	 x19:0x80002c40 x11:0x00002131
       49945000	      4993	80001b38	001e8863	beq	x29,x1,80001b48	 x29:0x00000000  x1:0x80000000
       49955000	      4994	80001b3c	b1b80d13	addi	x26,x16,-1253	 x16:0x80009fc4 x26=0x80009adf
       49965000	      4995	80001b40	f064eab7	lui	x21,0xf064e	 x21=0xf064e000
       49975000	      4996	80001b44	05944463	blt	x8,x25,80001b8c	  x8:0x8de5eb58 x25:0x7ffff9c8
       49985000	      4997	00000000	00000013	addi	x0,x0,0	  x0:0x00000000
       49995000	      4998	80001b88	00000013	addi	x0,x0,0	  x0:0x00000000
       50005000	      4999	80001b8c	03909463	bne	x1,x25,80001bb4	  x1:0x80000000 x25:0x7ffff9c8
       50015000	      5000	00000000	00000013	addi	x0,x0,0	  x0:0x00000000
       50025000	      5001	80001bb0	00000013	addi	x0,x0,0	  x0:0x00000000
       50035000	      5002	80001bb4	00439393	slli	x7,x7,0x4	  x7:0x00000000  x7=0x00000000
       50045000	      5003	80001bb8	679d6017	auipc	x0,0x679d6	
       50055000	      5004	80001bbc	4fa9a2b7	lui	x5,0x4fa9a	  x5=0x4fa9a000
       50065000	      5005	80001bc0	01a858b3	srl	x17,x16,x26	 x16:0x80009fc4 x26:0x80009adf x17=0x00000001
       50075000	      5006	80001bc4	411888b3	sub	x17,x17,x17	 x17:0x00000001 x17:0x00000001 x17=0x00000000
       50085000	      5007	80001bc8	00c58013	addi	x0,x11,12	 x11:0x00002131
       50095000	      5008	80001bcc	01621cb3	sll	x25,x4,x22	  x4:0x660d0c10 x22:0x00000001 x25=0xcc1a1820
       50105000	      5009	80001bd0	417c0d33	sub	x26,x24,x23	 x24:0x00000000 x23:0x80009e74 x26=0x7fff618c
       50115000	      5010	80001bd4	419185b3	sub	x11,x3,x25	  x3:0x58000000 x25:0xcc1a1820 x11=0x8be5e7e0
       50125000	      5011	80001bd8	018915b3	sll	x11,x18,x24	 x18:0x80000001 x24:0x00000000 x11=0x80000001
       50135000	      5012	80001bdc	0052cc33	xor	x24,x5,x5	  x5:0x4fa9a000  x5:0x4fa9a000 x24=0x00000000
       50145000	      5013	80001be0	00ea6133	or	x2,x20,x14	 x20:0x80001b30 x14:0xfffffdff  x2=0xffffffff
       50155000	      5014	80001be4	41a10a33	sub	x20,x2,x26	  x2:0xffffffff x26:0x7fff618c x20=0x80009e73
       50165000	      5015	80001be8	67d56493	ori	x9,x10,1661	 x10:0x9b3c9c28  x9=0x9b3c9e7d
       50175000	      5016	80001bec	16ab2013	slti	x0,x22,362	 x22:0x00000001
       50185000	      5017	80001bf0	40b2d033	sra	x0,x5,x11	  x5:0x4fa9a000 x11:0x80000001
       50195000	      5018	80001bf4	01bba3b3	slt	x7,x23,x27	 x23:0x80009e74 x27:0x00000001  x7=0x00000001
       50205000	      5019	80001bf8	0266e663	bltu	x13,x6,80001c24	 x13:0x13679385  x6:0x80001b30
       50215000	      5020	00000000	00000013	addi	x0,x0,0	  x0:0x00000000
       50225000	      5021	80001c20	00000013	addi	x0,x0,0	  x0:0x00000000
       50235000	      5022	80001c24	00980e63	beq	x16,x9,80001c40	 x16:0x80009fc4  x9:0x9b3c9e7d
       50245000	      5023	80001c28	a1ed2413	slti	x8,x26,-1506	 x26:0x7fff618c  x8=0x00000000
       50255000	      5024	80001c2c	000e5ab3	srl	x21,x28,x0	 x28:0x7fe5eb58  x0:0x00000000 x21=0x7fe5eb58
       50265000	      5025	80001c30	00000013	addi	x0,x0,0	  x0:0x00000000
       50275000	      5026	80001c34	0188c663	blt	x17,x24,80001c40	 x17:0x00000000 x24:0x00000000
       50285000	      5027	80001c38	af657513	andi	x10,x10,-1290	 x10:0x9b3c9c28 x10=0x9b3c9820
       50295000	      5028	80001c3c	41775633	sra	x12,x14,x23	 x14:0xfffffdff x23:0x80009e74 x12=0xffffffff
       50305000	      5029	80001c40	002a5533	srl	x10,x20,x2	 x20:0x80009e73  x2:0xffffffff x10=0x00000001
       50315000	      5030	80001c44	004ba303	lw	x6,4(x23)	 x23:0x80009e74  x6=0x80006a48 PA:0x80009e78
       50325000	      5031	80001c48	00fd41b3	xor	x3,x26,x15	 x26:0x7fff618c x15:0x00000000  x3=0x7fff618c
       50335000	      5032	80001c4c	040b8b93	addi	x23,x23,64	 x23:0x80009e74 x23=0x80009eb4
       50345000	      5033	80001c50	001eda93	srli	x21,x29,0x1	 x29:0x00000000 x21=0x00000000
       50355000	      5034	80001c54	005ce933	or	x18,x25,x5	 x25:0xcc1a1820  x5:0x4fa9a000 x18=0xcfbbb820
       50365000	      5035	80001c58	003c2233	slt	x4,x24,x3	 x24:0x00000000  x3:0x7fff618c  x4=0x00000001
       50375000	      5036	80001c5c	00e77b33	and	x22,x14,x14	 x14:0xfffffdff x14:0xfffffdff x22=0xfffffdff
       50385000	      5037	80001c60	00030993	addi	x19,x6,0	  x6:0x80006a48 x19=0x80006a48
       50395000	      5038	80001c64	000989e7	jalr	x19,x19,0	 x19:0x80006a48 x19=0x80001c64
       50405000	      5039	00000000	00000013	addi	x0,x0,0	  x0:0x00000000
       50415000	      5040	80006a48	00000013	addi	x0,x0,0	  x0:0x00000000
       50425000	      5041	80006a4c	4196dd33	sra	x26,x13,x25	 x13:0x13679385 x25:0xcc1a1820 x26=0x13679385
       50435000	      5042	80006a50	007881b3	add	x3,x17,x7	 x17:0x00000000  x7:0x00000001  x3=0x00000001
       50445000	      5043	80006a54	c8484e13	xori	x28,x16,-892	 x16:0x80009fc4 x28=0x7fff6340
       50455000	      5044	80006a58	24e9b193	sltiu	x3,x19,590	 x19:0x80001c64  x3=0x00000000
       50465000	      5045	80006a5c	74acb413	sltiu	x8,x25,1866	 x25:0xcc1a1820  x8=0x00000000
       50475000	      5046	80006a60	01301db3	sll	x27,x0,x19	  x0:0x00000000 x19:0x80001c64 x27=0x00000000
       50485000	      5047	80006a64	64c9ff97	auipc	x31,0x64c9f	 x31=0xe4ca5a60
       50495000	      5048	80006a68	ffffbe97	auipc	x29,0xffffb	 x29=0x80001a64
       50505000	      5049	80006a6c	03ce8e93	addi	x29,x29,60	 x29:0x80001a64 x29=0x80001aa0
       50515000	      5050	80006a70	01014ab3	xor	x21,x2,x16	  x2:0xffffffff x16:0x80009fc4 x21=0x7fff603b
       50525000	      5051	80006a74	350e8e93	addi	x29,x29,848	 x29:0x80001aa0 x29=0x80001df0
       50535000	      5052	80006a78	013e15b3	sll	x11,x28,x19	 x28:0x7fff6340 x19:0x80001c64 x11=0xfff63400
       50545000	      5053	80006a7c	4069d293	srai	x5,x19,0x6	 x19:0x80001c64  x5=0xfe000071
       50555000	      5054	80006a80	cb0e8367	jalr	x6,x29,-848	 x29:0x80001df0  x6=0x80006a80
       50565000	      5055	00000000	00000013	addi	x0,x0,0	  x0:0x00000000
       50575000	      5056	80001aa0	00000013	addi	x0,x0,0	  x0:0x00000000
       50585000	      5057	80001aa4	01389f13	slli	x30,x17,0x13	 x17:0x00000000 x30=0x00000000
       50595000	      5058	80001aa8	2c5dc437	lui	x8,0x2c5dc	  x8=0x2c5dc000
       50605000	      5059	80001aac	fc0b8b93	addi	x23,x23,-64	 x23:0x80009eb4 x23=0x80009e74
       50615000	      5060	80001ab0	00571633	sll	x12,x14,x5	 x14:0xfffffdff  x5:0xfe000071 x12=0xfbfe0000
       50625000	      5061	80001ab4	00f79a93	slli	x21,x15,0xf	 x15:0x00000000 x21=0x00000000
       50635000	      5062	80001ab8	01ea63b3	or	x7,x20,x30	 x20:0x80009e73 x30:0x00000000  x7=0x80009e73
       50645000	      5063	80001abc	406fdeb3	sra	x29,x31,x6	 x31:0xe4ca5a60  x6:0x80006a80 x29=0xe4ca5a60
       50655000	      5064	80001ac0	006ba223	sw	x6,4(x23)	 x23:0x80009e74  x6:0x80006a80 PA:0x80009e78
       50665000	      5065	80001ac4	512b4c93	xori	x25,x22,1298	 x22:0xfffffdff x25=0xfffff8ed
       50675000	      5066	80001ac8	08db3c93	sltiu	x25,x22,141	 x22:0xfffffdff x25=0x00000000
       50685000	      5067	80001acc	00001d97	auipc	x27,0x1	 x27=0x80002ac8
       50695000	      5068	80001ad0	fc0d8d93	addi	x27,x27,-64	 x27:0x80002ac8 x27=0x80002a88
       50705000	      5069	80001ad4	15dd8d93	addi	x27,x27,349	 x27:0x80002a88 x27=0x80002be5
       50715000	      5070	80001ad8	41875f93	srai	x31,x14,0x18	 x14:0xfffffdff x31=0xffffffff
       50725000	      5071	80001adc	5081fd13	andi	x26,x3,1288	  x3:0x00000000 x26=0x00000000
       50735000	      5072	80001ae0	4028dd13	srai	x26,x17,0x2	 x17:0x00000000 x26=0x00000000
       50745000	      5073	80001ae4	01669713	slli	x14,x13,0x16	 x13:0x13679385 x14=0xe1400000
       50755000	      5074	80001ae8	00b83633	sltu	x12,x16,x11	 x16:0x80009fc4 x11:0xfff63400 x12=0x00000001
       50765000	      5075	80001aec	40e2d633	sra	x12,x5,x14	  x5:0xfe000071 x14:0xe1400000 x12=0xfe000071
       50775000	      5076	80001af0	4129d133	sra	x2,x19,x18	 x19:0x80001c64 x18:0xcfbbb820  x2=0x80001c64
       50785000	      5077	80001af4	01501863	bne	x0,x21,80001b04	  x0:0x00000000 x21:0x00000000
       50795000	      5078	80001af8	4012db13	srai	x22,x5,0x1	  x5:0xfe000071 x22=0xff000038
       50805000	      5079	80001afc	edc2d597	auipc	x11,0xedc2d	 x11=0x6dc2eaf8
       50815000	      5080	80001b00	62c23513	sltiu	x10,x4,1580	  x4:0x00000001 x10=0x00000001
       50825000	      5081	80001b04	ea3d8367	jalr	x6,x27,-349	 x27:0x80002be5  x6=0x80001b04
       50835000	      5082	00000000	00000013	addi	x0,x0,0	  x0:0x00000000
       50845000	      5083	80002a88	00000013	addi	x0,x0,0	  x0:0x00000000
       50855000	      5084	80002a8c	01f3ab33	slt	x22,x7,x31	  x7:0x80009e73 x31:0xffffffff x22=0x00000001
       50865000	      5085	80002a90	fe0b8b93	addi	x23,x23,-32	 x23:0x80009e74 x23=0x80009e54
       50875000	      5086	80002a94	018546b3	xor	x13,x10,x24	 x10:0x00000001 x24:0x00000000 x13=0x00000001
       50885000	      5087	80002a98	01b34533	xor	x10,x6,x27	  x6:0x80001b04 x27:0x80002be5 x10=0x000030e1
       50895000	      5088	80002a9c	006ba223	sw	x6,4(x23)	 x23:0x80009e54  x6:0x80001b04 PA:0x80009e58
       50905000	      5089	80002aa0	41a4dd13	srai	x26,x9,0x1a	  x9:0x9b3c9e7d x26=0xffffffe6
       50915000	      5090	80002aa4	01deaab3	slt	x21,x29,x29	 x29:0xe4ca5a60 x29:0xe4ca5a60 x21=0x00000000
       50925000	      5091	80002aa8	00c81933	sll	x18,x16,x12	 x16:0x80009fc4 x12:0xfe000071 x18=0x3f880000
       50935000	      5092	80002aac	00fb9c63	bne	x23,x15,80002ac4	 x23:0x80009e54 x15:0x00000000
       50945000	      5093	00000000	00000013	addi	x0,x0,0	  x0:0x00000000
       50955000	      5094	80002ac0	00000013	addi	x0,x0,0	  x0:0x00000000
       50965000	      5095	80002ac4	01911293	slli	x5,x2,0x19	  x2:0x80001c64  x5=0xc8000000
       50975000	      5096	80002ac8	0036d693	srli	x13,x13,0x3	 x13:0x00000001 x13=0x00000000
       50985000	      5097	80002acc	00065863	bge	x12,x0,80002adc	 x12:0xfe000071  x0:0x00000000
       50995000	      5098	80002ad0	007edc63	bge	x29,x7,80002ae8	 x29:0xe4ca5a60  x7:0x80009e73
       51005000	      5099	00000000	00000013	addi	x0,x0,0	  x0:0x00000000
       51015000	      5100	80002ae4	00000013	addi	x0,x0,0	  x0:0x00000000
       51025000	      5101	80002ae8	b452ac93	slti	x25,x5,-1211	  x5:0xc8000000 x25=0x00000001
       51035000	      5102	80002aec	017de263	bltu	x27,x23,80002af0	 x27:0x80002be5 x23:0x80009e54
       51045000	      5103	00000000	00000013	addi	x0,x0,0	  x0:0x00000000
       51055000	      5104	80002aec	00000013	addi	x0,x0,0	  x0:0x00000000
       51065000	      5105	80002af0	00f6d713	srli	x14,x13,0xf	 x13:0x00000000 x14=0x00000000
       51075000	      5106	80002af4	40fdd8b3	sra	x17,x27,x15	 x27:0x80002be5 x15:0x00000000 x17=0x80002be5
       51085000	      5107	80002af8	01805493	srli	x9,x0,0x18	  x0:0x00000000  x9=0x00000000
       51095000	      5108	80002afc	011123b3	slt	x7,x2,x17	  x2:0x80001c64 x17:0x80002be5  x7=0x00000001
       51105000	      5109	80002b00	00348c63	beq	x9,x3,80002b18	  x9:0x00000000  x3:0x00000000
       51115000	      5110	00000000	00000013	addi	x0,x0,0	  x0:0x00000000
       51125000	      5111	80002b14	00000013	addi	x0,x0,0	  x0:0x00000000
       51135000	      5112	80002b18	054d5863	bge	x26,x20,80002b68	 x26:0xffffffe6 x20:0x80009e73
       51145000	      5113	00000000	00000013	addi	x0,x0,0	  x0:0x00000000
       51155000	      5114	80002b64	00000013	addi	x0,x0,0	  x0:0x00000000
       51165000	      5115	80002b68	47db8f93	addi	x31,x23,1149	 x23:0x80009e54 x31=0x8000a2d1
       51175000	      5116	80002b6c	03d57463	bgeu	x10,x29,80002b94	 x10:0x000030e1 x29:0xe4ca5a60
       51185000	      5117	80002b70	01fe64b3	or	x9,x28,x31	 x28:0x7fff6340 x31:0x8000a2d1  x9=0xffffe3d1
       51195000	      5118	80002b74	016ed733	srl	x14,x29,x22	 x29:0xe4ca5a60 x22:0x00000001 x14=0x72652d30
       51205000	      5119	80002b78	007bce33	xor	x28,x23,x7	 x23:0x80009e54  x7:0x00000001 x28=0x80009e55
       51215000	      5120	80002b7c	005f1513	slli	x10,x30,0x5	 x30:0x00000000 x10=0x00000000
       51225000	      5121	80002b80	008845b3	xor	x11,x16,x8	 x16:0x80009fc4  x8:0x2c5dc000 x11=0xac5d5fc4
       51235000	      5122	80002b84	4159d633	sra	x12,x19,x21	 x19:0x80001c64 x21:0x00000000 x12=0x80001c64
       51245000	      5123	80002b88	925caf13	slti	x30,x25,-1755	 x25:0x00000001 x30=0x00000000
       51255000	      5124	80002b8c	014cbdb3	sltu	x27,x25,x20	 x25:0x00000001 x20:0x80009e73 x27=0x00000001
       51265000	      5125	80002b90	00db23b3	slt	x7,x22,x13	 x22:0x00000001 x13:0x00000000  x7=0x00000000
       51275000	      5126	80002b94	7e30d637	lui	x12,0x7e30d	 x12=0x7e30d000
       51285000	      5127	80002b98	005e4433	xor	x8,x28,x5	 x28:0x80009e55  x5:0xc8000000  x8=0x48009e55
       51295000	      5128	80002b9c	001f3b33	sltu	x22,x30,x1	 x30:0x00000000  x1:0x80000000 x22=0x00000001
       51305000	      5129	80002ba0	b03aba13	sltiu	x20,x21,-1277	 x21:0x00000000 x20=0x00000001
       51315000	      5130	80002ba4	9c87fc93	andi	x25,x15,-1592	 x15:0x00000000 x25=0x00000000
       51325000	      5131	80002ba8	00aa8a33	add	x20,x21,x10	 x21:0x00000000 x10:0x00000000 x20=0x00000000
       51335000	      5132	80002bac	010df463	bgeu	x27,x16,80002bb4	 x27:0x00000001 x16:0x80009fc4
       51345000	      5133	80002bb0	03fd4063	blt	x26,x31,80002bd0	 x26:0xffffffe6 x31:0x8000a2d1
       51355000	      5134	80002bb4	011153b3	srl	x7,x2,x17	  x2:0x80001c64 x17:0x80002be5  x7=0x040000e3
       51365000	      5135	80002bb8	04ba4063	blt	x20,x11,80002bf8	 x20:0x00000000 x11:0xac5d5fc4
       51375000	      5136	80002bbc	05f50263	beq	x10,x31,80002c00	 x10:0x00000000 x31:0x8000a2d1
       51385000	      5137	80002bc0	002fda13	srli	x20,x31,0x2	 x31:0x8000a2d1 x20=0x200028b4
       51395000	      5138	80002bc4	41db5893	srai	x17,x22,0x1d	 x22:0x00000001 x17=0x00000000
       51405000	      5139	80002bc8	c17e8013	addi	x0,x29,-1001	 x29:0xe4ca5a60
       51415000	      5140	80002bcc	018a29b3	slt	x19,x20,x24	 x20:0x200028b4 x24:0x00000000 x19=0x00000000
       51425000	      5141	80002bd0	01d9b333	sltu	x6,x19,x29	 x19:0x00000000 x29:0xe4ca5a60  x6=0x00000001
       51435000	      5142	80002bd4	0d2fa237	lui	x4,0xd2fa	  x4=0x0d2fa000
       51445000	      5143	80002bd8	01b08c63	beq	x1,x27,80002bf0	  x1:0x80000000 x27:0x00000001
       51455000	      5144	80002bdc	02b99c63	bne	x19,x11,80002c14	 x19:0x00000000 x11:0xac5d5fc4
       51465000	      5145	00000000	00000013	addi	x0,x0,0	  x0:0x00000000
       51475000	      5146	80002c10	00000013	addi	x0,x0,0	  x0:0x00000000
       51485000	      5147	80002c14	e60ce217	auipc	x4,0xe60ce	  x4=0x660d0c10
       51495000	      5148	80002c18	01c411b3	sll	x3,x8,x28	  x8:0x48009e55 x28:0x80009e55  x3=0xcaa00000
       51505000	      5149	80002c1c	004ba303	lw	x6,4(x23)	 x23:0x80009e54  x6=0x80001b04 PA:0x80009e58
       51515000	      5150	80002c20	011e9393	slli	x7,x29,0x11	 x29:0xe4ca5a60  x7=0xb4c00000
       51525000	      5151	80002c24	00266ab3	or	x21,x12,x2	 x12:0x7e30d000  x2:0x80001c64 x21=0xfe30dc64
       51535000	      5152	80002c28	020b8b93	addi	x23,x23,32	 x23:0x80009e54 x23=0x80009e74
       51545000	      5153	80002c2c	1b3c7517	auipc	x10,0x1b3c7	 x10=0x9b3c9c28
       51555000	      5154	80002c30	01225033	srl	x0,x4,x18	  x4:0x660d0c10 x18:0x3f880000
       51565000	      5155	80002c34	dff9c713	xori	x14,x19,-513	 x19:0x00000000 x14=0xfffffdff
       51575000	      5156	80002c38	210ec993	xori	x19,x29,528	 x29:0xe4ca5a60 x19=0xe4ca5870
       51585000	      5157	80002c3c	00130993	addi	x19,x6,1	  x6:0x80001b04 x19=0x80001b05
       51595000	      5158	80002c40	000989e7	jalr	x19,x19,0	 x19:0x80001b05 x19=0x80002c40
       51605000	      5159	00000000	00000013	addi	x0,x0,0	  x0:0x00000000
       51615000	      5160	80001b04	00000013	addi	x0,x0,0	  x0:0x00000000
       51625000	      5161	80001b08	3c2bc737	lui	x14,0x3c2bc	 x14=0x3c2bc000
       51635000	      5162	80001b0c	02467263	bgeu	x12,x4,80001b30	 x12:0x7e30d000  x4:0x660d0c10
       51645000	      5163	00000000	00000013	addi	x0,x0,0	  x0:0x00000000
       51655000	      5164	80001b2c	00000013	addi	x0,x0,0	  x0:0x00000000
       51665000	      5165	80001b30	75d0036f	jal	x6,80001b30	  x6=0x80001b30
       51675000	      5166	00000000	00000013	addi	x0,x0,0	  x0:0x00000000
       51685000	      5167	80002a88	00000013	addi	x0,x0,0	  x0:0x00000000
       51695000	      5168	80002a8c	01f3ab33	slt	x22,x7,x31	  x7:0xb4c00000 x31:0x8000a2d1 x22=0x00000000
       51705000	      5169	80002a90	fe0b8b93	addi	x23,x23,-32	 x23:0x80009e74 x23=0x80009e54
       51715000	      5170	80002a94	018546b3	xor	x13,x10,x24	 x10:0x9b3c9c28 x24:0x00000000 x13=0x9b3c9c28
       51725000	      5171	80002a98	01b34533	xor	x10,x6,x27	  x6:0x80001b30 x27:0x00000001 x10=0x80001b31
       51735000	      5172	80002a9c	006ba223	sw	x6,4(x23)	 x23:0x80009e54  x6:0x80001b30 PA:0x80009e58
       51745000	      5173	80002aa0	41a4dd13	srai	x26,x9,0x1a	  x9:0xffffe3d1 x26=0xffffffff
       51755000	      5174	80002aa4	01deaab3	slt	x21,x29,x29	 x29:0xe4ca5a60 x29:0xe4ca5a60 x21=0x00000000
       51765000	      5175	80002aa8	00c81933	sll	x18,x16,x12	 x16:0x80009fc4 x12:0x7e30d000 x18=0x80009fc4
       51775000	      5176	80002aac	00fb9c63	bne	x23,x15,80002ac4	 x23:0x80009e54 x15:0x00000000
       51785000	      5177	00000000	00000013	addi	x0,x0,0	  x0:0x00000000
       51795000	      5178	80002ac0	00000013	addi	x0,x0,0	  x0:0x00000000
       51805000	      5179	80002ac4	01911293	slli	x5,x2,0x19	  x2:0x80001c64  x5=0xc8000000
       51815000	      5180	80002ac8	0036d693	srli	x13,x13,0x3	 x13:0x9b3c9c28 x13=0x13679385
       51825000	      5181	80002acc	00065863	bge	x12,x0,80002adc	 x12:0x7e30d000  x0:0x00000000
       51835000	      5182	00000000	00000013	addi	x0,x0,0	  x0:0x00000000
       51845000	      5183	80002ad8	00000013	addi	x0,x0,0	  x0:0x00000000
       51855000	      5184	80002adc	01bf3ab3	sltu	x21,x30,x27	 x30:0x00000000 x27:0x00000001 x21=0x00000001
       51865000	      5185	80002ae0	01306b33	or	x22,x0,x19	  x0:0x00000000 x19:0x80002c40 x22=0x80002c40
       51875000	      5186	80002ae4	019bad33	slt	x26,x23,x25	 x23:0x80009e54 x25:0x00000000 x26=0x00000001
       51885000	      5187	80002ae8	b452ac93	slti	x25,x5,-1211	  x5:0xc8000000 x25=0x00000001
       51895000	      5188	80002aec	017de263	bltu	x27,x23,80002af0	 x27:0x00000001 x23:0x80009e54
       51905000	      5189	00000000	00000013	addi	x0,x0,0	  x0:0x00000000
       51915000	      5190	80002aec	00000013	addi	x0,x0,0	  x0:0x00000000
       51925000	      5191	80002af0	00f6d713	srli	x14,x13,0xf	 x13:0x13679385 x14=0x000026cf
       51935000	      5192	80002af4	40fdd8b3	sra	x17,x27,x15	 x27:0x00000001 x15:0x00000000 x17=0x00000001
       51945000	      5193	80002af8	01805493	srli	x9,x0,0x18	  x0:0x00000000  x9=0x00000000
       51955000	      5194	80002afc	011123b3	slt	x7,x2,x17	  x2:0x80001c64 x17:0x00000001  x7=0x00000001
       51965000	      5195	80002b00	00348c63	beq	x9,x3,80002b18	  x9:0x00000000  x3:0xcaa00000
       51975000	      5196	80002b04	de32a913	slti	x18,x5,-541	  x5:0xc8000000 x18=0x00000001
       51985000	      5197	80002b08	4004d713	srai	x14,x9,0x0	  x9:0x00000000 x14=0x00000000
       51995000	      5198	80002b0c	00b60863	beq	x12,x11,80002b1c	 x12:0x7e30d000 x11:0xac5d5fc4
       52005000	      5199	80002b10	d79ce113	ori	x2,x25,-647	 x25:0x00000001  x2=0xfffffd79
       52015000	      5200	80002b14	01823d33	sltu	x26,x4,x24	  x4:0x660d0c10 x24:0x00000000 x26=0x00000000
       52025000	      5201	80002b18	054d5863	bge	x26,x20,80002b68	 x26:0x00000000 x20:0x200028b4
       52035000	      5202	80002b1c	00000013	addi	x0,x0,0	  x0:0x00000000
       52045000	      5203	80002b20	01b05933	srl	x18,x0,x27	  x0:0x00000000 x27:0x00000001 x18=0x00000000
       52055000	      5204	80002b24	00000013	addi	x0,x0,0	  x0:0x00000000
       52065000	      5205	80002b28	003e8cb3	add	x25,x29,x3	 x29:0xe4ca5a60  x3:0xcaa00000 x25=0xaf6a5a60
       52075000	      5206	80002b2c	09e0a313	slti	x6,x1,158	  x1:0x80000000  x6=0x00000001
       52085000	      5207	80002b30	038f0c63	beq	x30,x24,80002b68	 x30:0x00000000 x24:0x00000000
       52095000	      5208	00000000	00000013	addi	x0,x0,0	  x0:0x00000000
       52105000	      5209	80002b64	00000013	addi	x0,x0,0	  x0:0x00000000
       52115000	      5210	80002b68	47db8f93	addi	x31,x23,1149	 x23:0x80009e54 x31=0x8000a2d1
       52125000	      5211	80002b6c	03d57463	bgeu	x10,x29,80002b94	 x10:0x80001b31 x29:0xe4ca5a60
       52135000	      5212	80002b70	01fe64b3	or	x9,x28,x31	 x28:0x80009e55 x31:0x8000a2d1  x9=0x8000bed5
       52145000	      5213	80002b74	016ed733	srl	x14,x29,x22	 x29:0xe4ca5a60 x22:0x80002c40 x14=0xe4ca5a60
       52155000	      5214	80002b78	007bce33	xor	x28,x23,x7	 x23:0x80009e54  x7:0x00000001 x28=0x80009e55
       52165000	      5215	80002b7c	005f1513	slli	x10,x30,0x5	 x30:0x00000000 x10=0x00000000
       52175000	      5216	80002b80	008845b3	xor	x11,x16,x8	 x16:0x80009fc4  x8:0x48009e55 x11=0xc8000191
       52185000	      5217	80002b84	4159d633	sra	x12,x19,x21	 x19:0x80002c40 x21:0x00000001 x12=0xc0001620
       52195000	      5218	80002b88	925caf13	slti	x30,x25,-1755	 x25:0xaf6a5a60 x30=0x00000001
       52205000	      5219	80002b8c	014cbdb3	sltu	x27,x25,x20	 x25:0xaf6a5a60 x20:0x200028b4 x27=0x00000000
       52215000	      5220	80002b90	00db23b3	slt	x7,x22,x13	 x22:0x80002c40 x13:0x13679385  x7=0x00000001
       52225000	      5221	80002b94	7e30d637	lui	x12,0x7e30d	 x12=0x7e30d000
       52235000	      5222	80002b98	005e4433	xor	x8,x28,x5	 x28:0x80009e55  x5:0xc8000000  x8=0x48009e55
       52245000	      5223	80002b9c	001f3b33	sltu	x22,x30,x1	 x30:0x00000001  x1:0x80000000 x22=0x00000001
       52255000	      5224	80002ba0	b03aba13	sltiu	x20,x21,-1277	 x21:0x00000001 x20=0x00000001
       52265000	      5225	80002ba4	9c87fc93	andi	x25,x15,-1592	 x15:0x00000000 x25=0x00000000
       52275000	      5226	80002ba8	00aa8a33	add	x20,x21,x10	 x21:0x00000001 x10:0x00000000 x20=0x00000001
       52285000	      5227	80002bac	010df463	bgeu	x27,x16,80002bb4	 x27:0x00000000 x16:0x80009fc4
       52295000	      5228	80002bb0	03fd4063	blt	x26,x31,80002bd0	 x26:0x00000000 x31:0x8000a2d1
       52305000	      5229	80002bb4	011153b3	srl	x7,x2,x17	  x2:0xfffffd79 x17:0x00000001  x7=0x7ffffebc
       52315000	      5230	80002bb8	04ba4063	blt	x20,x11,80002bf8	 x20:0x00000001 x11:0xc8000191
       52325000	      5231	80002bbc	05f50263	beq	x10,x31,80002c00	 x10:0x00000000 x31:0x8000a2d1
       52335000	      5232	80002bc0	002fda13	srli	x20,x31,0x2	 x31:0x8000a2d1 x20=0x200028b4
       52345000	      5233	80002bc4	41db5893	srai	x17,x22,0x1d	 x22:0x00000001 x17=0x00000000
       52355000	      5234	80002bc8	c17e8013	addi	x0,x29,-1001	 x29:0xe4ca5a60
       52365000	      5235	80002bcc	018a29b3	slt	x19,x20,x24	 x20:0x200028b4 x24:0x00000000 x19=0x00000000
       52375000	      5236	80002bd0	01d9b333	sltu	x6,x19,x29	 x19:0x00000000 x29:0xe4ca5a60  x6=0x00000001
       52385000	      5237	80002bd4	0d2fa237	lui	x4,0xd2fa	  x4=0x0d2fa000
       52395000	      5238	80002bd8	01b08c63	beq	x1,x27,80002bf0	  x1:0x80000000 x27:0x00000000
       52405000	      5239	80002bdc	02b99c63	bne	x19,x11,80002c14	 x19:0x00000000 x11:0xc8000191
       52415000	      5240	00000000	00000013	addi	x0,x0,0	  x0:0x00000000
       52425000	      5241	80002c10	00000013	addi	x0,x0,0	  x0:0x00000000
       52435000	      5242	80002c14	e60ce217	auipc	x4,0xe60ce	  x4=0x660d0c10
       52445000	      5243	80002c18	01c411b3	sll	x3,x8,x28	  x8:0x48009e55 x28:0x80009e55  x3=0xcaa00000
       52455000	      5244	80002c1c	004ba303	lw	x6,4(x23)	 x23:0x80009e54  x6=0x80001b30 PA:0x80009e58
       52465000	      5245	80002c20	011e9393	slli	x7,x29,0x11	 x29:0xe4ca5a60  x7=0xb4c00000
       52475000	      5246	80002c24	00266ab3	or	x21,x12,x2	 x12:0x7e30d000  x2:0xfffffd79 x21=0xfffffd79
       52485000	      5247	80002c28	020b8b93	addi	x23,x23,32	 x23:0x80009e54 x23=0x80009e74
       52495000	      5248	80002c2c	1b3c7517	auipc	x10,0x1b3c7	 x10=0x9b3c9c28
       52505000	      5249	80002c30	01225033	srl	x0,x4,x18	  x4:0x660d0c10 x18:0x00000000
       52515000	      5250	80002c34	dff9c713	xori	x14,x19,-513	 x19:0x00000000 x14=0xfffffdff
       52525000	      5251	80002c38	210ec993	xori	x19,x29,528	 x29:0xe4ca5a60 x19=0xe4ca5870
       52535000	      5252	80002c3c	00130993	addi	x19,x6,1	  x6:0x80001b30 x19=0x80001b31
       52545000	      5253	80002c40	000989e7	jalr	x19,x19,0	 x19:0x80001b31 x19=0x80002c40
       52555000	      5254	00000000	00000013	addi	x0,x0,0	  x0:0x00000000
       52565000	      5255	80001b30	00000013	addi	x0,x0,0	  x0:0x00000000
       52575000	      5256	80001b34	02b98863	beq	x19,x11,80001b64	 x19:0x80002c40 x11:0xc8000191
       52585000	      5257	80001b38	001e8863	beq	x29,x1,80001b48	 x29:0xe4ca5a60  x1:0x80000000
       52595000	      5258	80001b3c	b1b80d13	addi	x26,x16,-1253	 x16:0x80009fc4 x26=0x80009adf
       52605000	      5259	80001b40	f064eab7	lui	x21,0xf064e	 x21=0xf064e000
       52615000	      5260	80001b44	05944463	blt	x8,x25,80001b8c	  x8:0x48009e55 x25:0x00000000
       52625000	      5261	80001b48	005aadb3	slt	x27,x21,x5	 x21:0xf064e000  x5:0xc8000000 x27=0x00000000
       52635000	      5262	80001b4c	0128cd33	xor	x26,x17,x18	 x17:0x00000000 x18:0x00000000 x26=0x00000000
       52645000	      5263	80001b50	00002f33	slt	x30,x0,x0	  x0:0x00000000  x0:0x00000000 x30=0x00000000
       52655000	      5264	80001b54	01838a63	beq	x7,x24,80001b68	  x7:0xb4c00000 x24:0x00000000
       52665000	      5265	80001b58	00f89863	bne	x17,x15,80001b68	 x17:0x00000000 x15:0x00000000
       52675000	      5266	80001b5c	2f46cd13	xori	x26,x13,756	 x13:0x13679385 x26=0x13679171
       52685000	      5267	80001b60	6ae62d13	slti	x26,x12,1710	 x12:0x7e30d000 x26=0x00000000
       52695000	      5268	80001b64	02034663	blt	x6,x0,80001b90	  x6:0x80001b30  x0:0x00000000
       52705000	      5269	00000000	00000013	addi	x0,x0,0	  x0:0x00000000
       52715000	      5270	80001b8c	00000013	addi	x0,x0,0	  x0:0x00000000
       52725000	      5271	80001b90	05e87863	bgeu	x16,x30,80001be0	 x16:0x80009fc4 x30:0x00000000
       52735000	      5272	00000000	00000013	addi	x0,x0,0	  x0:0x00000000
       52745000	      5273	80001bdc	00000013	addi	x0,x0,0	  x0:0x00000000
       52755000	      5274	80001be0	00ea6133	or	x2,x20,x14	 x20:0x200028b4 x14:0xfffffdff  x2=0xfffffdff
       52765000	      5275	80001be4	41a10a33	sub	x20,x2,x26	  x2:0xfffffdff x26:0x00000000 x20=0xfffffdff
       52775000	      5276	80001be8	67d56493	ori	x9,x10,1661	 x10:0x9b3c9c28  x9=0x9b3c9e7d
       52785000	      5277	80001bec	16ab2013	slti	x0,x22,362	 x22:0x00000001
       52795000	      5278	80001bf0	40b2d033	sra	x0,x5,x11	  x5:0xc8000000 x11:0xc8000191
       52805000	      5279	80001bf4	01bba3b3	slt	x7,x23,x27	 x23:0x80009e74 x27:0x00000000  x7=0x00000001
       52815000	      5280	80001bf8	0266e663	bltu	x13,x6,80001c24	 x13:0x13679385  x6:0x80001b30
       52825000	      5281	00000000	00000013	addi	x0,x0,0	  x0:0x00000000
       52835000	      5282	80001c20	00000013	addi	x0,x0,0	  x0:0x00000000
       52845000	      5283	80001c24	00980e63	beq	x16,x9,80001c40	 x16:0x80009fc4  x9:0x9b3c9e7d
       52855000	      5284	80001c28	a1ed2413	slti	x8,x26,-1506	 x26:0x00000000  x8=0x00000000
       52865000	      5285	80001c2c	000e5ab3	srl	x21,x28,x0	 x28:0x80009e55  x0:0x00000000 x21=0x80009e55
       52875000	      5286	80001c30	00000013	addi	x0,x0,0	  x0:0x00000000
       52885000	      5287	80001c34	0188c663	blt	x17,x24,80001c40	 x17:0x00000000 x24:0x00000000
       52895000	      5288	80001c38	af657513	andi	x10,x10,-1290	 x10:0x9b3c9c28 x10=0x9b3c9820
       52905000	      5289	80001c3c	41775633	sra	x12,x14,x23	 x14:0xfffffdff x23:0x80009e74 x12=0xffffffff
       52915000	      5290	80001c40	002a5533	srl	x10,x20,x2	 x20:0xfffffdff  x2:0xfffffdff x10=0x00000001
       52925000	      5291	80001c44	004ba303	lw	x6,4(x23)	 x23:0x80009e74  x6=0x80006a80 PA:0x80009e78
       52935000	      5292	80001c48	00fd41b3	xor	x3,x26,x15	 x26:0x00000000 x15:0x00000000  x3=0x00000000
       52945000	      5293	80001c4c	040b8b93	addi	x23,x23,64	 x23:0x80009e74 x23=0x80009eb4
       52955000	      5294	80001c50	001eda93	srli	x21,x29,0x1	 x29:0xe4ca5a60 x21=0x72652d30
       52965000	      5295	80001c54	005ce933	or	x18,x25,x5	 x25:0x00000000  x5:0xc8000000 x18=0xc8000000
       52975000	      5296	80001c58	003c2233	slt	x4,x24,x3	 x24:0x00000000  x3:0x00000000  x4=0x00000000
       52985000	      5297	80001c5c	00e77b33	and	x22,x14,x14	 x14:0xfffffdff x14:0xfffffdff x22=0xfffffdff
       52995000	      5298	80001c60	00030993	addi	x19,x6,0	  x6:0x80006a80 x19=0x80006a80
       53005000	      5299	80001c64	000989e7	jalr	x19,x19,0	 x19:0x80006a80 x19=0x80001c64
       53015000	      5300	00000000	00000013	addi	x0,x0,0	  x0:0x00000000
       53025000	      5301	80006a80	00000013	addi	x0,x0,0	  x0:0x00000000
       53035000	      5302	80006a84	f42fa213	slti	x4,x31,-190	 x31:0x8000a2d1  x4=0x00000001
       53045000	      5303	80006a88	007605b3	add	x11,x12,x7	 x12:0xffffffff  x7:0x00000001 x11=0x00000000
       53055000	      5304	80006a8c	040d8663	beq	x27,x0,80006ad8	 x27:0x00000000  x0:0x00000000
       53065000	      5305	00000000	00000013	addi	x0,x0,0	  x0:0x00000000
       53075000	      5306	80006ad4	00000013	addi	x0,x0,0	  x0:0x00000000
       53085000	      5307	80006ad8	0398ee63	bltu	x17,x25,80006b14	 x17:0x00000000 x25:0x00000000
       53095000	      5308	80006adc	0296ec63	bltu	x13,x9,80006b14	 x13:0x13679385  x9:0x9b3c9e7d
       53105000	      5309	00000000	00000013	addi	x0,x0,0	  x0:0x00000000
       53115000	      5310	80006b10	00000013	addi	x0,x0,0	  x0:0x00000000
       53125000	      5311	80006b14	638dfb17	auipc	x22,0x638df	 x22=0xe38e5b10
       53135000	      5312	80006b18	01e3eeb3	or	x29,x7,x30	  x7:0x00000001 x30:0x00000000 x29=0x00000001
       53145000	      5313	80006b1c	004ba303	lw	x6,4(x23)	 x23:0x80009eb4  x6=0x80002c84 PA:0x80009eb8
       53155000	      5314	00000000	00000013	addi	x0,x0,0	  x0:0x00000000
       53165000	      5315	80006b20	009356b3	srl	x13,x6,x9	  x6:0x80002c84  x9:0x9b3c9e7d x13=0x00000004
       53175000	      5316	80006b24	00a11a93	slli	x21,x2,0xa	  x2:0xfffffdff x21=0xfff7fc00
       53185000	      5317	80006b28	4142d633	sra	x12,x5,x20	  x5:0xc8000000 x20:0xfffffdff x12=0xffffffff
       53195000	      5318	80006b2c	000b1b13	slli	x22,x22,0x0	 x22:0xe38e5b10 x22=0xe38e5b10
       53205000	      5319	80006b30	028b8b93	addi	x23,x23,40	 x23:0x80009eb4 x23=0x80009edc
       53215000	      5320	80006b34	00f69193	slli	x3,x13,0xf	 x13:0x00000004  x3=0x00020000
       53225000	      5321	80006b38	01edfdb3	and	x27,x27,x30	 x27:0x00000000 x30:0x00000000 x27=0x00000000
       53235000	      5322	80006b3c	00030593	addi	x11,x6,0	  x6:0x80002c84 x11=0x80002c84
       53245000	      5323	80006b40	000585e7	jalr	x11,x11,0	 x11:0x80002c84 x11=0x80006b40
       53255000	      5324	00000000	00000013	addi	x0,x0,0	  x0:0x00000000
       53265000	      5325	80002c84	00000013	addi	x0,x0,0	  x0:0x00000000
       53275000	      5326	80002c88	4039d2b3	sra	x5,x19,x3	 x19:0x80001c64  x3:0x00020000  x5=0x80001c64
       53285000	      5327	80002c8c	7e4192b7	lui	x5,0x7e419	  x5=0x7e419000
       53295000	      5328	80002c90	05379063	bne	x15,x19,80002cd0	 x15:0x00000000 x19:0x80001c64
       53305000	      5329	00000000	00000013	addi	x0,x0,0	  x0:0x00000000
       53315000	      5330	80002ccc	00000013	addi	x0,x0,0	  x0:0x00000000
       53325000	      5331	80002cd0	00ed5933	srl	x18,x26,x14	 x26:0x00000000 x14:0xfffffdff x18=0x00000000
       53335000	      5332	80002cd4	01d9c733	xor	x14,x19,x29	 x19:0x80001c64 x29:0x00000001 x14=0x80001c65
       53345000	      5333	80002cd8	04331663	bne	x6,x3,80002d24	  x6:0x80002c84  x3:0x00020000
       53355000	      5334	00000000	00000013	addi	x0,x0,0	  x0:0x00000000
       53365000	      5335	80002d20	00000013	addi	x0,x0,0	  x0:0x00000000
       53375000	      5336	80002d24	00272e33	slt	x28,x14,x2	 x14:0x80001c65  x2:0xfffffdff x28=0x00000001
       53385000	      5337	80002d28	41fe0633	sub	x12,x28,x31	 x28:0x00000001 x31:0x8000a2d1 x12=0x7fff5d30
       53395000	      5338	80002d2c	004d3e33	sltu	x28,x26,x4	 x26:0x00000000  x4:0x00000001 x28=0x00000001
       53405000	      5339	80002d30	0131e863	bltu	x3,x19,80002d40	  x3:0x00020000 x19:0x80001c64
       53415000	      5340	00000000	00000013	addi	x0,x0,0	  x0:0x00000000
       53425000	      5341	80002d3c	00000013	addi	x0,x0,0	  x0:0x00000000
       53435000	      5342	80002d40	6305ac17	auipc	x24,0x6305a	 x24=0xe305cd3c
       53445000	      5343	80002d44	005c6a63	bltu	x24,x5,80002d58	 x24:0xe305cd3c  x5:0x7e419000
       53455000	      5344	80002d48	01343533	sltu	x10,x8,x19	  x8:0x00000000 x19:0x80001c64 x10=0x00000001
       53465000	      5345	80002d4c	01cf5a93	srli	x21,x30,0x1c	 x30:0x00000000 x21=0x00000000
       53475000	      5346	80002d50	00ec5a33	srl	x20,x24,x14	 x24:0xe305cd3c x14:0x80001c65 x20=0x07182e69
       53485000	      5347	80002d54	41350733	sub	x14,x10,x19	 x10:0x00000001 x19:0x80001c64 x14=0x7fffe39d
       53495000	      5348	80002d58	e512f693	andi	x13,x5,-431	  x5:0x7e419000 x13=0x7e419000
       53505000	      5349	80002d5c	006e31b3	sltu	x3,x28,x6	 x28:0x00000001  x6:0x80002c84  x3=0x00000001
       53515000	      5350	80002d60	40085293	srai	x5,x16,0x0	 x16:0x80009fc4  x5=0x80009fc4
       53525000	      5351	80002d64	38a2f493	andi	x9,x5,906	  x5:0x80009fc4  x9=0x00000380
       53535000	      5352	80002d68	004ba303	lw	x6,4(x23)	 x23:0x80009edc  x6=0x8000041c PA:0x80009ee0
       53545000	      5353	80002d6c	01899213	slli	x4,x19,0x18	 x19:0x80001c64  x4=0x64000000
       53555000	      5354	80002d70	df17b413	sltiu	x8,x15,-527	 x15:0x00000000  x8=0x00000001
       53565000	      5355	80002d74	38a5eb13	ori	x22,x11,906	 x11:0x80006b40 x22=0x80006bca
       53575000	      5356	80002d78	00cb8b93	addi	x23,x23,12	 x23:0x80009edc x23=0x80009ee8
       53585000	      5357	80002d7c	00000013	addi	x0,x0,0	  x0:0x00000000
       53595000	      5358	80002d80	00030f93	addi	x31,x6,0	  x6:0x8000041c x31=0x8000041c
       53605000	      5359	80002d84	000f8fe7	jalr	x31,x31,0	 x31:0x8000041c x31=0x80002d84
       53615000	      5360	00000000	00000013	addi	x0,x0,0	  x0:0x00000000
       53625000	      5361	8000041c	00000013	addi	x0,x0,0	  x0:0x00000000
       53635000	      5362	80000420	01955c33	srl	x24,x10,x25	 x10:0x00000001 x25:0x00000000 x24=0x00000001
       53645000	      5363	80000424	01cbbab3	sltu	x21,x23,x28	 x23:0x80009ee8 x28:0x00000001 x21=0x00000000
       53655000	      5364	80000428	c332c393	xori	x7,x5,-973	  x5:0x80009fc4  x7=0x7fff63f7
       53665000	      5365	8000042c	00002d17	auipc	x26,0x2	 x26=0x80002428
       53675000	      5366	80000430	d00d0d13	addi	x26,x26,-768	 x26:0x80002428 x26=0x80002128
       53685000	      5367	80000434	fa3a3413	sltiu	x8,x20,-93	 x20:0x07182e69  x8=0x00000001
       53695000	      5368	80000438	fe8d0d13	addi	x26,x26,-24	 x26:0x80002128 x26=0x80002110
       53705000	      5369	8000043c	0109a8b3	slt	x17,x19,x16	 x19:0x80001c64 x16:0x80009fc4 x17=0x00000001
       53715000	      5370	80000440	018d0367	jalr	x6,x26,24	 x26:0x80002110  x6=0x80000440
       53725000	      5371	00000000	00000013	addi	x0,x0,0	  x0:0x00000000
       53735000	      5372	80002128	00000013	addi	x0,x0,0	  x0:0x00000000
       53745000	      5373	8000212c	fc8b8b93	addi	x23,x23,-56	 x23:0x80009ee8 x23=0x80009eb0
       53755000	      5374	80002130	003c3133	sltu	x2,x24,x3	 x24:0x00000001  x3:0x00000001  x2=0x00000000
       53765000	      5375	80002134	0026d113	srli	x2,x13,0x2	 x13:0x7e419000  x2=0x1f906400
       53775000	      5376	80002138	8d44f393	andi	x7,x9,-1836	  x9:0x00000380  x7=0x00000080
       53785000	      5377	8000213c	01e35213	srli	x4,x6,0x1e	  x6:0x80000440  x4=0x00000002
       53795000	      5378	80002140	01275fb3	srl	x31,x14,x18	 x14:0x7fffe39d x18:0x00000000 x31=0x7fffe39d
       53805000	      5379	80002144	efa7fd13	andi	x26,x15,-262	 x15:0x00000000 x26=0x00000000
       53815000	      5380	80002148	006ba223	sw	x6,4(x23)	 x23:0x80009eb0  x6:0x80000440 PA:0x80009eb4
       53825000	      5381	8000214c	001a1d33	sll	x26,x20,x1	 x20:0x07182e69  x1:0x80000000 x26=0x07182e69
       53835000	      5382	80002150	009dddb3	srl	x27,x27,x9	 x27:0x00000000  x9:0x00000380 x27=0x00000000
       53845000	      5383	80002154	6b072e93	slti	x29,x14,1712	 x14:0x7fffe39d x29=0x00000000
       53855000	      5384	80002158	403ade33	sra	x28,x21,x3	 x21:0x00000000  x3:0x00000001 x28=0x00000000
       53865000	      5385	8000215c	40bcd693	srai	x13,x25,0xb	 x25:0x00000000 x13=0x00000000
       53875000	      5386	80002160	02f45a63	bge	x8,x15,80002194	  x8:0x00000001 x15:0x00000000
       53885000	      5387	00000000	00000013	addi	x0,x0,0	  x0:0x00000000
       53895000	      5388	80002190	00000013	addi	x0,x0,0	  x0:0x00000000
       53905000	      5389	80002194	78feb993	sltiu	x19,x29,1935	 x29:0x00000000 x19=0x00000001
       53915000	      5390	80002198	00e44863	blt	x8,x14,800021a8	  x8:0x00000001 x14:0x7fffe39d
       53925000	      5391	00000000	00000013	addi	x0,x0,0	  x0:0x00000000
       53935000	      5392	800021a4	00000013	addi	x0,x0,0	  x0:0x00000000
       53945000	      5393	800021a8	408a5f93	srai	x31,x20,0x8	 x20:0x07182e69 x31=0x0007182e
       53955000	      5394	800021ac	fe14f993	andi	x19,x9,-31	  x9:0x00000380 x19=0x00000380
       53965000	      5395	800021b0	5a067513	andi	x10,x12,1440	 x12:0x7fff5d30 x10=0x00000520
       53975000	      5396	800021b4	572d6f13	ori	x30,x26,1394	 x26:0x07182e69 x30=0x07182f7b
       53985000	      5397	800021b8	00c46e63	bltu	x8,x12,800021d4	  x8:0x00000001 x12:0x7fff5d30
       53995000	      5398	00000000	00000013	addi	x0,x0,0	  x0:0x00000000
       54005000	      5399	800021d0	00000013	addi	x0,x0,0	  x0:0x00000000
       54015000	      5400	800021d4	7ebace93	xori	x29,x21,2027	 x21:0x00000000 x29=0x000007eb
       54025000	      5401	800021d8	00f3d733	srl	x14,x7,x15	  x7:0x00000080 x15:0x00000000 x14=0x00000080
       54035000	      5402	800021dc	042c8663	beq	x25,x2,80002228	 x25:0x00000000  x2:0x1f906400
       54045000	      5403	800021e0	fe95a597	auipc	x11,0xfe95a	 x11=0x7e95c1dc
       54055000	      5404	800021e4	ac03c313	xori	x6,x7,-1344	  x7:0x00000080  x6=0xfffffa40
       54065000	      5405	800021e8	40ac8db3	sub	x27,x25,x10	 x25:0x00000000 x10:0x00000520 x27=0xfffffae0
       54075000	      5406	800021ec	017024b3	slt	x9,x0,x23	  x0:0x00000000 x23:0x80009eb0  x9=0x00000000
       54085000	      5407	800021f0	04750263	beq	x10,x7,80002234	 x10:0x00000520  x7:0x00000080
       54095000	      5408	800021f4	00b29863	bne	x5,x11,80002204	  x5:0x80009fc4 x11:0x7e95c1dc
       54105000	      5409	00000000	00000013	addi	x0,x0,0	  x0:0x00000000
       54115000	      5410	80002200	00000013	addi	x0,x0,0	  x0:0x00000000
       54125000	      5411	80002204	698c4f13	xori	x30,x24,1688	 x24:0x00000001 x30=0x00000699
       54135000	      5412	80002208	0209c863	blt	x19,x0,80002238	 x19:0x00000380  x0:0x00000000
       54145000	      5413	8000220c	01499613	slli	x12,x19,0x14	 x19:0x00000380 x12=0x38000000
       54155000	      5414	80002210	01b89c13	slli	x24,x17,0x1b	 x17:0x00000001 x24=0x08000000
       54165000	      5415	80002214	015e02b3	add	x5,x28,x21	 x28:0x00000000 x21:0x00000000  x5=0x00000000
       54175000	      5416	80002218	4096db13	srai	x22,x13,0x9	 x13:0x00000000 x22=0x00000000
       54185000	      5417	8000221c	77d7bc93	sltiu	x25,x15,1917	 x15:0x00000000 x25=0x00000001
       54195000	      5418	80002220	01fd83b3	add	x7,x27,x31	 x27:0xfffffae0 x31:0x0007182e  x7=0x0007130e
       54205000	      5419	80002224	a882ca13	xori	x20,x5,-1400	  x5:0x00000000 x20=0xfffffa88
       54215000	      5420	80002228	40bd5a13	srai	x20,x26,0xb	 x26:0x07182e69 x20=0x0000e305
       54225000	      5421	8000222c	fe6c7b13	andi	x22,x24,-26	 x24:0x08000000 x22=0x08000000
       54235000	      5422	80002230	03b6ca63	blt	x13,x27,80002264	 x13:0x00000000 x27:0xfffffae0
       54245000	      5423	80002234	028a1e63	bne	x20,x8,80002270	 x20:0x0000e305  x8:0x00000001
       54255000	      5424	00000000	00000013	addi	x0,x0,0	  x0:0x00000000
       54265000	      5425	8000226c	00000013	addi	x0,x0,0	  x0:0x00000000
       54275000	      5426	80002270	00575c33	srl	x24,x14,x5	 x14:0x00000080  x5:0x00000000 x24=0x00000080
       54285000	      5427	80002274	00331e63	bne	x6,x3,80002290	  x6:0xfffffa40  x3:0x00000001
       54295000	      5428	00000000	00000013	addi	x0,x0,0	  x0:0x00000000
       54305000	      5429	8000228c	00000013	addi	x0,x0,0	  x0:0x00000000
       54315000	      5430	80002290	00c63433	sltu	x8,x12,x12	 x12:0x38000000 x12:0x38000000  x8=0x00000000
       54325000	      5431	80002294	1b577437	lui	x8,0x1b577	  x8=0x1b577000
       54335000	      5432	80002298	017a4733	xor	x14,x20,x23	 x20:0x0000e305 x23:0x80009eb0 x14=0x80007db5
       54345000	      5433	8000229c	04f0c663	blt	x1,x15,800022e8	  x1:0x80000000 x15:0x00000000
       54355000	      5434	00000000	00000013	addi	x0,x0,0	  x0:0x00000000
       54365000	      5435	800022e4	00000013	addi	x0,x0,0	  x0:0x00000000
       54375000	      5436	800022e8	3b7a4e93	xori	x29,x20,951	 x20:0x0000e305 x29=0x0000e0b2
       54385000	      5437	800022ec	26137713	andi	x14,x6,609	  x6:0xfffffa40 x14=0x00000240
       54395000	      5438	800022f0	02a3d663	bge	x7,x10,8000231c	  x7:0x0007130e x10:0x00000520
       54405000	      5439	00000000	00000013	addi	x0,x0,0	  x0:0x00000000
       54415000	      5440	80002318	00000013	addi	x0,x0,0	  x0:0x00000000
       54425000	      5441	8000231c	dd214793	xori	x15,x2,-558	  x2:0x1f906400 x15=0xe06f99d2
       54435000	      5442	80002320	41eb5693	srai	x13,x22,0x1e	 x22:0x08000000 x13=0x00000000
       54445000	      5443	80002324	004ba303	lw	x6,4(x23)	 x23:0x80009eb0  x6=0x80000440 PA:0x80009eb4
       54455000	      5444	80002328	019fa733	slt	x14,x31,x25	 x31:0x0007182e x25:0x00000001 x14=0x00000000
       54465000	      5445	8000232c	00f33733	sltu	x14,x6,x15	  x6:0x80000440 x15:0xe06f99d2 x14=0x00000001
       54475000	      5446	80002330	b7130393	addi	x7,x6,-1167	  x6:0x80000440  x7=0x7fffffb1
       54485000	      5447	80002334	038b8b93	addi	x23,x23,56	 x23:0x80009eb0 x23=0x80009ee8
       54495000	      5448	80002338	dd8da693	slti	x13,x27,-552	 x27:0xfffffae0 x13=0x00000001
       54505000	      5449	8000233c	00130e93	addi	x29,x6,1	  x6:0x80000440 x29=0x80000441
       54515000	      5450	80002340	000e8ee7	jalr	x29,x29,0	 x29:0x80000441 x29=0x80002340
       54525000	      5451	00000000	00000013	addi	x0,x0,0	  x0:0x00000000
       54535000	      5452	80000440	00000013	addi	x0,x0,0	  x0:0x00000000
       54545000	      5453	80000444	00008117	auipc	x2,0x8	  x2=0x80008440
       54555000	      5454	80000448	6c410113	addi	x2,x2,1732	  x2:0x80008440  x2=0x80008b04
       54565000	      5455	8000044c	6c448e93	addi	x29,x9,1732	  x9:0x00000000 x29=0x000006c4
       54575000	      5456	80000450	8474fc93	andi	x25,x9,-1977	  x9:0x00000000 x25=0x00000000
       54585000	      5457	80000454	41b68233	sub	x4,x13,x27	 x13:0x00000001 x27:0xfffffae0  x4=0x00000521
       54595000	      5458	80000458	2dbaca37	lui	x20,0x2dbac	 x20=0x2dbac000
       54605000	      5459	8000045c	000b2d33	slt	x26,x22,x0	 x22:0x08000000  x0:0x00000000 x26=0x00000000
       54615000	      5460	80000460	fac10ca3	sb	x12,-71(x2)	  x2:0x80008b04 x12:0x38000000 PA:0x80008abd
       54625000	      5461	80000464	f1510703	lb	x14,-235(x2)	  x2:0x80008b04 x14=0x00000002 PA:0x80008a19
       54635000	      5462	80000468	028104a3	sb	x8,41(x2)	  x2:0x80008b04  x8:0x1b577000 PA:0x80008b2d
       54645000	      5463	8000046c	0ba15503	lhu	x10,186(x2)	  x2:0x80008b04 x10=0x0000a4a5 PA:0x80008bbe
       54655000	      5464	80000470	013f86b3	add	x13,x31,x19	 x31:0x0007182e x19:0x00000380 x13=0x00071bae
       54665000	      5465	80000474	01862933	slt	x18,x12,x24	 x12:0x38000000 x24:0x00000080 x18=0x00000000
       54675000	      5466	80000478	051104a3	sb	x17,73(x2)	  x2:0x80008b04 x17:0x00000001 PA:0x80008b4d
       54685000	      5467	8000047c	03410f03	lb	x30,52(x2)	  x2:0x80008b04 x30=0x0000007a PA:0x80008b38
       54695000	      5468	80000480	fc114203	lbu	x4,-63(x2)	  x2:0x80008b04  x4=0x000000ae PA:0x80008ac5
       54705000	      5469	00000000	00000013	addi	x0,x0,0	  x0:0x00000000
       54715000	      5470	80000484	0040d233	srl	x4,x1,x4	  x1:0x80000000  x4:0x000000ae  x4=0x00020000
       54725000	      5471	80000488	396a5317	auipc	x6,0x396a5	  x6=0xb96a5484
       54735000	      5472	8000048c	f6c11283	lh	x5,-148(x2)	  x2:0x80008b04  x5=0x00005a5b PA:0x80008a70
       54745000	      5473	80000490	4133dc93	srai	x25,x7,0x13	  x7:0x7fffffb1 x25=0x00000fff
       54755000	      5474	80000494	40ff8f33	sub	x30,x31,x15	 x31:0x0007182e x15:0xe06f99d2 x30=0x1f977e5c
       54765000	      5475	80000498	09710503	lb	x10,151(x2)	  x2:0x80008b04 x10=0xffffff80 PA:0x80008b9b
       54775000	      5476	8000049c	0151c7b3	xor	x15,x3,x21	  x3:0x00000001 x21:0x00000000 x15=0x00000001
       54785000	      5477	800004a0	0149ecb3	or	x25,x19,x20	 x19:0x00000380 x20:0x2dbac000 x25=0x2dbac380
       54795000	      5478	800004a4	0bf108a3	sb	x31,177(x2)	  x2:0x80008b04 x31:0x0007182e PA:0x80008bb5
       54805000	      5479	800004a8	2660ea93	ori	x21,x1,614	  x1:0x80000000 x21=0x80000266
       54815000	      5480	800004ac	0fe10fa3	sb	x30,255(x2)	  x2:0x80008b04 x30:0x1f977e5c PA:0x80008c03
       54825000	      5481	800004b0	0e314303	lbu	x6,227(x2)	  x2:0x80008b04  x6=0x000000cc PA:0x80008be7
       54835000	      5482	800004b4	b5d3ab13	slti	x22,x7,-1187	  x7:0x7fffffb1 x22=0x00000000
       54845000	      5483	800004b8	007145b3	xor	x11,x2,x7	  x2:0x80008b04  x7:0x7fffffb1 x11=0xffff74b5
       54855000	      5484	800004bc	007c8333	add	x6,x25,x7	 x25:0x2dbac380  x7:0x7fffffb1  x6=0xadbac331
       54865000	      5485	800004c0	f7d10d83	lb	x27,-131(x2)	  x2:0x80008b04 x27=0x0000006a PA:0x80008a81
       54875000	      5486	800004c4	018e5613	srli	x12,x28,0x18	 x28:0x00000000 x12=0x00000000
       54885000	      5487	800004c8	92714293	xori	x5,x2,-1753	  x2:0x80008b04  x5=0x7fff7223
       54895000	      5488	800004cc	00000013	addi	x0,x0,0	  x0:0x00000000
       54905000	      5489	800004d0	4141b693	sltiu	x13,x3,1044	  x3:0x00000001 x13=0x00000001
       54915000	      5490	800004d4	008bf7b3	and	x15,x23,x8	 x23:0x80009ee8  x8:0x1b577000 x15=0x00001000
       54925000	      5491	800004d8	0edcb413	sltiu	x8,x25,237	 x25:0x2dbac380  x8=0x00000000
       54935000	      5492	800004dc	0176e733	or	x14,x13,x23	 x13:0x00000001 x23:0x80009ee8 x14=0x80009ee9
       54945000	      5493	800004e0	00f473b3	and	x7,x8,x15	  x8:0x00000000 x15:0x00001000  x7=0x00000000
       54955000	      5494	800004e4	fc1102a3	sb	x1,-59(x2)	  x2:0x80008b04  x1:0x80000000 PA:0x80008ac9
       54965000	      5495	800004e8	5508edb7	lui	x27,0x5508e	 x27=0x5508e000
       54975000	      5496	800004ec	eddc2393	slti	x7,x24,-291	 x24:0x00000080  x7=0x00000000
       54985000	      5497	800004f0	0d611023	sh	x22,192(x2)	  x2:0x80008b04 x22:0x00000000 PA:0x80008bc4
       54995000	      5498	800004f4	9b15f797	auipc	x15,0x9b15f	 x15=0x1b15f4f0
       55005000	      5499	800004f8	01d45633	srl	x12,x8,x29	  x8:0x00000000 x29:0x000006c4 x12=0x00000000
       55015000	      5500	800004fc	411681b3	sub	x3,x13,x17	 x13:0x00000001 x17:0x00000001  x3=0x00000000
       55025000	      5501	80000500	0b810783	lb	x15,184(x2)	  x2:0x80008b04 x15=0xffffffa7 PA:0x80008bbc
       55035000	      5502	80000504	f1e10b23	sb	x30,-234(x2)	  x2:0x80008b04 x30:0x1f977e5c PA:0x80008a1a
       55045000	      5503	80000508	00008717	auipc	x14,0x8	 x14=0x80008504
       55055000	      5504	8000050c	f8370713	addi	x14,x14,-125	 x14:0x80008504 x14=0x80008487
       55065000	      5505	80000510	fce74d83	lbu	x27,-50(x14)	 x14:0x80008487 x27=0x0000000e PA:0x80008455
       55075000	      5506	80000514	04f71103	lh	x2,79(x14)	 x14:0x80008487  x2=0xffff8c8d PA:0x800084d6
       55085000	      5507	80000518	012e5793	srli	x15,x28,0x12	 x28:0x00000000 x15=0x00000000
       55095000	      5508	8000051c	f0971ba3	sh	x9,-233(x14)	 x14:0x80008487  x9:0x00000000 PA:0x8000839e
       55105000	      5509	80000520	09971683	lh	x13,153(x14)	 x14:0x80008487 x13=0xffffdadb PA:0x80008520
       55115000	      5510	80000524	5df26d13	ori	x26,x4,1503	  x4:0x00020000 x26=0x000205df
       55125000	      5511	80000528	05a70423	sb	x26,72(x14)	 x14:0x80008487 x26:0x000205df PA:0x800084cf
       55135000	      5512	8000052c	01f05213	srli	x4,x0,0x1f	  x0:0x00000000  x4=0x00000000
       55145000	      5513	80000530	faa70603	lb	x12,-86(x14)	 x14:0x80008487 x12=0xffffffea PA:0x80008431
       55155000	      5514	80000534	ff670c83	lb	x25,-10(x14)	 x14:0x80008487 x25=0x00000036 PA:0x8000847d
       55165000	      5515	80000538	0b070223	sb	x16,164(x14)	 x14:0x80008487 x16:0x80009fc4 PA:0x8000852b
       55175000	      5516	8000053c	09c70583	lb	x11,156(x14)	 x14:0x80008487 x11=0xffffff8c PA:0x80008523
       55185000	      5517	80000540	019b12b3	sll	x5,x22,x25	 x22:0x00000000 x25:0x00000036  x5=0x00000000
       55195000	      5518	80000544	f9774c83	lbu	x25,-105(x14)	 x14:0x80008487 x25=0x000000d5 PA:0x8000841e
       55205000	      5519	80000548	0da70e03	lb	x28,218(x14)	 x14:0x80008487 x28=0x0000001a PA:0x80008561
       55215000	      5520	8000054c	03870d03	lb	x26,56(x14)	 x14:0x80008487 x26=0x00000074 PA:0x800084bf
       55225000	      5521	80000550	fb670c83	lb	x25,-74(x14)	 x14:0x80008487 x25=0xfffffff6 PA:0x8000843d
       55235000	      5522	80000554	04c74c83	lbu	x25,76(x14)	 x14:0x80008487 x25=0x00000088 PA:0x800084d3
       55245000	      5523	80000558	401359b3	sra	x19,x6,x1	  x6:0xadbac331  x1:0x80000000 x19=0xadbac331
       55255000	      5524	8000055c	fa074b03	lbu	x22,-96(x14)	 x14:0x80008487 x22=0x000000dc PA:0x80008427
       55265000	      5525	80000560	40c65c93	srai	x25,x12,0xc	 x12:0xffffffea x25=0xffffffff
       55275000	      5526	80000564	0ac70aa3	sb	x12,181(x14)	 x14:0x80008487 x12:0xffffffea PA:0x8000853c
       55285000	      5527	80000568	00bda133	slt	x2,x27,x11	 x27:0x0000000e x11:0xffffff8c  x2=0x00000000
       55295000	      5528	8000056c	05c708a3	sb	x28,81(x14)	 x14:0x80008487 x28:0x0000001a PA:0x800084d8
       55305000	      5529	80000570	f5c70e03	lb	x28,-164(x14)	 x14:0x80008487 x28=0xffffff98 PA:0x800083e3
       55315000	      5530	00000000	00000013	addi	x0,x0,0	  x0:0x00000000
       55325000	      5531	80000574	0bc70403	lb	x8,188(x14)	 x14:0x80008487  x8=0x00000005 PA:0x80008543
       55335000	      5532	80000578	61c8b4b7	lui	x9,0x61c8b	  x9=0x61c8b000
       55345000	      5533	8000057c	4150df33	sra	x30,x1,x21	  x1:0x80000000 x21:0x80000266 x30=0xfe000000
       55355000	      5534	80000580	410dd3b3	sra	x7,x27,x16	 x27:0x0000000e x16:0x80009fc4  x7=0x00000000
       55365000	      5535	80000584	072703a3	sb	x18,103(x14)	 x14:0x80008487 x18:0x00000000 PA:0x800084ee
       55375000	      5536	80000588	00008597	auipc	x11,0x8	 x11=0x80008584
       55385000	      5537	8000058c	20b58593	addi	x11,x11,523	 x11:0x80008584 x11=0x8000878f
       55395000	      5538	80000590	0045c703	lbu	x14,4(x11)	 x11:0x8000878f x14=0x00000048 PA:0x80008793
       55405000	      5539	80000594	ff858f83	lb	x31,-8(x11)	 x11:0x8000878f x31=0x00000000 PA:0x80008787
       55415000	      5540	80000598	ff658883	lb	x17,-10(x11)	 x11:0x8000878f x17=0x00000000 PA:0x80008785
       55425000	      5541	8000059c	a07ca793	slti	x15,x25,-1529	 x25:0xffffffff x15=0x00000000
       55435000	      5542	800005a0	01258523	sb	x18,10(x11)	 x11:0x8000878f x18:0x00000000 PA:0x80008799
       55445000	      5543	800005a4	ffa58603	lb	x12,-6(x11)	 x11:0x8000878f x12=0x00000042 PA:0x80008789
       55455000	      5544	800005a8	010585a3	sb	x16,11(x11)	 x11:0x8000878f x16:0x80009fc4 PA:0x8000879a
       55465000	      5545	800005ac	ff258483	lb	x9,-14(x11)	 x11:0x8000878f  x9=0xffffff9f PA:0x80008781
       55475000	      5546	800005b0	fff58e83	lb	x29,-1(x11)	 x11:0x8000878f x29=0x00000045 PA:0x8000878e
       55485000	      5547	800005b4	00359383	lh	x7,3(x11)	 x11:0x8000878f  x7=0x00004849 PA:0x80008792
       55495000	      5548	800005b8	00b7a933	slt	x18,x15,x11	 x15:0x00000000 x11:0x8000878f x18=0x00000000
       55505000	      5549	800005bc	00fd01b3	add	x3,x26,x15	 x26:0x00000074 x15:0x00000000  x3=0x00000074
       55515000	      5550	800005c0	ff358f23	sb	x19,-2(x11)	 x11:0x8000878f x19:0xadbac331 PA:0x8000878d
       55525000	      5551	800005c4	ff05a8a3	sw	x16,-15(x11)	 x11:0x8000878f x16:0x80009fc4 PA:0x80008780
       55535000	      5552	800005c8	01e593a3	sh	x30,7(x11)	 x11:0x8000878f x30:0xfe000000 PA:0x80008796
       55545000	      5553	800005cc	fe459ea3	sh	x4,-3(x11)	 x11:0x8000878f  x4:0x00000000 PA:0x8000878c
       55555000	      5554	800005d0	ff358b03	lb	x22,-13(x11)	 x11:0x8000878f x22=0x00000000 PA:0x80008782
       55565000	      5555	800005d4	dc5ab793	sltiu	x15,x21,-571	 x21:0x80000266 x15=0x00000001
       55575000	      5556	800005d8	01da4633	xor	x12,x20,x29	 x20:0x2dbac000 x29:0x00000045 x12=0x2dbac045
       55585000	      5557	800005dc	0035cd83	lbu	x27,3(x11)	 x11:0x8000878f x27=0x00000049 PA:0x80008792
       55595000	      5558	800005e0	599d4a13	xori	x20,x26,1433	 x26:0x00000074 x20=0x000005ed
       55605000	      5559	800005e4	0165a6a3	sw	x22,13(x11)	 x11:0x8000878f x22:0x00000000 PA:0x8000879c
       55615000	      5560	800005e8	00a82633	slt	x12,x16,x10	 x16:0x80009fc4 x10:0xffffff80 x12=0x00000001
       55625000	      5561	800005ec	0028bab3	sltu	x21,x17,x2	 x17:0x00000000  x2:0x00000000 x21=0x00000000
       55635000	      5562	800005f0	011db6b3	sltu	x13,x27,x17	 x27:0x00000049 x17:0x00000000 x13=0x00000000
       55645000	      5563	800005f4	003d28b3	slt	x17,x26,x3	 x26:0x00000074  x3:0x00000074 x17=0x00000000
       55655000	      5564	800005f8	f9fcea13	ori	x20,x25,-97	 x25:0xffffffff x20=0xffffffff
       55665000	      5565	800005fc	00658183	lb	x3,6(x11)	 x11:0x8000878f  x3=0x0000004e PA:0x80008795
       55675000	      5566	80000600	d08cfa93	andi	x21,x25,-760	 x25:0xffffffff x21=0xfffffd08
       55685000	      5567	80000604	ff758da3	sb	x23,-5(x11)	 x11:0x8000878f x23:0x80009ee8 PA:0x8000878a
       55695000	      5568	80000608	9989e793	ori	x15,x19,-1640	 x19:0xadbac331 x15=0xfffffbb9
       55705000	      5569	8000060c	01367213	andi	x4,x12,19	 x12:0x00000001  x4=0x00000001
       55715000	      5570	80000610	01d81993	slli	x19,x16,0x1d	 x16:0x80009fc4 x19=0x80000000
       55725000	      5571	80000614	00d595a3	sh	x13,11(x11)	 x11:0x8000878f x13:0x00000000 PA:0x8000879a
       55735000	      5572	80000618	fec58f23	sb	x12,-2(x11)	 x11:0x8000878f x12:0x00000001 PA:0x8000878d
       55745000	      5573	8000061c	e1affc93	andi	x25,x31,-486	 x31:0x00000000 x25=0x00000000
       55755000	      5574	80000620	ffd58c23	sb	x29,-8(x11)	 x11:0x8000878f x29:0x00000045 PA:0x80008787
       55765000	      5575	80000624	9fc9c793	xori	x15,x19,-1540	 x19:0x80000000 x15=0x7ffff9fc
       55775000	      5576	80000628	ff85aaa3	sw	x24,-11(x11)	 x11:0x8000878f x24:0x00000080 PA:0x80008784
       55785000	      5577	8000062c	197ff697	auipc	x13,0x197ff	 x13=0x997ff628
       55795000	      5578	80000630	50598393	addi	x7,x19,1285	 x19:0x80000000  x7=0x80000505
       55805000	      5579	80000634	0181eab3	or	x21,x3,x24	  x3:0x0000004e x24:0x00000080 x21=0x000000ce
       55815000	      5580	80000638	00358323	sb	x3,6(x11)	 x11:0x8000878f  x3:0x0000004e PA:0x80008795
       55825000	      5581	8000063c	ff258f83	lb	x31,-14(x11)	 x11:0x8000878f x31=0xffffff9f PA:0x80008781
       55835000	      5582	80000640	00008217	auipc	x4,0x8	  x4=0x8000863c
       55845000	      5583	80000644	a8220213	addi	x4,x4,-1406	  x4:0x8000863c  x4=0x800080be
       55855000	      5584	80000648	8701a497	auipc	x9,0x8701a	  x9=0x0701a644
       55865000	      5585	8000064c	26720d23	sb	x7,634(x4)	  x4:0x800080be  x7:0x80000505 PA:0x80008338
       55875000	      5586	80000650	cf73a637	lui	x12,0xcf73a	 x12=0xcf73a000
       55885000	      5587	80000654	2a721523	sh	x7,682(x4)	  x4:0x800080be  x7:0x80000505 PA:0x80008368
       55895000	      5588	80000658	2e124a03	lbu	x20,737(x4)	  x4:0x800080be x20=0x00000000 PA:0x8000839f
       55905000	      5589	8000065c	00724d03	lbu	x26,7(x4)	  x4:0x800080be x26=0x0000007e PA:0x800080c5
       55915000	      5590	80000660	27b20603	lb	x12,635(x4)	  x4:0x800080be x12=0xfffffff2 PA:0x80008339
       55925000	      5591	80000664	01429cb3	sll	x25,x5,x20	  x5:0x00000000 x20:0x00000000 x25=0x00000000
       55935000	      5592	80000668	00e22883	lw	x17,14(x4)	  x4:0x800080be x17=0x84858687 PA:0x800080cc
       55945000	      5593	8000066c	01dd1d93	slli	x27,x26,0x1d	 x26:0x0000007e x27=0xc0000000
       55955000	      5594	80000670	01e481b3	add	x3,x9,x30	  x9:0x0701a644 x30:0xfe000000  x3=0x0501a644
       55965000	      5595	80000674	6b524403	lbu	x8,1717(x4)	  x4:0x800080be  x8=0x00000028 PA:0x80008773
       55975000	      5596	80000678	e4622013	slti	x0,x4,-442	  x4:0x800080be
       55985000	      5597	8000067c	01197e93	andi	x29,x18,17	 x18:0x00000000 x29=0x00000000
       55995000	      5598	80000680	51b204a3	sb	x27,1289(x4)	  x4:0x800080be x27:0xc0000000 PA:0x800085c7
       56005000	      5599	80000684	fcf20f03	lb	x30,-49(x4)	  x4:0x800080be x30=0x00000046 PA:0x8000808d
       56015000	      5600	80000688	6b3205a3	sb	x19,1707(x4)	  x4:0x800080be x19:0x80000000 PA:0x80008769
       56025000	      5601	8000068c	6a820ba3	sb	x8,1719(x4)	  x4:0x800080be  x8:0x00000028 PA:0x80008775
       56035000	      5602	80000690	e32ff4b7	lui	x9,0xe32ff	  x9=0xe32ff000
       56045000	      5603	80000694	40621f23	sh	x6,1054(x4)	  x4:0x800080be  x6:0xadbac331 PA:0x800084dc
       56055000	      5604	80000698	4d3209a3	sb	x19,1235(x4)	  x4:0x800080be x19:0x80000000 PA:0x80008591
       56065000	      5605	8000069c	23420383	lb	x7,564(x4)	  x4:0x800080be  x7=0xffffffa9 PA:0x800082f2
       56075000	      5606	800006a0	69124303	lbu	x6,1681(x4)	  x4:0x800080be  x6=0x00000004 PA:0x8000874f
       56085000	      5607	800006a4	5af20a93	addi	x21,x4,1455	  x4:0x800080be x21=0x8000866d
       56095000	      5608	800006a8	0141dab3	srl	x21,x3,x20	  x3:0x0501a644 x20:0x00000000 x21=0x0501a644
       56105000	      5609	800006ac	00397db3	and	x27,x18,x3	 x18:0x00000000  x3:0x0501a644 x27=0x00000000
       56115000	      5610	800006b0	4fe20ca3	sb	x30,1273(x4)	  x4:0x800080be x30:0x00000046 PA:0x800085b7
       56125000	      5611	800006b4	0a824703	lbu	x14,168(x4)	  x4:0x800080be x14=0x0000001d PA:0x80008166
       56135000	      5612	800006b8	0cdfe793	ori	x15,x31,205	 x31:0xffffff9f x15=0xffffffdf
       56145000	      5613	800006bc	20724d03	lbu	x26,519(x4)	  x4:0x800080be x26=0x0000007e PA:0x800082c5
       56155000	      5614	800006c0	48520e83	lb	x29,1157(x4)	  x4:0x800080be x29=0x00000005 PA:0x80008543
       56165000	      5615	800006c4	0084b033	sltu	x0,x9,x8	  x9:0xe32ff000  x8:0x00000028
       56175000	      5616	800006c8	017e9013	slli	x0,x29,0x17	 x29:0x00000005
       56185000	      5617	800006cc	01ba5a33	srl	x20,x20,x27	 x20:0x00000000 x27:0x00000000 x20=0x00000000
       56195000	      5618	800006d0	00277e33	and	x28,x14,x2	 x14:0x0000001d  x2:0x00000000 x28=0x00000000
       56205000	      5619	800006d4	4091d593	srai	x11,x3,0x9	  x3:0x0501a644 x11=0x000280d3
       56215000	      5620	800006d8	3dbfe513	ori	x10,x31,987	 x31:0xffffff9f x10=0xffffffdf
       56225000	      5621	800006dc	2bb20783	lb	x15,699(x4)	  x4:0x800080be x15=0x00000032 PA:0x80008379
       56235000	      5622	800006e0	3c820783	lb	x15,968(x4)	  x4:0x800080be x15=0x0000003d PA:0x80008486
       56245000	      5623	800006e4	a8b1f893	andi	x17,x3,-1397	  x3:0x0501a644 x17=0x0501a200
       56255000	      5624	800006e8	39920fa3	sb	x25,927(x4)	  x4:0x800080be x25:0x00000000 PA:0x8000845d
       56265000	      5625	800006ec	08922323	sw	x9,134(x4)	  x4:0x800080be  x9:0xe32ff000 PA:0x80008144
       56275000	      5626	800006f0	00009f17	auipc	x30,0x9	 x30=0x800096ec
       56285000	      5627	800006f4	8c0f0f13	addi	x30,x30,-1856	 x30:0x800096ec x30=0x80008fac
       56295000	      5628	800006f8	0068ad33	slt	x26,x17,x6	 x17:0x0501a200  x6:0x00000004 x26=0x00000000
       56305000	      5629	800006fc	000f1483	lh	x9,0(x30)	 x30:0x80008fac  x9=0xffff9697 PA:0x80008fac
       56315000	      5630	80000700	014f0b33	add	x22,x30,x20	 x30:0x80008fac x20:0x00000000 x22=0x80008fac
       56325000	      5631	80000704	0bd5e193	ori	x3,x11,189	 x11:0x000280d3  x3=0x000280ff
       56335000	      5632	80000708	002f2823	sw	x2,16(x30)	 x30:0x80008fac  x2:0x00000000 PA:0x80008fbc
       56345000	      5633	8000070c	007f0b03	lb	x22,7(x30)	 x30:0x80008fac x22=0xffffff98 PA:0x80008fb3
       56355000	      5634	80000710	01a431b3	sltu	x3,x8,x26	  x8:0x00000028 x26:0x00000000  x3=0x00000000
       56365000	      5635	80000714	ff2f1883	lh	x17,-14(x30)	 x30:0x80008fac x17=0xffff8485 PA:0x80008f9e
       56375000	      5636	80000718	ff8f1483	lh	x9,-8(x30)	 x30:0x80008fac  x9=0xffff8e8f PA:0x80008fa4
       56385000	      5637	8000071c	936a12b7	lui	x5,0x936a1	  x5=0x936a1000
       56395000	      5638	80000720	53fb1697	auipc	x13,0x53fb1	 x13=0xd3fb171c
       56405000	      5639	80000724	00e96ab3	or	x21,x18,x14	 x18:0x00000000 x14:0x0000001d x21=0x0000001d
       56415000	      5640	80000728	ffdf0d83	lb	x27,-3(x30)	 x30:0x80008fac x27=0xffffff92 PA:0x80008fa9
       56425000	      5641	8000072c	013f06a3	sb	x19,13(x30)	 x30:0x80008fac x19:0x80000000 PA:0x80008fb9
       56435000	      5642	80000730	00000013	addi	x0,x0,0	  x0:0x00000000
       56445000	      5643	80000734	ff4f2203	lw	x4,-12(x30)	 x30:0x80008fac  x4=0x88898a8b PA:0x80008fa0
       56455000	      5644	80000738	21d13a37	lui	x20,0x21d13	 x20=0x21d13000
       56465000	      5645	8000073c	00bf1723	sh	x11,14(x30)	 x30:0x80008fac x11:0x000280d3 PA:0x80008fba
       56475000	      5646	80000740	b0eb8893	addi	x17,x23,-1266	 x23:0x80009ee8 x17=0x800099f6
       56485000	      5647	80000744	ffcf0383	lb	x7,-4(x30)	 x30:0x80008fac  x7=0xffffff93 PA:0x80008fa8
       56495000	      5648	80000748	011c7b33	and	x22,x24,x17	 x24:0x00000080 x17:0x800099f6 x22=0x00000080
       56505000	      5649	8000074c	ff7f4683	lbu	x13,-9(x30)	 x30:0x80008fac x13=0x00000088 PA:0x80008fa3
       56515000	      5650	00000000	00000013	addi	x0,x0,0	  x0:0x00000000
       56525000	      5651	80000750	00df0683	lb	x13,13(x30)	 x30:0x80008fac x13=0x00000000 PA:0x80008fb9
       56535000	      5652	80000754	ff5f0d03	lb	x26,-11(x30)	 x30:0x80008fac x26=0xffffff8a PA:0x80008fa1
       56545000	      5653	80000758	00bf0b03	lb	x22,11(x30)	 x30:0x80008fac x22=0xffffff9c PA:0x80008fb7
       56555000	      5654	8000075c	00d3d933	srl	x18,x7,x13	  x7:0xffffff93 x13:0x00000000 x18=0xffffff93
       56565000	      5655	80000760	00af4483	lbu	x9,10(x30)	 x30:0x80008fac  x9=0x0000009d PA:0x80008fb6
       56575000	      5656	80000764	ffcf1e83	lh	x29,-4(x30)	 x30:0x80008fac x29=0xffff9293 PA:0x80008fa8
       56585000	      5657	80000768	00008e17	auipc	x28,0x8	 x28=0x80008764
       56595000	      5658	8000076c	2a3e0e13	addi	x28,x28,675	 x28:0x80008764 x28=0x80008a07
       56605000	      5659	80000770	fb0e0a83	lb	x21,-80(x28)	 x28:0x80008a07 x21=0xffffff9c PA:0x800089b7
       56615000	      5660	80000774	00265333	srl	x6,x12,x2	 x12:0xfffffff2  x2:0x00000000  x6=0xfffffff2
       56625000	      5661	80000778	00f16cb3	or	x25,x2,x15	  x2:0x00000000 x15:0x0000003d x25=0x0000003d
       56635000	      5662	8000077c	6f5cad93	slti	x27,x25,1781	 x25:0x0000003d x27=0x00000001
       56645000	      5663	80000780	f46e4e83	lbu	x29,-186(x28)	 x28:0x80008a07 x29=0x00000036 PA:0x8000894d
       56655000	      5664	80000784	00dbba33	sltu	x20,x23,x13	 x23:0x80009ee8 x13:0x00000000 x20=0x00000000
       56665000	      5665	80000788	15217b37	lui	x22,0x15217	 x22=0x15217000
       56675000	      5666	8000078c	41888733	sub	x14,x17,x24	 x17:0x800099f6 x24:0x00000080 x14=0x80009976
       56685000	      5667	80000790	e4d33f13	sltiu	x30,x6,-435	  x6:0xfffffff2 x30=0x00000000
       56695000	      5668	80000794	0774c893	xori	x17,x9,119	  x9:0x0000009d x17=0x000000ea
       56705000	      5669	80000798	0109ba33	sltu	x20,x19,x16	 x19:0x80000000 x16:0x80009fc4 x20=0x00000001
       56715000	      5670	8000079c	0e3e1d83	lh	x27,227(x28)	 x28:0x80008a07 x27=0xffffd0d1 PA:0x80008aea
       56725000	      5671	800007a0	00000013	addi	x0,x0,0	  x0:0x00000000
       56735000	      5672	800007a4	40fd02b3	sub	x5,x26,x15	 x26:0xffffff8a x15:0x0000003d  x5=0xffffff4d
       56745000	      5673	800007a8	0123bb33	sltu	x22,x7,x18	  x7:0xffffff93 x18:0xffffff93 x22=0x00000000
       56755000	      5674	800007ac	f7333f13	sltiu	x30,x6,-141	  x6:0xfffffff2 x30=0x00000000
       56765000	      5675	800007b0	00000013	addi	x0,x0,0	  x0:0x00000000
       56775000	      5676	800007b4	016637b3	sltu	x15,x12,x22	 x12:0xfffffff2 x22:0x00000000 x15=0x00000000
       56785000	      5677	800007b8	015107b3	add	x15,x2,x21	  x2:0x00000000 x21:0xffffff9c x15=0xffffff9c
       56795000	      5678	800007bc	40a8d713	srai	x14,x17,0xa	 x17:0x000000ea x14=0x00000000
       56805000	      5679	800007c0	0f7e4183	lbu	x3,247(x28)	 x28:0x80008a07  x3=0x000000e5 PA:0x80008afe
       56815000	      5680	800007c4	01031793	slli	x15,x6,0x10	  x6:0xfffffff2 x15=0xfff20000
       56825000	      5681	800007c8	010e7cb3	and	x25,x28,x16	 x28:0x80008a07 x16:0x80009fc4 x25=0x80008a04
       56835000	      5682	800007cc	0e9e18a3	sh	x9,241(x28)	 x28:0x80008a07  x9:0x0000009d PA:0x80008af8
       56845000	      5683	800007d0	01ac0033	add	x0,x24,x26	 x24:0x00000080 x26:0xffffff8a
       56855000	      5684	800007d4	015a8533	add	x10,x21,x21	 x21:0xffffff9c x21:0xffffff9c x10=0xffffff38
       56865000	      5685	800007d8	083e0783	lb	x15,131(x28)	 x28:0x80008a07 x15=0x00000071 PA:0x80008a8a
       56875000	      5686	800007dc	44ccf593	andi	x11,x25,1100	 x25:0x80008a04 x11=0x00000004
       56885000	      5687	800007e0	e0d97993	andi	x19,x18,-499	 x18:0xffffff93 x19=0xfffffe01
       56895000	      5688	800007e4	4e71bf93	sltiu	x31,x3,1255	  x3:0x000000e5 x31=0x00000001
       56905000	      5689	800007e8	fbae0383	lb	x7,-70(x28)	 x28:0x80008a07  x7=0xffffffaa PA:0x800089c1
       56915000	      5690	800007ec	fe3e4003	lbu	x0,-29(x28)	 x28:0x80008a07 PA:0x800089ea
       56925000	      5691	800007f0	27d3cf97	auipc	x31,0x27d3c	 x31=0xa7d3c7ec
       56935000	      5692	800007f4	0136fc33	and	x24,x13,x19	 x13:0x00000000 x19:0xfffffe01 x24=0x00000000
       56945000	      5693	800007f8	0c0e0023	sb	x0,192(x28)	 x28:0x80008a07  x0:0x00000000 PA:0x80008ac7
       56955000	      5694	800007fc	01ca5393	srli	x7,x20,0x1c	 x20:0x00000001  x7=0x00000000
       56965000	      5695	80000800	641eca37	lui	x20,0x641ec	 x20=0x641ec000
       56975000	      5696	80000804	d4a9cb13	xori	x22,x19,-694	 x19:0xfffffe01 x22=0x0000034b
       56985000	      5697	80000808	012af8b3	and	x17,x21,x18	 x21:0xffffff9c x18:0xffffff93 x17=0xffffff90
       56995000	      5698	8000080c	0a0e0f83	lb	x31,160(x28)	 x28:0x80008a07 x31=0xffffff8c PA:0x80008aa7
       57005000	      5699	80000810	00ef4233	xor	x4,x30,x14	 x30:0x00000000 x14:0x00000000  x4=0x00000000
       57015000	      5700	80000814	009c6e33	or	x28,x24,x9	 x24:0x00000000  x9:0x0000009d x28=0x0000009d
       57025000	      5701	80000818	0093adb3	slt	x27,x7,x9	  x7:0x00000000  x9:0x0000009d x27=0x00000001
       57035000	      5702	8000081c	011f8cb3	add	x25,x31,x17	 x31:0xffffff8c x17:0xffffff90 x25=0xffffff1c
       57045000	      5703	80000820	dbb7ca93	xori	x21,x15,-581	 x15:0x00000071 x21=0xfffffdca
       57055000	      5704	80000824	00c97533	and	x10,x18,x12	 x18:0xffffff93 x12:0xfffffff2 x10=0xffffff92
       57065000	      5705	80000828	018edc13	srli	x24,x29,0x18	 x29:0x00000036 x24=0x00000000
       57075000	      5706	8000082c	00f68633	add	x12,x13,x15	 x13:0x00000000 x15:0x00000071 x12=0x00000071
       57085000	      5707	80000830	cb5a3613	sltiu	x12,x20,-843	 x20:0x641ec000 x12=0x00000001
       57095000	      5708	80000834	6e77bf13	sltiu	x30,x15,1767	 x15:0x00000071 x30=0x00000001
       57105000	      5709	80000838	fa84a993	slti	x19,x9,-88	  x9:0x0000009d x19=0x00000000
       57115000	      5710	8000083c	0191c333	xor	x6,x3,x25	  x3:0x000000e5 x25:0xffffff1c  x6=0xfffffff9
       57125000	      5711	80000840	019771b3	and	x3,x14,x25	 x14:0x00000000 x25:0xffffff1c  x3=0x00000000
       57135000	      5712	80000844	b92eb937	lui	x18,0xb92eb	 x18=0xb92eb000
       57145000	      5713	80000848	411bdeb3	sra	x29,x23,x17	 x23:0x80009ee8 x17:0xffffff90 x29=0xffff8000
       57155000	      5714	8000084c	007001b3	add	x3,x0,x7	  x0:0x00000000  x7:0x00000000  x3=0x00000000
       57165000	      5715	80000850	006047b3	xor	x15,x0,x6	  x0:0x00000000  x6:0xfffffff9 x15=0xfffffff9
       57175000	      5716	80000854	00891533	sll	x10,x18,x8	 x18:0xb92eb000  x8:0x00000028 x10=0x2eb00000
       57185000	      5717	80000858	000c16b3	sll	x13,x24,x0	 x24:0x00000000  x0:0x00000000 x13=0x00000000
       57195000	      5718	8000085c	015775b3	and	x11,x14,x21	 x14:0x00000000 x21:0xfffffdca x11=0x00000000
       57205000	      5719	80000860	00d9d8b3	srl	x17,x19,x13	 x19:0x00000000 x13:0x00000000 x17=0x00000000
       57215000	      5720	80000864	43beea93	ori	x21,x29,1083	 x29:0xffff8000 x21=0xffff843b
       57225000	      5721	80000868	00cbde13	srli	x28,x23,0xc	 x23:0x80009ee8 x28=0x00080009
       57235000	      5722	8000086c	0e6b6663	bltu	x22,x6,80000958	 x22:0x0000034b  x6:0xfffffff9
       57245000	      5723	00000000	00000013	addi	x0,x0,0	  x0:0x00000000
       57255000	      5724	80000954	00000013	addi	x0,x0,0	  x0:0x00000000
       57265000	      5725	80000958	01694013	xori	x0,x18,22	 x18:0xb92eb000
       57275000	      5726	8000095c	00d631b3	sltu	x3,x12,x13	 x12:0x00000001 x13:0x00000000  x3=0x00000000
       57285000	      5727	80000960	04575863	bge	x14,x5,800009b0	 x14:0x00000000  x5:0xffffff4d
       57295000	      5728	00000000	00000013	addi	x0,x0,0	  x0:0x00000000
       57305000	      5729	800009ac	00000013	addi	x0,x0,0	  x0:0x00000000
       57315000	      5730	800009b0	00865693	srli	x13,x12,0x8	 x12:0x00000001 x13=0x00000000
       57325000	      5731	800009b4	00b11793	slli	x15,x2,0xb	  x2:0x00000000 x15=0x00000000
       57335000	      5732	800009b8	40fc5a33	sra	x20,x24,x15	 x24:0x00000000 x15:0x00000000 x20=0x00000000
       57345000	      5733	800009bc	4851a513	slti	x10,x3,1157	  x3:0x00000000 x10=0x00000001
       57355000	      5734	800009c0	00c69f13	slli	x30,x13,0xc	 x13:0x00000000 x30=0x00000000
       57365000	      5735	800009c4	014d3cb3	sltu	x25,x26,x20	 x26:0xffffff8a x20:0x00000000 x25=0x00000000
       57375000	      5736	800009c8	02147263	bgeu	x8,x1,800009ec	  x8:0x00000028  x1:0x80000000
       57385000	      5737	800009cc	e487bd93	sltiu	x27,x15,-440	 x15:0x00000000 x27=0x00000001
       57395000	      5738	800009d0	000e09b3	add	x19,x28,x0	 x28:0x00080009  x0:0x00000000 x19=0x00080009
       57405000	      5739	800009d4	fb65b213	sltiu	x4,x11,-74	 x11:0x00000000  x4=0x00000001
       57415000	      5740	800009d8	41f1d5b3	sra	x11,x3,x31	  x3:0x00000000 x31:0xffffff8c x11=0x00000000
       57425000	      5741	800009dc	4075d733	sra	x14,x11,x7	 x11:0x00000000  x7:0x00000000 x14=0x00000000
       57435000	      5742	800009e0	009776b3	and	x13,x14,x9	 x14:0x00000000  x9:0x0000009d x13=0x00000000
       57445000	      5743	800009e4	01ea1a63	bne	x20,x30,800009f8	 x20:0x00000000 x30:0x00000000
       57455000	      5744	800009e8	4082d193	srai	x3,x5,0x8	  x5:0xffffff4d  x3=0xffffffff
       57465000	      5745	800009ec	0166c9b3	xor	x19,x13,x22	 x13:0x00000000 x22:0x0000034b x19=0x0000034b
       57475000	      5746	800009f0	711a6d13	ori	x26,x20,1809	 x20:0x00000000 x26=0x00000711
       57485000	      5747	800009f4	40dd5a93	srai	x21,x26,0xd	 x26:0x00000711 x21=0x00000000
       57495000	      5748	800009f8	0076c9b3	xor	x19,x13,x7	 x13:0x00000000  x7:0x00000000 x19=0x00000000
       57505000	      5749	800009fc	02b0dc63	bge	x1,x11,80000a34	  x1:0x80000000 x11:0x00000000
       57515000	      5750	80000a00	49226a93	ori	x21,x4,1170	  x4:0x00000001 x21=0x00000493
       57525000	      5751	80000a04	00000013	addi	x0,x0,0	  x0:0x00000000
       57535000	      5752	80000a08	00000013	addi	x0,x0,0	  x0:0x00000000
       57545000	      5753	80000a0c	49a0d717	auipc	x14,0x49a0d	 x14=0xc9a0da08
       57555000	      5754	80000a10	003b7263	bgeu	x22,x3,80000a14	 x22:0x0000034b  x3:0xffffffff
       57565000	      5755	80000a14	01535eb3	srl	x29,x6,x21	  x6:0xfffffff9 x21:0x00000493 x29=0x00001fff
       57575000	      5756	80000a18	00585c33	srl	x24,x16,x5	 x16:0x80009fc4  x5:0xffffff4d x24=0x00040004
       57585000	      5757	80000a1c	01c44663	blt	x8,x28,80000a28	  x8:0x00000028 x28:0x00080009
       57595000	      5758	00000000	00000013	addi	x0,x0,0	  x0:0x00000000
       57605000	      5759	80000a24	00000013	addi	x0,x0,0	  x0:0x00000000
       57615000	      5760	80000a28	c66eb013	sltiu	x0,x29,-922	 x29:0x00001fff
       57625000	      5761	80000a2c	01aa4b33	xor	x22,x20,x26	 x20:0x00000000 x26:0x00000711 x22=0x00000711
       57635000	      5762	80000a30	018d4633	xor	x12,x26,x24	 x26:0x00000711 x24:0x00040004 x12=0x00040715
       57645000	      5763	80000a34	01962c33	slt	x24,x12,x25	 x12:0x00040715 x25:0x00000000 x24=0x00000000
       57655000	      5764	80000a38	47e46593	ori	x11,x8,1150	  x8:0x00000028 x11=0x0000047e
       57665000	      5765	80000a3c	e5e0bd37	lui	x26,0xe5e0b	 x26=0xe5e0b000
       57675000	      5766	80000a40	02f58463	beq	x11,x15,80000a68	 x11:0x0000047e x15:0x00000000
       57685000	      5767	80000a44	035ef263	bgeu	x29,x21,80000a68	 x29:0x00001fff x21:0x00000493
       57695000	      5768	00000000	00000013	addi	x0,x0,0	  x0:0x00000000
       57705000	      5769	80000a64	00000013	addi	x0,x0,0	  x0:0x00000000
       57715000	      5770	80000a68	41a35c93	srai	x25,x6,0x1a	  x6:0xfffffff9 x25=0xffffffff
       57725000	      5771	80000a6c	12ca4b13	xori	x22,x20,300	 x20:0x00000000 x22=0x0000012c
       57735000	      5772	80000a70	34796393	ori	x7,x18,839	 x18:0xb92eb000  x7=0xb92eb347
       57745000	      5773	80000a74	024f5e63	bge	x30,x4,80000ab0	 x30:0x00000000  x4:0x00000001
       57755000	      5774	80000a78	001b5c13	srli	x24,x22,0x1	 x22:0x0000012c x24=0x00000096
       57765000	      5775	80000a7c	9a2205b7	lui	x11,0x9a220	 x11=0x9a220000
       57775000	      5776	80000a80	77a84613	xori	x12,x16,1914	 x16:0x80009fc4 x12=0x800098be
       57785000	      5777	80000a84	04bbc263	blt	x23,x11,80000ac8	 x23:0x80009ee8 x11:0x9a220000
       57795000	      5778	00000000	00000013	addi	x0,x0,0	  x0:0x00000000
       57805000	      5779	80000ac4	00000013	addi	x0,x0,0	  x0:0x00000000
       57815000	      5780	80000ac8	010a5c93	srli	x25,x20,0x10	 x20:0x00000000 x25=0x00000000
       57825000	      5781	80000acc	f57c2493	slti	x9,x24,-169	 x24:0x00000096  x9=0x00000000
       57835000	      5782	80000ad0	00000013	addi	x0,x0,0	  x0:0x00000000
       57845000	      5783	80000ad4	019d75b3	and	x11,x26,x25	 x26:0xe5e0b000 x25:0x00000000 x11=0x00000000
       57855000	      5784	80000ad8	0033d033	srl	x0,x7,x3	  x7:0xb92eb347  x3:0xffffffff
       57865000	      5785	80000adc	d58eee37	lui	x28,0xd58ee	 x28=0xd58ee000
       57875000	      5786	80000ae0	00d95033	srl	x0,x18,x13	 x18:0xb92eb000 x13:0x00000000
       57885000	      5787	80000ae4	ba3bbc13	sltiu	x24,x23,-1117	 x23:0x80009ee8 x24=0x00000001
       57895000	      5788	80000ae8	00e82cb3	slt	x25,x16,x14	 x16:0x80009fc4 x14:0xc9a0da08 x25=0x00000001
       57905000	      5789	80000aec	02dd0663	beq	x26,x13,80000b18	 x26:0xe5e0b000 x13:0x00000000
       57915000	      5790	80000af0	00331613	slli	x12,x6,0x3	  x6:0xfffffff9 x12=0xffffffc8
       57925000	      5791	80000af4	2e19ef13	ori	x30,x19,737	 x19:0x00000000 x30=0x000002e1
       57935000	      5792	80000af8	0433d463	bge	x7,x3,80000b40	  x7:0xb92eb347  x3:0xffffffff
       57945000	      5793	80000afc	8a061537	lui	x10,0x8a061	 x10=0x8a061000
       57955000	      5794	80000b00	91894293	xori	x5,x18,-1768	 x18:0xb92eb000  x5=0x46d14918
       57965000	      5795	80000b04	ab6c7f93	andi	x31,x24,-1354	 x24:0x00000001 x31=0x00000000
       57975000	      5796	80000b08	00d69a33	sll	x20,x13,x13	 x13:0x00000000 x13:0x00000000 x20=0x00000000
       57985000	      5797	80000b0c	019781b3	add	x3,x15,x25	 x15:0x00000000 x25:0x00000001  x3=0x00000001
       57995000	      5798	80000b10	00b50d33	add	x26,x10,x11	 x10:0x8a061000 x11:0x00000000 x26=0x8a061000
       58005000	      5799	80000b14	02e6f463	bgeu	x13,x14,80000b3c	 x13:0x00000000 x14:0xc9a0da08
       58015000	      5800	80000b18	00000013	addi	x0,x0,0	  x0:0x00000000
       58025000	      5801	80000b1c	049ee663	bltu	x29,x9,80000b68	 x29:0x00001fff  x9:0x00000000
       58035000	      5802	80000b20	00a624b3	slt	x9,x12,x10	 x12:0xffffffc8 x10:0x8a061000  x9=0x00000000
       58045000	      5803	80000b24	00e897b3	sll	x15,x17,x14	 x17:0x00000000 x14:0xc9a0da08 x15=0x00000000
       58055000	      5804	80000b28	405d0133	sub	x2,x26,x5	 x26:0x8a061000  x5:0x46d14918  x2=0x4334c6e8
       58065000	      5805	80000b2c	0008f2b3	and	x5,x17,x0	 x17:0x00000000  x0:0x00000000  x5=0x00000000
       58075000	      5806	80000b30	005dffb3	and	x31,x27,x5	 x27:0x00000001  x5:0x00000000 x31=0x00000000
       58085000	      5807	80000b34	0054eab3	or	x21,x9,x5	  x9:0x00000000  x5:0x00000000 x21=0x00000000
       58095000	      5808	80000b38	01d38c33	add	x24,x7,x29	  x7:0xb92eb347 x29:0x00001fff x24=0xb92ed346
       58105000	      5809	80000b3c	9660af93	slti	x31,x1,-1690	  x1:0x80000000 x31=0x00000001
       58115000	      5810	80000b40	005adf33	srl	x30,x21,x5	 x21:0x00000000  x5:0x00000000 x30=0x00000000
       58125000	      5811	80000b44	0120ad33	slt	x26,x1,x18	  x1:0x80000000 x18:0xb92eb000 x26=0x00000001
       58135000	      5812	80000b48	02ddc463	blt	x27,x13,80000b70	 x27:0x00000001 x13:0x00000000
       58145000	      5813	80000b4c	6ebee717	auipc	x14,0x6ebee	 x14=0xeebeeb48
       58155000	      5814	80000b50	5c3b3c37	lui	x24,0x5c3b3	 x24=0x5c3b3000
       58165000	      5815	80000b54	9e6d6c13	ori	x24,x26,-1562	 x26:0x00000001 x24=0xfffff9e7
       58175000	      5816	80000b58	10fd4e93	xori	x29,x26,271	 x26:0x00000001 x29=0x0000010e
       58185000	      5817	80000b5c	548f7cb7	lui	x25,0x548f7	 x25=0x548f7000
       58195000	      5818	80000b60	00133db3	sltu	x27,x6,x1	  x6:0xfffffff9  x1:0x80000000 x27=0x00000000
       58205000	      5819	80000b64	20904f93	xori	x31,x0,521	  x0:0x00000000 x31=0x00000209
       58215000	      5820	80000b68	86152613	slti	x12,x10,-1951	 x10:0x8a061000 x12=0x00000001
       58225000	      5821	80000b6c	f265a213	slti	x4,x11,-218	 x11:0x00000000  x4=0x00000000
       58235000	      5822	80000b70	5af73593	sltiu	x11,x14,1455	 x14:0xeebeeb48 x11=0x00000000
       58245000	      5823	80000b74	dcc46017	auipc	x0,0xdcc46	
       58255000	      5824	80000b78	01458c63	beq	x11,x20,80000b90	 x11:0x00000000 x20:0x00000000
       58265000	      5825	00000000	00000013	addi	x0,x0,0	  x0:0x00000000
       58275000	      5826	80000b8c	00000013	addi	x0,x0,0	  x0:0x00000000
       58285000	      5827	80000b90	00687863	bgeu	x16,x6,80000ba0	 x16:0x80009fc4  x6:0xfffffff9
       58295000	      5828	80000b94	401b8e33	sub	x28,x23,x1	 x23:0x80009ee8  x1:0x80000000 x28=0x00009ee8
       58305000	      5829	80000b98	6a12c893	xori	x17,x5,1697	  x5:0x00000000 x17=0x000006a1
       58315000	      5830	80000b9c	028e0c63	beq	x28,x8,80000bd4	 x28:0x00009ee8  x8:0x00000028
       58325000	      5831	80000ba0	00061133	sll	x2,x12,x0	 x12:0x00000001  x0:0x00000000  x2=0x00000001
       58335000	      5832	80000ba4	181d41b7	lui	x3,0x181d4	  x3=0x181d4000
       58345000	      5833	80000ba8	00000013	addi	x0,x0,0	  x0:0x00000000
       58355000	      5834	80000bac	044ee663	bltu	x29,x4,80000bf8	 x29:0x0000010e  x4:0x00000000
       58365000	      5835	80000bb0	02e99663	bne	x19,x14,80000bdc	 x19:0x00000000 x14:0xeebeeb48
       58375000	      5836	00000000	00000013	addi	x0,x0,0	  x0:0x00000000
       58385000	      5837	80000bd8	00000013	addi	x0,x0,0	  x0:0x00000000
       58395000	      5838	80000bdc	04fe5263	bge	x28,x15,80000c20	 x28:0x00009ee8 x15:0x00000000
       58405000	      5839	00000000	00000013	addi	x0,x0,0	  x0:0x00000000
       58415000	      5840	80000c1c	00000013	addi	x0,x0,0	  x0:0x00000000
       58425000	      5841	80000c20	e3acee13	ori	x28,x25,-454	 x25:0x548f7000 x28=0xfffffe3a
       58435000	      5842	80000c24	01d1b1b3	sltu	x3,x3,x29	  x3:0x181d4000 x29:0x0000010e  x3=0x00000000
       58445000	      5843	80000c28	4e107993	andi	x19,x0,1249	  x0:0x00000000 x19=0x00000000
       58455000	      5844	80000c2c	017b64b3	or	x9,x22,x23	 x22:0x0000012c x23:0x80009ee8  x9=0x80009fec
       58465000	      5845	80000c30	027a7c63	bgeu	x20,x7,80000c68	 x20:0x00000000  x7:0xb92eb347
       58475000	      5846	80000c34	04240263	beq	x8,x2,80000c78	  x8:0x00000028  x2:0x00000001
       58485000	      5847	80000c38	01ed8263	beq	x27,x30,80000c3c	 x27:0x00000000 x30:0x00000000
       58495000	      5848	00000000	00000013	addi	x0,x0,0	  x0:0x00000000
       58505000	      5849	80000c38	00000013	addi	x0,x0,0	  x0:0x00000000
       58515000	      5850	80000c3c	40460c33	sub	x24,x12,x4	 x12:0x00000001  x4:0x00000000 x24=0x00000001
       58525000	      5851	80000c40	02f10263	beq	x2,x15,80000c64	  x2:0x00000001 x15:0x00000000
       58535000	      5852	80000c44	a0a82013	slti	x0,x16,-1526	 x16:0x80009fc4
       58545000	      5853	80000c48	419ad993	srai	x19,x21,0x19	 x21:0x00000000 x19=0x00000000
       58555000	      5854	80000c4c	5acdfc93	andi	x25,x27,1452	 x27:0x00000000 x25=0x00000000
       58565000	      5855	80000c50	002e28b3	slt	x17,x28,x2	 x28:0xfffffe3a  x2:0x00000001 x17=0x00000001
       58575000	      5856	80000c54	7fde7993	andi	x19,x28,2045	 x28:0xfffffe3a x19=0x00000638
       58585000	      5857	80000c58	01191d33	sll	x26,x18,x17	 x18:0xb92eb000 x17:0x00000001 x26=0x725d6000
       58595000	      5858	80000c5c	00de0db3	add	x27,x28,x13	 x28:0xfffffe3a x13:0x00000000 x27=0xfffffe3a
       58605000	      5859	80000c60	00309533	sll	x10,x1,x3	  x1:0x80000000  x3:0x00000000 x10=0x80000000
       58615000	      5860	80000c64	038ad463	bge	x21,x24,80000c8c	 x21:0x00000000 x24:0x00000001
       58625000	      5861	80000c68	4254cc17	auipc	x24,0x4254c	 x24=0xc254cc64
       58635000	      5862	80000c6c	baa8aa13	slti	x20,x17,-1110	 x17:0x00000001 x20=0x00000000
       58645000	      5863	80000c70	056c6263	bltu	x24,x22,80000cb4	 x24:0xc254cc64 x22:0x0000012c
       58655000	      5864	80000c74	9fcc3913	sltiu	x18,x24,-1540	 x24:0xc254cc64 x18=0x00000001
       58665000	      5865	80000c78	0192bfb3	sltu	x31,x5,x25	  x5:0x00000000 x25:0x00000000 x31=0x00000000
       58675000	      5866	80000c7c	c8543913	sltiu	x18,x8,-891	  x8:0x00000028 x18=0x00000001
       58685000	      5867	80000c80	00963c33	sltu	x24,x12,x9	 x12:0x00000001  x9:0x80009fec x24=0x00000001
       58695000	      5868	80000c84	40585a93	srai	x21,x16,0x5	 x16:0x80009fc4 x21=0xfc0004fe
       58705000	      5869	80000c88	e2916e93	ori	x29,x2,-471	  x2:0x00000001 x29=0xfffffe29
       58715000	      5870	80000c8c	01344133	xor	x2,x8,x19	  x8:0x00000028 x19:0x00000638  x2=0x00000610
       58725000	      5871	80000c90	8d3d6313	ori	x6,x26,-1837	 x26:0x725d6000  x6=0xfffff8d3
       58735000	      5872	80000c94	00539613	slli	x12,x7,0x5	  x7:0xb92eb347 x12=0x25d668e0
       58745000	      5873	80000c98	00b445b3	xor	x11,x8,x11	  x8:0x00000028 x11:0x00000000 x11=0x00000028
       58755000	      5874	80000c9c	29c87a17	auipc	x20,0x29c87	 x20=0xa9c87c98
       58765000	      5875	80000ca0	05d5f663	bgeu	x11,x29,80000cec	 x11:0x00000028 x29:0xfffffe29
       58775000	      5876	80000ca4	04f64863	blt	x12,x15,80000cf4	 x12:0x25d668e0 x15:0x00000000
       58785000	      5877	80000ca8	01d7acb3	slt	x25,x15,x29	 x15:0x00000000 x29:0xfffffe29 x25=0x00000000
       58795000	      5878	80000cac	40f20f33	sub	x30,x4,x15	  x4:0x00000000 x15:0x00000000 x30=0x00000000
       58805000	      5879	80000cb0	038f1663	bne	x30,x24,80000cdc	 x30:0x00000000 x24:0x00000001
       58815000	      5880	00000000	00000013	addi	x0,x0,0	  x0:0x00000000
       58825000	      5881	80000cd8	00000013	addi	x0,x0,0	  x0:0x00000000
       58835000	      5882	80000cdc	133bbb13	sltiu	x22,x23,307	 x23:0x80009ee8 x22=0x00000000
       58845000	      5883	80000ce0	eb50c893	xori	x17,x1,-331	  x1:0x80000000 x17=0x7ffffeb5
       58855000	      5884	80000ce4	b79a0217	auipc	x4,0xb79a0	  x4=0x379a0ce0
       58865000	      5885	80000ce8	037f7263	bgeu	x30,x23,80000d0c	 x30:0x00000000 x23:0x80009ee8
       58875000	      5886	80000cec	0104f2b3	and	x5,x9,x16	  x9:0x80009fec x16:0x80009fc4  x5=0x80009fc4
       58885000	      5887	80000cf0	019dce33	xor	x28,x27,x25	 x27:0xfffffe3a x25:0x00000000 x28=0xfffffe3a
       58895000	      5888	80000cf4	013d9413	slli	x8,x27,0x13	 x27:0xfffffe3a  x8=0xf1d00000
       58905000	      5889	80000cf8	b8af4313	xori	x6,x30,-1142	 x30:0x00000000  x6=0xfffffb8a
       58915000	      5890	80000cfc	013f1663	bne	x30,x19,80000d08	 x30:0x00000000 x19:0x00000638
       58925000	      5891	00000000	00000013	addi	x0,x0,0	  x0:0x00000000
       58935000	      5892	80000d04	00000013	addi	x0,x0,0	  x0:0x00000000
       58945000	      5893	80000d08	385f3493	sltiu	x9,x30,901	 x30:0x00000000  x9=0x00000001
       58955000	      5894	80000d0c	00a89d93	slli	x27,x17,0xa	 x17:0x7ffffeb5 x27=0xfffad400
       58965000	      5895	80000d10	00002697	auipc	x13,0x2	 x13=0x80002d0c
       58975000	      5896	80000d14	70868693	addi	x13,x13,1800	 x13:0x80002d0c x13=0x80003414
       58985000	      5897	80000d18	ba8db993	sltiu	x19,x27,-1112	 x27:0xfffad400 x19=0x00000001
       58995000	      5898	80000d1c	2bd68693	addi	x13,x13,701	 x13:0x80003414 x13=0x800036d1
       59005000	      5899	80000d20	6add4793	xori	x15,x26,1709	 x26:0x725d6000 x15=0x725d66ad
       59015000	      5900	80000d24	01fe1913	slli	x18,x28,0x1f	 x28:0xfffffe3a x18=0x00000000
       59025000	      5901	80000d28	00a371b3	and	x3,x6,x10	  x6:0xfffffb8a x10:0x80000000  x3=0x80000000
       59035000	      5902	80000d2c	00000013	addi	x0,x0,0	  x0:0x00000000
       59045000	      5903	80000d30	11958e37	lui	x28,0x11958	 x28=0x11958000
       59055000	      5904	80000d34	00b849b3	xor	x19,x16,x11	 x16:0x80009fc4 x11:0x00000028 x19=0x80009fec
       59065000	      5905	80000d38	d4468367	jalr	x6,x13,-700	 x13:0x800036d1  x6=0x80000d38
       59075000	      5906	00000000	00000013	addi	x0,x0,0	  x0:0x00000000
       59085000	      5907	80003414	00000013	addi	x0,x0,0	  x0:0x00000000
       59095000	      5908	80003418	554eaf93	slti	x31,x29,1364	 x29:0xfffffe29 x31=0x00000001
       59105000	      5909	8000341c	fd4b8b93	addi	x23,x23,-44	 x23:0x80009ee8 x23=0x80009ebc
       59115000	      5910	80003420	40d25a33	sra	x20,x4,x13	  x4:0x379a0ce0 x13:0x800036d1 x20=0x00001bcd
       59125000	      5911	80003424	9eb62893	slti	x17,x12,-1557	 x12:0x25d668e0 x17=0x00000000
       59135000	      5912	80003428	01904cb3	xor	x25,x0,x25	  x0:0x00000000 x25:0x00000000 x25=0x00000000
       59145000	      5913	8000342c	e36a7f93	andi	x31,x20,-458	 x20:0x00001bcd x31=0x00001a04
       59155000	      5914	80003430	00000013	addi	x0,x0,0	  x0:0x00000000
       59165000	      5915	80003434	0b6e7a13	andi	x20,x28,182	 x28:0x11958000 x20=0x00000000
       59175000	      5916	80003438	00289193	slli	x3,x17,0x2	 x17:0x00000000  x3=0x00000000
       59185000	      5917	8000343c	006ba223	sw	x6,4(x23)	 x23:0x80009ebc  x6:0x80000d38 PA:0x80009ec0
       59195000	      5918	80003440	e0bef013	andi	x0,x29,-501	 x29:0xfffffe29
       59205000	      5919	80003444	0225f593	andi	x11,x11,34	 x11:0x00000028 x11=0x00000020
       59215000	      5920	80003448	00006197	auipc	x3,0x6	  x3=0x80009444
       59225000	      5921	8000344c	81018193	addi	x3,x3,-2032	  x3:0x80009444  x3=0x80008c54
       59235000	      5922	80003450	0041c633	xor	x12,x3,x4	  x3:0x80008c54  x4:0x379a0ce0 x12=0xb79a80b4
       59245000	      5923	80003454	6b6e2693	slti	x13,x28,1718	 x28:0x11958000 x13=0x00000000
       59255000	      5924	80003458	70c4c893	xori	x17,x9,1804	  x9:0x00000001 x17=0x0000070d
       59265000	      5925	8000345c	01b6fc33	and	x24,x13,x27	 x13:0x00000000 x27:0xfffad400 x24=0x00000000
       59275000	      5926	80003460	01631c33	sll	x24,x6,x22	  x6:0x80000d38 x22:0x00000000 x24=0x80000d38
       59285000	      5927	80003464	41ead2b3	sra	x5,x21,x30	 x21:0xfc0004fe x30:0x00000000  x5=0xfc0004fe
       59295000	      5928	80003468	965a6317	auipc	x6,0x965a6	  x6=0x165a9464
       59305000	      5929	8000346c	e2e183a3	sb	x14,-473(x3)	  x3:0x80008c54 x14:0xeebeeb48 PA:0x80008a7b
       59315000	      5930	80003470	d7918823	sb	x25,-656(x3)	  x3:0x80008c54 x25:0x00000000 PA:0x800089c4
       59325000	      5931	80003474	00590eb3	add	x29,x18,x5	 x18:0x00000000  x5:0xfc0004fe x29=0xfc0004fe
       59335000	      5932	80003478	09118483	lb	x9,145(x3)	  x3:0x80008c54  x9=0xffffffce PA:0x80008ce5
       59345000	      5933	8000347c	d7f182a3	sb	x31,-667(x3)	  x3:0x80008c54 x31:0x00001a04 PA:0x800089b9
       59355000	      5934	80003480	ca127293	andi	x5,x4,-863	  x4:0x379a0ce0  x5=0x379a0ca0
       59365000	      5935	80003484	017c3033	sltu	x0,x24,x23	 x24:0x80000d38 x23:0x80009ebc
       59375000	      5936	80003488	01366433	or	x8,x12,x19	 x12:0xb79a80b4 x19:0x80009fec  x8=0xb79a9ffc
       59385000	      5937	8000348c	d951c003	lbu	x0,-619(x3)	  x3:0x80008c54 PA:0x800089e9
       59395000	      5938	80003490	80322cb7	lui	x25,0x80322	 x25=0x80322000
       59405000	      5939	80003494	99f07f93	andi	x31,x0,-1633	  x0:0x00000000 x31=0x00000000
       59415000	      5940	80003498	1c9183a3	sb	x9,455(x3)	  x3:0x80008c54  x9:0xffffffce PA:0x80008e1b
       59425000	      5941	8000349c	01e2fc33	and	x24,x5,x30	  x5:0x379a0ca0 x30:0x00000000 x24=0x00000000
       59435000	      5942	800034a0	33a47213	andi	x4,x8,826	  x8:0xb79a9ffc  x4=0x00000338
       59445000	      5943	800034a4	00037333	and	x6,x6,x0	  x6:0x165a9464  x0:0x00000000  x6=0x00000000
       59455000	      5944	800034a8	cc293713	sltiu	x14,x18,-830	 x18:0x00000000 x14=0x00000001
       59465000	      5945	800034ac	97ac0593	addi	x11,x24,-1670	 x24:0x00000000 x11=0xfffff97a
       59475000	      5946	800034b0	014eb933	sltu	x18,x29,x20	 x29:0xfc0004fe x20:0x00000000 x18=0x00000000
       59485000	      5947	800034b4	2df1a223	sw	x31,708(x3)	  x3:0x80008c54 x31:0x00000000 PA:0x80008f18
       59495000	      5948	800034b8	27218d03	lb	x26,626(x3)	  x3:0x80008c54 x26=0xffffffad PA:0x80008ec6
       59505000	      5949	800034bc	d3f189a3	sb	x31,-717(x3)	  x3:0x80008c54 x31:0x00000000 PA:0x80008987
       59515000	      5950	800034c0	18d182a3	sb	x13,389(x3)	  x3:0x80008c54 x13:0x00000000 PA:0x80008dd9
       59525000	      5951	800034c4	d931cd83	lbu	x27,-621(x3)	  x3:0x80008c54 x27=0x000000cc PA:0x800089e7
       59535000	      5952	800034c8	eeb19223	sh	x11,-284(x3)	  x3:0x80008c54 x11:0xfffff97a PA:0x80008b38
       59545000	      5953	800034cc	03318b03	lb	x22,51(x3)	  x3:0x80008c54 x22=0x0000006c PA:0x80008c87
       59555000	      5954	800034d0	d791ca83	lbu	x21,-647(x3)	  x3:0x80008c54 x21=0x000000b6 PA:0x800089cd
       59565000	      5955	800034d4	13318003	lb	x0,307(x3)	  x3:0x80008c54 PA:0x80008d87
       59575000	      5956	800034d8	00005c97	auipc	x25,0x5	 x25=0x800084d4
       59585000	      5957	800034dc	c25c8c93	addi	x25,x25,-987	 x25:0x800084d4 x25=0x800080f9
       59595000	      5958	800034e0	048cc503	lbu	x10,72(x25)	 x25:0x800080f9 x10=0x000000fa PA:0x80008141
       59605000	      5959	800034e4	019cd1b3	srl	x3,x25,x25	 x25:0x800080f9 x25:0x800080f9  x3=0x00000040
       59615000	      5960	800034e8	8903a213	slti	x4,x7,-1904	  x7:0xb92eb347  x4=0x00000001
       59625000	      5961	800034ec	1b5c9aa3	sh	x21,437(x25)	 x25:0x800080f9 x21:0x000000b6 PA:0x800082ae
       59635000	      5962	800034f0	412201b3	sub	x3,x4,x18	  x4:0x00000001 x18:0x00000000  x3=0x00000001
       59645000	      5963	800034f4	548cce03	lbu	x28,1352(x25)	 x25:0x800080f9 x28=0x000000fa PA:0x80008641
       59655000	      5964	800034f8	4125d313	srai	x6,x11,0x12	 x11:0xfffff97a  x6=0xffffffff
       59665000	      5965	800034fc	fa4c8aa3	sb	x4,-75(x25)	 x25:0x800080f9  x4:0x00000001 PA:0x800080ae
       59675000	      5966	80003500	004587b3	add	x15,x11,x4	 x11:0xfffff97a  x4:0x00000001 x15=0xfffff97b
       59685000	      5967	80003504	52cc8d03	lb	x26,1324(x25)	 x25:0x800080f9 x26=0xffffffde PA:0x80008625
       59695000	      5968	00000000	00000013	addi	x0,x0,0	  x0:0x00000000
       59705000	      5969	80003508	01a405b3	add	x11,x8,x26	  x8:0xb79a9ffc x26:0xffffffde x11=0xb79a9fda
       59715000	      5970	8000350c	06ac90a3	sh	x10,97(x25)	 x25:0x800080f9 x10:0x000000fa PA:0x8000815a
       59725000	      5971	80003510	be9577b7	lui	x15,0xbe957	 x15=0xbe957000
       59735000	      5972	80003514	6af03c13	sltiu	x24,x0,1711	  x0:0x00000000 x24=0x00000001
       59745000	      5973	80003518	605c8703	lb	x14,1541(x25)	 x25:0x800080f9 x14=0xffffffb5 PA:0x800086fe
       59755000	      5974	8000351c	00cf24b3	slt	x9,x30,x12	 x30:0x00000000 x12:0xb79a80b4  x9=0x00000000
       59765000	      5975	80003520	ddf3b613	sltiu	x12,x7,-545	  x7:0xb92eb347 x12=0x00000001
       59775000	      5976	80003524	97a77713	andi	x14,x14,-1670	 x14:0xffffffb5 x14=0xfffff930
       59785000	      5977	80003528	635ccf83	lbu	x31,1589(x25)	 x25:0x800080f9 x31=0x000000e5 PA:0x8000872e
       59795000	      5978	8000352c	41ec8f23	sb	x30,1054(x25)	 x25:0x800080f9 x30:0x00000000 PA:0x80008517
       59805000	      5979	80003530	4e4c82a3	sb	x4,1253(x25)	 x25:0x800080f9  x4:0x00000001 PA:0x800085de
       59815000	      5980	80003534	3dcbcc13	xori	x24,x23,988	 x23:0x80009ebc x24=0x80009d60
       59825000	      5981	80003538	0071cf33	xor	x30,x3,x7	  x3:0x00000001  x7:0xb92eb347 x30=0xb92eb346
       59835000	      5982	8000353c	33bc8aa3	sb	x27,821(x25)	 x25:0x800080f9 x27:0x000000cc PA:0x8000842e
       59845000	      5983	80003540	42cc8983	lb	x19,1068(x25)	 x25:0x800080f9 x19=0xffffffde PA:0x80008525
       59855000	      5984	80003544	509c8a03	lb	x20,1289(x25)	 x25:0x800080f9 x20=0xffffffb9 PA:0x80008602
       59865000	      5985	80003548	fd2cc303	lbu	x6,-46(x25)	 x25:0x800080f9  x6=0x00000080 PA:0x800080cb
       59875000	      5986	8000354c	01790ab3	add	x21,x18,x23	 x18:0x00000000 x23:0x80009ebc x21=0x80009ebc
       59885000	      5987	80003550	505c9b03	lh	x22,1285(x25)	 x25:0x800080f9 x22=0x00000100 PA:0x800085fe
       59895000	      5988	80003554	aa7fff17	auipc	x30,0xaa7ff	 x30=0x2a802550
       59905000	      5989	80003558	008bfeb3	and	x29,x23,x8	 x23:0x80009ebc  x8:0xb79a9ffc x29=0x80009ebc
       59915000	      5990	8000355c	4e8cc683	lbu	x13,1256(x25)	 x25:0x800080f9 x13=0x0000009a PA:0x800085e1
       59925000	      5991	80003560	41dbdeb3	sra	x29,x23,x29	 x23:0x80009ebc x29:0x80009ebc x29=0xfffffff8
       59935000	      5992	80003564	199bc2b7	lui	x5,0x199bc	  x5=0x199bc000
       59945000	      5993	80003568	f6dded97	auipc	x27,0xf6dde	 x27=0x76de1564
       59955000	      5994	8000356c	44ccc383	lbu	x7,1100(x25)	 x25:0x800080f9  x7=0x000000fe PA:0x80008545
       59965000	      5995	80003570	01c356b3	srl	x13,x6,x28	  x6:0x00000080 x28:0x000000fa x13=0x00000000
       59975000	      5996	80003574	67acca03	lbu	x20,1658(x25)	 x25:0x800080f9 x20=0x00000028 PA:0x80008773
       59985000	      5997	80003578	01e9d513	srli	x10,x19,0x1e	 x19:0xffffffde x10=0x00000003
       59995000	      5998	8000357c	a4e2a613	slti	x12,x5,-1458	  x5:0x199bc000 x12=0x00000000
       60005000	      5999	80003580	22ec8a83	lb	x21,558(x25)	 x25:0x800080f9 x21=0xffffffdc PA:0x80008327
       60015000	      6000	80003584	4e1bda17	auipc	x20,0x4e1bd	 x20=0xce1c0580
       60025000	      6001	80003588	01ad95b3	sll	x11,x27,x26	 x27:0x76de1564 x26:0xffffffde x11=0x00000000
       60035000	      6002	8000358c	000c0033	add	x0,x24,x0	 x24:0x80009d60  x0:0x00000000
       60045000	      6003	80003590	05ac8003	lb	x0,90(x25)	 x25:0x800080f9 PA:0x80008153
       60055000	      6004	80003594	472c8183	lb	x3,1138(x25)	 x25:0x800080f9  x3=0x00000000 PA:0x8000856b
       60065000	      6005	80003598	548c8023	sb	x8,1344(x25)	 x25:0x800080f9  x8:0xb79a9ffc PA:0x80008639
       60075000	      6006	8000359c	4afcc583	lbu	x11,1199(x25)	 x25:0x800080f9 x11=0x00000063 PA:0x800085a8
       60085000	      6007	800035a0	fdfc9a03	lh	x20,-33(x25)	 x25:0x800080f9 x20=0xffff9293 PA:0x800080d8
       60095000	      6008	800035a4	00005697	auipc	x13,0x5	 x13=0x800085a0
       60105000	      6009	800035a8	e7268693	addi	x13,x13,-398	 x13:0x800085a0 x13=0x80008412
       60115000	      6010	800035ac	ff669a83	lh	x21,-10(x13)	 x13:0x80008412 x21=0xffffc2c3 PA:0x80008408
       60125000	      6011	800035b0	00a69c03	lh	x24,10(x13)	 x13:0x80008412 x24=0xffffd6d7 PA:0x8000841c
       60135000	      6012	800035b4	ff068c83	lb	x25,-16(x13)	 x13:0x80008412 x25=0xffffffb9 PA:0x80008402
       60145000	      6013	800035b8	00868f03	lb	x30,8(x13)	 x13:0x80008412 x30=0xffffffd1 PA:0x8000841a
       60155000	      6014	800035bc	a7ad1497	auipc	x9,0xa7ad1	  x9=0x27ad45b8
       60165000	      6015	800035c0	01f0af33	slt	x30,x1,x31	  x1:0x80000000 x31:0x000000e5 x30=0x00000001
       60175000	      6016	800035c4	ff6689a3	sb	x22,-13(x13)	 x13:0x80008412 x22:0x00000100 PA:0x80008405
       60185000	      6017	800035c8	018c6cb3	or	x25,x24,x24	 x24:0xffffd6d7 x24:0xffffd6d7 x25=0xffffd6d7
       60195000	      6018	800035cc	0036ca83	lbu	x21,3(x13)	 x13:0x80008412 x21=0x0000009e PA:0x80008415
       60205000	      6019	800035d0	4049d713	srai	x14,x19,0x4	 x19:0xffffffde x14=0xfffffffd
       60215000	      6020	800035d4	6c986c17	auipc	x24,0x6c986	 x24=0xec9895d0
       60225000	      6021	800035d8	d7e64fb7	lui	x31,0xd7e64	 x31=0xd7e64000
       60235000	      6022	800035dc	0088d313	srli	x6,x17,0x8	 x17:0x0000070d  x6=0x00000007
       60245000	      6023	800035e0	8aabab13	slti	x22,x23,-1878	 x23:0x80009ebc x22=0x00000001
       60255000	      6024	800035e4	ffe68c03	lb	x24,-2(x13)	 x13:0x80008412 x24=0xffffffcb PA:0x80008410
       60265000	      6025	800035e8	01769123	sh	x23,2(x13)	 x13:0x80008412 x23:0x80009ebc PA:0x80008414
       60275000	      6026	800035ec	00b68a83	lb	x21,11(x13)	 x13:0x80008412 x21=0xffffffd6 PA:0x8000841d
       60285000	      6027	00000000	00000013	addi	x0,x0,0	  x0:0x00000000
       60295000	      6028	800035f0	01ba9e93	slli	x29,x21,0x1b	 x21:0xffffffd6 x29=0xb0000000
       60305000	      6029	800035f4	00a5df93	srli	x31,x11,0xa	 x11:0x00000063 x31=0x00000000
       60315000	      6030	800035f8	0107a8b3	slt	x17,x15,x16	 x15:0xbe957000 x16:0x80009fc4 x17=0x00000000
       60325000	      6031	800035fc	00b8bdb3	sltu	x27,x17,x11	 x17:0x00000000 x11:0x00000063 x27=0x00000001
       60335000	      6032	80003600	00269103	lh	x2,2(x13)	 x13:0x80008412  x2=0xffff9ebc PA:0x80008414
       60345000	      6033	80003604	01e5e233	or	x4,x11,x30	 x11:0x00000063 x30:0x00000001  x4=0x00000063
       60355000	      6034	80003608	01b95113	srli	x2,x18,0x1b	 x18:0x00000000  x2=0x00000000
       60365000	      6035	8000360c	00d85533	srl	x10,x16,x13	 x16:0x80009fc4 x13:0x80008412 x10=0x00002000
       60375000	      6036	80003610	00650633	add	x12,x10,x6	 x10:0x00002000  x6:0x00000007 x12=0x00002007
       60385000	      6037	80003614	ffb6c103	lbu	x2,-5(x13)	 x13:0x80008412  x2=0x000000c6 PA:0x8000840d
       60395000	      6038	80003618	01f8d713	srli	x14,x17,0x1f	 x17:0x00000000 x14=0x00000000
       60405000	      6039	8000361c	419bd733	sra	x14,x23,x25	 x23:0x80009ebc x25:0xffffd6d7 x14=0xffffff00
       60415000	      6040	80003620	4c96e597	auipc	x11,0x4c96e	 x11=0xcc97161c
       60425000	      6041	80003624	fe36a923	sw	x3,-14(x13)	 x13:0x80008412  x3:0x00000000 PA:0x80008404
       60435000	      6042	80003628	01469823	sh	x20,16(x13)	 x13:0x80008412 x20:0xffff9293 PA:0x80008422
       60445000	      6043	8000362c	830d3193	sltiu	x3,x26,-2000	 x26:0xffffffde  x3=0x00000000
       60455000	      6044	80003630	00000013	addi	x0,x0,0	  x0:0x00000000
       60465000	      6045	80003634	ffa69203	lh	x4,-6(x13)	 x13:0x80008412  x4=0xffffc6c7 PA:0x8000840c
       60475000	      6046	80003638	ff16c903	lbu	x18,-15(x13)	 x13:0x80008412 x18=0x000000b8 PA:0x80008403
       60485000	      6047	8000363c	41e4d613	srai	x12,x9,0x1e	  x9:0x27ad45b8 x12=0x00000000
       60495000	      6048	80003640	ffa68d03	lb	x26,-6(x13)	 x13:0x80008412 x26=0xffffffc7 PA:0x8000840c
       60505000	      6049	80003644	fee68fa3	sb	x14,-1(x13)	 x13:0x80008412 x14:0xffffff00 PA:0x80008411
       60515000	      6050	80003648	00005117	auipc	x2,0x5	  x2=0x80008644
       60525000	      6051	8000364c	e1710113	addi	x2,x2,-489	  x2:0x80008644  x2=0x8000845b
       60535000	      6052	80003650	01235893	srli	x17,x6,0x12	  x6:0x00000007 x17=0x00000000
       60545000	      6053	80003654	25c11ba3	sh	x28,599(x2)	  x2:0x8000845b x28:0x000000fa PA:0x800086b2
       60555000	      6054	80003658	523ee893	ori	x17,x29,1315	 x29:0xb0000000 x17=0xb0000523
       60565000	      6055	8000365c	688cc213	xori	x4,x25,1672	 x25:0xffffd6d7  x4=0xffffd05f
       60575000	      6056	80003660	fa911e83	lh	x29,-87(x2)	  x2:0x8000845b x29=0x00000000 PA:0x80008404
       60585000	      6057	80003664	09c10c03	lb	x24,156(x2)	  x2:0x8000845b x24=0xffffffac PA:0x800084f7
       60595000	      6058	80003668	40cb02b3	sub	x5,x22,x12	 x22:0x00000001 x12:0x00000000  x5=0x00000001
       60605000	      6059	8000366c	0cc10b03	lb	x22,204(x2)	  x2:0x8000845b x22=0xffffffdc PA:0x80008527
       60615000	      6060	80003670	50fbdc17	auipc	x24,0x50fbd	 x24=0xd0fc066c
       60625000	      6061	80003674	f7c14c03	lbu	x24,-132(x2)	  x2:0x8000845b x24=0x0000008c PA:0x800083d7
       60635000	      6062	80003678	00000013	addi	x0,x0,0	  x0:0x00000000
       60645000	      6063	8000367c	524b4e93	xori	x29,x22,1316	 x22:0xffffffdc x29=0xfffffaf8
       60655000	      6064	80003680	87a42c13	slti	x24,x8,-1926	  x8:0xb79a9ffc x24=0x00000001
       60665000	      6065	80003684	00626ab3	or	x21,x4,x6	  x4:0xffffd05f  x6:0x00000007 x21=0xffffd05f
       60675000	      6066	80003688	ccf14c83	lbu	x25,-817(x2)	  x2:0x8000845b x25=0x000000e1 PA:0x8000812a
       60685000	      6067	8000368c	a87bf013	andi	x0,x23,-1401	 x23:0x80009ebc
       60695000	      6068	80003690	2cc14183	lbu	x3,716(x2)	  x2:0x8000845b  x3=0x000000dc PA:0x80008727
       60705000	      6069	80003694	ce010c83	lb	x25,-800(x2)	  x2:0x8000845b x25=0xfffffff0 PA:0x8000813b
       60715000	      6070	80003698	10510c23	sb	x5,280(x2)	  x2:0x8000845b  x5:0x00000001 PA:0x80008573
       60725000	      6071	8000369c	175122a3	sw	x21,357(x2)	  x2:0x8000845b x21:0xffffd05f PA:0x800085c0
       60735000	      6072	800036a0	01f7d213	srli	x4,x15,0x1f	 x15:0xbe957000  x4=0x00000001
       60745000	      6073	800036a4	306124a3	sw	x6,777(x2)	  x2:0x8000845b  x6:0x00000007 PA:0x80008764
       60755000	      6074	800036a8	00b39793	slli	x15,x7,0xb	  x7:0x000000fe x15=0x0007f000
       60765000	      6075	800036ac	00811893	slli	x17,x2,0x8	  x2:0x8000845b x17=0x00845b00
       60775000	      6076	800036b0	c6b15583	lhu	x11,-917(x2)	  x2:0x8000845b x11=0x00007c7d PA:0x800080c6
       60785000	      6077	800036b4	cc314903	lbu	x18,-829(x2)	  x2:0x8000845b x18=0x000000d5 PA:0x8000811e
       60795000	      6078	800036b8	d0512a03	lw	x20,-763(x2)	  x2:0x8000845b x20=0x18191a1b PA:0x80008160
       60805000	      6079	800036bc	018d1a13	slli	x20,x26,0x18	 x26:0xffffffc7 x20=0xc7000000
       60815000	      6080	800036c0	a0434c13	xori	x24,x6,-1532	  x6:0x00000007 x24=0xfffffa03
       60825000	      6081	800036c4	dca10d03	lb	x26,-566(x2)	  x2:0x8000845b x26=0xffffffde PA:0x80008225
       60835000	      6082	800036c8	010ba633	slt	x12,x23,x16	 x23:0x80009ebc x16:0x80009fc4 x12=0x00000001
       60845000	      6083	800036cc	000388b3	add	x17,x7,x0	  x7:0x000000fe  x0:0x00000000 x17=0x000000fe
       60855000	      6084	800036d0	40a9d313	srai	x6,x19,0xa	 x19:0xffffffde  x6=0xffffffff
       60865000	      6085	800036d4	b80fe313	ori	x6,x31,-1152	 x31:0x00000000  x6=0xfffffb80
       60875000	      6086	800036d8	3af10d23	sb	x15,954(x2)	  x2:0x8000845b x15:0x0007f000 PA:0x80008815
       60885000	      6087	800036dc	0039a213	slti	x4,x19,3	 x19:0xffffffde  x4=0x00000001
       60895000	      6088	800036e0	07810b03	lb	x22,120(x2)	  x2:0x8000845b x22=0xffffff88 PA:0x800084d3
       60905000	      6089	800036e4	488c4c93	xori	x25,x24,1160	 x24:0xfffffa03 x25=0xfffffe8b
       60915000	      6090	800036e8	5d3ef593	andi	x11,x29,1491	 x29:0xfffffaf8 x11=0x000000d0
       60925000	      6091	800036ec	d1610a83	lb	x21,-746(x2)	  x2:0x8000845b x21=0x0000002a PA:0x80008171
       60935000	      6092	800036f0	15710e83	lb	x29,343(x2)	  x2:0x8000845b x29=0x00000069 PA:0x800085b2
       60945000	      6093	800036f4	4546e613	ori	x12,x13,1108	 x13:0x80008412 x12=0x80008456
       60955000	      6094	800036f8	d1315283	lhu	x5,-749(x2)	  x2:0x8000845b  x5=0x00002425 PA:0x8000816e
       60965000	      6095	800036fc	0a410283	lb	x5,164(x2)	  x2:0x8000845b  x5=0xffffffb4 PA:0x800084ff
       60975000	      6096	80003700	000ad413	srli	x8,x21,0x0	 x21:0x0000002a  x8=0x0000002a
       60985000	      6097	80003704	2c5f0e93	addi	x29,x30,709	 x30:0x00000001 x29=0x000002c6
       60995000	      6098	80003708	018e9eb3	sll	x29,x29,x24	 x29:0x000002c6 x24:0xfffffa03 x29=0x00001630
       61005000	      6099	8000370c	d1912f03	lw	x30,-743(x2)	  x2:0x8000845b x30=0x2c2d2e2f PA:0x80008174
       61015000	      6100	80003710	00005117	auipc	x2,0x5	  x2=0x8000870c
       61025000	      6101	80003714	1dc10113	addi	x2,x2,476	  x2:0x8000870c  x2=0x800088e8
       61035000	      6102	80003718	00d10a83	lb	x21,13(x2)	  x2:0x800088e8 x21=0xffffffde PA:0x800088f5
       61045000	      6103	8000371c	76ed1937	lui	x18,0x76ed1	 x18=0x76ed1000
       61055000	      6104	80003720	f38a4c13	xori	x24,x20,-200	 x20:0xc7000000 x24=0x38ffff38
       61065000	      6105	80003724	ff310f03	lb	x30,-13(x2)	  x2:0x800088e8 x30=0xffffffc0 PA:0x800088db
       61075000	      6106	80003728	ff114003	lbu	x0,-15(x2)	  x2:0x800088e8 PA:0x800088d9
       61085000	      6107	8000372c	ffd14f83	lbu	x31,-3(x2)	  x2:0x800088e8 x31=0x000000ce PA:0x800088e5
       61095000	      6108	80003730	00814d03	lbu	x26,8(x2)	  x2:0x800088e8 x26=0x000000db PA:0x800088f0
       61105000	      6109	80003734	aa116413	ori	x8,x2,-1375	  x2:0x800088e8  x8=0xfffffae9
       61115000	      6110	80003738	ff714383	lbu	x7,-9(x2)	  x2:0x800088e8  x7=0x000000c4 PA:0x800088df
       61125000	      6111	8000373c	01d62b33	slt	x22,x12,x29	 x12:0x80008456 x29:0x00001630 x22=0x00000001
       61135000	      6112	80003740	74eff397	auipc	x7,0x74eff	  x7=0xf4f0273c
       61145000	      6113	80003744	410285b3	sub	x11,x5,x16	  x5:0xffffffb4 x16:0x80009fc4 x11=0x7fff5ff0
       61155000	      6114	80003748	00e306b3	add	x13,x6,x14	  x6:0xfffffb80 x14:0xffffff00 x13=0xfffffa80
       61165000	      6115	8000374c	ff614503	lbu	x10,-10(x2)	  x2:0x800088e8 x10=0x000000c5 PA:0x800088de
       61175000	      6116	80003750	0050ffb3	and	x31,x1,x5	  x1:0x80000000  x5:0xffffffb4 x31=0x80000000
       61185000	      6117	80003754	00514a03	lbu	x20,5(x2)	  x2:0x800088e8 x20=0x000000d6 PA:0x800088ed
       61195000	      6118	80003758	003a87b3	add	x15,x21,x3	 x21:0xffffffde  x3:0x000000dc x15=0x000000ba
       61205000	      6119	8000375c	01899033	sll	x0,x19,x24	 x19:0xffffffde x24:0x38ffff38
       61215000	      6120	80003760	00c14783	lbu	x15,12(x2)	  x2:0x800088e8 x15=0x000000df PA:0x800088f4
       61225000	      6121	80003764	fff14283	lbu	x5,-1(x2)	  x2:0x800088e8  x5=0x000000cc PA:0x800088e7
       61235000	      6122	80003768	01014a83	lbu	x21,16(x2)	  x2:0x800088e8 x21=0x000000e3 PA:0x800088f8
       61245000	      6123	8000376c	00061eb3	sll	x29,x12,x0	 x12:0x80008456  x0:0x00000000 x29=0x80008456
       61255000	      6124	80003770	00907db3	and	x27,x0,x9	  x0:0x00000000  x9:0x27ad45b8 x27=0x00000000
       61265000	      6125	80003774	ff010603	lb	x12,-16(x2)	  x2:0x800088e8 x12=0xffffffdf PA:0x800088d8
       61275000	      6126	80003778	ff710483	lb	x9,-9(x2)	  x2:0x800088e8  x9=0xffffffc4 PA:0x800088df
       61285000	      6127	8000377c	00b14a03	lbu	x20,11(x2)	  x2:0x800088e8 x20=0x000000d8 PA:0x800088f3
       61295000	      6128	80003780	00000013	addi	x0,x0,0	  x0:0x00000000
       61305000	      6129	80003784	009f94b3	sll	x9,x31,x9	 x31:0x80000000  x9:0xffffffc4  x9=0x00000000
       61315000	      6130	80003788	ffb14683	lbu	x13,-5(x2)	  x2:0x800088e8 x13=0x000000c8 PA:0x800088e3
       61325000	      6131	8000378c	fff10f23	sb	x31,-2(x2)	  x2:0x800088e8 x31:0x80000000 PA:0x800088e6
       61335000	      6132	80003790	00214403	lbu	x8,2(x2)	  x2:0x800088e8  x8=0x000000d1 PA:0x800088ea
       61345000	      6133	80003794	00215183	lhu	x3,2(x2)	  x2:0x800088e8  x3=0x0000d0d1 PA:0x800088ea
       61355000	      6134	00000000	00000013	addi	x0,x0,0	  x0:0x00000000
       61365000	      6135	80003798	00314c83	lbu	x25,3(x2)	  x2:0x800088e8 x25=0x000000d0 PA:0x800088eb
       61375000	      6136	8000379c	ff114a03	lbu	x20,-15(x2)	  x2:0x800088e8 x20=0x000000c2 PA:0x800088d9
       61385000	      6137	800037a0	ff015383	lhu	x7,-16(x2)	  x2:0x800088e8  x7=0x0000c2df PA:0x800088d8
       61395000	      6138	800037a4	406d86b3	sub	x13,x27,x6	 x27:0x00000000  x6:0xfffffb80 x13=0x00000480
       61405000	      6139	800037a8	00811703	lh	x14,8(x2)	  x2:0x800088e8 x14=0xffffdadb PA:0x800088f0
       61415000	      6140	800037ac	013af433	and	x8,x21,x19	 x21:0x000000e3 x19:0xffffffde  x8=0x000000c2
       61425000	      6141	800037b0	fef10823	sb	x15,-16(x2)	  x2:0x800088e8 x15:0x000000df PA:0x800088d8
       61435000	      6142	800037b4	ff110c03	lb	x24,-15(x2)	  x2:0x800088e8 x24=0xffffffc2 PA:0x800088d9
       61445000	      6143	800037b8	00a11683	lh	x13,10(x2)	  x2:0x800088e8 x13=0xffffd8d9 PA:0x800088f2
       61455000	      6144	800037bc	00615c03	lhu	x24,6(x2)	  x2:0x800088e8 x24=0x0000d4d5 PA:0x800088ee
       61465000	      6145	800037c0	00005717	auipc	x14,0x5	 x14=0x800087bc
       61475000	      6146	800037c4	34c70713	addi	x14,x14,844	 x14:0x800087bc x14=0x80008b08
       61485000	      6147	800037c8	e8a63b13	sltiu	x22,x12,-374	 x12:0xffffffdf x22=0x00000000
       61495000	      6148	800037cc	03b70683	lb	x13,59(x14)	 x14:0x80008b08 x13=0x00000028 PA:0x80008b43
       61505000	      6149	800037d0	00a97d33	and	x26,x18,x10	 x18:0x76ed1000 x10:0x000000c5 x26=0x00000000
       61515000	      6150	800037d4	cf6dcf13	xori	x30,x27,-778	 x27:0x00000000 x30=0xfffffcf6
       61525000	      6151	800037d8	0af70b03	lb	x22,175(x14)	 x14:0x80008b08 x22=0xffffff9c PA:0x80008bb7
       61535000	      6152	800037dc	019bae33	slt	x28,x23,x25	 x23:0x80009ebc x25:0x000000d0 x28=0x00000001
       61545000	      6153	800037e0	00611d93	slli	x27,x2,0x6	  x2:0x800088e8 x27=0x00223a00
       61555000	      6154	800037e4	fb174483	lbu	x9,-79(x14)	 x14:0x80008b08  x9=0x000000a2 PA:0x80008ab9
       61565000	      6155	800037e8	f9170623	sb	x17,-116(x14)	 x14:0x80008b08 x17:0x000000fe PA:0x80008a94
       61575000	      6156	800037ec	07e70e83	lb	x29,126(x14)	 x14:0x80008b08 x29=0x0000006d PA:0x80008b86
       61585000	      6157	00000000	00000013	addi	x0,x0,0	  x0:0x00000000
       61595000	      6158	800037f0	003ebd33	sltu	x26,x29,x3	 x29:0x0000006d  x3:0x0000d0d1 x26=0x00000001
       61605000	      6159	800037f4	00361b33	sll	x22,x12,x3	 x12:0xffffffdf  x3:0x0000d0d1 x22=0xffbe0000
       61615000	      6160	800037f8	06174c03	lbu	x24,97(x14)	 x14:0x80008b08 x24=0x00000052 PA:0x80008b69
       61625000	      6161	800037fc	01a6e333	or	x6,x13,x26	 x13:0x00000028 x26:0x00000001  x6=0x00000029
       61635000	      6162	80003800	00abd433	srl	x8,x23,x10	 x23:0x80009ebc x10:0x000000c5  x8=0x040004f5
       61645000	      6163	80003804	f68addb7	lui	x27,0xf68ad	 x27=0xf68ad000
       61655000	      6164	80003808	f05700a3	sb	x5,-255(x14)	 x14:0x80008b08  x5:0x000000cc PA:0x80008a09
       61665000	      6165	8000380c	f0d74f03	lbu	x30,-243(x14)	 x14:0x80008b08 x30=0x000000fe PA:0x80008a15
       61675000	      6166	80003810	001fbeb3	sltu	x29,x31,x1	 x31:0x80000000  x1:0x80000000 x29=0x00000000
       61685000	      6167	80003814	4c689997	auipc	x19,0x4c689	 x19=0xcc68c810
       61695000	      6168	80003818	fde75d03	lhu	x26,-34(x14)	 x14:0x80008b08 x26=0x0000cccd PA:0x80008ae6
       61705000	      6169	8000381c	99103413	sltiu	x8,x0,-1647	  x0:0x00000000  x8=0x00000001
       61715000	      6170	80003820	00d7c8b3	xor	x17,x15,x13	 x15:0x000000df x13:0x00000028 x17=0x000000f7
       61725000	      6171	80003824	010be893	ori	x17,x23,16	 x23:0x80009ebc x17=0x80009ebc
       61735000	      6172	80003828	00dcd913	srli	x18,x25,0xd	 x25:0x000000d0 x18=0x00000000
       61745000	      6173	8000382c	01c18cb3	add	x25,x3,x28	  x3:0x0000d0d1 x28:0x00000001 x25=0x0000d0d2
       61755000	      6174	80003830	20ee3413	sltiu	x8,x28,526	 x28:0x00000001  x8=0x00000001
       61765000	      6175	80003834	00e46133	or	x2,x8,x14	  x8:0x00000001 x14:0x80008b08  x2=0x80008b09
       61775000	      6176	80003838	40158fb3	sub	x31,x11,x1	 x11:0x7fff5ff0  x1:0x80000000 x31=0xffff5ff0
       61785000	      6177	8000383c	00c6c233	xor	x4,x13,x12	 x13:0x00000028 x12:0xffffffdf  x4=0xfffffff7
       61795000	      6178	80003840	0149b4b3	sltu	x9,x19,x20	 x19:0xcc68c810 x20:0x000000c2  x9=0x00000000
       61805000	      6179	80003844	41875e33	sra	x28,x14,x24	 x14:0x80008b08 x24:0x00000052 x28=0xffffe000
       61815000	      6180	80003848	8982a3b7	lui	x7,0x8982a	  x7=0x8982a000
       61825000	      6181	8000384c	00875b03	lhu	x22,8(x14)	 x14:0x80008b08 x22=0x0000fafb PA:0x80008b10
       61835000	      6182	80003850	00005d97	auipc	x27,0x5	 x27=0x8000884c
       61845000	      6183	80003854	32dd8d93	addi	x27,x27,813	 x27:0x8000884c x27=0x80008b79
       61855000	      6184	80003858	00000013	addi	x0,x0,0	  x0:0x00000000
       61865000	      6185	8000385c	00279633	sll	x12,x15,x2	 x15:0x000000df  x2:0x80008b09 x12=0x0001be00
       61875000	      6186	80003860	02bd8923	sb	x11,50(x27)	 x27:0x80008b79 x11:0x7fff5ff0 PA:0x80008bab
       61885000	      6187	80003864	f72dc683	lbu	x13,-142(x27)	 x27:0x80008b79 x13=0x000000d0 PA:0x80008aeb
       61895000	      6188	80003868	0c2dc483	lbu	x9,194(x27)	 x27:0x80008b79  x9=0x00000020 PA:0x80008c3b
       61905000	      6189	8000386c	0c6dcf83	lbu	x31,198(x27)	 x27:0x80008b79 x31=0x00000024 PA:0x80008c3f
       61915000	      6190	80003870	01bdab03	lw	x22,27(x27)	 x27:0x80008b79 x22=0x7c7d007f PA:0x80008b94
       61925000	      6191	80003874	00741b33	sll	x22,x8,x7	  x8:0x00000001  x7:0x8982a000 x22=0x00000001
       61935000	      6192	80003878	9b682393	slti	x7,x16,-1610	 x16:0x80009fc4  x7=0x00000001
       61945000	      6193	8000387c	f11d9183	lh	x3,-239(x27)	 x27:0x80008b79  x3=0x00007071 PA:0x80008a8a
       61955000	      6194	80003880	fcafca93	xori	x21,x31,-54	 x31:0x00000024 x21=0xffffffee
       61965000	      6195	80003884	f00d9ea3	sh	x0,-227(x27)	 x27:0x80008b79  x0:0x00000000 PA:0x80008a96
       61975000	      6196	80003888	f99ddb03	lhu	x22,-103(x27)	 x27:0x80008b79 x22=0x0000f8f9 PA:0x80008b12
       61985000	      6197	8000388c	f26d8903	lb	x18,-218(x27)	 x27:0x80008b79 x18=0xffffff84 PA:0x80008a9f
       61995000	      6198	80003890	f71d9003	lh	x0,-143(x27)	 x27:0x80008b79 PA:0x80008aea
       62005000	      6199	80003894	7c253417	auipc	x8,0x7c253	  x8=0xfc256890
       62015000	      6200	80003898	00cd8e23	sb	x12,28(x27)	 x27:0x80008b79 x12:0x0001be00 PA:0x80008b95
       62025000	      6201	8000389c	e1cfb997	auipc	x19,0xe1cfb	 x19=0x61cfe898
       62035000	      6202	800038a0	c1de1d17	auipc	x26,0xc1de1	 x26=0x41de489c
       62045000	      6203	800038a4	008ac8b3	xor	x17,x21,x8	 x21:0xffffffee  x8:0xfc256890 x17=0x03da977e
       62055000	      6204	800038a8	0b9d9ca3	sh	x25,185(x27)	 x27:0x80008b79 x25:0x0000d0d2 PA:0x80008c32
       62065000	      6205	800038ac	077ae317	auipc	x6,0x77ae	  x6=0x877b18a8
       62075000	      6206	800038b0	017ff333	and	x6,x31,x23	 x31:0x00000024 x23:0x80009ebc  x6=0x00000024
       62085000	      6207	800038b4	f04d8283	lb	x5,-252(x27)	 x27:0x80008b79  x5=0x00000066 PA:0x80008a7d
       62095000	      6208	800038b8	c0ae3313	sltiu	x6,x28,-1014	 x28:0xffffe000  x6=0x00000001
       62105000	      6209	800038bc	fc0d8a83	lb	x21,-64(x27)	 x27:0x80008b79 x21=0xfffffff9 PA:0x80008b39
       62115000	      6210	800038c0	fded8c23	sb	x30,-40(x27)	 x27:0x80008b79 x30:0x000000fe PA:0x80008b51
       62125000	      6211	800038c4	008d35b3	sltu	x11,x26,x8	 x26:0x41de489c  x8:0xfc256890 x11=0x00000001
       62135000	      6212	800038c8	01e6d293	srli	x5,x13,0x1e	 x13:0x000000d0  x5=0x00000000
       62145000	      6213	800038cc	000d8a83	lb	x21,0(x27)	 x27:0x80008b79 x21=0xffffffbb PA:0x80008b79
       62155000	      6214	800038d0	00005e17	auipc	x28,0x5	 x28=0x800088cc
       62165000	      6215	800038d4	46fe0e13	addi	x28,x28,1135	 x28:0x800088cc x28=0x80008d3b
       62175000	      6216	800038d8	f8be5203	lhu	x4,-117(x28)	 x28:0x80008d3b  x4=0x0000acad PA:0x80008cc6
       62185000	      6217	800038dc	014f5a93	srli	x21,x30,0x14	 x30:0x000000fe x21=0x00000000
       62195000	      6218	800038e0	0aee4f03	lbu	x30,174(x28)	 x28:0x80008d3b x30=0x000000d2 PA:0x80008de9
       62205000	      6219	800038e4	016cd033	srl	x0,x25,x22	 x25:0x0000d0d2 x22:0x0000f8f9
       62215000	      6220	800038e8	016a1593	slli	x11,x20,0x16	 x20:0x000000c2 x11=0x30800000
       62225000	      6221	800038ec	052e0123	sb	x18,66(x28)	 x28:0x80008d3b x18:0xffffff84 PA:0x80008d7d
       62235000	      6222	800038f0	ffae0b03	lb	x22,-6(x28)	 x28:0x80008d3b x22=0x0000001e PA:0x80008d35
       62245000	      6223	00000000	00000013	addi	x0,x0,0	  x0:0x00000000
       62255000	      6224	800038f4	00eb7733	and	x14,x22,x14	 x22:0x0000001e x14:0x80008b08 x14=0x00000008
       62265000	      6225	800038f8	f7ae04a3	sb	x26,-151(x28)	 x28:0x80008d3b x26:0x41de489c PA:0x80008ca4
       62275000	      6226	800038fc	0c6e0f03	lb	x30,198(x28)	 x28:0x80008d3b x30=0x0000002e PA:0x80008e01
       62285000	      6227	80003900	010d1db3	sll	x27,x26,x16	 x26:0x41de489c x16:0x80009fc4 x27=0x1de489c0
       62295000	      6228	80003904	00000013	addi	x0,x0,0	  x0:0x00000000
       62305000	      6229	80003908	0b5e08a3	sb	x21,177(x28)	 x28:0x80008d3b x21:0x00000000 PA:0x80008dec
       62315000	      6230	8000390c	4149dcb3	sra	x25,x19,x20	 x19:0x61cfe898 x20:0x000000c2 x25=0x1873fa26
       62325000	      6231	80003910	01f86a13	ori	x20,x16,31	 x16:0x80009fc4 x20=0x80009fdf
       62335000	      6232	80003914	050e0b23	sb	x16,86(x28)	 x28:0x80008d3b x16:0x80009fc4 PA:0x80008d91
       62345000	      6233	80003918	00a3a5b3	slt	x11,x7,x10	  x7:0x00000001 x10:0x000000c5 x11=0x00000001
       62355000	      6234	8000391c	047e4783	lbu	x15,71(x28)	 x28:0x80008d3b x15=0x00000069 PA:0x80008d82
       62365000	      6235	80003920	01b02a33	slt	x20,x0,x27	  x0:0x00000000 x27:0x1de489c0 x20=0x00000001
       62375000	      6236	80003924	fc0e0b03	lb	x22,-64(x28)	 x28:0x80008d3b x22=0xffffffe0 PA:0x80008cfb
       62385000	      6237	80003928	01f5f9b3	and	x19,x11,x31	 x11:0x00000001 x31:0x00000024 x19=0x00000000
       62395000	      6238	8000392c	006de9b3	or	x19,x27,x6	 x27:0x1de489c0  x6:0x00000001 x19=0x1de489c1
       62405000	      6239	80003930	0835a893	slti	x17,x11,131	 x11:0x00000001 x17=0x00000001
       62415000	      6240	80003934	14f72513	slti	x10,x14,335	 x14:0x00000008 x10=0x00000001
       62425000	      6241	80003938	06ce0383	lb	x7,108(x28)	 x28:0x80008d3b  x7=0xffffff8c PA:0x80008da7
       62435000	      6242	8000393c	fcae0823	sb	x10,-48(x28)	 x28:0x80008d3b x10:0x00000001 PA:0x80008d0b
       62445000	      6243	80003940	00005117	auipc	x2,0x5	  x2=0x8000893c
       62455000	      6244	80003944	43110113	addi	x2,x2,1073	  x2:0x8000893c  x2=0x80008d6d
       62465000	      6245	80003948	04408f93	addi	x31,x1,68	  x1:0x80000000 x31=0x80000044
       62475000	      6246	8000394c	0ad10223	sb	x13,164(x2)	  x2:0x80008d6d x13:0x000000d0 PA:0x80008e11
       62485000	      6247	80003950	014fde93	srli	x29,x31,0x14	 x31:0x80000044 x29=0x00000800
       62495000	      6248	80003954	04a10b03	lb	x22,74(x2)	  x2:0x80008d6d x22=0xffffff9c PA:0x80008db7
       62505000	      6249	80003958	fa710923	sb	x7,-78(x2)	  x2:0x80008d6d  x7:0xffffff8c PA:0x80008d1f
       62515000	      6250	8000395c	00da5e13	srli	x28,x20,0xd	 x20:0x00000001 x28=0x00000000
       62525000	      6251	80003960	0f510923	sb	x21,242(x2)	  x2:0x80008d6d x21:0x00000000 PA:0x80008e5f
       62535000	      6252	80003964	01c55b33	srl	x22,x10,x28	 x10:0x00000001 x28:0x00000000 x22=0x00000001
       62545000	      6253	80003968	0af10da3	sb	x15,187(x2)	  x2:0x80008d6d x15:0x00000069 PA:0x80008e28
       62555000	      6254	8000396c	4f74b797	auipc	x15,0x4f74b	 x15=0xcf74e968
       62565000	      6255	80003970	d155f417	auipc	x8,0xd155f	  x8=0x5156296c
       62575000	      6256	80003974	ffc14a03	lbu	x20,-4(x2)	  x2:0x80008d6d x20=0x00000052 PA:0x80008d69
       62585000	      6257	80003978	08c10fa3	sb	x12,159(x2)	  x2:0x80008d6d x12:0x0001be00 PA:0x80008e0c
       62595000	      6258	8000397c	00c95d33	srl	x26,x18,x12	 x18:0xffffff84 x12:0x0001be00 x26=0xffffff84
       62605000	      6259	80003980	01dfdb33	srl	x22,x31,x29	 x31:0x80000044 x29:0x00000800 x22=0x80000044
       62615000	      6260	80003984	00017cb3	and	x25,x2,x0	  x2:0x80008d6d  x0:0x00000000 x25=0x00000000
       62625000	      6261	80003988	00bb5033	srl	x0,x22,x11	 x22:0x80000044 x11:0x00000001
       62635000	      6262	8000398c	01510123	sb	x21,2(x2)	  x2:0x80008d6d x21:0x00000000 PA:0x80008d6f
       62645000	      6263	80003990	9391c293	xori	x5,x3,-1735	  x3:0x00007071  x5=0xffff8948
       62655000	      6264	80003994	de22a913	slti	x18,x5,-542	  x5:0xffff8948 x18=0x00000001
       62665000	      6265	80003998	00a69733	sll	x14,x13,x10	 x13:0x000000d0 x10:0x00000001 x14=0x000001a0
       62675000	      6266	8000399c	4d37f013	andi	x0,x15,1235	 x15:0xcf74e968
       62685000	      6267	800039a0	01510823	sb	x21,16(x2)	  x2:0x80008d6d x21:0x00000000 PA:0x80008d7d
       62695000	      6268	800039a4	012c38b3	sltu	x17,x24,x18	 x24:0x00000052 x18:0x00000001 x17=0x00000000
       62705000	      6269	800039a8	fb110983	lb	x19,-79(x2)	  x2:0x80008d6d x19=0x00000005 PA:0x80008d1e
       62715000	      6270	800039ac	2adf7793	andi	x15,x30,685	 x30:0x0000002e x15=0x0000002c
       62725000	      6271	800039b0	fe014003	lbu	x0,-32(x2)	  x2:0x80008d6d PA:0x80008d4d
       62735000	      6272	800039b4	06810683	lb	x13,104(x2)	  x2:0x80008d6d x13=0xffffffbe PA:0x80008dd5
       62745000	      6273	800039b8	01e3d5b3	srl	x11,x7,x30	  x7:0xffffff8c x30:0x0000002e x11=0x0003ffff
       62755000	      6274	800039bc	0f814583	lbu	x11,248(x2)	  x2:0x80008d6d x11=0x0000004e PA:0x80008e65
       62765000	      6275	800039c0	00677433	and	x8,x14,x6	 x14:0x000001a0  x6:0x00000001  x8=0x00000000
       62775000	      6276	800039c4	00ff0933	add	x18,x30,x15	 x30:0x0000002e x15:0x0000002c x18=0x0000005a
       62785000	      6277	800039c8	00546fb3	or	x31,x8,x5	  x8:0x00000000  x5:0xffff8948 x31=0xffff8948
       62795000	      6278	800039cc	025127a3	sw	x5,47(x2)	  x2:0x80008d6d  x5:0xffff8948 PA:0x80008d9c
       62805000	      6279	800039d0	04414583	lbu	x11,68(x2)	  x2:0x80008d6d x11=0x0000009a PA:0x80008db1
       62815000	      6280	00000000	00000013	addi	x0,x0,0	  x0:0x00000000
       62825000	      6281	800039d4	0065efb3	or	x31,x11,x6	 x11:0x0000009a  x6:0x00000001 x31=0x0000009b
       62835000	      6282	800039d8	7d6a7013	andi	x0,x20,2006	 x20:0x00000052
       62845000	      6283	800039dc	012f6d13	ori	x26,x30,18	 x30:0x0000002e x26=0x0000003e
       62855000	      6284	800039e0	07910f23	sb	x25,126(x2)	  x2:0x80008d6d x25:0x00000000 PA:0x80008deb
       62865000	      6285	800039e4	00b115a3	sh	x11,11(x2)	  x2:0x80008d6d x11:0x0000009a PA:0x80008d78
       62875000	      6286	800039e8	0182cb33	xor	x22,x5,x24	  x5:0xffff8948 x24:0x00000052 x22=0xffff891a
       62885000	      6287	800039ec	27934f97	auipc	x31,0x27934	 x31=0xa79379e8
       62895000	      6288	800039f0	00889493	slli	x9,x17,0x8	 x17:0x00000000  x9=0x00000000
       62905000	      6289	800039f4	fd810903	lb	x18,-40(x2)	  x2:0x80008d6d x18=0x0000002e PA:0x80008d45
       62915000	      6290	800039f8	00005717	auipc	x14,0x5	 x14=0x800089f4
       62925000	      6291	800039fc	a5470713	addi	x14,x14,-1452	 x14:0x800089f4 x14=0x80008448
       62935000	      6292	80003a00	00170103	lb	x2,1(x14)	 x14:0x80008448  x2=0x00000002 PA:0x80008449
       62945000	      6293	80003a04	f8170d83	lb	x27,-127(x14)	 x14:0x80008448 x27=0xffffff82 PA:0x800083c9
       62955000	      6294	80003a08	f0a74183	lbu	x3,-246(x14)	 x14:0x80008448  x3=0x00000009 PA:0x80008352
       62965000	      6295	80003a0c	010a5193	srli	x3,x20,0x10	 x20:0x00000052  x3=0x00000000
       62975000	      6296	80003a10	037709a3	sb	x23,51(x14)	 x14:0x80008448 x23:0x80009ebc PA:0x8000847b
       62985000	      6297	80003a14	07c74403	lbu	x8,124(x14)	 x14:0x80008448  x8=0x0000007f PA:0x800084c4
       62995000	      6298	80003a18	00c319b3	sll	x19,x6,x12	  x6:0x00000001 x12:0x0001be00 x19=0x00000001
       63005000	      6299	80003a1c	f6075403	lhu	x8,-160(x14)	 x14:0x80008448  x8=0x00006263 PA:0x800083a8
       63015000	      6300	80003a20	41d60033	sub	x0,x12,x29	 x12:0x0001be00 x29:0x00000800
       63025000	      6301	80003a24	04a74603	lbu	x12,74(x14)	 x14:0x80008448 x12=0x00000049 PA:0x80008492
       63035000	      6302	80003a28	0bb74503	lbu	x10,187(x14)	 x14:0x80008448 x10=0x000000b8 PA:0x80008503
       63045000	      6303	80003a2c	f0d70183	lb	x3,-243(x14)	 x14:0x80008448  x3=0x0000000e PA:0x80008355
       63055000	      6304	80003a30	01ed9db3	sll	x27,x27,x30	 x27:0xffffff82 x30:0x0000002e x27=0xffe08000
       63065000	      6305	80003a34	01cd96b3	sll	x13,x27,x28	 x27:0xffe08000 x28:0x00000000 x13=0xffe08000
       63075000	      6306	80003a38	6211fd93	andi	x27,x3,1569	  x3:0x0000000e x27=0x00000000
       63085000	      6307	80003a3c	f9f70e83	lb	x29,-97(x14)	 x14:0x80008448 x29=0xffffff9c PA:0x800083e7
       63095000	      6308	00000000	00000013	addi	x0,x0,0	  x0:0x00000000
       63105000	      6309	80003a40	00bef5b3	and	x11,x29,x11	 x29:0xffffff9c x11:0x0000009a x11=0x00000098
       63115000	      6310	80003a44	005eba33	sltu	x20,x29,x5	 x29:0xffffff9c  x5:0xffff8948 x20=0x00000000
       63125000	      6311	80003a48	0d170f83	lb	x31,209(x14)	 x14:0x80008448 x31=0xffffffd2 PA:0x80008519
       63135000	      6312	80003a4c	fe072f83	lw	x31,-32(x14)	 x14:0x80008448 x31=0xe0e1e2e3 PA:0x80008428
       63145000	      6313	80003a50	05770da3	sb	x23,91(x14)	 x14:0x80008448 x23:0x80009ebc PA:0x800084a3
       63155000	      6314	80003a54	ffc75683	lhu	x13,-4(x14)	 x14:0x80008448 x13=0x0000feff PA:0x80008444
       63165000	      6315	80003a58	07370203	lb	x4,115(x14)	 x14:0x80008448  x4=0x00000070 PA:0x800084bb
       63175000	      6316	80003a5c	015841b3	xor	x3,x16,x21	 x16:0x80009fc4 x21:0x00000000  x3=0x80009fc4
       63185000	      6317	80003a60	fdd74e83	lbu	x29,-35(x14)	 x14:0x80008448 x29=0x000000de PA:0x80008425
       63195000	      6318	80003a64	01ffc7b3	xor	x15,x31,x31	 x31:0xe0e1e2e3 x31:0xe0e1e2e3 x15=0x00000000
       63205000	      6319	80003a68	012c65b3	or	x11,x24,x18	 x24:0x00000052 x18:0x0000002e x11=0x0000007e
       63215000	      6320	80003a6c	00e74183	lbu	x3,14(x14)	 x14:0x80008448  x3=0x0000000d PA:0x80008456
       63225000	      6321	80003a70	00a701a3	sb	x10,3(x14)	 x14:0x80008448 x10:0x000000b8 PA:0x8000844b
       63235000	      6322	80003a74	01a27d33	and	x26,x4,x26	  x4:0x00000070 x26:0x0000003e x26=0x00000030
       63245000	      6323	80003a78	f1e701a3	sb	x30,-253(x14)	 x14:0x80008448 x30:0x0000002e PA:0x8000834b
       63255000	      6324	80003a7c	1379c313	xori	x6,x19,311	 x19:0x00000001  x6=0x00000136
       63265000	      6325	80003a80	f3674f83	lbu	x31,-202(x14)	 x14:0x80008448 x31=0x00000035 PA:0x8000837e
       63275000	      6326	80003a84	4171db33	sra	x22,x3,x23	  x3:0x0000000d x23:0x80009ebc x22=0x00000000
       63285000	      6327	80003a88	503aaa37	lui	x20,0x503aa	 x20=0x503aa000
       63295000	      6328	80003a8c	00533433	sltu	x8,x6,x5	  x6:0x00000136  x5:0xffff8948  x8=0x00000001
       63305000	      6329	80003a90	019fe8b3	or	x17,x31,x25	 x31:0x00000035 x25:0x00000000 x17=0x00000035
       63315000	      6330	80003a94	f1f70383	lb	x7,-225(x14)	 x14:0x80008448  x7=0x0000001c PA:0x80008367
       63325000	      6331	80003a98	fbd70123	sb	x29,-94(x14)	 x14:0x80008448 x29:0x000000de PA:0x800083ea
       63335000	      6332	80003a9c	0e370d83	lb	x27,227(x14)	 x14:0x80008448 x27=0xffffffc4 PA:0x8000852b
       63345000	      6333	80003aa0	007acf33	xor	x30,x21,x7	 x21:0x00000000  x7:0x0000001c x30=0x0000001c
       63355000	      6334	80003aa4	02870523	sb	x8,42(x14)	 x14:0x80008448  x8:0x00000001 PA:0x80008472
       63365000	      6335	80003aa8	01d41333	sll	x6,x8,x29	  x8:0x00000001 x29:0x000000de  x6=0x40000000
       63375000	      6336	80003aac	41fed593	srai	x11,x29,0x1f	 x29:0x000000de x11=0x00000000
       63385000	      6337	80003ab0	bd238313	addi	x6,x7,-1070	  x7:0x0000001c  x6=0xfffffbee
       63395000	      6338	80003ab4	2c5f8693	addi	x13,x31,709	 x31:0x00000035 x13=0x000002fa
       63405000	      6339	80003ab8	fb671023	sh	x22,-96(x14)	 x14:0x80008448 x22:0x00000000 PA:0x800083e8
       63415000	      6340	80003abc	fcd74603	lbu	x12,-51(x14)	 x14:0x80008448 x12=0x0000009e PA:0x80008415
       63425000	      6341	80003ac0	0bd71923	sh	x29,178(x14)	 x14:0x80008448 x29:0x000000de PA:0x800084fa
       63435000	      6342	80003ac4	00005e17	auipc	x28,0x5	 x28=0x80008ac0
       63445000	      6343	80003ac8	3f8e0e13	addi	x28,x28,1016	 x28:0x80008ac0 x28=0x80008eb8
       63455000	      6344	80003acc	f4be0c03	lb	x24,-181(x28)	 x28:0x80008eb8 x24=0xffffffe8 PA:0x80008e03
       63465000	      6345	80003ad0	6a61c013	xori	x0,x3,1702	  x3:0x0000000d
       63475000	      6346	80003ad4	050e5d83	lhu	x27,80(x28)	 x28:0x80008eb8 x27=0x0000f2f3 PA:0x80008f08
       63485000	      6347	80003ad8	fe1e0a03	lb	x20,-31(x28)	 x28:0x80008eb8 x20=0xffffff82 PA:0x80008e99
       63495000	      6348	80003adc	017854b3	srl	x9,x16,x23	 x16:0x80009fc4 x23:0x80009ebc  x9=0x00000008
       63505000	      6349	80003ae0	0179e133	or	x2,x19,x23	 x19:0x00000001 x23:0x80009ebc  x2=0x80009ebd
       63515000	      6350	80003ae4	00ad58b3	srl	x17,x26,x10	 x26:0x00000030 x10:0x000000b8 x17=0x00000000
       63525000	      6351	80003ae8	414b5393	srai	x7,x22,0x14	 x22:0x00000000  x7=0x00000000
       63535000	      6352	80003aec	00000013	addi	x0,x0,0	  x0:0x00000000
       63545000	      6353	80003af0	07fe0ea3	sb	x31,125(x28)	 x28:0x80008eb8 x31:0x00000035 PA:0x80008f35
       63555000	      6354	80003af4	400b5db3	sra	x27,x22,x0	 x22:0x00000000  x0:0x00000000 x27=0x00000000
       63565000	      6355	80003af8	8a2af313	andi	x6,x21,-1886	 x21:0x00000000  x6=0x00000000
       63575000	      6356	80003afc	fabe0e83	lb	x29,-85(x28)	 x28:0x80008eb8 x29=0x00000048 PA:0x80008e63
       63585000	      6357	80003b00	4959c013	xori	x0,x19,1173	 x19:0x00000001
       63595000	      6358	80003b04	03ae0703	lb	x14,58(x28)	 x28:0x80008eb8 x14=0xffffffd9 PA:0x80008ef2
       63605000	      6359	80003b08	01618733	add	x14,x3,x22	  x3:0x0000000d x22:0x00000000 x14=0x0000000d
       63615000	      6360	80003b0c	f14e03a3	sb	x20,-249(x28)	 x28:0x80008eb8 x20:0xffffff82 PA:0x80008dbf
       63625000	      6361	80003b10	f20e5383	lhu	x7,-224(x28)	 x28:0x80008eb8  x7=0x000000c3 PA:0x80008dd8
       63635000	      6362	80003b14	40db3e93	sltiu	x29,x22,1037	 x22:0x00000000 x29=0x00000001
       63645000	      6363	80003b18	41855913	srai	x18,x10,0x18	 x10:0x000000b8 x18=0x00000000
       63655000	      6364	80003b1c	82eba413	slti	x8,x23,-2002	 x23:0x80009ebc  x8=0x00000001
       63665000	      6365	80003b20	01a75113	srli	x2,x14,0x1a	 x14:0x0000000d  x2=0x00000000
       63675000	      6366	80003b24	fbde0903	lb	x18,-67(x28)	 x28:0x80008eb8 x18=0x0000005e PA:0x80008e75
       63685000	      6367	80003b28	010f9293	slli	x5,x31,0x10	 x31:0x00000035  x5=0x00350000
       63695000	      6368	80003b2c	043e4283	lbu	x5,67(x28)	 x28:0x80008eb8  x5=0x000000e0 PA:0x80008efb
       63705000	      6369	80003b30	5b9fc413	xori	x8,x31,1465	 x31:0x00000035  x8=0x0000058c
       63715000	      6370	80003b34	78c38793	addi	x15,x7,1932	  x7:0x000000c3 x15=0x0000084f
       63725000	      6371	80003b38	00b35593	srli	x11,x6,0xb	  x6:0x00000000 x11=0x00000000
       63735000	      6372	80003b3c	41b10033	sub	x0,x2,x27	  x2:0x00000000 x27:0x00000000
       63745000	      6373	80003b40	1d0d8993	addi	x19,x27,464	 x27:0x00000000 x19=0x000001d0
       63755000	      6374	80003b44	f04e1823	sh	x4,-240(x28)	 x28:0x80008eb8  x4:0x00000070 PA:0x80008dc8
       63765000	      6375	80003b48	fe7e4583	lbu	x11,-25(x28)	 x28:0x80008eb8 x11=0x00000084 PA:0x80008e9f
       63775000	      6376	80003b4c	f2de4c03	lbu	x24,-211(x28)	 x28:0x80008eb8 x24=0x000000ce PA:0x80008de5
       63785000	      6377	80003b50	011e2933	slt	x18,x28,x17	 x28:0x80008eb8 x17:0x00000000 x18=0x00000001
       63795000	      6378	80003b54	01ce59b3	srl	x19,x28,x28	 x28:0x80008eb8 x28:0x80008eb8 x19=0x00000080
       63805000	      6379	80003b58	fc3e4c83	lbu	x25,-61(x28)	 x28:0x80008eb8 x25=0x00000060 PA:0x80008e7b
       63815000	      6380	80003b5c	025e0383	lb	x7,37(x28)	 x28:0x80008eb8  x7=0xffffffc6 PA:0x80008edd
       63825000	      6381	80003b60	5265e017	auipc	x0,0x5265e	
       63835000	      6382	80003b64	f65e1723	sh	x5,-146(x28)	 x28:0x80008eb8  x5:0x000000e0 PA:0x80008e26
       63845000	      6383	80003b68	f9be2423	sw	x27,-120(x28)	 x28:0x80008eb8 x27:0x00000000 PA:0x80008e40
       63855000	      6384	80003b6c	f92e5a83	lhu	x21,-110(x28)	 x28:0x80008eb8 x21=0x00003031 PA:0x80008e4a
       63865000	      6385	80003b70	891b7b13	andi	x22,x22,-1903	 x22:0x00000000 x22=0x00000000
       63875000	      6386	80003b74	01c52d33	slt	x26,x10,x28	 x10:0x000000b8 x28:0x80008eb8 x26=0x00000000
       63885000	      6387	80003b78	f17e0c03	lb	x24,-233(x28)	 x28:0x80008eb8 x24=0xffffffb4 PA:0x80008dcf
       63895000	      6388	00000000	00000013	addi	x0,x0,0	  x0:0x00000000
       63905000	      6389	80003b7c	0b8e0303	lb	x6,184(x28)	 x28:0x80008eb8  x6=0x0000005b PA:0x80008f70
       63915000	      6390	80003b80	41610133	sub	x2,x2,x22	  x2:0x00000000 x22:0x00000000  x2=0x00000000
       63925000	      6391	80003b84	00ab6233	or	x4,x22,x10	 x22:0x00000000 x10:0x000000b8  x4=0x000000b8
       63935000	      6392	80003b88	fdbe1423	sh	x27,-56(x28)	 x28:0x80008eb8 x27:0x00000000 PA:0x80008e80
       63945000	      6393	80003b8c	0e3e0b03	lb	x22,227(x28)	 x28:0x80008eb8 x22=0xffffff80 PA:0x80008f9b
       63955000	      6394	80003b90	02de4703	lbu	x14,45(x28)	 x28:0x80008eb8 x14=0x000000ce PA:0x80008ee5
       63965000	      6395	80003b94	ff8e2483	lw	x9,-8(x28)	 x28:0x80008eb8  x9=0x98999a9b PA:0x80008eb0
       63975000	      6396	80003b98	00005217	auipc	x4,0x5	  x4=0x80008b94
       63985000	      6397	80003b9c	9be20213	addi	x4,x4,-1602	  x4:0x80008b94  x4=0x80008552
       63995000	      6398	80003ba0	ff720f83	lb	x31,-9(x4)	  x4:0x80008552 x31=0x00000002 PA:0x80008549
       64005000	      6399	00000000	00000013	addi	x0,x0,0	  x0:0x00000000
       64015000	      6400	80003ba4	01ff87b3	add	x15,x31,x31	 x31:0x00000002 x31:0x00000002 x15=0x00000004
       64025000	      6401	80003ba8	0076a3b3	slt	x7,x13,x7	 x13:0x000002fa  x7:0xffffffc6  x7=0x00000000
       64035000	      6402	80003bac	02724a83	lbu	x21,39(x4)	  x4:0x80008552 x21=0x00000032 PA:0x80008579
       64045000	      6403	80003bb0	00000013	addi	x0,x0,0	  x0:0x00000000
       64055000	      6404	80003bb4	003f3933	sltu	x18,x30,x3	 x30:0x0000001c  x3:0x0000000d x18=0x00000000
       64065000	      6405	80003bb8	ff921e23	sh	x25,-4(x4)	  x4:0x80008552 x25:0x00000060 PA:0x8000854e
       64075000	      6406	80003bbc	fc324703	lbu	x14,-61(x4)	  x4:0x80008552 x14=0x000000ce PA:0x80008515
       64085000	      6407	80003bc0	fc924003	lbu	x0,-55(x4)	  x4:0x80008552 PA:0x8000851b
       64095000	      6408	80003bc4	ff6202a3	sb	x22,-27(x4)	  x4:0x80008552 x22:0xffffff80 PA:0x80008537
       64105000	      6409	80003bc8	fc8208a3	sb	x8,-47(x4)	  x4:0x80008552  x8:0x0000058c PA:0x80008523
       64115000	      6410	80003bcc	41e4dfb3	sra	x31,x9,x30	  x9:0x98999a9b x30:0x0000001c x31=0xfffffff9
       64125000	      6411	80003bd0	402fddb3	sra	x27,x31,x2	 x31:0xfffffff9  x2:0x00000000 x27=0xfffffff9
       64135000	      6412	80003bd4	03225983	lhu	x19,50(x4)	  x4:0x80008552 x19=0x00003e3f PA:0x80008584
       64145000	      6413	80003bd8	01921c23	sh	x25,24(x4)	  x4:0x80008552 x25:0x00000060 PA:0x8000856a
       64155000	      6414	80003bdc	03420fa3	sb	x20,63(x4)	  x4:0x80008552 x20:0xffffff82 PA:0x80008591
       64165000	      6415	80003be0	b8abe513	ori	x10,x23,-1142	 x23:0x80009ebc x10=0xffffffbe
       64175000	      6416	80003be4	01053133	sltu	x2,x10,x16	 x10:0xffffffbe x16:0x80009fc4  x2=0x00000000
       64185000	      6417	80003be8	03424783	lbu	x15,52(x4)	  x4:0x80008552 x15=0x0000003d PA:0x80008586
       64195000	      6418	80003bec	41945eb3	sra	x29,x8,x25	  x8:0x0000058c x25:0x00000060 x29=0x0000058c
       64205000	      6419	80003bf0	009f3533	sltu	x10,x30,x9	 x30:0x0000001c  x9:0x98999a9b x10=0x00000001
       64215000	      6420	80003bf4	01b200a3	sb	x27,1(x4)	  x4:0x80008552 x27:0xfffffff9 PA:0x80008553
       64225000	      6421	80003bf8	fc024683	lbu	x13,-64(x4)	  x4:0x80008552 x13=0x000000c9 PA:0x80008512
       64235000	      6422	80003bfc	00f7ec33	or	x24,x15,x15	 x15:0x0000003d x15:0x0000003d x24=0x0000003d
       64245000	      6423	80003c00	0181d933	srl	x18,x3,x24	  x3:0x0000000d x24:0x0000003d x18=0x00000000
       64255000	      6424	80003c04	003105b3	add	x11,x2,x3	  x2:0x00000000  x3:0x0000000d x11=0x0000000d
       64265000	      6425	80003c08	fff24783	lbu	x15,-1(x4)	  x4:0x80008552 x15=0x0000000a PA:0x80008551
       64275000	      6426	80003c0c	02b20283	lb	x5,43(x4)	  x4:0x80008552  x5=0x00000036 PA:0x8000857d
       64285000	      6427	80003c10	01e20a03	lb	x20,30(x4)	  x4:0x80008552 x20=0x0000002b PA:0x80008570
       64295000	      6428	80003c14	00b24603	lbu	x12,11(x4)	  x4:0x80008552 x12=0x00000016 PA:0x8000855d
       64305000	      6429	80003c18	02825283	lhu	x5,40(x4)	  x4:0x80008552  x5=0x00003031 PA:0x8000857a
       64315000	      6430	80003c1c	80827293	andi	x5,x4,-2040	  x4:0x80008552  x5=0x80008000
       64325000	      6431	80003c20	02b20da3	sb	x11,59(x4)	  x4:0x80008552 x11:0x0000000d PA:0x8000858d
       64335000	      6432	80003c24	40b45eb3	sra	x29,x8,x11	  x8:0x0000058c x11:0x0000000d x29=0x00000000
       64345000	      6433	80003c28	412a8a33	sub	x20,x21,x18	 x21:0x00000032 x18:0x00000000 x20=0x00000032
       64355000	      6434	80003c2c	003d97b3	sll	x15,x27,x3	 x27:0xfffffff9  x3:0x0000000d x15=0xffff2000
       64365000	      6435	80003c30	fee204a3	sb	x14,-23(x4)	  x4:0x80008552 x14:0x000000ce PA:0x8000853b
       64375000	      6436	80003c34	44bfa793	slti	x15,x31,1099	 x31:0xfffffff9 x15=0x00000001
       64385000	      6437	80003c38	72fb6593	ori	x11,x22,1839	 x22:0xffffff80 x11=0xffffffaf
       64395000	      6438	80003c3c	76305cb7	lui	x25,0x76305	 x25=0x76305000
       64405000	      6439	80003c40	13b6bd13	sltiu	x26,x13,315	 x13:0x000000c9 x26=0x00000001
       64415000	      6440	80003c44	02520a83	lb	x21,37(x4)	  x4:0x80008552 x21=0x0000002c PA:0x80008577
       64425000	      6441	80003c48	03320283	lb	x5,51(x4)	  x4:0x80008552  x5=0x0000003e PA:0x80008585
       64435000	      6442	80003c4c	2768ccb7	lui	x25,0x2768c	 x25=0x2768c000
       64445000	      6443	80003c50	008dda93	srli	x21,x27,0x8	 x27:0xfffffff9 x21=0x00ffffff
       64455000	      6444	80003c54	00f1de33	srl	x28,x3,x15	  x3:0x0000000d x15:0x00000001 x28=0x00000006
       64465000	      6445	80003c58	fe520ca3	sb	x5,-7(x4)	  x4:0x80008552  x5:0x0000003e PA:0x8000854b
       64475000	      6446	80003c5c	fe821823	sh	x8,-16(x4)	  x4:0x80008552  x8:0x0000058c PA:0x80008542
       64485000	      6447	80003c60	00004497	auipc	x9,0x4	  x9=0x80007c5c
       64495000	      6448	80003c64	41948493	addi	x9,x9,1049	  x9:0x80007c5c  x9=0x80008075
       64505000	      6449	80003c68	ff7481a3	sb	x23,-29(x9)	  x9:0x80008075 x23:0x80009ebc PA:0x80008058
       64515000	      6450	80003c6c	0047fdb3	and	x27,x15,x4	 x15:0x00000001  x4:0x80008552 x27=0x00000000
       64525000	      6451	80003c70	ff64cc03	lbu	x24,-10(x9)	  x9:0x80008075 x24=0x00000000 PA:0x8000806b
       64535000	      6452	80003c74	fe048b23	sb	x0,-10(x9)	  x9:0x80008075  x0:0x00000000 PA:0x8000806b
       64545000	      6453	80003c78	01283cb3	sltu	x25,x16,x18	 x16:0x80009fc4 x18:0x00000000 x25=0x00000000
       64555000	      6454	80003c7c	451eb113	sltiu	x2,x29,1105	 x29:0x00000000  x2=0x00000001
       64565000	      6455	80003c80	fe24c183	lbu	x3,-30(x9)	  x9:0x80008075  x3=0x0000000c PA:0x80008057
       64575000	      6456	80003c84	fd84ce03	lbu	x28,-40(x9)	  x9:0x80008075 x28=0x00000006 PA:0x8000804d
       64585000	      6457	80003c88	fc54a9a3	sw	x5,-45(x9)	  x9:0x80008075  x5:0x0000003e PA:0x80008048
       64595000	      6458	80003c8c	fce48f23	sb	x14,-34(x9)	  x9:0x80008075 x14:0x000000ce PA:0x80008053
       64605000	      6459	80003c90	03f49983	lh	x19,63(x9)	  x9:0x80008075 x19=0x00006e6f PA:0x800080b4
       64615000	      6460	80003c94	ff948c23	sb	x25,-8(x9)	  x9:0x80008075 x25:0x00000000 PA:0x8000806d
       64625000	      6461	80003c98	fd549f83	lh	x31,-43(x9)	  x9:0x80008075 x31=0x00000000 PA:0x8000804a
       64635000	      6462	80003c9c	418203b3	sub	x7,x4,x24	  x4:0x80008552 x24:0x00000000  x7=0x80008552
       64645000	      6463	80003ca0	9f174c93	xori	x25,x14,-1551	 x14:0x000000ce x25=0xfffff93f
       64655000	      6464	80003ca4	9479e213	ori	x4,x19,-1721	 x19:0x00006e6f  x4=0xffffff6f
       64665000	      6465	80003ca8	00553133	sltu	x2,x10,x5	 x10:0x00000001  x5:0x0000003e  x2=0x00000001
       64675000	      6466	80003cac	fe749503	lh	x10,-25(x9)	  x9:0x80008075 x10=0x00001617 PA:0x8000805c
       64685000	      6467	80003cb0	ffc48b03	lb	x22,-4(x9)	  x9:0x80008075 x22=0x0000002a PA:0x80008071
       64695000	      6468	80003cb4	26384637	lui	x12,0x26384	 x12=0x26384000
       64705000	      6469	80003cb8	40c9dfb3	sra	x31,x19,x12	 x19:0x00006e6f x12:0x26384000 x31=0x00006e6f
       64715000	      6470	80003cbc	00ce0733	add	x14,x28,x12	 x28:0x00000006 x12:0x26384000 x14=0x26384006
       64725000	      6471	80003cc0	fd448903	lb	x18,-44(x9)	  x9:0x80008075 x18=0x00000000 PA:0x80008049
       64735000	      6472	80003cc4	018b1393	slli	x7,x22,0x18	 x22:0x0000002a  x7=0x2a000000
       64745000	      6473	80003cc8	01bf9d93	slli	x27,x31,0x1b	 x31:0x00006e6f x27=0x78000000
       64755000	      6474	80003ccc	ff048f83	lb	x31,-16(x9)	  x9:0x80008075 x31=0x0000001e PA:0x80008065
       64765000	      6475	80003cd0	1c9af713	andi	x14,x21,457	 x21:0x00ffffff x14=0x000001c9
       64775000	      6476	80003cd4	fe34c683	lbu	x13,-29(x9)	  x9:0x80008075 x13=0x000000bc PA:0x80008058
       64785000	      6477	80003cd8	01548d03	lb	x26,21(x9)	  x9:0x80008075 x26=0x00000041 PA:0x8000808a
       64795000	      6478	80003cdc	ffc48c83	lb	x25,-4(x9)	  x9:0x80008075 x25=0x0000002a PA:0x80008071
       64805000	      6479	80003ce0	02448383	lb	x7,36(x9)	  x9:0x80008075  x7=0x00000052 PA:0x80008099
       64815000	      6480	80003ce4	00879c93	slli	x25,x15,0x8	 x15:0x00000001 x25=0x00000100
       64825000	      6481	80003ce8	0168c7b3	xor	x15,x17,x22	 x17:0x00000000 x22:0x0000002a x15=0x0000002a
       64835000	      6482	80003cec	02f4a383	lw	x7,47(x9)	  x9:0x80008075  x7=0x5c5d5e5f PA:0x800080a4
       64845000	      6483	80003cf0	00b48903	lb	x18,11(x9)	  x9:0x80008075 x18=0x0000003b PA:0x80008080
       64855000	      6484	80003cf4	0159dd93	srli	x27,x19,0x15	 x19:0x00006e6f x27=0x00000000
       64865000	      6485	80003cf8	00000013	addi	x0,x0,0	  x0:0x00000000
       64875000	      6486	80003cfc	fe949b03	lh	x22,-23(x9)	  x9:0x80008075 x22=0xffffffff PA:0x8000805e
       64885000	      6487	80003d00	0344ca03	lbu	x20,52(x9)	  x9:0x80008075 x20=0x00000062 PA:0x800080a9
       64895000	      6488	80003d04	ff5494a3	sh	x21,-23(x9)	  x9:0x80008075 x21:0x00ffffff PA:0x8000805e
       64905000	      6489	80003d08	01d01733	sll	x14,x0,x29	  x0:0x00000000 x29:0x00000000 x14=0x00000000
       64915000	      6490	80003d0c	00c0d593	srli	x11,x1,0xc	  x1:0x80000000 x11=0x00080000
       64925000	      6491	80003d10	fcf49aa3	sh	x15,-43(x9)	  x9:0x80008075 x15:0x0000002a PA:0x8000804a
       64935000	      6492	80003d14	0364cd83	lbu	x27,54(x9)	  x9:0x80008075 x27=0x00000060 PA:0x800080ab
       64945000	      6493	80003d18	0054d383	lhu	x7,5(x9)	  x9:0x80008075  x7=0x00003031 PA:0x8000807a
       64955000	      6494	80003d1c	fff48ba3	sb	x31,-9(x9)	  x9:0x80008075 x31:0x0000001e PA:0x8000806c
       64965000	      6495	80003d20	fc248e23	sb	x2,-36(x9)	  x9:0x80008075  x2:0x00000001 PA:0x80008051
       64975000	      6496	80003d24	00004117	auipc	x2,0x4	  x2=0x80007d20
       64985000	      6497	80003d28	5ba10113	addi	x2,x2,1466	  x2:0x80007d20  x2=0x800082da
       64995000	      6498	80003d2c	005fd593	srli	x11,x31,0x5	 x31:0x0000001e x11=0x00000000
       65005000	      6499	80003d30	fc612883	lw	x17,-58(x2)	  x2:0x800082da x17=0x58595a5b PA:0x800082a0
       65015000	      6500	80003d34	372ccd93	xori	x27,x25,882	 x25:0x00000100 x27=0x00000272
       65025000	      6501	80003d38	f6910da3	sb	x9,-133(x2)	  x2:0x800082da  x9:0x80008075 PA:0x80008255
       65035000	      6502	80003d3c	87263793	sltiu	x15,x12,-1934	 x12:0x26384000 x15=0x00000001
       65045000	      6503	80003d40	00d31a93	slli	x21,x6,0xd	  x6:0x0000005b x21=0x000b6000
       65055000	      6504	80003d44	00aeb933	sltu	x18,x29,x10	 x29:0x00000000 x10:0x00001617 x18=0x00000001
       65065000	      6505	80003d48	412a0933	sub	x18,x20,x18	 x20:0x00000062 x18:0x00000001 x18=0x00000061
       65075000	      6506	80003d4c	67d36213	ori	x4,x6,1661	  x6:0x0000005b  x4=0x0000067f
       65085000	      6507	80003d50	f2015d37	lui	x26,0xf2015	 x26=0xf2015000
       65095000	      6508	80003d54	01e20f33	add	x30,x4,x30	  x4:0x0000067f x30:0x0000001c x30=0x0000069b
       65105000	      6509	80003d58	632406b7	lui	x13,0x63240	 x13=0x63240000
       65115000	      6510	80003d5c	069105a3	sb	x9,107(x2)	  x2:0x800082da  x9:0x80008075 PA:0x80008345
       65125000	      6511	80003d60	f0110283	lb	x5,-255(x2)	  x2:0x800082da  x5=0xffffff90 PA:0x800081db
       65135000	      6512	80003d64	014eb733	sltu	x14,x29,x20	 x29:0x00000000 x20:0x00000062 x14=0x00000001
       65145000	      6513	80003d68	01d15733	srl	x14,x2,x29	  x2:0x800082da x29:0x00000000 x14=0x800082da
       65155000	      6514	80003d6c	00000013	addi	x0,x0,0	  x0:0x00000000
       65165000	      6515	80003d70	e3444713	xori	x14,x8,-460	  x8:0x0000058c x14=0xfffffbb8
       65175000	      6516	80003d74	73f4ef13	ori	x30,x9,1855	  x9:0x80008075 x30=0x8000877f
       65185000	      6517	80003d78	d40e2013	slti	x0,x28,-704	 x28:0x00000006
       65195000	      6518	80003d7c	03814d03	lbu	x26,56(x2)	  x2:0x800082da x26=0x000000c9 PA:0x80008312
       65205000	      6519	80003d80	00b101a3	sb	x11,3(x2)	  x2:0x800082da x11:0x00000000 PA:0x800082dd
       65215000	      6520	80003d84	07ee8997	auipc	x19,0x7ee8	 x19=0x87eebd80
       65225000	      6521	80003d88	75b63613	sltiu	x12,x12,1883	 x12:0x26384000 x12=0x00000000
       65235000	      6522	80003d8c	25a48793	addi	x15,x9,602	  x9:0x80008075 x15=0x800082cf
       65245000	      6523	80003d90	01ee9d13	slli	x26,x29,0x1e	 x29:0x00000000 x26=0x00000000
       65255000	      6524	80003d94	40295d13	srai	x26,x18,0x2	 x18:0x00000061 x26=0x00000018
       65265000	      6525	80003d98	01711823	sh	x23,16(x2)	  x2:0x800082da x23:0x80009ebc PA:0x800082ea
       65275000	      6526	80003d9c	6bdac713	xori	x14,x21,1725	 x21:0x000b6000 x14=0x000b66bd
       65285000	      6527	80003da0	92131f17	auipc	x30,0x92131	 x30=0x12134d9c
       65295000	      6528	80003da4	019482b3	add	x5,x9,x25	  x9:0x80008075 x25:0x00000100  x5=0x80008175
       65305000	      6529	80003da8	00b10603	lb	x12,11(x2)	  x2:0x800082da x12=0xffffff9e PA:0x800082e5
       65315000	      6530	80003dac	0046cb33	xor	x22,x13,x4	 x13:0x63240000  x4:0x0000067f x22=0x6324067f
       65325000	      6531	80003db0	06d10603	lb	x12,109(x2)	  x2:0x800082da x12=0xfffffffc PA:0x80008347
       65335000	      6532	80003db4	f5114e03	lbu	x28,-175(x2)	  x2:0x800082da x28=0x000000e0 PA:0x8000822b
       65345000	      6533	80003db8	00cfbc33	sltu	x24,x31,x12	 x31:0x0000001e x12:0xfffffffc x24=0x00000001
       65355000	      6534	80003dbc	014add93	srli	x27,x21,0x14	 x21:0x000b6000 x27=0x00000000
       65365000	      6535	80003dc0	fb114903	lbu	x18,-79(x2)	  x2:0x800082da x18=0x00000040 PA:0x8000828b
       65375000	      6536	80003dc4	41dbde13	srai	x28,x23,0x1d	 x23:0x80009ebc x28=0xfffffffc
       65385000	      6537	80003dc8	00badf93	srli	x31,x21,0xb	 x21:0x000b6000 x31=0x0000016c
       65395000	      6538	80003dcc	ff211f83	lh	x31,-14(x2)	  x2:0x800082da x31=0xffff8687 PA:0x800082cc
       65405000	      6539	80003dd0	00005297	auipc	x5,0x5	  x5=0x80008dcc
       65415000	      6540	80003dd4	0ee28293	addi	x5,x5,238	  x5:0x80008dcc  x5=0x80008eba
       65425000	      6541	80003dd8	e9129623	sh	x17,-372(x5)	  x5:0x80008eba x17:0x58595a5b PA:0x80008d46
       65435000	      6542	80003ddc	ccc29e03	lh	x28,-820(x5)	  x5:0x80008eba x28=0x00006c6d PA:0x80008b86
       65445000	      6543	80003de0	00000013	addi	x0,x0,0	  x0:0x00000000
       65455000	      6544	80003de4	96728203	lb	x4,-1689(x5)	  x5:0x80008eba  x4=0x0000000a PA:0x80008821
       65465000	      6545	80003de8	0f0c3893	sltiu	x17,x24,240	 x24:0x00000001 x17=0x00000001
       65475000	      6546	80003dec	01f28783	lb	x15,31(x5)	  x5:0x80008eba x15=0xffffffc2 PA:0x80008ed9
       65485000	      6547	80003df0	03b2ca03	lbu	x20,59(x5)	  x5:0x80008eba x20=0x000000de PA:0x80008ef5
       65495000	      6548	80003df4	b622a403	lw	x8,-1182(x5)	  x5:0x80008eba  x8=0x04050607 PA:0x80008a1c
       65505000	      6549	80003df8	0a4e6513	ori	x10,x28,164	 x28:0x00006c6d x10=0x00006ced
       65515000	      6550	80003dfc	9a72cc83	lbu	x25,-1625(x5)	  x5:0x80008eba x25=0x0000004a PA:0x80008861
       65525000	      6551	80003e00	115286a3	sb	x21,269(x5)	  x5:0x80008eba x21:0x000b6000 PA:0x80008fc7
       65535000	      6552	80003e04	0e341b17	auipc	x22,0xe341	 x22=0x8e344e00
       65545000	      6553	80003e08	9f22a403	lw	x8,-1550(x5)	  x5:0x80008eba  x8=0x94959697 PA:0x800088ac
       65555000	      6554	80003e0c	d7e28a83	lb	x21,-642(x5)	  x5:0x80008eba x21=0x00000023 PA:0x80008c38
       65565000	      6555	80003e10	404a59b3	sra	x19,x20,x4	 x20:0x000000de  x4:0x0000000a x19=0x00000000
       65575000	      6556	80003e14	0084dc33	srl	x24,x9,x8	  x9:0x80008075  x8:0x94959697 x24=0x00000100
       65585000	      6557	80003e18	41c7d013	srai	x0,x15,0x1c	 x15:0xffffffc2
       65595000	      6558	80003e1c	a992c003	lbu	x0,-1383(x5)	  x5:0x80008eba PA:0x80008953
       65605000	      6559	80003e20	eca29923	sh	x10,-302(x5)	  x5:0x80008eba x10:0x00006ced PA:0x80008d8c
       65615000	      6560	80003e24	ebf28f83	lb	x31,-321(x5)	  x5:0x80008eba x31=0x00000000 PA:0x80008d79
       65625000	      6561	80003e28	41d96313	ori	x6,x18,1053	 x18:0x00000040  x6=0x0000045d
       65635000	      6562	80003e2c	407a5f33	sra	x30,x20,x7	 x20:0x000000de  x7:0x00003031 x30=0x00000000
       65645000	      6563	80003e30	b2628023	sb	x6,-1248(x5)	  x5:0x80008eba  x6:0x0000045d PA:0x800089da
       65655000	      6564	80003e34	9d90fd93	andi	x27,x1,-1575	  x1:0x80000000 x27=0x80000000
       65665000	      6565	80003e38	abd28c83	lb	x25,-1347(x5)	  x5:0x80008eba x25=0x0000005c PA:0x80008977
       65675000	      6566	80003e3c	00005617	auipc	x12,0x5	 x12=0x80008e38
       65685000	      6567	80003e40	8b260613	addi	x12,x12,-1870	 x12:0x80008e38 x12=0x800086ea
       65695000	      6568	80003e44	fd460583	lb	x11,-44(x12)	 x12:0x800086ea x11=0x00000075 PA:0x800086be
       65705000	      6569	80003e48	693a4793	xori	x15,x20,1683	 x20:0x000000de x15=0x0000064d
       65715000	      6570	80003e4c	d4208393	addi	x7,x1,-702	  x1:0x80000000  x7=0x7ffffd42
       65725000	      6571	80003e50	05b64483	lbu	x9,91(x12)	 x12:0x800086ea  x9=0x000000fe PA:0x80008745
       65735000	      6572	80003e54	f7361923	sh	x19,-142(x12)	 x12:0x800086ea x19:0x00000000 PA:0x8000865c
       65745000	      6573	80003e58	ff6604a3	sb	x22,-23(x12)	 x12:0x800086ea x22:0x8e344e00 PA:0x800086d3
       65755000	      6574	80003e5c	b09eb193	sltiu	x3,x29,-1271	 x29:0x00000000  x3=0x00000001
       65765000	      6575	80003e60	d50f4b13	xori	x22,x30,-688	 x30:0x00000000 x22=0xfffffd50
       65775000	      6576	80003e64	f1564b03	lbu	x22,-235(x12)	 x12:0x800086ea x22=0x00000001 PA:0x800085ff
       65785000	      6577	80003e68	01350f33	add	x30,x10,x19	 x10:0x00006ced x19:0x00000000 x30=0x00006ced
       65795000	      6578	80003e6c	0a360f03	lb	x30,163(x12)	 x12:0x800086ea x30=0x00000001 PA:0x8000878d
       65805000	      6579	80003e70	00bad933	srl	x18,x21,x11	 x21:0x00000023 x11:0x00000075 x18=0x00000000
       65815000	      6580	80003e74	013f1713	slli	x14,x30,0x13	 x30:0x00000001 x14=0x00080000
       65825000	      6581	80003e78	f1861a23	sh	x24,-236(x12)	 x12:0x800086ea x24:0x00000100 PA:0x800085fe
       65835000	      6582	80003e7c	b1edf213	andi	x4,x27,-1250	 x27:0x80000000  x4=0x80000000
       65845000	      6583	80003e80	f7a60fa3	sb	x26,-129(x12)	 x12:0x800086ea x26:0x00000018 PA:0x80008669
       65855000	      6584	80003e84	fef60503	lb	x10,-17(x12)	 x12:0x800086ea x10=0xffffff92 PA:0x800086d9
       65865000	      6585	80003e88	00564e03	lbu	x28,5(x12)	 x12:0x800086ea x28=0x000000a4 PA:0x800086ef
       65875000	      6586	80003e8c	05f7bf13	sltiu	x30,x15,95	 x15:0x0000064d x30=0x00000000
       65885000	      6587	80003e90	085606a3	sb	x5,141(x12)	 x12:0x800086ea  x5:0x80008eba PA:0x80008777
       65895000	      6588	80003e94	01e60483	lb	x9,30(x12)	 x12:0x800086ea  x9=0xffffffc3 PA:0x80008708
       65905000	      6589	80003e98	07260aa3	sb	x18,117(x12)	 x12:0x800086ea x18:0x00000000 PA:0x8000875f
       65915000	      6590	80003e9c	f9460da3	sb	x20,-101(x12)	 x12:0x800086ea x20:0x000000de PA:0x80008685
       65925000	      6591	80003ea0	e788e893	ori	x17,x17,-392	 x17:0x00000001 x17=0xfffffe79
       65935000	      6592	80003ea4	f1560283	lb	x5,-235(x12)	 x12:0x800086ea  x5=0x00000001 PA:0x800085ff
       65945000	      6593	80003ea8	01160d03	lb	x26,17(x12)	 x12:0x800086ea x26=0xffffffb0 PA:0x800086fb
       65955000	      6594	80003eac	f0764583	lbu	x11,-249(x12)	 x12:0x800086ea x11=0x000000aa PA:0x800085f1
       65965000	      6595	80003eb0	b4e44a37	lui	x20,0xb4e44	 x20=0xb4e44000
       65975000	      6596	80003eb4	014a25b3	slt	x11,x20,x20	 x20:0xb4e44000 x20:0xb4e44000 x11=0x00000000
       65985000	      6597	80003eb8	175b3193	sltiu	x3,x22,373	 x22:0x00000001  x3=0x00000001
       65995000	      6598	80003ebc	f0a61c03	lh	x24,-246(x12)	 x12:0x800086ea x24=0xffffaeaf PA:0x800085f4
       66005000	      6599	80003ec0	f3c65203	lhu	x4,-196(x12)	 x12:0x800086ea  x4=0x0000dcdd PA:0x80008626
       66015000	      6600	80003ec4	f7a603a3	sb	x26,-153(x12)	 x12:0x800086ea x26:0xffffffb0 PA:0x80008651
       66025000	      6601	80003ec8	016b6b33	or	x22,x22,x22	 x22:0x00000001 x22:0x00000001 x22=0x00000001
       66035000	      6602	80003ecc	00831a93	slli	x21,x6,0x8	  x6:0x0000045d x21=0x00045d00
       66045000	      6603	80003ed0	02a61d83	lh	x27,42(x12)	 x12:0x800086ea x27=0xffffcecf PA:0x80008714
       66055000	      6604	80003ed4	16317713	andi	x14,x2,355	  x2:0x800082da x14=0x00000042
       66065000	      6605	80003ed8	08860423	sb	x8,136(x12)	 x12:0x800086ea  x8:0x94959697 PA:0x80008772
       66075000	      6606	80003edc	0d760da3	sb	x23,219(x12)	 x12:0x800086ea x23:0x80009ebc PA:0x800087c5
       66085000	      6607	80003ee0	00000013	addi	x0,x0,0	  x0:0x00000000
       66095000	      6608	80003ee4	00000013	addi	x0,x0,0	  x0:0x00000000
       66105000	      6609	80003ee8	03d2f063	bgeu	x5,x29,80003f08	  x5:0x00000001 x29:0x00000000
       66115000	      6610	00000000	00000013	addi	x0,x0,0	  x0:0x00000000
       66125000	      6611	80003f04	00000013	addi	x0,x0,0	  x0:0x00000000
       66135000	      6612	80003f08	03058863	beq	x11,x16,80003f38	 x11:0x00000000 x16:0x80009fc4
       66145000	      6613	80003f0c	404a0db3	sub	x27,x20,x4	 x20:0xb4e44000  x4:0x0000dcdd x27=0xb4e36323
       66155000	      6614	80003f10	eb9e8e97	auipc	x29,0xeb9e8	 x29=0x6b9ebf0c
       66165000	      6615	80003f14	01989333	sll	x6,x17,x25	 x17:0xfffffe79 x25:0x0000005c  x6=0x90000000
       66175000	      6616	80003f18	02b27663	bgeu	x4,x11,80003f44	  x4:0x0000dcdd x11:0x00000000
       66185000	      6617	00000000	00000013	addi	x0,x0,0	  x0:0x00000000
       66195000	      6618	80003f40	00000013	addi	x0,x0,0	  x0:0x00000000
       66205000	      6619	80003f44	05ce1463	bne	x28,x28,80003f8c	 x28:0x000000a4 x28:0x000000a4
       66215000	      6620	80003f48	00d95663	bge	x18,x13,80003f54	 x18:0x00000000 x13:0x63240000
       66225000	      6621	80003f4c	030b9663	bne	x23,x16,80003f78	 x23:0x80009ebc x16:0x80009fc4
       66235000	      6622	00000000	00000013	addi	x0,x0,0	  x0:0x00000000
       66245000	      6623	80003f74	00000013	addi	x0,x0,0	  x0:0x00000000
       66255000	      6624	80003f78	03caec63	bltu	x21,x28,80003fb0	 x21:0x00045d00 x28:0x000000a4
       66265000	      6625	80003f7c	e6090693	addi	x13,x18,-416	 x18:0x00000000 x13=0xfffffe60
       66275000	      6626	80003f80	832e7a93	andi	x21,x28,-1998	 x28:0x000000a4 x21=0x00000020
       66285000	      6627	80003f84	0056e8b3	or	x17,x13,x5	 x13:0xfffffe60  x5:0x00000001 x17=0xfffffe61
       66295000	      6628	80003f88	035c7e63	bgeu	x24,x21,80003fc4	 x24:0xffffaeaf x21:0x00000020
       66305000	      6629	00000000	00000013	addi	x0,x0,0	  x0:0x00000000
       66315000	      6630	80003fc0	00000013	addi	x0,x0,0	  x0:0x00000000
       66325000	      6631	80003fc4	014e69b3	or	x19,x28,x20	 x28:0x000000a4 x20:0xb4e44000 x19=0xb4e440a4
       66335000	      6632	80003fc8	908c8693	addi	x13,x25,-1784	 x25:0x0000005c x13=0xfffff964
       66345000	      6633	80003fcc	4080d433	sra	x8,x1,x8	  x1:0x80000000  x8:0x94959697  x8=0xffffff00
       66355000	      6634	80003fd0	01edbe33	sltu	x28,x27,x30	 x27:0xb4e36323 x30:0x00000000 x28=0x00000000
       66365000	      6635	80003fd4	01eaa3b3	slt	x7,x21,x30	 x21:0x00000020 x30:0x00000000  x7=0x00000000
       66375000	      6636	80003fd8	30d08393	addi	x7,x1,781	  x1:0x80000000  x7=0x8000030d
       66385000	      6637	80003fdc	286e8a93	addi	x21,x29,646	 x29:0x6b9ebf0c x21=0x6b9ec192
       66395000	      6638	80003fe0	004a79b3	and	x19,x20,x4	 x20:0xb4e44000  x4:0x0000dcdd x19=0x00004000
       66405000	      6639	80003fe4	84914113	xori	x2,x2,-1975	  x2:0x800082da  x2=0x7fff7a93
       66415000	      6640	80003fe8	019e67b3	or	x15,x28,x25	 x28:0x00000000 x25:0x0000005c x15=0x0000005c
       66425000	      6641	80003fec	01872ab3	slt	x21,x14,x24	 x14:0x00000042 x24:0xffffaeaf x21=0x00000000
       66435000	      6642	80003ff0	40180fb3	sub	x31,x16,x1	 x16:0x80009fc4  x1:0x80000000 x31=0x00009fc4
       66445000	      6643	80003ff4	01133937	lui	x18,0x1133	 x18=0x01133000
       66455000	      6644	80003ff8	0438f863	bgeu	x17,x3,80004048	 x17:0xfffffe61  x3:0x00000001
       66465000	      6645	00000000	00000013	addi	x0,x0,0	  x0:0x00000000
       66475000	      6646	80004044	00000013	addi	x0,x0,0	  x0:0x00000000
       66485000	      6647	80004048	00d978b3	and	x17,x18,x13	 x18:0x01133000 x13:0xfffff964 x17=0x01133000
       66495000	      6648	8000404c	00fcdd33	srl	x26,x25,x15	 x25:0x0000005c x15:0x0000005c x26=0x00000000
       66505000	      6649	80004050	69bb5e97	auipc	x29,0x69bb5	 x29=0xe9bb904c
       66515000	      6650	80004054	006f9e63	bne	x31,x6,80004070	 x31:0x00009fc4  x6:0x90000000
       66525000	      6651	00000000	00000013	addi	x0,x0,0	  x0:0x00000000
       66535000	      6652	8000406c	00000013	addi	x0,x0,0	  x0:0x00000000
       66545000	      6653	80004070	40dbd593	srai	x11,x23,0xd	 x23:0x80009ebc x11=0xfffc0004
       66555000	      6654	80004074	002a1c93	slli	x25,x20,0x2	 x20:0xb4e44000 x25=0xd3910000
       66565000	      6655	80004078	7808b793	sltiu	x15,x17,1920	 x17:0x01133000 x15=0x00000000
       66575000	      6656	8000407c	00686ab3	or	x21,x16,x6	 x16:0x80009fc4  x6:0x90000000 x21=0x90009fc4
       66585000	      6657	80004080	01001413	slli	x8,x0,0x10	  x0:0x00000000  x8=0x00000000
       66595000	      6658	80004084	00000013	addi	x0,x0,0	  x0:0x00000000
       66605000	      6659	80004088	8c84a293	slti	x5,x9,-1848	  x9:0xffffffc3  x5=0x00000000
       66615000	      6660	8000408c	00000013	addi	x0,x0,0	  x0:0x00000000
       66625000	      6661	80004090	ea91b893	sltiu	x17,x3,-343	  x3:0x00000001 x17=0x00000001
       66635000	      6662	80004094	02beea63	bltu	x29,x11,800040c8	 x29:0xe9bb904c x11:0xfffc0004
       66645000	      6663	00000000	00000013	addi	x0,x0,0	  x0:0x00000000
       66655000	      6664	800040c4	00000013	addi	x0,x0,0	  x0:0x00000000
       66665000	      6665	800040c8	571e7413	andi	x8,x28,1393	 x28:0x00000000  x8=0x00000000
       66675000	      6666	800040cc	00764933	xor	x18,x12,x7	 x12:0x800086ea  x7:0x8000030d x18=0x000085e7
       66685000	      6667	800040d0	d7b82d93	slti	x27,x16,-645	 x16:0x80009fc4 x27=0x00000001
       66695000	      6668	800040d4	00627433	and	x8,x4,x6	  x4:0x0000dcdd  x6:0x90000000  x8=0x00000000
       66705000	      6669	800040d8	00efe2b3	or	x5,x31,x14	 x31:0x00009fc4 x14:0x00000042  x5=0x00009fc6
       66715000	      6670	800040dc	010d46b3	xor	x13,x26,x16	 x26:0x00000000 x16:0x80009fc4 x13=0x80009fc4
       66725000	      6671	800040e0	40455d13	srai	x26,x10,0x4	 x10:0xffffff92 x26=0xfffffff9
       66735000	      6672	800040e4	614f9b37	lui	x22,0x614f9	 x22=0x614f9000
       66745000	      6673	800040e8	d2702c13	slti	x24,x0,-729	  x0:0x00000000 x24=0x00000000
       66755000	      6674	800040ec	b7dccc13	xori	x24,x25,-1155	 x25:0xd3910000 x24=0x2c6efb7d
       66765000	      6675	800040f0	43baedb7	lui	x27,0x43bae	 x27=0x43bae000
       66775000	      6676	800040f4	049cf863	bgeu	x25,x9,80004144	 x25:0xd3910000  x9:0xffffffc3
       66785000	      6677	800040f8	10e96c13	ori	x24,x18,270	 x18:0x000085e7 x24=0x000085ef
       66795000	      6678	800040fc	017db633	sltu	x12,x27,x23	 x27:0x43bae000 x23:0x80009ebc x12=0x00000001
       66805000	      6679	80004100	015fefb3	or	x31,x31,x21	 x31:0x00009fc4 x21:0x90009fc4 x31=0x90009fc4
       66815000	      6680	80004104	d2507413	andi	x8,x0,-731	  x0:0x00000000  x8=0x00000000
       66825000	      6681	80004108	01649d33	sll	x26,x9,x22	  x9:0xffffffc3 x22:0x614f9000 x26=0xffffffc3
       66835000	      6682	8000410c	00000013	addi	x0,x0,0	  x0:0x00000000
       66845000	      6683	80004110	01c7d6b3	srl	x13,x15,x28	 x15:0x00000000 x28:0x00000000 x13=0x00000000
       66855000	      6684	80004114	18de7f93	andi	x31,x28,397	 x28:0x00000000 x31=0x00000000
       66865000	      6685	80004118	004a7263	bgeu	x20,x4,8000411c	 x20:0xb4e44000  x4:0x0000dcdd
       66875000	      6686	00000000	00000013	addi	x0,x0,0	  x0:0x00000000
       66885000	      6687	80004118	00000013	addi	x0,x0,0	  x0:0x00000000
       66895000	      6688	8000411c	00a55e63	bge	x10,x10,80004138	 x10:0xffffff92 x10:0xffffff92
       66905000	      6689	00000000	00000013	addi	x0,x0,0	  x0:0x00000000
       66915000	      6690	80004134	00000013	addi	x0,x0,0	  x0:0x00000000
       66925000	      6691	80004138	06994013	xori	x0,x18,105	 x18:0x000085e7
       66935000	      6692	8000413c	e0ecfd93	andi	x27,x25,-498	 x25:0xd3910000 x27=0xd3910000
       66945000	      6693	80004140	af557113	andi	x2,x10,-1291	 x10:0xffffff92  x2=0xfffffa90
       66955000	      6694	80004144	d39b3e13	sltiu	x28,x22,-711	 x22:0x614f9000 x28=0x00000001
       66965000	      6695	80004148	006e2133	slt	x2,x28,x6	 x28:0x00000001  x6:0x90000000  x2=0x00000000
       66975000	      6696	8000414c	00b13733	sltu	x14,x2,x11	  x2:0x00000000 x11:0xfffc0004 x14=0x00000001
       66985000	      6697	80004150	c76d4d93	xori	x27,x26,-906	 x26:0xffffffc3 x27=0x000003b5
       66995000	      6698	80004154	01d59263	bne	x11,x29,80004158	 x11:0xfffc0004 x29:0xe9bb904c
       67005000	      6699	00000000	00000013	addi	x0,x0,0	  x0:0x00000000
       67015000	      6700	80004154	00000013	addi	x0,x0,0	  x0:0x00000000
       67025000	      6701	80004158	0035f4b3	and	x9,x11,x3	 x11:0xfffc0004  x3:0x00000001  x9=0x00000000
       67035000	      6702	8000415c	da9b2213	slti	x4,x22,-599	 x22:0x614f9000  x4=0x00000000
       67045000	      6703	80004160	019ed713	srli	x14,x29,0x19	 x29:0xe9bb904c x14=0x00000074
       67055000	      6704	80004164	66198593	addi	x11,x19,1633	 x19:0x00004000 x11=0x00004661
       67065000	      6705	80004168	00a1d2b3	srl	x5,x3,x10	  x3:0x00000001 x10:0xffffff92  x5=0x00000000
       67075000	      6706	8000416c	010db9b3	sltu	x19,x27,x16	 x27:0x000003b5 x16:0x80009fc4 x19=0x00000001
       67085000	      6707	80004170	00144533	xor	x10,x8,x1	  x8:0x00000000  x1:0x80000000 x10=0x80000000
       67095000	      6708	80004174	001be333	or	x6,x23,x1	 x23:0x80009ebc  x1:0x80000000  x6=0x80009ebc
       67105000	      6709	80004178	a6664717	auipc	x14,0xa6664	 x14=0x26668174
       67115000	      6710	8000417c	0362d263	bge	x5,x22,800041a0	  x5:0x00000000 x22:0x614f9000
       67125000	      6711	80004180	04136863	bltu	x6,x1,800041d0	  x6:0x80009ebc  x1:0x80000000
       67135000	      6712	80004184	1886cc93	xori	x25,x13,392	 x13:0x00000000 x25=0x00000188
       67145000	      6713	80004188	406ad893	srai	x17,x21,0x6	 x21:0x90009fc4 x17=0xfe40027f
       67155000	      6714	8000418c	00fb3333	sltu	x6,x22,x15	 x22:0x614f9000 x15:0x00000000  x6=0x00000000
       67165000	      6715	80004190	9669e893	ori	x17,x19,-1690	 x19:0x00000001 x17=0xfffff967
       67175000	      6716	80004194	014649b3	xor	x19,x12,x20	 x12:0x00000001 x20:0xb4e44000 x19=0xb4e44001
       67185000	      6717	80004198	01d0c4b3	xor	x9,x1,x29	  x1:0x80000000 x29:0xe9bb904c  x9=0x69bb904c
       67195000	      6718	8000419c	97067993	andi	x19,x12,-1680	 x12:0x00000001 x19=0x00000000
       67205000	      6719	800041a0	41328033	sub	x0,x5,x19	  x5:0x00000000 x19:0x00000000
       67215000	      6720	800041a4	00b305b3	add	x11,x6,x11	  x6:0x00000000 x11:0x00004661 x11=0x00004661
       67225000	      6721	800041a8	01be5213	srli	x4,x28,0x1b	 x28:0x00000001  x4=0x00000000
       67235000	      6722	800041ac	01302133	slt	x2,x0,x19	  x0:0x00000000 x19:0x00000000  x2=0x00000000
       67245000	      6723	800041b0	0166ed33	or	x26,x13,x22	 x13:0x00000000 x22:0x614f9000 x26=0x614f9000
       67255000	      6724	800041b4	00202233	slt	x4,x0,x2	  x0:0x00000000  x2:0x00000000  x4=0x00000000
       67265000	      6725	800041b8	6d60fc93	andi	x25,x1,1750	  x1:0x80000000 x25=0x00000000
       67275000	      6726	800041bc	b584bd13	sltiu	x26,x9,-1192	  x9:0x69bb904c x26=0x00000001
       67285000	      6727	800041c0	016513b3	sll	x7,x10,x22	 x10:0x80000000 x22:0x614f9000  x7=0x80000000
       67295000	      6728	800041c4	02f10663	beq	x2,x15,800041f0	  x2:0x00000000 x15:0x00000000
       67305000	      6729	00000000	00000013	addi	x0,x0,0	  x0:0x00000000
       67315000	      6730	800041ec	00000013	addi	x0,x0,0	  x0:0x00000000
       67325000	      6731	800041f0	024f6e63	bltu	x30,x4,8000422c	 x30:0x00000000  x4:0x00000000
       67335000	      6732	800041f4	0426d663	bge	x13,x2,80004240	 x13:0x00000000  x2:0x00000000
       67345000	      6733	00000000	00000013	addi	x0,x0,0	  x0:0x00000000
       67355000	      6734	8000423c	00000013	addi	x0,x0,0	  x0:0x00000000
       67365000	      6735	80004240	04865263	bge	x12,x8,80004284	 x12:0x00000001  x8:0x00000000
       67375000	      6736	00000000	00000013	addi	x0,x0,0	  x0:0x00000000
       67385000	      6737	80004280	00000013	addi	x0,x0,0	  x0:0x00000000
       67395000	      6738	80004284	00165a93	srli	x21,x12,0x1	 x12:0x00000001 x21=0x00000000
       67405000	      6739	80004288	01c3bb33	sltu	x22,x7,x28	  x7:0x80000000 x28:0x00000001 x22=0x00000000
       67415000	      6740	8000428c	0059f263	bgeu	x19,x5,80004290	 x19:0x00000000  x5:0x00000000
       67425000	      6741	00000000	00000013	addi	x0,x0,0	  x0:0x00000000
       67435000	      6742	8000428c	00000013	addi	x0,x0,0	  x0:0x00000000
       67445000	      6743	80004290	00a5df13	srli	x30,x11,0xa	 x11:0x00004661 x30=0x00000011
       67455000	      6744	80004294	a2753193	sltiu	x3,x10,-1497	 x10:0x80000000  x3=0x00000001
       67465000	      6745	80004298	c6254d93	xori	x27,x10,-926	 x10:0x80000000 x27=0x7ffffc62
       67475000	      6746	8000429c	01c5e3b3	or	x7,x11,x28	 x11:0x00004661 x28:0x00000001  x7=0x00004661
       67485000	      6747	800042a0	012b7133	and	x2,x22,x18	 x22:0x00000000 x18:0x000085e7  x2=0x00000000
       67495000	      6748	800042a4	00bba1b3	slt	x3,x23,x11	 x23:0x80009ebc x11:0x00004661  x3=0x00000001
       67505000	      6749	800042a8	531b8e17	auipc	x28,0x531b8	 x28=0xd31bc2a4
       67515000	      6750	800042ac	b6e96297	auipc	x5,0xb6e96	  x5=0x36e9a2a8
       67525000	      6751	800042b0	cd2b4e17	auipc	x28,0xcd2b4	 x28=0x4d2b82ac
       67535000	      6752	800042b4	01339013	slli	x0,x7,0x13	  x7:0x00004661
       67545000	      6753	800042b8	dcaa6d13	ori	x26,x20,-566	 x20:0xb4e44000 x26=0xfffffdca
       67555000	      6754	800042bc	01c39e93	slli	x29,x7,0x1c	  x7:0x00004661 x29=0x10000000
       67565000	      6755	800042c0	41e25a93	srai	x21,x4,0x1e	  x4:0x00000000 x21=0x00000000
       67575000	      6756	800042c4	00ad1933	sll	x18,x26,x10	 x26:0xfffffdca x10:0x80000000 x18=0xfffffdca
       67585000	      6757	800042c8	038a7663	bgeu	x20,x24,800042f4	 x20:0xb4e44000 x24:0x000085ef
       67595000	      6758	00000000	00000013	addi	x0,x0,0	  x0:0x00000000
       67605000	      6759	800042f0	00000013	addi	x0,x0,0	  x0:0x00000000
       67615000	      6760	800042f4	018f5033	srl	x0,x30,x24	 x30:0x00000011 x24:0x000085ef
       67625000	      6761	800042f8	c8adea13	ori	x20,x27,-886	 x27:0x7ffffc62 x20=0xfffffcea
       67635000	      6762	800042fc	05717263	bgeu	x2,x23,80004340	  x2:0x00000000 x23:0x80009ebc
       67645000	      6763	80004300	2b16a493	slti	x9,x13,689	 x13:0x00000000  x9=0x00000001
       67655000	      6764	80004304	015fda13	srli	x20,x31,0x15	 x31:0x00000000 x20=0x00000000
       67665000	      6765	80004308	00018133	add	x2,x3,x0	  x3:0x00000001  x0:0x00000000  x2=0x00000001
       67675000	      6766	8000430c	013c6233	or	x4,x24,x19	 x24:0x000085ef x19:0x00000000  x4=0x000085ef
       67685000	      6767	80004310	4063d493	srai	x9,x7,0x6	  x7:0x00004661  x9=0x00000119
       67695000	      6768	80004314	8dfffa13	andi	x20,x31,-1825	 x31:0x00000000 x20=0x00000000
       67705000	      6769	80004318	0464f463	bgeu	x9,x6,80004360	  x9:0x00000119  x6:0x00000000
       67715000	      6770	00000000	00000013	addi	x0,x0,0	  x0:0x00000000
       67725000	      6771	8000435c	00000013	addi	x0,x0,0	  x0:0x00000000
       67735000	      6772	80004360	8b444393	xori	x7,x8,-1868	  x8:0x00000000  x7=0xfffff8b4
       67745000	      6773	80004364	00c5e463	bltu	x11,x12,8000436c	 x11:0x00004661 x12:0x00000001
       67755000	      6774	80004368	a9f94713	xori	x14,x18,-1377	 x18:0xfffffdca x14=0x00000755
       67765000	      6775	8000436c	00b6cd33	xor	x26,x13,x11	 x13:0x00000000 x11:0x00004661 x26=0x00004661
       67775000	      6776	80004370	039a6a63	bltu	x20,x25,800043a4	 x20:0x00000000 x25:0x00000000
       67785000	      6777	80004374	0153fe63	bgeu	x7,x21,80004390	  x7:0xfffff8b4 x21:0x00000000
       67795000	      6778	00000000	00000013	addi	x0,x0,0	  x0:0x00000000
       67805000	      6779	8000438c	00000013	addi	x0,x0,0	  x0:0x00000000
       67815000	      6780	80004390	fbfdb113	sltiu	x2,x27,-65	 x27:0x7ffffc62  x2=0x00000001
       67825000	      6781	80004394	014f4fb3	xor	x31,x30,x20	 x30:0x00000011 x20:0x00000000 x31=0x00000011
       67835000	      6782	80004398	03066a63	bltu	x12,x16,800043cc	 x12:0x00000001 x16:0x80009fc4
       67845000	      6783	00000000	00000013	addi	x0,x0,0	  x0:0x00000000
       67855000	      6784	800043c8	00000013	addi	x0,x0,0	  x0:0x00000000
       67865000	      6785	800043cc	04cfd463	bge	x31,x12,80004414	 x31:0x00000011 x12:0x00000001
       67875000	      6786	00000000	00000013	addi	x0,x0,0	  x0:0x00000000
       67885000	      6787	80004410	00000013	addi	x0,x0,0	  x0:0x00000000
       67895000	      6788	80004414	00c49513	slli	x10,x9,0xc	  x9:0x00000119 x10=0x00119000
       67905000	      6789	80004418	0044e8b3	or	x17,x9,x4	  x9:0x00000119  x4:0x000085ef x17=0x000085ff
       67915000	      6790	8000441c	01f0ee63	bltu	x1,x31,80004438	  x1:0x80000000 x31:0x00000011
       67925000	      6791	80004420	df2f8213	addi	x4,x31,-526	 x31:0x00000011  x4=0xfffffe03
       67935000	      6792	80004424	00e8d633	srl	x12,x17,x14	 x17:0x000085ff x14:0x00000755 x12=0x00000000
       67945000	      6793	80004428	182c4e37	lui	x28,0x182c4	 x28=0x182c4000
       67955000	      6794	8000442c	00ff7d33	and	x26,x30,x15	 x30:0x00000011 x15:0x00000000 x26=0x00000000
       67965000	      6795	80004430	01955db3	srl	x27,x10,x25	 x10:0x00119000 x25:0x00000000 x27=0x00119000
       67975000	      6796	80004434	00410933	add	x18,x2,x4	  x2:0x00000001  x4:0xfffffe03 x18=0xfffffe04
       67985000	      6797	80004438	413a0fb3	sub	x31,x20,x19	 x20:0x00000000 x19:0x00000000 x31=0x00000000
       67995000	      6798	8000443c	0048d313	srli	x6,x17,0x4	 x17:0x000085ff  x6=0x0000085f
       68005000	      6799	80004440	b3af9917	auipc	x18,0xb3af9	 x18=0x33afd43c
       68015000	      6800	80004444	02d08c63	beq	x1,x13,8000447c	  x1:0x80000000 x13:0x00000000
       68025000	      6801	80004448	01d61113	slli	x2,x12,0x1d	 x12:0x00000000  x2=0x00000000
       68035000	      6802	8000444c	ca5cc993	xori	x19,x25,-859	 x25:0x00000000 x19=0xfffffca5
       68045000	      6803	80004450	007d7263	bgeu	x26,x7,80004454	 x26:0x00000000  x7:0xfffff8b4
       68055000	      6804	80004454	b00d8993	addi	x19,x27,-1280	 x27:0x00119000 x19=0x00118b00
       68065000	      6805	80004458	c09eb417	auipc	x8,0xc09eb	  x8=0x409ef454
       68075000	      6806	8000445c	01b7be33	sltu	x28,x15,x27	 x15:0x00000000 x27:0x00119000 x28=0x00000001
       68085000	      6807	80004460	0444f863	bgeu	x9,x4,800044b0	  x9:0x00000119  x4:0xfffffe03
       68095000	      6808	80004464	0129d993	srli	x19,x19,0x12	 x19:0x00118b00 x19=0x00000004
       68105000	      6809	80004468	0326c063	blt	x13,x18,80004488	 x13:0x00000000 x18:0x33afd43c
       68115000	      6810	00000000	00000013	addi	x0,x0,0	  x0:0x00000000
       68125000	      6811	80004484	00000013	addi	x0,x0,0	  x0:0x00000000
       68135000	      6812	80004488	049c4263	blt	x24,x9,800044cc	 x24:0x000085ef  x9:0x00000119
       68145000	      6813	8000448c	3bb4bcb7	lui	x25,0x3bb4b	 x25=0x3bb4b000
       68155000	      6814	80004490	016da633	slt	x12,x27,x22	 x27:0x00119000 x22:0x00000000 x12=0x00000000
       68165000	      6815	80004494	000badb3	slt	x27,x23,x0	 x23:0x80009ebc  x0:0x00000000 x27=0x00000001
       68175000	      6816	80004498	02bfc663	blt	x31,x11,800044c4	 x31:0x00000000 x11:0x00004661
       68185000	      6817	00000000	00000013	addi	x0,x0,0	  x0:0x00000000
       68195000	      6818	800044c0	00000013	addi	x0,x0,0	  x0:0x00000000
       68205000	      6819	800044c4	01a61633	sll	x12,x12,x26	 x12:0x00000000 x26:0x00000000 x12=0x00000000
       68215000	      6820	800044c8	04b2e263	bltu	x5,x11,8000450c	  x5:0x36e9a2a8 x11:0x00004661
       68225000	      6821	800044cc	40be0733	sub	x14,x28,x11	 x28:0x00000001 x11:0x00004661 x14=0xffffb9a0
       68235000	      6822	800044d0	41fd04b3	sub	x9,x26,x31	 x26:0x00000000 x31:0x00000000  x9=0x00000000
       68245000	      6823	800044d4	989b0137	lui	x2,0x989b0	  x2=0x989b0000
       68255000	      6824	800044d8	03e36863	bltu	x6,x30,80004508	  x6:0x0000085f x30:0x00000011
       68265000	      6825	800044dc	014c0a33	add	x20,x24,x20	 x24:0x000085ef x20:0x00000000 x20=0x000085ef
       68275000	      6826	800044e0	05621863	bne	x4,x22,80004530	  x4:0xfffffe03 x22:0x00000000
       68285000	      6827	00000000	00000013	addi	x0,x0,0	  x0:0x00000000
       68295000	      6828	8000452c	00000013	addi	x0,x0,0	  x0:0x00000000
       68305000	      6829	80004530	01dc1013	slli	x0,x24,0x1d	 x24:0x000085ef
       68315000	      6830	80004534	00efe7b3	or	x15,x31,x14	 x31:0x00000000 x14:0xffffb9a0 x15=0xffffb9a0
       68325000	      6831	80004538	99fe0b17	auipc	x22,0x99fe0	 x22=0x19fe4534
       68335000	      6832	8000453c	009c83b3	add	x7,x25,x9	 x25:0x3bb4b000  x9:0x00000000  x7=0x3bb4b000
       68345000	      6833	80004540	015b97b3	sll	x15,x23,x21	 x23:0x80009ebc x21:0x00000000 x15=0x80009ebc
       68355000	      6834	80004544	41ebdd13	srai	x26,x23,0x1e	 x23:0x80009ebc x26=0xfffffffe
       68365000	      6835	80004548	014becb3	or	x25,x23,x20	 x23:0x80009ebc x20:0x000085ef x25=0x80009fff
       68375000	      6836	8000454c	00811433	sll	x8,x2,x8	  x2:0x989b0000  x8:0x409ef454  x8=0x00000000
       68385000	      6837	80004550	407a06b3	sub	x13,x20,x7	 x20:0x000085ef  x7:0x3bb4b000 x13=0xc44bd5ef
       68395000	      6838	80004554	00a9dc13	srli	x24,x19,0xa	 x19:0x00000004 x24=0x00000000
       68405000	      6839	80004558	00163db3	sltu	x27,x12,x1	 x12:0x00000000  x1:0x80000000 x27=0x00000001
       68415000	      6840	8000455c	02d48263	beq	x9,x13,80004580	  x9:0x00000000 x13:0xc44bd5ef
       68425000	      6841	80004560	009ed933	srl	x18,x29,x9	 x29:0x10000000  x9:0x00000000 x18=0x10000000
       68435000	      6842	80004564	00ec9693	slli	x13,x25,0xe	 x25:0x80009fff x13=0x27ffc000
       68445000	      6843	80004568	56b72993	slti	x19,x14,1387	 x14:0xffffb9a0 x19=0x00000001
       68455000	      6844	8000456c	00000013	addi	x0,x0,0	  x0:0x00000000
       68465000	      6845	80004570	018c1db3	sll	x27,x24,x24	 x24:0x00000000 x24:0x00000000 x27=0x00000000
       68475000	      6846	80004574	fb586513	ori	x10,x16,-75	 x16:0x80009fc4 x10=0xfffffff5
       68485000	      6847	80004578	1aba4393	xori	x7,x20,427	 x20:0x000085ef  x7=0x00008444
       68495000	      6848	8000457c	a1636c13	ori	x24,x6,-1514	  x6:0x0000085f x24=0xfffffa5f
       68505000	      6849	80004580	003b83b3	add	x7,x23,x3	 x23:0x80009ebc  x3:0x00000001  x7=0x80009ebd
       68515000	      6850	80004584	01e66a33	or	x20,x12,x30	 x12:0x00000000 x30:0x00000011 x20=0x00000011
       68525000	      6851	80004588	80878893	addi	x17,x15,-2040	 x15:0x80009ebc x17=0x800096c4
       68535000	      6852	8000458c	01fd1fb3	sll	x31,x26,x31	 x26:0xfffffffe x31:0x00000000 x31=0xfffffffe
       68545000	      6853	80004590	01c14263	blt	x2,x28,80004594	  x2:0x989b0000 x28:0x00000001
       68555000	      6854	00000000	00000013	addi	x0,x0,0	  x0:0x00000000
       68565000	      6855	80004590	00000013	addi	x0,x0,0	  x0:0x00000000
       68575000	      6856	80004594	410bdc33	sra	x24,x23,x16	 x23:0x80009ebc x16:0x80009fc4 x24=0xf80009eb
       68585000	      6857	80004598	01c08933	add	x18,x1,x28	  x1:0x80000000 x28:0x00000001 x18=0x80000001
       68595000	      6858	8000459c	007f8263	beq	x31,x7,800045a0	 x31:0xfffffffe  x7:0x80009ebd
       68605000	      6859	800045a0	029e6463	bltu	x28,x9,800045c8	 x28:0x00000001  x9:0x00000000
       68615000	      6860	800045a4	01f90c33	add	x24,x18,x31	 x18:0x80000001 x31:0xfffffffe x24=0x7fffffff
       68625000	      6861	800045a8	40ca57b3	sra	x15,x20,x12	 x20:0x00000011 x12:0x00000000 x15=0x00000011
       68635000	      6862	800045ac	4111d113	srai	x2,x3,0x11	  x3:0x00000001  x2=0x00000000
       68645000	      6863	800045b0	400b8333	sub	x6,x23,x0	 x23:0x80009ebc  x0:0x00000000  x6=0x80009ebc
       68655000	      6864	800045b4	0035de93	srli	x29,x11,0x3	 x11:0x00004661 x29=0x000008cc
       68665000	      6865	800045b8	038d1663	bne	x26,x24,800045e4	 x26:0xfffffffe x24:0x7fffffff
       68675000	      6866	00000000	00000013	addi	x0,x0,0	  x0:0x00000000
       68685000	      6867	800045e0	00000013	addi	x0,x0,0	  x0:0x00000000
       68695000	      6868	800045e4	01322f33	slt	x30,x4,x19	  x4:0xfffffe03 x19:0x00000001 x30=0x00000001
       68705000	      6869	800045e8	75e092b7	lui	x5,0x75e09	  x5=0x75e09000
       68715000	      6870	800045ec	00000013	addi	x0,x0,0	  x0:0x00000000
       68725000	      6871	800045f0	0134d6b3	srl	x13,x9,x19	  x9:0x00000000 x19:0x00000001 x13=0x00000000
       68735000	      6872	800045f4	79e82f13	slti	x30,x16,1950	 x16:0x80009fc4 x30=0x00000001
       68745000	      6873	800045f8	240ea993	slti	x19,x29,576	 x29:0x000008cc x19=0x00000000
       68755000	      6874	800045fc	051ef463	bgeu	x29,x17,80004644	 x29:0x000008cc x17:0x800096c4
       68765000	      6875	80004600	4069d1b3	sra	x3,x19,x6	 x19:0x00000000  x6:0x80009ebc  x3=0x00000000
       68775000	      6876	80004604	5d8d0f93	addi	x31,x26,1496	 x26:0xfffffffe x31=0x000005d6
       68785000	      6877	80004608	01cd1463	bne	x26,x28,80004610	 x26:0xfffffffe x28:0x00000001
       68795000	      6878	00000000	00000013	addi	x0,x0,0	  x0:0x00000000
       68805000	      6879	8000460c	00000013	addi	x0,x0,0	  x0:0x00000000
       68815000	      6880	80004610	02498a63	beq	x19,x4,80004644	 x19:0x00000000  x4:0xfffffe03
       68825000	      6881	80004614	015b67b3	or	x15,x22,x21	 x22:0x19fe4534 x21:0x00000000 x15=0x19fe4534
       68835000	      6882	80004618	017e9933	sll	x18,x29,x23	 x29:0x000008cc x23:0x80009ebc x18=0xc0000000
       68845000	      6883	8000461c	6d93a997	auipc	x19,0x6d93a	 x19=0xed93e618
       68855000	      6884	80004620	00645eb3	srl	x29,x8,x6	  x8:0x00000000  x6:0x80009ebc x29=0x00000000
       68865000	      6885	80004624	204d6517	auipc	x10,0x204d6	 x10=0xa04da620
       68875000	      6886	80004628	04204463	blt	x0,x2,80004670	  x0:0x00000000  x2:0x00000000
       68885000	      6887	8000462c	03c81463	bne	x16,x28,80004654	 x16:0x80009fc4 x28:0x00000001
       68895000	      6888	00000000	00000013	addi	x0,x0,0	  x0:0x00000000
       68905000	      6889	80004650	00000013	addi	x0,x0,0	  x0:0x00000000
       68915000	      6890	80004654	00c83733	sltu	x14,x16,x12	 x16:0x80009fc4 x12:0x00000000 x14=0x00000000
       68925000	      6891	80004658	01007133	and	x2,x0,x16	  x0:0x00000000 x16:0x80009fc4  x2=0x00000000
       68935000	      6892	8000465c	c771b4b7	lui	x9,0xc771b	  x9=0xc771b000
       68945000	      6893	80004660	41675393	srai	x7,x14,0x16	 x14:0x00000000  x7=0x00000000
       68955000	      6894	80004664	f1712513	slti	x10,x2,-233	  x2:0x00000000 x10=0x00000000
       68965000	      6895	80004668	00ed1033	sll	x0,x26,x14	 x26:0xfffffffe x14:0x00000000
       68975000	      6896	8000466c	41e2d493	srai	x9,x5,0x1e	  x5:0x75e09000  x9=0x00000001
       68985000	      6897	80004670	00a8b933	sltu	x18,x17,x10	 x17:0x800096c4 x10:0x00000000 x18=0x00000000
       68995000	      6898	80004674	04318863	beq	x3,x3,800046c4	  x3:0x00000000  x3:0x00000000
       69005000	      6899	00000000	00000013	addi	x0,x0,0	  x0:0x00000000
       69015000	      6900	800046c0	00000013	addi	x0,x0,0	  x0:0x00000000
       69025000	      6901	800046c4	40a95f33	sra	x30,x18,x10	 x18:0x00000000 x10:0x00000000 x30=0x00000000
       69035000	      6902	800046c8	054fc263	blt	x31,x20,8000470c	 x31:0x000005d6 x20:0x00000011
       69045000	      6903	800046cc	018b6433	or	x8,x22,x24	 x22:0x19fe4534 x24:0x7fffffff  x8=0x7fffffff
       69055000	      6904	800046d0	01355463	bge	x10,x19,800046d8	 x10:0x00000000 x19:0xed93e618
       69065000	      6905	00000000	00000013	addi	x0,x0,0	  x0:0x00000000
       69075000	      6906	800046d4	00000013	addi	x0,x0,0	  x0:0x00000000
       69085000	      6907	800046d8	013f02b3	add	x5,x30,x19	 x30:0x00000000 x19:0xed93e618  x5=0xed93e618
       69095000	      6908	800046dc	4ddec393	xori	x7,x29,1245	 x29:0x00000000  x7=0x000004dd
       69105000	      6909	800046e0	002157b3	srl	x15,x2,x2	  x2:0x00000000  x2:0x00000000 x15=0x00000000
       69115000	      6910	800046e4	a1f23413	sltiu	x8,x4,-1505	  x4:0xfffffe03  x8=0x00000000
       69125000	      6911	800046e8	02d00663	beq	x0,x13,80004714	  x0:0x00000000 x13:0x00000000
       69135000	      6912	00000000	00000013	addi	x0,x0,0	  x0:0x00000000
       69145000	      6913	80004710	00000013	addi	x0,x0,0	  x0:0x00000000
       69155000	      6914	80004714	005d7db3	and	x27,x26,x5	 x26:0xfffffffe  x5:0xed93e618 x27=0xed93e618
       69165000	      6915	80004718	0090ceb3	xor	x29,x1,x9	  x1:0x80000000  x9:0x00000001 x29=0x80000001
       69175000	      6916	8000471c	409e5e93	srai	x29,x28,0x9	 x28:0x00000001 x29=0x00000000
       69185000	      6917	80004720	00b2efb3	or	x31,x5,x11	  x5:0xed93e618 x11:0x00004661 x31=0xed93e679
       69195000	      6918	80004724	01586333	or	x6,x16,x21	 x16:0x80009fc4 x21:0x00000000  x6=0x80009fc4
       69205000	      6919	80004728	58538517	auipc	x10,0x58538	 x10=0xd853c724
       69215000	      6920	8000472c	4150d7b3	sra	x15,x1,x21	  x1:0x80000000 x21:0x00000000 x15=0x80000000
       69225000	      6921	80004730	3db1f993	andi	x19,x3,987	  x3:0x00000000 x19=0x00000000
       69235000	      6922	80004734	4054da13	srai	x20,x9,0x5	  x9:0x00000001 x20=0x00000000
       69245000	      6923	80004738	0139c533	xor	x10,x19,x19	 x19:0x00000000 x19:0x00000000 x10=0x00000000
       69255000	      6924	8000473c	c7c9af93	slti	x31,x19,-900	 x19:0x00000000 x31=0x00000000
       69265000	      6925	80004740	042d7863	bgeu	x26,x2,80004790	 x26:0xfffffffe  x2:0x00000000
       69275000	      6926	00000000	00000013	addi	x0,x0,0	  x0:0x00000000
       69285000	      6927	8000478c	00000013	addi	x0,x0,0	  x0:0x00000000
       69295000	      6928	80004790	bee3fc93	andi	x25,x7,-1042	  x7:0x000004dd x25=0x000000cc
       69305000	      6929	80004794	019337b3	sltu	x15,x6,x25	  x6:0x80009fc4 x25:0x000000cc x15=0x00000000
       69315000	      6930	80004798	147b7913	andi	x18,x22,327	 x22:0x19fe4534 x18=0x00000104
       69325000	      6931	8000479c	ecfaed13	ori	x26,x21,-305	 x21:0x00000000 x26=0xfffffecf
       69335000	      6932	800047a0	419e5ab3	sra	x21,x28,x25	 x28:0x00000001 x25:0x000000cc x21=0x00000000
       69345000	      6933	800047a4	13328313	addi	x6,x5,307	  x5:0xed93e618  x6=0xed93e74b
       69355000	      6934	800047a8	b8ba8c93	addi	x25,x21,-1141	 x21:0x00000000 x25=0xfffffb8b
       69365000	      6935	800047ac	00067d33	and	x26,x12,x0	 x12:0x00000000  x0:0x00000000 x26=0x00000000
       69375000	      6936	800047b0	018d9a93	slli	x21,x27,0x18	 x27:0xed93e618 x21=0x18000000
       69385000	      6937	800047b4	002e59b3	srl	x19,x28,x2	 x28:0x00000001  x2:0x00000000 x19=0x00000001
       69395000	      6938	800047b8	01828663	beq	x5,x24,800047c4	  x5:0xed93e618 x24:0x7fffffff
       69405000	      6939	800047bc	00364e63	blt	x12,x3,800047d8	 x12:0x00000000  x3:0x00000000
       69415000	      6940	800047c0	b8f06013	ori	x0,x0,-1137	  x0:0x00000000
       69425000	      6941	800047c4	000d9793	slli	x15,x27,0x0	 x27:0xed93e618 x15=0xed93e618
       69435000	      6942	800047c8	0098d633	srl	x12,x17,x9	 x17:0x800096c4  x9:0x00000001 x12=0x40004b62
       69445000	      6943	800047cc	0110e1b3	or	x3,x1,x17	  x1:0x80000000 x17:0x800096c4  x3=0x800096c4
       69455000	      6944	800047d0	0016bd33	sltu	x26,x13,x1	 x13:0x00000000  x1:0x80000000 x26=0x00000001
       69465000	      6945	800047d4	041ce663	bltu	x25,x1,80004820	 x25:0xfffffb8b  x1:0x80000000
       69475000	      6946	800047d8	00243433	sltu	x8,x8,x2	  x8:0x00000000  x2:0x00000000  x8=0x00000000
       69485000	      6947	800047dc	0035ca63	blt	x11,x3,800047f0	 x11:0x00004661  x3:0x800096c4
       69495000	      6948	800047e0	0497b717	auipc	x14,0x497b	 x14=0x8497f7dc
       69505000	      6949	800047e4	04ece463	bltu	x25,x14,8000482c	 x25:0xfffffb8b x14:0x8497f7dc
       69515000	      6950	800047e8	006ff933	and	x18,x31,x6	 x31:0x00000000  x6:0xed93e74b x18=0x00000000
       69525000	      6951	800047ec	41b6d433	sra	x8,x13,x27	 x13:0x00000000 x27:0xed93e618  x8=0x00000000
       69535000	      6952	800047f0	341afa17	auipc	x20,0x341af	 x20=0xb41b37ec
       69545000	      6953	800047f4	02c06263	bltu	x0,x12,80004818	  x0:0x00000000 x12:0x40004b62
       69555000	      6954	00000000	00000013	addi	x0,x0,0	  x0:0x00000000
       69565000	      6955	80004814	00000013	addi	x0,x0,0	  x0:0x00000000
       69575000	      6956	80004818	40bedfb3	sra	x31,x29,x11	 x29:0x00000000 x11:0x00004661 x31=0x00000000
       69585000	      6957	8000481c	019a42b3	xor	x5,x20,x25	 x20:0xb41b37ec x25:0xfffffb8b  x5=0x4be4cc67
       69595000	      6958	80004820	05751863	bne	x10,x23,80004870	 x10:0x00000000 x23:0x80009ebc
       69605000	      6959	00000000	00000013	addi	x0,x0,0	  x0:0x00000000
       69615000	      6960	8000486c	00000013	addi	x0,x0,0	  x0:0x00000000
       69625000	      6961	80004870	00647333	and	x6,x8,x6	  x8:0x00000000  x6:0xed93e74b  x6=0x00000000
       69635000	      6962	80004874	00d1dc63	bge	x3,x13,8000488c	  x3:0x800096c4 x13:0x00000000
       69645000	      6963	80004878	0021c463	blt	x3,x2,80004880	  x3:0x800096c4  x2:0x00000000
       69655000	      6964	00000000	00000013	addi	x0,x0,0	  x0:0x00000000
       69665000	      6965	8000487c	00000013	addi	x0,x0,0	  x0:0x00000000
       69675000	      6966	80004880	0083c2b3	xor	x5,x7,x8	  x7:0x000004dd  x8:0x00000000  x5=0x000004dd
       69685000	      6967	80004884	d87784b7	lui	x9,0xd8778	  x9=0xd8778000
       69695000	      6968	80004888	b520e793	ori	x15,x1,-1198	  x1:0x80000000 x15=0xfffffb52
       69705000	      6969	8000488c	01741463	bne	x8,x23,80004894	  x8:0x00000000 x23:0x80009ebc
       69715000	      6970	00000000	00000013	addi	x0,x0,0	  x0:0x00000000
       69725000	      6971	80004890	00000013	addi	x0,x0,0	  x0:0x00000000
       69735000	      6972	80004894	01bec7b3	xor	x15,x29,x27	 x29:0x00000000 x27:0xed93e618 x15=0xed93e618
       69745000	      6973	80004898	416a87b3	sub	x15,x21,x22	 x21:0x18000000 x22:0x19fe4534 x15=0xfe01bacc
       69755000	      6974	8000489c	00e84eb3	xor	x29,x16,x14	 x16:0x80009fc4 x14:0x8497f7dc x29=0x04976818
       69765000	      6975	800048a0	84b6e693	ori	x13,x13,-1973	 x13:0x00000000 x13=0xfffff84b
       69775000	      6976	800048a4	24700437	lui	x8,0x24700	  x8=0x24700000
       69785000	      6977	800048a8	00149f93	slli	x31,x9,0x1	  x9:0xd8778000 x31=0xb0ef0000
       69795000	      6978	800048ac	0125a3b3	slt	x7,x11,x18	 x11:0x00004661 x18:0x00000000  x7=0x00000000
       69805000	      6979	800048b0	4067deb3	sra	x29,x15,x6	 x15:0xfe01bacc  x6:0x00000000 x29=0xfe01bacc
       69815000	      6980	800048b4	00962a33	slt	x20,x12,x9	 x12:0x40004b62  x9:0xd8778000 x20=0x00000000
       69825000	      6981	800048b8	00264e33	xor	x28,x12,x2	 x12:0x40004b62  x2:0x00000000 x28=0x40004b62
       69835000	      6982	800048bc	00611493	slli	x9,x2,0x6	  x2:0x00000000  x9=0x00000000
       69845000	      6983	800048c0	02044463	blt	x8,x0,800048e8	  x8:0x24700000  x0:0x00000000
       69855000	      6984	800048c4	004a5013	srli	x0,x20,0x4	 x20:0x00000000
       69865000	      6985	800048c8	01c68663	beq	x13,x28,800048d4	 x13:0xfffff84b x28:0x40004b62
       69875000	      6986	800048cc	0396ce63	blt	x13,x25,80004908	 x13:0xfffff84b x25:0xfffffb8b
       69885000	      6987	00000000	00000013	addi	x0,x0,0	  x0:0x00000000
       69895000	      6988	80004904	00000013	addi	x0,x0,0	  x0:0x00000000
       69905000	      6989	80004908	00c2ccb7	lui	x25,0xc2c	 x25=0x00c2c000
       69915000	      6990	8000490c	000fdf33	srl	x30,x31,x0	 x31:0xb0ef0000  x0:0x00000000 x30=0xb0ef0000
       69925000	      6991	80004910	014f64b3	or	x9,x30,x20	 x30:0xb0ef0000 x20:0x00000000  x9=0xb0ef0000
       69935000	      6992	80004914	00b16463	bltu	x2,x11,8000491c	  x2:0x00000000 x11:0x00004661
       69945000	      6993	00000000	00000013	addi	x0,x0,0	  x0:0x00000000
       69955000	      6994	80004918	00000013	addi	x0,x0,0	  x0:0x00000000
       69965000	      6995	8000491c	8f243913	sltiu	x18,x8,-1806	  x8:0x24700000 x18=0x00000001
       69975000	      6996	80004920	04f3d463	bge	x7,x15,80004968	  x7:0x00000000 x15:0xfe01bacc
       69985000	      6997	00000000	00000013	addi	x0,x0,0	  x0:0x00000000
       69995000	      6998	80004964	00000013	addi	x0,x0,0	  x0:0x00000000
       70005000	      6999	80004968	01a49613	slli	x12,x9,0x1a	  x9:0xb0ef0000 x12=0x00000000
       70015000	      7000	8000496c	c8a42d93	slti	x27,x8,-886	  x8:0x24700000 x27=0x00000000
       70025000	      7001	80004970	01e59c13	slli	x24,x11,0x1e	 x11:0x00004661 x24=0x40000000
       70035000	      7002	80004974	020e5a63	bge	x28,x0,800049a8	 x28:0x40004b62  x0:0x00000000
       70045000	      7003	00000000	00000013	addi	x0,x0,0	  x0:0x00000000
       70055000	      7004	800049a4	00000013	addi	x0,x0,0	  x0:0x00000000
       70065000	      7005	800049a8	0bb53593	sltiu	x11,x10,187	 x10:0x00000000 x11=0x00000001
       70075000	      7006	800049ac	40a65a93	srai	x21,x12,0xa	 x12:0x00000000 x21=0x00000000
       70085000	      7007	800049b0	413fdb33	sra	x22,x31,x19	 x31:0xb0ef0000 x19:0x00000001 x22=0xd8778000
       70095000	      7008	800049b4	3642cf93	xori	x31,x5,868	  x5:0x000004dd x31=0x000007b9
       70105000	      7009	800049b8	44a69c17	auipc	x24,0x44a69	 x24=0xc4a6d9b4
       70115000	      7010	800049bc	5c340c13	addi	x24,x8,1475	  x8:0x24700000 x24=0x247005c3
       70125000	      7011	800049c0	00208463	beq	x1,x2,800049c8	  x1:0x80000000  x2:0x00000000
       70135000	      7012	800049c4	00148533	add	x10,x9,x1	  x9:0xb0ef0000  x1:0x80000000 x10=0x30ef0000
       70145000	      7013	800049c8	23764213	xori	x4,x12,567	 x12:0x00000000  x4=0x00000237
       70155000	      7014	800049cc	00274cb3	xor	x25,x14,x2	 x14:0x8497f7dc  x2:0x00000000 x25=0x8497f7dc
       70165000	      7015	800049d0	0026c463	blt	x13,x2,800049d8	 x13:0xfffff84b  x2:0x00000000
       70175000	      7016	00000000	00000013	addi	x0,x0,0	  x0:0x00000000
       70185000	      7017	800049d4	00000013	addi	x0,x0,0	  x0:0x00000000
       70195000	      7018	800049d8	0ed8d463	bge	x17,x13,80004ac0	 x17:0x800096c4 x13:0xfffff84b
       70205000	      7019	800049dc	96538c93	addi	x25,x7,-1691	  x7:0x00000000 x25=0xfffff965
       70215000	      7020	800049e0	0c467863	bgeu	x12,x4,80004ab0	 x12:0x00000000  x4:0x00000237
       70225000	      7021	800049e4	ba9d2493	slti	x9,x26,-1111	 x26:0x00000001  x9=0x00000000
       70235000	      7022	800049e8	010d9233	sll	x4,x27,x16	 x27:0x00000000 x16:0x80009fc4  x4=0x00000000
       70245000	      7023	800049ec	0eec5c63	bge	x24,x14,80004ae4	 x24:0x247005c3 x14:0x8497f7dc
       70255000	      7024	00000000	00000013	addi	x0,x0,0	  x0:0x00000000
       70265000	      7025	80004ae0	00000013	addi	x0,x0,0	  x0:0x00000000
       70275000	      7026	80004ae4	40f4d9b3	sra	x19,x9,x15	  x9:0x00000000 x15:0xfe01bacc x19=0x00000000
       70285000	      7027	80004ae8	fbdb7b13	andi	x22,x22,-67	 x22:0xd8778000 x22=0xd8778000
       70295000	      7028	80004aec	abb3d537	lui	x10,0xabb3d	 x10=0xabb3d000
       70305000	      7029	80004af0	013b8463	beq	x23,x19,80004af8	 x23:0x80009ebc x19:0x00000000
       70315000	      7030	80004af4	402407b3	sub	x15,x8,x2	  x8:0x24700000  x2:0x00000000 x15=0x24700000
       70325000	      7031	80004af8	003c9913	slli	x18,x25,0x3	 x25:0xfffff965 x18=0xffffcb28
       70335000	      7032	80004afc	0131db33	srl	x22,x3,x19	  x3:0x800096c4 x19:0x00000000 x22=0x800096c4
       70345000	      7033	80004b00	41a25613	srai	x12,x4,0x1a	  x4:0x00000000 x12=0x00000000
       70355000	      7034	80004b04	41ead1b3	sra	x3,x21,x30	 x21:0x00000000 x30:0xb0ef0000  x3=0x00000000
       70365000	      7035	80004b08	01527e63	bgeu	x4,x21,80004b24	  x4:0x00000000 x21:0x00000000
       70375000	      7036	00000000	00000013	addi	x0,x0,0	  x0:0x00000000
       70385000	      7037	80004b20	00000013	addi	x0,x0,0	  x0:0x00000000
       70395000	      7038	80004b24	007d1f13	slli	x30,x26,0x7	 x26:0x00000001 x30=0x00000080
       70405000	      7039	80004b28	0075aeb3	slt	x29,x11,x7	 x11:0x00000001  x7:0x00000000 x29=0x00000000
       70415000	      7040	80004b2c	03df0a63	beq	x30,x29,80004b60	 x30:0x00000080 x29:0x00000000
       70425000	      7041	80004b30	01be5433	srl	x8,x28,x27	 x28:0x40004b62 x27:0x00000000  x8=0x40004b62
       70435000	      7042	80004b34	00f28fb3	add	x31,x5,x15	  x5:0x000004dd x15:0x24700000 x31=0x247004dd
       70445000	      7043	80004b38	01be5fb3	srl	x31,x28,x27	 x28:0x40004b62 x27:0x00000000 x31=0x40004b62
       70455000	      7044	80004b3c	05c54263	blt	x10,x28,80004b80	 x10:0xabb3d000 x28:0x40004b62
       70465000	      7045	00000000	00000013	addi	x0,x0,0	  x0:0x00000000
       70475000	      7046	80004b7c	00000013	addi	x0,x0,0	  x0:0x00000000
       70485000	      7047	80004b80	41ecd9b3	sra	x19,x25,x30	 x25:0xfffff965 x30:0x00000080 x19=0xfffff965
       70495000	      7048	80004b84	01e50fb3	add	x31,x10,x30	 x10:0xabb3d000 x30:0x00000080 x31=0xabb3d080
       70505000	      7049	80004b88	23bba793	slti	x15,x23,571	 x23:0x80009ebc x15=0x00000001
       70515000	      7050	80004b8c	01418ab3	add	x21,x3,x20	  x3:0x00000000 x20:0x00000000 x21=0x00000000
       70525000	      7051	80004b90	8e470497	auipc	x9,0x8e470	  x9=0x0e474b8c
       70535000	      7052	80004b94	04fdc263	blt	x27,x15,80004bd8	 x27:0x00000000 x15:0x00000001
       70545000	      7053	00000000	00000013	addi	x0,x0,0	  x0:0x00000000
       70555000	      7054	80004bd4	00000013	addi	x0,x0,0	  x0:0x00000000
       70565000	      7055	80004bd8	407f0d33	sub	x26,x30,x7	 x30:0x00000080  x7:0x00000000 x26=0x00000080
       70575000	      7056	80004bdc	ab556d17	auipc	x26,0xab556	 x26=0x2b55abd8
       70585000	      7057	80004be0	03ff6d13	ori	x26,x30,63	 x30:0x00000080 x26=0x000000bf
       70595000	      7058	80004be4	002b8633	add	x12,x23,x2	 x23:0x80009ebc  x2:0x00000000 x12=0x80009ebc
       70605000	      7059	80004be8	0089d033	srl	x0,x19,x8	 x19:0xfffff965  x8:0x40004b62
       70615000	      7060	80004bec	0199b2b3	sltu	x5,x19,x25	 x19:0xfffff965 x25:0xfffff965  x5=0x00000000
       70625000	      7061	80004bf0	04b86863	bltu	x16,x11,80004c40	 x16:0x80009fc4 x11:0x00000001
       70635000	      7062	80004bf4	00e5e8b3	or	x17,x11,x14	 x11:0x00000001 x14:0x8497f7dc x17=0x8497f7dd
       70645000	      7063	80004bf8	aed97393	andi	x7,x18,-1299	 x18:0xffffcb28  x7=0xffffca28
       70655000	      7064	80004bfc	41c85433	sra	x8,x16,x28	 x16:0x80009fc4 x28:0x40004b62  x8=0xe00027f1
       70665000	      7065	80004c00	015f5b33	srl	x22,x30,x21	 x30:0x00000080 x21:0x00000000 x22=0x00000080
       70675000	      7066	80004c04	05cb0863	beq	x22,x28,80004c54	 x22:0x00000080 x28:0x40004b62
       70685000	      7067	80004c08	9c1d7613	andi	x12,x26,-1599	 x26:0x000000bf x12=0x00000081
       70695000	      7068	80004c0c	416f5513	srai	x10,x30,0x16	 x30:0x00000080 x10=0x00000000
       70705000	      7069	80004c10	00a872b3	and	x5,x16,x10	 x16:0x80009fc4 x10:0x00000000  x5=0x00000000
       70715000	      7070	80004c14	7ca76013	ori	x0,x14,1994	 x14:0x8497f7dc
       70725000	      7071	80004c18	01d695b3	sll	x11,x13,x29	 x13:0xfffff84b x29:0x00000000 x11=0xfffff84b
       70735000	      7072	80004c1c	ca467193	andi	x3,x12,-860	 x12:0x00000081  x3=0x00000080
       70745000	      7073	80004c20	01277663	bgeu	x14,x18,80004c2c	 x14:0x8497f7dc x18:0xffffcb28
       70755000	      7074	80004c24	d07f4c93	xori	x25,x30,-761	 x30:0x00000080 x25=0xfffffd87
       70765000	      7075	80004c28	009deeb3	or	x29,x27,x9	 x27:0x00000000  x9:0x0e474b8c x29=0x0e474b8c
       70775000	      7076	80004c2c	0002d113	srli	x2,x5,0x0	  x5:0x00000000  x2=0x00000000
       70785000	      7077	80004c30	02044063	blt	x8,x0,80004c50	  x8:0xe00027f1  x0:0x00000000
       70795000	      7078	00000000	00000013	addi	x0,x0,0	  x0:0x00000000
       70805000	      7079	80004c4c	00000013	addi	x0,x0,0	  x0:0x00000000
       70815000	      7080	80004c50	000819b3	sll	x19,x16,x0	 x16:0x80009fc4  x0:0x00000000 x19=0x80009fc4
       70825000	      7081	80004c54	0102f6b3	and	x13,x5,x16	  x5:0x00000000 x16:0x80009fc4 x13=0x00000000
       70835000	      7082	80004c58	00d95433	srl	x8,x18,x13	 x18:0xffffcb28 x13:0x00000000  x8=0xffffcb28
       70845000	      7083	80004c5c	012712b3	sll	x5,x14,x18	 x14:0x8497f7dc x18:0xffffcb28  x5=0x97f7dc00
       70855000	      7084	80004c60	00000013	addi	x0,x0,0	  x0:0x00000000
       70865000	      7085	80004c64	e777a393	slti	x7,x15,-393	 x15:0x00000001  x7=0x00000000
       70875000	      7086	80004c68	01fe0a63	beq	x28,x31,80004c7c	 x28:0x40004b62 x31:0xabb3d080
       70885000	      7087	80004c6c	009d1533	sll	x10,x26,x9	 x26:0x000000bf  x9:0x0e474b8c x10=0x000bf000
       70895000	      7088	80004c70	00177263	bgeu	x14,x1,80004c74	 x14:0x8497f7dc  x1:0x80000000
       70905000	      7089	00000000	00000013	addi	x0,x0,0	  x0:0x00000000
       70915000	      7090	80004c70	00000013	addi	x0,x0,0	  x0:0x00000000
       70925000	      7091	80004c74	00a78f33	add	x30,x15,x10	 x15:0x00000001 x10:0x000bf000 x30=0x000bf001
       70935000	      7092	80004c78	00285433	srl	x8,x16,x2	 x16:0x80009fc4  x2:0x00000000  x8=0x80009fc4
       70945000	      7093	80004c7c	01241393	slli	x7,x8,0x12	  x8:0x80009fc4  x7=0x7f100000
       70955000	      7094	80004c80	5f917717	auipc	x14,0x5f917	 x14=0xdf91bc7c
       70965000	      7095	80004c84	019f3933	sltu	x18,x30,x25	 x30:0x000bf001 x25:0xfffffd87 x18=0x00000001
       70975000	      7096	80004c88	dd289937	lui	x18,0xdd289	 x18=0xdd289000
       70985000	      7097	80004c8c	014f8c33	add	x24,x31,x20	 x31:0xabb3d080 x20:0x00000000 x24=0xabb3d080
       70995000	      7098	80004c90	01308fb3	add	x31,x1,x19	  x1:0x80000000 x19:0x80009fc4 x31=0x00009fc4
       71005000	      7099	80004c94	013174b3	and	x9,x2,x19	  x2:0x00000000 x19:0x80009fc4  x9=0x00000000
       71015000	      7100	80004c98	03e38463	beq	x7,x30,80004cc0	  x7:0x7f100000 x30:0x000bf001
       71025000	      7101	80004c9c	014a7033	and	x0,x20,x20	 x20:0x00000000 x20:0x00000000
       71035000	      7102	80004ca0	0282cc63	blt	x5,x8,80004cd8	  x5:0x97f7dc00  x8:0x80009fc4
       71045000	      7103	80004ca4	005f9c63	bne	x31,x5,80004cbc	 x31:0x00009fc4  x5:0x97f7dc00
       71055000	      7104	00000000	00000013	addi	x0,x0,0	  x0:0x00000000
       71065000	      7105	80004cb8	00000013	addi	x0,x0,0	  x0:0x00000000
       71075000	      7106	80004cbc	055f0663	beq	x30,x21,80004d08	 x30:0x000bf001 x21:0x00000000
       71085000	      7107	80004cc0	01406233	or	x4,x0,x20	  x0:0x00000000 x20:0x00000000  x4=0x00000000
       71095000	      7108	80004cc4	0037d593	srli	x11,x15,0x3	 x15:0x00000001 x11=0x00000000
       71105000	      7109	80004cc8	78b83e13	sltiu	x28,x16,1931	 x16:0x80009fc4 x28=0x00000000
       71115000	      7110	80004ccc	012bc2b3	xor	x5,x23,x18	 x23:0x80009ebc x18:0xdd289000  x5=0x5d280ebc
       71125000	      7111	80004cd0	00881a63	bne	x16,x8,80004ce4	 x16:0x80009fc4  x8:0x80009fc4
       71135000	      7112	80004cd4	00a4d613	srli	x12,x9,0xa	  x9:0x00000000 x12=0x00000000
       71145000	      7113	80004cd8	67fd7493	andi	x9,x26,1663	 x26:0x000000bf  x9=0x0000003f
       71155000	      7114	80004cdc	0048e463	bltu	x17,x4,80004ce4	 x17:0x8497f7dd  x4:0x00000000
       71165000	      7115	80004ce0	00ed02b3	add	x5,x26,x14	 x26:0x000000bf x14:0xdf91bc7c  x5=0xdf91bd3b
       71175000	      7116	80004ce4	41218233	sub	x4,x3,x18	  x3:0x00000080 x18:0xdd289000  x4=0x22d77080
       71185000	      7117	80004ce8	0135ce63	blt	x11,x19,80004d04	 x11:0x00000000 x19:0x80009fc4
       71195000	      7118	80004cec	679dcc37	lui	x24,0x679dc	 x24=0x679dc000
       71205000	      7119	80004cf0	00e88533	add	x10,x17,x14	 x17:0x8497f7dd x14:0xdf91bc7c x10=0x6429b459
       71215000	      7120	80004cf4	008c7333	and	x6,x24,x8	 x24:0x679dc000  x8:0x80009fc4  x6=0x00008000
       71225000	      7121	80004cf8	00af6eb3	or	x29,x30,x10	 x30:0x000bf001 x10:0x6429b459 x29=0x642bf459
       71235000	      7122	80004cfc	01c665b3	or	x11,x12,x28	 x12:0x00000000 x28:0x00000000 x11=0x00000000
       71245000	      7123	80004d00	015e8633	add	x12,x29,x21	 x29:0x642bf459 x21:0x00000000 x12=0x642bf459
       71255000	      7124	80004d04	01f725b3	slt	x11,x14,x31	 x14:0xdf91bc7c x31:0x00009fc4 x11=0x00000001
       71265000	      7125	80004d08	4075d593	srai	x11,x11,0x7	 x11:0x00000001 x11=0x00000000
       71275000	      7126	80004d0c	4076dc33	sra	x24,x13,x7	 x13:0x00000000  x7:0x7f100000 x24=0x00000000
       71285000	      7127	80004d10	c1bca117	auipc	x2,0xc1bca	  x2=0x41bced0c
       71295000	      7128	80004d14	00cc2b33	slt	x22,x24,x12	 x24:0x00000000 x12:0x642bf459 x22=0x00000001
       71305000	      7129	80004d18	0176d913	srli	x18,x13,0x17	 x13:0x00000000 x18=0x00000000
       71315000	      7130	80004d1c	66a30797	auipc	x15,0x66a30	 x15=0xe6a34d18
       71325000	      7131	80004d20	7017e913	ori	x18,x15,1793	 x15:0xe6a34d18 x18=0xe6a34f19
       71335000	      7132	80004d24	024cf863	bgeu	x25,x4,80004d54	 x25:0xfffffd87  x4:0x22d77080
       71345000	      7133	00000000	00000013	addi	x0,x0,0	  x0:0x00000000
       71355000	      7134	80004d50	00000013	addi	x0,x0,0	  x0:0x00000000
       71365000	      7135	80004d54	7360f693	andi	x13,x1,1846	  x1:0x80000000 x13=0x00000000
       71375000	      7136	80004d58	7942b193	sltiu	x3,x5,1940	  x5:0xdf91bd3b  x3=0x00000000
       71385000	      7137	80004d5c	b708e613	ori	x12,x17,-1168	 x17:0x8497f7dd x12=0xfffffffd
       71395000	      7138	80004d60	40e5d793	srai	x15,x11,0xe	 x11:0x00000000 x15=0x00000000
       71405000	      7139	80004d64	00000013	addi	x0,x0,0	  x0:0x00000000
       71415000	      7140	80004d68	03d75663	bge	x14,x29,80004d94	 x14:0xdf91bc7c x29:0x642bf459
       71425000	      7141	80004d6c	00805133	srl	x2,x0,x8	  x0:0x00000000  x8:0x80009fc4  x2=0x00000000
       71435000	      7142	80004d70	c9483013	sltiu	x0,x16,-876	 x16:0x80009fc4
       71445000	      7143	80004d74	0188bfb3	sltu	x31,x17,x24	 x17:0x8497f7dd x24:0x00000000 x31=0x00000000
       71455000	      7144	80004d78	6723fd13	andi	x26,x7,1650	  x7:0x7f100000 x26=0x00000000
       71465000	      7145	80004d7c	05ac0263	beq	x24,x26,80004dc0	 x24:0x00000000 x26:0x00000000
       71475000	      7146	00000000	00000013	addi	x0,x0,0	  x0:0x00000000
       71485000	      7147	80004dbc	00000013	addi	x0,x0,0	  x0:0x00000000
       71495000	      7148	80004dc0	016b64b3	or	x9,x22,x22	 x22:0x00000001 x22:0x00000001  x9=0x00000001
       71505000	      7149	80004dc4	01395cb3	srl	x25,x18,x19	 x18:0xe6a34f19 x19:0x80009fc4 x25=0x0e6a34f1
       71515000	      7150	80004dc8	41578033	sub	x0,x15,x21	 x15:0x00000000 x21:0x00000000
       71525000	      7151	80004dcc	2c15fb13	andi	x22,x11,705	 x11:0x00000000 x22=0x00000000
       71535000	      7152	80004dd0	71fde113	ori	x2,x27,1823	 x27:0x00000000  x2=0x0000071f
       71545000	      7153	80004dd4	00d037b3	sltu	x15,x0,x13	  x0:0x00000000 x13:0x00000000 x15=0x00000000
       71555000	      7154	80004dd8	b96e0e13	addi	x28,x28,-1130	 x28:0x00000000 x28=0xfffffb96
       71565000	      7155	80004ddc	df69cc93	xori	x25,x19,-522	 x19:0x80009fc4 x25=0x7fff6232
       71575000	      7156	80004de0	433a2a93	slti	x21,x20,1075	 x20:0x00000000 x21=0x00000001
       71585000	      7157	80004de4	d0cb6913	ori	x18,x22,-756	 x22:0x00000000 x18=0xfffffd0c
       71595000	      7158	80004de8	41d55b13	srai	x22,x10,0x1d	 x10:0x6429b459 x22=0x00000003
       71605000	      7159	80004dec	0577d463	bge	x15,x23,80004e34	 x15:0x00000000 x23:0x80009ebc
       71615000	      7160	00000000	00000013	addi	x0,x0,0	  x0:0x00000000
       71625000	      7161	80004e30	00000013	addi	x0,x0,0	  x0:0x00000000
       71635000	      7162	80004e34	01c986b3	add	x13,x19,x28	 x19:0x80009fc4 x28:0xfffffb96 x13=0x80009b5a
       71645000	      7163	80004e38	01a3d2b3	srl	x5,x7,x26	  x7:0x7f100000 x26:0x00000000  x5=0x7f100000
       71655000	      7164	80004e3c	00447663	bgeu	x8,x4,80004e48	  x8:0x80009fc4  x4:0x22d77080
       71665000	      7165	00000000	00000013	addi	x0,x0,0	  x0:0x00000000
       71675000	      7166	80004e44	00000013	addi	x0,x0,0	  x0:0x00000000
       71685000	      7167	80004e48	0169f463	bgeu	x19,x22,80004e50	 x19:0x80009fc4 x22:0x00000003
       71695000	      7168	00000000	00000013	addi	x0,x0,0	  x0:0x00000000
       71705000	      7169	80004e4c	00000013	addi	x0,x0,0	  x0:0x00000000
       71715000	      7170	80004e50	a7738513	addi	x10,x7,-1417	  x7:0x7f100000 x10=0x7f0ffa77
       71725000	      7171	80004e54	ac7fbe17	auipc	x28,0xac7fb	 x28=0x2c7ffe50
       71735000	      7172	80004e58	03ba1463	bne	x20,x27,80004e80	 x20:0x00000000 x27:0x00000000
       71745000	      7173	80004e5c	0026ee63	bltu	x13,x2,80004e78	 x13:0x80009b5a  x2:0x0000071f
       71755000	      7174	80004e60	00893b33	sltu	x22,x18,x8	 x18:0xfffffd0c  x8:0x80009fc4 x22=0x00000000
       71765000	      7175	80004e64	91854613	xori	x12,x10,-1768	 x10:0x7f0ffa77 x12=0x80f0036f
       71775000	      7176	80004e68	01f76633	or	x12,x14,x31	 x14:0xdf91bc7c x31:0x00000000 x12=0xdf91bc7c
       71785000	      7177	80004e6c	410fd1b3	sra	x3,x31,x16	 x31:0x00000000 x16:0x80009fc4  x3=0x00000000
       71795000	      7178	80004e70	01db2133	slt	x2,x22,x29	 x22:0x00000000 x29:0x642bf459  x2=0x00000001
       71805000	      7179	80004e74	79542593	slti	x11,x8,1941	  x8:0x80009fc4 x11=0x00000001
       71815000	      7180	80004e78	0193d933	srl	x18,x7,x25	  x7:0x7f100000 x25:0x7fff6232 x18=0x00001fc4
       71825000	      7181	80004e7c	00035993	srli	x19,x6,0x0	  x6:0x00008000 x19=0x00008000
       71835000	      7182	80004e80	03ea4463	blt	x20,x30,80004ea8	 x20:0x00000000 x30:0x000bf001
       71845000	      7183	00000000	00000013	addi	x0,x0,0	  x0:0x00000000
       71855000	      7184	80004ea4	00000013	addi	x0,x0,0	  x0:0x00000000
       71865000	      7185	80004ea8	00806f33	or	x30,x0,x8	  x0:0x00000000  x8:0x80009fc4 x30=0x80009fc4
       71875000	      7186	80004eac	01c18c33	add	x24,x3,x28	  x3:0x00000000 x28:0x2c7ffe50 x24=0x2c7ffe50
       71885000	      7187	80004eb0	fec4e993	ori	x19,x9,-20	  x9:0x00000001 x19=0xffffffed
       71895000	      7188	80004eb4	04936863	bltu	x6,x9,80004f04	  x6:0x00008000  x9:0x00000001
       71905000	      7189	80004eb8	0141ed33	or	x26,x3,x20	  x3:0x00000000 x20:0x00000000 x26=0x00000000
       71915000	      7190	80004ebc	0070ff93	andi	x31,x1,7	  x1:0x80000000 x31=0x00000000
       71925000	      7191	80004ec0	0000d463	bge	x1,x0,80004ec8	  x1:0x80000000  x0:0x00000000
       71935000	      7192	80004ec4	02480a63	beq	x16,x4,80004ef8	 x16:0x80009fc4  x4:0x22d77080
       71945000	      7193	80004ec8	00000013	addi	x0,x0,0	  x0:0x00000000
       71955000	      7194	80004ecc	007d74b3	and	x9,x26,x7	 x26:0x00000000  x7:0x7f100000  x9=0x00000000
       71965000	      7195	80004ed0	009f22b3	slt	x5,x30,x9	 x30:0x80009fc4  x9:0x00000000  x5=0x00000001
       71975000	      7196	80004ed4	05d8f263	bgeu	x17,x29,80004f18	 x17:0x8497f7dd x29:0x642bf459
       71985000	      7197	00000000	00000013	addi	x0,x0,0	  x0:0x00000000
       71995000	      7198	80004f14	00000013	addi	x0,x0,0	  x0:0x00000000
       72005000	      7199	80004f18	00b59293	slli	x5,x11,0xb	 x11:0x00000001  x5=0x00000800
       72015000	      7200	80004f1c	024e9463	bne	x29,x4,80004f44	 x29:0x642bf459  x4:0x22d77080
       72025000	      7201	00000000	00000013	addi	x0,x0,0	  x0:0x00000000
       72035000	      7202	80004f40	00000013	addi	x0,x0,0	  x0:0x00000000
       72045000	      7203	80004f44	043c5863	bge	x24,x3,80004f94	 x24:0x2c7ffe50  x3:0x00000000
       72055000	      7204	00000000	00000013	addi	x0,x0,0	  x0:0x00000000
       72065000	      7205	80004f90	00000013	addi	x0,x0,0	  x0:0x00000000
       72075000	      7206	80004f94	2eade493	ori	x9,x27,746	 x27:0x00000000  x9=0x000002ea
       72085000	      7207	80004f98	41b6d033	sra	x0,x13,x27	 x13:0x80009b5a x27:0x00000000
       72095000	      7208	80004f9c	33e30a93	addi	x21,x6,830	  x6:0x00008000 x21=0x0000833e
       72105000	      7209	80004fa0	00535293	srli	x5,x6,0x5	  x6:0x00008000  x5=0x00000400
       72115000	      7210	80004fa4	019473b3	and	x7,x8,x25	  x8:0x80009fc4 x25:0x7fff6232  x7=0x00000200
       72125000	      7211	80004fa8	004a4263	blt	x20,x4,80004fac	 x20:0x00000000  x4:0x22d77080
       72135000	      7212	00000000	00000013	addi	x0,x0,0	  x0:0x00000000
       72145000	      7213	80004fa8	00000013	addi	x0,x0,0	  x0:0x00000000
       72155000	      7214	80004fac	5a58fc13	andi	x24,x17,1445	 x17:0x8497f7dd x24=0x00000585
       72165000	      7215	80004fb0	5bc7ec93	ori	x25,x15,1468	 x15:0x00000000 x25=0x000005bc
       72175000	      7216	80004fb4	79717593	andi	x11,x2,1943	  x2:0x00000001 x11=0x00000001
       72185000	      7217	80004fb8	0183aeb3	slt	x29,x7,x24	  x7:0x00000200 x24:0x00000585 x29=0x00000001
       72195000	      7218	80004fbc	00305413	srli	x8,x0,0x3	  x0:0x00000000  x8=0x00000000
       72205000	      7219	80004fc0	02b66663	bltu	x12,x11,80004fec	 x12:0xdf91bc7c x11:0x00000001
       72215000	      7220	80004fc4	00e7f663	bgeu	x15,x14,80004fd0	 x15:0x00000000 x14:0xdf91bc7c
       72225000	      7221	80004fc8	01ac2a33	slt	x20,x24,x26	 x24:0x00000585 x26:0x00000000 x20=0x00000000
       72235000	      7222	80004fcc	029df463	bgeu	x27,x9,80004ff4	 x27:0x00000000  x9:0x000002ea
       72245000	      7223	80004fd0	b208c617	auipc	x12,0xb208c	 x12=0x32090fcc
       72255000	      7224	80004fd4	bb52c713	xori	x14,x5,-1099	  x5:0x00000400 x14=0xffffffb5
       72265000	      7225	80004fd8	9bdd0c93	addi	x25,x26,-1603	 x26:0x00000000 x25=0xfffff9bd
       72275000	      7226	80004fdc	e2e16f13	ori	x30,x2,-466	  x2:0x00000001 x30=0xfffffe2f
       72285000	      7227	80004fe0	04707463	bgeu	x0,x7,80005028	  x0:0x00000000  x7:0x00000200
       72295000	      7228	80004fe4	02a8ce63	blt	x17,x10,80005020	 x17:0x8497f7dd x10:0x7f0ffa77
       72305000	      7229	00000000	00000013	addi	x0,x0,0	  x0:0x00000000
       72315000	      7230	8000501c	00000013	addi	x0,x0,0	  x0:0x00000000
       72325000	      7231	80005020	0026d4b3	srl	x9,x13,x2	 x13:0x80009b5a  x2:0x00000001  x9=0x40004dad
       72335000	      7232	80005024	00000013	addi	x0,x0,0	  x0:0x00000000
       72345000	      7233	80005028	05c44463	blt	x8,x28,80005070	  x8:0x00000000 x28:0x2c7ffe50
       72355000	      7234	00000000	00000013	addi	x0,x0,0	  x0:0x00000000
       72365000	      7235	8000506c	00000013	addi	x0,x0,0	  x0:0x00000000
       72375000	      7236	80005070	0069d893	srli	x17,x19,0x6	 x19:0xffffffed x17=0x03ffffff
       72385000	      7237	80005074	cc427b13	andi	x22,x4,-828	  x4:0x22d77080 x22=0x22d77080
       72395000	      7238	80005078	0005d6b3	srl	x13,x11,x0	 x11:0x00000001  x0:0x00000000 x13=0x00000001
       72405000	      7239	8000507c	18957193	andi	x3,x10,393	 x10:0x7f0ffa77  x3=0x00000001
       72415000	      7240	80005080	01f37eb3	and	x29,x6,x31	  x6:0x00008000 x31:0x00000000 x29=0x00000000
       72425000	      7241	80005084	41fd8433	sub	x8,x27,x31	 x27:0x00000000 x31:0x00000000  x8=0x00000000
       72435000	      7242	80005088	407f5a33	sra	x20,x30,x7	 x30:0xfffffe2f  x7:0x00000200 x20=0xfffffe2f
       72445000	      7243	8000508c	01484e63	blt	x16,x20,800050a8	 x16:0x80009fc4 x20:0xfffffe2f
       72455000	      7244	00000000	00000013	addi	x0,x0,0	  x0:0x00000000
       72465000	      7245	800050a4	00000013	addi	x0,x0,0	  x0:0x00000000
       72475000	      7246	800050a8	002b3fb3	sltu	x31,x22,x2	 x22:0x22d77080  x2:0x00000001 x31=0x00000000
       72485000	      7247	800050ac	40c9d993	srai	x19,x19,0xc	 x19:0xffffffed x19=0xffffffff
       72495000	      7248	800050b0	007f0733	add	x14,x30,x7	 x30:0xfffffe2f  x7:0x00000200 x14=0x0000002f
       72505000	      7249	800050b4	9ae98e13	addi	x28,x19,-1618	 x19:0xffffffff x28=0xfffff9ad
       72515000	      7250	800050b8	0c411463	bne	x2,x4,80005180	  x2:0x00000001  x4:0x22d77080
       72525000	      7251	00000000	00000013	addi	x0,x0,0	  x0:0x00000000
       72535000	      7252	8000517c	00000013	addi	x0,x0,0	  x0:0x00000000
       72545000	      7253	80005180	00996e33	or	x28,x18,x9	 x18:0x00001fc4  x9:0x40004dad x28=0x40005fed
       72555000	      7254	80005184	41380433	sub	x8,x16,x19	 x16:0x80009fc4 x19:0xffffffff  x8=0x80009fc5
       72565000	      7255	80005188	004673b3	and	x7,x12,x4	 x12:0x32090fcc  x4:0x22d77080  x7=0x22010080
       72575000	      7256	8000518c	01b5c463	blt	x11,x27,80005194	 x11:0x00000001 x27:0x00000000
       72585000	      7257	80005190	0124dc13	srli	x24,x9,0x12	  x9:0x40004dad x24=0x00001000
       72595000	      7258	80005194	5614a713	slti	x14,x9,1377	  x9:0x40004dad x14=0x00000000
       72605000	      7259	80005198	01a97eb3	and	x29,x18,x26	 x18:0x00001fc4 x26:0x00000000 x29=0x00000000
       72615000	      7260	8000519c	0049f433	and	x8,x19,x4	 x19:0xffffffff  x4:0x22d77080  x8=0x22d77080
       72625000	      7261	800051a0	018cda33	srl	x20,x25,x24	 x25:0xfffff9bd x24:0x00001000 x20=0xfffff9bd
       72635000	      7262	800051a4	013a5463	bge	x20,x19,800051ac	 x20:0xfffff9bd x19:0xffffffff
       72645000	      7263	800051a8	0292ea63	bltu	x5,x9,800051dc	  x5:0x00000400  x9:0x40004dad
       72655000	      7264	00000000	00000013	addi	x0,x0,0	  x0:0x00000000
       72665000	      7265	800051d8	00000013	addi	x0,x0,0	  x0:0x00000000
       72675000	      7266	800051dc	4724be13	sltiu	x28,x9,1138	  x9:0x40004dad x28=0x00000000
       72685000	      7267	800051e0	00f49c33	sll	x24,x9,x15	  x9:0x40004dad x15:0x00000000 x24=0x40004dad
       72695000	      7268	800051e4	000759b3	srl	x19,x14,x0	 x14:0x00000000  x0:0x00000000 x19=0x00000000
       72705000	      7269	800051e8	4027dd13	srai	x26,x15,0x2	 x15:0x00000000 x26=0x00000000
       72715000	      7270	800051ec	00faccb3	xor	x25,x21,x15	 x21:0x0000833e x15:0x00000000 x25=0x0000833e
       72725000	      7271	800051f0	0045d5b3	srl	x11,x11,x4	 x11:0x00000001  x4:0x22d77080 x11=0x00000001
       72735000	      7272	800051f4	0d393a13	sltiu	x20,x18,211	 x18:0x00001fc4 x20=0x00000000
       72745000	      7273	800051f8	0236c663	blt	x13,x3,80005224	 x13:0x00000001  x3:0x00000001
       72755000	      7274	800051fc	01924463	blt	x4,x25,80005204	  x4:0x22d77080 x25:0x0000833e
       72765000	      7275	80005200	10c78893	addi	x17,x15,268	 x15:0x00000000 x17=0x0000010c
       72775000	      7276	80005204	0038dc33	srl	x24,x17,x3	 x17:0x0000010c  x3:0x00000001 x24=0x00000086
       72785000	      7277	80005208	4188d933	sra	x18,x17,x24	 x17:0x0000010c x24:0x00000086 x18=0x00000004
       72795000	      7278	8000520c	01ed6fb3	or	x31,x26,x30	 x26:0x00000000 x30:0xfffffe2f x31=0xfffffe2f
       72805000	      7279	80005210	00f81e63	bne	x16,x15,8000522c	 x16:0x80009fc4 x15:0x00000000
       72815000	      7280	00000000	00000013	addi	x0,x0,0	  x0:0x00000000
       72825000	      7281	80005228	00000013	addi	x0,x0,0	  x0:0x00000000
       72835000	      7282	8000522c	517c0993	addi	x19,x24,1303	 x24:0x00000086 x19=0x0000059d
       72845000	      7283	80005230	02de5263	bge	x28,x13,80005254	 x28:0x00000000 x13:0x00000001
       72855000	      7284	80005234	d3688f93	addi	x31,x17,-714	 x17:0x0000010c x31=0xfffffe42
       72865000	      7285	80005238	0024ea33	or	x20,x9,x2	  x9:0x40004dad  x2:0x00000001 x20=0x40004dad
       72875000	      7286	8000523c	f408ae13	slti	x28,x17,-192	 x17:0x0000010c x28=0x00000000
       72885000	      7287	80005240	4047d893	srai	x17,x15,0x4	 x15:0x00000000 x17=0x00000000
       72895000	      7288	80005244	00aa1263	bne	x20,x10,80005248	 x20:0x40004dad x10:0x7f0ffa77
       72905000	      7289	00000000	00000013	addi	x0,x0,0	  x0:0x00000000
       72915000	      7290	80005244	00000013	addi	x0,x0,0	  x0:0x00000000
       72925000	      7291	80005248	008158b3	srl	x17,x2,x8	  x2:0x00000001  x8:0x22d77080 x17=0x00000001
       72935000	      7292	8000524c	01f151b3	srl	x3,x2,x31	  x2:0x00000001 x31:0xfffffe42  x3=0x00000000
       72945000	      7293	80005250	01c69693	slli	x13,x13,0x1c	 x13:0x00000001 x13=0x10000000
       72955000	      7294	80005254	402cd013	srai	x0,x25,0x2	 x25:0x0000833e
       72965000	      7295	80005258	006348b3	xor	x17,x6,x6	  x6:0x00008000  x6:0x00008000 x17=0x00000000
       72975000	      7296	8000525c	8539f293	andi	x5,x19,-1965	 x19:0x0000059d  x5=0x00000011
       72985000	      7297	80005260	01119b33	sll	x22,x3,x17	  x3:0x00000000 x17:0x00000000 x22=0x00000000
       72995000	      7298	80005264	4108dc13	srai	x24,x17,0x10	 x17:0x00000000 x24=0x00000000
       73005000	      7299	80005268	01ec6eb3	or	x29,x24,x30	 x24:0x00000000 x30:0xfffffe2f x29=0xfffffe2f
       73015000	      7300	8000526c	048e6663	bltu	x28,x8,800052b8	 x28:0x00000000  x8:0x22d77080
       73025000	      7301	00000000	00000013	addi	x0,x0,0	  x0:0x00000000
       73035000	      7302	800052b4	00000013	addi	x0,x0,0	  x0:0x00000000
       73045000	      7303	800052b8	00000013	addi	x0,x0,0	  x0:0x00000000
       73055000	      7304	800052bc	40cb8ab3	sub	x21,x23,x12	 x23:0x80009ebc x12:0x32090fcc x21=0x4df78ef0
       73065000	      7305	800052c0	4100df93	srai	x31,x1,0x10	  x1:0x80000000 x31=0xffff8000
       73075000	      7306	800052c4	00425593	srli	x11,x4,0x4	  x4:0x22d77080 x11=0x022d7708
       73085000	      7307	800052c8	01221b13	slli	x22,x4,0x12	  x4:0x22d77080 x22=0xc2000000
       73095000	      7308	800052cc	002d2b33	slt	x22,x26,x2	 x26:0x00000000  x2:0x00000001 x22=0x00000001
       73105000	      7309	800052d0	603ba613	slti	x12,x23,1539	 x23:0x80009ebc x12=0x00000001
       73115000	      7310	800052d4	23baad13	slti	x26,x21,571	 x21:0x4df78ef0 x26=0x00000000
       73125000	      7311	800052d8	04c19263	bne	x3,x12,8000531c	  x3:0x00000000 x12:0x00000001
       73135000	      7312	00000000	00000013	addi	x0,x0,0	  x0:0x00000000
       73145000	      7313	80005318	00000013	addi	x0,x0,0	  x0:0x00000000
       73155000	      7314	8000531c	0005b2b3	sltu	x5,x11,x0	 x11:0x022d7708  x0:0x00000000  x5=0x00000000
       73165000	      7315	80005320	017e6537	lui	x10,0x17e6	 x10=0x017e6000
       73175000	      7316	80005324	02040463	beq	x8,x0,8000534c	  x8:0x22d77080  x0:0x00000000
       73185000	      7317	80005328	034f1e63	bne	x30,x20,80005364	 x30:0xfffffe2f x20:0x40004dad
       73195000	      7318	00000000	00000013	addi	x0,x0,0	  x0:0x00000000
       73205000	      7319	80005360	00000013	addi	x0,x0,0	  x0:0x00000000
       73215000	      7320	80005364	01052333	slt	x6,x10,x16	 x10:0x017e6000 x16:0x80009fc4  x6=0x00000000
       73225000	      7321	80005368	053af863	bgeu	x21,x19,800053b8	 x21:0x4df78ef0 x19:0x0000059d
       73235000	      7322	00000000	00000013	addi	x0,x0,0	  x0:0x00000000
       73245000	      7323	800053b4	00000013	addi	x0,x0,0	  x0:0x00000000
       73255000	      7324	800053b8	0249d063	bge	x19,x4,800053d8	 x19:0x0000059d  x4:0x22d77080
       73265000	      7325	800053bc	00b38463	beq	x7,x11,800053c4	  x7:0x22010080 x11:0x022d7708
       73275000	      7326	800053c0	14d7a897	auipc	x17,0x14d7a	 x17=0x94d7f3bc
       73285000	      7327	800053c4	00b61d93	slli	x27,x12,0xb	 x12:0x00000001 x27=0x00000800
       73295000	      7328	800053c8	81bb8297	auipc	x5,0x81bb8	  x5=0x01bbd3c4
       73305000	      7329	800053cc	0144fe33	and	x28,x9,x20	  x9:0x40004dad x20:0x40004dad x28=0x40004dad
       73315000	      7330	800053d0	00000013	addi	x0,x0,0	  x0:0x00000000
       73325000	      7331	800053d4	81160793	addi	x15,x12,-2031	 x12:0x00000001 x15=0xfffff812
       73335000	      7332	800053d8	0284da63	bge	x9,x8,8000540c	  x9:0x40004dad  x8:0x22d77080
       73345000	      7333	00000000	00000013	addi	x0,x0,0	  x0:0x00000000
       73355000	      7334	80005408	00000013	addi	x0,x0,0	  x0:0x00000000
       73365000	      7335	8000540c	e7d30393	addi	x7,x6,-387	  x6:0x00000000  x7=0xfffffe7d
       73375000	      7336	80005410	01e293b3	sll	x7,x5,x30	  x5:0x01bbd3c4 x30:0xfffffe2f  x7=0xe9e20000
       73385000	      7337	80005414	00f05463	bge	x0,x15,8000541c	  x0:0x00000000 x15:0xfffff812
       73395000	      7338	00000000	00000013	addi	x0,x0,0	  x0:0x00000000
       73405000	      7339	80005418	00000013	addi	x0,x0,0	  x0:0x00000000
       73415000	      7340	8000541c	051b6863	bltu	x22,x17,8000546c	 x22:0x00000001 x17:0x94d7f3bc
       73425000	      7341	00000000	00000013	addi	x0,x0,0	  x0:0x00000000
       73435000	      7342	80005468	00000013	addi	x0,x0,0	  x0:0x00000000
       73445000	      7343	8000546c	4058d793	srai	x15,x17,0x5	 x17:0x94d7f3bc x15=0xfca6bf9d
       73455000	      7344	80005470	00000013	addi	x0,x0,0	  x0:0x00000000
       73465000	      7345	80005474	411d54b3	sra	x9,x26,x17	 x26:0x00000000 x17:0x94d7f3bc  x9=0x00000000
       73475000	      7346	80005478	00547133	and	x2,x8,x5	  x8:0x22d77080  x5:0x01bbd3c4  x2=0x00935080
       73485000	      7347	8000547c	049b6463	bltu	x22,x9,800054c4	 x22:0x00000001  x9:0x00000000
       73495000	      7348	80005480	40b68eb3	sub	x29,x13,x11	 x13:0x10000000 x11:0x022d7708 x29=0x0dd288f8
       73505000	      7349	80005484	01ff9d13	slli	x26,x31,0x1f	 x31:0xffff8000 x26=0x00000000
       73515000	      7350	80005488	00509393	slli	x7,x1,0x5	  x1:0x80000000  x7=0x00000000
       73525000	      7351	8000548c	0090d293	srli	x5,x1,0x9	  x1:0x80000000  x5=0x00400000
       73535000	      7352	80005490	01f2b933	sltu	x18,x5,x31	  x5:0x00400000 x31:0xffff8000 x18=0x00000001
       73545000	      7353	80005494	dcccfe17	auipc	x28,0xdcccf	 x28=0x5ccd4490
       73555000	      7354	80005498	01a38b33	add	x22,x7,x26	  x7:0x00000000 x26:0x00000000 x22=0x00000000
       73565000	      7355	8000549c	c5432493	slti	x9,x6,-940	  x6:0x00000000  x9=0x00000000
       73575000	      7356	800054a0	6fe36913	ori	x18,x6,1790	  x6:0x00000000 x18=0x000006fe
       73585000	      7357	800054a4	b228b313	sltiu	x6,x17,-1246	 x17:0x94d7f3bc  x6=0x00000001
       73595000	      7358	800054a8	00a799b3	sll	x19,x15,x10	 x15:0xfca6bf9d x10:0x017e6000 x19=0xfca6bf9d
       73605000	      7359	800054ac	00f39a13	slli	x20,x7,0xf	  x7:0x00000000 x20=0x00000000
       73615000	      7360	800054b0	99592393	slti	x7,x18,-1643	 x18:0x000006fe  x7=0x00000000
       73625000	      7361	800054b4	574a2393	slti	x7,x20,1396	 x20:0x00000000  x7=0x00000001
       73635000	      7362	800054b8	00dd97b3	sll	x15,x27,x13	 x27:0x00000800 x13:0x10000000 x15=0x00000800
       73645000	      7363	800054bc	00c21733	sll	x14,x4,x12	  x4:0x22d77080 x12:0x00000001 x14=0x45aee100
       73655000	      7364	800054c0	c799a393	slti	x7,x19,-903	 x19:0xfca6bf9d  x7=0x00000001
       73665000	      7365	800054c4	40cc5c13	srai	x24,x24,0xc	 x24:0x00000000 x24=0x00000000
       73675000	      7366	800054c8	0159a933	slt	x18,x19,x21	 x19:0xfca6bf9d x21:0x4df78ef0 x18=0x00000001
       73685000	      7367	800054cc	013aee33	or	x28,x21,x19	 x21:0x4df78ef0 x19:0xfca6bf9d x28=0xfdf7bffd
       73695000	      7368	800054d0	531d0c13	addi	x24,x26,1329	 x26:0x00000000 x24=0x00000531
       73705000	      7369	800054d4	7c43fc93	andi	x25,x7,1988	  x7:0x00000001 x25=0x00000000
       73715000	      7370	800054d8	0529e663	bltu	x19,x18,80005524	 x19:0xfca6bf9d x18:0x00000001
       73725000	      7371	800054dc	402d0c33	sub	x24,x26,x2	 x26:0x00000000  x2:0x00935080 x24=0xff6caf80
       73735000	      7372	800054e0	fc881a97	auipc	x21,0xfc881	 x21=0x7c8864dc
       73745000	      7373	800054e4	0013bab3	sltu	x21,x7,x1	  x7:0x00000001  x1:0x80000000 x21=0x00000001
       73755000	      7374	800054e8	ed4b8317	auipc	x6,0xed4b8	  x6=0x6d4bd4e4
       73765000	      7375	800054ec	00a57e33	and	x28,x10,x10	 x10:0x017e6000 x10:0x017e6000 x28=0x017e6000
       73775000	      7376	800054f0	00a91e33	sll	x28,x18,x10	 x18:0x00000001 x10:0x017e6000 x28=0x00000001
       73785000	      7377	800054f4	0121c433	xor	x8,x3,x18	  x3:0x00000000 x18:0x00000001  x8=0x00000001
       73795000	      7378	800054f8	bd7c8d93	addi	x27,x25,-1065	 x25:0x00000000 x27=0xfffffbd7
       73805000	      7379	800054fc	03ea1063	bne	x20,x30,8000551c	 x20:0x00000000 x30:0xfffffe2f
       73815000	      7380	00000000	00000013	addi	x0,x0,0	  x0:0x00000000
       73825000	      7381	80005518	00000013	addi	x0,x0,0	  x0:0x00000000
       73835000	      7382	8000551c	ed357693	andi	x13,x10,-301	 x10:0x017e6000 x13=0x017e6000
       73845000	      7383	80005520	03f84a63	blt	x16,x31,80005554	 x16:0x80009fc4 x31:0xffff8000
       73855000	      7384	00000000	00000013	addi	x0,x0,0	  x0:0x00000000
       73865000	      7385	80005550	00000013	addi	x0,x0,0	  x0:0x00000000
       73875000	      7386	80005554	00000013	addi	x0,x0,0	  x0:0x00000000
       73885000	      7387	80005558	02884e63	blt	x16,x8,80005594	 x16:0x80009fc4  x8:0x00000001
       73895000	      7388	00000000	00000013	addi	x0,x0,0	  x0:0x00000000
       73905000	      7389	80005590	00000013	addi	x0,x0,0	  x0:0x00000000
       73915000	      7390	80005594	65874513	xori	x10,x14,1624	 x14:0x45aee100 x10=0x45aee758
       73925000	      7391	80005598	40225213	srai	x4,x4,0x2	  x4:0x22d77080  x4=0x08b5dc20
       73935000	      7392	8000559c	01939793	slli	x15,x7,0x19	  x7:0x00000001 x15=0x02000000
       73945000	      7393	800055a0	41208733	sub	x14,x1,x18	  x1:0x80000000 x18:0x00000001 x14=0x7fffffff
       73955000	      7394	800055a4	00fc3433	sltu	x8,x24,x15	 x24:0xff6caf80 x15:0x02000000  x8=0x00000000
       73965000	      7395	800055a8	00cf1263	bne	x30,x12,800055ac	 x30:0xfffffe2f x12:0x00000001
       73975000	      7396	00000000	00000013	addi	x0,x0,0	  x0:0x00000000
       73985000	      7397	800055a8	00000013	addi	x0,x0,0	  x0:0x00000000
       73995000	      7398	800055ac	0495d263	bge	x11,x9,800055f0	 x11:0x022d7708  x9:0x00000000
       74005000	      7399	00000000	00000013	addi	x0,x0,0	  x0:0x00000000
       74015000	      7400	800055ec	00000013	addi	x0,x0,0	  x0:0x00000000
       74025000	      7401	800055f0	c8dc4693	xori	x13,x24,-883	 x24:0xff6caf80 x13=0x0093530d
       74035000	      7402	800055f4	00da4533	xor	x10,x20,x13	 x20:0x00000000 x13:0x0093530d x10=0x0093530d
       74045000	      7403	800055f8	01b748b3	xor	x17,x14,x27	 x14:0x7fffffff x27:0xfffffbd7 x17=0x80000428
       74055000	      7404	800055fc	0199d263	bge	x19,x25,80005600	 x19:0xfca6bf9d x25:0x00000000
       74065000	      7405	80005600	01f7afb3	slt	x31,x15,x31	 x15:0x02000000 x31:0xffff8000 x31=0x00000000
       74075000	      7406	80005604	0194e633	or	x12,x9,x25	  x9:0x00000000 x25:0x00000000 x12=0x00000000
       74085000	      7407	80005608	058f6863	bltu	x30,x24,80005658	 x30:0xfffffe2f x24:0xff6caf80
       74095000	      7408	8000560c	403ad8b3	sra	x17,x21,x3	 x21:0x00000001  x3:0x00000000 x17=0x00000001
       74105000	      7409	80005610	00aabeb3	sltu	x29,x21,x10	 x21:0x00000001 x10:0x0093530d x29=0x00000001
       74115000	      7410	80005614	01e766b3	or	x13,x14,x30	 x14:0x7fffffff x30:0xfffffe2f x13=0xffffffff
       74125000	      7411	80005618	f8418613	addi	x12,x3,-124	  x3:0x00000000 x12=0xffffff84
       74135000	      7412	8000561c	f4d85217	auipc	x4,0xf4d85	  x4=0x74d8a618
       74145000	      7413	80005620	4107d233	sra	x4,x15,x16	 x15:0x02000000 x16:0x80009fc4  x4=0x00200000
       74155000	      7414	80005624	400bd013	srai	x0,x23,0x0	 x23:0x80009ebc
       74165000	      7415	80005628	8291e913	ori	x18,x3,-2007	  x3:0x00000000 x18=0xfffff829
       74175000	      7416	8000562c	00e73b33	sltu	x22,x14,x14	 x14:0x7fffffff x14:0x7fffffff x22=0x00000000
       74185000	      7417	80005630	d599fe93	andi	x29,x19,-679	 x19:0xfca6bf9d x29=0xfca6bd19
       74195000	      7418	80005634	049cf863	bgeu	x25,x9,80005684	 x25:0x00000000  x9:0x00000000
       74205000	      7419	00000000	00000013	addi	x0,x0,0	  x0:0x00000000
       74215000	      7420	80005680	00000013	addi	x0,x0,0	  x0:0x00000000
       74225000	      7421	80005684	40ea88b3	sub	x17,x21,x14	 x21:0x00000001 x14:0x7fffffff x17=0x80000002
       74235000	      7422	80005688	a2b8a113	slti	x2,x17,-1493	 x17:0x80000002  x2=0x00000001
       74245000	      7423	8000568c	011e5f33	srl	x30,x28,x17	 x28:0x00000001 x17:0x80000002 x30=0x00000000
       74255000	      7424	80005690	007b83b3	add	x7,x23,x7	 x23:0x80009ebc  x7:0x00000001  x7=0x80009ebd
       74265000	      7425	80005694	0053f933	and	x18,x7,x5	  x7:0x80009ebd  x5:0x00400000 x18=0x00000000
       74275000	      7426	80005698	2ff70c93	addi	x25,x14,767	 x14:0x7fffffff x25=0x800002fe
       74285000	      7427	8000569c	01233733	sltu	x14,x6,x18	  x6:0x6d4bd4e4 x18:0x00000000 x14=0x00000000
       74295000	      7428	800056a0	4091d5b3	sra	x11,x3,x9	  x3:0x00000000  x9:0x00000000 x11=0x00000000
       74305000	      7429	800056a4	0072f933	and	x18,x5,x7	  x5:0x00400000  x7:0x80009ebd x18=0x00000000
       74315000	      7430	800056a8	00af1e13	slli	x28,x30,0xa	 x30:0x00000000 x28=0x00000000
       74325000	      7431	800056ac	400d0fb3	sub	x31,x26,x0	 x26:0x00000000  x0:0x00000000 x31=0x00000000
       74335000	      7432	800056b0	005f1e63	bne	x30,x5,800056cc	 x30:0x00000000  x5:0x00400000
       74345000	      7433	00000000	00000013	addi	x0,x0,0	  x0:0x00000000
       74355000	      7434	800056c8	00000013	addi	x0,x0,0	  x0:0x00000000
       74365000	      7435	800056cc	a26c44b7	lui	x9,0xa26c4	  x9=0xa26c4000
       74375000	      7436	800056d0	4b048213	addi	x4,x9,1200	  x9:0xa26c4000  x4=0xa26c44b0
       74385000	      7437	800056d4	41920b33	sub	x22,x4,x25	  x4:0xa26c44b0 x25:0x800002fe x22=0x226c41b2
       74395000	      7438	800056d8	04064663	blt	x12,x0,80005724	 x12:0xffffff84  x0:0x00000000
       74405000	      7439	00000000	00000013	addi	x0,x0,0	  x0:0x00000000
       74415000	      7440	80005720	00000013	addi	x0,x0,0	  x0:0x00000000
       74425000	      7441	80005724	01d137b3	sltu	x15,x2,x29	  x2:0x00000001 x29:0xfca6bd19 x15=0x00000001
       74435000	      7442	80005728	017b1db3	sll	x27,x22,x23	 x22:0x226c41b2 x23:0x80009ebc x27=0x20000000
       74445000	      7443	8000572c	0342a317	auipc	x6,0x342a	  x6=0x8342f728
       74455000	      7444	80005730	f336bf93	sltiu	x31,x13,-205	 x13:0xffffffff x31=0x00000000
       74465000	      7445	80005734	00000013	addi	x0,x0,0	  x0:0x00000000
       74475000	      7446	80005738	402b58b3	sra	x17,x22,x2	 x22:0x226c41b2  x2:0x00000001 x17=0x113620d9
       74485000	      7447	8000573c	00b16c33	or	x24,x2,x11	  x2:0x00000001 x11:0x00000000 x24=0x00000001
       74495000	      7448	80005740	050d1863	bne	x26,x16,80005790	 x26:0x00000000 x16:0x80009fc4
       74505000	      7449	00000000	00000013	addi	x0,x0,0	  x0:0x00000000
       74515000	      7450	8000578c	00000013	addi	x0,x0,0	  x0:0x00000000
       74525000	      7451	80005790	80844593	xori	x11,x8,-2040	  x8:0x00000000 x11=0xfffff808
       74535000	      7452	80005794	d307a293	slti	x5,x15,-720	 x15:0x00000001  x5=0x00000000
       74545000	      7453	80005798	01cb5413	srli	x8,x22,0x1c	 x22:0x226c41b2  x8=0x00000002
       74555000	      7454	8000579c	e139f313	andi	x6,x19,-493	 x19:0xfca6bf9d  x6=0xfca6be11
       74565000	      7455	800057a0	0197bb33	sltu	x22,x15,x25	 x15:0x00000001 x25:0x800002fe x22=0x00000001
       74575000	      7456	800057a4	810e3417	auipc	x8,0x810e3	  x8=0x010e87a0
       74585000	      7457	800057a8	b1797d97	auipc	x27,0xb1797	 x27=0x3179c7a4
       74595000	      7458	800057ac	01450a63	beq	x10,x20,800057c0	 x10:0x0093530d x20:0x00000000
       74605000	      7459	800057b0	7a86eb17	auipc	x22,0x7a86e	 x22=0xfa8737ac
       74615000	      7460	800057b4	00000013	addi	x0,x0,0	  x0:0x00000000
       74625000	      7461	800057b8	01595993	srli	x19,x18,0x15	 x18:0x00000000 x19=0x00000000
       74635000	      7462	800057bc	00ec6cb3	or	x25,x24,x14	 x24:0x00000001 x14:0x00000000 x25=0x00000001
       74645000	      7463	800057c0	01295d13	srli	x26,x18,0x12	 x18:0x00000000 x26=0x00000000
       74655000	      7464	800057c4	c0777313	andi	x6,x14,-1017	 x14:0x00000000  x6=0x00000000
       74665000	      7465	800057c8	0a393c93	sltiu	x25,x18,163	 x18:0x00000000 x25=0x00000001
       74675000	      7466	800057cc	012128b3	slt	x17,x2,x18	  x2:0x00000001 x18:0x00000000 x17=0x00000000
       74685000	      7467	800057d0	03541463	bne	x8,x21,800057f8	  x8:0x010e87a0 x21:0x00000001
       74695000	      7468	00000000	00000013	addi	x0,x0,0	  x0:0x00000000
       74705000	      7469	800057f4	00000013	addi	x0,x0,0	  x0:0x00000000
       74715000	      7470	800057f8	afd6a793	slti	x15,x13,-1283	 x13:0xffffffff x15=0x00000000
       74725000	      7471	800057fc	1aa63217	auipc	x4,0x1aa63	  x4=0x9aa687f8
       74735000	      7472	80005800	b69da197	auipc	x3,0xb69da	  x3=0x369df7fc
       74745000	      7473	80005804	76e2f697	auipc	x13,0x76e2f	 x13=0xf6e34800
       74755000	      7474	80005808	008eb333	sltu	x6,x29,x8	 x29:0xfca6bd19  x8:0x010e87a0  x6=0x00000000
       74765000	      7475	8000580c	03939e63	bne	x7,x25,80005848	  x7:0x80009ebd x25:0x00000001
       74775000	      7476	00000000	00000013	addi	x0,x0,0	  x0:0x00000000
       74785000	      7477	80005844	00000013	addi	x0,x0,0	  x0:0x00000000
       74795000	      7478	80005848	c39d4f93	xori	x31,x26,-967	 x26:0x00000000 x31=0xfffffc39
       74805000	      7479	8000584c	00000013	addi	x0,x0,0	  x0:0x00000000
       74815000	      7480	80005850	00e4dcb3	srl	x25,x9,x14	  x9:0xa26c4000 x14:0x00000000 x25=0xa26c4000
       74825000	      7481	80005854	41dd0933	sub	x18,x26,x29	 x26:0x00000000 x29:0xfca6bd19 x18=0x035942e7
       74835000	      7482	80005858	5f252e93	slti	x29,x10,1522	 x10:0x0093530d x29=0x00000000
       74845000	      7483	8000585c	02388c63	beq	x17,x3,80005894	 x17:0x00000000  x3:0x369df7fc
       74855000	      7484	80005860	01538463	beq	x7,x21,80005868	  x7:0x80009ebd x21:0x00000001
       74865000	      7485	80005864	00a0d463	bge	x1,x10,8000586c	  x1:0x80000000 x10:0x0093530d
       74875000	      7486	80005868	e4227d93	andi	x27,x4,-446	  x4:0x9aa687f8 x27=0x9aa68640
       74885000	      7487	8000586c	60743393	sltiu	x7,x8,1543	  x8:0x010e87a0  x7=0x00000000
       74895000	      7488	80005870	04855463	bge	x10,x8,800058b8	 x10:0x0093530d  x8:0x010e87a0
       74905000	      7489	80005874	018f3333	sltu	x6,x30,x24	 x30:0x00000000 x24:0x00000001  x6=0x00000001
       74915000	      7490	80005878	6fdc8d13	addi	x26,x25,1789	 x25:0xa26c4000 x26=0xa26c46fd
       74925000	      7491	8000587c	000ef333	and	x6,x29,x0	 x29:0x00000000  x0:0x00000000  x6=0x00000000
       74935000	      7492	80005880	99898393	addi	x7,x19,-1640	 x19:0x00000000  x7=0xfffff998
       74945000	      7493	80005884	01293db3	sltu	x27,x18,x18	 x18:0x035942e7 x18:0x035942e7 x27=0x00000000
       74955000	      7494	80005888	01973ab3	sltu	x21,x14,x25	 x14:0x00000000 x25:0xa26c4000 x21=0x00000001
       74965000	      7495	8000588c	02054663	blt	x10,x0,800058b8	 x10:0x0093530d  x0:0x00000000
       74975000	      7496	80005890	00648c33	add	x24,x9,x6	  x9:0xa26c4000  x6:0x00000000 x24=0xa26c4000
       74985000	      7497	80005894	01049263	bne	x9,x16,80005898	  x9:0xa26c4000 x16:0x80009fc4
       74995000	      7498	00000000	00000013	addi	x0,x0,0	  x0:0x00000000
       75005000	      7499	80005894	00000013	addi	x0,x0,0	  x0:0x00000000
       75015000	      7500	80005898	0197d733	srl	x14,x15,x25	 x15:0x00000000 x25:0xa26c4000 x14=0x00000000
       75025000	      7501	8000589c	003d1cb3	sll	x25,x26,x3	 x26:0xa26c46fd  x3:0x369df7fc x25=0xd0000000
       75035000	      7502	800058a0	be878113	addi	x2,x15,-1048	 x15:0x00000000  x2=0xfffffbe8
       75045000	      7503	800058a4	037d6863	bltu	x26,x23,800058d4	 x26:0xa26c46fd x23:0x80009ebc
       75055000	      7504	800058a8	03f86463	bltu	x16,x31,800058d0	 x16:0x80009fc4 x31:0xfffffc39
       75065000	      7505	00000000	00000013	addi	x0,x0,0	  x0:0x00000000
       75075000	      7506	800058cc	00000013	addi	x0,x0,0	  x0:0x00000000
       75085000	      7507	800058d0	019829b3	slt	x19,x16,x25	 x16:0x80009fc4 x25:0xd0000000 x19=0x00000001
       75095000	      7508	800058d4	39bcac13	slti	x24,x25,923	 x25:0xd0000000 x24=0x00000001
       75105000	      7509	800058d8	7c756eb7	lui	x29,0x7c756	 x29=0x7c756000
       75115000	      7510	800058dc	04e9e463	bltu	x19,x14,80005924	 x19:0x00000001 x14:0x00000000
       75125000	      7511	800058e0	a8b0e393	ori	x7,x1,-1397	  x1:0x80000000  x7=0xfffffa8b
       75135000	      7512	800058e4	2f342713	slti	x14,x8,755	  x8:0x010e87a0 x14=0x00000000
       75145000	      7513	800058e8	01f60433	add	x8,x12,x31	 x12:0xffffff84 x31:0xfffffc39  x8=0xfffffbbd
       75155000	      7514	800058ec	7e0ebb13	sltiu	x22,x29,2016	 x29:0x7c756000 x22=0x00000000
       75165000	      7515	800058f0	1a74ad37	lui	x26,0x1a74a	 x26=0x1a74a000
       75175000	      7516	800058f4	019fdd33	srl	x26,x31,x25	 x31:0xfffffc39 x25:0xd0000000 x26=0xfffffc39
       75185000	      7517	800058f8	21ceb893	sltiu	x17,x29,540	 x29:0x7c756000 x17=0x00000000
       75195000	      7518	800058fc	004b7933	and	x18,x22,x4	 x22:0x00000000  x4:0x9aa687f8 x18=0x00000000
       75205000	      7519	80005900	036bca63	blt	x23,x22,80005934	 x23:0x80009ebc x22:0x00000000
       75215000	      7520	00000000	00000013	addi	x0,x0,0	  x0:0x00000000
       75225000	      7521	80005930	00000013	addi	x0,x0,0	  x0:0x00000000
       75235000	      7522	80005934	00448733	add	x14,x9,x4	  x9:0xa26c4000  x4:0x9aa687f8 x14=0x3d12c7f8
       75245000	      7523	80005938	00ecfa33	and	x20,x25,x14	 x25:0xd0000000 x14:0x3d12c7f8 x20=0x10000000
       75255000	      7524	8000593c	01ef4463	blt	x30,x30,80005944	 x30:0x00000000 x30:0x00000000
       75265000	      7525	80005940	009e5933	srl	x18,x28,x9	 x28:0x00000000  x9:0xa26c4000 x18=0x00000000
       75275000	      7526	80005944	7d0fe893	ori	x17,x31,2000	 x31:0xfffffc39 x17=0xfffffff9
       75285000	      7527	80005948	ef23c5b7	lui	x11,0xef23c	 x11=0xef23c000
       75295000	      7528	8000594c	0019aa33	slt	x20,x19,x1	 x19:0x00000001  x1:0x80000000 x20=0x00000000
       75305000	      7529	80005950	69914313	xori	x6,x2,1689	  x2:0xfffffbe8  x6=0xfffffd71
       75315000	      7530	80005954	01848a93	addi	x21,x9,24	  x9:0xa26c4000 x21=0xa26c4018
       75325000	      7531	80005958	00000013	addi	x0,x0,0	  x0:0x00000000
       75335000	      7532	8000595c	526bba93	sltiu	x21,x23,1318	 x23:0x80009ebc x21=0x00000000
       75345000	      7533	80005960	bf3a3b37	lui	x22,0xbf3a3	 x22=0xbf3a3000
       75355000	      7534	80005964	004f4eb3	xor	x29,x30,x4	 x30:0x00000000  x4:0x9aa687f8 x29=0x9aa687f8
       75365000	      7535	80005968	577f8d93	addi	x27,x31,1399	 x31:0xfffffc39 x27=0x000001b0
       75375000	      7536	8000596c	010eafb3	slt	x31,x29,x16	 x29:0x9aa687f8 x16:0x80009fc4 x31=0x00000000
       75385000	      7537	80005970	03c5fe63	bgeu	x11,x28,800059ac	 x11:0xef23c000 x28:0x00000000
       75395000	      7538	00000000	00000013	addi	x0,x0,0	  x0:0x00000000
       75405000	      7539	800059a8	00000013	addi	x0,x0,0	  x0:0x00000000
       75415000	      7540	800059ac	781044b7	lui	x9,0x78104	  x9=0x78104000
       75425000	      7541	800059b0	005a9463	bne	x21,x5,800059b8	 x21:0x00000000  x5:0x00000000
       75435000	      7542	800059b4	00be15b3	sll	x11,x28,x11	 x28:0x00000000 x11:0xef23c000 x11=0x00000000
       75445000	      7543	800059b8	018474b3	and	x9,x8,x24	  x8:0xfffffbbd x24:0x00000001  x9=0x00000001
       75455000	      7544	800059bc	40f75513	srai	x10,x14,0xf	 x14:0x3d12c7f8 x10=0x00007a25
       75465000	      7545	800059c0	010288b3	add	x17,x5,x16	  x5:0x00000000 x16:0x80009fc4 x17=0x80009fc4
       75475000	      7546	800059c4	03fec463	blt	x29,x31,800059ec	 x29:0x9aa687f8 x31:0x00000000
       75485000	      7547	00000000	00000013	addi	x0,x0,0	  x0:0x00000000
       75495000	      7548	800059e8	00000013	addi	x0,x0,0	  x0:0x00000000
       75505000	      7549	800059ec	04d14863	blt	x2,x13,80005a3c	  x2:0xfffffbe8 x13:0xf6e34800
       75515000	      7550	800059f0	73c97213	andi	x4,x18,1852	 x18:0x00000000  x4=0x00000000
       75525000	      7551	800059f4	a12ff993	andi	x19,x31,-1518	 x31:0x00000000 x19=0x00000000
       75535000	      7552	800059f8	01afb5b3	sltu	x11,x31,x26	 x31:0x00000000 x26:0xfffffc39 x11=0x00000001
       75545000	      7553	800059fc	00a5a7b3	slt	x15,x11,x10	 x11:0x00000001 x10:0x00007a25 x15=0x00000001
       75555000	      7554	80005a00	b3fe4893	xori	x17,x28,-1217	 x28:0x00000000 x17=0xfffffb3f
       75565000	      7555	80005a04	833cb693	sltiu	x13,x25,-1997	 x25:0xd0000000 x13=0x00000001
       75575000	      7556	80005a08	01649113	slli	x2,x9,0x16	  x9:0x00000001  x2=0x00400000
       75585000	      7557	80005a0c	03abd663	bge	x23,x26,80005a38	 x23:0x80009ebc x26:0xfffffc39
       75595000	      7558	80005a10	01861213	slli	x4,x12,0x18	 x12:0xffffff84  x4=0x84000000
       75605000	      7559	80005a14	01eaee63	bltu	x21,x30,80005a30	 x21:0x00000000 x30:0x00000000
       75615000	      7560	80005a18	0018dc63	bge	x17,x1,80005a30	 x17:0xfffffb3f  x1:0x80000000
       75625000	      7561	00000000	00000013	addi	x0,x0,0	  x0:0x00000000
       75635000	      7562	80005a2c	00000013	addi	x0,x0,0	  x0:0x00000000
       75645000	      7563	80005a30	0428e863	bltu	x17,x2,80005a80	 x17:0xfffffb3f  x2:0x00400000
       75655000	      7564	80005a34	4003d213	srai	x4,x7,0x0	  x7:0xfffffa8b  x4=0xfffffa8b
       75665000	      7565	80005a38	01f99f93	slli	x31,x19,0x1f	 x19:0x00000000 x31=0x00000000
       75675000	      7566	80005a3c	000da1b3	slt	x3,x27,x0	 x27:0x000001b0  x0:0x00000000  x3=0x00000000
       75685000	      7567	80005a40	02f7f463	bgeu	x15,x15,80005a68	 x15:0x00000001 x15:0x00000001
       75695000	      7568	00000000	00000013	addi	x0,x0,0	  x0:0x00000000
       75705000	      7569	80005a64	00000013	addi	x0,x0,0	  x0:0x00000000
       75715000	      7570	80005a68	1542c293	xori	x5,x5,340	  x5:0x00000000  x5=0x00000154
       75725000	      7571	80005a6c	01e41013	slli	x0,x8,0x1e	  x8:0xfffffbbd
       75735000	      7572	80005a70	002e2c33	slt	x24,x28,x2	 x28:0x00000000  x2:0x00400000 x24=0x00000001
       75745000	      7573	80005a74	00279893	slli	x17,x15,0x2	 x15:0x00000001 x17=0x00000004
       75755000	      7574	80005a78	0fd0eb13	ori	x22,x1,253	  x1:0x80000000 x22=0x800000fd
       75765000	      7575	80005a7c	40f30733	sub	x14,x6,x15	  x6:0xfffffd71 x15:0x00000001 x14=0xfffffd70
       75775000	      7576	80005a80	01c9b4b3	sltu	x9,x19,x28	 x19:0x00000000 x28:0x00000000  x9=0x00000000
       75785000	      7577	80005a84	00df2933	slt	x18,x30,x13	 x30:0x00000000 x13:0x00000001 x18=0x00000001
       75795000	      7578	80005a88	0064d393	srli	x7,x9,0x6	  x9:0x00000000  x7=0x00000000
       75805000	      7579	80005a8c	013d4263	blt	x26,x19,80005a90	 x26:0xfffffc39 x19:0x00000000
       75815000	      7580	00000000	00000013	addi	x0,x0,0	  x0:0x00000000
       75825000	      7581	80005a8c	00000013	addi	x0,x0,0	  x0:0x00000000
       75835000	      7582	80005a90	400fdf13	srai	x30,x31,0x0	 x31:0x00000000 x30=0x00000000
       75845000	      7583	80005a94	00000013	addi	x0,x0,0	  x0:0x00000000
       75855000	      7584	80005a98	6c2507b7	lui	x15,0x6c250	 x15=0x6c250000
       75865000	      7585	80005a9c	4ca5ad93	slti	x27,x11,1226	 x11:0x00000001 x27=0x00000001
       75875000	      7586	80005aa0	019a6663	bltu	x20,x25,80005aac	 x20:0x00000000 x25:0xd0000000
       75885000	      7587	00000000	00000013	addi	x0,x0,0	  x0:0x00000000
       75895000	      7588	80005aa8	00000013	addi	x0,x0,0	  x0:0x00000000
       75905000	      7589	80005aac	0179ea33	or	x20,x19,x23	 x19:0x00000000 x23:0x80009ebc x20=0x80009ebc
       75915000	      7590	80005ab0	b0f9f313	andi	x6,x19,-1265	 x19:0x00000000  x6=0x00000000
       75925000	      7591	80005ab4	01771e33	sll	x28,x14,x23	 x14:0xfffffd70 x23:0x80009ebc x28=0x00000000
       75935000	      7592	80005ab8	010c7e63	bgeu	x24,x16,80005ad4	 x24:0x00000001 x16:0x80009fc4
       75945000	      7593	80005abc	cf7dec13	ori	x24,x27,-777	 x27:0x00000001 x24=0xfffffcf7
       75955000	      7594	80005ac0	00843e33	sltu	x28,x8,x8	  x8:0xfffffbbd  x8:0xfffffbbd x28=0x00000000
       75965000	      7595	80005ac4	007b1d93	slli	x27,x22,0x7	 x22:0x800000fd x27=0x00007e80
       75975000	      7596	80005ac8	019ca533	slt	x10,x25,x25	 x25:0xd0000000 x25:0xd0000000 x10=0x00000000
       75985000	      7597	80005acc	01bac033	xor	x0,x21,x27	 x21:0x00000000 x27:0x00007e80
       75995000	      7598	80005ad0	00000013	addi	x0,x0,0	  x0:0x00000000
       76005000	      7599	80005ad4	21a6fa13	andi	x20,x13,538	 x13:0x00000001 x20=0x00000000
       76015000	      7600	80005ad8	03e41c63	bne	x8,x30,80005b10	  x8:0xfffffbbd x30:0x00000000
       76025000	      7601	00000000	00000013	addi	x0,x0,0	  x0:0x00000000
       76035000	      7602	80005b0c	00000013	addi	x0,x0,0	  x0:0x00000000
       76045000	      7603	80005b10	013d4cb3	xor	x25,x26,x19	 x26:0xfffffc39 x19:0x00000000 x25=0xfffffc39
       76055000	      7604	80005b14	008f91b3	sll	x3,x31,x8	 x31:0x00000000  x8:0xfffffbbd  x3=0x00000000
       76065000	      7605	80005b18	40a17913	andi	x18,x2,1034	  x2:0x00400000 x18=0x00000000
       76075000	      7606	80005b1c	00a349b3	xor	x19,x6,x10	  x6:0x00000000 x10:0x00000000 x19=0x00000000
       76085000	      7607	80005b20	41a3d2b3	sra	x5,x7,x26	  x7:0x00000000 x26:0xfffffc39  x5=0x00000000
       76095000	      7608	80005b24	14fb2f13	slti	x30,x22,335	 x22:0x800000fd x30=0x00000001
       76105000	      7609	80005b28	0142fd33	and	x26,x5,x20	  x5:0x00000000 x20:0x00000000 x26=0x00000000
       76115000	      7610	80005b2c	043ad463	bge	x21,x3,80005b74	 x21:0x00000000  x3:0x00000000
       76125000	      7611	00000000	00000013	addi	x0,x0,0	  x0:0x00000000
       76135000	      7612	80005b70	00000013	addi	x0,x0,0	  x0:0x00000000
       76145000	      7613	80005b74	00c9e7b3	or	x15,x19,x12	 x19:0x00000000 x12:0xffffff84 x15=0xffffff84
       76155000	      7614	80005b78	01af36b3	sltu	x13,x30,x26	 x30:0x00000001 x26:0x00000000 x13=0x00000000
       76165000	      7615	80005b7c	95492613	slti	x12,x18,-1708	 x18:0x00000000 x12=0x00000000
       76175000	      7616	80005b80	004f11b3	sll	x3,x30,x4	 x30:0x00000001  x4:0xfffffa8b  x3=0x00000800
       76185000	      7617	80005b84	00000013	addi	x0,x0,0	  x0:0x00000000
       76195000	      7618	80005b88	8cf03d93	sltiu	x27,x0,-1841	  x0:0x00000000 x27=0x00000001
       76205000	      7619	80005b8c	fac3c113	xori	x2,x7,-84	  x7:0x00000000  x2=0xffffffac
       76215000	      7620	80005b90	00cf01b3	add	x3,x30,x12	 x30:0x00000001 x12:0x00000000  x3=0x00000001
       76225000	      7621	80005b94	003d1e13	slli	x28,x26,0x3	 x26:0x00000000 x28=0x00000000
       76235000	      7622	80005b98	02e97063	bgeu	x18,x14,80005bb8	 x18:0x00000000 x14:0xfffffd70
       76245000	      7623	80005b9c	03e0f463	bgeu	x1,x30,80005bc4	  x1:0x80000000 x30:0x00000001
       76255000	      7624	00000000	00000013	addi	x0,x0,0	  x0:0x00000000
       76265000	      7625	80005bc0	00000013	addi	x0,x0,0	  x0:0x00000000
       76275000	      7626	80005bc4	db2cce13	xori	x28,x25,-590	 x25:0xfffffc39 x28=0x0000018b
       76285000	      7627	80005bc8	28fc8f93	addi	x31,x25,655	 x25:0xfffffc39 x31=0xfffffec8
       76295000	      7628	80005bcc	01c11893	slli	x17,x2,0x1c	  x2:0xffffffac x17=0xc0000000
       76305000	      7629	80005bd0	c0cda893	slti	x17,x27,-1012	 x27:0x00000001 x17=0x00000000
       76315000	      7630	80005bd4	018bda13	srli	x20,x23,0x18	 x23:0x80009ebc x20=0x00000080
       76325000	      7631	80005bd8	00000013	addi	x0,x0,0	  x0:0x00000000
       76335000	      7632	80005bdc	0173e5b3	or	x11,x7,x23	  x7:0x00000000 x23:0x80009ebc x11=0x80009ebc
       76345000	      7633	80005be0	00000013	addi	x0,x0,0	  x0:0x00000000
       76355000	      7634	80005be4	6284c697	auipc	x13,0x6284c	 x13=0xe2851be0
       76365000	      7635	80005be8	2fd4e313	ori	x6,x9,765	  x9:0x00000000  x6=0x000002fd
       76375000	      7636	80005bec	f7440113	addi	x2,x8,-140	  x8:0xfffffbbd  x2=0xfffffb31
       76385000	      7637	80005bf0	a9cc0d93	addi	x27,x24,-1380	 x24:0xfffffcf7 x27=0xfffff793
       76395000	      7638	80005bf4	d3f6f513	andi	x10,x13,-705	 x13:0xe2851be0 x10=0xe2851920
       76405000	      7639	80005bf8	402d8633	sub	x12,x27,x2	 x27:0xfffff793  x2:0xfffffb31 x12=0xfffffc62
       76415000	      7640	80005bfc	002e85b3	add	x11,x29,x2	 x29:0x9aa687f8  x2:0xfffffb31 x11=0x9aa68329
       76425000	      7641	80005c00	00003417	auipc	x8,0x3	  x8=0x80008bfc
       76435000	      7642	80005c04	ee640413	addi	x8,x8,-282	  x8:0x80008bfc  x8=0x80008ae2
       76445000	      7643	80005c08	fb445003	lhu	x0,-76(x8)	  x8:0x80008ae2 PA:0x80008a96
       76455000	      7644	80005c0c	001c9d13	slli	x26,x25,0x1	 x25:0xfffffc39 x26=0xfffff872
       76465000	      7645	80005c10	0a042f23	sw	x0,190(x8)	  x8:0x80008ae2  x0:0x00000000 PA:0x80008ba0
       76475000	      7646	80005c14	9fd3cf13	xori	x30,x7,-1539	  x7:0x00000000 x30=0xfffff9fd
       76485000	      7647	80005c18	05842323	sw	x24,70(x8)	  x8:0x80008ae2 x24:0xfffffcf7 PA:0x80008b28
       76495000	      7648	80005c1c	01440183	lb	x3,20(x8)	  x8:0x80008ae2  x3=0xffffffdd PA:0x80008af6
       76505000	      7649	80005c20	c0122193	slti	x3,x4,-1023	  x4:0xfffffa8b  x3=0x00000001
       76515000	      7650	80005c24	01d15333	srl	x6,x2,x29	  x2:0xfffffb31 x29:0x9aa687f8  x6=0x000000ff
       76525000	      7651	80005c28	766ca593	slti	x11,x25,1894	 x25:0xfffffc39 x11=0x00000001
       76535000	      7652	80005c2c	41c3d693	srai	x13,x7,0x1c	  x7:0x00000000 x13=0x00000000
       76545000	      7653	80005c30	04a40a03	lb	x20,74(x8)	  x8:0x80008ae2 x20=0x00000017 PA:0x80008b2c
       76555000	      7654	80005c34	c3b65117	auipc	x2,0xc3b65	  x2=0x43b6ac30
       76565000	      7655	80005c38	048403a3	sb	x8,71(x8)	  x8:0x80008ae2  x8:0x80008ae2 PA:0x80008b29
       76575000	      7656	80005c3c	fe942723	sw	x9,-18(x8)	  x8:0x80008ae2  x9:0x00000000 PA:0x80008ad0
       76585000	      7657	80005c40	00000013	addi	x0,x0,0	  x0:0x00000000
       76595000	      7658	80005c44	fdc45f83	lhu	x31,-36(x8)	  x8:0x80008ae2 x31=0x0000a4a5 PA:0x80008abe
       76605000	      7659	80005c48	51b50793	addi	x15,x10,1307	 x10:0xe2851920 x15=0xe2851e3b
       76615000	      7660	80005c4c	0f042923	sw	x16,242(x8)	  x8:0x80008ae2 x16:0x80009fc4 PA:0x80008bd4
       76625000	      7661	80005c50	ba5da013	slti	x0,x27,-1115	 x27:0xfffff793
       76635000	      7662	80005c54	f6641b03	lh	x22,-154(x8)	  x8:0x80008ae2 x22=0x00003233 PA:0x80008a48
       76645000	      7663	80005c58	00000013	addi	x0,x0,0	  x0:0x00000000
       76655000	      7664	80005c5c	fae40b23	sb	x14,-74(x8)	  x8:0x80008ae2 x14:0xfffffd70 PA:0x80008a98
       76665000	      7665	80005c60	04e45283	lhu	x5,78(x8)	  x8:0x80008ae2  x5=0x00001a1b PA:0x80008b30
       76675000	      7666	80005c64	d3747c97	auipc	x25,0xd3747	 x25=0x5374cc60
       76685000	      7667	80005c68	01e35993	srli	x19,x6,0x1e	  x6:0x000000ff x19=0x00000000
       76695000	      7668	80005c6c	f1441503	lh	x10,-236(x8)	  x8:0x80008ae2 x10=0xffffdcdd PA:0x800089f6
       76705000	      7669	80005c70	0047efb3	or	x31,x15,x4	 x15:0xe2851e3b  x4:0xfffffa8b x31=0xfffffebb
       76715000	      7670	80005c74	00eb53b3	srl	x7,x22,x14	 x22:0x00003233 x14:0xfffffd70  x7=0x00000000
       76725000	      7671	80005c78	88f6ba17	auipc	x20,0x88f6b	 x20=0x08f70c74
       76735000	      7672	80005c7c	ffc40703	lb	x14,-4(x8)	  x8:0x80008ae2 x14=0xffffffc5 PA:0x80008ade
       76745000	      7673	80005c80	fb740623	sb	x23,-84(x8)	  x8:0x80008ae2 x23:0x80009ebc PA:0x80008a8e
       76755000	      7674	80005c84	41ea8933	sub	x18,x21,x30	 x21:0x00000000 x30:0xfffff9fd x18=0x00000603
       76765000	      7675	80005c88	0dc40a23	sb	x28,212(x8)	  x8:0x80008ae2 x28:0x0000018b PA:0x80008bb6
       76775000	      7676	80005c8c	40705293	srai	x5,x0,0x7	  x0:0x00000000  x5=0x00000000
       76785000	      7677	80005c90	9c0f6a93	ori	x21,x30,-1600	 x30:0xfffff9fd x21=0xfffff9fd
       76795000	      7678	80005c94	faa407a3	sb	x10,-81(x8)	  x8:0x80008ae2 x10:0xffffdcdd PA:0x80008a91
       76805000	      7679	80005c98	414353b3	sra	x7,x6,x20	  x6:0x000000ff x20:0x08f70c74  x7=0x00000000
       76815000	      7680	80005c9c	fee42723	sw	x14,-18(x8)	  x8:0x80008ae2 x14:0xffffffc5 PA:0x80008ad0
       76825000	      7681	80005ca0	fbe42723	sw	x30,-82(x8)	  x8:0x80008ae2 x30:0xfffff9fd PA:0x80008a90
       76835000	      7682	80005ca4	09f40ba3	sb	x31,151(x8)	  x8:0x80008ae2 x31:0xfffffebb PA:0x80008b79
       76845000	      7683	80005ca8	406adb13	srai	x22,x21,0x6	 x21:0xfffff9fd x22=0xffffffe7
       76855000	      7684	80005cac	01e708b3	add	x17,x14,x30	 x14:0xffffffc5 x30:0xfffff9fd x17=0xfffff9c2
       76865000	      7685	80005cb0	40de86b3	sub	x13,x29,x13	 x29:0x9aa687f8 x13:0x00000000 x13=0x9aa687f8
       76875000	      7686	80005cb4	07a41883	lh	x17,122(x8)	  x8:0x80008ae2 x17=0x00004647 PA:0x80008b5c
       76885000	      7687	80005cb8	05240923	sb	x18,82(x8)	  x8:0x80008ae2 x18:0x00000603 PA:0x80008b34
       76895000	      7688	80005cbc	f488ae93	slti	x29,x17,-184	 x17:0x00004647 x29=0x00000000
       76905000	      7689	80005cc0	e1eece93	xori	x29,x29,-482	 x29:0x00000000 x29=0xfffffe1e
       76915000	      7690	80005cc4	0db40583	lb	x11,219(x8)	  x8:0x80008ae2 x11=0xffffffa6 PA:0x80008bbd
       76925000	      7691	80005cc8	ff1404a3	sb	x17,-23(x8)	  x8:0x80008ae2 x17:0x00004647 PA:0x80008acb
       76935000	      7692	80005ccc	15d37a93	andi	x21,x6,349	  x6:0x000000ff x21=0x0000005d
       76945000	      7693	80005cd0	f4645d03	lhu	x26,-186(x8)	  x8:0x80008ae2 x26=0x00001213 PA:0x80008a28
       76955000	      7694	80005cd4	143ecdb7	lui	x27,0x143ec	 x27=0x143ec000
       76965000	      7695	80005cd8	01e25013	srli	x0,x4,0x1e	  x4:0xfffffa8b
       76975000	      7696	80005cdc	0c842123	sw	x8,194(x8)	  x8:0x80008ae2  x8:0x80008ae2 PA:0x80008ba4
       76985000	      7697	80005ce0	00245783	lhu	x15,2(x8)	  x8:0x80008ae2 x15=0x0000cecf PA:0x80008ae4
       76995000	      7698	80005ce4	07040d03	lb	x26,112(x8)	  x8:0x80008ae2 x26=0x00000039 PA:0x80008b52
       77005000	      7699	80005ce8	93869a37	lui	x20,0x93869	 x20=0x93869000
       77015000	      7700	80005cec	00b40c03	lb	x24,11(x8)	  x8:0x80008ae2 x24=0xffffffd6 PA:0x80008aed
       77025000	      7701	80005cf0	f649a713	slti	x14,x19,-156	 x19:0x00000000 x14=0x00000000
       77035000	      7702	80005cf4	ae0f0993	addi	x19,x30,-1312	 x30:0xfffff9fd x19=0xfffff4dd
       77045000	      7703	80005cf8	6826ba13	sltiu	x20,x13,1666	 x13:0x9aa687f8 x20=0x00000000
       77055000	      7704	80005cfc	e793f8b7	lui	x17,0xe793f	 x17=0xe793f000
       77065000	      7705	80005d00	be6584b7	lui	x9,0xbe658	  x9=0xbe658000
       77075000	      7706	80005d04	01c6f633	and	x12,x13,x28	 x13:0x9aa687f8 x28:0x0000018b x12=0x00000188
       77085000	      7707	80005d08	3c9e2013	slti	x0,x28,969	 x28:0x0000018b
       77095000	      7708	80005d0c	02767063	bgeu	x12,x7,80005d2c	 x12:0x00000188  x7:0x00000000
       77105000	      7709	00000000	00000013	addi	x0,x0,0	  x0:0x00000000
       77115000	      7710	80005d28	00000013	addi	x0,x0,0	  x0:0x00000000
       77125000	      7711	80005d2c	0193c633	xor	x12,x7,x25	  x7:0x00000000 x25:0x5374cc60 x12=0x5374cc60
       77135000	      7712	80005d30	01adc1b3	xor	x3,x27,x26	 x27:0x143ec000 x26:0x00000039  x3=0x143ec039
       77145000	      7713	80005d34	01490463	beq	x18,x20,80005d3c	 x18:0x00000603 x20:0x00000000
       77155000	      7714	80005d38	01a0de63	bge	x1,x26,80005d54	  x1:0x80000000 x26:0x00000039
       77165000	      7715	80005d3c	05d1e863	bltu	x3,x29,80005d8c	  x3:0x143ec039 x29:0xfffffe1e
       77175000	      7716	00000000	00000013	addi	x0,x0,0	  x0:0x00000000
       77185000	      7717	80005d88	00000013	addi	x0,x0,0	  x0:0x00000000
       77195000	      7718	80005d8c	01f25d93	srli	x27,x4,0x1f	  x4:0xfffffa8b x27=0x00000001
       77205000	      7719	80005d90	41828033	sub	x0,x5,x24	  x5:0x00000000 x24:0xffffffd6
       77215000	      7720	80005d94	40980b33	sub	x22,x16,x9	 x16:0x80009fc4  x9:0xbe658000 x22=0xc19b1fc4
       77225000	      7721	80005d98	a97aba93	sltiu	x21,x21,-1385	 x21:0x0000005d x21=0x00000001
       77235000	      7722	80005d9c	00482ab3	slt	x21,x16,x4	 x16:0x80009fc4  x4:0xfffffa8b x21=0x00000001
       77245000	      7723	80005da0	01504f33	xor	x30,x0,x21	  x0:0x00000000 x21:0x00000001 x30=0x00000001
       77255000	      7724	80005da4	0183cc63	blt	x7,x24,80005dbc	  x7:0x00000000 x24:0xffffffd6
       77265000	      7725	80005da8	002637b3	sltu	x15,x12,x2	 x12:0x5374cc60  x2:0x43b6ac30 x15=0x00000000
       77275000	      7726	80005dac	02d90e63	beq	x18,x13,80005de8	 x18:0x00000603 x13:0x9aa687f8
       77285000	      7727	80005db0	418dd7b3	sra	x15,x27,x24	 x27:0x00000001 x24:0xffffffd6 x15=0x00000000
       77295000	      7728	80005db4	4036d913	srai	x18,x13,0x3	 x13:0x9aa687f8 x18=0xf354d0ff
       77305000	      7729	80005db8	407bd193	srai	x3,x23,0x7	 x23:0x80009ebc  x3=0xff00013d
       77315000	      7730	80005dbc	011b5333	srl	x6,x22,x17	 x22:0xc19b1fc4 x17:0xe793f000  x6=0xc19b1fc4
       77325000	      7731	80005dc0	00000013	addi	x0,x0,0	  x0:0x00000000
       77335000	      7732	80005dc4	a020ac93	slti	x25,x1,-1534	  x1:0x80000000 x25=0x00000001
       77345000	      7733	80005dc8	24da7b13	andi	x22,x20,589	 x20:0x00000000 x22=0x00000000
       77355000	      7734	80005dcc	015c55b3	srl	x11,x24,x21	 x24:0xffffffd6 x21:0x00000001 x11=0x7fffffeb
       77365000	      7735	80005dd0	05d65263	bge	x12,x29,80005e14	 x12:0x5374cc60 x29:0xfffffe1e
       77375000	      7736	00000000	00000013	addi	x0,x0,0	  x0:0x00000000
       77385000	      7737	80005e10	00000013	addi	x0,x0,0	  x0:0x00000000
       77395000	      7738	80005e14	98c7cc13	xori	x24,x15,-1652	 x15:0x00000000 x24=0xfffff98c
       77405000	      7739	80005e18	49434b13	xori	x22,x6,1172	  x6:0xc19b1fc4 x22=0xc19b1b50
       77415000	      7740	80005e1c	03181863	bne	x16,x17,80005e4c	 x16:0x80009fc4 x17:0xe793f000
       77425000	      7741	00000000	00000013	addi	x0,x0,0	  x0:0x00000000
       77435000	      7742	80005e48	00000013	addi	x0,x0,0	  x0:0x00000000
       77445000	      7743	80005e4c	01b635b3	sltu	x11,x12,x27	 x12:0x5374cc60 x27:0x00000001 x11=0x00000000
       77455000	      7744	80005e50	01c38633	add	x12,x7,x28	  x7:0x00000000 x28:0x0000018b x12=0x0000018b
       77465000	      7745	80005e54	4138d713	srai	x14,x17,0x13	 x17:0xe793f000 x14=0xfffffcf2
       77475000	      7746	80005e58	40e20133	sub	x2,x4,x14	  x4:0xfffffa8b x14:0xfffffcf2  x2=0xfffffd99
       77485000	      7747	80005e5c	00000013	addi	x0,x0,0	  x0:0x00000000
       77495000	      7748	80005e60	00ae6263	bltu	x28,x10,80005e64	 x28:0x0000018b x10:0xffffdcdd
       77505000	      7749	00000000	00000013	addi	x0,x0,0	  x0:0x00000000
       77515000	      7750	80005e60	00000013	addi	x0,x0,0	  x0:0x00000000
       77525000	      7751	80005e64	01445a93	srli	x21,x8,0x14	  x8:0x80008ae2 x21=0x00000800
       77535000	      7752	80005e68	01a8ef33	or	x30,x17,x26	 x17:0xe793f000 x26:0x00000039 x30=0xe793f039
       77545000	      7753	80005e6c	6076a893	slti	x17,x13,1543	 x13:0x9aa687f8 x17=0x00000001
       77555000	      7754	80005e70	00be0233	add	x4,x28,x11	 x28:0x0000018b x11:0x00000000  x4=0x0000018b
       77565000	      7755	80005e74	01139c13	slli	x24,x7,0x11	  x7:0x00000000 x24=0x00000000
       77575000	      7756	80005e78	413f5513	srai	x10,x30,0x13	 x30:0xe793f039 x10=0xfffffcf2
       77585000	      7757	80005e7c	00a4da93	srli	x21,x9,0xa	  x9:0xbe658000 x21=0x002f9960
       77595000	      7758	80005e80	40dc8eb3	sub	x29,x25,x13	 x25:0x00000001 x13:0x9aa687f8 x29=0x65597809
       77605000	      7759	80005e84	01785533	srl	x10,x16,x23	 x16:0x80009fc4 x23:0x80009ebc x10=0x00000008
       77615000	      7760	80005e88	01e95463	bge	x18,x30,80005e90	 x18:0xf354d0ff x30:0xe793f039
       77625000	      7761	00000000	00000013	addi	x0,x0,0	  x0:0x00000000
       77635000	      7762	80005e8c	00000013	addi	x0,x0,0	  x0:0x00000000
       77645000	      7763	80005e90	00b65d13	srli	x26,x12,0xb	 x12:0x0000018b x26=0x00000000
       77655000	      7764	80005e94	0157d3b3	srl	x7,x15,x21	 x15:0x00000000 x21:0x002f9960  x7=0x00000000
       77665000	      7765	80005e98	01622233	slt	x4,x4,x22	  x4:0x0000018b x22:0xc19b1b50  x4=0x00000000
       77675000	      7766	80005e9c	0078bc33	sltu	x24,x17,x7	 x17:0x00000001  x7:0x00000000 x24=0x00000000
       77685000	      7767	80005ea0	00dced33	or	x26,x25,x13	 x25:0x00000001 x13:0x9aa687f8 x26=0x9aa687f9
       77695000	      7768	80005ea4	01adfa63	bgeu	x27,x26,80005eb8	 x27:0x00000001 x26:0x9aa687f9
       77705000	      7769	80005ea8	ed5c7d93	andi	x27,x24,-299	 x24:0x00000000 x27=0x00000000
       77715000	      7770	80005eac	0c47e863	bltu	x15,x4,80005f7c	 x15:0x00000000  x4:0x00000000
       77725000	      7771	80005eb0	014f65b3	or	x11,x30,x20	 x30:0xe793f039 x20:0x00000000 x11=0xe793f039
       77735000	      7772	80005eb4	2c000f13	addi	x30,x0,704	  x0:0x00000000 x30=0x000002c0
       77745000	      7773	80005eb8	01852633	slt	x12,x10,x24	 x10:0x00000008 x24:0x00000000 x12=0x00000000
       77755000	      7774	80005ebc	56342013	slti	x0,x8,1379	  x8:0x80008ae2
       77765000	      7775	80005ec0	5ae56613	ori	x12,x10,1454	 x10:0x00000008 x12=0x000005ae
       77775000	      7776	80005ec4	e2e18d13	addi	x26,x3,-466	  x3:0xff00013d x26=0xfeffff6b
       77785000	      7777	80005ec8	79459237	lui	x4,0x79459	  x4=0x79459000
       77795000	      7778	80005ecc	01c2a433	slt	x8,x5,x28	  x5:0x00000000 x28:0x0000018b  x8=0x00000001
       77805000	      7779	80005ed0	e571b513	sltiu	x10,x3,-425	  x3:0xff00013d x10=0x00000001
       77815000	      7780	80005ed4	0a457a63	bgeu	x10,x4,80005f88	 x10:0x00000001  x4:0x79459000
       77825000	      7781	80005ed8	00002417	auipc	x8,0x2	  x8=0x80007ed4
       77835000	      7782	80005edc	7db40413	addi	x8,x8,2011	  x8:0x80007ed4  x8=0x800086af
       77845000	      7783	80005ee0	773aa897	auipc	x17,0x773aa	 x17=0xf73afedc
       77855000	      7784	80005ee4	4019d713	srai	x14,x19,0x1	 x19:0xfffff4dd x14=0xfffffa6e
       77865000	      7785	80005ee8	0091b233	sltu	x4,x3,x9	  x3:0xff00013d  x9:0xbe658000  x4=0x00000000
       77875000	      7786	80005eec	004c5f33	srl	x30,x24,x4	 x24:0x00000000  x4:0x00000000 x30=0x00000000
       77885000	      7787	80005ef0	0159db33	srl	x22,x19,x21	 x19:0xfffff4dd x21:0x002f9960 x22=0xfffff4dd
       77895000	      7788	80005ef4	f3c40c23	sb	x28,-200(x8)	  x8:0x800086af x28:0x0000018b PA:0x800085e7
       77905000	      7789	80005ef8	0af41783	lh	x15,175(x8)	  x8:0x800086af x15=0x00000015 PA:0x8000875e
       77915000	      7790	80005efc	0a3404a3	sb	x3,169(x8)	  x8:0x800086af  x3:0xff00013d PA:0x80008758
       77925000	      7791	80005f00	4c1eb613	sltiu	x12,x29,1217	 x29:0x65597809 x12=0x00000000
       77935000	      7792	80005f04	6dc65d97	auipc	x27,0x6dc65	 x27=0xedc6af00
       77945000	      7793	80005f08	01de72b3	and	x5,x28,x29	 x28:0x0000018b x29:0x65597809  x5=0x00000009
       77955000	      7794	80005f0c	0de44c03	lbu	x24,222(x8)	  x8:0x800086af x24=0x00000001 PA:0x8000878d
       77965000	      7795	80005f10	0f945003	lhu	x0,249(x8)	  x8:0x800086af PA:0x800087a8
       77975000	      7796	80005f14	fb844f03	lbu	x30,-72(x8)	  x8:0x800086af x30=0x0000001c PA:0x80008667
       77985000	      7797	80005f18	018e9733	sll	x14,x29,x24	 x29:0x65597809 x24:0x00000001 x14=0xcab2f012
       77995000	      7798	80005f1c	04e40b03	lb	x22,78(x8)	  x8:0x800086af x22=0xffffffb6 PA:0x800086fd
       78005000	      7799	80005f20	00cf67b3	or	x15,x30,x12	 x30:0x0000001c x12:0x00000000 x15=0x0000001c
       78015000	      7800	80005f24	e8780c93	addi	x25,x16,-377	 x16:0x80009fc4 x25=0x80009e4b
       78025000	      7801	80005f28	003f1e13	slli	x28,x30,0x3	 x30:0x0000001c x28=0x000000e0
       78035000	      7802	80005f2c	f3544e83	lbu	x29,-203(x8)	  x8:0x800086af x29=0x0000009f PA:0x800085e4
       78045000	      7803	80005f30	04144483	lbu	x9,65(x8)	  x8:0x800086af  x9=0x000000ab PA:0x800086f0
       78055000	      7804	80005f34	0a040e83	lb	x29,160(x8)	  x8:0x800086af x29=0x00000004 PA:0x8000874f
       78065000	      7805	80005f38	41ca5db3	sra	x27,x20,x28	 x20:0x00000000 x28:0x000000e0 x27=0x00000000
       78075000	      7806	80005f3c	01aec9b3	xor	x19,x29,x26	 x29:0x00000004 x26:0xfeffff6b x19=0xfeffff6f
       78085000	      7807	80005f40	00585913	srli	x18,x16,0x5	 x16:0x80009fc4 x18=0x040004fe
       78095000	      7808	80005f44	f8444003	lbu	x0,-124(x8)	  x8:0x800086af PA:0x80008633
       78105000	      7809	80005f48	9c740293	addi	x5,x8,-1593	  x8:0x800086af  x5=0x80008076
       78115000	      7810	80005f4c	014a1ab3	sll	x21,x20,x20	 x20:0x00000000 x20:0x00000000 x21=0x00000000
       78125000	      7811	80005f50	f1945e83	lhu	x29,-231(x8)	  x8:0x800086af x29=0x00008283 PA:0x800085c8
       78135000	      7812	80005f54	08745603	lhu	x12,135(x8)	  x8:0x800086af x12=0x0000eced PA:0x80008736
       78145000	      7813	80005f58	03eae263	bltu	x21,x30,80005f7c	 x21:0x00000000 x30:0x0000001c
       78155000	      7814	00000000	00000013	addi	x0,x0,0	  x0:0x00000000
       78165000	      7815	80005f78	00000013	addi	x0,x0,0	  x0:0x00000000
       78175000	      7816	80005f7c	eb738c13	addi	x24,x7,-329	  x7:0x00000000 x24=0xfffffeb7
       78185000	      7817	80005f80	41ccd8b3	sra	x17,x25,x28	 x25:0x80009e4b x28:0x000000e0 x17=0x80009e4b
       78195000	      7818	80005f84	05d0f463	bgeu	x1,x29,80005fcc	  x1:0x80000000 x29:0x00008283
       78205000	      7819	00000000	00000013	addi	x0,x0,0	  x0:0x00000000
       78215000	      7820	80005fc8	00000013	addi	x0,x0,0	  x0:0x00000000
       78225000	      7821	80005fcc	002d5293	srli	x5,x26,0x2	 x26:0xfeffff6b  x5=0x3fbfffda
       78235000	      7822	80005fd0	01da9fb3	sll	x31,x21,x29	 x21:0x00000000 x29:0x00008283 x31=0x00000000
       78245000	      7823	80005fd4	00000013	addi	x0,x0,0	  x0:0x00000000
       78255000	      7824	80005fd8	00f5f033	and	x0,x11,x15	 x11:0xe793f039 x15:0x0000001c
       78265000	      7825	80005fdc	72c17993	andi	x19,x2,1836	  x2:0xfffffd99 x19=0x00000508
       78275000	      7826	80005fe0	00c87a63	bgeu	x16,x12,80005ff4	 x16:0x80009fc4 x12:0x0000eced
       78285000	      7827	00000000	00000013	addi	x0,x0,0	  x0:0x00000000
       78295000	      7828	80005ff0	00000013	addi	x0,x0,0	  x0:0x00000000
       78305000	      7829	80005ff4	4f3e0b37	lui	x22,0x4f3e0	 x22=0x4f3e0000
       78315000	      7830	80005ff8	40108a33	sub	x20,x1,x1	  x1:0x80000000  x1:0x80000000 x20=0x00000000
       78325000	      7831	80005ffc	014b5db3	srl	x27,x22,x20	 x22:0x4f3e0000 x20:0x00000000 x27=0x4f3e0000
       78335000	      7832	80006000	9f440037	lui	x0,0x9f440	
       78345000	      7833	80006004	00c74463	blt	x14,x12,8000600c	 x14:0xcab2f012 x12:0x0000eced
       78355000	      7834	00000000	00000013	addi	x0,x0,0	  x0:0x00000000
       78365000	      7835	80006008	00000013	addi	x0,x0,0	  x0:0x00000000
       78375000	      7836	8000600c	7cd6a513	slti	x10,x13,1997	 x13:0x9aa687f8 x10=0x00000001
       78385000	      7837	80006010	6a183113	sltiu	x2,x16,1697	 x16:0x80009fc4  x2=0x00000000
       78395000	      7838	80006014	01e15663	bge	x2,x30,80006020	  x2:0x00000000 x30:0x0000001c
       78405000	      7839	80006018	00000013	addi	x0,x0,0	  x0:0x00000000
       78415000	      7840	8000601c	005ef533	and	x10,x29,x5	 x29:0x00008283  x5:0x3fbfffda x10=0x00008282
       78425000	      7841	80006020	b067c213	xori	x4,x15,-1274	 x15:0x0000001c  x4=0xfffffb1a
       78435000	      7842	80006024	ae8fb893	sltiu	x17,x31,-1304	 x31:0x00000000 x17=0x00000001
       78445000	      7843	80006028	056d1263	bne	x26,x22,8000606c	 x26:0xfeffff6b x22:0x4f3e0000
       78455000	      7844	00000000	00000013	addi	x0,x0,0	  x0:0x00000000
       78465000	      7845	80006068	00000013	addi	x0,x0,0	  x0:0x00000000
       78475000	      7846	8000606c	00115b13	srli	x22,x2,0x1	  x2:0x00000000 x22=0x00000000
       78485000	      7847	80006070	41a55f13	srai	x30,x10,0x1a	 x10:0x00008282 x30=0x00000000
       78495000	      7848	80006074	00802fb3	slt	x31,x0,x8	  x0:0x00000000  x8:0x800086af x31=0x00000000
       78505000	      7849	80006078	00559433	sll	x8,x11,x5	 x11:0xe793f039  x5:0x3fbfffda  x8=0xe4000000
       78515000	      7850	8000607c	01430b33	add	x22,x6,x20	  x6:0xc19b1fc4 x20:0x00000000 x22=0xc19b1fc4
       78525000	      7851	80006080	03ba1c63	bne	x20,x27,800060b8	 x20:0x00000000 x27:0x4f3e0000
       78535000	      7852	00000000	00000013	addi	x0,x0,0	  x0:0x00000000
       78545000	      7853	800060b4	00000013	addi	x0,x0,0	  x0:0x00000000
       78555000	      7854	800060b8	02b55863	bge	x10,x11,800060e8	 x10:0x00008282 x11:0xe793f039
       78565000	      7855	00000000	00000013	addi	x0,x0,0	  x0:0x00000000
       78575000	      7856	800060e4	00000013	addi	x0,x0,0	  x0:0x00000000
       78585000	      7857	800060e8	9254a213	slti	x4,x9,-1755	  x9:0x000000ab  x4=0x00000000
       78595000	      7858	800060ec	f0078b13	addi	x22,x15,-256	 x15:0x0000001c x22=0xffffff1c
       78605000	      7859	800060f0	015e81b3	add	x3,x29,x21	 x29:0x00008283 x21:0x00000000  x3=0x00008283
       78615000	      7860	800060f4	a535e713	ori	x14,x11,-1453	 x11:0xe793f039 x14=0xfffffa7b
       78625000	      7861	800060f8	0193dc33	srl	x24,x7,x25	  x7:0x00000000 x25:0x80009e4b x24=0x00000000
       78635000	      7862	800060fc	01931793	slli	x15,x6,0x19	  x6:0xc19b1fc4 x15=0x88000000
       78645000	      7863	80006100	73a47513	andi	x10,x8,1850	  x8:0xe4000000 x10=0x00000000
       78655000	      7864	80006104	02a54063	blt	x10,x10,80006124	 x10:0x00000000 x10:0x00000000
       78665000	      7865	80006108	9e282e93	slti	x29,x16,-1566	 x16:0x80009fc4 x29=0x00000001
       78675000	      7866	8000610c	01dd3b33	sltu	x22,x26,x29	 x26:0xfeffff6b x29:0x00000001 x22=0x00000000
       78685000	      7867	80006110	01cc88b3	add	x17,x25,x28	 x25:0x80009e4b x28:0x000000e0 x17=0x80009f2b
       78695000	      7868	80006114	414855b3	sra	x11,x16,x20	 x16:0x80009fc4 x20:0x00000000 x11=0x80009fc4
       78705000	      7869	80006118	012afc33	and	x24,x21,x18	 x21:0x00000000 x18:0x040004fe x24=0x00000000
       78715000	      7870	8000611c	00281133	sll	x2,x16,x2	 x16:0x80009fc4  x2:0x00000000  x2=0x80009fc4
       78725000	      7871	80006120	4028d8b3	sra	x17,x17,x2	 x17:0x80009f2b  x2:0x80009fc4 x17=0xf80009f2
       78735000	      7872	80006124	016a8133	add	x2,x21,x22	 x21:0x00000000 x22:0x00000000  x2=0x00000000
       78745000	      7873	80006128	00371433	sll	x8,x14,x3	 x14:0xfffffa7b  x3:0x00008283  x8=0xffffd3d8
       78755000	      7874	8000612c	038cda63	bge	x25,x24,80006160	 x25:0x80009e4b x24:0x00000000
       78765000	      7875	80006130	00801d33	sll	x26,x0,x8	  x0:0x00000000  x8:0xffffd3d8 x26=0x00000000
       78775000	      7876	80006134	5c942513	slti	x10,x8,1481	  x8:0xffffd3d8 x10=0x00000001
       78785000	      7877	80006138	40085293	srai	x5,x16,0x0	 x16:0x80009fc4  x5=0x80009fc4
       78795000	      7878	8000613c	01107c33	and	x24,x0,x17	  x0:0x00000000 x17:0xf80009f2 x24=0x00000000
       78805000	      7879	80006140	012711b3	sll	x3,x14,x18	 x14:0xfffffa7b x18:0x040004fe  x3=0xc0000000
       78815000	      7880	80006144	6598c193	xori	x3,x17,1625	 x17:0xf80009f2  x3=0xf8000fab
       78825000	      7881	80006148	03a8ea63	bltu	x17,x26,8000617c	 x17:0xf80009f2 x26:0x00000000
       78835000	      7882	8000614c	0a736437	lui	x8,0xa736	  x8=0x0a736000
       78845000	      7883	80006150	01af13b3	sll	x7,x30,x26	 x30:0x00000000 x26:0x00000000  x7=0x00000000
       78855000	      7884	80006154	41cedf93	srai	x31,x29,0x1c	 x29:0x00000001 x31=0x00000000
       78865000	      7885	80006158	40ccdd33	sra	x26,x25,x12	 x25:0x80009e4b x12:0x0000eced x26=0xfffc0004
       78875000	      7886	8000615c	0180e333	or	x6,x1,x24	  x1:0x80000000 x24:0x00000000  x6=0x80000000
       78885000	      7887	80006160	40de55b3	sra	x11,x28,x13	 x28:0x000000e0 x13:0x9aa687f8 x11=0x00000000
       78895000	      7888	80006164	404ad393	srai	x7,x21,0x4	 x21:0x00000000  x7=0x00000000
       78905000	      7889	80006168	f4922993	slti	x19,x4,-183	  x4:0x00000000 x19=0x00000000
       78915000	      7890	8000616c	04535863	bge	x6,x5,800061bc	  x6:0x80000000  x5:0x80009fc4
       78925000	      7891	80006170	036bde63	bge	x23,x22,800061ac	 x23:0x80009ebc x22:0x00000000
       78935000	      7892	80006174	00e29f33	sll	x30,x5,x14	  x5:0x80009fc4 x14:0xfffffa7b x30=0x20000000
       78945000	      7893	80006178	00c99f93	slli	x31,x19,0xc	 x19:0x00000000 x31=0x00000000
       78955000	      7894	8000617c	eb25a213	slti	x4,x11,-334	 x11:0x00000000  x4=0x00000000
       78965000	      7895	80006180	0b91ee93	ori	x29,x3,185	  x3:0xf8000fab x29=0xf8000fbb
       78975000	      7896	80006184	dd0f0f93	addi	x31,x30,-560	 x30:0x20000000 x31=0x1ffffdd0
       78985000	      7897	80006188	0710cd93	xori	x27,x1,113	  x1:0x80000000 x27=0x80000071
       78995000	      7898	8000618c	00888cb3	add	x25,x17,x8	 x17:0xf80009f2  x8:0x0a736000 x25=0x027369f2
       79005000	      7899	80006190	04137463	bgeu	x6,x1,800061d8	  x6:0x80000000  x1:0x80000000
       79015000	      7900	00000000	00000013	addi	x0,x0,0	  x0:0x00000000
       79025000	      7901	800061d4	00000013	addi	x0,x0,0	  x0:0x00000000
       79035000	      7902	800061d8	05356863	bltu	x10,x19,80006228	 x10:0x00000001 x19:0x00000000
       79045000	      7903	800061dc	01f82633	slt	x12,x16,x31	 x16:0x80009fc4 x31:0x1ffffdd0 x12=0x00000001
       79055000	      7904	800061e0	82d68993	addi	x19,x13,-2003	 x13:0x9aa687f8 x19=0x9aa68025
       79065000	      7905	800061e4	c735b513	sltiu	x10,x11,-909	 x11:0x00000000 x10=0x00000001
       79075000	      7906	800061e8	014ba633	slt	x12,x23,x20	 x23:0x80009ebc x20:0x00000000 x12=0x00000001
       79085000	      7907	800061ec	05168463	beq	x13,x17,80006234	 x13:0x9aa687f8 x17:0xf80009f2
       79095000	      7908	800061f0	40a284b3	sub	x9,x5,x10	  x5:0x80009fc4 x10:0x00000001  x9=0x80009fc3
       79105000	      7909	800061f4	e2240293	addi	x5,x8,-478	  x8:0x0a736000  x5=0x0a735e22
       79115000	      7910	800061f8	411781b3	sub	x3,x15,x17	 x15:0x88000000 x17:0xf80009f2  x3=0x8ffff60e
       79125000	      7911	800061fc	00000013	addi	x0,x0,0	  x0:0x00000000
       79135000	      7912	80006200	0123beb3	sltu	x29,x7,x18	  x7:0x00000000 x18:0x040004fe x29=0x00000001
       79145000	      7913	80006204	000a1463	bne	x20,x0,8000620c	 x20:0x00000000  x0:0x00000000
       79155000	      7914	80006208	719e3c13	sltiu	x24,x28,1817	 x28:0x000000e0 x24=0x00000001
       79165000	      7915	8000620c	01cfd693	srli	x13,x31,0x1c	 x31:0x1ffffdd0 x13=0x00000001
       79175000	      7916	80006210	39926b13	ori	x22,x4,921	  x4:0x00000000 x22=0x00000399
       79185000	      7917	80006214	00d169b3	or	x19,x2,x13	  x2:0x00000000 x13:0x00000001 x19=0x00000001
       79195000	      7918	80006218	011ec463	blt	x29,x17,80006220	 x29:0x00000001 x17:0xf80009f2
       79205000	      7919	8000621c	00714eb3	xor	x29,x2,x7	  x2:0x00000000  x7:0x00000000 x29=0x00000000
       79215000	      7920	80006220	40ccda93	srai	x21,x25,0xc	 x25:0x027369f2 x21=0x00002736
       79225000	      7921	80006224	00000013	addi	x0,x0,0	  x0:0x00000000
       79235000	      7922	80006228	432e3393	sltiu	x7,x28,1074	 x28:0x000000e0  x7=0x00000001
       79245000	      7923	8000622c	00c15a63	bge	x2,x12,80006240	  x2:0x00000000 x12:0x00000001
       79255000	      7924	80006230	015207b3	add	x15,x4,x21	  x4:0x00000000 x21:0x00002736 x15=0x00002736
       79265000	      7925	80006234	0122d613	srli	x12,x5,0x12	  x5:0x0a735e22 x12=0x0000029c
       79275000	      7926	80006238	40c688b3	sub	x17,x13,x12	 x13:0x00000001 x12:0x0000029c x17=0xfffffd65
       79285000	      7927	8000623c	41bb0033	sub	x0,x22,x27	 x22:0x00000399 x27:0x80000071
       79295000	      7928	80006240	401c5693	srai	x13,x24,0x1	 x24:0x00000001 x13=0x00000000
       79305000	      7929	80006244	41a85433	sra	x8,x16,x26	 x16:0x80009fc4 x26:0xfffc0004  x8=0xf80009fc
       79315000	      7930	80006248	000dafb3	slt	x31,x27,x0	 x27:0x80000071  x0:0x00000000 x31=0x00000001
       79325000	      7931	8000624c	02b97263	bgeu	x18,x11,80006270	 x18:0x040004fe x11:0x00000000
       79335000	      7932	00000000	00000013	addi	x0,x0,0	  x0:0x00000000
       79345000	      7933	8000626c	00000013	addi	x0,x0,0	  x0:0x00000000
       79355000	      7934	80006270	408a0db3	sub	x27,x20,x8	 x20:0x00000000  x8:0xf80009fc x27=0x07fff604
       79365000	      7935	80006274	417d5613	srai	x12,x26,0x17	 x26:0xfffc0004 x12=0xffffffff
       79375000	      7936	80006278	8df40c93	addi	x25,x8,-1825	  x8:0xf80009fc x25=0xf80002db
       79385000	      7937	8000627c	004f51b3	srl	x3,x30,x4	 x30:0x20000000  x4:0x00000000  x3=0x20000000
       79395000	      7938	80006280	00adf7b3	and	x15,x27,x10	 x27:0x07fff604 x10:0x00000001 x15=0x00000000
       79405000	      7939	80006284	00e82eb3	slt	x29,x16,x14	 x16:0x80009fc4 x14:0xfffffa7b x29=0x00000001
       79415000	      7940	80006288	00411c63	bne	x2,x4,800062a0	  x2:0x00000000  x4:0x00000000
       79425000	      7941	8000628c	00416e33	or	x28,x2,x4	  x2:0x00000000  x4:0x00000000 x28=0x00000000
       79435000	      7942	80006290	419b8cb3	sub	x25,x23,x25	 x23:0x80009ebc x25:0xf80002db x25=0x88009be1
       79445000	      7943	80006294	00841933	sll	x18,x8,x8	  x8:0xf80009fc  x8:0xf80009fc x18=0xc0000000
       79455000	      7944	80006298	89593513	sltiu	x10,x18,-1899	 x18:0xc0000000 x10=0x00000001
       79465000	      7945	8000629c	1f394d93	xori	x27,x18,499	 x18:0xc0000000 x27=0xc00001f3
       79475000	      7946	800062a0	00f607b3	add	x15,x12,x15	 x12:0xffffffff x15:0x00000000 x15=0xffffffff
       79485000	      7947	800062a4	00cd9633	sll	x12,x27,x12	 x27:0xc00001f3 x12:0xffffffff x12=0x80000000
       79495000	      7948	800062a8	00f7de13	srli	x28,x15,0xf	 x15:0xffffffff x28=0x0001ffff
       79505000	      7949	800062ac	0211c463	blt	x3,x1,800062d4	  x3:0x20000000  x1:0x80000000
       79515000	      7950	800062b0	dfc8ec93	ori	x25,x17,-516	 x17:0xfffffd65 x25=0xfffffdfd
       79525000	      7951	800062b4	006b31b3	sltu	x3,x22,x6	 x22:0x00000399  x6:0x80000000  x3=0x00000001
       79535000	      7952	800062b8	41bc05b3	sub	x11,x24,x27	 x24:0x00000001 x27:0xc00001f3 x11=0x3ffffe0e
       79545000	      7953	800062bc	014d1293	slli	x5,x26,0x14	 x26:0xfffc0004  x5=0x00400000
       79555000	      7954	800062c0	00dd4463	blt	x26,x13,800062c8	 x26:0xfffc0004 x13:0x00000000
       79565000	      7955	00000000	00000013	addi	x0,x0,0	  x0:0x00000000
       79575000	      7956	800062c4	00000013	addi	x0,x0,0	  x0:0x00000000
       79585000	      7957	800062c8	1ef3be93	sltiu	x29,x7,495	  x7:0x00000001 x29=0x00000001
       79595000	      7958	800062cc	41bc0db3	sub	x27,x24,x27	 x24:0x00000001 x27:0xc00001f3 x27=0x3ffffe0e
       79605000	      7959	800062d0	0435f863	bgeu	x11,x3,80006320	 x11:0x3ffffe0e  x3:0x00000001
       79615000	      7960	00000000	00000013	addi	x0,x0,0	  x0:0x00000000
       79625000	      7961	8000631c	00000013	addi	x0,x0,0	  x0:0x00000000
       79635000	      7962	80006320	4066de33	sra	x28,x13,x6	 x13:0x00000000  x6:0x80000000 x28=0x00000000
       79645000	      7963	80006324	32edc693	xori	x13,x27,814	 x27:0x3ffffe0e x13=0x3ffffd20
       79655000	      7964	80006328	01cc9413	slli	x8,x25,0x1c	 x25:0xfffffdfd  x8=0xd0000000
       79665000	      7965	8000632c	01d2a2b3	slt	x5,x5,x29	  x5:0x00400000 x29:0x00000001  x5=0x00000000
       79675000	      7966	80006330	d96e0593	addi	x11,x28,-618	 x28:0x00000000 x11=0xfffffd96
       79685000	      7967	80006334	0112d593	srli	x11,x5,0x11	  x5:0x00000000 x11=0x00000000
       79695000	      7968	80006338	01298463	beq	x19,x18,80006340	 x19:0x00000001 x18:0xc0000000
       79705000	      7969	8000633c	005287b3	add	x15,x5,x5	  x5:0x00000000  x5:0x00000000 x15=0x00000000
       79715000	      7970	80006340	025f0663	beq	x30,x5,8000636c	 x30:0x20000000  x5:0x00000000
       79725000	      7971	80006344	c674b893	sltiu	x17,x9,-921	  x9:0x80009fc3 x17=0x00000001
       79735000	      7972	80006348	01c323b3	slt	x7,x6,x28	  x6:0x80000000 x28:0x00000000  x7=0x00000001
       79745000	      7973	8000634c	04968463	beq	x13,x9,80006394	 x13:0x3ffffd20  x9:0x80009fc3
       79755000	      7974	80006350	b06cfe93	andi	x29,x25,-1274	 x25:0xfffffdfd x29=0xfffff904
       79765000	      7975	80006354	032b9463	bne	x23,x18,8000637c	 x23:0x80009ebc x18:0xc0000000
       79775000	      7976	00000000	00000013	addi	x0,x0,0	  x0:0x00000000
       79785000	      7977	80006378	00000013	addi	x0,x0,0	  x0:0x00000000
       79795000	      7978	8000637c	224a6d13	ori	x26,x20,548	 x20:0x00000000 x26=0x00000224
       79805000	      7979	80006380	013916b3	sll	x13,x18,x19	 x18:0xc0000000 x19:0x00000001 x13=0x80000000
       79815000	      7980	80006384	41bb57b3	sra	x15,x22,x27	 x22:0x00000399 x27:0x3ffffe0e x15=0x00000000
       79825000	      7981	80006388	009fb3b3	sltu	x7,x31,x9	 x31:0x00000001  x9:0x80009fc3  x7=0x00000001
       79835000	      7982	8000638c	d69af393	andi	x7,x21,-663	 x21:0x00002736  x7=0x00002520
       79845000	      7983	80006390	4062d333	sra	x6,x5,x6	  x5:0x00000000  x6:0x80000000  x6=0x00000000
       79855000	      7984	80006394	00074fb3	xor	x31,x14,x0	 x14:0xfffffa7b  x0:0x00000000 x31=0xfffffa7b
       79865000	      7985	80006398	0094f333	and	x6,x9,x9	  x9:0x80009fc3  x9:0x80009fc3  x6=0x80009fc3
       79875000	      7986	8000639c	00e8ca63	blt	x17,x14,800063b0	 x17:0x00000001 x14:0xfffffa7b
       79885000	      7987	800063a0	409a5113	srai	x2,x20,0x9	 x20:0x00000000  x2=0x00000000
       79895000	      7988	800063a4	00a10db3	add	x27,x2,x10	  x2:0x00000000 x10:0x00000001 x27=0x00000001
       79905000	      7989	800063a8	685ec197	auipc	x3,0x685ec	  x3=0xe85f23a4
       79915000	      7990	800063ac	00f7b4b3	sltu	x9,x15,x15	 x15:0x00000000 x15:0x00000000  x9=0x00000000
       79925000	      7991	800063b0	00b23b33	sltu	x22,x4,x11	  x4:0x00000000 x11:0x00000000 x22=0x00000000
       79935000	      7992	800063b4	8fe13037	lui	x0,0x8fe13	
       79945000	      7993	800063b8	00be05b3	add	x11,x28,x11	 x28:0x00000000 x11:0x00000000 x11=0x00000000
       79955000	      7994	800063bc	0261c863	blt	x3,x6,800063ec	  x3:0xe85f23a4  x6:0x80009fc3
       79965000	      7995	800063c0	010b0fb3	add	x31,x22,x16	 x22:0x00000000 x16:0x80009fc4 x31=0x80009fc4
       79975000	      7996	800063c4	21833493	sltiu	x9,x6,536	  x6:0x80009fc3  x9=0x00000000
       79985000	      7997	800063c8	032d1063	bne	x26,x18,800063e8	 x26:0x00000224 x18:0xc0000000
       79995000	      7998	00000000	00000013	addi	x0,x0,0	  x0:0x00000000
       80005000	      7999	800063e4	00000013	addi	x0,x0,0	  x0:0x00000000
       80015000	      8000	800063e8	02d14e63	blt	x2,x13,80006424	  x2:0x00000000 x13:0x80000000
       80025000	      8001	800063ec	0417e263	bltu	x15,x1,80006430	 x15:0x00000000  x1:0x80000000
       80035000	      8002	00000000	00000013	addi	x0,x0,0	  x0:0x00000000
       80045000	      8003	8000642c	00000013	addi	x0,x0,0	  x0:0x00000000
       80055000	      8004	80006430	881d6013	ori	x0,x26,-1919	 x26:0x00000224
       80065000	      8005	80006434	418f81b3	sub	x3,x31,x24	 x31:0x80009fc4 x24:0x00000001  x3=0x80009fc3
       80075000	      8006	80006438	056cf863	bgeu	x25,x22,80006488	 x25:0xfffffdfd x22:0x00000000
       80085000	      8007	00000000	00000013	addi	x0,x0,0	  x0:0x00000000
       80095000	      8008	80006484	00000013	addi	x0,x0,0	  x0:0x00000000
       80105000	      8009	80006488	03cf8663	beq	x31,x28,800064b4	 x31:0x80009fc4 x28:0x00000000
       80115000	      8010	8000648c	64c64313	xori	x6,x12,1612	 x12:0x80000000  x6=0x8000064c
       80125000	      8011	80006490	00000013	addi	x0,x0,0	  x0:0x00000000
       80135000	      8012	80006494	01f0d463	bge	x1,x31,8000649c	  x1:0x80000000 x31:0x80009fc4
       80145000	      8013	80006498	509f8993	addi	x19,x31,1289	 x31:0x80009fc4 x19=0x8000a4cd
       80155000	      8014	8000649c	00000013	addi	x0,x0,0	  x0:0x00000000
       80165000	      8015	800064a0	00e3c463	blt	x7,x14,800064a8	  x7:0x00002520 x14:0xfffffa7b
       80175000	      8016	800064a4	c7b5afb7	lui	x31,0xc7b5a	 x31=0xc7b5a000
       80185000	      8017	800064a8	00b51893	slli	x17,x10,0xb	 x10:0x00000001 x17=0x00000800
       80195000	      8018	800064ac	af208013	addi	x0,x1,-1294	  x1:0x80000000
       80205000	      8019	800064b0	018159b3	srl	x19,x2,x24	  x2:0x00000000 x24:0x00000001 x19=0x00000000
       80215000	      8020	800064b4	05758863	beq	x11,x23,80006504	 x11:0x00000000 x23:0x80009ebc
       80225000	      8021	800064b8	0181b433	sltu	x8,x3,x24	  x3:0x80009fc3 x24:0x00000001  x8=0x00000000
       80235000	      8022	800064bc	05ca4263	blt	x20,x28,80006500	 x20:0x00000000 x28:0x00000000
       80245000	      8023	800064c0	bd7f4e13	xori	x28,x30,-1065	 x30:0x20000000 x28=0xdffffbd7
       80255000	      8024	800064c4	0563d863	bge	x7,x22,80006514	  x7:0x00002520 x22:0x00000000
       80265000	      8025	00000000	00000013	addi	x0,x0,0	  x0:0x00000000
       80275000	      8026	80006510	00000013	addi	x0,x0,0	  x0:0x00000000
       80285000	      8027	80006514	01091633	sll	x12,x18,x16	 x18:0xc0000000 x16:0x80009fc4 x12=0x00000000
       80295000	      8028	80006518	00375fb3	srl	x31,x14,x3	 x14:0xfffffa7b  x3:0x80009fc3 x31=0x1fffff4f
       80305000	      8029	8000651c	00854c63	blt	x10,x8,80006534	 x10:0x00000001  x8:0x00000000
       80315000	      8030	80006520	01185db3	srl	x27,x16,x17	 x16:0x80009fc4 x17:0x00000800 x27=0x80009fc4
       80325000	      8031	80006524	41ec5b33	sra	x22,x24,x30	 x24:0x00000001 x30:0x20000000 x22=0x00000001
       80335000	      8032	80006528	00000013	addi	x0,x0,0	  x0:0x00000000
       80345000	      8033	8000652c	00000013	addi	x0,x0,0	  x0:0x00000000
       80355000	      8034	80006530	02bfca63	blt	x31,x11,80006564	 x31:0x1fffff4f x11:0x00000000
       80365000	      8035	80006534	01d19c93	slli	x25,x3,0x1d	  x3:0x80009fc3 x25=0x60000000
       80375000	      8036	80006538	03d40463	beq	x8,x29,80006560	  x8:0x00000000 x29:0xfffff904
       80385000	      8037	8000653c	00000013	addi	x0,x0,0	  x0:0x00000000
       80395000	      8038	80006540	41c402b3	sub	x5,x8,x28	  x8:0x00000000 x28:0xdffffbd7  x5=0x20000429
       80405000	      8039	80006544	014c5a63	bge	x24,x20,80006558	 x24:0x00000001 x20:0x00000000
       80415000	      8040	00000000	00000013	addi	x0,x0,0	  x0:0x00000000
       80425000	      8041	80006554	00000013	addi	x0,x0,0	  x0:0x00000000
       80435000	      8042	80006558	002a4cb3	xor	x25,x20,x2	 x20:0x00000000  x2:0x00000000 x25=0x00000000
       80445000	      8043	8000655c	0087c933	xor	x18,x15,x8	 x15:0x00000000  x8:0x00000000 x18=0x00000000
       80455000	      8044	80006560	e050e993	ori	x19,x1,-507	  x1:0x80000000 x19=0xfffffe05
       80465000	      8045	80006564	006b79b3	and	x19,x22,x6	 x22:0x00000001  x6:0x8000064c x19=0x00000000
       80475000	      8046	80006568	01868a33	add	x20,x13,x24	 x13:0x80000000 x24:0x00000001 x20=0x80000001
       80485000	      8047	8000656c	6f7b8f13	addi	x30,x23,1783	 x23:0x80009ebc x30=0x8000a5b3
       80495000	      8048	80006570	752ea593	slti	x11,x29,1874	 x29:0xfffff904 x11=0x00000001
       80505000	      8049	80006574	ef5096b7	lui	x13,0xef509	 x13=0xef509000
       80515000	      8050	80006578	00ce5033	srl	x0,x28,x12	 x28:0xdffffbd7 x12:0x00000000
       80525000	      8051	8000657c	00f91263	bne	x18,x15,80006580	 x18:0x00000000 x15:0x00000000
       80535000	      8052	80006580	0118de63	bge	x17,x17,8000659c	 x17:0x00000800 x17:0x00000800
       80545000	      8053	00000000	00000013	addi	x0,x0,0	  x0:0x00000000
       80555000	      8054	80006598	00000013	addi	x0,x0,0	  x0:0x00000000
       80565000	      8055	8000659c	415d84b3	sub	x9,x27,x21	 x27:0x80009fc4 x21:0x00002736  x9=0x8000788e
       80575000	      8056	800065a0	0136fe33	and	x28,x13,x19	 x13:0xef509000 x19:0x00000000 x28=0x00000000
       80585000	      8057	800065a4	02337263	bgeu	x6,x3,800065c8	  x6:0x8000064c  x3:0x80009fc3
       80595000	      8058	800065a8	0364e063	bltu	x9,x22,800065c8	  x9:0x8000788e x22:0x00000001
       80605000	      8059	800065ac	00f815b3	sll	x11,x16,x15	 x16:0x80009fc4 x15:0x00000000 x11=0x80009fc4
       80615000	      8060	800065b0	41d55133	sra	x2,x10,x29	 x10:0x00000001 x29:0xfffff904  x2=0x00000000
       80625000	      8061	800065b4	002908b3	add	x17,x18,x2	 x18:0x00000000  x2:0x00000000 x17=0x00000000
       80635000	      8062	800065b8	01309013	slli	x0,x1,0x13	  x1:0x80000000
       80645000	      8063	800065bc	00f1d793	srli	x15,x3,0xf	  x3:0x80009fc3 x15=0x00010001
       80655000	      8064	800065c0	034e5863	bge	x28,x20,800065f0	 x28:0x00000000 x20:0x80000001
       80665000	      8065	00000000	00000013	addi	x0,x0,0	  x0:0x00000000
       80675000	      8066	800065ec	00000013	addi	x0,x0,0	  x0:0x00000000
       80685000	      8067	800065f0	00226b33	or	x22,x4,x2	  x4:0x00000000  x2:0x00000000 x22=0x00000000
       80695000	      8068	800065f4	41675c33	sra	x24,x14,x22	 x14:0xfffffa7b x22:0x00000000 x24=0xfffffa7b
       80705000	      8069	800065f8	0556d463	bge	x13,x21,80006640	 x13:0xef509000 x21:0x00002736
       80715000	      8070	800065fc	016badb3	slt	x27,x23,x22	 x23:0x80009ebc x22:0x00000000 x27=0x00000001
       80725000	      8071	80006600	0158ee63	bltu	x17,x21,8000661c	 x17:0x00000000 x21:0x00002736
       80735000	      8072	00000000	00000013	addi	x0,x0,0	  x0:0x00000000
       80745000	      8073	80006618	00000013	addi	x0,x0,0	  x0:0x00000000
       80755000	      8074	8000661c	686c2493	slti	x9,x24,1670	 x24:0xfffffa7b  x9=0x00000001
       80765000	      8075	80006620	03c17463	bgeu	x2,x28,80006648	  x2:0x00000000 x28:0x00000000
       80775000	      8076	00000000	00000013	addi	x0,x0,0	  x0:0x00000000
       80785000	      8077	80006644	00000013	addi	x0,x0,0	  x0:0x00000000
       80795000	      8078	80006648	0ae3c637	lui	x12,0xae3c	 x12=0x0ae3c000
       80805000	      8079	8000664c	0130e333	or	x6,x1,x19	  x1:0x80000000 x19:0x00000000  x6=0x80000000
       80815000	      8080	80006650	01322333	slt	x6,x4,x19	  x4:0x00000000 x19:0x00000000  x6=0x00000000
       80825000	      8081	80006654	00ff1263	bne	x30,x15,80006658	 x30:0x8000a5b3 x15:0x00010001
       80835000	      8082	00000000	00000013	addi	x0,x0,0	  x0:0x00000000
       80845000	      8083	80006654	00000013	addi	x0,x0,0	  x0:0x00000000
       80855000	      8084	80006658	a9526917	auipc	x18,0xa9526	 x18=0x2952c654
       80865000	      8085	8000665c	04051463	bne	x10,x0,800066a4	 x10:0x00000001  x0:0x00000000
       80875000	      8086	00000000	00000013	addi	x0,x0,0	  x0:0x00000000
       80885000	      8087	800066a0	00000013	addi	x0,x0,0	  x0:0x00000000
       80895000	      8088	800066a4	00c41a63	bne	x8,x12,800066b8	  x8:0x00000000 x12:0x0ae3c000
       80905000	      8089	00000000	00000013	addi	x0,x0,0	  x0:0x00000000
       80915000	      8090	800066b4	00000013	addi	x0,x0,0	  x0:0x00000000
       80925000	      8091	800066b8	4efe2213	slti	x4,x28,1263	 x28:0x00000000  x4=0x00000001
       80935000	      8092	800066bc	75c00d93	addi	x27,x0,1884	  x0:0x00000000 x27=0x0000075c
       80945000	      8093	800066c0	0145a4b3	slt	x9,x11,x20	 x11:0x80009fc4 x20:0x80000001  x9=0x00000000
       80955000	      8094	800066c4	9bfd6213	ori	x4,x26,-1601	 x26:0x00000224  x4=0xfffffbbf
       80965000	      8095	800066c8	e2c7a293	slti	x5,x15,-468	 x15:0x00010001  x5=0x00000000
       80975000	      8096	800066cc	008857b3	srl	x15,x16,x8	 x16:0x80009fc4  x8:0x00000000 x15=0x80009fc4
       80985000	      8097	800066d0	014274b3	and	x9,x4,x20	  x4:0xfffffbbf x20:0x80000001  x9=0x80000001
       80995000	      8098	800066d4	0f81c213	xori	x4,x3,248	  x3:0x80009fc3  x4=0x80009f3b
       81005000	      8099	800066d8	776c6193	ori	x3,x24,1910	 x24:0xfffffa7b  x3=0xffffff7f
       81015000	      8100	800066dc	019523b3	slt	x7,x10,x25	 x10:0x00000001 x25:0x00000000  x7=0x00000000
       81025000	      8101	800066e0	008d9a33	sll	x20,x27,x8	 x27:0x0000075c  x8:0x00000000 x20=0x0000075c
       81035000	      8102	800066e4	71606f93	ori	x31,x0,1814	  x0:0x00000000 x31=0x00000716
       81045000	      8103	800066e8	01750133	add	x2,x10,x23	 x10:0x00000001 x23:0x80009ebc  x2=0x80009ebd
       81055000	      8104	800066ec	41a48933	sub	x18,x9,x26	  x9:0x80000001 x26:0x00000224 x18=0x7ffffddd
       81065000	      8105	800066f0	01eec8b3	xor	x17,x29,x30	 x29:0xfffff904 x30:0x8000a5b3 x17=0x7fff5cb7
       81075000	      8106	800066f4	0138d613	srli	x12,x17,0x13	 x17:0x7fff5cb7 x12=0x00000fff
       81085000	      8107	800066f8	00b75a13	srli	x20,x14,0xb	 x14:0xfffffa7b x20=0x001fffff
       81095000	      8108	800066fc	71fc8993	addi	x19,x25,1823	 x25:0x00000000 x19=0x0000071f
       81105000	      8109	80006700	a390f793	andi	x15,x1,-1479	  x1:0x80000000 x15=0x80000000
       81115000	      8110	80006704	01bb9613	slli	x12,x23,0x1b	 x23:0x80009ebc x12=0xe0000000
       81125000	      8111	80006708	d675c493	xori	x9,x11,-665	 x11:0x80009fc4  x9=0x7fff62a3
       81135000	      8112	8000670c	e6564293	xori	x5,x12,-411	 x12:0xe0000000  x5=0x1ffffe65
       81145000	      8113	80006710	409ad513	srai	x10,x21,0x9	 x21:0x00002736 x10=0x00000013
       81155000	      8114	80006714	018d3e33	sltu	x28,x26,x24	 x26:0x00000224 x24:0xfffffa7b x28=0x00000001
       81165000	      8115	80006718	008f2133	slt	x2,x30,x8	 x30:0x8000a5b3  x8:0x00000000  x2=0x00000001
       81175000	      8116	8000671c	04cc6463	bltu	x24,x12,80006764	 x24:0xfffffa7b x12:0xe0000000
       81185000	      8117	80006720	6d334493	xori	x9,x6,1747	  x6:0x00000000  x9=0x000006d3
       81195000	      8118	80006724	01f26333	or	x6,x4,x31	  x4:0x80009f3b x31:0x00000716  x6=0x80009f3f
       81205000	      8119	80006728	0309fe63	bgeu	x19,x16,80006764	 x19:0x0000071f x16:0x80009fc4
       81215000	      8120	8000672c	d704bc93	sltiu	x25,x9,-656	  x9:0x000006d3 x25=0x00000001
       81225000	      8121	80006730	40a15c33	sra	x24,x2,x10	  x2:0x00000001 x10:0x00000013 x24=0x00000000
       81235000	      8122	80006734	0126dd13	srli	x26,x13,0x12	 x13:0xef509000 x26=0x00003bd4
       81245000	      8123	80006738	01119e63	bne	x3,x17,80006754	  x3:0xffffff7f x17:0x7fff5cb7
       81255000	      8124	00000000	00000013	addi	x0,x0,0	  x0:0x00000000
       81265000	      8125	80006750	00000013	addi	x0,x0,0	  x0:0x00000000
       81275000	      8126	80006754	fa5ca897	auipc	x17,0xfa5ca	 x17=0x7a5d0750
       81285000	      8127	80006758	0197b733	sltu	x14,x15,x25	 x15:0x80000000 x25:0x00000001 x14=0x00000000
       81295000	      8128	8000675c	0149c663	blt	x19,x20,80006768	 x19:0x0000071f x20:0x001fffff
       81305000	      8129	00000000	00000013	addi	x0,x0,0	  x0:0x00000000
       81315000	      8130	80006764	00000013	addi	x0,x0,0	  x0:0x00000000
       81325000	      8131	80006768	d1807793	andi	x15,x0,-744	  x0:0x00000000 x15=0x00000000
       81335000	      8132	8000676c	00c01333	sll	x6,x0,x12	  x0:0x00000000 x12:0xe0000000  x6=0x00000000
       81345000	      8133	80006770	05ea1263	bne	x20,x30,800067b4	 x20:0x001fffff x30:0x8000a5b3
       81355000	      8134	00000000	00000013	addi	x0,x0,0	  x0:0x00000000
       81365000	      8135	800067b0	00000013	addi	x0,x0,0	  x0:0x00000000
       81375000	      8136	800067b4	01559493	slli	x9,x11,0x15	 x11:0x80009fc4  x9=0xf8800000
       81385000	      8137	800067b8	01a88463	beq	x17,x26,800067c0	 x17:0x7a5d0750 x26:0x00003bd4
       81395000	      8138	800067bc	011a9d13	slli	x26,x21,0x11	 x21:0x00002736 x26=0x4e6c0000
       81405000	      8139	800067c0	008a9933	sll	x18,x21,x8	 x21:0x00002736  x8:0x00000000 x18=0x00002736
       81415000	      8140	800067c4	01bec463	blt	x29,x27,800067cc	 x29:0xfffff904 x27:0x0000075c
       81425000	      8141	00000000	00000013	addi	x0,x0,0	  x0:0x00000000
       81435000	      8142	800067c8	00000013	addi	x0,x0,0	  x0:0x00000000
       81445000	      8143	800067cc	00000013	addi	x0,x0,0	  x0:0x00000000
       81455000	      8144	800067d0	6ba8e413	ori	x8,x17,1722	 x17:0x7a5d0750  x8=0x7a5d07fa
       81465000	      8145	800067d4	00332a33	slt	x20,x6,x3	  x6:0x00000000  x3:0xffffff7f x20=0x00000000
       81475000	      8146	800067d8	05f3c863	blt	x7,x31,80006828	  x7:0x00000000 x31:0x00000716
       81485000	      8147	00000000	00000013	addi	x0,x0,0	  x0:0x00000000
       81495000	      8148	80006824	00000013	addi	x0,x0,0	  x0:0x00000000
       81505000	      8149	80006828	04a0e263	bltu	x1,x10,8000686c	  x1:0x80000000 x10:0x00000013
       81515000	      8150	8000682c	00d2d3b3	srl	x7,x5,x13	  x5:0x1ffffe65 x13:0xef509000  x7=0x1ffffe65
       81525000	      8151	80006830	00000013	addi	x0,x0,0	  x0:0x00000000
       81535000	      8152	80006834	03c07463	bgeu	x0,x28,8000685c	  x0:0x00000000 x28:0x00000001
       81545000	      8153	80006838	00fe1113	slli	x2,x28,0xf	 x28:0x00000001  x2=0x00008000
       81555000	      8154	8000683c	40d25e93	srai	x29,x4,0xd	  x4:0x80009f3b x29=0xfffc0004
       81565000	      8155	80006840	00d78fb3	add	x31,x15,x13	 x15:0x00000000 x13:0xef509000 x31=0xef509000
       81575000	      8156	80006844	02105063	bge	x0,x1,80006864	  x0:0x00000000  x1:0x80000000
       81585000	      8157	00000000	00000013	addi	x0,x0,0	  x0:0x00000000
       81595000	      8158	80006860	00000013	addi	x0,x0,0	  x0:0x00000000
       81605000	      8159	80006864	00845c93	srli	x25,x8,0x8	  x8:0x7a5d07fa x25=0x007a5d07
       81615000	      8160	80006868	e39b8613	addi	x12,x23,-455	 x23:0x80009ebc x12=0x80009cf5
       81625000	      8161	8000686c	011f6433	or	x8,x30,x17	 x30:0x8000a5b3 x17:0x7a5d0750  x8=0xfa5da7f3
       81635000	      8162	80006870	05f4f263	bgeu	x9,x31,800068b4	  x9:0xf8800000 x31:0xef509000
       81645000	      8163	00000000	00000013	addi	x0,x0,0	  x0:0x00000000
       81655000	      8164	800068b0	00000013	addi	x0,x0,0	  x0:0x00000000
       81665000	      8165	800068b4	02f31a63	bne	x6,x15,800068e8	  x6:0x00000000 x15:0x00000000
       81675000	      8166	800068b8	41d15a13	srai	x20,x2,0x1d	  x2:0x00008000 x20=0x00000000
       81685000	      8167	800068bc	00000013	addi	x0,x0,0	  x0:0x00000000
       81695000	      8168	800068c0	0430f463	bgeu	x1,x3,80006908	  x1:0x80000000  x3:0xffffff7f
       81705000	      8169	800068c4	403bddb3	sra	x27,x23,x3	 x23:0x80009ebc  x3:0xffffff7f x27=0xffffffff
       81715000	      8170	800068c8	d4b10f93	addi	x31,x2,-693	  x2:0x00008000 x31=0x00007d4b
       81725000	      8171	800068cc	630785b7	lui	x11,0x63078	 x11=0x63078000
       81735000	      8172	800068d0	fbef3197	auipc	x3,0xfbef3	  x3=0x7bef98cc
       81745000	      8173	800068d4	a5fc0d93	addi	x27,x24,-1441	 x24:0x00000000 x27=0xfffffa5f
       81755000	      8174	800068d8	f9114593	xori	x11,x2,-111	  x2:0x00008000 x11=0xffff7f91
       81765000	      8175	800068dc	01c01db3	sll	x27,x0,x28	  x0:0x00000000 x28:0x00000001 x27=0x00000000
       81775000	      8176	800068e0	005a65b3	or	x11,x20,x5	 x20:0x00000000  x5:0x1ffffe65 x11=0x1ffffe65
       81785000	      8177	800068e4	40e7d893	srai	x17,x15,0xe	 x15:0x00000000 x17=0x00000000
       81795000	      8178	800068e8	00000013	addi	x0,x0,0	  x0:0x00000000
       81805000	      8179	800068ec	00619663	bne	x3,x6,800068f8	  x3:0x7bef98cc  x6:0x00000000
       81815000	      8180	00000000	00000013	addi	x0,x0,0	  x0:0x00000000
       81825000	      8181	800068f4	00000013	addi	x0,x0,0	  x0:0x00000000
       81835000	      8182	800068f8	00000013	addi	x0,x0,0	  x0:0x00000000
       81845000	      8183	800068fc	00000013	addi	x0,x0,0	  x0:0x00000000
       81855000	      8184	80006900	009f9013	slli	x0,x31,0x9	 x31:0x00007d4b
       81865000	      8185	80006904	00dc2933	slt	x18,x24,x13	 x24:0x00000000 x13:0xef509000 x18=0x00000000
       81875000	      8186	80006908	3f0aa913	slti	x18,x21,1008	 x21:0x00002736 x18=0x00000000
       81885000	      8187	8000690c	41b705b3	sub	x11,x14,x27	 x14:0x00000000 x27:0x00000000 x11=0x00000000
       81895000	      8188	80006910	00f1e733	or	x14,x3,x15	  x3:0x7bef98cc x15:0x00000000 x14=0x7bef98cc
       81905000	      8189	80006914	009d6933	or	x18,x26,x9	 x26:0x4e6c0000  x9:0xf8800000 x18=0xfeec0000
       81915000	      8190	80006918	9fc92913	slti	x18,x18,-1540	 x18:0xfeec0000 x18=0x00000001
       81925000	      8191	8000691c	009dfeb3	and	x29,x27,x9	 x27:0x00000000  x9:0xf8800000 x29=0x00000000
       81935000	      8192	80006920	400cd193	srai	x3,x25,0x0	 x25:0x007a5d07  x3=0x007a5d07
       81945000	      8193	80006924	405b87b3	sub	x15,x23,x5	 x23:0x80009ebc  x5:0x1ffffe65 x15=0x6000a057
       81955000	      8194	80006928	014a1433	sll	x8,x20,x20	 x20:0x00000000 x20:0x00000000  x8=0x00000000
       81965000	      8195	8000692c	014f1fb3	sll	x31,x30,x20	 x30:0x8000a5b3 x20:0x00000000 x31=0x8000a5b3
       81975000	      8196	80006930	008aee63	bltu	x21,x8,8000694c	 x21:0x00002736  x8:0x00000000
       81985000	      8197	80006934	2230c713	xori	x14,x1,547	  x1:0x80000000 x14=0x80000223
       81995000	      8198	80006938	eb38a593	slti	x11,x17,-333	 x17:0x00000000 x11=0x00000000
       82005000	      8199	8000693c	00dfedb3	or	x27,x31,x13	 x31:0x8000a5b3 x13:0xef509000 x27=0xef50b5b3
       82015000	      8200	80006940	40c8d913	srai	x18,x17,0xc	 x17:0x00000000 x18=0x00000000
       82025000	      8201	80006944	e6510993	addi	x19,x2,-411	  x2:0x00008000 x19=0x00007e65
       82035000	      8202	80006948	007812b3	sll	x5,x16,x7	 x16:0x80009fc4  x7:0x1ffffe65  x5=0x0013f880
       82045000	      8203	8000694c	6641e593	ori	x11,x3,1636	  x3:0x007a5d07 x11=0x007a5f67
       82055000	      8204	80006950	408908b3	sub	x17,x18,x8	 x18:0x00000000  x8:0x00000000 x17=0x00000000
       82065000	      8205	80006954	858cb6b7	lui	x13,0x858cb	 x13=0x858cb000
       82075000	      8206	80006958	f6cb3d17	auipc	x26,0xf6cb3	 x26=0x76cb9954
       82085000	      8207	8000695c	0830cd13	xori	x26,x1,131	  x1:0x80000000 x26=0x80000083
       82095000	      8208	80006960	40e359b3	sra	x19,x6,x14	  x6:0x00000000 x14:0x80000223 x19=0x00000000
       82105000	      8209	80006964	2ef10293	addi	x5,x2,751	  x2:0x00008000  x5=0x000082ef
       82115000	      8210	80006968	bde8e593	ori	x11,x17,-1058	 x17:0x00000000 x11=0xfffffbde
       82125000	      8211	8000696c	01d91193	slli	x3,x18,0x1d	 x18:0x00000000  x3=0x00000000
       82135000	      8212	80006970	00058633	add	x12,x11,x0	 x11:0xfffffbde  x0:0x00000000 x12=0xfffffbde
       82145000	      8213	80006974	01ff1293	slli	x5,x30,0x1f	 x30:0x8000a5b3  x5=0x80000000
       82155000	      8214	80006978	4031d593	srai	x11,x3,0x3	  x3:0x00000000 x11=0x00000000
       82165000	      8215	8000697c	62690a93	addi	x21,x18,1574	 x18:0x00000000 x21=0x00000626
       82175000	      8216	80006980	00a3d893	srli	x17,x7,0xa	  x7:0x1ffffe65 x17=0x0007ffff
       82185000	      8217	80006984	d5648893	addi	x17,x9,-682	  x9:0xf8800000 x17=0xf87ffd56
       82195000	      8218	80006988	00e4dab3	srl	x21,x9,x14	  x9:0xf8800000 x14:0x80000223 x21=0x1f100000
       82205000	      8219	8000698c	212f2693	slti	x13,x30,530	 x30:0x8000a5b3 x13=0x00000001
       82215000	      8220	80006990	00562b33	slt	x22,x12,x5	 x12:0xfffffbde  x5:0x80000000 x22=0x00000000
       82225000	      8221	80006994	ec68eb13	ori	x22,x17,-314	 x17:0xf87ffd56 x22=0xffffffd6
       82235000	      8222	80006998	03be0463	beq	x28,x27,800069c0	 x28:0x00000001 x27:0xef50b5b3
       82245000	      8223	8000699c	add50713	addi	x14,x10,-1315	 x10:0x00000013 x14=0xfffffaf0
       82255000	      8224	800069a0	02b6f663	bgeu	x13,x11,800069cc	 x13:0x00000001 x11:0x00000000
       82265000	      8225	00000000	00000013	addi	x0,x0,0	  x0:0x00000000
       82275000	      8226	800069c8	00000013	addi	x0,x0,0	  x0:0x00000000
       82285000	      8227	800069cc	0a9d3f13	sltiu	x30,x26,169	 x26:0x80000083 x30=0x00000000
       82295000	      8228	800069d0	004ba303	lw	x6,4(x23)	 x23:0x80009ebc  x6=0x80000d38 PA:0x80009ec0
       82305000	      8229	800069d4	02cb8b93	addi	x23,x23,44	 x23:0x80009ebc x23=0x80009ee8
       82315000	      8230	800069d8	0090e133	or	x2,x1,x9	  x1:0x80000000  x9:0xf8800000  x2=0xf8800000
       82325000	      8231	800069dc	f30e6037	lui	x0,0xf30e6	
       82335000	      8232	800069e0	d474f593	andi	x11,x9,-697	  x9:0xf8800000 x11=0xf8800000
       82345000	      8233	800069e4	00130d93	addi	x27,x6,1	  x6:0x80000d38 x27=0x80000d39
       82355000	      8234	800069e8	000d8de7	jalr	x27,x27,0	 x27:0x80000d39 x27=0x800069e8
       82365000	      8235	00000000	00000013	addi	x0,x0,0	  x0:0x00000000
       82375000	      8236	80000d38	00000013	addi	x0,x0,0	  x0:0x00000000
       82385000	      8237	80000d3c	57eaf013	andi	x0,x21,1406	 x21:0x1f100000
       82395000	      8238	80000d40	01305533	srl	x10,x0,x19	  x0:0x00000000 x19:0x00000000 x10=0x00000000
       82405000	      8239	80000d44	0053cab3	xor	x21,x7,x5	  x7:0x1ffffe65  x5:0x80000000 x21=0x9ffffe65
       82415000	      8240	80000d48	01524eb3	xor	x29,x4,x21	  x4:0x80009f3b x21:0x9ffffe65 x29=0x1fff615e
       82425000	      8241	80000d4c	01383633	sltu	x12,x16,x19	 x16:0x80009fc4 x19:0x00000000 x12=0x00000000
       82435000	      8242	80000d50	005b4c63	blt	x22,x5,80000d68	 x22:0xffffffd6  x5:0x80000000
       82445000	      8243	80000d54	7386fa13	andi	x20,x13,1848	 x13:0x00000001 x20=0x00000000
       82455000	      8244	80000d58	256b7393	andi	x7,x22,598	 x22:0xffffffd6  x7=0x00000256
       82465000	      8245	80000d5c	00000013	addi	x0,x0,0	  x0:0x00000000
       82475000	      8246	80000d60	64368313	addi	x6,x13,1603	 x13:0x00000001  x6=0x00000644
       82485000	      8247	80000d64	03196c63	bltu	x18,x17,80000d9c	 x18:0x00000000 x17:0xf87ffd56
       82495000	      8248	00000000	00000013	addi	x0,x0,0	  x0:0x00000000
       82505000	      8249	80000d98	00000013	addi	x0,x0,0	  x0:0x00000000
       82515000	      8250	80000d9c	40200633	sub	x12,x0,x2	  x0:0x00000000  x2:0xf8800000 x12=0x07800000
       82525000	      8251	80000da0	407b0633	sub	x12,x22,x7	 x22:0xffffffd6  x7:0x00000256 x12=0xfffffd80
       82535000	      8252	80000da4	01008eb3	add	x29,x1,x16	  x1:0x80000000 x16:0x80009fc4 x29=0x00009fc4
       82545000	      8253	80000da8	0883f037	lui	x0,0x883f	
       82555000	      8254	80000dac	0083d713	srli	x14,x7,0x8	  x7:0x00000256 x14=0x00000002
       82565000	      8255	80000db0	05bf1663	bne	x30,x27,80000dfc	 x30:0x00000000 x27:0x800069e8
       82575000	      8256	00000000	00000013	addi	x0,x0,0	  x0:0x00000000
       82585000	      8257	80000df8	00000013	addi	x0,x0,0	  x0:0x00000000
       82595000	      8258	80000dfc	01b39463	bne	x7,x27,80000e04	  x7:0x00000256 x27:0x800069e8
       82605000	      8259	00000000	00000013	addi	x0,x0,0	  x0:0x00000000
       82615000	      8260	80000e00	00000013	addi	x0,x0,0	  x0:0x00000000
       82625000	      8261	80000e04	006da7b3	slt	x15,x27,x6	 x27:0x800069e8  x6:0x00000644 x15=0x00000001
       82635000	      8262	80000e08	00000013	addi	x0,x0,0	  x0:0x00000000
       82645000	      8263	80000e0c	03e04263	blt	x0,x30,80000e30	  x0:0x00000000 x30:0x00000000
       82655000	      8264	80000e10	4a9da597	auipc	x11,0x4a9da	 x11=0xca9dae0c
       82665000	      8265	80000e14	015c7ab3	and	x21,x24,x21	 x24:0x00000000 x21:0x9ffffe65 x21=0x00000000
       82675000	      8266	80000e18	016984b3	add	x9,x19,x22	 x19:0x00000000 x22:0xffffffd6  x9=0xffffffd6
       82685000	      8267	80000e1c	0179ba33	sltu	x20,x19,x23	 x19:0x00000000 x23:0x80009ee8 x20=0x00000001
       82695000	      8268	80000e20	58029017	auipc	x0,0x58029	
       82705000	      8269	80000e24	19e62c13	slti	x24,x12,414	 x12:0xfffffd80 x24=0x00000001
       82715000	      8270	80000e28	01818a33	add	x20,x3,x24	  x3:0x00000000 x24:0x00000001 x20=0x00000001
       82725000	      8271	80000e2c	6a6be513	ori	x10,x23,1702	 x23:0x80009ee8 x10=0x80009eee
       82735000	      8272	80000e30	0435e263	bltu	x11,x3,80000e74	 x11:0xca9dae0c  x3:0x00000000
       82745000	      8273	80000e34	7b990193	addi	x3,x18,1977	 x18:0x00000000  x3=0x000007b9
       82755000	      8274	80000e38	0ad76a93	ori	x21,x14,173	 x14:0x00000002 x21=0x000000af
       82765000	      8275	80000e3c	00000013	addi	x0,x0,0	  x0:0x00000000
       82775000	      8276	80000e40	9cda2e93	slti	x29,x20,-1587	 x20:0x00000001 x29=0x00000000
       82785000	      8277	80000e44	32700393	addi	x7,x0,807	  x0:0x00000000  x7=0x00000327
       82795000	      8278	80000e48	01e11893	slli	x17,x2,0x1e	  x2:0xf8800000 x17=0x00000000
       82805000	      8279	80000e4c	03e97663	bgeu	x18,x30,80000e78	 x18:0x00000000 x30:0x00000000
       82815000	      8280	00000000	00000013	addi	x0,x0,0	  x0:0x00000000
       82825000	      8281	80000e74	00000013	addi	x0,x0,0	  x0:0x00000000
       82835000	      8282	80000e78	40325b13	srai	x22,x4,0x3	  x4:0x80009f3b x22=0xf00013e7
       82845000	      8283	80000e7c	4aea4e93	xori	x29,x20,1198	 x20:0x00000001 x29=0x000004af
       82855000	      8284	80000e80	bb07aa93	slti	x21,x15,-1104	 x15:0x00000001 x21=0x00000000
       82865000	      8285	80000e84	c02d2e93	slti	x29,x26,-1022	 x26:0x80000083 x29=0x00000001
       82875000	      8286	80000e88	488c0d13	addi	x26,x24,1160	 x24:0x00000001 x26=0x00000489
       82885000	      8287	80000e8c	00e04533	xor	x10,x0,x14	  x0:0x00000000 x14:0x00000002 x10=0x00000002
       82895000	      8288	80000e90	032c6c63	bltu	x24,x18,80000ec8	 x24:0x00000001 x18:0x00000000
       82905000	      8289	80000e94	06fa8a13	addi	x20,x21,111	 x21:0x00000000 x20=0x0000006f
       82915000	      8290	80000e98	01fddab3	srl	x21,x27,x31	 x27:0x800069e8 x31:0x8000a5b3 x21=0x00001000
       82925000	      8291	80000e9c	fad77893	andi	x17,x14,-83	 x14:0x00000002 x17=0x00000000
       82935000	      8292	80000ea0	401a5593	srai	x11,x20,0x1	 x20:0x0000006f x11=0x00000037
       82945000	      8293	80000ea4	01810b33	add	x22,x2,x24	  x2:0xf8800000 x24:0x00000001 x22=0xf8800001
       82955000	      8294	80000ea8	1a2f3993	sltiu	x19,x30,418	 x30:0x00000000 x19=0x00000001
       82965000	      8295	80000eac	00394c33	xor	x24,x18,x3	 x18:0x00000000  x3:0x000007b9 x24=0x000007b9
       82975000	      8296	80000eb0	00af0033	add	x0,x30,x10	 x30:0x00000000 x10:0x00000002
       82985000	      8297	80000eb4	00000013	addi	x0,x0,0	  x0:0x00000000
       82995000	      8298	80000eb8	30dce593	ori	x11,x25,781	 x25:0x007a5d07 x11=0x007a5f0f
       83005000	      8299	80000ebc	412587b3	sub	x15,x11,x18	 x11:0x007a5f0f x18:0x00000000 x15=0x007a5f0f
       83015000	      8300	80000ec0	01e5ce33	xor	x28,x11,x30	 x11:0x007a5f0f x30:0x00000000 x28=0x007a5f0f
       83025000	      8301	80000ec4	d9ec0113	addi	x2,x24,-610	 x24:0x000007b9  x2=0x00000557
       83035000	      8302	80000ec8	0e3eae13	slti	x28,x29,227	 x29:0x00000001 x28=0x00000001
       83045000	      8303	80000ecc	947f2437	lui	x8,0x947f2	  x8=0x947f2000
       83055000	      8304	80000ed0	02997463	bgeu	x18,x9,80000ef8	 x18:0x00000000  x9:0xffffffd6
       83065000	      8305	80000ed4	01d69d93	slli	x27,x13,0x1d	 x13:0x00000001 x27=0x20000000
       83075000	      8306	80000ed8	41685613	srai	x12,x16,0x16	 x16:0x80009fc4 x12=0xfffffe00
       83085000	      8307	80000edc	019505b3	add	x11,x10,x25	 x10:0x00000002 x25:0x007a5d07 x11=0x007a5d09
       83095000	      8308	80000ee0	015c2ab3	slt	x21,x24,x21	 x24:0x000007b9 x21:0x00001000 x21=0x00000001
       83105000	      8309	80000ee4	00eb4533	xor	x10,x22,x14	 x22:0xf8800001 x14:0x00000002 x10=0xf8800003
       83115000	      8310	80000ee8	05389663	bne	x17,x19,80000f34	 x17:0x00000000 x19:0x00000001
       83125000	      8311	00000000	00000013	addi	x0,x0,0	  x0:0x00000000
       83135000	      8312	80000f30	00000013	addi	x0,x0,0	  x0:0x00000000
       83145000	      8313	80000f34	02bb4c63	blt	x22,x11,80000f6c	 x22:0xf8800001 x11:0x007a5d09
       83155000	      8314	00000000	00000013	addi	x0,x0,0	  x0:0x00000000
       83165000	      8315	80000f68	00000013	addi	x0,x0,0	  x0:0x00000000
       83175000	      8316	80000f6c	0278f463	bgeu	x17,x7,80000f94	 x17:0x00000000  x7:0x00000327
       83185000	      8317	80000f70	00ac8263	beq	x25,x10,80000f74	 x25:0x007a5d07 x10:0xf8800003
       83195000	      8318	80000f74	7834dd97	auipc	x27,0x7834d	 x27=0xf834df70
       83205000	      8319	80000f78	00823233	sltu	x4,x4,x8	  x4:0x80009f3b  x8:0x947f2000  x4=0x00000001
       83215000	      8320	80000f7c	4100d4b3	sra	x9,x1,x16	  x1:0x80000000 x16:0x80009fc4  x9=0xf8000000
       83225000	      8321	80000f80	00000013	addi	x0,x0,0	  x0:0x00000000
       83235000	      8322	80000f84	e2747ab7	lui	x21,0xe2747	 x21=0xe2747000
       83245000	      8323	80000f88	01a404b3	add	x9,x8,x26	  x8:0x947f2000 x26:0x00000489  x9=0x947f2489
       83255000	      8324	80000f8c	00000013	addi	x0,x0,0	  x0:0x00000000
       83265000	      8325	80000f90	0178e463	bltu	x17,x23,80000f98	 x17:0x00000000 x23:0x80009ee8
       83275000	      8326	00000000	00000013	addi	x0,x0,0	  x0:0x00000000
       83285000	      8327	80000f94	00000013	addi	x0,x0,0	  x0:0x00000000
       83295000	      8328	80000f98	026e4463	blt	x28,x6,80000fc0	 x28:0x00000001  x6:0x00000644
       83305000	      8329	00000000	00000013	addi	x0,x0,0	  x0:0x00000000
       83315000	      8330	80000fbc	00000013	addi	x0,x0,0	  x0:0x00000000
       83325000	      8331	80000fc0	0074f233	and	x4,x9,x7	  x9:0x947f2489  x7:0x00000327  x4=0x00000001
       83335000	      8332	80000fc4	01027c33	and	x24,x4,x16	  x4:0x00000001 x16:0x80009fc4 x24=0x00000000
       83345000	      8333	80000fc8	cb47b493	sltiu	x9,x15,-844	 x15:0x007a5f0f  x9=0x00000001
       83355000	      8334	80000fcc	d2698037	lui	x0,0xd2698	
       83365000	      8335	80000fd0	00267ab3	and	x21,x12,x2	 x12:0xfffffe00  x2:0x00000557 x21=0x00000400
       83375000	      8336	80000fd4	910c7193	andi	x3,x24,-1776	 x24:0x00000000  x3=0x00000000
       83385000	      8337	80000fd8	00be9313	slli	x6,x29,0xb	 x29:0x00000001  x6=0x00000800
       83395000	      8338	80000fdc	00eeacb3	slt	x25,x29,x14	 x29:0x00000001 x14:0x00000002 x25=0x00000001
       83405000	      8339	80000fe0	2fa302b7	lui	x5,0x2fa30	  x5=0x2fa30000
       83415000	      8340	80000fe4	01ab1e33	sll	x28,x22,x26	 x22:0xf8800001 x26:0x00000489 x28=0x00000200
       83425000	      8341	80000fe8	66400a37	lui	x20,0x66400	 x20=0x66400000
       83435000	      8342	80000fec	00948433	add	x8,x9,x9	  x9:0x00000001  x9:0x00000001  x8=0x00000002
       83445000	      8343	80000ff0	6f7a6e93	ori	x29,x20,1783	 x20:0x66400000 x29=0x664006f7
       83455000	      8344	80000ff4	db16b193	sltiu	x3,x13,-591	 x13:0x00000001  x3=0x00000001
       83465000	      8345	80000ff8	00981633	sll	x12,x16,x9	 x16:0x80009fc4  x9:0x00000001 x12=0x00013f88
       83475000	      8346	80000ffc	417006b3	sub	x13,x0,x23	  x0:0x00000000 x23:0x80009ee8 x13=0x7fff6118
       83485000	      8347	80001000	d7ae6b37	lui	x22,0xd7ae6	 x22=0xd7ae6000
       83495000	      8348	80001004	083dc517	auipc	x10,0x83dc	 x10=0x883dd000
       83505000	      8349	80001008	0073c233	xor	x4,x7,x7	  x7:0x00000327  x7:0x00000327  x4=0x00000000
       83515000	      8350	8000100c	013e7d33	and	x26,x28,x19	 x28:0x00000200 x19:0x00000001 x26=0x00000000
       83525000	      8351	80001010	0496c463	blt	x13,x9,80001058	 x13:0x7fff6118  x9:0x00000001
       83535000	      8352	80001014	001143b3	xor	x7,x2,x1	  x2:0x00000557  x1:0x80000000  x7=0x80000557
       83545000	      8353	80001018	ca0a3493	sltiu	x9,x20,-864	 x20:0x66400000  x9=0x00000001
       83555000	      8354	8000101c	00f00463	beq	x0,x15,80001024	  x0:0x00000000 x15:0x007a5f0f
       83565000	      8355	80001020	004266b3	or	x13,x4,x4	  x4:0x00000000  x4:0x00000000 x13=0x00000000
       83575000	      8356	80001024	0570e263	bltu	x1,x23,80001068	  x1:0x80000000 x23:0x80009ee8
       83585000	      8357	00000000	00000013	addi	x0,x0,0	  x0:0x00000000
       83595000	      8358	80001064	00000013	addi	x0,x0,0	  x0:0x00000000
       83605000	      8359	80001068	00249a63	bne	x9,x2,8000107c	  x9:0x00000001  x2:0x00000557
       83615000	      8360	00000000	00000013	addi	x0,x0,0	  x0:0x00000000
       83625000	      8361	80001078	00000013	addi	x0,x0,0	  x0:0x00000000
       83635000	      8362	8000107c	65f52c93	slti	x25,x10,1631	 x10:0x883dd000 x25=0x00000001
       83645000	      8363	80001080	f9ff6193	ori	x3,x30,-97	 x30:0x00000000  x3=0xffffff9f
       83655000	      8364	80001084	012d1663	bne	x26,x18,80001090	 x26:0x00000000 x18:0x00000000
       83665000	      8365	80001088	00b1ce33	xor	x28,x3,x11	  x3:0xffffff9f x11:0x007a5d09 x28=0xff85a296
       83675000	      8366	8000108c	00ac4a33	xor	x20,x24,x10	 x24:0x00000000 x10:0x883dd000 x20=0x883dd000
       83685000	      8367	80001090	bb39ea93	ori	x21,x19,-1101	 x19:0x00000001 x21=0xfffffbb3
       83695000	      8368	80001094	016428b3	slt	x17,x8,x22	  x8:0x00000002 x22:0xd7ae6000 x17=0x00000000
       83705000	      8369	80001098	01487e63	bgeu	x16,x20,800010b4	 x16:0x80009fc4 x20:0x883dd000
       83715000	      8370	8000109c	00ec0333	add	x6,x24,x14	 x24:0x00000000 x14:0x00000002  x6=0x00000002
       83725000	      8371	800010a0	040bf263	bgeu	x23,x0,800010e4	 x23:0x80009ee8  x0:0x00000000
       83735000	      8372	00000000	00000013	addi	x0,x0,0	  x0:0x00000000
       83745000	      8373	800010e0	00000013	addi	x0,x0,0	  x0:0x00000000
       83755000	      8374	800010e4	00111893	slli	x17,x2,0x1	  x2:0x00000557 x17=0x00000aae
       83765000	      8375	800010e8	00a10a33	add	x20,x2,x10	  x2:0x00000557 x10:0x883dd000 x20=0x883dd557
       83775000	      8376	800010ec	00857cb3	and	x25,x10,x8	 x10:0x883dd000  x8:0x00000002 x25=0x00000000
       83785000	      8377	800010f0	a1c7a913	slti	x18,x15,-1508	 x15:0x007a5f0f x18=0x00000000
       83795000	      8378	800010f4	01b94c63	blt	x18,x27,8000110c	 x18:0x00000000 x27:0xf834df70
       83805000	      8379	800010f8	85ee6693	ori	x13,x28,-1954	 x28:0xff85a296 x13=0xfffffade
       83815000	      8380	800010fc	0168d5b3	srl	x11,x17,x22	 x17:0x00000aae x22:0xd7ae6000 x11=0x00000aae
       83825000	      8381	80001100	41f15433	sra	x8,x2,x31	  x2:0x00000557 x31:0x8000a5b3  x8=0x00000000
       83835000	      8382	80001104	007ffcb3	and	x25,x31,x7	 x31:0x8000a5b3  x7:0x80000557 x25=0x80000513
       83845000	      8383	80001108	01fcfc33	and	x24,x25,x31	 x25:0x80000513 x31:0x8000a5b3 x24=0x80000513
       83855000	      8384	8000110c	01f98533	add	x10,x19,x31	 x19:0x00000001 x31:0x8000a5b3 x10=0x8000a5b4
       83865000	      8385	80001110	417556b3	sra	x13,x10,x23	 x10:0x8000a5b4 x23:0x80009ee8 x13=0xff8000a5
       83875000	      8386	80001114	39d5a413	slti	x8,x11,925	 x11:0x00000aae  x8=0x00000000
       83885000	      8387	80001118	7f307793	andi	x15,x0,2035	  x0:0x00000000 x15=0x00000000
       83895000	      8388	8000111c	01dfaf33	slt	x30,x31,x29	 x31:0x8000a5b3 x29:0x664006f7 x30=0x00000001
       83905000	      8389	80001120	415759b3	sra	x19,x14,x21	 x14:0x00000002 x21:0xfffffbb3 x19=0x00000000
       83915000	      8390	80001124	04aec463	blt	x29,x10,8000116c	 x29:0x664006f7 x10:0x8000a5b4
       83925000	      8391	80001128	b473c337	lui	x6,0xb473c	  x6=0xb473c000
       83935000	      8392	8000112c	919f3e13	sltiu	x28,x30,-1767	 x30:0x00000001 x28=0x00000001
       83945000	      8393	80001130	036b5263	bge	x22,x22,80001154	 x22:0xd7ae6000 x22:0xd7ae6000
       83955000	      8394	00000000	00000013	addi	x0,x0,0	  x0:0x00000000
       83965000	      8395	80001150	00000013	addi	x0,x0,0	  x0:0x00000000
       83975000	      8396	80001154	0112c5b3	xor	x11,x5,x17	  x5:0x2fa30000 x17:0x00000aae x11=0x2fa30aae
       83985000	      8397	80001158	01fb43b3	xor	x7,x22,x31	 x22:0xd7ae6000 x31:0x8000a5b3  x7=0x57aec5b3
       83995000	      8398	8000115c	01c45793	srli	x15,x8,0x1c	  x8:0x00000000 x15=0x00000000
       84005000	      8399	80001160	00000013	addi	x0,x0,0	  x0:0x00000000
       84015000	      8400	80001164	015a7233	and	x4,x20,x21	 x20:0x883dd557 x21:0xfffffbb3  x4=0x883dd113
       84025000	      8401	80001168	010558b3	srl	x17,x10,x16	 x10:0x8000a5b4 x16:0x80009fc4 x17=0x08000a5b
       84035000	      8402	8000116c	011e1993	slli	x19,x28,0x11	 x28:0x00000001 x19=0x00020000
       84045000	      8403	80001170	41e0d013	srai	x0,x1,0x1e	  x1:0x80000000
       84055000	      8404	80001174	00000013	addi	x0,x0,0	  x0:0x00000000
       84065000	      8405	80001178	011f7133	and	x2,x30,x17	 x30:0x00000001 x17:0x08000a5b  x2=0x00000001
       84075000	      8406	8000117c	2bf6c793	xori	x15,x13,703	 x13:0xff8000a5 x15=0xff80021a
       84085000	      8407	80001180	0159df93	srli	x31,x19,0x15	 x19:0x00020000 x31=0x00000000
       84095000	      8408	80001184	05d10263	beq	x2,x29,800011c8	  x2:0x00000001 x29:0x664006f7
       84105000	      8409	80001188	fea58e13	addi	x28,x11,-22	 x11:0x2fa30aae x28=0x2fa30a98
       84115000	      8410	8000118c	5c653a93	sltiu	x21,x10,1478	 x10:0x8000a5b4 x21=0x00000000
       84125000	      8411	80001190	7a4deb37	lui	x22,0x7a4de	 x22=0x7a4de000
       84135000	      8412	80001194	00723233	sltu	x4,x4,x7	  x4:0x883dd113  x7:0x57aec5b3  x4=0x00000000
       84145000	      8413	80001198	00d56c33	or	x24,x10,x13	 x10:0x8000a5b4 x13:0xff8000a5 x24=0xff80a5b5
       84155000	      8414	8000119c	4101d993	srai	x19,x3,0x10	  x3:0xffffff9f x19=0xffffffff
       84165000	      8415	800011a0	00459293	slli	x5,x11,0x4	 x11:0x2fa30aae  x5=0xfa30aae0
       84175000	      8416	800011a4	deedf397	auipc	x7,0xdeedf	  x7=0x5eee01a0
       84185000	      8417	800011a8	41d65b13	srai	x22,x12,0x1d	 x12:0x00013f88 x22=0x00000000
       84195000	      8418	800011ac	0388e463	bltu	x17,x24,800011d4	 x17:0x08000a5b x24:0xff80a5b5
       84205000	      8419	00000000	00000013	addi	x0,x0,0	  x0:0x00000000
       84215000	      8420	800011d0	00000013	addi	x0,x0,0	  x0:0x00000000
       84225000	      8421	800011d4	00c5edb3	or	x27,x11,x12	 x11:0x2fa30aae x12:0x00013f88 x27=0x2fa33fae
       84235000	      8422	800011d8	0598c663	blt	x17,x25,80001224	 x17:0x08000a5b x25:0x80000513
       84245000	      8423	800011dc	402ad613	srai	x12,x21,0x2	 x21:0x00000000 x12=0x00000000
       84255000	      8424	800011e0	08ce7113	andi	x2,x28,140	 x28:0x2fa30a98  x2=0x00000088
       84265000	      8425	800011e4	955d2f13	slti	x30,x26,-1707	 x26:0x00000000 x30=0x00000000
       84275000	      8426	800011e8	00d1e9b3	or	x19,x3,x13	  x3:0xffffff9f x13:0xff8000a5 x19=0xffffffbf
       84285000	      8427	800011ec	018d1913	slli	x18,x26,0x18	 x26:0x00000000 x18=0x00000000
       84295000	      8428	800011f0	41dc5e33	sra	x28,x24,x29	 x24:0xff80a5b5 x29:0x664006f7 x28=0xffffffff
       84305000	      8429	800011f4	6f3bc693	xori	x13,x23,1779	 x23:0x80009ee8 x13=0x8000981b
       84315000	      8430	800011f8	709d6d13	ori	x26,x26,1801	 x26:0x00000000 x26=0x00000709
       84325000	      8431	800011fc	24b44593	xori	x11,x8,587	  x8:0x00000000 x11=0x0000024b
       84335000	      8432	80001200	00e1fdb3	and	x27,x3,x14	  x3:0xffffff9f x14:0x00000002 x27=0x00000002
       84345000	      8433	80001204	02559663	bne	x11,x5,80001230	 x11:0x0000024b  x5:0xfa30aae0
       84355000	      8434	00000000	00000013	addi	x0,x0,0	  x0:0x00000000
       84365000	      8435	8000122c	00000013	addi	x0,x0,0	  x0:0x00000000
       84375000	      8436	80001230	012b6b33	or	x22,x22,x18	 x22:0x00000000 x18:0x00000000 x22=0x00000000
       84385000	      8437	80001234	8a4ac693	xori	x13,x21,-1884	 x21:0x00000000 x13=0xfffff8a4
       84395000	      8438	80001238	0169ddb3	srl	x27,x19,x22	 x19:0xffffffbf x22:0x00000000 x27=0xffffffbf
       84405000	      8439	8000123c	d5dded13	ori	x26,x27,-675	 x27:0xffffffbf x26=0xffffffff
       84415000	      8440	80001240	193af613	andi	x12,x21,403	 x21:0x00000000 x12=0x00000000
       84425000	      8441	80001244	01a3ccb3	xor	x25,x7,x26	  x7:0x5eee01a0 x26:0xffffffff x25=0xa111fe5f
       84435000	      8442	80001248	03f77c63	bgeu	x14,x31,80001280	 x14:0x00000002 x31:0x00000000
       84445000	      8443	00000000	00000013	addi	x0,x0,0	  x0:0x00000000
       84455000	      8444	8000127c	00000013	addi	x0,x0,0	  x0:0x00000000
       84465000	      8445	80001280	01053433	sltu	x8,x10,x16	 x10:0x8000a5b4 x16:0x80009fc4  x8=0x00000000
       84475000	      8446	80001284	e8572513	slti	x10,x14,-379	 x14:0x00000002 x10=0x00000000
       84485000	      8447	80001288	aa883e13	sltiu	x28,x16,-1368	 x16:0x80009fc4 x28=0x00000001
       84495000	      8448	8000128c	0cd4f513	andi	x10,x9,205	  x9:0x00000001 x10=0x00000001
       84505000	      8449	80001290	0052e663	bltu	x5,x5,8000129c	  x5:0xfa30aae0  x5:0xfa30aae0
       84515000	      8450	80001294	000f1633	sll	x12,x30,x0	 x30:0x00000000  x0:0x00000000 x12=0x00000000
       84525000	      8451	80001298	96061c37	lui	x24,0x96061	 x24=0x96061000
       84535000	      8452	8000129c	52d90913	addi	x18,x18,1325	 x18:0x00000000 x18=0x0000052d
       84545000	      8453	800012a0	01a3c933	xor	x18,x7,x26	  x7:0x5eee01a0 x26:0xffffffff x18=0xa111fe5f
       84555000	      8454	800012a4	0078a533	slt	x10,x17,x7	 x17:0x08000a5b  x7:0x5eee01a0 x10=0x00000001
       84565000	      8455	800012a8	017f1a93	slli	x21,x30,0x17	 x30:0x00000000 x21=0x00000000
       84575000	      8456	800012ac	00000013	addi	x0,x0,0	  x0:0x00000000
       84585000	      8457	800012b0	4135dcb3	sra	x25,x11,x19	 x11:0x0000024b x19:0xffffffbf x25=0x00000000
       84595000	      8458	800012b4	c2936e93	ori	x29,x6,-983	  x6:0xb473c000 x29=0xfffffc29
       84605000	      8459	800012b8	03c0dc63	bge	x1,x28,800012f0	  x1:0x80000000 x28:0x00000001
       84615000	      8460	800012bc	03c45463	bge	x8,x28,800012e4	  x8:0x00000000 x28:0x00000001
       84625000	      8461	800012c0	00a41713	slli	x14,x8,0xa	  x8:0x00000000 x14=0x00000000
       84635000	      8462	800012c4	4ab7ed93	ori	x27,x15,1195	 x15:0xff80021a x27=0xff8006bb
       84645000	      8463	800012c8	0149f6b3	and	x13,x19,x20	 x19:0xffffffbf x20:0x883dd557 x13=0x883dd517
       84655000	      8464	800012cc	879788b7	lui	x17,0x87978	 x17=0x87978000
       84665000	      8465	800012d0	41835913	srai	x18,x6,0x18	  x6:0xb473c000 x18=0xffffffb4
       84675000	      8466	800012d4	9b2deb17	auipc	x22,0x9b2de	 x22=0x1b2df2d0
       84685000	      8467	800012d8	4047d993	srai	x19,x15,0x4	 x15:0xff80021a x19=0xfff80021
       84695000	      8468	800012dc	0525e263	bltu	x11,x18,80001320	 x11:0x0000024b x18:0xffffffb4
       84705000	      8469	00000000	00000013	addi	x0,x0,0	  x0:0x00000000
       84715000	      8470	8000131c	00000013	addi	x0,x0,0	  x0:0x00000000
       84725000	      8471	80001320	01f872b3	and	x5,x16,x31	 x16:0x80009fc4 x31:0x00000000  x5=0x00000000
       84735000	      8472	80001324	dc847c13	andi	x24,x8,-568	  x8:0x00000000 x24=0x00000000
       84745000	      8473	80001328	005bc533	xor	x10,x23,x5	 x23:0x80009ee8  x5:0x00000000 x10=0x80009ee8
       84755000	      8474	8000132c	6d0b4b17	auipc	x22,0x6d0b4	 x22=0xed0b5328
       84765000	      8475	80001330	401a0ab3	sub	x21,x20,x1	 x20:0x883dd557  x1:0x80000000 x21=0x083dd557
       84775000	      8476	80001334	049cf663	bgeu	x25,x9,80001380	 x25:0x00000000  x9:0x00000001
       84785000	      8477	80001338	4124d7b3	sra	x15,x9,x18	  x9:0x00000001 x18:0xffffffb4 x15=0x00000000
       84795000	      8478	8000133c	1d17c213	xori	x4,x15,465	 x15:0x00000000  x4=0x000001d1
       84805000	      8479	80001340	cd204793	xori	x15,x0,-814	  x0:0x00000000 x15=0xfffffcd2
       84815000	      8480	80001344	0094a633	slt	x12,x9,x9	  x9:0x00000001  x9:0x00000001 x12=0x00000000
       84825000	      8481	80001348	faae8913	addi	x18,x29,-86	 x29:0xfffffc29 x18=0xfffffbd3
       84835000	      8482	8000134c	00000013	addi	x0,x0,0	  x0:0x00000000
       84845000	      8483	80001350	003f3eb3	sltu	x29,x30,x3	 x30:0x00000000  x3:0xffffff9f x29=0x00000001
       84855000	      8484	80001354	bd4ca213	slti	x4,x25,-1068	 x25:0x00000000  x4=0x00000000
       84865000	      8485	80001358	0089d193	srli	x3,x19,0x8	 x19:0xfff80021  x3=0x00fff800
       84875000	      8486	8000135c	00965293	srli	x5,x12,0x9	 x12:0x00000000  x5=0x00000000
       84885000	      8487	80001360	6ad1c693	xori	x13,x3,1709	  x3:0x00fff800 x13=0x00fffead
       84895000	      8488	80001364	019b1463	bne	x22,x25,8000136c	 x22:0xed0b5328 x25:0x00000000
       84905000	      8489	00000000	00000013	addi	x0,x0,0	  x0:0x00000000
       84915000	      8490	80001368	00000013	addi	x0,x0,0	  x0:0x00000000
       84925000	      8491	8000136c	0107c633	xor	x12,x15,x16	 x15:0xfffffcd2 x16:0x80009fc4 x12=0x7fff6316
       84935000	      8492	80001370	01b32e33	slt	x28,x6,x27	  x6:0xb473c000 x27:0xff8006bb x28=0x00000001
       84945000	      8493	80001374	016ae233	or	x4,x21,x22	 x21:0x083dd557 x22:0xed0b5328  x4=0xed3fd77f
       84955000	      8494	80001378	010d36b3	sltu	x13,x26,x16	 x26:0xffffffff x16:0x80009fc4 x13=0x00000000
       84965000	      8495	8000137c	00ae5a93	srli	x21,x28,0xa	 x28:0x00000001 x21=0x00000000
       84975000	      8496	80001380	00000013	addi	x0,x0,0	  x0:0x00000000
       84985000	      8497	80001384	011ca433	slt	x8,x25,x17	 x25:0x00000000 x17:0x87978000  x8=0x00000000
       84995000	      8498	80001388	2e3b2513	slti	x10,x22,739	 x22:0xed0b5328 x10=0x00000001
       85005000	      8499	8000138c	d81b0113	addi	x2,x22,-639	 x22:0xed0b5328  x2=0xed0b50a9
       85015000	      8500	80001390	d8a83a13	sltiu	x20,x16,-630	 x16:0x80009fc4 x20=0x00000001
       85025000	      8501	80001394	b061b113	sltiu	x2,x3,-1274	  x3:0x00fff800  x2=0x00000001
       85035000	      8502	80001398	40d684b3	sub	x9,x13,x13	 x13:0x00000000 x13:0x00000000  x9=0x00000000
       85045000	      8503	8000139c	0deacf93	xori	x31,x21,222	 x21:0x00000000 x31=0x000000de
       85055000	      8504	800013a0	9a758c93	addi	x25,x11,-1625	 x11:0x0000024b x25=0xfffffbf2
       85065000	      8505	800013a4	41dc5013	srai	x0,x24,0x1d	 x24:0x00000000
       85075000	      8506	800013a8	0113a533	slt	x10,x7,x17	  x7:0x5eee01a0 x17:0x87978000 x10=0x00000000
       85085000	      8507	800013ac	f1d77993	andi	x19,x14,-227	 x14:0x00000000 x19=0x00000000
       85095000	      8508	800013b0	00903333	sltu	x6,x0,x9	  x0:0x00000000  x9:0x00000000  x6=0x00000000
       85105000	      8509	800013b4	8ea7e713	ori	x14,x15,-1814	 x15:0xfffffcd2 x14=0xfffffcfa
       85115000	      8510	800013b8	05968263	beq	x13,x25,800013fc	 x13:0x00000000 x25:0xfffffbf2
       85125000	      8511	800013bc	00000013	addi	x0,x0,0	  x0:0x00000000
       85135000	      8512	800013c0	c8b18993	addi	x19,x3,-885	  x3:0x00fff800 x19=0x00fff48b
       85145000	      8513	800013c4	0392ce63	blt	x5,x25,80001400	  x5:0x00000000 x25:0xfffffbf2
       85155000	      8514	800013c8	40f08933	sub	x18,x1,x15	  x1:0x80000000 x15:0xfffffcd2 x18=0x8000032e
       85165000	      8515	800013cc	00000013	addi	x0,x0,0	  x0:0x00000000
       85175000	      8516	800013d0	af7265b7	lui	x11,0xaf726	 x11=0xaf726000
       85185000	      8517	800013d4	01c5dd13	srli	x26,x11,0x1c	 x11:0xaf726000 x26=0x0000000a
       85195000	      8518	800013d8	f6d3cc93	xori	x25,x7,-147	  x7:0x5eee01a0 x25=0xa111fecd
       85205000	      8519	800013dc	00d99e13	slli	x28,x19,0xd	 x19:0x00fff48b x28=0xfe916000
       85215000	      8520	800013e0	02394263	blt	x18,x3,80001404	 x18:0x8000032e  x3:0x00fff800
       85225000	      8521	00000000	00000013	addi	x0,x0,0	  x0:0x00000000
       85235000	      8522	80001400	00000013	addi	x0,x0,0	  x0:0x00000000
       85245000	      8523	80001404	ebc5e013	ori	x0,x11,-324	 x11:0xaf726000
       85255000	      8524	80001408	7481c493	xori	x9,x3,1864	  x3:0x00fff800  x9=0x00ffff48
       85265000	      8525	8000140c	027f5263	bge	x30,x7,80001430	 x30:0x00000000  x7:0x5eee01a0
       85275000	      8526	80001410	4938bd93	sltiu	x27,x17,1171	 x17:0x87978000 x27=0x00000000
       85285000	      8527	80001414	014b37b3	sltu	x15,x22,x20	 x22:0xed0b5328 x20:0x00000001 x15=0x00000000
       85295000	      8528	80001418	40248633	sub	x12,x9,x2	  x9:0x00ffff48  x2:0x00000001 x12=0x00ffff47
       85305000	      8529	8000141c	41bcd433	sra	x8,x25,x27	 x25:0xa111fecd x27:0x00000000  x8=0xa111fecd
       85315000	      8530	80001420	01791a93	slli	x21,x18,0x17	 x18:0x8000032e x21=0x97000000
       85325000	      8531	80001424	01e36733	or	x14,x6,x30	  x6:0x00000000 x30:0x00000000 x14=0x00000000
       85335000	      8532	80001428	b1882513	slti	x10,x16,-1256	 x16:0x80009fc4 x10=0x00000001
       85345000	      8533	8000142c	41c156b3	sra	x13,x2,x28	  x2:0x00000001 x28:0xfe916000 x13=0x00000001
       85355000	      8534	80001430	f9103513	sltiu	x10,x0,-111	  x0:0x00000000 x10=0x00000001
       85365000	      8535	80001434	04806263	bltu	x0,x8,80001478	  x0:0x00000000  x8:0xa111fecd
       85375000	      8536	00000000	00000013	addi	x0,x0,0	  x0:0x00000000
       85385000	      8537	80001474	00000013	addi	x0,x0,0	  x0:0x00000000
       85395000	      8538	80001478	00e8b6b3	sltu	x13,x17,x14	 x17:0x87978000 x14:0x00000000 x13=0x00000000
       85405000	      8539	8000147c	00e67e63	bgeu	x12,x14,80001498	 x12:0x00ffff47 x14:0x00000000
       85415000	      8540	00000000	00000013	addi	x0,x0,0	  x0:0x00000000
       85425000	      8541	80001494	00000013	addi	x0,x0,0	  x0:0x00000000
       85435000	      8542	80001498	02da5c63	bge	x20,x13,800014d0	 x20:0x00000001 x13:0x00000000
       85445000	      8543	00000000	00000013	addi	x0,x0,0	  x0:0x00000000
       85455000	      8544	800014cc	00000013	addi	x0,x0,0	  x0:0x00000000
       85465000	      8545	800014d0	007d6663	bltu	x26,x7,800014dc	 x26:0x0000000a  x7:0x5eee01a0
       85475000	      8546	00000000	00000013	addi	x0,x0,0	  x0:0x00000000
       85485000	      8547	800014d8	00000013	addi	x0,x0,0	  x0:0x00000000
       85495000	      8548	800014dc	6eaf4493	xori	x9,x30,1770	 x30:0x00000000  x9=0x000006ea
       85505000	      8549	800014e0	87878a93	addi	x21,x15,-1928	 x15:0x00000000 x21=0xfffff878
       85515000	      8550	800014e4	0075ff33	and	x30,x11,x7	 x11:0xaf726000  x7:0x5eee01a0 x30=0x0e620000
       85525000	      8551	800014e8	79aa2f37	lui	x30,0x79aa2	 x30=0x79aa2000
       85535000	      8552	800014ec	01ac7fb3	and	x31,x24,x26	 x24:0x00000000 x26:0x0000000a x31=0x00000000
       85545000	      8553	800014f0	0057eb33	or	x22,x15,x5	 x15:0x00000000  x5:0x00000000 x22=0x00000000
       85555000	      8554	800014f4	41c403b3	sub	x7,x8,x28	  x8:0xa111fecd x28:0xfe916000  x7=0xa2809ecd
       85565000	      8555	800014f8	5729db37	lui	x22,0x5729d	 x22=0x5729d000
       85575000	      8556	800014fc	76c0036f	jal	x6,800014fc	  x6=0x800014fc
       85585000	      8557	00000000	00000013	addi	x0,x0,0	  x0:0x00000000
       85595000	      8558	80001c64	00000013	addi	x0,x0,0	  x0:0x00000000
       85605000	      8559	80001c68	fc0b8b93	addi	x23,x23,-64	 x23:0x80009ee8 x23=0x80009ea8
       85615000	      8560	80001c6c	01b3c3b3	xor	x7,x7,x27	  x7:0xa2809ecd x27:0x00000000  x7=0xa2809ecd
       85625000	      8561	80001c70	40b05693	srai	x13,x0,0xb	  x0:0x00000000 x13=0x00000000
       85635000	      8562	80001c74	40905f33	sra	x30,x0,x9	  x0:0x00000000  x9:0x000006ea x30=0x00000000
       85645000	      8563	80001c78	006ba223	sw	x6,4(x23)	 x23:0x80009ea8  x6:0x800014fc PA:0x80009eac
       85655000	      8564	80001c7c	01d73633	sltu	x12,x14,x29	 x14:0x00000000 x29:0x00000001 x12=0x00000001
       85665000	      8565	80001c80	1f0fa993	slti	x19,x31,496	 x31:0x00000000 x19=0x00000001
       85675000	      8566	80001c84	01198233	add	x4,x19,x17	 x19:0x00000001 x17:0x87978000  x4=0x87978001
       85685000	      8567	80001c88	00325a93	srli	x21,x4,0x3	  x4:0x87978001 x21=0x10f2f000
       85695000	      8568	80001c8c	0c3bee63	bltu	x23,x3,80001d68	 x23:0x80009ea8  x3:0x00fff800
       85705000	      8569	80001c90	00aed193	srli	x3,x29,0xa	 x29:0x00000001  x3=0x00000000
       85715000	      8570	80001c94	00007117	auipc	x2,0x7	  x2=0x80008c90
       85725000	      8571	80001c98	8b510113	addi	x2,x2,-1867	  x2:0x80008c90  x2=0x80008545
       85735000	      8572	80001c9c	04a10683	lb	x13,74(x2)	  x2:0x80008545 x13=0x00000044 PA:0x8000858f
       85745000	      8573	80001ca0	fe98e613	ori	x12,x17,-23	 x17:0x87978000 x12=0xffffffe9
       85755000	      8574	80001ca4	003121b3	slt	x3,x2,x3	  x2:0x80008545  x3:0x00000000  x3=0x00000001
       85765000	      8575	80001ca8	fc30be97	auipc	x29,0xfc30b	 x29=0x7c30cca4
       85775000	      8576	80001cac	0174e1b3	or	x3,x9,x23	  x9:0x000006ea x23:0x80009ea8  x3=0x80009eea
       85785000	      8577	80001cb0	006697b3	sll	x15,x13,x6	 x13:0x00000044  x6:0x800014fc x15=0x40000000
       85795000	      8578	80001cb4	f2510fa3	sb	x5,-193(x2)	  x2:0x80008545  x5:0x00000000 PA:0x80008484
       85805000	      8579	80001cb8	f11101a3	sb	x17,-253(x2)	  x2:0x80008545 x17:0x87978000 PA:0x80008448
       85815000	      8580	80001cbc	e68c7c97	auipc	x25,0xe68c7	 x25=0x668c8cb8
       85825000	      8581	80001cc0	3b91f893	andi	x17,x3,953	  x3:0x80009eea x17=0x000002a8
       85835000	      8582	80001cc4	41be87b3	sub	x15,x29,x27	 x29:0x7c30cca4 x27:0x00000000 x15=0x7c30cca4
       85845000	      8583	80001cc8	0b210883	lb	x17,178(x2)	  x2:0x80008545 x17=0xffffffac PA:0x800085f7
       85855000	      8584	80001ccc	01946433	or	x8,x8,x25	  x8:0xa111fecd x25:0x668c8cb8  x8=0xe79dfefd
       85865000	      8585	80001cd0	00666233	or	x4,x12,x6	 x12:0xffffffe9  x6:0x800014fc  x4=0xfffffffd
       85875000	      8586	80001cd4	f65105a3	sb	x5,-149(x2)	  x2:0x80008545  x5:0x00000000 PA:0x800084b0
       85885000	      8587	80001cd8	009734b3	sltu	x9,x14,x9	 x14:0x00000000  x9:0x000006ea  x9=0x00000001
       85895000	      8588	80001cdc	02410003	lb	x0,36(x2)	  x2:0x80008545 PA:0x80008569
       85905000	      8589	80001ce0	fb911683	lh	x13,-71(x2)	  x2:0x80008545 x13=0xffffb4b5 PA:0x800084fe
       85915000	      8590	80001ce4	01ab8ab3	add	x21,x23,x26	 x23:0x80009ea8 x26:0x0000000a x21=0x80009eb2
       85925000	      8591	80001ce8	0ba11aa3	sh	x26,181(x2)	  x2:0x80008545 x26:0x0000000a PA:0x800085fa
       85935000	      8592	80001cec	f0e109a3	sb	x14,-237(x2)	  x2:0x80008545 x14:0x00000000 PA:0x80008458
       85945000	      8593	80001cf0	0fd15d03	lhu	x26,253(x2)	  x2:0x80008545 x26=0x0000f8f9 PA:0x80008642
       85955000	      8594	80001cf4	005cbb33	sltu	x22,x25,x5	 x25:0x668c8cb8  x5:0x00000000 x22=0x00000000
       85965000	      8595	80001cf8	408652b3	sra	x5,x12,x8	 x12:0xffffffe9  x8:0xe79dfefd  x5=0xffffffff
       85975000	      8596	80001cfc	0159d013	srli	x0,x19,0x15	 x19:0x00000001
       85985000	      8597	80001d00	04b10223	sb	x11,68(x2)	  x2:0x80008545 x11:0xaf726000 PA:0x80008589
       85995000	      8598	80001d04	00c59a93	slli	x21,x11,0xc	 x11:0xaf726000 x21=0x26000000
       86005000	      8599	80001d08	41bc5e13	srai	x28,x24,0x1b	 x24:0x00000000 x28=0x00000000
       86015000	      8600	80001d0c	08111ea3	sh	x1,157(x2)	  x2:0x80008545  x1:0x80000000 PA:0x800085e2
       86025000	      8601	80001d10	0015bb33	sltu	x22,x11,x1	 x11:0xaf726000  x1:0x80000000 x22=0x00000000
       86035000	      8602	80001d14	01b15183	lhu	x3,27(x2)	  x2:0x80008545  x3=0x00001a1b PA:0x80008560
       86045000	      8603	80001d18	03d14483	lbu	x9,61(x2)	  x2:0x80008545  x9=0x00000039 PA:0x80008582
       86055000	      8604	80001d1c	01311883	lh	x17,19(x2)	  x2:0x80008545 x17=0x00001213 PA:0x80008558
       86065000	      8605	80001d20	1945c713	xori	x14,x11,404	 x11:0xaf726000 x14=0xaf726194
       86075000	      8606	80001d24	f6510623	sb	x5,-148(x2)	  x2:0x80008545  x5:0xffffffff PA:0x800084b1
       86085000	      8607	80001d28	0090c433	xor	x8,x1,x9	  x1:0x80000000  x9:0x00000039  x8=0x80000039
       86095000	      8608	80001d2c	f9d10523	sb	x29,-118(x2)	  x2:0x80008545 x29:0x7c30cca4 PA:0x800084cf
       86105000	      8609	80001d30	00fe4b33	xor	x22,x28,x15	 x28:0x00000000 x15:0x7c30cca4 x22=0x7c30cca4
       86115000	      8610	80001d34	03b10523	sb	x27,42(x2)	  x2:0x80008545 x27:0x00000000 PA:0x8000856f
       86125000	      8611	80001d38	1b92beb7	lui	x29,0x1b92b	 x29=0x1b92b000
       86135000	      8612	80001d3c	fe514703	lbu	x14,-27(x2)	  x2:0x80008545 x14=0x000000e1 PA:0x8000852a
       86145000	      8613	80001d40	02439c63	bne	x7,x4,80001d78	  x7:0xa2809ecd  x4:0xfffffffd
       86155000	      8614	00000000	00000013	addi	x0,x0,0	  x0:0x00000000
       86165000	      8615	80001d74	00000013	addi	x0,x0,0	  x0:0x00000000
       86175000	      8616	80001d78	41778fb3	sub	x31,x15,x23	 x15:0x7c30cca4 x23:0x80009ea8 x31=0xfc302dfc
       86185000	      8617	80001d7c	00467d33	and	x26,x12,x4	 x12:0xffffffe9  x4:0xfffffffd x26=0xffffffe9
       86195000	      8618	80001d80	000d4433	xor	x8,x26,x0	 x26:0xffffffe9  x0:0x00000000  x8=0xffffffe9
       86205000	      8619	80001d84	00ed5533	srl	x10,x26,x14	 x26:0xffffffe9 x14:0x000000e1 x10=0x7ffffff4
       86215000	      8620	80001d88	dbf1f193	andi	x3,x3,-577	  x3:0x00001a1b  x3=0x0000181b
       86225000	      8621	80001d8c	710e3c93	sltiu	x25,x28,1808	 x28:0x00000000 x25=0x00000001
       86235000	      8622	80001d90	40a68a33	sub	x20,x13,x10	 x13:0xffffb4b5 x10:0x7ffffff4 x20=0x7fffb4c1
       86245000	      8623	80001d94	05dcc663	blt	x25,x29,80001de0	 x25:0x00000001 x29:0x1b92b000
       86255000	      8624	00000000	00000013	addi	x0,x0,0	  x0:0x00000000
       86265000	      8625	80001ddc	00000013	addi	x0,x0,0	  x0:0x00000000
       86275000	      8626	80001de0	05899063	bne	x19,x24,80001e20	 x19:0x00000001 x24:0x00000000
       86285000	      8627	00000000	00000013	addi	x0,x0,0	  x0:0x00000000
       86295000	      8628	80001e1c	00000013	addi	x0,x0,0	  x0:0x00000000
       86305000	      8629	80001e20	402905b3	sub	x11,x18,x2	 x18:0x8000032e  x2:0x80008545 x11=0xffff7de9
       86315000	      8630	80001e24	77b42313	slti	x6,x8,1915	  x8:0xffffffe9  x6=0x00000001
       86325000	      8631	80001e28	0042d463	bge	x5,x4,80001e30	  x5:0xffffffff  x4:0xfffffffd
       86335000	      8632	00000000	00000013	addi	x0,x0,0	  x0:0x00000000
       86345000	      8633	80001e2c	00000013	addi	x0,x0,0	  x0:0x00000000
       86355000	      8634	80001e30	489d2913	slti	x18,x26,1161	 x26:0xffffffe9 x18=0x00000001
       86365000	      8635	80001e34	d35c6993	ori	x19,x24,-715	 x24:0x00000000 x19=0xfffffd35
       86375000	      8636	80001e38	79196593	ori	x11,x18,1937	 x18:0x00000001 x11=0x00000791
       86385000	      8637	80001e3c	4095d693	srai	x13,x11,0x9	 x11:0x00000791 x13=0x00000003
       86395000	      8638	80001e40	41425a13	srai	x20,x4,0x14	  x4:0xfffffffd x20=0xffffffff
       86405000	      8639	80001e44	01e9ca33	xor	x20,x19,x30	 x19:0xfffffd35 x30:0x00000000 x20=0xfffffd35
       86415000	      8640	80001e48	010434b3	sltu	x9,x8,x16	  x8:0xffffffe9 x16:0x80009fc4  x9=0x00000000
       86425000	      8641	80001e4c	00717793	andi	x15,x2,7	  x2:0x80008545 x15=0x00000005
       86435000	      8642	80001e50	40695b33	sra	x22,x18,x6	 x18:0x00000001  x6:0x00000001 x22=0x00000000
       86445000	      8643	80001e54	039e4c63	blt	x28,x25,80001e8c	 x28:0x00000000 x25:0x00000001
       86455000	      8644	00000000	00000013	addi	x0,x0,0	  x0:0x00000000
       86465000	      8645	80001e88	00000013	addi	x0,x0,0	  x0:0x00000000
       86475000	      8646	80001e8c	008d0cb3	add	x25,x26,x8	 x26:0xffffffe9  x8:0xffffffe9 x25=0xffffffd2
       86485000	      8647	80001e90	81228cb7	lui	x25,0x81228	 x25=0x81228000
       86495000	      8648	80001e94	4a77c193	xori	x3,x15,1191	 x15:0x00000005  x3=0x000004a2
       86505000	      8649	80001e98	013cf633	and	x12,x25,x19	 x25:0x81228000 x19:0xfffffd35 x12=0x81228000
       86515000	      8650	80001e9c	00000013	addi	x0,x0,0	  x0:0x00000000
       86525000	      8651	80001ea0	00000013	addi	x0,x0,0	  x0:0x00000000
       86535000	      8652	80001ea4	4079dcb3	sra	x25,x19,x7	 x19:0xfffffd35  x7:0xa2809ecd x25=0xffffffff
       86545000	      8653	80001ea8	05fec663	blt	x29,x31,80001ef4	 x29:0x1b92b000 x31:0xfc302dfc
       86555000	      8654	80001eac	92944213	xori	x4,x8,-1751	  x8:0xffffffe9  x4=0x000006c0
       86565000	      8655	80001eb0	bd24b393	sltiu	x7,x9,-1070	  x9:0x00000000  x7=0x00000001
       86575000	      8656	80001eb4	013474b3	and	x9,x8,x19	  x8:0xffffffe9 x19:0xfffffd35  x9=0xfffffd21
       86585000	      8657	80001eb8	6d2aa697	auipc	x13,0x6d2aa	 x13=0xed2abeb4
       86595000	      8658	80001ebc	0041ca63	blt	x3,x4,80001ed0	  x3:0x000004a2  x4:0x000006c0
       86605000	      8659	00000000	00000013	addi	x0,x0,0	  x0:0x00000000
       86615000	      8660	80001ecc	00000013	addi	x0,x0,0	  x0:0x00000000
       86625000	      8661	80001ed0	3e5b6113	ori	x2,x22,997	 x22:0x00000000  x2=0x000003e5
       86635000	      8662	80001ed4	4040d2b3	sra	x5,x1,x4	  x1:0x80000000  x4:0x000006c0  x5=0x80000000
       86645000	      8663	80001ed8	02825263	bge	x4,x8,80001efc	  x4:0x000006c0  x8:0xffffffe9
       86655000	      8664	00000000	00000013	addi	x0,x0,0	  x0:0x00000000
       86665000	      8665	80001ef8	00000013	addi	x0,x0,0	  x0:0x00000000
       86675000	      8666	80001efc	41d75613	srai	x12,x14,0x1d	 x14:0x000000e1 x12=0x00000000
       86685000	      8667	80001f00	02b27863	bgeu	x4,x11,80001f30	  x4:0x000006c0 x11:0x00000791
       86695000	      8668	80001f04	0595c063	blt	x11,x25,80001f44	 x11:0x00000791 x25:0xffffffff
       86705000	      8669	80001f08	406908b3	sub	x17,x18,x6	 x18:0x00000001  x6:0x00000001 x17=0x00000000
       86715000	      8670	80001f0c	923df313	andi	x6,x27,-1757	 x27:0x00000000  x6=0x00000000
       86725000	      8671	80001f10	d15e8193	addi	x3,x29,-747	 x29:0x1b92b000  x3=0x1b92ad15
       86735000	      8672	80001f14	002f9013	slli	x0,x31,0x2	 x31:0xfc302dfc
       86745000	      8673	80001f18	01945b13	srli	x22,x8,0x19	  x8:0xffffffe9 x22=0x0000007f
       86755000	      8674	80001f1c	01ac5333	srl	x6,x24,x26	 x24:0x00000000 x26:0xffffffe9  x6=0x00000000
       86765000	      8675	80001f20	01cb12b3	sll	x5,x22,x28	 x22:0x0000007f x28:0x00000000  x5=0x0000007f
       86775000	      8676	80001f24	426f3f13	sltiu	x30,x30,1062	 x30:0x00000000 x30=0x00000001
       86785000	      8677	80001f28	cdee7c93	andi	x25,x28,-802	 x28:0x00000000 x25=0x00000000
       86795000	      8678	80001f2c	01d04463	blt	x0,x29,80001f34	  x0:0x00000000 x29:0x1b92b000
       86805000	      8679	00000000	00000013	addi	x0,x0,0	  x0:0x00000000
       86815000	      8680	80001f30	00000013	addi	x0,x0,0	  x0:0x00000000
       86825000	      8681	80001f34	d9873393	sltiu	x7,x14,-616	 x14:0x000000e1  x7=0x00000001
       86835000	      8682	80001f38	00000013	addi	x0,x0,0	  x0:0x00000000
       86845000	      8683	80001f3c	00970233	add	x4,x14,x9	 x14:0x000000e1  x9:0xfffffd21  x4=0xfffffe02
       86855000	      8684	80001f40	d3017613	andi	x12,x2,-720	  x2:0x000003e5 x12=0x00000120
       86865000	      8685	80001f44	019e9533	sll	x10,x29,x25	 x29:0x1b92b000 x25:0x00000000 x10=0x1b92b000
       86875000	      8686	80001f48	02f81463	bne	x16,x15,80001f70	 x16:0x80009fc4 x15:0x00000005
       86885000	      8687	00000000	00000013	addi	x0,x0,0	  x0:0x00000000
       86895000	      8688	80001f6c	00000013	addi	x0,x0,0	  x0:0x00000000
       86905000	      8689	80001f70	006cf433	and	x8,x25,x6	 x25:0x00000000  x6:0x00000000  x8=0x00000000
       86915000	      8690	80001f74	00260263	beq	x12,x2,80001f78	 x12:0x00000120  x2:0x000003e5
       86925000	      8691	80001f78	00e083b3	add	x7,x1,x14	  x1:0x80000000 x14:0x000000e1  x7=0x800000e1
       86935000	      8692	80001f7c	5cdfb193	sltiu	x3,x31,1485	 x31:0xfc302dfc  x3=0x00000000
       86945000	      8693	80001f80	c91a4e13	xori	x28,x20,-879	 x20:0xfffffd35 x28=0x000001a4
       86955000	      8694	80001f84	dd09be93	sltiu	x29,x19,-560	 x19:0xfffffd35 x29=0x00000001
       86965000	      8695	80001f88	1f17e737	lui	x14,0x1f17e	 x14=0x1f17e000
       86975000	      8696	80001f8c	01541c33	sll	x24,x8,x21	  x8:0x00000000 x21:0x26000000 x24=0x00000000
       86985000	      8697	80001f90	00188463	beq	x17,x1,80001f98	 x17:0x00000000  x1:0x80000000
       86995000	      8698	80001f94	008989b3	add	x19,x19,x8	 x19:0xfffffd35  x8:0x00000000 x19=0xfffffd35
       87005000	      8699	80001f98	009f95b3	sll	x11,x31,x9	 x31:0xfc302dfc  x9:0xfffffd21 x11=0xf8605bf8
       87015000	      8700	80001f9c	017a9233	sll	x4,x21,x23	 x21:0x26000000 x23:0x80009ea8  x4=0x00000000
       87025000	      8701	80001fa0	37febb13	sltiu	x22,x29,895	 x29:0x00000001 x22=0x00000001
       87035000	      8702	80001fa4	0509fc63	bgeu	x19,x16,80001ffc	 x19:0xfffffd35 x16:0x80009fc4
       87045000	      8703	00000000	00000013	addi	x0,x0,0	  x0:0x00000000
       87055000	      8704	80001ff8	00000013	addi	x0,x0,0	  x0:0x00000000
       87065000	      8705	80001ffc	00000013	addi	x0,x0,0	  x0:0x00000000
       87075000	      8706	80002000	047c9663	bne	x25,x7,8000204c	 x25:0x00000000  x7:0x800000e1
       87085000	      8707	00000000	00000013	addi	x0,x0,0	  x0:0x00000000
       87095000	      8708	80002048	00000013	addi	x0,x0,0	  x0:0x00000000
       87105000	      8709	8000204c	3efefd93	andi	x27,x29,1007	 x29:0x00000001 x27=0x00000001
       87115000	      8710	80002050	644b4d13	xori	x26,x22,1604	 x22:0x00000001 x26=0x00000645
       87125000	      8711	80002054	00247463	bgeu	x8,x2,8000205c	  x8:0x00000000  x2:0x000003e5
       87135000	      8712	80002058	40430ab3	sub	x21,x6,x4	  x6:0x00000000  x4:0x00000000 x21=0x00000000
       87145000	      8713	8000205c	00232db3	slt	x27,x6,x2	  x6:0x00000000  x2:0x000003e5 x27=0x00000001
       87155000	      8714	80002060	403b5f33	sra	x30,x22,x3	 x22:0x00000001  x3:0x00000000 x30=0x00000001
       87165000	      8715	80002064	486dee13	ori	x28,x27,1158	 x27:0x00000001 x28=0x00000487
       87175000	      8716	80002068	01e41633	sll	x12,x8,x30	  x8:0x00000000 x30:0x00000001 x12=0x00000000
       87185000	      8717	8000206c	f1957893	andi	x17,x10,-231	 x10:0x1b92b000 x17=0x1b92b000
       87195000	      8718	80002070	02169863	bne	x13,x1,800020a0	 x13:0xed2abeb4  x1:0x80000000
       87205000	      8719	00000000	00000013	addi	x0,x0,0	  x0:0x00000000
       87215000	      8720	8000209c	00000013	addi	x0,x0,0	  x0:0x00000000
       87225000	      8721	800020a0	01251663	bne	x10,x18,800020ac	 x10:0x1b92b000 x18:0x00000001
       87235000	      8722	00000000	00000013	addi	x0,x0,0	  x0:0x00000000
       87245000	      8723	800020a8	00000013	addi	x0,x0,0	  x0:0x00000000
       87255000	      8724	800020ac	40880cb3	sub	x25,x16,x8	 x16:0x80009fc4  x8:0x00000000 x25=0x80009fc4
       87265000	      8725	800020b0	000a0e33	add	x28,x20,x0	 x20:0xfffffd35  x0:0x00000000 x28=0xfffffd35
       87275000	      8726	800020b4	28660493	addi	x9,x12,646	 x12:0x00000000  x9=0x00000286
       87285000	      8727	800020b8	01ab3a33	sltu	x20,x22,x26	 x22:0x00000001 x26:0x00000645 x20=0x00000001
       87295000	      8728	800020bc	416d8b33	sub	x22,x27,x22	 x27:0x00000001 x22:0x00000001 x22=0x00000000
       87305000	      8729	800020c0	0028b533	sltu	x10,x17,x2	 x17:0x1b92b000  x2:0x000003e5 x10=0x00000000
       87315000	      8730	800020c4	440fb593	sltiu	x11,x31,1088	 x31:0xfc302dfc x11=0x00000000
       87325000	      8731	800020c8	018fc733	xor	x14,x31,x24	 x31:0xfc302dfc x24:0x00000000 x14=0xfc302dfc
       87335000	      8732	800020cc	da0aa293	slti	x5,x21,-608	 x21:0x00000000  x5=0x00000000
       87345000	      8733	800020d0	40288733	sub	x14,x17,x2	 x17:0x1b92b000  x2:0x000003e5 x14=0x1b92ac1b
       87355000	      8734	800020d4	00b5f663	bgeu	x11,x11,800020e0	 x11:0x00000000 x11:0x00000000
       87365000	      8735	00000000	00000013	addi	x0,x0,0	  x0:0x00000000
       87375000	      8736	800020dc	00000013	addi	x0,x0,0	  x0:0x00000000
       87385000	      8737	800020e0	00c7d633	srl	x12,x15,x12	 x15:0x00000005 x12:0x00000000 x12=0x00000005
       87395000	      8738	800020e4	01513533	sltu	x10,x2,x21	  x2:0x000003e5 x21:0x00000000 x10=0x00000000
       87405000	      8739	800020e8	017c3033	sltu	x0,x24,x23	 x24:0x00000000 x23:0x80009ea8
       87415000	      8740	800020ec	0114da63	bge	x9,x17,80002100	  x9:0x00000286 x17:0x1b92b000
       87425000	      8741	800020f0	755b7237	lui	x4,0x755b7	  x4=0x755b7000
       87435000	      8742	800020f4	013b69b3	or	x19,x22,x19	 x22:0x00000000 x19:0xfffffd35 x19=0xfffffd35
       87445000	      8743	800020f8	00b6d463	bge	x13,x11,80002100	 x13:0xed2abeb4 x11:0x00000000
       87455000	      8744	800020fc	00608db3	add	x27,x1,x6	  x1:0x80000000  x6:0x00000000 x27=0x80000000
       87465000	      8745	80002100	00000013	addi	x0,x0,0	  x0:0x00000000
       87475000	      8746	80002104	016f1233	sll	x4,x30,x22	 x30:0x00000001 x22:0x00000000  x4=0x00000001
       87485000	      8747	80002108	004ba303	lw	x6,4(x23)	 x23:0x80009ea8  x6=0x800014fc PA:0x80009eac
       87495000	      8748	8000210c	0083ceb3	xor	x29,x7,x8	  x7:0x800000e1  x8:0x00000000 x29=0x800000e1
       87505000	      8749	80002110	040b8b93	addi	x23,x23,64	 x23:0x80009ea8 x23=0x80009ee8
       87515000	      8750	80002114	0573cb37	lui	x22,0x573c	 x22=0x0573c000
       87525000	      8751	80002118	00107193	andi	x3,x0,1	  x0:0x00000000  x3=0x00000000
       87535000	      8752	8000211c	006a04b3	add	x9,x20,x6	 x20:0x00000001  x6:0x800014fc  x9=0x800014fd
       87545000	      8753	80002120	01a791b3	sll	x3,x15,x26	 x15:0x00000005 x26:0x00000645  x3=0x000000a0
       87555000	      8754	80002124	00030393	addi	x7,x6,0	  x6:0x800014fc  x7=0x800014fc
       87565000	      8755	80002128	000383e7	jalr	x7,x7,0	  x7:0x800014fc  x7=0x80002128
       87575000	      8756	00000000	00000013	addi	x0,x0,0	  x0:0x00000000
       87585000	      8757	800014fc	00000013	addi	x0,x0,0	  x0:0x00000000
       87595000	      8758	80001500	0197df13	srli	x30,x15,0x19	 x15:0x00000005 x30=0x00000000
       87605000	      8759	80001504	011c5eb3	srl	x29,x24,x17	 x24:0x00000000 x17:0x1b92b000 x29=0x00000000
       87615000	      8760	80001508	2f322413	slti	x8,x4,755	  x4:0x00000001  x8=0x00000001
       87625000	      8761	8000150c	004124b3	slt	x9,x2,x4	  x2:0x000003e5  x4:0x00000001  x9=0x00000000
       87635000	      8762	80001510	00f682b3	add	x5,x13,x15	 x13:0xed2abeb4 x15:0x00000005  x5=0xed2abeb9
       87645000	      8763	80001514	cc32e113	ori	x2,x5,-829	  x5:0xed2abeb9  x2=0xfffffefb
       87655000	      8764	80001518	009699b3	sll	x19,x13,x9	 x13:0xed2abeb4  x9:0x00000000 x19=0xed2abeb4
       87665000	      8765	8000151c	d9257213	andi	x4,x10,-622	 x10:0x00000000  x4=0x00000000
       87675000	      8766	80001520	03554463	blt	x10,x21,80001548	 x10:0x00000000 x21:0x00000000
       87685000	      8767	80001524	00e60263	beq	x12,x14,80001528	 x12:0x00000005 x14:0x1b92ac1b
       87695000	      8768	80001528	017a7c33	and	x24,x20,x23	 x20:0x00000001 x23:0x80009ee8 x24=0x00000000
       87705000	      8769	8000152c	0457e863	bltu	x15,x5,8000157c	 x15:0x00000005  x5:0xed2abeb9
       87715000	      8770	00000000	00000013	addi	x0,x0,0	  x0:0x00000000
       87725000	      8771	80001578	00000013	addi	x0,x0,0	  x0:0x00000000
       87735000	      8772	8000157c	b8a17413	andi	x8,x2,-1142	  x2:0xfffffefb  x8=0xfffffa8a
       87745000	      8773	80001580	a31b4193	xori	x3,x22,-1487	 x22:0x0573c000  x3=0xfa8c3a31
       87755000	      8774	80001584	40f308b3	sub	x17,x6,x15	  x6:0x800014fc x15:0x00000005 x17=0x800014f7
       87765000	      8775	80001588	003e8eb3	add	x29,x29,x3	 x29:0x00000000  x3:0xfa8c3a31 x29=0xfa8c3a31
       87775000	      8776	8000158c	01916463	bltu	x2,x25,80001594	  x2:0xfffffefb x25:0x80009fc4
       87785000	      8777	80001590	41795793	srai	x15,x18,0x17	 x18:0x00000001 x15=0x00000000
       87795000	      8778	80001594	005d84b3	add	x9,x27,x5	 x27:0x80000000  x5:0xed2abeb9  x9=0x6d2abeb9
       87805000	      8779	80001598	011c5913	srli	x18,x24,0x11	 x24:0x00000000 x18=0x00000000
       87815000	      8780	8000159c	c2b77193	andi	x3,x14,-981	 x14:0x1b92ac1b  x3=0x1b92ac0b
       87825000	      8781	800015a0	013a97b3	sll	x15,x21,x19	 x21:0x00000000 x19:0xed2abeb4 x15=0x00000000
       87835000	      8782	800015a4	01a81693	slli	x13,x16,0x1a	 x16:0x80009fc4 x13=0x10000000
       87845000	      8783	800015a8	41e35c93	srai	x25,x6,0x1e	  x6:0x800014fc x25=0xfffffffe
       87855000	      8784	800015ac	014b65b3	or	x11,x22,x20	 x22:0x0573c000 x20:0x00000001 x11=0x0573c001
       87865000	      8785	800015b0	0115a3b3	slt	x7,x11,x17	 x11:0x0573c001 x17:0x800014f7  x7=0x00000000
       87875000	      8786	800015b4	01035193	srli	x3,x6,0x10	  x6:0x800014fc  x3=0x00008000
       87885000	      8787	800015b8	052af863	bgeu	x21,x18,80001608	 x21:0x00000000 x18:0x00000000
       87895000	      8788	00000000	00000013	addi	x0,x0,0	  x0:0x00000000
       87905000	      8789	80001604	00000013	addi	x0,x0,0	  x0:0x00000000
       87915000	      8790	80001608	00000013	addi	x0,x0,0	  x0:0x00000000
       87925000	      8791	8000160c	01b31793	slli	x15,x6,0x1b	  x6:0x800014fc x15=0xe0000000
       87935000	      8792	80001610	017f79b3	and	x19,x30,x23	 x30:0x00000000 x23:0x80009ee8 x19=0x00000000
       87945000	      8793	80001614	02055663	bge	x10,x0,80001640	 x10:0x00000000  x0:0x00000000
       87955000	      8794	00000000	00000013	addi	x0,x0,0	  x0:0x00000000
       87965000	      8795	8000163c	00000013	addi	x0,x0,0	  x0:0x00000000
       87975000	      8796	80001640	f07e2513	slti	x10,x28,-249	 x28:0xfffffd35 x10=0x00000001
       87985000	      8797	80001644	01ede1b3	or	x3,x27,x30	 x27:0x80000000 x30:0x00000000  x3=0x80000000
       87995000	      8798	80001648	013fd3b3	srl	x7,x31,x19	 x31:0xfc302dfc x19:0x00000000  x7=0xfc302dfc
       88005000	      8799	8000164c	01c95333	srl	x6,x18,x28	 x18:0x00000000 x28:0xfffffd35  x6=0x00000000
       88015000	      8800	80001650	0050d3b3	srl	x7,x1,x5	  x1:0x80000000  x5:0xed2abeb9  x7=0x00000040
       88025000	      8801	80001654	01996433	or	x8,x18,x25	 x18:0x00000000 x25:0xfffffffe  x8=0xfffffffe
       88035000	      8802	80001658	41c785b3	sub	x11,x15,x28	 x15:0xe0000000 x28:0xfffffd35 x11=0xe00002cb
       88045000	      8803	8000165c	8679f693	andi	x13,x19,-1945	 x19:0x00000000 x13=0x00000000
       88055000	      8804	80001660	41c5d433	sra	x8,x11,x28	 x11:0xe00002cb x28:0xfffffd35  x8=0xffffff00
       88065000	      8805	80001664	003215b3	sll	x11,x4,x3	  x4:0x00000000  x3:0x80000000 x11=0x00000000
       88075000	      8806	80001668	825b6213	ori	x4,x22,-2011	 x22:0x0573c000  x4=0xfffff825
       88085000	      8807	8000166c	011fca33	xor	x20,x31,x17	 x31:0xfc302dfc x17:0x800014f7 x20=0x7c30390b
       88095000	      8808	80001670	011983b3	add	x7,x19,x17	 x19:0x00000000 x17:0x800014f7  x7=0x800014f7
       88105000	      8809	80001674	f322c393	xori	x7,x5,-206	  x5:0xed2abeb9  x7=0x12d5418b
       88115000	      8810	80001678	01ae97b3	sll	x15,x29,x26	 x29:0xfa8c3a31 x26:0x00000645 x15=0x51874620
       88125000	      8811	8000167c	00297633	and	x12,x18,x2	 x18:0x00000000  x2:0xfffffefb x12=0x00000000
       88135000	      8812	80001680	002d27b3	slt	x15,x26,x2	 x26:0x00000645  x2:0xfffffefb x15=0x00000000
       88145000	      8813	80001684	53b3c993	xori	x19,x7,1339	  x7:0x12d5418b x19=0x12d544b0
       88155000	      8814	80001688	f3137c13	andi	x24,x6,-207	  x6:0x00000000 x24=0x00000000
       88165000	      8815	8000168c	3b6fff13	andi	x30,x31,950	 x31:0xfc302dfc x30=0x000001b4
       88175000	      8816	80001690	01bb4cb3	xor	x25,x22,x27	 x22:0x0573c000 x27:0x80000000 x25=0x8573c000
       88185000	      8817	80001694	01e54863	blt	x10,x30,800016a4	 x10:0x00000001 x30:0x000001b4
       88195000	      8818	00000000	00000013	addi	x0,x0,0	  x0:0x00000000
       88205000	      8819	800016a0	00000013	addi	x0,x0,0	  x0:0x00000000
       88215000	      8820	800016a4	014c8533	add	x10,x25,x20	 x25:0x8573c000 x20:0x7c30390b x10=0x01a3f90b
       88225000	      8821	800016a8	00008117	auipc	x2,0x8	  x2=0x800096a4
       88235000	      8822	800016ac	81d10113	addi	x2,x2,-2019	  x2:0x800096a4  x2=0x80008ec1
       88245000	      8823	800016b0	d1d10423	sb	x29,-760(x2)	  x2:0x80008ec1 x29:0xfa8c3a31 PA:0x80008bc9
       88255000	      8824	800016b4	01e78ab3	add	x21,x15,x30	 x15:0x00000000 x30:0x000001b4 x21=0x000001b4
       88265000	      8825	800016b8	5d7fc793	xori	x15,x31,1495	 x31:0xfc302dfc x15=0xfc30282b
       88275000	      8826	800016bc	627ab417	auipc	x8,0x627ab	  x8=0xe27ac6b8
       88285000	      8827	800016c0	c7a11ea3	sh	x26,-899(x2)	  x2:0x80008ec1 x26:0x00000645 PA:0x80008b3e
       88295000	      8828	800016c4	01fac433	xor	x8,x21,x31	 x21:0x000001b4 x31:0xfc302dfc  x8=0xfc302c48
       88305000	      8829	800016c8	f0a14d03	lbu	x26,-246(x2)	  x2:0x80008ec1 x26=0x000000b0 PA:0x80008dcb
       88315000	      8830	800016cc	01e8de93	srli	x29,x17,0x1e	 x17:0x800014f7 x29=0x00000002
       88325000	      8831	800016d0	f2114283	lbu	x5,-223(x2)	  x2:0x80008ec1  x5=0x000000c9 PA:0x80008de2
       88335000	      8832	800016d4	00f5f2b3	and	x5,x11,x15	 x11:0x00000000 x15:0xfc30282b  x5=0x00000000
       88345000	      8833	800016d8	00fd5db3	srl	x27,x26,x15	 x26:0x000000b0 x15:0xfc30282b x27=0x00000000
       88355000	      8834	800016dc	01b6c7b3	xor	x15,x13,x27	 x13:0x00000000 x27:0x00000000 x15=0x00000000
       88365000	      8835	800016e0	af30c893	xori	x17,x1,-1293	  x1:0x80000000 x17=0x7ffffaf3
       88375000	      8836	800016e4	2f45aa13	slti	x20,x11,756	 x11:0x00000000 x20=0x00000001
       88385000	      8837	800016e8	d8414f03	lbu	x30,-636(x2)	  x2:0x80008ec1 x30=0x0000002e PA:0x80008c45
       88395000	      8838	800016ec	40695693	srai	x13,x18,0x6	 x18:0x00000000 x13=0x00000000
       88405000	      8839	800016f0	6bb6fc13	andi	x24,x13,1723	 x13:0x00000000 x24=0x00000000
       88415000	      8840	800016f4	0004f8b3	and	x17,x9,x0	  x9:0x6d2abeb9  x0:0x00000000 x17=0x00000000
       88425000	      8841	800016f8	cd9e4c13	xori	x24,x28,-807	 x28:0xfffffd35 x24=0x000001ec
       88435000	      8842	800016fc	81ba8a93	addi	x21,x21,-2021	 x21:0x000001b4 x21=0xfffff9cf
       88445000	      8843	80001700	f0810703	lb	x14,-248(x2)	  x2:0x80008ec1 x14=0x00000000 PA:0x80008dc9
       88455000	      8844	80001704	01779933	sll	x18,x15,x23	 x15:0x00000000 x23:0x80009ee8 x18=0x00000000
       88465000	      8845	80001708	76f62393	slti	x7,x12,1903	 x12:0x00000000  x7=0x00000001
       88475000	      8846	8000170c	96e14683	lbu	x13,-1682(x2)	  x2:0x80008ec1 x13=0x00000014 PA:0x8000882f
       88485000	      8847	80001710	fb3405b7	lui	x11,0xfb340	 x11=0xfb340000
       88495000	      8848	80001714	00680733	add	x14,x16,x6	 x16:0x80009fc4  x6:0x00000000 x14=0x80009fc4
       88505000	      8849	80001718	c2010ca3	sb	x0,-967(x2)	  x2:0x80008ec1  x0:0x00000000 PA:0x80008afa
       88515000	      8850	8000171c	01f6e9b3	or	x19,x13,x31	 x13:0x00000014 x31:0xfc302dfc x19=0xfc302dfc
       88525000	      8851	80001720	019b1733	sll	x14,x22,x25	 x22:0x0573c000 x25:0x8573c000 x14=0x0573c000
       88535000	      8852	80001724	a2d10283	lb	x5,-1491(x2)	  x2:0x80008ec1  x5=0xffffffd5 PA:0x800088ee
       88545000	      8853	80001728	4020d733	sra	x14,x1,x2	  x1:0x80000000  x2:0x80008ec1 x14=0xc0000000
       88555000	      8854	8000172c	d8814283	lbu	x5,-632(x2)	  x2:0x80008ec1  x5=0x00000032 PA:0x80008c49
       88565000	      8855	80001730	a1e14383	lbu	x7,-1506(x2)	  x2:0x80008ec1  x7=0x000000c4 PA:0x800088df
       88575000	      8856	80001734	e6a14d83	lbu	x27,-406(x2)	  x2:0x80008ec1 x27=0x00000010 PA:0x80008d2b
       88585000	      8857	80001738	c9166f13	ori	x30,x12,-879	 x12:0x00000000 x30=0xfffffc91
       88595000	      8858	8000173c	cf2108a3	sb	x18,-783(x2)	  x2:0x80008ec1 x18:0x00000000 PA:0x80008bb2
       88605000	      8859	80001740	41408fb3	sub	x31,x1,x20	  x1:0x80000000 x20:0x00000001 x31=0x7fffffff
       88615000	      8860	80001744	417e01b3	sub	x3,x28,x23	 x28:0xfffffd35 x23:0x80009ee8  x3=0x7fff5e4d
       88625000	      8861	80001748	c2610603	lb	x12,-986(x2)	  x2:0x80008ec1 x12=0xffffffcc PA:0x80008ae7
       88635000	      8862	8000174c	00ae6c33	or	x24,x28,x10	 x28:0xfffffd35 x10:0x01a3f90b x24=0xfffffd3f
       88645000	      8863	80001750	f20c7f97	auipc	x31,0xf20c7	 x31=0x720c874c
       88655000	      8864	80001754	0083dc93	srli	x25,x7,0x8	  x7:0x000000c4 x25=0x00000000
       88665000	      8865	80001758	01d5af33	slt	x30,x11,x29	 x11:0xfb340000 x29:0x00000002 x30=0x00000001
       88675000	      8866	8000175c	8465ceb7	lui	x29,0x8465c	 x29=0x8465c000
       88685000	      8867	80001760	32f14a13	xori	x20,x2,815	  x2:0x80008ec1 x20=0x80008dee
       88695000	      8868	80001764	855ab913	sltiu	x18,x21,-1963	 x21:0xfffff9cf x18=0x00000000
       88705000	      8869	80001768	40f40f33	sub	x30,x8,x15	  x8:0xfc302c48 x15:0x00000000 x30=0xfc302c48
       88715000	      8870	8000176c	4e322293	slti	x5,x4,1251	  x4:0xfffff825  x5=0x00000001
       88725000	      8871	80001770	01674c63	blt	x14,x22,80001788	 x14:0xc0000000 x22:0x0573c000
       88735000	      8872	00000000	00000013	addi	x0,x0,0	  x0:0x00000000
       88745000	      8873	80001784	00000013	addi	x0,x0,0	  x0:0x00000000
       88755000	      8874	80001788	01d58633	add	x12,x11,x29	 x11:0xfb340000 x29:0x8465c000 x12=0x7f99c000
       88765000	      8875	8000178c	bd080993	addi	x19,x16,-1072	 x16:0x80009fc4 x19=0x80009b94
       88775000	      8876	80001790	1384a393	slti	x7,x9,312	  x9:0x6d2abeb9  x7=0x00000000
       88785000	      8877	80001794	841b3513	sltiu	x10,x22,-1983	 x22:0x0573c000 x10=0x00000001
       88795000	      8878	80001798	412dd893	srai	x17,x27,0x12	 x27:0x00000010 x17=0x00000000
       88805000	      8879	8000179c	415203b3	sub	x7,x4,x21	  x4:0xfffff825 x21:0xfffff9cf  x7=0xfffffe56
       88815000	      8880	800017a0	0129db33	srl	x22,x19,x18	 x19:0x80009b94 x18:0x00000000 x22=0x80009b94
       88825000	      8881	800017a4	b6d0e3b7	lui	x7,0xb6d0e	  x7=0xb6d0e000
       88835000	      8882	800017a8	00b3b433	sltu	x8,x7,x11	  x7:0xb6d0e000 x11:0xfb340000  x8=0x00000001
       88845000	      8883	800017ac	00000013	addi	x0,x0,0	  x0:0x00000000
       88855000	      8884	800017b0	6611a893	slti	x17,x3,1633	  x3:0x7fff5e4d x17=0x00000000
       88865000	      8885	800017b4	0b2fce93	xori	x29,x31,178	 x31:0x720c874c x29=0x720c87fe
       88875000	      8886	800017b8	01ae1d33	sll	x26,x28,x26	 x28:0xfffffd35 x26:0x000000b0 x26=0xfd350000
       88885000	      8887	800017bc	043b4663	blt	x22,x3,80001808	 x22:0x80009b94  x3:0x7fff5e4d
       88895000	      8888	00000000	00000013	addi	x0,x0,0	  x0:0x00000000
       88905000	      8889	80001804	00000013	addi	x0,x0,0	  x0:0x00000000
       88915000	      8890	80001808	418b5433	sra	x8,x22,x24	 x22:0x80009b94 x24:0xfffffd3f  x8=0xffffffff
       88925000	      8891	8000180c	9e168193	addi	x3,x13,-1567	 x13:0x00000014  x3=0xfffff9f5
       88935000	      8892	80001810	77943693	sltiu	x13,x8,1913	  x8:0xffffffff x13=0x00000000
       88945000	      8893	80001814	0157bfb3	sltu	x31,x15,x21	 x15:0x00000000 x21:0xfffff9cf x31=0x00000001
       88955000	      8894	80001818	00531333	sll	x6,x6,x5	  x6:0x00000000  x5:0x00000001  x6=0x00000000
       88965000	      8895	8000181c	01b29e63	bne	x5,x27,80001838	  x5:0x00000001 x27:0x00000010
       88975000	      8896	00000000	00000013	addi	x0,x0,0	  x0:0x00000000
       88985000	      8897	80001834	00000013	addi	x0,x0,0	  x0:0x00000000
       88995000	      8898	80001838	eba5a393	slti	x7,x11,-326	 x11:0xfb340000  x7=0x00000001
       89005000	      8899	8000183c	05505263	bge	x0,x21,80001880	  x0:0x00000000 x21:0xfffff9cf
       89015000	      8900	00000000	00000013	addi	x0,x0,0	  x0:0x00000000
       89025000	      8901	8000187c	00000013	addi	x0,x0,0	  x0:0x00000000
       89035000	      8902	80001880	026bf463	bgeu	x23,x6,800018a8	 x23:0x80009ee8  x6:0x00000000
       89045000	      8903	00000000	00000013	addi	x0,x0,0	  x0:0x00000000
       89055000	      8904	800018a4	00000013	addi	x0,x0,0	  x0:0x00000000
       89065000	      8905	800018a8	414b5413	srai	x8,x22,0x14	 x22:0x80009b94  x8=0xfffff800
       89075000	      8906	800018ac	9739a713	slti	x14,x19,-1677	 x19:0x80009b94 x14=0x00000001
       89085000	      8907	800018b0	419fd113	srai	x2,x31,0x19	 x31:0x00000001  x2=0x00000000
       89095000	      8908	800018b4	0e011697	auipc	x13,0xe011	 x13=0x8e0128b0
       89105000	      8909	800018b8	01495db3	srl	x27,x18,x20	 x18:0x00000000 x20:0x80008dee x27=0x00000000
       89115000	      8910	800018bc	00000013	addi	x0,x0,0	  x0:0x00000000
       89125000	      8911	800018c0	7ef13b37	lui	x22,0x7ef13	 x22=0x7ef13000
       89135000	      8912	800018c4	0396f263	bgeu	x13,x25,800018e8	 x13:0x8e0128b0 x25:0x00000000
       89145000	      8913	00000000	00000013	addi	x0,x0,0	  x0:0x00000000
       89155000	      8914	800018e4	00000013	addi	x0,x0,0	  x0:0x00000000
       89165000	      8915	800018e8	405fb013	sltiu	x0,x31,1029	 x31:0x00000001
       89175000	      8916	800018ec	0630c113	xori	x2,x1,99	  x1:0x80000000  x2=0x80000063
       89185000	      8917	800018f0	005e4233	xor	x4,x28,x5	 x28:0xfffffd35  x5:0x00000001  x4=0xfffffd34
       89195000	      8918	800018f4	26298b13	addi	x22,x19,610	 x19:0x80009b94 x22=0x80009df6
       89205000	      8919	800018f8	02cb4c63	blt	x22,x12,80001930	 x22:0x80009df6 x12:0x7f99c000
       89215000	      8920	00000000	00000013	addi	x0,x0,0	  x0:0x00000000
       89225000	      8921	8000192c	00000013	addi	x0,x0,0	  x0:0x00000000
       89235000	      8922	80001930	02415663	bge	x2,x4,8000195c	  x2:0x80000063  x4:0xfffffd34
       89245000	      8923	80001934	2cfc1b17	auipc	x22,0x2cfc1	 x22=0xacfc2930
       89255000	      8924	80001938	031f4263	blt	x30,x17,8000195c	 x30:0xfc302c48 x17:0x00000000
       89265000	      8925	00000000	00000013	addi	x0,x0,0	  x0:0x00000000
       89275000	      8926	80001958	00000013	addi	x0,x0,0	  x0:0x00000000
       89285000	      8927	8000195c	addb0db7	lui	x27,0xaddb0	 x27=0xaddb0000
       89295000	      8928	80001960	011e9d33	sll	x26,x29,x17	 x29:0x720c87fe x17:0x00000000 x26=0x720c87fe
       89305000	      8929	80001964	00fffe63	bgeu	x31,x15,80001980	 x31:0x00000001 x15:0x00000000
       89315000	      8930	00000000	00000013	addi	x0,x0,0	  x0:0x00000000
       89325000	      8931	8000197c	00000013	addi	x0,x0,0	  x0:0x00000000
       89335000	      8932	80001980	05fa8663	beq	x21,x31,800019cc	 x21:0xfffff9cf x31:0x00000001
       89345000	      8933	80001984	62ff2c13	slti	x24,x30,1583	 x30:0xfc302c48 x24=0x00000001
       89355000	      8934	80001988	6e5a6793	ori	x15,x20,1765	 x20:0x80008dee x15=0x80008fef
       89365000	      8935	8000198c	00fa5233	srl	x4,x20,x15	 x20:0x80008dee x15:0x80008fef  x4=0x00010001
       89375000	      8936	80001990	00000013	addi	x0,x0,0	  x0:0x00000000
       89385000	      8937	80001994	01c883b3	add	x7,x17,x28	 x17:0x00000000 x28:0xfffffd35  x7=0xfffffd35
       89395000	      8938	80001998	40005213	srai	x4,x0,0x0	  x0:0x00000000  x4=0x00000000
       89405000	      8939	8000199c	0193f633	and	x12,x7,x25	  x7:0xfffffd35 x25:0x00000000 x12=0x00000000
       89415000	      8940	800019a0	0065afb3	slt	x31,x11,x6	 x11:0xfb340000  x6:0x00000000 x31=0x00000001
       89425000	      8941	800019a4	f3b6ba13	sltiu	x20,x13,-197	 x13:0x8e0128b0 x20=0x00000001
       89435000	      8942	800019a8	00776033	or	x0,x14,x7	 x14:0x00000001  x7:0xfffffd35
       89445000	      8943	800019ac	04b40263	beq	x8,x11,800019f0	  x8:0xfffff800 x11:0xfb340000
       89455000	      8944	800019b0	715a3493	sltiu	x9,x20,1813	 x20:0x00000001  x9=0x00000001
       89465000	      8945	800019b4	018d3f33	sltu	x30,x26,x24	 x26:0x720c87fe x24:0x00000001 x30=0x00000000
       89475000	      8946	800019b8	01a268b3	or	x17,x4,x26	  x4:0x00000000 x26:0x720c87fe x17=0x720c87fe
       89485000	      8947	800019bc	40d202b3	sub	x5,x4,x13	  x4:0x00000000 x13:0x8e0128b0  x5=0x71fed750
       89495000	      8948	800019c0	009302b3	add	x5,x6,x9	  x6:0x00000000  x9:0x00000001  x5=0x00000001
       89505000	      8949	800019c4	9fc86113	ori	x2,x16,-1540	 x16:0x80009fc4  x2=0xfffffffc
       89515000	      8950	800019c8	01d078b3	and	x17,x0,x29	  x0:0x00000000 x29:0x720c87fe x17=0x00000000
       89525000	      8951	800019cc	3d1de513	ori	x10,x27,977	 x27:0xaddb0000 x10=0xaddb03d1
       89535000	      8952	800019d0	01b6c533	xor	x10,x13,x27	 x13:0x8e0128b0 x27:0xaddb0000 x10=0x23da28b0
       89545000	      8953	800019d4	00d2d013	srli	x0,x5,0xd	  x5:0x00000001
       89555000	      8954	800019d8	01634263	blt	x6,x22,800019dc	  x6:0x00000000 x22:0xacfc2930
       89565000	      8955	800019dc	07064913	xori	x18,x12,112	 x12:0x00000000 x18=0x00000070
       89575000	      8956	800019e0	6a353313	sltiu	x6,x10,1699	 x10:0x23da28b0  x6=0x00000000
       89585000	      8957	800019e4	9614ae13	slti	x28,x9,-1695	  x9:0x00000001 x28=0x00000000
       89595000	      8958	800019e8	00000013	addi	x0,x0,0	  x0:0x00000000
       89605000	      8959	800019ec	f7d5ea93	ori	x21,x11,-131	 x11:0xfb340000 x21=0xffffff7d
       89615000	      8960	800019f0	014c5113	srli	x2,x24,0x14	 x24:0x00000001  x2=0x00000000
       89625000	      8961	800019f4	404c5e93	srai	x29,x24,0x4	 x24:0x00000001 x29=0x00000000
       89635000	      8962	800019f8	00000013	addi	x0,x0,0	  x0:0x00000000
       89645000	      8963	800019fc	4e12b613	sltiu	x12,x5,1249	  x5:0x00000001 x12=0x00000001
       89655000	      8964	80001a00	01f6f433	and	x8,x13,x31	 x13:0x8e0128b0 x31:0x00000001  x8=0x00000000
       89665000	      8965	80001a04	02869663	bne	x13,x8,80001a30	 x13:0x8e0128b0  x8:0x00000000
       89675000	      8966	00000000	00000013	addi	x0,x0,0	  x0:0x00000000
       89685000	      8967	80001a2c	00000013	addi	x0,x0,0	  x0:0x00000000
       89695000	      8968	80001a30	016fbdb3	sltu	x27,x31,x22	 x31:0x00000001 x22:0xacfc2930 x27=0x00000001
       89705000	      8969	80001a34	0222e463	bltu	x5,x2,80001a5c	  x5:0x00000001  x2:0x00000000
       89715000	      8970	80001a38	a5bf6117	auipc	x2,0xa5bf6	  x2=0x25bf7a34
       89725000	      8971	80001a3c	ced74413	xori	x8,x14,-787	 x14:0x00000001  x8=0xfffffcec
       89735000	      8972	80001a40	019173b3	and	x7,x2,x25	  x2:0x25bf7a34 x25:0x00000000  x7=0x00000000
       89745000	      8973	80001a44	40670fb3	sub	x31,x14,x6	 x14:0x00000001  x6:0x00000000 x31=0x00000001
       89755000	      8974	80001a48	03661463	bne	x12,x22,80001a70	 x12:0x00000001 x22:0xacfc2930
       89765000	      8975	00000000	00000013	addi	x0,x0,0	  x0:0x00000000
       89775000	      8976	80001a6c	00000013	addi	x0,x0,0	  x0:0x00000000
       89785000	      8977	80001a70	0099c6b3	xor	x13,x19,x9	 x19:0x80009b94  x9:0x00000001 x13=0x80009b95
       89795000	      8978	80001a74	e0228397	auipc	x7,0xe0228	  x7=0x60229a70
       89805000	      8979	80001a78	be3964b7	lui	x9,0xbe396	  x9=0xbe396000
       89815000	      8980	80001a7c	723d0917	auipc	x18,0x723d0	 x18=0xf23d1a78
       89825000	      8981	80001a80	d601a713	slti	x14,x3,-672	  x3:0xfffff9f5 x14=0x00000001
       89835000	      8982	80001a84	01aa7ab3	and	x21,x20,x26	 x20:0x00000001 x26:0x720c87fe x21=0x00000000
       89845000	      8983	80001a88	0186b033	sltu	x0,x13,x24	 x13:0x80009b95 x24:0x00000001
       89855000	      8984	80001a8c	004ba303	lw	x6,4(x23)	 x23:0x80009ee8  x6=0x80003200 PA:0x80009eec
       89865000	      8985	80001a90	889ecf13	xori	x30,x29,-1911	 x29:0x00000000 x30=0xfffff889
       89875000	      8986	80001a94	040b8b93	addi	x23,x23,64	 x23:0x80009ee8 x23=0x80009f28
       89885000	      8987	80001a98	004fdd33	srl	x26,x31,x4	 x31:0x00000001  x4:0x00000000 x26=0x00000001
       89895000	      8988	80001a9c	00030d93	addi	x27,x6,0	  x6:0x80003200 x27=0x80003200
       89905000	      8989	80001aa0	000d8de7	jalr	x27,x27,0	 x27:0x80003200 x27=0x80001aa0
       89915000	      8990	00000000	00000013	addi	x0,x0,0	  x0:0x00000000
       89925000	      8991	80003200	00000013	addi	x0,x0,0	  x0:0x00000000
       89935000	      8992	80003204	877dd217	auipc	x4,0x877dd	  x4=0x077e0200
       89945000	      8993	80003208	63386a93	ori	x21,x16,1587	 x16:0x80009fc4 x21=0x80009ff7
       89955000	      8994	8000320c	019bce33	xor	x28,x23,x25	 x23:0x80009f28 x25:0x00000000 x28=0x80009f28
       89965000	      8995	80003210	01245233	srl	x4,x8,x18	  x8:0xfffffcec x18:0xf23d1a78  x4=0x000000ff
       89975000	      8996	80003214	03946e63	bltu	x8,x25,80003250	  x8:0xfffffcec x25:0x00000000
       89985000	      8997	80003218	f9c57393	andi	x7,x10,-100	 x10:0x23da28b0  x7=0x23da2890
       89995000	      8998	8000321c	00af1133	sll	x2,x30,x10	 x30:0xfffff889 x10:0x23da28b0  x2=0xf8890000
       90005000	      8999	80003220	03721063	bne	x4,x23,80003240	  x4:0x000000ff x23:0x80009f28
       90015000	      9000	00000000	00000013	addi	x0,x0,0	  x0:0x00000000
       90025000	      9001	8000323c	00000013	addi	x0,x0,0	  x0:0x00000000
       90035000	      9002	80003240	01832133	slt	x2,x6,x24	  x6:0x80003200 x24:0x00000001  x2=0x00000001
       90045000	      9003	80003244	00c41293	slli	x5,x8,0xc	  x8:0xfffffcec  x5=0xffcec000
       90055000	      9004	80003248	0226de63	bge	x13,x2,80003284	 x13:0x80009b95  x2:0x00000001
       90065000	      9005	8000324c	05c70063	beq	x14,x28,8000328c	 x14:0x00000001 x28:0x80009f28
       90075000	      9006	80003250	b4ddc493	xori	x9,x27,-1203	 x27:0x80001aa0  x9=0x7fffe1ed
       90085000	      9007	80003254	0039e533	or	x10,x19,x3	 x19:0x80009b94  x3:0xfffff9f5 x10=0xfffffbf5
       90095000	      9008	80003258	f0d6df37	lui	x30,0xf0d6d	 x30=0xf0d6d000
       90105000	      9009	8000325c	01a20a33	add	x20,x4,x26	  x4:0x000000ff x26:0x00000001 x20=0x00000100
       90115000	      9010	80003260	03390e63	beq	x18,x19,8000329c	 x18:0xf23d1a78 x19:0x80009b94
       90125000	      9011	80003264	00f61f13	slli	x30,x12,0xf	 x12:0x00000001 x30=0x00008000
       90135000	      9012	80003268	03a36e63	bltu	x6,x26,800032a4	  x6:0x80003200 x26:0x00000001
       90145000	      9013	8000326c	00f29293	slli	x5,x5,0xf	  x5:0xffcec000  x5=0x60000000
       90155000	      9014	80003270	f0f42613	slti	x12,x8,-241	  x8:0xfffffcec x12=0x00000001
       90165000	      9015	80003274	00000013	addi	x0,x0,0	  x0:0x00000000
       90175000	      9016	80003278	00c00fb3	add	x31,x0,x12	  x0:0x00000000 x12:0x00000001 x31=0x00000001
       90185000	      9017	8000327c	00720933	add	x18,x4,x7	  x4:0x000000ff  x7:0x23da2890 x18=0x23da298f
       90195000	      9018	80003280	0027f5b3	and	x11,x15,x2	 x15:0x80008fef  x2:0x00000001 x11=0x00000001
       90205000	      9019	80003284	01ca1393	slli	x7,x20,0x1c	 x20:0x00000100  x7=0x00000000
       90215000	      9020	80003288	01399993	slli	x19,x19,0x13	 x19:0x80009b94 x19=0xdca00000
       90225000	      9021	8000328c	05976663	bltu	x14,x25,800032d8	 x14:0x00000001 x25:0x00000000
       90235000	      9022	80003290	dbec0f93	addi	x31,x24,-578	 x24:0x00000001 x31=0xfffffdbf
       90245000	      9023	80003294	03b10a63	beq	x2,x27,800032c8	  x2:0x00000001 x27:0x80001aa0
       90255000	      9024	80003298	01b87fb3	and	x31,x16,x27	 x16:0x80009fc4 x27:0x80001aa0 x31=0x80001a80
       90265000	      9025	8000329c	00229e63	bne	x5,x2,800032b8	  x5:0x60000000  x2:0x00000001
       90275000	      9026	00000000	00000013	addi	x0,x0,0	  x0:0x00000000
       90285000	      9027	800032b4	00000013	addi	x0,x0,0	  x0:0x00000000
       90295000	      9028	800032b8	00706eb3	or	x29,x0,x7	  x0:0x00000000  x7:0x00000000 x29=0x00000000
       90305000	      9029	800032bc	03edda63	bge	x27,x30,800032f0	 x27:0x80001aa0 x30:0x00008000
       90315000	      9030	800032c0	55828213	addi	x4,x5,1368	  x5:0x60000000  x4=0x60000558
       90325000	      9031	800032c4	8930af97	auipc	x31,0x8930a	 x31=0x0930d2c0
       90335000	      9032	800032c8	004d1a93	slli	x21,x26,0x4	 x26:0x00000001 x21=0x00000010
       90345000	      9033	800032cc	ad16c497	auipc	x9,0xad16c	  x9=0x2d16f2c8
       90355000	      9034	800032d0	03f2d863	bge	x5,x31,80003300	  x5:0x60000000 x31:0x0930d2c0
       90365000	      9035	00000000	00000013	addi	x0,x0,0	  x0:0x00000000
       90375000	      9036	800032fc	00000013	addi	x0,x0,0	  x0:0x00000000
       90385000	      9037	80003300	b38ec593	xori	x11,x29,-1224	 x29:0x00000000 x11=0xfffffb38
       90395000	      9038	80003304	00e8d293	srli	x5,x17,0xe	 x17:0x00000000  x5=0x00000000
       90405000	      9039	80003308	01f5c9b3	xor	x19,x11,x31	 x11:0xfffffb38 x31:0x0930d2c0 x19=0xf6cf29f8
       90415000	      9040	8000330c	41a4d513	srai	x10,x9,0x1a	  x9:0x2d16f2c8 x10=0x0000000b
       90425000	      9041	80003310	fe77e393	ori	x7,x15,-25	 x15:0x80008fef  x7=0xffffffef
       90435000	      9042	80003314	01b3ee33	or	x28,x7,x27	  x7:0xffffffef x27:0x80001aa0 x28=0xffffffef
       90445000	      9043	80003318	12be0137	lui	x2,0x12be0	  x2=0x12be0000
       90455000	      9044	8000331c	01949437	lui	x8,0x1949	  x8=0x01949000
       90465000	      9045	80003320	48ab8d93	addi	x27,x23,1162	 x23:0x80009f28 x27=0x8000a3b2
       90475000	      9046	80003324	966f8513	addi	x10,x31,-1690	 x31:0x0930d2c0 x10=0x0930cc26
       90485000	      9047	80003328	0115ffb3	and	x31,x11,x17	 x11:0xfffffb38 x17:0x00000000 x31=0x00000000
       90495000	      9048	8000332c	00cdd6b3	srl	x13,x27,x12	 x27:0x8000a3b2 x12:0x00000001 x13=0x400051d9
       90505000	      9049	80003330	00e76133	or	x2,x14,x14	 x14:0x00000001 x14:0x00000001  x2=0x00000001
       90515000	      9050	80003334	03d05863	bge	x0,x29,80003364	  x0:0x00000000 x29:0x00000000
       90525000	      9051	00000000	00000013	addi	x0,x0,0	  x0:0x00000000
       90535000	      9052	80003360	00000013	addi	x0,x0,0	  x0:0x00000000
       90545000	      9053	80003364	1ce6bc37	lui	x24,0x1ce6b	 x24=0x1ce6b000
       90555000	      9054	80003368	02266c63	bltu	x12,x2,800033a0	 x12:0x00000001  x2:0x00000001
       90565000	      9055	8000336c	022d5063	bge	x26,x2,8000338c	 x26:0x00000001  x2:0x00000001
       90575000	      9056	00000000	00000013	addi	x0,x0,0	  x0:0x00000000
       90585000	      9057	80003388	00000013	addi	x0,x0,0	  x0:0x00000000
       90595000	      9058	8000338c	00020e63	beq	x4,x0,800033a8	  x4:0x60000558  x0:0x00000000
       90605000	      9059	80003390	4127d2b3	sra	x5,x15,x18	 x15:0x80008fef x18:0x23da298f  x5=0xffff0001
       90615000	      9060	80003394	022e9e63	bne	x29,x2,800033d0	 x29:0x00000000  x2:0x00000001
       90625000	      9061	00000000	00000013	addi	x0,x0,0	  x0:0x00000000
       90635000	      9062	800033cc	00000013	addi	x0,x0,0	  x0:0x00000000
       90645000	      9063	800033d0	01b965b3	or	x11,x18,x27	 x18:0x23da298f x27:0x8000a3b2 x11=0xa3daabbf
       90655000	      9064	800033d4	dcb24593	xori	x11,x4,-565	  x4:0x60000558 x11=0x9ffff893
       90665000	      9065	800033d8	82a63617	auipc	x12,0x82a63	 x12=0x02a663d4
       90675000	      9066	800033dc	5e684193	xori	x3,x16,1510	 x16:0x80009fc4  x3=0x80009a22
       90685000	      9067	800033e0	01573e33	sltu	x28,x14,x21	 x14:0x00000001 x21:0x00000010 x28=0x00000001
       90695000	      9068	800033e4	004ba303	lw	x6,4(x23)	 x23:0x80009f28  x6=0x80002398 PA:0x80009f2c
       90705000	      9069	800033e8	ad2d2c13	slti	x24,x26,-1326	 x26:0x00000001 x24=0x00000000
       90715000	      9070	800033ec	411e0ab3	sub	x21,x28,x17	 x28:0x00000001 x17:0x00000000 x21=0x00000001
       90725000	      9071	800033f0	00a65113	srli	x2,x12,0xa	 x12:0x02a663d4  x2=0x0000a998
       90735000	      9072	800033f4	0047edb3	or	x27,x15,x4	 x15:0x80008fef  x4:0x60000558 x27=0xe0008fff
       90745000	      9073	800033f8	71c26517	auipc	x10,0x71c26	 x10=0xf1c293f4
       90755000	      9074	800033fc	7c8d3893	sltiu	x17,x26,1992	 x26:0x00000001 x17=0x00000001
       90765000	      9075	80003400	3d78bf97	auipc	x31,0x3d78b	 x31=0xbd78e3fc
       90775000	      9076	80003404	896bb693	sltiu	x13,x23,-1898	 x23:0x80009f28 x13=0x00000001
       90785000	      9077	80003408	02cb8b93	addi	x23,x23,44	 x23:0x80009f28 x23=0x80009f54
       90795000	      9078	8000340c	00000013	addi	x0,x0,0	  x0:0x00000000
       90805000	      9079	80003410	00030693	addi	x13,x6,0	  x6:0x80002398 x13=0x80002398
       90815000	      9080	80003414	000686e7	jalr	x13,x13,0	 x13:0x80002398 x13=0x80003414
       90825000	      9081	00000000	00000013	addi	x0,x0,0	  x0:0x00000000
       90835000	      9082	80002398	00000013	addi	x0,x0,0	  x0:0x00000000
       90845000	      9083	8000239c	00006d17	auipc	x26,0x6	 x26=0x80008398
       90855000	      9084	800023a0	d93d0d13	addi	x26,x26,-621	 x26:0x80008398 x26=0x8000812b
       90865000	      9085	800023a4	cd3d2e13	slti	x28,x26,-813	 x26:0x8000812b x28=0x00000001
       90875000	      9086	800023a8	fe0d0423	sb	x0,-24(x26)	 x26:0x8000812b  x0:0x00000000 PA:0x80008113
       90885000	      9087	800023ac	b9dbc513	xori	x10,x23,-1123	 x23:0x80009f54 x10=0x7fff64c9
       90895000	      9088	800023b0	018d7633	and	x12,x26,x24	 x26:0x8000812b x24:0x00000000 x12=0x00000000
       90905000	      9089	800023b4	9a8a7b13	andi	x22,x20,-1624	 x20:0x00000100 x22=0x00000100
       90915000	      9090	800023b8	000d0523	sb	x0,10(x26)	 x26:0x8000812b  x0:0x00000000 PA:0x80008135
       90925000	      9091	800023bc	e440bd93	sltiu	x27,x1,-444	  x1:0x80000000 x27=0x00000001
       90935000	      9092	800023c0	fdad13a3	sh	x26,-57(x26)	 x26:0x8000812b x26:0x8000812b PA:0x800080f2
       90945000	      9093	800023c4	1a9b3f37	lui	x30,0x1a9b3	 x30=0x1a9b3000
       90955000	      9094	800023c8	016b0f33	add	x30,x22,x22	 x22:0x00000100 x22:0x00000100 x30=0x00000200
       90965000	      9095	800023cc	fcad0a03	lb	x20,-54(x26)	 x26:0x8000812b x20=0xffffffae PA:0x800080f5
       90975000	      9096	800023d0	00fe0ab3	add	x21,x28,x15	 x28:0x00000001 x15:0x80008fef x21=0x80008ff0
       90985000	      9097	800023d4	0bd7e293	ori	x5,x15,189	 x15:0x80008fef  x5=0x80008fff
       90995000	      9098	800023d8	fffd5883	lhu	x17,-1(x26)	 x26:0x8000812b x17=0x0000e0e1 PA:0x8000812a
       91005000	      9099	800023dc	0196f133	and	x2,x13,x25	 x13:0x80003414 x25:0x00000000  x2=0x00000000
       91015000	      9100	800023e0	00335a33	srl	x20,x6,x3	  x6:0x80002398  x3:0x80009a22 x20=0x200008e6
       91025000	      9101	800023e4	eef0e493	ori	x9,x1,-273	  x1:0x80000000  x9=0xfffffeef
       91035000	      9102	800023e8	fcad0723	sb	x10,-50(x26)	 x26:0x8000812b x10:0x7fff64c9 PA:0x800080f9
       91045000	      9103	800023ec	d83f7493	andi	x9,x30,-637	 x30:0x00000200  x9=0x00000000
       91055000	      9104	800023f0	00a7f233	and	x4,x15,x10	 x15:0x80008fef x10:0x7fff64c9  x4=0x000004c9
       91065000	      9105	800023f4	03ed0923	sb	x30,50(x26)	 x26:0x8000812b x30:0x00000200 PA:0x8000815d
       91075000	      9106	800023f8	6323f693	andi	x13,x7,1586	  x7:0xffffffef x13=0x00000622
       91085000	      9107	800023fc	414a0e33	sub	x28,x20,x20	 x20:0x200008e6 x20:0x200008e6 x28=0x00000000
       91095000	      9108	80002400	fc8d0003	lb	x0,-56(x26)	 x26:0x8000812b PA:0x800080f3
       91105000	      9109	80002404	41058133	sub	x2,x11,x16	 x11:0x9ffff893 x16:0x80009fc4  x2=0x1fff58cf
       91115000	      9110	80002408	018fd693	srli	x13,x31,0x18	 x31:0xbd78e3fc x13=0x000000bd
       91125000	      9111	8000240c	f37ec893	xori	x17,x29,-201	 x29:0x00000000 x17=0xffffff37
       91135000	      9112	80002410	01ab5eb3	srl	x29,x22,x26	 x22:0x00000100 x26:0x8000812b x29=0x00000000
       91145000	      9113	80002414	00491733	sll	x14,x18,x4	 x18:0x23da298f  x4:0x000004c9 x14=0xb4531e00
       91155000	      9114	80002418	014d4a83	lbu	x21,20(x26)	 x26:0x8000812b x21=0x000000f4 PA:0x8000813f
       91165000	      9115	8000241c	00000013	addi	x0,x0,0	  x0:0x00000000
       91175000	      9116	80002420	00000013	addi	x0,x0,0	  x0:0x00000000
       91185000	      9117	80002424	fcfd5e83	lhu	x29,-49(x26)	 x26:0x8000812b x29=0x0000b0b1 PA:0x800080fa
       91195000	      9118	80002428	05fdefb7	lui	x31,0x5fde	 x31=0x05fde000
       91205000	      9119	8000242c	fd6d0503	lb	x10,-42(x26)	 x26:0x8000812b x10=0xffffffba PA:0x80008101
       91215000	      9120	80002430	00006e17	auipc	x28,0x6	 x28=0x8000842c
       91225000	      9121	80002434	516e0e13	addi	x28,x28,1302	 x28:0x8000842c x28=0x80008942
       91235000	      9122	80002438	00000013	addi	x0,x0,0	  x0:0x00000000
       91245000	      9123	8000243c	0001f033	and	x0,x3,x0	  x3:0x80009a22  x0:0x00000000
       91255000	      9124	80002440	fc0e4503	lbu	x10,-64(x28)	 x28:0x80008942 x10=0x000000e9 PA:0x80008902
       91265000	      9125	80002444	020e1783	lh	x15,32(x28)	 x28:0x80008942 x15=0x00004849 PA:0x80008962
       91275000	      9126	80002448	01ee4003	lbu	x0,30(x28)	 x28:0x80008942 PA:0x80008960
       91285000	      9127	8000244c	fd0e0503	lb	x10,-48(x28)	 x28:0x80008942 x10=0xfffffff9 PA:0x80008912
       91295000	      9128	80002450	4020d8b3	sra	x17,x1,x2	  x1:0x80000000  x2:0x1fff58cf x17=0xffff0000
       91305000	      9129	80002454	045e0023	sb	x5,64(x28)	 x28:0x80008942  x5:0x80008fff PA:0x80008982
       91315000	      9130	80002458	fe4e08a3	sb	x4,-15(x28)	 x28:0x80008942  x4:0x000004c9 PA:0x80008933
       91325000	      9131	8000245c	015e4d83	lbu	x27,21(x28)	 x28:0x80008942 x27=0x0000003c PA:0x80008957
       91335000	      9132	80002460	fc2e0703	lb	x14,-62(x28)	 x28:0x80008942 x14=0xffffffef PA:0x80008904
       91345000	      9133	80002464	56fc6213	ori	x4,x24,1391	 x24:0x00000000  x4=0x0000056f
       91355000	      9134	80002468	01c68333	add	x6,x13,x28	 x13:0x000000bd x28:0x80008942  x6=0x800089ff
       91365000	      9135	8000246c	fffe04a3	sb	x31,-23(x28)	 x28:0x80008942 x31:0x05fde000 PA:0x8000892b
       91375000	      9136	80002470	01ba8133	add	x2,x21,x27	 x21:0x000000f4 x27:0x0000003c  x2=0x00000130
       91385000	      9137	80002474	fd2e0ea3	sb	x18,-35(x28)	 x28:0x80008942 x18:0x23da298f PA:0x8000891f
       91395000	      9138	80002478	037e0923	sb	x23,50(x28)	 x28:0x80008942 x23:0x80009f54 PA:0x80008974
       91405000	      9139	8000247c	ff0e4503	lbu	x10,-16(x28)	 x28:0x80008942 x10=0x00000019 PA:0x80008932
       91415000	      9140	80002480	0090fb33	and	x22,x1,x9	  x1:0x80000000  x9:0x00000000 x22=0x00000000
       91425000	      9141	80002484	ff2e1a03	lh	x20,-14(x28)	 x28:0x80008942 x20=0x00001e1f PA:0x80008934
       91435000	      9142	80002488	409b0fb3	sub	x31,x22,x9	 x22:0x00000000  x9:0x00000000 x31=0x00000000
       91445000	      9143	8000248c	006eb3b3	sltu	x7,x29,x6	 x29:0x0000b0b1  x6:0x800089ff  x7=0x00000001
       91455000	      9144	80002490	17e94213	xori	x4,x18,382	 x18:0x23da298f  x4=0x23da28f1
       91465000	      9145	80002494	fd5e0fa3	sb	x21,-33(x28)	 x28:0x80008942 x21:0x000000f4 PA:0x80008921
       91475000	      9146	80002498	4bc98013	addi	x0,x19,1212	 x19:0xf6cf29f8
       91485000	      9147	8000249c	032e0f03	lb	x30,50(x28)	 x28:0x80008942 x30=0x00000054 PA:0x80008974
       91495000	      9148	800024a0	031e1c23	sh	x17,56(x28)	 x28:0x80008942 x17:0xffff0000 PA:0x8000897a
       91505000	      9149	800024a4	00e7e663	bltu	x15,x14,800024b0	 x15:0x00004849 x14:0xffffffef
       91515000	      9150	00000000	00000013	addi	x0,x0,0	  x0:0x00000000
       91525000	      9151	800024ac	00000013	addi	x0,x0,0	  x0:0x00000000
       91535000	      9152	800024b0	000c99b3	sll	x19,x25,x0	 x25:0x00000000  x0:0x00000000 x19=0x00000000
       91545000	      9153	800024b4	cdd57e13	andi	x28,x10,-803	 x10:0x00000019 x28=0x00000019
       91555000	      9154	800024b8	00054a63	blt	x10,x0,800024cc	 x10:0x00000019  x0:0x00000000
       91565000	      9155	800024bc	0373c463	blt	x7,x23,800024e4	  x7:0x00000001 x23:0x80009f54
       91575000	      9156	800024c0	011673b3	and	x7,x12,x17	 x12:0x00000000 x17:0xffff0000  x7=0x00000000
       91585000	      9157	800024c4	f13ac613	xori	x12,x21,-237	 x21:0x000000f4 x12=0xffffffe7
       91595000	      9158	800024c8	0138e2b3	or	x5,x17,x19	 x17:0xffff0000 x19:0x00000000  x5=0xffff0000
       91605000	      9159	800024cc	1b687413	andi	x8,x16,438	 x16:0x80009fc4  x8=0x00000184
       91615000	      9160	800024d0	c8ab8f93	addi	x31,x23,-886	 x23:0x80009f54 x31=0x80009bde
       91625000	      9161	800024d4	01995493	srli	x9,x18,0x19	 x18:0x23da298f  x9=0x00000011
       91635000	      9162	800024d8	f341bcb7	lui	x25,0xf341b	 x25=0xf341b000
       91645000	      9163	800024dc	08987393	andi	x7,x16,137	 x16:0x80009fc4  x7=0x00000080
       91655000	      9164	800024e0	01c65463	bge	x12,x28,800024e8	 x12:0xffffffe7 x28:0x00000019
       91665000	      9165	800024e4	00cf3333	sltu	x6,x30,x12	 x30:0x00000054 x12:0xffffffe7  x6=0x00000001
       91675000	      9166	800024e8	00000013	addi	x0,x0,0	  x0:0x00000000
       91685000	      9167	800024ec	2dd10793	addi	x15,x2,733	  x2:0x00000130 x15=0x0000040d
       91695000	      9168	800024f0	01897863	bgeu	x18,x24,80002500	 x18:0x23da298f x24:0x00000000
       91705000	      9169	00000000	00000013	addi	x0,x0,0	  x0:0x00000000
       91715000	      9170	800024fc	00000013	addi	x0,x0,0	  x0:0x00000000
       91725000	      9171	80002500	01545893	srli	x17,x8,0x15	  x8:0x00000184 x17=0x00000000
       91735000	      9172	80002504	d8d87a13	andi	x20,x16,-627	 x16:0x80009fc4 x20=0x80009d84
       91745000	      9173	80002508	052af137	lui	x2,0x52af	  x2=0x052af000
       91755000	      9174	8000250c	400d5993	srai	x19,x26,0x0	 x26:0x8000812b x19=0x8000812b
       91765000	      9175	80002510	015a53b3	srl	x7,x20,x21	 x20:0x80009d84 x21:0x000000f4  x7=0x00000800
       91775000	      9176	80002514	02871c63	bne	x14,x8,8000254c	 x14:0xffffffef  x8:0x00000184
       91785000	      9177	00000000	00000013	addi	x0,x0,0	  x0:0x00000000
       91795000	      9178	80002548	00000013	addi	x0,x0,0	  x0:0x00000000
       91805000	      9179	8000254c	0098d5b3	srl	x11,x17,x9	 x17:0x00000000  x9:0x00000011 x11=0x00000000
       91815000	      9180	80002550	00311033	sll	x0,x2,x3	  x2:0x052af000  x3:0x80009a22
       91825000	      9181	80002554	02bb4663	blt	x22,x11,80002580	 x22:0x00000000 x11:0x00000000
       91835000	      9182	80002558	41e18db3	sub	x27,x3,x30	  x3:0x80009a22 x30:0x00000054 x27=0x800099ce
       91845000	      9183	8000255c	00d14863	blt	x2,x13,8000256c	  x2:0x052af000 x13:0x000000bd
       91855000	      9184	80002560	b6220313	addi	x6,x4,-1182	  x4:0x23da28f1  x6=0x23da2453
       91865000	      9185	80002564	01441933	sll	x18,x8,x20	  x8:0x00000184 x20:0x80009d84 x18=0x00001840
       91875000	      9186	80002568	017e9193	slli	x3,x29,0x17	 x29:0x0000b0b1  x3=0x58800000
       91885000	      9187	8000256c	3b9a8513	addi	x10,x21,953	 x21:0x000000f4 x10=0x000004ad
       91895000	      9188	80002570	589f8517	auipc	x10,0x589f8	 x10=0xd89fa56c
       91905000	      9189	80002574	9228e993	ori	x19,x17,-1758	 x17:0x00000000 x19=0xfffff922
       91915000	      9190	80002578	e5838c13	addi	x24,x7,-424	  x7:0x00000800 x24=0x00000658
       91925000	      9191	8000257c	01501fb3	sll	x31,x0,x21	  x0:0x00000000 x21:0x000000f4 x31=0x00000000
       91935000	      9192	80002580	00c29d13	slli	x26,x5,0xc	  x5:0xffff0000 x26=0xf0000000
       91945000	      9193	80002584	419e0533	sub	x10,x28,x25	 x28:0x00000019 x25:0xf341b000 x10=0x0cbe5019
       91955000	      9194	80002588	41d709b3	sub	x19,x14,x29	 x14:0xffffffef x29:0x0000b0b1 x19=0xffff4f3e
       91965000	      9195	8000258c	01f71f33	sll	x30,x14,x31	 x14:0xffffffef x31:0x00000000 x30=0xffffffef
       91975000	      9196	80002590	03488263	beq	x17,x20,800025b4	 x17:0x00000000 x20:0x80009d84
       91985000	      9197	80002594	4125d513	srai	x10,x11,0x12	 x11:0x00000000 x10=0x00000000
       91995000	      9198	80002598	00f7c8b3	xor	x17,x15,x15	 x15:0x0000040d x15:0x0000040d x17=0x00000000
       92005000	      9199	8000259c	03754663	blt	x10,x23,800025c8	 x10:0x00000000 x23:0x80009f54
       92015000	      9200	800025a0	672d7313	andi	x6,x26,1650	 x26:0xf0000000  x6=0x00000000
       92025000	      9201	800025a4	003068b3	or	x17,x0,x3	  x0:0x00000000  x3:0x58800000 x17=0x58800000
       92035000	      9202	800025a8	01ea0c63	beq	x20,x30,800025c0	 x20:0x80009d84 x30:0xffffffef
       92045000	      9203	800025ac	009026b3	slt	x13,x0,x9	  x0:0x00000000  x9:0x00000011 x13=0x00000001
       92055000	      9204	800025b0	00988733	add	x14,x17,x9	 x17:0x58800000  x9:0x00000011 x14=0x58800011
       92065000	      9205	800025b4	993da413	slti	x8,x27,-1645	 x27:0x800099ce  x8=0x00000001
       92075000	      9206	800025b8	01193b33	sltu	x22,x18,x17	 x18:0x00001840 x17:0x58800000 x22=0x00000001
       92085000	      9207	800025bc	004cbb33	sltu	x22,x25,x4	 x25:0xf341b000  x4:0x23da28f1 x22=0x00000000
       92095000	      9208	800025c0	00000013	addi	x0,x0,0	  x0:0x00000000
       92105000	      9209	800025c4	016e4663	blt	x28,x22,800025d0	 x28:0x00000019 x22:0x00000000
       92115000	      9210	800025c8	01102433	slt	x8,x0,x17	  x0:0x00000000 x17:0x58800000  x8=0x00000001
       92125000	      9211	800025cc	acdbe537	lui	x10,0xacdbe	 x10=0xacdbe000
       92135000	      9212	800025d0	00068c33	add	x24,x13,x0	 x13:0x00000001  x0:0x00000000 x24=0x00000001
       92145000	      9213	800025d4	01d69f13	slli	x30,x13,0x1d	 x13:0x00000001 x30=0x20000000
       92155000	      9214	800025d8	45526793	ori	x15,x4,1109	  x4:0x23da28f1 x15=0x23da2cf5
       92165000	      9215	800025dc	0544c263	blt	x9,x20,80002620	  x9:0x00000011 x20:0x80009d84
       92175000	      9216	800025e0	007f3fb3	sltu	x31,x30,x7	 x30:0x20000000  x7:0x00000800 x31=0x00000000
       92185000	      9217	800025e4	013d9d33	sll	x26,x27,x19	 x27:0x800099ce x19:0xffff4f3e x26=0x80000000
       92195000	      9218	800025e8	7a13ee93	ori	x29,x7,1953	  x7:0x00000800 x29=0x00000fa1
       92205000	      9219	800025ec	00cf8c33	add	x24,x31,x12	 x31:0x00000000 x12:0xffffffe7 x24=0xffffffe7
       92215000	      9220	800025f0	001aaf33	slt	x30,x21,x1	 x21:0x000000f4  x1:0x80000000 x30=0x00000000
       92225000	      9221	800025f4	c7156113	ori	x2,x10,-911	 x10:0xacdbe000  x2=0xfffffc71
       92235000	      9222	800025f8	0285d263	bge	x11,x8,8000261c	 x11:0x00000000  x8:0x00000001
       92245000	      9223	800025fc	014c6a33	or	x20,x24,x20	 x24:0xffffffe7 x20:0x80009d84 x20=0xffffffe7
       92255000	      9224	80002600	b22ae513	ori	x10,x21,-1246	 x21:0x000000f4 x10=0xfffffbf6
       92265000	      9225	80002604	41cfdc13	srai	x24,x31,0x1c	 x31:0x00000000 x24=0x00000000
       92275000	      9226	80002608	02f09463	bne	x1,x15,80002630	  x1:0x80000000 x15:0x23da2cf5
       92285000	      9227	00000000	00000013	addi	x0,x0,0	  x0:0x00000000
       92295000	      9228	8000262c	00000013	addi	x0,x0,0	  x0:0x00000000
       92305000	      9229	80002630	41f35f93	srai	x31,x6,0x1f	  x6:0x00000000 x31=0x00000000
       92315000	      9230	80002634	fa86a013	slti	x0,x13,-88	 x13:0x00000001
       92325000	      9231	80002638	01bbd633	srl	x12,x23,x27	 x23:0x80009f54 x27:0x800099ce x12=0x00020002
       92335000	      9232	8000263c	0049c133	xor	x2,x19,x4	 x19:0xffff4f3e  x4:0x23da28f1  x2=0xdc2567cf
       92345000	      9233	80002640	01d34133	xor	x2,x6,x29	  x6:0x00000000 x29:0x00000fa1  x2=0x00000fa1
       92355000	      9234	80002644	01101533	sll	x10,x0,x17	  x0:0x00000000 x17:0x58800000 x10=0x00000000
       92365000	      9235	80002648	01c29a93	slli	x21,x5,0x1c	  x5:0xffff0000 x21=0x00000000
       92375000	      9236	8000264c	01beaab3	slt	x21,x29,x27	 x29:0x00000fa1 x27:0x800099ce x21=0x00000000
       92385000	      9237	80002650	21994997	auipc	x19,0x21994	 x19=0xa199664c
       92395000	      9238	80002654	005fc6b3	xor	x13,x31,x5	 x31:0x00000000  x5:0xffff0000 x13=0xffff0000
       92405000	      9239	80002658	015422b3	slt	x5,x8,x21	  x8:0x00000001 x21:0x00000000  x5=0x00000000
       92415000	      9240	8000265c	00dccd33	xor	x26,x25,x13	 x25:0xf341b000 x13:0xffff0000 x26=0x0cbeb000
       92425000	      9241	80002660	3b9bbb17	auipc	x22,0x3b9bb	 x22=0xbb9bd65c
       92435000	      9242	80002664	40f75133	sra	x2,x14,x15	 x14:0x58800011 x15:0x23da2cf5  x2=0x000002c4
       92445000	      9243	80002668	014a9db3	sll	x27,x21,x20	 x21:0x00000000 x20:0xffffffe7 x27=0x00000000
       92455000	      9244	8000266c	34cc6793	ori	x15,x24,844	 x24:0x00000000 x15=0x0000034c
       92465000	      9245	80002670	02c27c63	bgeu	x4,x12,800026a8	  x4:0x23da28f1 x12:0x00020002
       92475000	      9246	00000000	00000013	addi	x0,x0,0	  x0:0x00000000
       92485000	      9247	800026a4	00000013	addi	x0,x0,0	  x0:0x00000000
       92495000	      9248	800026a8	0008e433	or	x8,x17,x0	 x17:0x58800000  x0:0x00000000  x8=0x58800000
       92505000	      9249	800026ac	00f2d993	srli	x19,x5,0xf	  x5:0x00000000 x19=0x00000000
       92515000	      9250	800026b0	015412b3	sll	x5,x8,x21	  x8:0x58800000 x21:0x00000000  x5=0x58800000
       92525000	      9251	800026b4	049b7663	bgeu	x22,x9,80002700	 x22:0xbb9bd65c  x9:0x00000011
       92535000	      9252	00000000	00000013	addi	x0,x0,0	  x0:0x00000000
       92545000	      9253	800026fc	00000013	addi	x0,x0,0	  x0:0x00000000
       92555000	      9254	80002700	01365533	srl	x10,x12,x19	 x12:0x00020002 x19:0x00000000 x10=0x00020002
       92565000	      9255	80002704	0193d393	srli	x7,x7,0x19	  x7:0x00000800  x7=0x00000000
       92575000	      9256	80002708	016a3433	sltu	x8,x20,x22	 x20:0xffffffe7 x22:0xbb9bd65c  x8=0x00000000
       92585000	      9257	8000270c	cebf2113	slti	x2,x30,-789	 x30:0x00000000  x2=0x00000000
       92595000	      9258	80002710	09a02d93	slti	x27,x0,154	  x0:0x00000000 x27=0x00000001
       92605000	      9259	80002714	00000013	addi	x0,x0,0	  x0:0x00000000
       92615000	      9260	80002718	02c91c63	bne	x18,x12,80002750	 x18:0x00001840 x12:0x00020002
       92625000	      9261	00000000	00000013	addi	x0,x0,0	  x0:0x00000000
       92635000	      9262	8000274c	00000013	addi	x0,x0,0	  x0:0x00000000
       92645000	      9263	80002750	01b8d3b3	srl	x7,x17,x27	 x17:0x58800000 x27:0x00000001  x7=0x2c400000
       92655000	      9264	80002754	41995ab3	sra	x21,x18,x25	 x18:0x00001840 x25:0xf341b000 x21=0x00001840
       92665000	      9265	80002758	019a38b3	sltu	x17,x20,x25	 x20:0xffffffe7 x25:0xf341b000 x17=0x00000000
       92675000	      9266	8000275c	01ebe863	bltu	x23,x30,8000276c	 x23:0x80009f54 x30:0x00000000
       92685000	      9267	80002760	019f0b33	add	x22,x30,x25	 x30:0x00000000 x25:0xf341b000 x22=0xf341b000
       92695000	      9268	80002764	db8ae3b7	lui	x7,0xdb8ae	  x7=0xdb8ae000
       92705000	      9269	80002768	0015b8b3	sltu	x17,x11,x1	 x11:0x00000000  x1:0x80000000 x17=0x00000001
       92715000	      9270	8000276c	01605f13	srli	x30,x0,0x16	  x0:0x00000000 x30=0x00000000
       92725000	      9271	80002770	bd42fa13	andi	x20,x5,-1068	  x5:0x58800000 x20=0x58800000
       92735000	      9272	80002774	00249db3	sll	x27,x9,x2	  x9:0x00000011  x2:0x00000000 x27=0x00000011
       92745000	      9273	80002778	0139bab3	sltu	x21,x19,x19	 x19:0x00000000 x19:0x00000000 x21=0x00000000
       92755000	      9274	8000277c	020c7663	bgeu	x24,x0,800027a8	 x24:0x00000000  x0:0x00000000
       92765000	      9275	00000000	00000013	addi	x0,x0,0	  x0:0x00000000
       92775000	      9276	800027a4	00000013	addi	x0,x0,0	  x0:0x00000000
       92785000	      9277	800027a8	01dcfc63	bgeu	x25,x29,800027c0	 x25:0xf341b000 x29:0x00000fa1
       92795000	      9278	00000000	00000013	addi	x0,x0,0	  x0:0x00000000
       92805000	      9279	800027bc	00000013	addi	x0,x0,0	  x0:0x00000000
       92815000	      9280	800027c0	059b9663	bne	x23,x25,8000280c	 x23:0x80009f54 x25:0xf341b000
       92825000	      9281	00000000	00000013	addi	x0,x0,0	  x0:0x00000000
       92835000	      9282	80002808	00000013	addi	x0,x0,0	  x0:0x00000000
       92845000	      9283	8000280c	00b18933	add	x18,x3,x11	  x3:0x58800000 x11:0x00000000 x18=0x58800000
       92855000	      9284	80002810	005cd933	srl	x18,x25,x5	 x25:0xf341b000  x5:0x58800000 x18=0xf341b000
       92865000	      9285	80002814	00c45a13	srli	x20,x8,0xc	  x8:0x00000000 x20=0x00000000
       92875000	      9286	80002818	01218933	add	x18,x3,x18	  x3:0x58800000 x18:0xf341b000 x18=0x4bc1b000
       92885000	      9287	8000281c	013aeeb3	or	x29,x21,x19	 x21:0x00000000 x19:0x00000000 x29=0x00000000
       92895000	      9288	80002820	b081f513	andi	x10,x3,-1272	  x3:0x58800000 x10=0x58800000
       92905000	      9289	80002824	0374e463	bltu	x9,x23,8000284c	  x9:0x00000011 x23:0x80009f54
       92915000	      9290	00000000	00000013	addi	x0,x0,0	  x0:0x00000000
       92925000	      9291	80002848	00000013	addi	x0,x0,0	  x0:0x00000000
       92935000	      9292	8000284c	40f509b3	sub	x19,x10,x15	 x10:0x58800000 x15:0x0000034c x19=0x587ffcb4
       92945000	      9293	80002850	0149adb3	slt	x27,x19,x20	 x19:0x587ffcb4 x20:0x00000000 x27=0x00000000
       92955000	      9294	80002854	037de263	bltu	x27,x23,80002878	 x27:0x00000000 x23:0x80009f54
       92965000	      9295	00000000	00000013	addi	x0,x0,0	  x0:0x00000000
       92975000	      9296	80002874	00000013	addi	x0,x0,0	  x0:0x00000000
       92985000	      9297	80002878	007603b3	add	x7,x12,x7	 x12:0x00020002  x7:0xdb8ae000  x7=0xdb8ce002
       92995000	      9298	8000287c	00d6cfb3	xor	x31,x13,x13	 x13:0xffff0000 x13:0xffff0000 x31=0x00000000
       93005000	      9299	80002880	00485c13	srli	x24,x16,0x4	 x16:0x80009fc4 x24=0x080009fc
       93015000	      9300	80002884	00000013	addi	x0,x0,0	  x0:0x00000000
       93025000	      9301	80002888	03287c63	bgeu	x16,x18,800028c0	 x16:0x80009fc4 x18:0x4bc1b000
       93035000	      9302	00000000	00000013	addi	x0,x0,0	  x0:0x00000000
       93045000	      9303	800028bc	00000013	addi	x0,x0,0	  x0:0x00000000
       93055000	      9304	800028c0	01ad1313	slli	x6,x26,0x1a	 x26:0x0cbeb000  x6=0x00000000
       93065000	      9305	800028c4	01718133	add	x2,x3,x23	  x3:0x58800000 x23:0x80009f54  x2=0xd8809f54
       93075000	      9306	800028c8	5e469ab7	lui	x21,0x5e469	 x21=0x5e469000
       93085000	      9307	800028cc	67a042b7	lui	x5,0x67a04	  x5=0x67a04000
       93095000	      9308	800028d0	ceeb0a93	addi	x21,x22,-786	 x22:0xf341b000 x21=0xf341acee
       93105000	      9309	800028d4	00ee4b33	xor	x22,x28,x14	 x28:0x00000019 x14:0x58800011 x22=0x58800008
       93115000	      9310	800028d8	02fccc63	blt	x25,x15,80002910	 x25:0xf341b000 x15:0x0000034c
       93125000	      9311	00000000	00000013	addi	x0,x0,0	  x0:0x00000000
       93135000	      9312	8000290c	00000013	addi	x0,x0,0	  x0:0x00000000
       93145000	      9313	80002910	05779263	bne	x15,x23,80002954	 x15:0x0000034c x23:0x80009f54
       93155000	      9314	00000000	00000013	addi	x0,x0,0	  x0:0x00000000
       93165000	      9315	80002950	00000013	addi	x0,x0,0	  x0:0x00000000
       93175000	      9316	80002954	03041c63	bne	x8,x16,8000298c	  x8:0x00000000 x16:0x80009fc4
       93185000	      9317	00000000	00000013	addi	x0,x0,0	  x0:0x00000000
       93195000	      9318	80002988	00000013	addi	x0,x0,0	  x0:0x00000000
       93205000	      9319	8000298c	01661b13	slli	x22,x12,0x16	 x12:0x00020002 x22=0x00800000
       93215000	      9320	80002990	01269c93	slli	x25,x13,0x12	 x13:0xffff0000 x25=0x00000000
       93225000	      9321	80002994	402785b3	sub	x11,x15,x2	 x15:0x0000034c  x2:0xd8809f54 x11=0x277f63f8
       93235000	      9322	80002998	011a5b33	srl	x22,x20,x17	 x20:0x00000000 x17:0x00000001 x22=0x00000000
       93245000	      9323	8000299c	fa1baa13	slti	x20,x23,-95	 x23:0x80009f54 x20=0x00000001
       93255000	      9324	800029a0	00456f33	or	x30,x10,x4	 x10:0x58800000  x4:0x23da28f1 x30=0x7bda28f1
       93265000	      9325	800029a4	00000013	addi	x0,x0,0	  x0:0x00000000
       93275000	      9326	800029a8	40c3d293	srai	x5,x7,0xc	  x7:0xdb8ce002  x5=0xfffdb8ce
       93285000	      9327	800029ac	03fcee63	bltu	x25,x31,800029e8	 x25:0x00000000 x31:0x00000000
       93295000	      9328	800029b0	2a4f6f97	auipc	x31,0x2a4f6	 x31=0xaa4f89ac
       93305000	      9329	800029b4	002a6863	bltu	x20,x2,800029c4	 x20:0x00000001  x2:0xd8809f54
       93315000	      9330	00000000	00000013	addi	x0,x0,0	  x0:0x00000000
       93325000	      9331	800029c0	00000013	addi	x0,x0,0	  x0:0x00000000
       93335000	      9332	800029c4	01045c93	srli	x25,x8,0x10	  x8:0x00000000 x25=0x00000000
       93345000	      9333	800029c8	d96ca313	slti	x6,x25,-618	 x25:0x00000000  x6=0x00000000
       93355000	      9334	800029cc	00f21113	slli	x2,x4,0xf	  x4:0x23da28f1  x2=0x14788000
       93365000	      9335	800029d0	016c1e13	slli	x28,x24,0x16	 x24:0x080009fc x28=0x7f000000
       93375000	      9336	800029d4	005ab433	sltu	x8,x21,x5	 x21:0xf341acee  x5:0xfffdb8ce  x8=0x00000001
       93385000	      9337	800029d8	06ef1a63	bne	x30,x14,80002a4c	 x30:0x7bda28f1 x14:0x58800011
       93395000	      9338	00000000	00000013	addi	x0,x0,0	  x0:0x00000000
       93405000	      9339	80002a48	00000013	addi	x0,x0,0	  x0:0x00000000
       93415000	      9340	80002a4c	01c58463	beq	x11,x28,80002a54	 x11:0x277f63f8 x28:0x7f000000
       93425000	      9341	80002a50	405482b3	sub	x5,x9,x5	  x9:0x00000011  x5:0xfffdb8ce  x5=0x00024743
       93435000	      9342	80002a54	00bad493	srli	x9,x21,0xb	 x21:0xf341acee  x9=0x001e6835
       93445000	      9343	80002a58	00a4a633	slt	x12,x9,x10	  x9:0x001e6835 x10:0x58800000 x12=0x00000001
       93455000	      9344	80002a5c	004ba303	lw	x6,4(x23)	 x23:0x80009f54  x6=0x800003a8 PA:0x80009f58
       93465000	      9345	80002a60	01e3d4b3	srl	x9,x7,x30	  x7:0xdb8ce002 x30:0x7bda28f1  x9=0x00006dc6
       93475000	      9346	80002a64	b3f4ff93	andi	x31,x9,-1217	  x9:0x00006dc6 x31=0x00006906
       93485000	      9347	80002a68	41fc8633	sub	x12,x25,x31	 x25:0x00000000 x31:0x00006906 x12=0xffff96fa
       93495000	      9348	80002a6c	00332433	slt	x8,x6,x3	  x6:0x800003a8  x3:0x58800000  x8=0x00000001
       93505000	      9349	80002a70	e09b2e97	auipc	x29,0xe09b2	 x29=0x609b4a6c
       93515000	      9350	80002a74	65ea8437	lui	x8,0x65ea8	  x8=0x65ea8000
       93525000	      9351	80002a78	d3f93d13	sltiu	x26,x18,-705	 x18:0x4bc1b000 x26=0x00000001
       93535000	      9352	80002a7c	030b8b93	addi	x23,x23,48	 x23:0x80009f54 x23=0x80009f84
       93545000	      9353	80002a80	00000013	addi	x0,x0,0	  x0:0x00000000
       93555000	      9354	80002a84	00130e13	addi	x28,x6,1	  x6:0x800003a8 x28=0x800003a9
       93565000	      9355	80002a88	000e0e67	jalr	x28,x28,0	 x28:0x800003a9 x28=0x80002a88
       93575000	      9356	00000000	00000013	addi	x0,x0,0	  x0:0x00000000
       93585000	      9357	800003a8	00000013	addi	x0,x0,0	  x0:0x00000000
       93595000	      9358	800003ac	41655eb3	sra	x29,x10,x22	 x10:0x58800000 x22:0x00000000 x29=0x58800000
       93605000	      9359	800003b0	00d6d433	srl	x8,x13,x13	 x13:0xffff0000 x13:0xffff0000  x8=0xffff0000
       93615000	      9360	800003b4	402b51b3	sra	x3,x22,x2	 x22:0x00000000  x2:0x14788000  x3=0x00000000
       93625000	      9361	800003b8	4172df93	srai	x31,x5,0x17	  x5:0x00024743 x31=0x00000000
       93635000	      9362	800003bc	00000097	auipc	x1,0x0	  x1=0x800003b8
       93645000	      9363	800003c0	00c08093	addi	x1,x1,12	  x1:0x800003b8  x1=0x800003c4
       93655000	      9364	800003c4	00008067	jalr	x0,x1,0	  x1:0x800003c4
       93665000	      9365	00000000	00000013	addi	x0,x0,0	  x0:0x00000000
       93675000	      9366	800003c4	00000013	addi	x0,x0,0	  x0:0x00000000
       93685000	      9367	800003c8	00100193	addi	x3,x0,1	  x0:0x00000000  x3=0x00000001
       93695000	      9368	800003cc	00000073	ecall	
       93705000	      9369	800003d0	319c8e17	auipc	x28,0x319c8	 x28=0xb19c83cc
