		Time			Cycle	PC		Insn	Decoded instruction	Register and memory contents
          65000	         5	80000004	00000293	addi	x5,x0,0	  x0:0x00000000  x5=0x00000000
          75000	         6	80000008	00000313	addi	x6,x0,0	  x0:0x00000000  x6=0x00000000
          85000	         7	8000000c	00628263	beq	x5,x6,80000010	  x5:0x00000000  x6:0x00000000
          95000	         8	00000000	00000013	addi	x0,x0,0	  x0:0x00000000
         105000	         9	8000000c	00000013	addi	x0,x0,0	  x0:0x00000000
         115000	        10	80000010	00000097	auipc	x1,0x0	  x1=0x8000000c
         125000	        11	80000014	00c08093	addi	x1,x1,12	  x1:0x8000000c  x1=0x80000018
         135000	        12	80000018	00008067	jalr	x0,x1,0	  x1:0x80000018
         145000	        13	00000000	00000013	addi	x0,x0,0	  x0:0x00000000
         155000	        14	80000018	00000013	addi	x0,x0,0	  x0:0x00000000
         165000	        15	8000001c	40000c37	lui	x24,0x40000	 x24=0x40000000
         175000	        16	80000020	100c0c13	addi	x24,x24,256	 x24:0x40000000 x24=0x40000100
         185000	        17	80000024	00000013	addi	x0,x0,0	  x0:0x00000000
         195000	        18	80000028	0000a817	auipc	x16,0xa	 x16=0x8000a024
         205000	        19	8000002c	fa080813	addi	x16,x16,-96	 x16:0x8000a024 x16=0x80009fc4
         215000	        20	80000030	00007c17	auipc	x24,0x7	 x24=0x8000702c
         225000	        21	80000034	504c0c13	addi	x24,x24,1284	 x24:0x8000702c x24=0x80007530
         235000	        22	80000038	001c6c13	ori	x24,x24,1	 x24:0x80007530 x24=0x80007531
         245000	        23	8000003c	00000013	addi	x0,x0,0	  x0:0x00000000
         255000	        24	80000040	00000c17	auipc	x24,0x0	 x24=0x8000003c
         265000	        25	80000044	020c0c13	addi	x24,x24,32	 x24:0x8000003c x24=0x8000005c
         275000	        26	80000048	00000013	addi	x0,x0,0	  x0:0x00000000
         285000	        27	8000004c	00000013	addi	x0,x0,0	  x0:0x00000000
         295000	        28	80000050	00002c37	lui	x24,0x2	 x24=0x00002000
         305000	        29	80000054	800c0c13	addi	x24,x24,-2048	 x24:0x00002000 x24=0x00001800
         315000	        30	80000058	00000013	addi	x0,x0,0	  x0:0x00000000
         325000	        31	8000005c	00000013	addi	x0,x0,0	  x0:0x00000000
         335000	        32	80000060	80000037	lui	x0,0x80000	
         345000	        33	80000064	00000013	addi	x0,x0,0	  x0:0x00000000
         355000	        34	80000068	00000093	addi	x1,x0,0	  x0:0x00000000  x1=0x00000000
         365000	        35	8000006c	00200113	addi	x2,x0,2	  x0:0x00000000  x2=0x00000002
         375000	        36	80000070	800001b7	lui	x3,0x80000	  x3=0x80000000
         385000	        37	80000074	00e00213	addi	x4,x0,14	  x0:0x00000000  x4=0x0000000e
         395000	        38	80000078	800002b7	lui	x5,0x80000	  x5=0x80000000
         405000	        39	8000007c	00b00313	addi	x6,x0,11	  x0:0x00000000  x6=0x0000000b
         415000	        40	80000080	686a53b7	lui	x7,0x686a5	  x7=0x686a5000
         425000	        41	80000084	49138393	addi	x7,x7,1169	  x7:0x686a5000  x7=0x686a5491
         435000	        42	80000088	0f15e437	lui	x8,0xf15e	  x8=0x0f15e000
         445000	        43	8000008c	44240413	addi	x8,x8,1090	  x8:0x0f15e000  x8=0x0f15e442
         455000	        44	80000090	38a514b7	lui	x9,0x38a51	  x9=0x38a51000
         465000	        45	80000094	42d48493	addi	x9,x9,1069	  x9:0x38a51000  x9=0x38a5142d
         475000	        46	80000098	80000537	lui	x10,0x80000	 x10=0x80000000
         485000	        47	8000009c	00e00593	addi	x11,x0,14	  x0:0x00000000 x11=0x0000000e
         495000	        48	800000a0	f4775637	lui	x12,0xf4775	 x12=0xf4775000
         505000	        49	800000a4	ed660613	addi	x12,x12,-298	 x12:0xf4775000 x12=0xf4774ed6
         515000	        50	800000a8	800006b7	lui	x13,0x80000	 x13=0x80000000
         525000	        51	800000ac	8a63e737	lui	x14,0x8a63e	 x14=0x8a63e000
         535000	        52	800000b0	d6b70713	addi	x14,x14,-661	 x14:0x8a63e000 x14=0x8a63dd6b
         545000	        53	800000b4	afdf37b7	lui	x15,0xafdf3	 x15=0xafdf3000
         555000	        54	800000b8	c1a78793	addi	x15,x15,-998	 x15:0xafdf3000 x15=0xafdf2c1a
         565000	        55	800000bc	fe2388b7	lui	x17,0xfe238	 x17=0xfe238000
         575000	        56	800000c0	e3e88893	addi	x17,x17,-450	 x17:0xfe238000 x17=0xfe237e3e
         585000	        57	800000c4	f9d6c937	lui	x18,0xf9d6c	 x18=0xf9d6c000
         595000	        58	800000c8	d8d90913	addi	x18,x18,-627	 x18:0xf9d6c000 x18=0xf9d6bd8d
         605000	        59	800000cc	00000993	addi	x19,x0,0	  x0:0x00000000 x19=0x00000000
         615000	        60	800000d0	80000a37	lui	x20,0x80000	 x20=0x80000000
         625000	        61	800000d4	53a54ab7	lui	x21,0x53a54	 x21=0x53a54000
         635000	        62	800000d8	f8aa8a93	addi	x21,x21,-118	 x21:0x53a54000 x21=0x53a53f8a
         645000	        63	800000dc	80000b37	lui	x22,0x80000	 x22=0x80000000
         655000	        64	800000e0	80000bb7	lui	x23,0x80000	 x23=0x80000000
         665000	        65	800000e4	c5935c37	lui	x24,0xc5935	 x24=0xc5935000
         675000	        66	800000e8	470c0c13	addi	x24,x24,1136	 x24:0xc5935000 x24=0xc5935470
         685000	        67	800000ec	fdc6dcb7	lui	x25,0xfdc6d	 x25=0xfdc6d000
         695000	        68	800000f0	80cc8c93	addi	x25,x25,-2036	 x25:0xfdc6d000 x25=0xfdc6c80c
         705000	        69	800000f4	f663fd37	lui	x26,0xf663f	 x26=0xf663f000
         715000	        70	800000f8	067d0d13	addi	x26,x26,103	 x26:0xf663f000 x26=0xf663f067
         725000	        71	800000fc	100a9e37	lui	x28,0x100a9	 x28=0x100a9000
         735000	        72	80000100	c05e0e13	addi	x28,x28,-1019	 x28:0x100a9000 x28=0x100a8c05
         745000	        73	80000104	80000eb7	lui	x29,0x80000	 x29=0x80000000
         755000	        74	80000108	80000f37	lui	x30,0x80000	 x30=0x80000000
         765000	        75	8000010c	dba18fb7	lui	x31,0xdba18	 x31=0xdba18000
         775000	        76	80000110	e4ef8f93	addi	x31,x31,-434	 x31:0xdba18000 x31=0xdba17e4e
         785000	        77	80000114	0000ad97	auipc	x27,0xa	 x27=0x8000a110
         795000	        78	80000118	e74d8d93	addi	x27,x27,-396	 x27:0x8000a110 x27=0x80009f84
         805000	        79	8000011c	010ddd33	srl	x26,x27,x16	 x27:0x80009f84 x16:0x80009fc4 x26=0x080009f8
         815000	        80	80000120	00002717	auipc	x14,0x2	 x14=0x8000211c
         825000	        81	80000124	18470713	addi	x14,x14,388	 x14:0x8000211c x14=0x800022a0
         835000	        82	80000128	ff370713	addi	x14,x14,-13	 x14:0x800022a0 x14=0x80002293
         845000	        83	8000012c	4ef13c13	sltiu	x24,x2,1263	  x2:0x00000002 x24=0x00000001
         855000	        84	80000130	4fef4213	xori	x4,x30,1278	 x30:0x80000000  x4=0x800004fe
         865000	        85	80000134	005cca33	xor	x20,x25,x5	 x25:0xfdc6c80c  x5:0x80000000 x20=0x7dc6c80c
         875000	        86	80000138	003e1233	sll	x4,x28,x3	 x28:0x100a8c05  x3:0x80000000  x4=0x100a8c05
         885000	        87	8000013c	00cb1d13	slli	x26,x22,0xc	 x22:0x80000000 x26=0x00000000
         895000	        88	80000140	1ae60193	addi	x3,x12,430	 x12:0xf4774ed6  x3=0xf4775084
         905000	        89	80000144	00cfeab3	or	x21,x31,x12	 x31:0xdba17e4e x12:0xf4774ed6 x21=0xfff77ede
         915000	        90	80000148	00e70967	jalr	x18,x14,14	 x14:0x80002293 x18=0x80000148
         925000	        91	00000000	00000013	addi	x0,x0,0	  x0:0x00000000
         935000	        92	800022a0	00000013	addi	x0,x0,0	  x0:0x00000000
         945000	        93	800022a4	50df3a93	sltiu	x21,x30,1293	 x30:0x80000000 x21=0x00000000
         955000	        94	800022a8	d7ab2513	slti	x10,x22,-646	 x22:0x80000000 x10=0x00000001
         965000	        95	800022ac	fe0d8d93	addi	x27,x27,-32	 x27:0x80009f84 x27=0x80009f64
         975000	        96	800022b0	00470533	add	x10,x14,x4	 x14:0x80002293  x4:0x100a8c05 x10=0x900aae98
         985000	        97	800022b4	012da223	sw	x18,4(x27)	 x27:0x80009f64 x18:0x80000148 PA:0x80009f68
         995000	        98	800022b8	0146c133	xor	x2,x13,x20	 x13:0x80000000 x20:0x7dc6c80c  x2=0xfdc6c80c
        1005000	        99	800022bc	00006117	auipc	x2,0x6	  x2=0x800082b8
        1015000	       100	800022c0	7d010113	addi	x2,x2,2000	  x2:0x800082b8  x2=0x80008a88
        1025000	       101	800022c4	f4711b23	sh	x7,-170(x2)	  x2:0x80008a88  x7:0x686a5491 PA:0x800089de
        1035000	       102	800022c8	f4310f83	lb	x31,-189(x2)	  x2:0x80008a88 x31=0x00000026 PA:0x800089cb
        1045000	       103	800022cc	40a3d4b3	sra	x9,x7,x10	  x7:0x686a5491 x10:0x900aae98  x9=0x00000068
        1055000	       104	800022d0	ffd14383	lbu	x7,-3(x2)	  x2:0x80008a88  x7=0x00000063 PA:0x80008a85
        1065000	       105	800022d4	fd214003	lbu	x0,-46(x2)	  x2:0x80008a88 PA:0x80008a5a
        1075000	       106	800022d8	00f3da93	srli	x21,x7,0xf	  x7:0x00000063 x21=0x00000000
        1085000	       107	800022dc	00e95f93	srli	x31,x18,0xe	 x18:0x80000148 x31=0x00020000
        1095000	       108	800022e0	01bbba33	sltu	x20,x23,x27	 x23:0x80000000 x27:0x80009f64 x20=0x00000001
        1105000	       109	800022e4	f7310003	lb	x0,-141(x2)	  x2:0x80008a88 PA:0x800089fb
        1115000	       110	800022e8	fc310183	lb	x3,-61(x2)	  x2:0x80008a88  x3=0xffffffaa PA:0x80008a4b
        1125000	       111	800022ec	77ee3f13	sltiu	x30,x28,1918	 x28:0x100a8c05 x30=0x00000000
        1135000	       112	800022f0	0a2109a3	sb	x2,179(x2)	  x2:0x80008a88  x2:0x80008a88 PA:0x80008b3b
        1145000	       113	800022f4	498ec897	auipc	x17,0x498ec	 x17=0xc98ee2f0
        1155000	       114	800022f8	57ce2b93	slti	x23,x28,1404	 x28:0x100a8c05 x23=0x00000000
        1165000	       115	800022fc	00000013	addi	x0,x0,0	  x0:0x00000000
        1175000	       116	80002300	00119e33	sll	x28,x3,x1	  x3:0xffffffaa  x1:0x00000000 x28=0xffffffaa
        1185000	       117	80002304	fd314603	lbu	x12,-45(x2)	  x2:0x80008a88 x12=0x00000090 PA:0x80008a5b
        1195000	       118	80002308	02d10583	lb	x11,45(x2)	  x2:0x80008a88 x11=0xffffff90 PA:0x80008ab5
        1205000	       119	8000230c	3a6dfd13	andi	x26,x27,934	 x27:0x80009f64 x26=0x00000324
        1215000	       120	80002310	07c15203	lhu	x4,124(x2)	  x2:0x80008a88  x4=0x00003cc3 PA:0x80008b04
        1225000	       121	80002314	a11d7c37	lui	x24,0xa11d7	 x24=0xa11d7000
        1235000	       122	80002318	aceb3293	sltiu	x5,x22,-1330	 x22:0x80000000  x5=0x00000001
        1245000	       123	8000231c	411b5c33	sra	x24,x22,x17	 x22:0x80000000 x17:0xc98ee2f0 x24=0xffff8000
        1255000	       124	80002320	0105d1b3	srl	x3,x11,x16	 x11:0xffffff90 x16:0x80009fc4  x3=0x0ffffff9
        1265000	       125	80002324	066106a3	sb	x6,109(x2)	  x2:0x80008a88  x6:0x0000000b PA:0x80008af5
        1275000	       126	80002328	001d3fb3	sltu	x31,x26,x1	 x26:0x00000324  x1:0x00000000 x31=0x00000000
        1285000	       127	8000232c	0199c1b3	xor	x3,x19,x25	 x19:0x00000000 x25:0xfdc6c80c  x3=0xfdc6c80c
        1295000	       128	80002330	0de102a3	sb	x30,197(x2)	  x2:0x80008a88 x30:0x00000000 PA:0x80008b4d
        1305000	       129	80002334	0138ae33	slt	x28,x17,x19	 x17:0xc98ee2f0 x19:0x00000000 x28=0x00000001
        1315000	       130	80002338	7d004c93	xori	x25,x0,2000	  x0:0x00000000 x25=0x000007d0
        1325000	       131	8000233c	00f8a033	slt	x0,x17,x15	 x17:0xc98ee2f0 x15:0xafdf2c1a
        1335000	       132	80002340	00fa5f93	srli	x31,x20,0xf	 x20:0x00000001 x31=0x00000000
        1345000	       133	80002344	09c11723	sh	x28,142(x2)	  x2:0x80008a88 x28:0x00000001 PA:0x80008b16
        1355000	       134	80002348	0cf10783	lb	x15,207(x2)	  x2:0x80008a88 x15=0xffffff95 PA:0x80008b57
        1365000	       135	8000234c	ff311523	sh	x19,-22(x2)	  x2:0x80008a88 x19:0x00000000 PA:0x80008a72
        1375000	       136	80002350	00007117	auipc	x2,0x7	  x2=0x8000934c
        1385000	       137	80002354	94410113	addi	x2,x2,-1724	  x2:0x8000934c  x2=0x80008c90
        1395000	       138	80002358	00e6f633	and	x12,x13,x14	 x13:0x80000000 x14:0x80002293 x12=0x80000000
        1405000	       139	8000235c	2450c913	xori	x18,x1,581	  x1:0x00000000 x18=0x00000245
        1415000	       140	80002360	01f0c7b3	xor	x15,x1,x31	  x1:0x00000000 x31:0x00000000 x15=0x00000000
        1425000	       141	80002364	09594f13	xori	x30,x18,149	 x18:0x00000245 x30=0x000002d0
        1435000	       142	80002368	00214983	lbu	x19,2(x2)	  x2:0x80008c90 x19=0x0000005b PA:0x80008c92
        1445000	       143	8000236c	00110523	sb	x1,10(x2)	  x2:0x80008c90  x1:0x00000000 PA:0x80008c9a
        1455000	       144	80002370	0034a733	slt	x14,x9,x3	  x9:0x00000068  x3:0xfdc6c80c x14=0x00000000
        1465000	       145	80002374	fe910aa3	sb	x9,-11(x2)	  x2:0x80008c90  x9:0x00000068 PA:0x80008c85
        1475000	       146	80002378	fff10983	lb	x19,-1(x2)	  x2:0x80008c90 x19=0xfffffff4 PA:0x80008c8f
        1485000	       147	8000237c	01973533	sltu	x10,x14,x25	 x14:0x00000000 x25:0x000007d0 x10=0x00000001
        1495000	       148	80002380	9a55ec37	lui	x24,0x9a55e	 x24=0x9a55e000
        1505000	       149	80002384	346dc593	xori	x11,x27,838	 x27:0x80009f64 x11=0x80009c22
        1515000	       150	80002388	01f105a3	sb	x31,11(x2)	  x2:0x80008c90 x31:0x00000000 PA:0x80008c9b
        1525000	       151	8000238c	ffa14c83	lbu	x25,-6(x2)	  x2:0x80008c90 x25=0x00000004 PA:0x80008c8a
        1535000	       152	80002390	fff14003	lbu	x0,-1(x2)	  x2:0x80008c90 PA:0x80008c8f
        1545000	       153	80002394	8f9df193	andi	x3,x27,-1799	 x27:0x80009f64  x3=0x80009860
        1555000	       154	80002398	00000013	addi	x0,x0,0	  x0:0x00000000
        1565000	       155	8000239c	001d47b3	xor	x15,x26,x1	 x26:0x00000324  x1:0x00000000 x15=0x00000324
        1575000	       156	800023a0	ff110da3	sb	x17,-5(x2)	  x2:0x80008c90 x17:0xc98ee2f0 PA:0x80008c8b
        1585000	       157	800023a4	015b83b3	add	x7,x23,x21	 x23:0x00000000 x21:0x00000000  x7=0x00000000
        1595000	       158	800023a8	004dac33	slt	x24,x27,x4	 x27:0x80009f64  x4:0x00003cc3 x24=0x00000001
        1605000	       159	800023ac	00b14d03	lbu	x26,11(x2)	  x2:0x80008c90 x26=0x00000000 PA:0x80008c9b
        1615000	       160	800023b0	00412783	lw	x15,4(x2)	  x2:0x80008c90 x15=0xfc9fd8cd PA:0x80008c94
        1625000	       161	800023b4	41540e33	sub	x28,x8,x21	  x8:0x0f15e442 x21:0x00000000 x28=0x0f15e442
        1635000	       162	800023b8	da96bf13	sltiu	x30,x13,-599	 x13:0x80000000 x30=0x00000001
        1645000	       163	800023bc	ffd14403	lbu	x8,-3(x2)	  x2:0x80008c90  x8=0x00000035 PA:0x80008c8d
        1655000	       164	800023c0	89cf5537	lui	x10,0x89cf5	 x10=0x89cf5000
        1665000	       165	800023c4	b481b293	sltiu	x5,x3,-1208	  x3:0x80009860  x5=0x00000001
        1675000	       166	800023c8	01015983	lhu	x19,16(x2)	  x2:0x80008c90 x19=0x0000576c PA:0x80008ca0
        1685000	       167	800023cc	0ad8ae13	slti	x28,x17,173	 x17:0xc98ee2f0 x28=0x00000001
        1695000	       168	800023d0	00000013	addi	x0,x0,0	  x0:0x00000000
        1705000	       169	800023d4	ce858f13	addi	x30,x11,-792	 x11:0x80009c22 x30=0x8000990a
        1715000	       170	800023d8	fee10823	sb	x14,-16(x2)	  x2:0x80008c90 x14:0x00000000 PA:0x80008c80
        1725000	       171	800023dc	01fa84b3	add	x9,x21,x31	 x21:0x00000000 x31:0x00000000  x9=0x00000000
        1735000	       172	800023e0	00110423	sb	x1,8(x2)	  x2:0x80008c90  x1:0x00000000 PA:0x80008c98
        1745000	       173	800023e4	ffc12983	lw	x19,-4(x2)	  x2:0x80008c90 x19=0xf4af3521 PA:0x80008c8c
        1755000	       174	800023e8	3d9ec313	xori	x6,x29,985	 x29:0x80000000  x6=0x800003d9
        1765000	       175	800023ec	017486b3	add	x13,x9,x23	  x9:0x00000000 x23:0x00000000 x13=0x00000000
        1775000	       176	800023f0	016102a3	sb	x22,5(x2)	  x2:0x80008c90 x22:0x80000000 PA:0x80008c95
        1785000	       177	800023f4	ff710ba3	sb	x23,-9(x2)	  x2:0x80008c90 x23:0x00000000 PA:0x80008c87
        1795000	       178	800023f8	04933013	sltiu	x0,x6,73	  x6:0x800003d9
        1805000	       179	800023fc	407a56b3	sra	x13,x20,x7	 x20:0x00000001  x7:0x00000000 x13=0x00000001
        1815000	       180	80002400	408b8533	sub	x10,x23,x8	 x23:0x00000000  x8:0x00000035 x10=0xffffffcb
        1825000	       181	80002404	01015c03	lhu	x24,16(x2)	  x2:0x80008c90 x24=0x0000576c PA:0x80008ca0
        1835000	       182	80002408	00410c03	lb	x24,4(x2)	  x2:0x80008c90 x24=0xffffffcd PA:0x80008c94
        1845000	       183	8000240c	fe810c23	sb	x8,-8(x2)	  x2:0x80008c90  x8:0x00000035 PA:0x80008c88
        1855000	       184	80002410	00610d03	lb	x26,6(x2)	  x2:0x80008c90 x26=0xffffff9f PA:0x80008c96
        1865000	       185	80002414	ff114303	lbu	x6,-15(x2)	  x2:0x80008c90  x6=0x0000005b PA:0x80008c81
        1875000	       186	80002418	00006517	auipc	x10,0x6	 x10=0x80008414
        1885000	       187	8000241c	d0c50513	addi	x10,x10,-756	 x10:0x80008414 x10=0x80008120
        1895000	       188	80002420	00000013	addi	x0,x0,0	  x0:0x00000000
        1905000	       189	80002424	01dcad33	slt	x26,x25,x29	 x25:0x00000004 x29:0x80000000 x26=0x00000000
        1915000	       190	80002428	01f34cb3	xor	x25,x6,x31	  x6:0x0000005b x31:0x00000000 x25=0x0000005b
        1925000	       191	8000242c	07a54c03	lbu	x24,122(x10)	 x10:0x80008120 x24=0x00000038 PA:0x8000819a
        1935000	       192	80002430	2bd50003	lb	x0,701(x10)	 x10:0x80008120 PA:0x800083dd
        1945000	       193	80002434	f49500a3	sb	x9,-191(x10)	 x10:0x80008120  x9:0x00000000 PA:0x80008061
        1955000	       194	80002438	44c51523	sh	x12,1098(x10)	 x10:0x80008120 x12:0x80000000 PA:0x8000856a
        1965000	       195	8000243c	018949b3	xor	x19,x18,x24	 x18:0x00000245 x24:0x00000038 x19=0x0000027d
        1975000	       196	80002440	52950f03	lb	x30,1321(x10)	 x10:0x80008120 x30=0xffffffbf PA:0x80008649
        1985000	       197	80002444	41054283	lbu	x5,1040(x10)	 x10:0x80008120  x5=0x0000002b PA:0x80008530
        1995000	       198	80002448	1ae54203	lbu	x4,430(x10)	 x10:0x80008120  x4=0x0000003c PA:0x800082ce
        2005000	       199	8000244c	6cf500a3	sb	x15,1729(x10)	 x10:0x80008120 x15:0xfc9fd8cd PA:0x800087e1
        2015000	       200	80002450	007eeab3	or	x21,x29,x7	 x29:0x80000000  x7:0x00000000 x21=0x80000000
        2025000	       201	80002454	3ff50903	lb	x18,1023(x10)	 x10:0x80008120 x18=0x0000001b PA:0x8000851f
        2035000	       202	80002458	4160db13	srai	x22,x1,0x16	  x1:0x00000000 x22=0x00000000
        2045000	       203	8000245c	01350183	lb	x3,19(x10)	 x10:0x80008120  x3=0xffffffb7 PA:0x80008133
        2055000	       204	80002460	0015fa33	and	x20,x11,x1	 x11:0x80009c22  x1:0x00000000 x20=0x00000000
        2065000	       205	80002464	4f850f23	sb	x24,1278(x10)	 x10:0x80008120 x24:0x00000038 PA:0x8000861e
        2075000	       206	80002468	01daad33	slt	x26,x21,x29	 x21:0x80000000 x29:0x80000000 x26=0x00000000
        2085000	       207	8000246c	4d152e23	sw	x17,1244(x10)	 x10:0x80008120 x17:0xc98ee2f0 PA:0x800085fc
        2095000	       208	80002470	0070b8b3	sltu	x17,x1,x7	  x1:0x00000000  x7:0x00000000 x17=0x00000000
        2105000	       209	80002474	a6c4f793	andi	x15,x9,-1428	  x9:0x00000000 x15=0x00000000
        2115000	       210	80002478	02b50b03	lb	x22,43(x10)	 x10:0x80008120 x22=0x00000018 PA:0x8000814b
        2125000	       211	8000247c	4a550e03	lb	x28,1189(x10)	 x10:0x80008120 x28=0xffffffa4 PA:0x800085c5
        2135000	       212	80002480	40bad913	srai	x18,x21,0xb	 x21:0x80000000 x18=0xfff00000
        2145000	       213	80002484	24750883	lb	x17,583(x10)	 x10:0x80008120 x17=0xffffff8d PA:0x80008367
        2155000	       214	80002488	00c05933	srl	x18,x0,x12	  x0:0x00000000 x12:0x80000000 x18=0x00000000
        2165000	       215	8000248c	63b50a03	lb	x20,1595(x10)	 x10:0x80008120 x20=0xffffffba PA:0x8000875b
        2175000	       216	00000000	00000013	addi	x0,x0,0	  x0:0x00000000
        2185000	       217	80002490	f5455c03	lhu	x24,-172(x10)	 x10:0x80008120 x24=0x000083a8 PA:0x80008074
        2195000	       218	80002494	00006317	auipc	x6,0x6	  x6=0x80008490
        2205000	       219	80002498	58d30313	addi	x6,x6,1421	  x6:0x80008490  x6=0x80008a1d
        2215000	       220	8000249c	017c2e33	slt	x28,x24,x23	 x24:0x000083a8 x23:0x00000000 x28=0x00000000
        2225000	       221	800024a0	f3732c03	lw	x24,-201(x6)	  x6:0x80008a1d x24=0x42288225 PA:0x80008954
        2235000	       222	800024a4	09630f23	sb	x22,158(x6)	  x6:0x80008a1d x22:0x00000018 PA:0x80008abb
        2245000	       223	800024a8	016f8fb3	add	x31,x31,x22	 x31:0x00000000 x22:0x00000018 x31=0x00000018
        2255000	       224	800024ac	03134883	lbu	x17,49(x6)	  x6:0x80008a1d x17=0x00000036 PA:0x80008a4e
        2265000	       225	800024b0	3da30883	lb	x17,986(x6)	  x6:0x80008a1d x17=0x00000076 PA:0x80008df7
        2275000	       226	800024b4	41a7d4b3	sra	x9,x15,x26	 x15:0x00000000 x26:0x00000000  x9=0x00000000
        2285000	       227	800024b8	27befb93	andi	x23,x29,635	 x29:0x80000000 x23=0x00000000
        2295000	       228	800024bc	e46c3113	sltiu	x2,x24,-442	 x24:0x42288225  x2=0x00000001
        2305000	       229	800024c0	01ba2633	slt	x12,x20,x27	 x20:0xffffffba x27:0x80009f64 x12=0x00000000
        2315000	       230	800024c4	410b09b3	sub	x19,x22,x16	 x22:0x00000018 x16:0x80009fc4 x19=0x7fff6054
        2325000	       231	800024c8	00572cb3	slt	x25,x14,x5	 x14:0x00000000  x5:0x0000002b x25=0x00000001
        2335000	       232	800024cc	f8c30503	lb	x10,-116(x6)	  x6:0x80008a1d x10=0xffffffec PA:0x800089a9
        2345000	       233	800024d0	3b430a23	sb	x20,948(x6)	  x6:0x80008a1d x20:0xffffffba PA:0x80008dd1
        2355000	       234	800024d4	4d934403	lbu	x8,1241(x6)	  x6:0x80008a1d  x8=0x000000b0 PA:0x80008ef6
        2365000	       235	800024d8	26bb8793	addi	x15,x23,619	 x23:0x00000000 x15=0x0000026b
        2375000	       236	800024dc	41b30c23	sb	x27,1048(x6)	  x6:0x80008a1d x27:0x80009f64 PA:0x80008e35
        2385000	       237	800024e0	40190b33	sub	x22,x18,x1	 x18:0x00000000  x1:0x00000000 x22=0x00000000
        2395000	       238	800024e4	0006c513	xori	x10,x13,0	 x13:0x00000001 x10=0x00000001
        2405000	       239	800024e8	00baffb3	and	x31,x21,x11	 x21:0x80000000 x11:0x80009c22 x31=0x80000000
        2415000	       240	800024ec	f403e293	ori	x5,x7,-192	  x7:0x00000000  x5=0xffffff40
        2425000	       241	800024f0	00ae9a33	sll	x20,x29,x10	 x29:0x80000000 x10:0x00000001 x20=0x00000000
        2435000	       242	800024f4	aa422b13	slti	x22,x4,-1372	  x4:0x0000003c x22=0x00000000
        2445000	       243	800024f8	30830703	lb	x14,776(x6)	  x6:0x80008a1d x14=0xffffffd5 PA:0x80008d25
        2455000	       244	800024fc	3a030f03	lb	x30,928(x6)	  x6:0x80008a1d x30=0x0000007b PA:0x80008dbd
        2465000	       245	80002500	16b30223	sb	x11,356(x6)	  x6:0x80008a1d x11:0x80009c22 PA:0x80008b81
        2475000	       246	80002504	03e31ba3	sh	x30,55(x6)	  x6:0x80008a1d x30:0x0000007b PA:0x80008a54
        2485000	       247	80002508	43630383	lb	x7,1078(x6)	  x6:0x80008a1d  x7=0x0000001f PA:0x80008e53
        2495000	       248	8000250c	e8330203	lb	x4,-381(x6)	  x6:0x80008a1d  x4=0xffffffee PA:0x800088a0
        2505000	       249	80002510	3dc30b23	sb	x28,982(x6)	  x6:0x80008a1d x28:0x00000000 PA:0x80008df3
        2515000	       250	80002514	36332683	lw	x13,867(x6)	  x6:0x80008a1d x13=0x1fa09fa0 PA:0x80008d80
        2525000	       251	80002518	00006497	auipc	x9,0x6	  x9=0x80008514
        2535000	       252	8000251c	78c48493	addi	x9,x9,1932	  x9:0x80008514  x9=0x80008ca0
        2545000	       253	80002520	1684c903	lbu	x18,360(x9)	  x9:0x80008ca0 x18=0x0000008f PA:0x80008e08
        2555000	       254	80002524	01172eb3	slt	x29,x14,x17	 x14:0xffffffd5 x17:0x00000076 x29=0x00000001
        2565000	       255	80002528	b10c0393	addi	x7,x24,-1264	 x24:0x42288225  x7=0x42287d35
        2575000	       256	8000252c	01ff5bb3	srl	x23,x30,x31	 x30:0x0000007b x31:0x80000000 x23=0x0000007b
        2585000	       257	80002530	011be6b3	or	x13,x23,x17	 x23:0x0000007b x17:0x00000076 x13=0x0000007f
        2595000	       258	80002534	00000013	addi	x0,x0,0	  x0:0x00000000
        2605000	       259	80002538	9590e293	ori	x5,x1,-1703	  x1:0x00000000  x5=0xfffff959
        2615000	       260	8000253c	f2a48ea3	sb	x10,-195(x9)	  x9:0x80008ca0 x10:0x00000001 PA:0x80008bdd
        2625000	       261	80002540	82332693	slti	x13,x6,-2013	  x6:0x80008a1d x13=0x00000001
        2635000	       262	80002544	010a32b3	sltu	x5,x20,x16	 x20:0x00000000 x16:0x80009fc4  x5=0x00000001
        2645000	       263	80002548	cb598013	addi	x0,x19,-843	 x19:0x7fff6054
        2655000	       264	8000254c	12f4cb83	lbu	x23,303(x9)	  x9:0x80008ca0 x23=0x00000055 PA:0x80008dcf
        2665000	       265	80002550	c4148103	lb	x2,-959(x9)	  x9:0x80008ca0  x2=0xfffffff0 PA:0x800088e1
        2675000	       266	80002554	13d4c403	lbu	x8,317(x9)	  x9:0x80008ca0  x8=0x000000d7 PA:0x80008ddd
        2685000	       267	80002558	9a9dbe93	sltiu	x29,x27,-1623	 x27:0x80009f64 x29=0x00000001
        2695000	       268	8000255c	01c468b3	or	x17,x8,x28	  x8:0x000000d7 x28:0x00000000 x17=0x000000d7
        2705000	       269	80002560	010d52b3	srl	x5,x26,x16	 x26:0x00000000 x16:0x80009fc4  x5=0x00000000
        2715000	       270	80002564	1ce4df83	lhu	x31,462(x9)	  x9:0x80008ca0 x31=0x0000385c PA:0x80008e6e
        2725000	       271	80002568	d2848ca3	sb	x8,-711(x9)	  x9:0x80008ca0  x8:0x000000d7 PA:0x800089d9
        2735000	       272	8000256c	dd249d03	lh	x26,-558(x9)	  x9:0x80008ca0 x26=0x00000000 PA:0x80008a72
        2745000	       273	80002570	00000013	addi	x0,x0,0	  x0:0x00000000
        2755000	       274	80002574	01c6a733	slt	x14,x13,x28	 x13:0x00000001 x28:0x00000000 x14=0x00000000
        2765000	       275	80002578	0049ec33	or	x24,x19,x4	 x19:0x7fff6054  x4:0xffffffee x24=0xfffffffe
        2775000	       276	8000257c	bd758e13	addi	x28,x11,-1065	 x11:0x80009c22 x28=0x800097f9
        2785000	       277	80002580	01304c33	xor	x24,x0,x19	  x0:0x00000000 x19:0x7fff6054 x24=0x7fff6054
        2795000	       278	80002584	f8448f23	sb	x4,-98(x9)	  x9:0x80008ca0  x4:0xffffffee PA:0x80008c3e
        2805000	       279	80002588	f3c49283	lh	x5,-196(x9)	  x9:0x80008ca0  x5=0x00000123 PA:0x80008bdc
        2815000	       280	8000258c	0037bd33	sltu	x26,x15,x3	 x15:0x0000026b  x3:0xffffffb7 x26=0x00000001
        2825000	       281	80002590	50154f13	xori	x30,x10,1281	 x10:0x00000001 x30=0x00000500
        2835000	       282	80002594	004c9263	bne	x25,x4,80002598	 x25:0x00000001  x4:0xffffffee
        2845000	       283	00000000	00000013	addi	x0,x0,0	  x0:0x00000000
        2855000	       284	80002594	00000013	addi	x0,x0,0	  x0:0x00000000
        2865000	       285	80002598	03754263	blt	x10,x23,800025bc	 x10:0x00000001 x23:0x00000055
        2875000	       286	00000000	00000013	addi	x0,x0,0	  x0:0x00000000
        2885000	       287	800025b8	00000013	addi	x0,x0,0	  x0:0x00000000
        2895000	       288	800025bc	0531d263	bge	x3,x19,80002600	  x3:0xffffffb7 x19:0x7fff6054
        2905000	       289	800025c0	57ff9717	auipc	x14,0x57ff9	 x14=0xd7ffb5bc
        2915000	       290	800025c4	05657063	bgeu	x10,x22,80002604	 x10:0x00000001 x22:0x00000000
        2925000	       291	00000000	00000013	addi	x0,x0,0	  x0:0x00000000
        2935000	       292	80002600	00000013	addi	x0,x0,0	  x0:0x00000000
        2945000	       293	80002604	0363de63	bge	x7,x22,80002640	  x7:0x42287d35 x22:0x00000000
        2955000	       294	00000000	00000013	addi	x0,x0,0	  x0:0x00000000
        2965000	       295	8000263c	00000013	addi	x0,x0,0	  x0:0x00000000
        2975000	       296	80002640	5998e113	ori	x2,x17,1433	 x17:0x000000d7  x2=0x000005df
        2985000	       297	80002644	00000013	addi	x0,x0,0	  x0:0x00000000
        2995000	       298	80002648	40a55213	srai	x4,x10,0xa	 x10:0x00000001  x4=0x00000000
        3005000	       299	8000264c	00a6c663	blt	x13,x10,80002658	 x13:0x00000001 x10:0x00000001
        3015000	       300	80002650	01c21793	slli	x15,x4,0x1c	  x4:0x00000000 x15=0x00000000
        3025000	       301	80002654	c0937a13	andi	x20,x6,-1015	  x6:0x80008a1d x20=0x80008809
        3035000	       302	80002658	b2ae3f93	sltiu	x31,x28,-1238	 x28:0x800097f9 x31=0x00000001
        3045000	       303	8000265c	01af9e33	sll	x28,x31,x26	 x31:0x00000001 x26:0x00000001 x28=0x00000002
        3055000	       304	80002660	cf22e993	ori	x19,x5,-782	  x5:0x00000123 x19=0xfffffdf3
        3065000	       305	80002664	403dd513	srai	x10,x27,0x3	 x27:0x80009f64 x10=0xf00013ec
        3075000	       306	80002668	01d24333	xor	x6,x4,x29	  x4:0x00000000 x29:0x00000001  x6=0x00000001
        3085000	       307	8000266c	00007e17	auipc	x28,0x7	 x28=0x80009668
        3095000	       308	80002670	8fce0e13	addi	x28,x28,-1796	 x28:0x80009668 x28=0x80008f64
        3105000	       309	80002674	40bcda93	srai	x21,x25,0xb	 x25:0x00000001 x21=0x00000000
        3115000	       310	80002678	b9e45497	auipc	x9,0xb9e45	  x9=0x39e47674
        3125000	       311	8000267c	c072bf93	sltiu	x31,x5,-1017	  x5:0x00000123 x31=0x00000001
        3135000	       312	80002680	00000013	addi	x0,x0,0	  x0:0x00000000
        3145000	       313	80002684	01f836b3	sltu	x13,x16,x31	 x16:0x80009fc4 x31:0x00000001 x13=0x00000000
        3155000	       314	80002688	00de0da3	sb	x13,27(x28)	 x28:0x80008f64 x13:0x00000000 PA:0x80008f7f
        3165000	       315	8000268c	068e2c03	lw	x24,104(x28)	 x28:0x80008f64 x24=0xf0c2e22c PA:0x80008fcc
        3175000	       316	80002690	004f6033	or	x0,x30,x4	 x30:0x00000500  x4:0x00000000
        3185000	       317	80002694	23fa7b13	andi	x22,x20,575	 x20:0x80008809 x22=0x00000009
        3195000	       318	80002698	0177c5b3	xor	x11,x15,x23	 x15:0x00000000 x23:0x00000055 x11=0x00000055
        3205000	       319	8000269c	0136a933	slt	x18,x13,x19	 x13:0x00000000 x19:0xfffffdf3 x18=0x00000000
        3215000	       320	800026a0	003e0823	sb	x3,16(x28)	 x28:0x80008f64  x3:0xffffffb7 PA:0x80008f74
        3225000	       321	800026a4	0f388d13	addi	x26,x17,243	 x17:0x000000d7 x26=0x000001ca
        3235000	       322	800026a8	68afd197	auipc	x3,0x68afd	  x3=0xe8aff6a4
        3245000	       323	800026ac	a347af93	slti	x31,x15,-1484	 x15:0x00000000 x31=0x00000000
        3255000	       324	800026b0	f2ae1c23	sh	x10,-200(x28)	 x28:0x80008f64 x10:0xf00013ec PA:0x80008e9c
        3265000	       325	800026b4	feae09a3	sb	x10,-13(x28)	 x28:0x80008f64 x10:0xf00013ec PA:0x80008f57
        3275000	       326	800026b8	028e4a03	lbu	x20,40(x28)	 x28:0x80008f64 x20=0x0000008a PA:0x80008f8c
        3285000	       327	800026bc	64188993	addi	x19,x17,1601	 x17:0x000000d7 x19=0x00000718
        3295000	       328	800026c0	40dbd993	srai	x19,x23,0xd	 x23:0x00000055 x19=0x00000000
        3305000	       329	800026c4	00eb53b3	srl	x7,x22,x14	 x22:0x00000009 x14:0xd7ffb5bc  x7=0x00000000
        3315000	       330	800026c8	06be0883	lb	x17,107(x28)	 x28:0x80008f64 x17=0xfffffff0 PA:0x80008fcf
        3325000	       331	800026cc	01bc87b3	add	x15,x25,x27	 x25:0x00000001 x27:0x80009f64 x15=0x80009f65
        3335000	       332	800026d0	00aa5fb3	srl	x31,x20,x10	 x20:0x0000008a x10:0xf00013ec x31=0x00000000
        3345000	       333	800026d4	05be4583	lbu	x11,91(x28)	 x28:0x80008f64 x11=0x0000008c PA:0x80008fbf
        3355000	       334	800026d8	023e4683	lbu	x13,35(x28)	 x28:0x80008f64 x13=0x00000090 PA:0x80008f87
        3365000	       335	800026dc	f62e1b83	lh	x23,-158(x28)	 x28:0x80008f64 x23=0x00003200 PA:0x80008ec6
        3375000	       336	800026e0	40378b33	sub	x22,x15,x3	 x15:0x80009f65  x3:0xe8aff6a4 x22=0x9750a8c1
        3385000	       337	800026e4	00c9c433	xor	x8,x19,x12	 x19:0x00000000 x12:0x00000000  x8=0x00000000
        3395000	       338	800026e8	fe5e05a3	sb	x5,-21(x28)	 x28:0x80008f64  x5:0x00000123 PA:0x80008f4f
        3405000	       339	800026ec	0091e463	bltu	x3,x9,800026f4	  x3:0xe8aff6a4  x9:0x39e47674
        3415000	       340	800026f0	0099ebb3	or	x23,x19,x9	 x19:0x00000000  x9:0x39e47674 x23=0x39e47674
        3425000	       341	800026f4	406bdb13	srai	x22,x23,0x6	 x23:0x39e47674 x22=0x00e791d9
        3435000	       342	800026f8	01584133	xor	x2,x16,x21	 x16:0x80009fc4 x21:0x00000000  x2=0x80009fc4
        3445000	       343	800026fc	0090d2b3	srl	x5,x1,x9	  x1:0x00000000  x9:0x39e47674  x5=0x00000000
        3455000	       344	80002700	404a82b3	sub	x5,x21,x4	 x21:0x00000000  x4:0x00000000  x5=0x00000000
        3465000	       345	80002704	a64c3e13	sltiu	x28,x24,-1436	 x24:0xf0c2e22c x28=0x00000001
        3475000	       346	80002708	00d71493	slli	x9,x14,0xd	 x14:0xd7ffb5bc  x9=0xf6b78000
        3485000	       347	8000270c	4090dc93	srai	x25,x1,0x9	  x1:0x00000000 x25=0x00000000
        3495000	       348	80002710	019f75b3	and	x11,x30,x25	 x30:0x00000500 x25:0x00000000 x11=0x00000000
        3505000	       349	80002714	0f9af513	andi	x10,x21,249	 x21:0x00000000 x10=0x00000000
        3515000	       350	80002718	01fc0033	add	x0,x24,x31	 x24:0xf0c2e22c x31:0x00000000
        3525000	       351	8000271c	f71c6213	ori	x4,x24,-143	 x24:0xf0c2e22c  x4=0xffffff7d
        3535000	       352	80002720	02c56463	bltu	x10,x12,80002748	 x10:0x00000000 x12:0x00000000
        3545000	       353	80002724	13f7fb93	andi	x23,x15,319	 x15:0x80009f65 x23=0x00000125
        3555000	       354	80002728	005d8733	add	x14,x27,x5	 x27:0x80009f64  x5:0x00000000 x14=0x80009f64
        3565000	       355	8000272c	47465f97	auipc	x31,0x47465	 x31=0xc7467728
        3575000	       356	80002730	de6d2193	slti	x3,x26,-538	 x26:0x000001ca  x3=0x00000000
        3585000	       357	80002734	d910a913	slti	x18,x1,-623	  x1:0x00000000 x18=0x00000000
        3595000	       358	80002738	c6b0b917	auipc	x18,0xc6b0b	 x18=0x46b0d734
        3605000	       359	8000273c	017fee63	bltu	x31,x23,80002758	 x31:0xc7467728 x23:0x00000125
        3615000	       360	80002740	00639893	slli	x17,x7,0x6	  x7:0x00000000 x17=0x00000000
        3625000	       361	80002744	cd7e3513	sltiu	x10,x28,-809	 x28:0x00000001 x10=0x00000001
        3635000	       362	80002748	03338663	beq	x7,x19,80002774	  x7:0x00000000 x19:0x00000000
        3645000	       363	00000000	00000013	addi	x0,x0,0	  x0:0x00000000
        3655000	       364	80002770	00000013	addi	x0,x0,0	  x0:0x00000000
        3665000	       365	80002774	03536663	bltu	x6,x21,800027a0	  x6:0x00000001 x21:0x00000000
        3675000	       366	80002778	00d18533	add	x10,x3,x13	  x3:0x00000000 x13:0x00000090 x10=0x00000090
        3685000	       367	8000277c	0429c463	blt	x19,x2,800027c4	 x19:0x00000000  x2:0x80009fc4
        3695000	       368	80002780	03a6da63	bge	x13,x26,800027b4	 x13:0x00000090 x26:0x000001ca
        3705000	       369	80002784	01dfd193	srli	x3,x31,0x1d	 x31:0xc7467728  x3=0x00000006
        3715000	       370	80002788	021bc863	blt	x23,x1,800027b8	 x23:0x00000125  x1:0x00000000
        3725000	       371	8000278c	05ef1463	bne	x30,x30,800027d4	 x30:0x00000500 x30:0x00000500
        3735000	       372	80002790	02dede63	bge	x29,x13,800027cc	 x29:0x00000001 x13:0x00000090
        3745000	       373	80002794	408108b3	sub	x17,x2,x8	  x2:0x80009fc4  x8:0x00000000 x17=0x80009fc4
        3755000	       374	80002798	03ee7863	bgeu	x28,x30,800027c8	 x28:0x00000001 x30:0x00000500
        3765000	       375	8000279c	ce04b793	sltiu	x15,x9,-800	  x9:0xf6b78000 x15=0x00000001
        3775000	       376	800027a0	00000013	addi	x0,x0,0	  x0:0x00000000
        3785000	       377	800027a4	477e7e13	andi	x28,x28,1143	 x28:0x00000001 x28=0x00000001
        3795000	       378	800027a8	012dd6b3	srl	x13,x27,x18	 x27:0x80009f64 x18:0x46b0d734 x13=0x00000800
        3805000	       379	800027ac	000ce533	or	x10,x25,x0	 x25:0x00000000  x0:0x00000000 x10=0x00000000
        3815000	       380	800027b0	00e54663	blt	x10,x14,800027bc	 x10:0x00000000 x14:0x80009f64
        3825000	       381	800027b4	00595463	bge	x18,x5,800027bc	 x18:0x46b0d734  x5:0x00000000
        3835000	       382	00000000	00000013	addi	x0,x0,0	  x0:0x00000000
        3845000	       383	800027b8	00000013	addi	x0,x0,0	  x0:0x00000000
        3855000	       384	800027bc	27efaeb7	lui	x29,0x27efa	 x29=0x27efa000
        3865000	       385	800027c0	00f1b4b3	sltu	x9,x3,x15	  x3:0x00000006 x15:0x00000001  x9=0x00000000
        3875000	       386	800027c4	011bb2b3	sltu	x5,x23,x17	 x23:0x00000125 x17:0x80009fc4  x5=0x00000001
        3885000	       387	800027c8	ecef0a13	addi	x20,x30,-306	 x30:0x00000500 x20=0x000003ce
        3895000	       388	800027cc	00347663	bgeu	x8,x3,800027d8	  x8:0x00000000  x3:0x00000006
        3905000	       389	800027d0	7b5ff593	andi	x11,x31,1973	 x31:0xc7467728 x11=0x00000720
        3915000	       390	800027d4	02717463	bgeu	x2,x7,800027fc	  x2:0x80009fc4  x7:0x00000000
        3925000	       391	00000000	00000013	addi	x0,x0,0	  x0:0x00000000
        3935000	       392	800027f8	00000013	addi	x0,x0,0	  x0:0x00000000
        3945000	       393	800027fc	03c41663	bne	x8,x28,80002828	  x8:0x00000000 x28:0x00000001
        3955000	       394	00000000	00000013	addi	x0,x0,0	  x0:0x00000000
        3965000	       395	80002824	00000013	addi	x0,x0,0	  x0:0x00000000
        3975000	       396	80002828	004aecb3	or	x25,x21,x4	 x21:0x00000000  x4:0xffffff7d x25=0xffffff7d
        3985000	       397	8000282c	03296663	bltu	x18,x18,80002858	 x18:0x46b0d734 x18:0x46b0d734
        3995000	       398	80002830	006258b3	srl	x17,x4,x6	  x4:0xffffff7d  x6:0x00000001 x17=0x7fffffbe
        4005000	       399	80002834	b4fd2f93	slti	x31,x26,-1201	 x26:0x000001ca x31=0x00000000
        4015000	       400	80002838	9ed2f913	andi	x18,x5,-1555	  x5:0x00000001 x18=0x00000001
        4025000	       401	8000283c	00538333	add	x6,x7,x5	  x7:0x00000000  x5:0x00000001  x6=0x00000001
        4035000	       402	80002840	013e1e33	sll	x28,x28,x19	 x28:0x00000001 x19:0x00000000 x28=0x00000001
        4045000	       403	80002844	0c5a8663	beq	x21,x5,80002910	 x21:0x00000000  x5:0x00000001
        4055000	       404	80002848	0139bf33	sltu	x30,x19,x19	 x19:0x00000000 x19:0x00000000 x30=0x00000000
        4065000	       405	8000284c	02ab4863	blt	x22,x10,8000287c	 x22:0x00e791d9 x10:0x00000000
        4075000	       406	80002850	6cc5a393	slti	x7,x11,1740	 x11:0x00000720  x7=0x00000000
        4085000	       407	80002854	01e34733	xor	x14,x6,x30	  x6:0x00000001 x30:0x00000000 x14=0x00000001
        4095000	       408	80002858	c75e3413	sltiu	x8,x28,-907	 x28:0x00000001  x8=0x00000001
        4105000	       409	8000285c	01652633	slt	x12,x10,x22	 x10:0x00000000 x22:0x00e791d9 x12=0x00000001
        4115000	       410	80002860	00240933	add	x18,x8,x2	  x8:0x00000001  x2:0x80009fc4 x18=0x80009fc5
        4125000	       411	80002864	41b46717	auipc	x14,0x41b46	 x14=0xc1b48860
        4135000	       412	80002868	4832ed13	ori	x26,x5,1155	  x5:0x00000001 x26=0x00000483
        4145000	       413	8000286c	2cae6e13	ori	x28,x28,714	 x28:0x00000001 x28=0x000002cb
        4155000	       414	80002870	415c5ab3	sra	x21,x24,x21	 x24:0xf0c2e22c x21:0x00000000 x21=0xf0c2e22c
        4165000	       415	80002874	413f5533	sra	x10,x30,x19	 x30:0x00000000 x19:0x00000000 x10=0x00000000
        4175000	       416	80002878	c954e5b7	lui	x11,0xc954e	 x11=0xc954e000
        4185000	       417	8000287c	22343897	auipc	x17,0x22343	 x17=0xa2345878
        4195000	       418	80002880	0ac3c463	blt	x7,x12,80002928	  x7:0x00000000 x12:0x00000001
        4205000	       419	00000000	00000013	addi	x0,x0,0	  x0:0x00000000
        4215000	       420	80002924	00000013	addi	x0,x0,0	  x0:0x00000000
        4225000	       421	80002928	036a8263	beq	x21,x22,8000294c	 x21:0xf0c2e22c x22:0x00e791d9
        4235000	       422	8000292c	006cc933	xor	x18,x25,x6	 x25:0xffffff7d  x6:0x00000001 x18=0xffffff7c
        4245000	       423	80002930	03727e63	bgeu	x4,x23,8000296c	  x4:0xffffff7d x23:0x00000125
        4255000	       424	00000000	00000013	addi	x0,x0,0	  x0:0x00000000
        4265000	       425	80002968	00000013	addi	x0,x0,0	  x0:0x00000000
        4275000	       426	8000296c	018568b3	or	x17,x10,x24	 x10:0x00000000 x24:0xf0c2e22c x17=0xf0c2e22c
        4285000	       427	80002970	01186ab3	or	x21,x16,x17	 x16:0x80009fc4 x17:0xf0c2e22c x21=0xf0c2ffec
        4295000	       428	80002974	410984b3	sub	x9,x19,x16	 x19:0x00000000 x16:0x80009fc4  x9=0x7fff603c
        4305000	       429	80002978	00f70c63	beq	x14,x15,80002990	 x14:0xc1b48860 x15:0x00000001
        4315000	       430	8000297c	4112d2b3	sra	x5,x5,x17	  x5:0x00000001 x17:0xf0c2e22c  x5=0x00000000
        4325000	       431	80002980	ac746013	ori	x0,x8,-1337	  x8:0x00000001
        4335000	       432	80002984	88daed13	ori	x26,x21,-1907	 x21:0xf0c2ffec x26=0xffffffed
        4345000	       433	80002988	00825433	srl	x8,x4,x8	  x4:0xffffff7d  x8:0x00000001  x8=0x7fffffbe
        4355000	       434	8000298c	00584263	blt	x16,x5,80002990	 x16:0x80009fc4  x5:0x00000000
        4365000	       435	00000000	00000013	addi	x0,x0,0	  x0:0x00000000
        4375000	       436	8000298c	00000013	addi	x0,x0,0	  x0:0x00000000
        4385000	       437	80002990	01e91433	sll	x8,x18,x30	 x18:0xffffff7c x30:0x00000000  x8=0xffffff7c
        4395000	       438	80002994	a96eb293	sltiu	x5,x29,-1386	 x29:0x27efa000  x5=0x00000001
        4405000	       439	80002998	6f76ed13	ori	x26,x13,1783	 x13:0x00000800 x26=0x00000ef7
        4415000	       440	8000299c	024c0663	beq	x24,x4,800029c8	 x24:0xf0c2e22c  x4:0xffffff7d
        4425000	       441	800029a0	2f93cc13	xori	x24,x7,761	  x7:0x00000000 x24=0x000002f9
        4435000	       442	800029a4	5fe3e897	auipc	x17,0x5fe3e	 x17=0xdfe409a0
        4445000	       443	800029a8	01fb1a93	slli	x21,x22,0x1f	 x22:0x00e791d9 x21=0x80000000
        4455000	       444	800029ac	14daec17	auipc	x24,0x14dae	 x24=0x94db09a8
        4465000	       445	800029b0	0005d033	srl	x0,x11,x0	 x11:0xc954e000  x0:0x00000000
        4475000	       446	800029b4	4a3fe293	ori	x5,x31,1187	 x31:0x00000000  x5=0x000004a3
        4485000	       447	800029b8	00000013	addi	x0,x0,0	  x0:0x00000000
        4495000	       448	800029bc	40b70ab3	sub	x21,x14,x11	 x14:0xc1b48860 x11:0xc954e000 x21=0xf85fa860
        4505000	       449	800029c0	00ecda93	srli	x21,x25,0xe	 x25:0xffffff7d x21=0x0003ffff
        4515000	       450	800029c4	03209a63	bne	x1,x18,800029f8	  x1:0x00000000 x18:0xffffff7c
        4525000	       451	00000000	00000013	addi	x0,x0,0	  x0:0x00000000
        4535000	       452	800029f4	00000013	addi	x0,x0,0	  x0:0x00000000
        4545000	       453	800029f8	44de7b93	andi	x23,x28,1101	 x28:0x000002cb x23=0x00000049
        4555000	       454	800029fc	b4482213	slti	x4,x16,-1212	 x16:0x80009fc4  x4=0x00000001
        4565000	       455	80002a00	01d01a93	slli	x21,x0,0x1d	  x0:0x00000000 x21=0x00000000
        4575000	       456	80002a04	40218733	sub	x14,x3,x2	  x3:0x00000006  x2:0x80009fc4 x14=0x7fff6042
        4585000	       457	80002a08	0372fe63	bgeu	x5,x23,80002a44	  x5:0x000004a3 x23:0x00000049
        4595000	       458	00000000	00000013	addi	x0,x0,0	  x0:0x00000000
        4605000	       459	80002a40	00000013	addi	x0,x0,0	  x0:0x00000000
        4615000	       460	80002a44	01639cb3	sll	x25,x7,x22	  x7:0x00000000 x22:0x00e791d9 x25=0x00000000
        4625000	       461	80002a48	01805793	srli	x15,x0,0x18	  x0:0x00000000 x15=0x00000000
        4635000	       462	80002a4c	00376433	or	x8,x14,x3	 x14:0x7fff6042  x3:0x00000006  x8=0x7fff6046
        4645000	       463	80002a50	00a89913	slli	x18,x17,0xa	 x17:0xdfe409a0 x18=0x90268000
        4655000	       464	80002a54	04084463	blt	x16,x0,80002a9c	 x16:0x80009fc4  x0:0x00000000
        4665000	       465	00000000	00000013	addi	x0,x0,0	  x0:0x00000000
        4675000	       466	80002a98	00000013	addi	x0,x0,0	  x0:0x00000000
        4685000	       467	80002a9c	015a1c93	slli	x25,x20,0x15	 x20:0x000003ce x25=0x79c00000
        4695000	       468	80002aa0	ff68d617	auipc	x12,0xff68d	 x12=0x7f68fa9c
        4705000	       469	80002aa4	f19dcb93	xori	x23,x27,-231	 x27:0x80009f64 x23=0x7fff607d
        4715000	       470	80002aa8	01b278b3	and	x17,x4,x27	  x4:0x00000001 x27:0x80009f64 x17=0x00000000
        4725000	       471	80002aac	01535133	srl	x2,x6,x21	  x6:0x00000001 x21:0x00000000  x2=0x00000001
        4735000	       472	80002ab0	02dc5663	bge	x24,x13,80002adc	 x24:0x94db09a8 x13:0x00000800
        4745000	       473	80002ab4	a2d23113	sltiu	x2,x4,-1491	  x4:0x00000001  x2=0x00000001
        4755000	       474	80002ab8	fc23b293	sltiu	x5,x7,-62	  x7:0x00000000  x5=0x00000001
        4765000	       475	80002abc	0099bb33	sltu	x22,x19,x9	 x19:0x00000000  x9:0x7fff603c x22=0x00000001
        4775000	       476	80002ac0	2a1f7293	andi	x5,x30,673	 x30:0x00000000  x5=0x00000000
        4785000	       477	80002ac4	00000013	addi	x0,x0,0	  x0:0x00000000
        4795000	       478	80002ac8	2aa997b7	lui	x15,0x2aa99	 x15=0x2aa99000
        4805000	       479	80002acc	29ddb493	sltiu	x9,x27,669	 x27:0x80009f64  x9=0x00000000
        4815000	       480	80002ad0	00682f33	slt	x30,x16,x6	 x16:0x80009fc4  x6:0x00000001 x30=0x00000001
        4825000	       481	80002ad4	01a59533	sll	x10,x11,x26	 x11:0xc954e000 x26:0x00000ef7 x10=0x00000000
        4835000	       482	80002ad8	403204b3	sub	x9,x4,x3	  x4:0x00000001  x3:0x00000006  x9=0xfffffffb
        4845000	       483	80002adc	0f07fc93	andi	x25,x15,240	 x15:0x2aa99000 x25=0x00000000
        4855000	       484	80002ae0	029b7863	bgeu	x22,x9,80002b10	 x22:0x00000001  x9:0xfffffffb
        4865000	       485	80002ae4	012a5793	srli	x15,x20,0x12	 x20:0x000003ce x15=0x00000000
        4875000	       486	80002ae8	009ab3b3	sltu	x7,x21,x9	 x21:0x00000000  x9:0xfffffffb  x7=0x00000001
        4885000	       487	80002aec	3c64e193	ori	x3,x9,966	  x9:0xfffffffb  x3=0xffffffff
        4895000	       488	80002af0	0187d113	srli	x2,x15,0x18	 x15:0x00000000  x2=0x00000000
        4905000	       489	80002af4	0034d013	srli	x0,x9,0x3	  x9:0xfffffffb
        4915000	       490	80002af8	01515433	srl	x8,x2,x21	  x2:0x00000000 x21:0x00000000  x8=0x00000000
        4925000	       491	80002afc	f4bf2c13	slti	x24,x30,-181	 x30:0x00000001 x24=0x00000000
        4935000	       492	80002b00	53ef4893	xori	x17,x30,1342	 x30:0x00000001 x17=0x0000053f
        4945000	       493	80002b04	012d1013	slli	x0,x26,0x12	 x26:0x00000ef7
        4955000	       494	80002b08	01dee4b3	or	x9,x29,x29	 x29:0x27efa000 x29:0x27efa000  x9=0x27efa000
        4965000	       495	80002b0c	00000013	addi	x0,x0,0	  x0:0x00000000
        4975000	       496	80002b10	01ad1a13	slli	x20,x26,0x1a	 x26:0x00000ef7 x20=0xdc000000
        4985000	       497	80002b14	3dceef37	lui	x30,0x3dcee	 x30=0x3dcee000
        4995000	       498	80002b18	40a8d713	srai	x14,x17,0xa	 x17:0x0000053f x14=0x00000001
        5005000	       499	80002b1c	63186593	ori	x11,x16,1585	 x16:0x80009fc4 x11=0x80009ff5
        5015000	       500	80002b20	011af263	bgeu	x21,x17,80002b24	 x21:0x00000000 x17:0x0000053f
        5025000	       501	80002b24	01fee333	or	x6,x29,x31	 x29:0x27efa000 x31:0x00000000  x6=0x27efa000
        5035000	       502	80002b28	4001d293	srai	x5,x3,0x0	  x3:0xffffffff  x5=0xffffffff
        5045000	       503	80002b2c	012d26b3	slt	x13,x26,x18	 x26:0x00000ef7 x18:0x90268000 x13=0x00000000
        5055000	       504	80002b30	d082fa93	andi	x21,x5,-760	  x5:0xffffffff x21=0xfffffd08
        5065000	       505	80002b34	3a087d13	andi	x26,x16,928	 x16:0x80009fc4 x26=0x00000380
        5075000	       506	80002b38	167e6a13	ori	x20,x28,359	 x28:0x000002cb x20=0x000003ef
        5085000	       507	80002b3c	c8ed7293	andi	x5,x26,-882	 x26:0x00000380  x5=0x00000080
        5095000	       508	80002b40	00977463	bgeu	x14,x9,80002b48	 x14:0x00000001  x9:0x27efa000
        5105000	       509	80002b44	01d6bab3	sltu	x21,x13,x29	 x13:0x00000000 x29:0x27efa000 x21=0x00000001
        5115000	       510	80002b48	0432c463	blt	x5,x3,80002b90	  x5:0x00000080  x3:0xffffffff
        5125000	       511	80002b4c	04685263	bge	x16,x6,80002b90	 x16:0x80009fc4  x6:0x27efa000
        5135000	       512	80002b50	02fdca63	blt	x27,x15,80002b84	 x27:0x80009f64 x15:0x00000000
        5145000	       513	00000000	00000013	addi	x0,x0,0	  x0:0x00000000
        5155000	       514	80002b80	00000013	addi	x0,x0,0	  x0:0x00000000
        5165000	       515	80002b84	40755613	srai	x12,x10,0x7	 x10:0x00000000 x12=0x00000000
        5175000	       516	80002b88	0522f463	bgeu	x5,x18,80002bd0	  x5:0x00000080 x18:0x90268000
        5185000	       517	80002b8c	0244d663	bge	x9,x4,80002bb8	  x9:0x27efa000  x4:0x00000001
        5195000	       518	00000000	00000013	addi	x0,x0,0	  x0:0x00000000
        5205000	       519	80002bb4	00000013	addi	x0,x0,0	  x0:0x00000000
        5215000	       520	80002bb8	d340eb13	ori	x22,x1,-716	  x1:0x00000000 x22=0xfffffd34
        5225000	       521	80002bbc	bd586197	auipc	x3,0xbd586	  x3=0x3d588bb8
        5235000	       522	80002bc0	017d6933	or	x18,x26,x23	 x26:0x00000380 x23:0x7fff607d x18=0x7fff63fd
        5245000	       523	80002bc4	03a36663	bltu	x6,x26,80002bf0	  x6:0x27efa000 x26:0x00000380
        5255000	       524	80002bc8	2577fa93	andi	x21,x15,599	 x15:0x00000000 x21=0x00000000
        5265000	       525	80002bcc	01b157b3	srl	x15,x2,x27	  x2:0x00000000 x27:0x80009f64 x15=0x00000000
        5275000	       526	80002bd0	aa384993	xori	x19,x16,-1373	 x16:0x80009fc4 x19=0x7fff6567
        5285000	       527	80002bd4	01001493	slli	x9,x0,0x10	  x0:0x00000000  x9=0x00000000
        5295000	       528	80002bd8	01e72433	slt	x8,x14,x30	 x14:0x00000001 x30:0x3dcee000  x8=0x00000001
        5305000	       529	80002bdc	9f44e213	ori	x4,x9,-1548	  x9:0x00000000  x4=0xfffff9f4
        5315000	       530	80002be0	05de5463	bge	x28,x29,80002c28	 x28:0x000002cb x29:0x27efa000
        5325000	       531	80002be4	bf85e913	ori	x18,x11,-1032	 x11:0x80009ff5 x18=0xfffffffd
        5335000	       532	80002be8	01c04133	xor	x2,x0,x28	  x0:0x00000000 x28:0x000002cb  x2=0x000002cb
        5345000	       533	80002bec	d006c517	auipc	x10,0xd006c	 x10=0x5006ebe8
        5355000	       534	80002bf0	401f5ab3	sra	x21,x30,x1	 x30:0x3dcee000  x1:0x00000000 x21=0x3dcee000
        5365000	       535	80002bf4	00c07c33	and	x24,x0,x12	  x0:0x00000000 x12:0x00000000 x24=0x00000000
        5375000	       536	80002bf8	41a4d913	srai	x18,x9,0x1a	  x9:0x00000000 x18=0x00000000
        5385000	       537	80002bfc	03f25a63	bge	x4,x31,80002c30	  x4:0xfffff9f4 x31:0x00000000
        5395000	       538	80002c00	4151da93	srai	x21,x3,0x15	  x3:0x3d588bb8 x21=0x000001ea
        5405000	       539	80002c04	1cf82793	slti	x15,x16,463	 x16:0x80009fc4 x15=0x00000001
        5415000	       540	80002c08	01679033	sll	x0,x15,x22	 x15:0x00000001 x22:0xfffffd34
        5425000	       541	80002c0c	84bc8513	addi	x10,x25,-1973	 x25:0x00000000 x10=0xfffff84b
        5435000	       542	80002c10	01815e63	bge	x2,x24,80002c2c	  x2:0x000002cb x24:0x00000000
        5445000	       543	00000000	00000013	addi	x0,x0,0	  x0:0x00000000
        5455000	       544	80002c28	00000013	addi	x0,x0,0	  x0:0x00000000
        5465000	       545	80002c2c	00202c33	slt	x24,x0,x2	  x0:0x00000000  x2:0x000002cb x24=0x00000001
        5475000	       546	80002c30	01b46ab3	or	x21,x8,x27	  x8:0x00000001 x27:0x80009f64 x21=0x80009f65
        5485000	       547	80002c34	033f0263	beq	x30,x19,80002c58	 x30:0x3dcee000 x19:0x7fff6567
        5495000	       548	80002c38	00f88bb3	add	x23,x17,x15	 x17:0x0000053f x15:0x00000001 x23=0x00000540
        5505000	       549	80002c3c	01ff1433	sll	x8,x30,x31	 x30:0x3dcee000 x31:0x00000000  x8=0x3dcee000
        5515000	       550	80002c40	a082bf93	sltiu	x31,x5,-1528	  x5:0x00000080 x31=0x00000001
        5525000	       551	80002c44	00109233	sll	x4,x1,x1	  x1:0x00000000  x1:0x00000000  x4=0x00000000
        5535000	       552	80002c48	005cb933	sltu	x18,x25,x5	 x25:0x00000000  x5:0x00000080 x18=0x00000001
        5545000	       553	80002c4c	352eed13	ori	x26,x29,850	 x29:0x27efa000 x26=0x27efa352
        5555000	       554	80002c50	1899f613	andi	x12,x19,393	 x19:0x7fff6567 x12=0x00000101
        5565000	       555	80002c54	057ec463	blt	x29,x23,80002c9c	 x29:0x27efa000 x23:0x00000540
        5575000	       556	80002c58	40708c33	sub	x24,x1,x7	  x1:0x00000000  x7:0x00000001 x24=0xffffffff
        5585000	       557	80002c5c	011d16b3	sll	x13,x26,x17	 x26:0x27efa352 x17:0x0000053f x13=0x00000000
        5595000	       558	80002c60	002af333	and	x6,x21,x2	 x21:0x80009f65  x2:0x000002cb  x6=0x00000241
        5605000	       559	80002c64	00c41e33	sll	x28,x8,x12	  x8:0x3dcee000 x12:0x00000101 x28=0x7b9dc000
        5615000	       560	80002c68	012598b3	sll	x17,x11,x18	 x11:0x80009ff5 x18:0x00000001 x17=0x00013fea
        5625000	       561	80002c6c	00764533	xor	x10,x12,x7	 x12:0x00000101  x7:0x00000001 x10=0x00000100
        5635000	       562	80002c70	40e60933	sub	x18,x12,x14	 x12:0x00000101 x14:0x00000001 x18=0x00000100
        5645000	       563	80002c74	00422fb3	slt	x31,x4,x4	  x4:0x00000000  x4:0x00000000 x31=0x00000000
        5655000	       564	80002c78	004095b3	sll	x11,x1,x4	  x1:0x00000000  x4:0x00000000 x11=0x00000000
        5665000	       565	80002c7c	012a5eb3	srl	x29,x20,x18	 x20:0x000003ef x18:0x00000100 x29=0x000003ef
        5675000	       566	80002c80	037c9263	bne	x25,x23,80002ca4	 x25:0x00000000 x23:0x00000540
        5685000	       567	00000000	00000013	addi	x0,x0,0	  x0:0x00000000
        5695000	       568	80002ca0	00000013	addi	x0,x0,0	  x0:0x00000000
        5705000	       569	80002ca4	405156b3	sra	x13,x2,x5	  x2:0x000002cb  x5:0x00000080 x13=0x000002cb
        5715000	       570	80002ca8	03b84e63	blt	x16,x27,80002ce4	 x16:0x80009fc4 x27:0x80009f64
        5725000	       571	80002cac	bd1e2e13	slti	x28,x28,-1071	 x28:0x7b9dc000 x28=0x00000000
        5735000	       572	80002cb0	01f31fb3	sll	x31,x6,x31	  x6:0x00000241 x31:0x00000000 x31=0x00000241
        5745000	       573	80002cb4	82d54613	xori	x12,x10,-2003	 x10:0x00000100 x12=0xfffff92d
        5755000	       574	80002cb8	416b85b3	sub	x11,x23,x22	 x23:0x00000540 x22:0xfffffd34 x11=0x0000080c
        5765000	       575	80002cbc	8eef0213	addi	x4,x30,-1810	 x30:0x3dcee000  x4=0x3dced8ee
        5775000	       576	80002cc0	419ad513	srai	x10,x21,0x19	 x21:0x80009f65 x10=0xffffffc0
        5785000	       577	80002cc4	015fe433	or	x8,x31,x21	 x31:0x00000241 x21:0x80009f65  x8=0x80009f65
        5795000	       578	80002cc8	00f05e93	srli	x29,x0,0xf	  x0:0x00000000 x29=0x00000000
        5805000	       579	80002ccc	707dd697	auipc	x13,0x707dd	 x13=0xf07dfcc8
        5815000	       580	80002cd0	01bb8d33	add	x26,x23,x27	 x23:0x00000540 x27:0x80009f64 x26=0x8000a4a4
        5825000	       581	80002cd4	00000013	addi	x0,x0,0	  x0:0x00000000
        5835000	       582	80002cd8	04610063	beq	x2,x6,80002d18	  x2:0x000002cb  x6:0x00000241
        5845000	       583	80002cdc	03337e63	bgeu	x6,x19,80002d18	  x6:0x00000241 x19:0x7fff6567
        5855000	       584	80002ce0	0021f4b3	and	x9,x3,x2	  x3:0x3d588bb8  x2:0x000002cb  x9=0x00000288
        5865000	       585	80002ce4	02355c63	bge	x10,x3,80002d1c	 x10:0xffffffc0  x3:0x3d588bb8
        5875000	       586	80002ce8	79deba13	sltiu	x20,x29,1949	 x29:0x00000000 x20=0x00000001
        5885000	       587	80002cec	7ec06ab7	lui	x21,0x7ec06	 x21=0x7ec06000
        5895000	       588	80002cf0	3194f593	andi	x11,x9,793	  x9:0x00000288 x11=0x00000208
        5905000	       589	80002cf4	75bc4b93	xori	x23,x24,1883	 x24:0xffffffff x23=0xfffff8a4
        5915000	       590	80002cf8	03aa9463	bne	x21,x26,80002d20	 x21:0x7ec06000 x26:0x8000a4a4
        5925000	       591	00000000	00000013	addi	x0,x0,0	  x0:0x00000000
        5935000	       592	80002d1c	00000013	addi	x0,x0,0	  x0:0x00000000
        5945000	       593	80002d20	40a5d4b3	sra	x9,x11,x10	 x11:0x00000208 x10:0xffffffc0  x9=0x00000208
        5955000	       594	80002d24	78d7e913	ori	x18,x15,1933	 x15:0x00000001 x18=0x0000078d
        5965000	       595	80002d28	c935fa13	andi	x20,x11,-877	 x11:0x00000208 x20=0x00000000
        5975000	       596	80002d2c	00d242b3	xor	x5,x4,x13	  x4:0x3dced8ee x13:0xf07dfcc8  x5=0xcdb32426
        5985000	       597	80002d30	01870a33	add	x20,x14,x24	 x14:0x00000001 x24:0xffffffff x20=0x00000000
        5995000	       598	80002d34	0be49e63	bne	x9,x30,80002df0	  x9:0x00000208 x30:0x3dcee000
        6005000	       599	00000000	00000013	addi	x0,x0,0	  x0:0x00000000
        6015000	       600	80002dec	00000013	addi	x0,x0,0	  x0:0x00000000
        6025000	       601	80002df0	00a9e9b3	or	x19,x19,x10	 x19:0x7fff6567 x10:0xffffffc0 x19=0xffffffe7
        6035000	       602	80002df4	00187b33	and	x22,x16,x1	 x16:0x80009fc4  x1:0x00000000 x22=0x00000000
        6045000	       603	80002df8	0183f663	bgeu	x7,x24,80002e04	  x7:0x00000001 x24:0xffffffff
        6055000	       604	80002dfc	00000013	addi	x0,x0,0	  x0:0x00000000
        6065000	       605	80002e00	006b05b3	add	x11,x22,x6	 x22:0x00000000  x6:0x00000241 x11=0x00000241
        6075000	       606	80002e04	01f65713	srli	x14,x12,0x1f	 x12:0xfffff92d x14=0x00000001
        6085000	       607	80002e08	412f5e33	sra	x28,x30,x18	 x30:0x3dcee000 x18:0x0000078d x28=0x0001ee77
        6095000	       608	80002e0c	41a10ab3	sub	x21,x2,x26	  x2:0x000002cb x26:0x8000a4a4 x21=0x7fff5e27
        6105000	       609	80002e10	b41c4413	xori	x8,x24,-1215	 x24:0xffffffff  x8=0x000004be
        6115000	       610	80002e14	76bf2713	slti	x14,x30,1899	 x30:0x3dcee000 x14=0x00000000
        6125000	       611	80002e18	3bc6a913	slti	x18,x13,956	 x13:0xf07dfcc8 x18=0x00000001
        6135000	       612	80002e1c	0324fe63	bgeu	x9,x18,80002e58	  x9:0x00000208 x18:0x00000001
        6145000	       613	00000000	00000013	addi	x0,x0,0	  x0:0x00000000
        6155000	       614	80002e54	00000013	addi	x0,x0,0	  x0:0x00000000
        6165000	       615	80002e58	00000013	addi	x0,x0,0	  x0:0x00000000
        6175000	       616	80002e5c	00000013	addi	x0,x0,0	  x0:0x00000000
        6185000	       617	80002e60	9d974a93	xori	x21,x14,-1575	 x14:0x00000000 x21=0xfffff9d9
        6195000	       618	80002e64	dd31f593	andi	x11,x3,-557	  x3:0x3d588bb8 x11=0x3d588990
        6205000	       619	80002e68	01edb7b3	sltu	x15,x27,x30	 x27:0x80009f64 x30:0x3dcee000 x15=0x00000000
        6215000	       620	80002e6c	dc23ec93	ori	x25,x7,-574	  x7:0x00000001 x25=0xfffffdc3
        6225000	       621	80002e70	01cc7933	and	x18,x24,x28	 x24:0xffffffff x28:0x0001ee77 x18=0x0001ee77
        6235000	       622	80002e74	0129a8b3	slt	x17,x19,x18	 x19:0xffffffe7 x18:0x0001ee77 x17=0x00000001
        6245000	       623	80002e78	0c728c63	beq	x5,x7,80002f50	  x5:0xcdb32426  x7:0x00000001
        6255000	       624	80002e7c	013662b3	or	x5,x12,x19	 x12:0xfffff92d x19:0xffffffe7  x5=0xffffffef
        6265000	       625	80002e80	010ccfb3	xor	x31,x25,x16	 x25:0xfffffdc3 x16:0x80009fc4 x31=0x7fff6207
        6275000	       626	80002e84	014fcf33	xor	x30,x31,x20	 x31:0x7fff6207 x20:0x00000000 x30=0x7fff6207
        6285000	       627	80002e88	4186d513	srai	x10,x13,0x18	 x13:0xf07dfcc8 x10=0xfffffff0
        6295000	       628	80002e8c	5fd2a893	slti	x17,x5,1533	  x5:0xffffffef x17=0x00000001
        6305000	       629	80002e90	00000013	addi	x0,x0,0	  x0:0x00000000
        6315000	       630	80002e94	00006117	auipc	x2,0x6	  x2=0x80008e90
        6325000	       631	80002e98	03410113	addi	x2,x2,52	  x2:0x80008e90  x2=0x80008ec4
        6335000	       632	80002e9c	01c63e33	sltu	x28,x12,x28	 x12:0xfffff92d x28:0x0001ee77 x28=0x00000000
        6345000	       633	80002ea0	ff110fa3	sb	x17,-1(x2)	  x2:0x80008ec4 x17:0x00000001 PA:0x80008ec3
        6355000	       634	80002ea4	fec10ba3	sb	x12,-9(x2)	  x2:0x80008ec4 x12:0xfffff92d PA:0x80008ebb
        6365000	       635	80002ea8	cb16c3b7	lui	x7,0xcb16c	  x7=0xcb16c000
        6375000	       636	80002eac	ff914d03	lbu	x26,-7(x2)	  x2:0x80008ec4 x26=0x000000d9 PA:0x80008ebd
        6385000	       637	80002eb0	5f357313	andi	x6,x10,1523	 x10:0xfffffff0  x6=0x000005f0
        6395000	       638	80002eb4	00753933	sltu	x18,x10,x7	 x10:0xfffffff0  x7:0xcb16c000 x18=0x00000000
        6405000	       639	80002eb8	003fc333	xor	x6,x31,x3	 x31:0x7fff6207  x3:0x3d588bb8  x6=0x42a7e9bf
        6415000	       640	80002ebc	01aa1e33	sll	x28,x20,x26	 x20:0x00000000 x26:0x000000d9 x28=0x00000000
        6425000	       641	80002ec0	ff010fa3	sb	x16,-1(x2)	  x2:0x80008ec4 x16:0x80009fc4 PA:0x80008ec3
        6435000	       642	80002ec4	ff510783	lb	x15,-11(x2)	  x2:0x80008ec4 x15=0x00000056 PA:0x80008eb9
        6445000	       643	00000000	00000013	addi	x0,x0,0	  x0:0x00000000
        6455000	       644	80002ec8	00f10903	lb	x18,15(x2)	  x2:0x80008ec4 x18=0x0000002f PA:0x80008ed3
        6465000	       645	80002ecc	00910183	lb	x3,9(x2)	  x2:0x80008ec4  x3=0xfffffff0 PA:0x80008ecd
        6475000	       646	80002ed0	ff210aa3	sb	x18,-11(x2)	  x2:0x80008ec4 x18:0x0000002f PA:0x80008eb9
        6485000	       647	80002ed4	00873c33	sltu	x24,x14,x8	 x14:0x00000000  x8:0x000004be x24=0x00000001
        6495000	       648	80002ed8	00904fb3	xor	x31,x0,x9	  x0:0x00000000  x9:0x00000208 x31=0x00000208
        6505000	       649	80002edc	01512223	sw	x21,4(x2)	  x2:0x80008ec4 x21:0xfffff9d9 PA:0x80008ec8
        6515000	       650	80002ee0	00610203	lb	x4,6(x2)	  x2:0x80008ec4  x4=0xffffffff PA:0x80008eca
        6525000	       651	80002ee4	00110b03	lb	x22,1(x2)	  x2:0x80008ec4 x22=0x00000039 PA:0x80008ec5
        6535000	       652	80002ee8	00c15503	lhu	x10,12(x2)	  x2:0x80008ec4 x10=0x00003265 PA:0x80008ed0
        6545000	       653	80002eec	fff10883	lb	x17,-1(x2)	  x2:0x80008ec4 x17=0xffffffc4 PA:0x80008ec3
        6555000	       654	80002ef0	4a8ea693	slti	x13,x29,1192	 x29:0x00000000 x13=0x00000001
        6565000	       655	80002ef4	fff14183	lbu	x3,-1(x2)	  x2:0x80008ec4  x3=0x000000c4 PA:0x80008ec3
        6575000	       656	80002ef8	009c8eb3	add	x29,x25,x9	 x25:0xfffffdc3  x9:0x00000208 x29=0xffffffcb
        6585000	       657	80002efc	00000013	addi	x0,x0,0	  x0:0x00000000
        6595000	       658	80002f00	17422713	slti	x14,x4,372	  x4:0xffffffff x14=0x00000001
        6605000	       659	80002f04	fff14583	lbu	x11,-1(x2)	  x2:0x80008ec4 x11=0x000000c4 PA:0x80008ec3
        6615000	       660	80002f08	fe710d23	sb	x7,-6(x2)	  x2:0x80008ec4  x7:0xcb16c000 PA:0x80008ebe
        6625000	       661	80002f0c	ff010f83	lb	x31,-16(x2)	  x2:0x80008ec4 x31=0xffffffab PA:0x80008eb4
        6635000	       662	80002f10	00210e83	lb	x29,2(x2)	  x2:0x80008ec4 x29=0x00000000 PA:0x80008ec6
        6645000	       663	80002f14	00510003	lb	x0,5(x2)	  x2:0x80008ec4 PA:0x80008ec9
        6655000	       664	80002f18	416353b3	sra	x7,x6,x22	  x6:0x42a7e9bf x22:0x00000039  x7=0x00000021
        6665000	       665	80002f1c	00000013	addi	x0,x0,0	  x0:0x00000000
        6675000	       666	80002f20	00c14183	lbu	x3,12(x2)	  x2:0x80008ec4  x3=0x00000065 PA:0x80008ed0
        6685000	       667	80002f24	03f27263	bgeu	x4,x31,80002f48	  x4:0xffffffff x31:0xffffffab
        6695000	       668	00000000	00000013	addi	x0,x0,0	  x0:0x00000000
        6705000	       669	80002f44	00000013	addi	x0,x0,0	  x0:0x00000000
        6715000	       670	80002f48	03f17663	bgeu	x2,x31,80002f74	  x2:0x80008ec4 x31:0xffffffab
        6725000	       671	80002f4c	01444bb3	xor	x23,x8,x20	  x8:0x000004be x20:0x00000000 x23=0x000004be
        6735000	       672	80002f50	0106ee33	or	x28,x13,x16	 x13:0x00000001 x16:0x80009fc4 x28=0x80009fc5
        6745000	       673	80002f54	001e1793	slli	x15,x28,0x1	 x28:0x80009fc5 x15=0x00013f8a
        6755000	       674	80002f58	005b7eb3	and	x29,x22,x5	 x22:0x00000039  x5:0xffffffef x29=0x00000029
        6765000	       675	80002f5c	407e8933	sub	x18,x29,x7	 x29:0x00000029  x7:0x00000021 x18=0x00000008
        6775000	       676	80002f60	d7068693	addi	x13,x13,-656	 x13:0x00000001 x13=0xfffffd71
        6785000	       677	80002f64	408b8433	sub	x8,x23,x8	 x23:0x000004be  x8:0x000004be  x8=0x00000000
        6795000	       678	80002f68	00225e33	srl	x28,x4,x2	  x4:0xffffffff  x2:0x80008ec4 x28=0x0fffffff
        6805000	       679	80002f6c	00000013	addi	x0,x0,0	  x0:0x00000000
        6815000	       680	80002f70	03d04263	blt	x0,x29,80002f94	  x0:0x00000000 x29:0x00000029
        6825000	       681	00000000	00000013	addi	x0,x0,0	  x0:0x00000000
        6835000	       682	80002f90	00000013	addi	x0,x0,0	  x0:0x00000000
        6845000	       683	80002f94	3119f713	andi	x14,x19,785	 x19:0xffffffe7 x14=0x00000301
        6855000	       684	80002f98	41e885b3	sub	x11,x17,x30	 x17:0xffffffc4 x30:0x7fff6207 x11=0x80009dbd
        6865000	       685	80002f9c	0042ceb3	xor	x29,x5,x4	  x5:0xffffffef  x4:0xffffffff x29=0x00000010
        6875000	       686	80002fa0	02ce1863	bne	x28,x12,80002fd0	 x28:0x0fffffff x12:0xfffff92d
        6885000	       687	00000000	00000013	addi	x0,x0,0	  x0:0x00000000
        6895000	       688	80002fcc	00000013	addi	x0,x0,0	  x0:0x00000000
        6905000	       689	80002fd0	f7789f17	auipc	x30,0xf7789	 x30=0x7778bfcc
        6915000	       690	80002fd4	002f91b3	sll	x3,x31,x2	 x31:0xffffffab  x2:0x80008ec4  x3=0xfffffab0
        6925000	       691	80002fd8	05a27463	bgeu	x4,x26,80003020	  x4:0xffffffff x26:0x000000d9
        6935000	       692	00000000	00000013	addi	x0,x0,0	  x0:0x00000000
        6945000	       693	8000301c	00000013	addi	x0,x0,0	  x0:0x00000000
        6955000	       694	80003020	eba3ef13	ori	x30,x7,-326	  x7:0x00000021 x30=0xfffffebb
        6965000	       695	80003024	f9852f37	lui	x30,0xf9852	 x30=0xf9852000
        6975000	       696	80003028	54984b93	xori	x23,x16,1353	 x16:0x80009fc4 x23=0x80009a8d
        6985000	       697	8000302c	02bdea63	bltu	x27,x11,80003060	 x27:0x80009f64 x11:0x80009dbd
        6995000	       698	80003030	e0d76693	ori	x13,x14,-499	 x14:0x00000301 x13=0xffffff0d
        7005000	       699	80003034	322a0193	addi	x3,x20,802	 x20:0x00000000  x3=0x00000322
        7015000	       700	80003038	00f39513	slli	x10,x7,0xf	  x7:0x00000021 x10=0x00108000
        7025000	       701	8000303c	27e6d697	auipc	x13,0x27e6d	 x13=0xa7e70038
        7035000	       702	80003040	00e87fb3	and	x31,x16,x14	 x16:0x80009fc4 x14:0x00000301 x31=0x00000300
        7045000	       703	80003044	002b9393	slli	x7,x23,0x2	 x23:0x80009a8d  x7=0x00026a34
        7055000	       704	80003048	c9620113	addi	x2,x4,-874	  x4:0xffffffff  x2=0xfffffc95
        7065000	       705	8000304c	03c9e663	bltu	x19,x28,80003078	 x19:0xffffffe7 x28:0x0fffffff
        7075000	       706	80003050	132ec493	xori	x9,x29,306	 x29:0x00000010  x9=0x00000122
        7085000	       707	80003054	0102e2b3	or	x5,x5,x16	  x5:0xffffffef x16:0x80009fc4  x5=0xffffffef
        7095000	       708	80003058	0e208063	beq	x1,x2,80003138	  x1:0x00000000  x2:0xfffffc95
        7105000	       709	8000305c	b41b3b17	auipc	x22,0xb41b3	 x22=0x341b6058
        7115000	       710	80003060	0001c5b3	xor	x11,x3,x0	  x3:0x00000322  x0:0x00000000 x11=0x00000322
        7125000	       711	80003064	0f481863	bne	x16,x20,80003154	 x16:0x80009fc4 x20:0x00000000
        7135000	       712	00000000	00000013	addi	x0,x0,0	  x0:0x00000000
        7145000	       713	80003150	00000013	addi	x0,x0,0	  x0:0x00000000
        7155000	       714	80003154	f1698c17	auipc	x24,0xf1698	 x24=0x7169b150
        7165000	       715	80003158	39be1e97	auipc	x29,0x39be1	 x29=0xb9be4154
        7175000	       716	8000315c	00000013	addi	x0,x0,0	  x0:0x00000000
        7185000	       717	80003160	0126f6b3	and	x13,x13,x18	 x13:0xa7e70038 x18:0x00000008 x13=0x00000008
        7195000	       718	80003164	025e8a63	beq	x29,x5,80003198	 x29:0xb9be4154  x5:0xffffffef
        7205000	       719	80003168	01ef8c63	beq	x31,x30,80003180	 x31:0x00000300 x30:0xf9852000
        7215000	       720	8000316c	00f4f8b3	and	x17,x9,x15	  x9:0x00000122 x15:0x00013f8a x17=0x00000102
        7225000	       721	80003170	012b05b3	add	x11,x22,x18	 x22:0x341b6058 x18:0x00000008 x11=0x341b6060
        7235000	       722	80003174	61078893	addi	x17,x15,1552	 x15:0x00013f8a x17=0x0001459a
        7245000	       723	80003178	0105df33	srl	x30,x11,x16	 x11:0x341b6060 x16:0x80009fc4 x30=0x0341b606
        7255000	       724	8000317c	007bd593	srli	x11,x23,0x7	 x23:0x80009a8d x11=0x01000135
        7265000	       725	80003180	0095a633	slt	x12,x11,x9	 x11:0x01000135  x9:0x00000122 x12=0x00000000
        7275000	       726	80003184	00b59f93	slli	x31,x11,0xb	 x11:0x01000135 x31=0x0009a800
        7285000	       727	80003188	4116da33	sra	x20,x13,x17	 x13:0x00000008 x17:0x0001459a x20=0x00000000
        7295000	       728	8000318c	115ebb13	sltiu	x22,x29,277	 x29:0xb9be4154 x22=0x00000000
        7305000	       729	80003190	aedaa793	slti	x15,x21,-1299	 x21:0xfffff9d9 x15=0x00000001
        7315000	       730	80003194	40f7d193	srai	x3,x15,0xf	 x15:0x00000001  x3=0x00000000
        7325000	       731	80003198	1ef0a537	lui	x10,0x1ef0a	 x10=0x1ef0a000
        7335000	       732	8000319c	01226eb3	or	x29,x4,x18	  x4:0xffffffff x18:0x00000008 x29=0xffffffff
        7345000	       733	800031a0	01867b33	and	x22,x12,x24	 x12:0x00000000 x24:0x7169b150 x22=0x00000000
        7355000	       734	800031a4	01489e33	sll	x28,x17,x20	 x17:0x0001459a x20:0x00000000 x28=0x0001459a
        7365000	       735	800031a8	01e8fe33	and	x28,x17,x30	 x17:0x0001459a x30:0x0341b606 x28=0x00010402
        7375000	       736	800031ac	0cdae263	bltu	x21,x13,80003270	 x21:0xfffff9d9 x13:0x00000008
        7385000	       737	800031b0	40b55293	srai	x5,x10,0xb	 x10:0x1ef0a000  x5=0x0003de14
        7395000	       738	800031b4	00006b17	auipc	x22,0x6	 x22=0x800091b0
        7405000	       739	800031b8	c4db0b13	addi	x22,x22,-947	 x22:0x800091b0 x22=0x80008dfd
        7415000	       740	800031bc	028b0123	sb	x8,34(x22)	 x22:0x80008dfd  x8:0x00000000 PA:0x80008e1f
        7425000	       741	800031c0	020b1ca3	sh	x0,57(x22)	 x22:0x80008dfd  x0:0x00000000 PA:0x80008e36
        7435000	       742	800031c4	032b0e83	lb	x29,50(x22)	 x22:0x80008dfd x29=0xffffff87 PA:0x80008e2f
        7445000	       743	800031c8	000b87b3	add	x15,x23,x0	 x23:0x80009a8d  x0:0x00000000 x15=0x80009a8d
        7455000	       744	800031cc	36a2fa13	andi	x20,x5,874	  x5:0x0003de14 x20=0x00000200
        7465000	       745	800031d0	02cb4e03	lbu	x28,44(x22)	 x22:0x80008dfd x28=0x000000d2 PA:0x80008e29
        7475000	       746	800031d4	ff6b0703	lb	x14,-10(x22)	 x22:0x80008dfd x14=0x00000000 PA:0x80008df3
        7485000	       747	800031d8	fc9b1683	lh	x13,-55(x22)	 x22:0x80008dfd x13=0x00004809 PA:0x80008dc6
        7495000	       748	800031dc	fdcb4503	lbu	x10,-36(x22)	 x22:0x80008dfd x10=0x000000a1 PA:0x80008dd9
        7505000	       749	800031e0	01009a13	slli	x20,x1,0x10	  x1:0x00000000 x20=0x00000000
        7515000	       750	800031e4	fd7b1103	lh	x2,-41(x22)	 x22:0x80008dfd  x2=0x00006a08 PA:0x80008dd4
        7525000	       751	800031e8	ff9b0a23	sb	x25,-12(x22)	 x22:0x80008dfd x25:0xfffffdc3 PA:0x80008df1
        7535000	       752	800031ec	01ab0003	lb	x0,26(x22)	 x22:0x80008dfd PA:0x80008e17
        7545000	       753	800031f0	00000013	addi	x0,x0,0	  x0:0x00000000
        7555000	       754	800031f4	ff7b4103	lbu	x2,-9(x22)	 x22:0x80008dfd  x2=0x000000ad PA:0x80008df4
        7565000	       755	800031f8	ff9b1203	lh	x4,-7(x22)	 x22:0x80008dfd  x4=0x00007625 PA:0x80008df6
        7575000	       756	800031fc	fcfb0ea3	sb	x15,-35(x22)	 x22:0x80008dfd x15:0x80009a8d PA:0x80008dda
        7585000	       757	80003200	8aff5e17	auipc	x28,0x8aff5	 x28=0x0aff81fc
        7595000	       758	80003204	003b5603	lhu	x12,3(x22)	 x22:0x80008dfd x12=0x0000beb3 PA:0x80008e00
        7605000	       759	80003208	fd4b4f83	lbu	x31,-44(x22)	 x22:0x80008dfd x31=0x000000ba PA:0x80008dd1
        7615000	       760	8000320c	40a0d993	srai	x19,x1,0xa	  x1:0x00000000 x19=0x00000000
        7625000	       761	80003210	01501213	slli	x4,x0,0x15	  x0:0x00000000  x4=0x00000000
        7635000	       762	80003214	fdab10a3	sh	x26,-63(x22)	 x22:0x80008dfd x26:0x000000d9 PA:0x80008dbe
        7645000	       763	80003218	40c2db93	srai	x23,x5,0xc	  x5:0x0003de14 x23=0x0000003d
        7655000	       764	8000321c	feeb0c23	sb	x14,-8(x22)	 x22:0x80008dfd x14:0x00000000 PA:0x80008df5
        7665000	       765	80003220	00fb0583	lb	x11,15(x22)	 x22:0x80008dfd x11=0x0000002a PA:0x80008e0c
        7675000	       766	80003224	01ab0aa3	sb	x26,21(x22)	 x22:0x80008dfd x26:0x000000d9 PA:0x80008e12
        7685000	       767	80003228	00385fb3	srl	x31,x16,x3	 x16:0x80009fc4  x3:0x00000000 x31=0x80009fc4
        7695000	       768	8000322c	009b0f03	lb	x30,9(x22)	 x22:0x80008dfd x30=0xffffffe5 PA:0x80008e06
        7705000	       769	80003230	fefb29a3	sw	x15,-13(x22)	 x22:0x80008dfd x15:0x80009a8d PA:0x80008df0
        7715000	       770	80003234	0135d613	srli	x12,x11,0x13	 x11:0x0000002a x12=0x00000000
        7725000	       771	80003238	fc8b4c03	lbu	x24,-56(x22)	 x22:0x80008dfd x24=0x0000006c PA:0x80008dc5
        7735000	       772	8000323c	01cb0683	lb	x13,28(x22)	 x22:0x80008dfd x13=0x0000001c PA:0x80008e19
        7745000	       773	80003240	986fa513	slti	x10,x31,-1658	 x31:0x80009fc4 x10=0x00000001
        7755000	       774	80003244	039b19a3	sh	x25,51(x22)	 x22:0x80008dfd x25:0xfffffdc3 PA:0x80008e30
        7765000	       775	80003248	feeb2ba3	sw	x14,-9(x22)	 x22:0x80008dfd x14:0x00000000 PA:0x80008df4
        7775000	       776	8000324c	03ab4e03	lbu	x28,58(x22)	 x22:0x80008dfd x28=0x00000000 PA:0x80008e37
        7785000	       777	80003250	ffab1ba3	sh	x26,-9(x22)	 x22:0x80008dfd x26:0x000000d9 PA:0x80008df4
        7795000	       778	80003254	019d1693	slli	x13,x26,0x19	 x26:0x000000d9 x13=0xb2000000
        7805000	       779	80003258	08388913	addi	x18,x17,131	 x17:0x0001459a x18=0x0001461d
        7815000	       780	8000325c	00dbfd33	and	x26,x23,x13	 x23:0x0000003d x13:0xb2000000 x26=0x00000000
        7825000	       781	80003260	013331b3	sltu	x3,x6,x19	  x6:0x42a7e9bf x19:0x00000000  x3=0x00000000
        7835000	       782	80003264	0056deb3	srl	x29,x13,x5	 x13:0xb2000000  x5:0x0003de14 x29=0x00000b20
        7845000	       783	80003268	3c904c17	auipc	x24,0x3c904	 x24=0xbc907264
        7855000	       784	8000326c	03370663	beq	x14,x19,80003298	 x14:0x00000000 x19:0x00000000
        7865000	       785	00000000	00000013	addi	x0,x0,0	  x0:0x00000000
        7875000	       786	80003294	00000013	addi	x0,x0,0	  x0:0x00000000
        7885000	       787	80003298	e6a5be13	sltiu	x28,x11,-406	 x11:0x0000002a x28=0x00000001
        7895000	       788	8000329c	b7a43293	sltiu	x5,x8,-1158	  x8:0x00000000  x5=0x00000001
        7905000	       789	800032a0	00000013	addi	x0,x0,0	  x0:0x00000000
        7915000	       790	800032a4	00000013	addi	x0,x0,0	  x0:0x00000000
        7925000	       791	800032a8	004673b3	and	x7,x12,x4	 x12:0x00000000  x4:0x00000000  x7=0x00000000
        7935000	       792	800032ac	015a7233	and	x4,x20,x21	 x20:0x00000000 x21:0xfffff9d9  x4=0x00000000
        7945000	       793	800032b0	004a7933	and	x18,x20,x4	 x20:0x00000000  x4:0x00000000 x18=0x00000000
        7955000	       794	800032b4	00ce9cb3	sll	x25,x29,x12	 x29:0x00000b20 x12:0x00000000 x25=0x00000b20
        7965000	       795	800032b8	0111e333	or	x6,x3,x17	  x3:0x00000000 x17:0x0001459a  x6=0x0001459a
        7975000	       796	800032bc	40fedcb3	sra	x25,x29,x15	 x29:0x00000b20 x15:0x80009a8d x25=0x00000000
        7985000	       797	800032c0	00f64133	xor	x2,x12,x15	 x12:0x00000000 x15:0x80009a8d  x2=0x80009a8d
        7995000	       798	800032c4	03dc6663	bltu	x24,x29,800032f0	 x24:0xbc907264 x29:0x00000b20
        8005000	       799	800032c8	e17dce17	auipc	x28,0xe17dc	 x28=0x617df2c4
        8015000	       800	800032cc	08be7713	andi	x14,x28,139	 x28:0x617df2c4 x14=0x00000080
        8025000	       801	800032d0	2e62ed13	ori	x26,x5,742	  x5:0x00000001 x26=0x000002e7
        8035000	       802	800032d4	403e5b13	srai	x22,x28,0x3	 x28:0x617df2c4 x22=0x0c2fbe58
        8045000	       803	800032d8	41a38733	sub	x14,x7,x26	  x7:0x00000000 x26:0x000002e7 x14=0xfffffd19
        8055000	       804	800032dc	00ca3d33	sltu	x26,x20,x12	 x20:0x00000000 x12:0x00000000 x26=0x00000000
        8065000	       805	800032e0	6d15fe13	andi	x28,x11,1745	 x11:0x0000002a x28=0x00000000
        8075000	       806	800032e4	080a6263	bltu	x20,x0,80003368	 x20:0x00000000  x0:0x00000000
        8085000	       807	800032e8	00da4fb3	xor	x31,x20,x13	 x20:0x00000000 x13:0xb2000000 x31=0xb2000000
        8095000	       808	800032ec	07d18263	beq	x3,x29,80003350	  x3:0x00000000 x29:0x00000b20
        8105000	       809	800032f0	006f2fb3	slt	x31,x30,x6	 x30:0xffffffe5  x6:0x0001459a x31=0x00000001
        8115000	       810	800032f4	95a2f913	andi	x18,x5,-1702	  x5:0x00000001 x18=0x00000000
        8125000	       811	800032f8	bf780c37	lui	x24,0xbf780	 x24=0xbf780000
        8135000	       812	800032fc	a16881b7	lui	x3,0xa1688	  x3=0xa1688000
        8145000	       813	80003300	01c85663	bge	x16,x28,8000330c	 x16:0x80009fc4 x28:0x00000000
        8155000	       814	80003304	c0611237	lui	x4,0xc0611	  x4=0xc0611000
        8165000	       815	80003308	001d1893	slli	x17,x26,0x1	 x26:0x00000000 x17=0x00000000
        8175000	       816	8000330c	012b2fb3	slt	x31,x22,x18	 x22:0x0c2fbe58 x18:0x00000000 x31=0x00000000
        8185000	       817	80003310	0111ae33	slt	x28,x3,x17	  x3:0xa1688000 x17:0x00000000 x28=0x00000001
        8195000	       818	80003314	f8969e17	auipc	x28,0xf8969	 x28=0x7896c310
        8205000	       819	80003318	bc25fbb7	lui	x23,0xbc25f	 x23=0xbc25f000
        8215000	       820	8000331c	014eab33	slt	x22,x29,x20	 x29:0x00000b20 x20:0x00000000 x22=0x00000000
        8225000	       821	80003320	01f12eb3	slt	x29,x2,x31	  x2:0x80009a8d x31:0x00000000 x29=0x00000001
        8235000	       822	80003324	ffffef97	auipc	x31,0xffffe	 x31=0x80001320
        8245000	       823	80003328	ab4f8f93	addi	x31,x31,-1356	 x31:0x80001320 x31=0x80000dd4
        8255000	       824	8000332c	9df88993	addi	x19,x17,-1569	 x17:0x00000000 x19=0xfffff9df
        8265000	       825	80003330	117f8f93	addi	x31,x31,279	 x31:0x80000dd4 x31=0x80000eeb
        8275000	       826	80003334	b735f537	lui	x10,0xb735f	 x10=0xb735f000
        8285000	       827	80003338	0132c863	blt	x5,x19,80003348	  x5:0x00000001 x19:0xfffff9df
        8295000	       828	8000333c	00000013	addi	x0,x0,0	  x0:0x00000000
        8305000	       829	80003340	75016a13	ori	x20,x2,1872	  x2:0x80009a8d x20=0x80009fdd
        8315000	       830	80003344	00000013	addi	x0,x0,0	  x0:0x00000000
        8325000	       831	80003348	ee9f8967	jalr	x18,x31,-279	 x31:0x80000eeb x18=0x80003348
        8335000	       832	00000000	00000013	addi	x0,x0,0	  x0:0x00000000
        8345000	       833	80000dd4	00000013	addi	x0,x0,0	  x0:0x00000000
        8355000	       834	80000dd8	02aa6063	bltu	x20,x10,80000df8	 x20:0x80009fdd x10:0xb735f000
        8365000	       835	00000000	00000013	addi	x0,x0,0	  x0:0x00000000
        8375000	       836	80000df4	00000013	addi	x0,x0,0	  x0:0x00000000
        8385000	       837	80000df8	fe8d8d93	addi	x27,x27,-24	 x27:0x80009f64 x27=0x80009f4c
        8395000	       838	80000dfc	005a0eb3	add	x29,x20,x5	 x20:0x80009fdd  x5:0x00000001 x29=0x80009fde
        8405000	       839	80000e00	012da223	sw	x18,4(x27)	 x27:0x80009f4c x18:0x80003348 PA:0x80009f50
        8415000	       840	80000e04	01b91713	slli	x14,x18,0x1b	 x18:0x80003348 x14=0x40000000
        8425000	       841	80000e08	013d6eb3	or	x29,x26,x19	 x26:0x00000000 x19:0xfffff9df x29=0xfffff9df
        8435000	       842	80000e0c	f5fcfa93	andi	x21,x25,-161	 x25:0x00000000 x21=0x00000000
        8445000	       843	80000e10	011e04b3	add	x9,x28,x17	 x28:0x7896c310 x17:0x00000000  x9=0x7896c310
        8455000	       844	80000e14	c5c66693	ori	x13,x12,-932	 x12:0x00000000 x13=0xfffffc5c
        8465000	       845	80000e18	01380033	add	x0,x16,x19	 x16:0x80009fc4 x19:0xfffff9df
        8475000	       846	80000e1c	008c4733	xor	x14,x24,x8	 x24:0xbf780000  x8:0x00000000 x14=0xbf780000
        8485000	       847	80000e20	00000013	addi	x0,x0,0	  x0:0x00000000
        8495000	       848	80000e24	414e5713	srai	x14,x28,0x14	 x28:0x7896c310 x14=0x00000789
        8505000	       849	80000e28	019da033	slt	x0,x27,x25	 x27:0x80009f4c x25:0x00000000
        8515000	       850	80000e2c	0280496f	jal	x18,80000e2c	 x18=0x80000e2c
        8525000	       851	00000000	00000013	addi	x0,x0,0	  x0:0x00000000
        8535000	       852	80004e50	00000013	addi	x0,x0,0	  x0:0x00000000
        8545000	       853	80004e54	5daa5717	auipc	x14,0x5daa5	 x14=0xddaa9e50
        8555000	       854	80004e58	00bf9fb3	sll	x31,x31,x11	 x31:0x80000eeb x11:0x0000002a x31=0x003bac00
        8565000	       855	80004e5c	00544133	xor	x2,x8,x5	  x8:0x00000000  x5:0x00000001  x2=0x00000001
        8575000	       856	80004e60	0008e863	bltu	x17,x0,80004e70	 x17:0x00000000  x0:0x00000000
        8585000	       857	80004e64	4164d193	srai	x3,x9,0x16	  x9:0x7896c310  x3=0x000001e2
        8595000	       858	80004e68	364d7f93	andi	x31,x26,868	 x26:0x00000000 x31=0x00000000
        8605000	       859	80004e6c	5681fd13	andi	x26,x3,1384	  x3:0x000001e2 x26=0x00000160
        8615000	       860	80004e70	fe8d8d93	addi	x27,x27,-24	 x27:0x80009f4c x27=0x80009f34
        8625000	       861	80004e74	012da223	sw	x18,4(x27)	 x27:0x80009f34 x18:0x80000e2c PA:0x80009f38
        8635000	       862	80004e78	0086f433	and	x8,x13,x8	 x13:0xfffffc5c  x8:0x00000000  x8=0x00000000
        8645000	       863	80004e7c	01684233	xor	x4,x16,x22	 x16:0x80009fc4 x22:0x00000000  x4=0x80009fc4
        8655000	       864	80004e80	2971a293	slti	x5,x3,663	  x3:0x000001e2  x5=0x00000001
        8665000	       865	80004e84	41a5d413	srai	x8,x11,0x1a	 x11:0x0000002a  x8=0x00000000
        8675000	       866	80004e88	0150d513	srli	x10,x1,0x15	  x1:0x00000000 x10=0x00000000
        8685000	       867	80004e8c	410a8c33	sub	x24,x21,x16	 x21:0x00000000 x16:0x80009fc4 x24=0x7fff603c
        8695000	       868	80004e90	42de6f93	ori	x31,x28,1069	 x28:0x7896c310 x31=0x7896c73d
        8705000	       869	80004e94	de5ebb93	sltiu	x23,x29,-539	 x29:0xfffff9df x23=0x00000001
        8715000	       870	80004e98	410edcb3	sra	x25,x29,x16	 x29:0xfffff9df x16:0x80009fc4 x25=0xffffff9d
        8725000	       871	80004e9c	e1a4c913	xori	x18,x9,-486	  x9:0x7896c310 x18=0x87693d0a
        8735000	       872	80004ea0	4177dcb3	sra	x25,x15,x23	 x15:0x80009a8d x23:0x00000001 x25=0xc0004d46
        8745000	       873	80004ea4	ad643013	sltiu	x0,x8,-1322	  x8:0x00000000
        8755000	       874	80004ea8	4180096f	jal	x18,80004ea8	 x18=0x80004ea8
        8765000	       875	00000000	00000013	addi	x0,x0,0	  x0:0x00000000
        8775000	       876	800052bc	00000013	addi	x0,x0,0	  x0:0x00000000
        8785000	       877	800052c0	01d39263	bne	x7,x29,800052c4	  x7:0x00000000 x29:0xfffff9df
        8795000	       878	00000000	00000013	addi	x0,x0,0	  x0:0x00000000
        8805000	       879	800052c0	00000013	addi	x0,x0,0	  x0:0x00000000
        8815000	       880	800052c4	ff0d8d93	addi	x27,x27,-16	 x27:0x80009f34 x27=0x80009f24
        8825000	       881	800052c8	9edffa93	andi	x21,x31,-1555	 x31:0x7896c73d x21=0x7896c12d
        8835000	       882	800052cc	4d1994b7	lui	x9,0x4d199	  x9=0x4d199000
        8845000	       883	800052d0	012da223	sw	x18,4(x27)	 x27:0x80009f24 x18:0x80004ea8 PA:0x80009f28
        8855000	       884	800052d4	00000013	addi	x0,x0,0	  x0:0x00000000
        8865000	       885	800052d8	00004117	auipc	x2,0x4	  x2=0x800092d4
        8875000	       886	800052dc	8e010113	addi	x2,x2,-1824	  x2:0x800092d4  x2=0x80008bb4
        8885000	       887	800052e0	36602f17	auipc	x30,0x36602	 x30=0xb66072dc
        8895000	       888	800052e4	f0514983	lbu	x19,-251(x2)	  x2:0x80008bb4 x19=0x0000006e PA:0x80008ab9
        8905000	       889	800052e8	f2210f23	sb	x2,-194(x2)	  x2:0x80008bb4  x2:0x80008bb4 PA:0x80008af2
        8915000	       890	800052ec	016c95b3	sll	x11,x25,x22	 x25:0xc0004d46 x22:0x00000000 x11=0xc0004d46
        8925000	       891	800052f0	01c134b3	sltu	x9,x2,x28	  x2:0x80008bb4 x28:0x7896c310  x9=0x00000000
        8935000	       892	800052f4	01af7b33	and	x22,x30,x26	 x30:0xb66072dc x26:0x00000160 x22=0x00000040
        8945000	       893	800052f8	0037ccb3	xor	x25,x15,x3	 x15:0x80009a8d  x3:0x000001e2 x25=0x80009b6f
        8955000	       894	800052fc	0e0107a3	sb	x0,239(x2)	  x2:0x80008bb4  x0:0x00000000 PA:0x80008ca3
        8965000	       895	80005300	00000013	addi	x0,x0,0	  x0:0x00000000
        8975000	       896	80005304	f5114503	lbu	x10,-175(x2)	  x2:0x80008bb4 x10=0x0000003c PA:0x80008b05
        8985000	       897	80005308	f43107a3	sb	x3,-177(x2)	  x2:0x80008bb4  x3:0x000001e2 PA:0x80008b03
        8995000	       898	8000530c	fd110a83	lb	x21,-47(x2)	  x2:0x80008bb4 x21=0xffffff90 PA:0x80008b85
        9005000	       899	80005310	00000013	addi	x0,x0,0	  x0:0x00000000
        9015000	       900	80005314	017c0d33	add	x26,x24,x23	 x24:0x7fff603c x23:0x00000001 x26=0x7fff603d
        9025000	       901	80005318	6f610e17	auipc	x28,0x6f610	 x28=0xef615314
        9035000	       902	8000531c	40ac5fb3	sra	x31,x24,x10	 x24:0x7fff603c x10:0x0000003c x31=0x00000007
        9045000	       903	80005320	acde2a97	auipc	x21,0xacde2	 x21=0x2cde731c
        9055000	       904	80005324	69997c13	andi	x24,x18,1689	 x18:0x80004ea8 x24=0x00000688
        9065000	       905	80005328	f2c12023	sw	x12,-224(x2)	  x2:0x80008bb4 x12:0x00000000 PA:0x80008ad4
        9075000	       906	8000532c	fa914883	lbu	x17,-87(x2)	  x2:0x80008bb4 x17=0x000000b4 PA:0x80008b5d
        9085000	       907	80005330	01f2ac33	slt	x24,x5,x31	  x5:0x00000001 x31:0x00000007 x24=0x00000001
        9095000	       908	80005334	012abe33	sltu	x28,x21,x18	 x21:0x2cde731c x18:0x80004ea8 x28=0x00000001
        9105000	       909	80005338	05b14b83	lbu	x23,91(x2)	  x2:0x80008bb4 x23=0x000000b1 PA:0x80008c0f
        9115000	       910	8000533c	f4914f83	lbu	x31,-183(x2)	  x2:0x80008bb4 x31=0x000000d2 PA:0x80008afd
        9125000	       911	80005340	f8614183	lbu	x3,-122(x2)	  x2:0x80008bb4  x3=0x0000001c PA:0x80008b3a
        9135000	       912	80005344	fe410123	sb	x4,-30(x2)	  x2:0x80008bb4  x4:0x80009fc4 PA:0x80008b96
        9145000	       913	80005348	005f5013	srli	x0,x30,0x5	 x30:0xb66072dc
        9155000	       914	8000534c	012d4a33	xor	x20,x26,x18	 x26:0x7fff603d x18:0x80004ea8 x20=0xffff2e95
        9165000	       915	80005350	0fb10ca3	sb	x27,249(x2)	  x2:0x80008bb4 x27:0x80009f24 PA:0x80008cad
        9175000	       916	80005354	013ca1b3	slt	x3,x25,x19	 x25:0x80009b6f x19:0x0000006e  x3=0x00000001
        9185000	       917	80005358	00915f33	srl	x30,x2,x9	  x2:0x80008bb4  x9:0x00000000 x30=0x80008bb4
        9195000	       918	8000535c	00f10723	sb	x15,14(x2)	  x2:0x80008bb4 x15:0x80009a8d PA:0x80008bc2
        9205000	       919	80005360	0165eeb3	or	x29,x11,x22	 x11:0xc0004d46 x22:0x00000040 x29=0xc0004d46
        9215000	       920	80005364	01614433	xor	x8,x2,x22	  x2:0x80008bb4 x22:0x00000040  x8=0x80008bf4
        9225000	       921	80005368	2a732c13	slti	x24,x6,679	  x6:0x0001459a x24=0x00000000
        9235000	       922	8000536c	0b310123	sb	x19,162(x2)	  x2:0x80008bb4 x19:0x0000006e PA:0x80008c56
        9245000	       923	80005370	f4a10b83	lb	x23,-182(x2)	  x2:0x80008bb4 x23=0xffffffec PA:0x80008afe
        9255000	       924	80005374	fc110323	sb	x1,-58(x2)	  x2:0x80008bb4  x1:0x00000000 PA:0x80008b7a
        9265000	       925	80005378	f25fa493	slti	x9,x31,-219	 x31:0x000000d2  x9=0x00000000
        9275000	       926	8000537c	108cd437	lui	x8,0x108cd	  x8=0x108cd000
        9285000	       927	80005380	fc114403	lbu	x8,-63(x2)	  x2:0x80008bb4  x8=0x000000e4 PA:0x80008b75
        9295000	       928	80005384	fee10303	lb	x6,-18(x2)	  x2:0x80008bb4  x6=0xffffff9d PA:0x80008ba2
        9305000	       929	80005388	00004317	auipc	x6,0x4	  x6=0x80009384
        9315000	       930	8000538c	87930313	addi	x6,x6,-1927	  x6:0x80009384  x6=0x80008bfd
        9325000	       931	80005390	fc135f03	lhu	x30,-63(x6)	  x6:0x80008bfd x30=0x0000d91e PA:0x80008bbe
        9335000	       932	80005394	c983c393	xori	x7,x7,-872	  x7:0x00000000  x7=0xfffffc98
        9345000	       933	80005398	49bcfd13	andi	x26,x25,1179	 x25:0x80009b6f x26=0x0000000b
        9355000	       934	8000539c	003314a3	sh	x3,9(x6)	  x6:0x80008bfd  x3:0x00000001 PA:0x80008c06
        9365000	       935	800053a0	05030023	sb	x16,64(x6)	  x6:0x80008bfd x16:0x80009fc4 PA:0x80008c3d
        9375000	       936	800053a4	871ea713	slti	x14,x29,-1935	 x29:0xc0004d46 x14=0x00000001
        9385000	       937	800053a8	01d73633	sltu	x12,x14,x29	 x14:0x00000001 x29:0xc0004d46 x12=0x00000001
        9395000	       938	800053ac	00a791b3	sll	x3,x15,x10	 x15:0x80009a8d x10:0x0000003c  x3=0xd0000000
        9405000	       939	800053b0	fe934883	lbu	x17,-23(x6)	  x6:0x80008bfd x17=0x00000057 PA:0x80008be6
        9415000	       940	800053b4	03730a83	lb	x21,55(x6)	  x6:0x80008bfd x21=0x00000074 PA:0x80008c34
        9425000	       941	800053b8	cc904d13	xori	x26,x0,-823	  x0:0x00000000 x26=0xfffffcc9
        9435000	       942	800053bc	2ee8b893	sltiu	x17,x17,750	 x17:0x00000057 x17=0x00000001
        9445000	       943	800053c0	01630983	lb	x19,22(x6)	  x6:0x80008bfd x19=0x0000006f PA:0x80008c13
        9455000	       944	00000000	00000013	addi	x0,x0,0	  x0:0x00000000
        9465000	       945	800053c4	013321a3	sw	x19,3(x6)	  x6:0x80008bfd x19:0x0000006f PA:0x80008c00
        9475000	       946	800053c8	01034603	lbu	x12,16(x6)	  x6:0x80008bfd x12=0x000000ef PA:0x80008c0d
        9485000	       947	800053cc	0000d593	srli	x11,x1,0x0	  x1:0x00000000 x11=0x00000000
        9495000	       948	800053d0	13e66213	ori	x4,x12,318	 x12:0x000000ef  x4=0x000001ff
        9505000	       949	800053d4	0127f9b3	and	x19,x15,x18	 x15:0x80009a8d x18:0x80004ea8 x19=0x80000a88
        9515000	       950	800053d8	41e005b3	sub	x11,x0,x30	  x0:0x00000000 x30:0x0000d91e x11=0xffff26e2
        9525000	       951	800053dc	034301a3	sb	x20,35(x6)	  x6:0x80008bfd x20:0xffff2e95 PA:0x80008c20
        9535000	       952	800053e0	fce30203	lb	x4,-50(x6)	  x6:0x80008bfd  x4=0x0000002f PA:0x80008bcb
        9545000	       953	800053e4	41a4de13	srai	x28,x9,0x1a	  x9:0x00000000 x28=0x00000000
        9555000	       954	800053e8	fc135003	lhu	x0,-63(x6)	  x6:0x80008bfd PA:0x80008bbe
        9565000	       955	800053ec	fd434783	lbu	x15,-44(x6)	  x6:0x80008bfd x15=0x000000f3 PA:0x80008bd1
        9575000	       956	800053f0	00530203	lb	x4,5(x6)	  x6:0x80008bfd  x4=0x00000000 PA:0x80008c02
        9585000	       957	800053f4	41d85533	sra	x10,x16,x29	 x16:0x80009fc4 x29:0xc0004d46 x10=0xfe00027f
        9595000	       958	800053f8	f0460593	addi	x11,x12,-252	 x12:0x000000ef x11=0xfffffff3
        9605000	       959	800053fc	01597ab3	and	x21,x18,x21	 x18:0x80004ea8 x21:0x00000074 x21=0x00000020
        9615000	       960	80005400	02d30b03	lb	x22,45(x6)	  x6:0x80008bfd x22=0x00000046 PA:0x80008c2a
        9625000	       961	80005404	eebece93	xori	x29,x29,-277	 x29:0xc0004d46 x29=0x3fffb3ad
        9635000	       962	80005408	6cf63f13	sltiu	x30,x12,1743	 x12:0x000000ef x30=0x00000001
        9645000	       963	8000540c	f5f92013	slti	x0,x18,-161	 x18:0x80004ea8
        9655000	       964	80005410	80a8fcb7	lui	x25,0x80a8f	 x25=0x80a8f000
        9665000	       965	80005414	38065f97	auipc	x31,0x38065	 x31=0xb806a410
        9675000	       966	80005418	013c5b33	srl	x22,x24,x19	 x24:0x00000000 x19:0x80000a88 x22=0x00000000
        9685000	       967	8000541c	fdb31ba3	sh	x27,-41(x6)	  x6:0x80008bfd x27:0x80009f24 PA:0x80008bd4
        9695000	       968	80005420	3a7ec2b7	lui	x5,0x3a7ec	  x5=0x3a7ec000
        9705000	       969	80005424	01830b83	lb	x23,24(x6)	  x6:0x80008bfd x23=0x00000002 PA:0x80008c15
        9715000	       970	00000000	00000013	addi	x0,x0,0	  x0:0x00000000
        9725000	       971	80005428	017c53b3	srl	x7,x24,x23	 x24:0x00000000 x23:0x00000002  x7=0x00000000
        9735000	       972	8000542c	ff434f03	lbu	x30,-12(x6)	  x6:0x80008bfd x30=0x00000034 PA:0x80008bf1
        9745000	       973	80005430	00003a17	auipc	x20,0x3	 x20=0x8000842c
        9755000	       974	80005434	e66a0a13	addi	x20,x20,-410	 x20:0x8000842c x20=0x80008292
        9765000	       975	80005438	00319d13	slli	x26,x3,0x3	  x3:0xd0000000 x26=0x80000000
        9775000	       976	8000543c	ffda4183	lbu	x3,-3(x20)	 x20:0x80008292  x3=0x000000ac PA:0x8000828f
        9785000	       977	00000000	00000013	addi	x0,x0,0	  x0:0x00000000
        9795000	       978	80005440	2031af93	slti	x31,x3,515	  x3:0x000000ac x31=0x00000001
        9805000	       979	80005444	00aa0123	sb	x10,2(x20)	 x20:0x80008292 x10:0xfe00027f PA:0x80008294
        9815000	       980	80005448	d0610013	addi	x0,x2,-762	  x2:0x80008bb4
        9825000	       981	8000544c	01fc5733	srl	x14,x24,x31	 x24:0x00000000 x31:0x00000001 x14=0x00000000
        9835000	       982	80005450	40988ab3	sub	x21,x17,x9	 x17:0x00000001  x9:0x00000000 x21=0x00000001
        9845000	       983	80005454	009a4603	lbu	x12,9(x20)	 x20:0x80008292 x12=0x00000040 PA:0x8000829b
        9855000	       984	80005458	214ebd17	auipc	x26,0x214eb	 x26=0xa14f0454
        9865000	       985	8000545c	01a8f3b3	and	x7,x17,x26	 x17:0x00000001 x26:0xa14f0454  x7=0x00000000
        9875000	       986	80005460	9930b293	sltiu	x5,x1,-1645	  x1:0x00000000  x5=0x00000001
        9885000	       987	80005464	004a2523	sw	x4,10(x20)	 x20:0x80008292  x4:0x00000000 PA:0x8000829c
        9895000	       988	80005468	005a4d03	lbu	x26,5(x20)	 x20:0x80008292 x26=0x00000006 PA:0x80008297
        9905000	       989	00000000	00000013	addi	x0,x0,0	  x0:0x00000000
        9915000	       990	8000546c	017d6533	or	x10,x26,x23	 x26:0x00000006 x23:0x00000002 x10=0x00000006
        9925000	       991	80005470	017a0823	sb	x23,16(x20)	 x20:0x80008292 x23:0x00000002 PA:0x800082a2
        9935000	       992	80005474	002a9e93	slli	x29,x21,0x2	 x21:0x00000001 x29=0x00000004
        9945000	       993	80005478	ff6a5f83	lhu	x31,-10(x20)	 x20:0x80008292 x31=0x0000d1c3 PA:0x80008288
        9955000	       994	8000547c	ff3a0303	lb	x6,-13(x20)	 x20:0x80008292  x6=0xfffffff3 PA:0x80008285
        9965000	       995	80005480	00aa1c03	lh	x24,10(x20)	 x20:0x80008292 x24=0x00000000 PA:0x8000829c
        9975000	       996	80005484	fffa0ca3	sb	x31,-7(x20)	 x20:0x80008292 x31:0x0000d1c3 PA:0x8000828b
        9985000	       997	80005488	018a1223	sh	x24,4(x20)	 x20:0x80008292 x24:0x00000000 PA:0x80008296
        9995000	       998	8000548c	ff6a4e03	lbu	x28,-10(x20)	 x20:0x80008292 x28=0x000000c3 PA:0x80008288
       10005000	       999	80005490	012a2323	sw	x18,6(x20)	 x20:0x80008292 x18:0x80004ea8 PA:0x80008298
       10015000	      1000	80005494	005a4183	lbu	x3,5(x20)	 x20:0x80008292  x3=0x00000000 PA:0x80008297
       10025000	      1001	80005498	00de0c33	add	x24,x28,x13	 x28:0x000000c3 x13:0xfffffc5c x24=0xfffffd1f
       10035000	      1002	8000549c	412b5893	srai	x17,x22,0x12	 x22:0x00000000 x17=0x00000000
       10045000	      1003	800054a0	ffca5c83	lhu	x25,-4(x20)	 x20:0x80008292 x25=0x0000ace5 PA:0x8000828e
       10055000	      1004	00000000	00000013	addi	x0,x0,0	  x0:0x00000000
       10065000	      1005	800054a4	ff9a0ca3	sb	x25,-7(x20)	 x20:0x80008292 x25:0x0000ace5 PA:0x8000828b
       10075000	      1006	800054a8	feca1f23	sh	x12,-2(x20)	 x20:0x80008292 x12:0x00000040 PA:0x80008290
       10085000	      1007	800054ac	ffba0fa3	sb	x27,-1(x20)	 x20:0x80008292 x27:0x80009f24 PA:0x80008291
       10095000	      1008	800054b0	00003697	auipc	x13,0x3	 x13=0x800084ac
       10105000	      1009	800054b4	c5268693	addi	x13,x13,-942	 x13:0x800084ac x13=0x800080fe
       10115000	      1010	800054b8	0f06c403	lbu	x8,240(x13)	 x13:0x800080fe  x8=0x00000039 PA:0x800081ee
       10125000	      1011	800054bc	034686a3	sb	x20,45(x13)	 x13:0x800080fe x20:0x80008292 PA:0x8000812b
       10135000	      1012	800054c0	48d60493	addi	x9,x12,1165	 x12:0x00000040  x9=0x000004cd
       10145000	      1013	800054c4	012682b3	add	x5,x13,x18	 x13:0x800080fe x18:0x80004ea8  x5=0x0000cfa6
       10155000	      1014	800054c8	01e75393	srli	x7,x14,0x1e	 x14:0x00000000  x7=0x00000000
       10165000	      1015	800054cc	40a4d5b3	sra	x11,x9,x10	  x9:0x000004cd x10:0x00000006 x11=0x00000013
       10175000	      1016	800054d0	857de793	ori	x15,x27,-1961	 x27:0x80009f24 x15=0xffffff77
       10185000	      1017	800054d4	00000013	addi	x0,x0,0	  x0:0x00000000
       10195000	      1018	800054d8	0144f033	and	x0,x9,x20	  x9:0x000004cd x20:0x80008292
       10205000	      1019	800054dc	400988b3	sub	x17,x19,x0	 x19:0x80000a88  x0:0x00000000 x17=0x80000a88
       10215000	      1020	800054e0	00000013	addi	x0,x0,0	  x0:0x00000000
       10225000	      1021	800054e4	01f19a13	slli	x20,x3,0x1f	  x3:0x00000000 x20=0x00000000
       10235000	      1022	800054e8	2dac2913	slti	x18,x24,730	 x24:0xfffffd1f x18=0x00000001
       10245000	      1023	800054ec	0e968e03	lb	x28,233(x13)	 x13:0x800080fe x28=0x00000002 PA:0x800081e7
       10255000	      1024	800054f0	000ea033	slt	x0,x29,x0	 x29:0x00000004  x0:0x00000000
       10265000	      1025	800054f4	00a56a33	or	x20,x10,x10	 x10:0x00000006 x10:0x00000006 x20=0x00000006
       10275000	      1026	800054f8	40dcd2b3	sra	x5,x25,x13	 x25:0x0000ace5 x13:0x800080fe  x5=0x00000000
       10285000	      1027	800054fc	844d3137	lui	x2,0x844d3	  x2=0x844d3000
       10295000	      1028	80005500	ff8687a3	sb	x24,-17(x13)	 x13:0x800080fe x24:0xfffffd1f PA:0x800080ed
       10305000	      1029	80005504	0ef68323	sb	x15,230(x13)	 x13:0x800080fe x15:0xffffff77 PA:0x800081e4
       10315000	      1030	80005508	f9b6cf83	lbu	x31,-101(x13)	 x13:0x800080fe x31=0x000000bf PA:0x80008099
       10325000	      1031	8000550c	a8fb2e93	slti	x29,x22,-1393	 x22:0x00000000 x29=0x00000000
       10335000	      1032	80005510	05c6c903	lbu	x18,92(x13)	 x13:0x800080fe x18=0x00000060 PA:0x8000815a
       10345000	      1033	80005514	006add33	srl	x26,x21,x6	 x21:0x00000001  x6:0xfffffff3 x26=0x00000000
       10355000	      1034	80005518	2082c013	xori	x0,x5,520	  x5:0x00000000
       10365000	      1035	8000551c	8bd07c17	auipc	x24,0x8bd07	 x24=0x0bd0c518
       10375000	      1036	80005520	0526c783	lbu	x15,82(x13)	 x13:0x800080fe x15=0x0000000c PA:0x80008150
       10385000	      1037	80005524	fb6688a3	sb	x22,-79(x13)	 x13:0x800080fe x22:0x00000000 PA:0x800080af
       10395000	      1038	80005528	f4f6af23	sw	x15,-162(x13)	 x13:0x800080fe x15:0x0000000c PA:0x8000805c
       10405000	      1039	8000552c	f64e0913	addi	x18,x28,-156	 x28:0x00000002 x18=0xffffff66
       10415000	      1040	80005530	01e16fb3	or	x31,x2,x30	  x2:0x844d3000 x30:0x00000034 x31=0x844d3034
       10425000	      1041	80005534	14bea393	slti	x7,x29,331	 x29:0x00000000  x7=0x00000001
       10435000	      1042	80005538	014b5733	srl	x14,x22,x20	 x22:0x00000000 x20:0x00000006 x14=0x00000000
       10445000	      1043	8000553c	0fe6db03	lhu	x22,254(x13)	 x13:0x800080fe x22=0x0000c12f PA:0x800081fc
       10455000	      1044	80005540	0656c003	lbu	x0,101(x13)	 x13:0x800080fe PA:0x80008163
       10465000	      1045	80005544	1d88b213	sltiu	x4,x17,472	 x17:0x80000a88  x4=0x00000000
       10475000	      1046	80005548	11b40413	addi	x8,x8,283	  x8:0x00000039  x8=0x00000154
       10485000	      1047	8000554c	01ac8c33	add	x24,x25,x26	 x25:0x0000ace5 x26:0x00000000 x24=0x0000ace5
       10495000	      1048	80005550	41525cb3	sra	x25,x4,x21	  x4:0x00000000 x21:0x00000001 x25=0x00000000
       10505000	      1049	80005554	013ad8b3	srl	x17,x21,x19	 x21:0x00000001 x19:0x80000a88 x17=0x00000000
       10515000	      1050	80005558	07e6c503	lbu	x10,126(x13)	 x13:0x800080fe x10=0x00000013 PA:0x8000817c
       10525000	      1051	8000555c	01e2b9b3	sltu	x19,x5,x30	  x5:0x00000000 x30:0x00000034 x19=0x00000001
       10535000	      1052	80005560	f4a6ce03	lbu	x28,-182(x13)	 x13:0x800080fe x28=0x000000e0 PA:0x80008048
       10545000	      1053	80005564	00004797	auipc	x15,0x4	 x15=0x80009560
       10555000	      1054	80005568	a2278793	addi	x15,x15,-1502	 x15:0x80009560 x15=0x80008f82
       10565000	      1055	8000556c	f8479723	sh	x4,-114(x15)	 x15:0x80008f82  x4:0x00000000 PA:0x80008f10
       10575000	      1056	80005570	00881513	slli	x10,x16,0x8	 x16:0x80009fc4 x10=0x009fc400
       10585000	      1057	80005574	00ea1933	sll	x18,x20,x14	 x20:0x00000006 x14:0x00000000 x18=0x00000006
       10595000	      1058	80005578	001f9f33	sll	x30,x31,x1	 x31:0x844d3034  x1:0x00000000 x30=0x844d3034
       10605000	      1059	8000557c	f7978a83	lb	x21,-135(x15)	 x15:0x80008f82 x21=0xffffff8f PA:0x80008efb
       10615000	      1060	80005580	fe97c303	lbu	x6,-23(x15)	 x15:0x80008f82  x6=0x00000057 PA:0x80008f6b
       10625000	      1061	80005584	f6379223	sh	x3,-156(x15)	 x15:0x80008f82  x3:0x00000000 PA:0x80008ee6
       10635000	      1062	80005588	f6278f83	lb	x31,-158(x15)	 x15:0x80008f82 x31=0x0000006b PA:0x80008ee4
       10645000	      1063	8000558c	f27784a3	sb	x7,-215(x15)	 x15:0x80008f82  x7:0x00000001 PA:0x80008eab
       10655000	      1064	80005590	01731c13	slli	x24,x6,0x17	  x6:0x00000057 x24=0x2b800000
       10665000	      1065	80005594	f0378f83	lb	x31,-253(x15)	 x15:0x80008f82 x31=0x0000005a PA:0x80008e85
       10675000	      1066	80005598	00079283	lh	x5,0(x15)	 x15:0x80008f82  x5=0x0000175a PA:0x80008f82
       10685000	      1067	8000559c	0115a1b3	slt	x3,x11,x17	 x11:0x00000013 x17:0x00000000  x3=0x00000000
       10695000	      1068	800055a0	f4e781a3	sb	x14,-189(x15)	 x15:0x80008f82 x14:0x00000000 PA:0x80008ec5
       10705000	      1069	800055a4	00925533	srl	x10,x4,x9	  x4:0x00000000  x9:0x000004cd x10=0x00000000
       10715000	      1070	800055a8	01a05233	srl	x4,x0,x26	  x0:0x00000000 x26:0x00000000  x4=0x00000000
       10725000	      1071	800055ac	f6678883	lb	x17,-154(x15)	 x15:0x80008f82 x17=0xffffffc9 PA:0x80008ee8
       10735000	      1072	800055b0	f297cd03	lbu	x26,-215(x15)	 x15:0x80008f82 x26=0x00000001 PA:0x80008eab
       10745000	      1073	800055b4	f5878b03	lb	x22,-168(x15)	 x15:0x80008f82 x22=0x00000040 PA:0x80008eda
       10755000	      1074	800055b8	f747d603	lhu	x12,-140(x15)	 x15:0x80008f82 x12=0x000090b0 PA:0x80008ef6
       10765000	      1075	800055bc	6c9ca637	lui	x12,0x6c9ca	 x12=0x6c9ca000
       10775000	      1076	800055c0	00ada2b3	slt	x5,x27,x10	 x27:0x80009f24 x10:0x00000000  x5=0x00000001
       10785000	      1077	800055c4	f8e780a3	sb	x14,-127(x15)	 x15:0x80008f82 x14:0x00000000 PA:0x80008f03
       10795000	      1078	800055c8	017fed33	or	x26,x31,x23	 x31:0x0000005a x23:0x00000002 x26=0x0000005a
       10805000	      1079	800055cc	f0e7d203	lhu	x4,-242(x15)	 x15:0x80008f82  x4=0x0000aa33 PA:0x80008e90
       10815000	      1080	800055d0	01c90733	add	x14,x18,x28	 x18:0x00000006 x28:0x000000e0 x14=0x000000e6
       10825000	      1081	800055d4	03f78523	sb	x31,42(x15)	 x15:0x80008f82 x31:0x0000005a PA:0x80008fac
       10835000	      1082	800055d8	00000013	addi	x0,x0,0	  x0:0x00000000
       10845000	      1083	800055dc	49264b93	xori	x23,x12,1170	 x12:0x6c9ca000 x23=0x6c9ca492
       10855000	      1084	800055e0	f4d7c283	lbu	x5,-179(x15)	 x15:0x80008f82  x5=0x00000067 PA:0x80008ecf
       10865000	      1085	800055e4	018cf9b3	and	x19,x25,x24	 x25:0x00000000 x24:0x2b800000 x19=0x00000000
       10875000	      1086	800055e8	03279823	sh	x18,48(x15)	 x15:0x80008f82 x18:0x00000006 PA:0x80008fb2
       10885000	      1087	800055ec	fd878a03	lb	x20,-40(x15)	 x15:0x80008f82 x20=0xffffff90 PA:0x80008f5a
       10895000	      1088	800055f0	b860ca37	lui	x20,0xb860c	 x20=0xb860c000
       10905000	      1089	800055f4	f0c7a523	sw	x12,-246(x15)	 x15:0x80008f82 x12:0x6c9ca000 PA:0x80008e8c
       10915000	      1090	800055f8	fd013113	sltiu	x2,x2,-48	  x2:0x844d3000  x2=0x00000001
       10925000	      1091	800055fc	fb87c583	lbu	x11,-72(x15)	 x15:0x80008f82 x11=0x00000043 PA:0x80008f3a
       10935000	      1092	80005600	03d79e23	sh	x29,60(x15)	 x15:0x80008f82 x29:0x00000000 PA:0x80008fbe
       10945000	      1093	80005604	fa97c883	lbu	x17,-87(x15)	 x15:0x80008f82 x17=0x000000ec PA:0x80008f2b
       10955000	      1094	80005608	f0679183	lh	x3,-250(x15)	 x15:0x80008f82  x3=0x00001331 PA:0x80008e88
       10965000	      1095	8000560c	4066d133	sra	x2,x13,x6	 x13:0x800080fe  x6:0x00000057  x2=0xffffff00
       10975000	      1096	80005610	00278b23	sb	x2,22(x15)	 x15:0x80008f82  x2:0xffffff00 PA:0x80008f98
       10985000	      1097	80005614	00000013	addi	x0,x0,0	  x0:0x00000000
       10995000	      1098	80005618	f4678ea3	sb	x6,-163(x15)	 x15:0x80008f82  x6:0x00000057 PA:0x80008edf
       11005000	      1099	8000561c	f2778d23	sb	x7,-198(x15)	 x15:0x80008f82  x7:0x00000001 PA:0x80008ebc
       11015000	      1100	80005620	00771cb3	sll	x25,x14,x7	 x14:0x000000e6  x7:0x00000001 x25=0x000001cc
       11025000	      1101	80005624	00678aa3	sb	x6,21(x15)	 x15:0x80008f82  x6:0x00000057 PA:0x80008f97
       11035000	      1102	80005628	f3478ba3	sb	x20,-201(x15)	 x15:0x80008f82 x20:0xb860c000 PA:0x80008eb9
       11045000	      1103	8000562c	f817c403	lbu	x8,-127(x15)	 x15:0x80008f82  x8=0x00000000 PA:0x80008f03
       11055000	      1104	80005630	00003117	auipc	x2,0x3	  x2=0x8000862c
       11065000	      1105	80005634	5f410113	addi	x2,x2,1524	  x2:0x8000862c  x2=0x80008c20
       11075000	      1106	80005638	fe215b03	lhu	x22,-30(x2)	  x2:0x80008c20 x22=0x00000000 PA:0x80008c02
       11085000	      1107	8000563c	fdb10da3	sb	x27,-37(x2)	  x2:0x80008c20 x27:0x80009f24 PA:0x80008bfb
       11095000	      1108	80005640	c281af13	slti	x30,x3,-984	  x3:0x00001331 x30=0x00000000
       11105000	      1109	80005644	6157a493	slti	x9,x15,1557	 x15:0x80008f82  x9=0x00000001
       11115000	      1110	80005648	ea4bcf93	xori	x31,x23,-348	 x23:0x6c9ca492 x31=0x93635a36
       11125000	      1111	8000564c	01f108a3	sb	x31,17(x2)	  x2:0x80008c20 x31:0x93635a36 PA:0x80008c31
       11135000	      1112	80005650	02b10523	sb	x11,42(x2)	  x2:0x80008c20 x11:0x00000043 PA:0x80008c4a
       11145000	      1113	80005654	00000013	addi	x0,x0,0	  x0:0x00000000
       11155000	      1114	80005658	01175693	srli	x13,x14,0x11	 x14:0x000000e6 x13=0x00000000
       11165000	      1115	8000565c	01002ab3	slt	x21,x0,x16	  x0:0x00000000 x16:0x80009fc4 x21=0x00000000
       11175000	      1116	80005660	03010aa3	sb	x16,53(x2)	  x2:0x80008c20 x16:0x80009fc4 PA:0x80008c55
       11185000	      1117	80005664	001a63b3	or	x7,x20,x1	 x20:0xb860c000  x1:0x00000000  x7=0xb860c000
       11195000	      1118	80005668	00a8d693	srli	x13,x17,0xa	 x17:0x000000ec x13=0x00000000
       11205000	      1119	8000566c	0117e033	or	x0,x15,x17	 x15:0x80008f82 x17:0x000000ec
       11215000	      1120	80005670	8b330f17	auipc	x30,0x8b330	 x30=0x0b33566c
       11225000	      1121	80005674	fea11683	lh	x13,-22(x2)	  x2:0x80008c20 x13=0xffffdf01 PA:0x80008c0a
       11235000	      1122	80005678	fe311823	sh	x3,-16(x2)	  x2:0x80008c20  x3:0x00001331 PA:0x80008c10
       11245000	      1123	8000567c	ff6109a3	sb	x22,-13(x2)	  x2:0x80008c20 x22:0x00000000 PA:0x80008c13
       11255000	      1124	80005680	fc710f83	lb	x31,-57(x2)	  x2:0x80008c20 x31=0xffffffc4 PA:0x80008be7
       11265000	      1125	00000000	00000013	addi	x0,x0,0	  x0:0x00000000
       11275000	      1126	80005684	01f32eb3	slt	x29,x6,x31	  x6:0x00000057 x31:0xffffffc4 x29=0x00000000
       11285000	      1127	80005688	fee10e23	sb	x14,-4(x2)	  x2:0x80008c20 x14:0x000000e6 PA:0x80008c1c
       11295000	      1128	8000568c	51c23217	auipc	x4,0x51c23	  x4=0xd1c28688
       11305000	      1129	80005690	1843e237	lui	x4,0x1843e	  x4=0x1843e000
       11315000	      1130	80005694	03114683	lbu	x13,49(x2)	  x2:0x80008c20 x13=0x0000005e PA:0x80008c51
       11325000	      1131	80005698	01da4fb3	xor	x31,x20,x29	 x20:0xb860c000 x29:0x00000000 x31=0xb860c000
       11335000	      1132	8000569c	ef7815b7	lui	x11,0xef781	 x11=0xef781000
       11345000	      1133	800056a0	fc810d23	sb	x8,-38(x2)	  x2:0x80008c20  x8:0x00000000 PA:0x80008bfa
       11355000	      1134	800056a4	0154c933	xor	x18,x9,x21	  x9:0x00000001 x21:0x00000000 x18=0x00000001
       11365000	      1135	800056a8	fc2101a3	sb	x2,-61(x2)	  x2:0x80008c20  x2:0x80008c20 PA:0x80008be3
       11375000	      1136	800056ac	01cfd7b3	srl	x15,x31,x28	 x31:0xb860c000 x28:0x000000e0 x15=0xb860c000
       11385000	      1137	800056b0	41da5bb3	sra	x23,x20,x29	 x20:0xb860c000 x29:0x00000000 x23=0xb860c000
       11395000	      1138	800056b4	cbe5f893	andi	x17,x11,-834	 x11:0xef781000 x17=0xef781000
       11405000	      1139	800056b8	6fbf2513	slti	x10,x30,1787	 x30:0x0b33566c x10=0x00000000
       11415000	      1140	800056bc	004bb433	sltu	x8,x23,x4	 x23:0xb860c000  x4:0x1843e000  x8=0x00000000
       11425000	      1141	800056c0	35d96917	auipc	x18,0x35d96	 x18=0xb5d9b6bc
       11435000	      1142	800056c4	01da0533	add	x10,x20,x29	 x20:0xb860c000 x29:0x00000000 x10=0xb860c000
       11445000	      1143	800056c8	c5cbfa93	andi	x21,x23,-932	 x23:0xb860c000 x21=0xb860c000
       11455000	      1144	800056cc	007d5333	srl	x6,x26,x7	 x26:0x0000005a  x7:0xb860c000  x6=0x0000005a
       11465000	      1145	800056d0	00bb5993	srli	x19,x22,0xb	 x22:0x00000000 x19=0x00000000
       11475000	      1146	800056d4	00510da3	sb	x5,27(x2)	  x2:0x80008c20  x5:0x00000067 PA:0x80008c3b
       11485000	      1147	800056d8	00e10ba3	sb	x14,23(x2)	  x2:0x80008c20 x14:0x000000e6 PA:0x80008c37
       11495000	      1148	800056dc	00003b17	auipc	x22,0x3	 x22=0x800086d8
       11505000	      1149	800056e0	e26b0b13	addi	x22,x22,-474	 x22:0x800086d8 x22=0x800084fe
       11515000	      1150	800056e4	00764733	xor	x14,x12,x7	 x12:0x6c9ca000  x7:0xb860c000 x14=0xd4fc6000
       11525000	      1151	800056e8	ff0b0683	lb	x13,-16(x22)	 x22:0x800084fe x13=0xffffff83 PA:0x800084ee
       11535000	      1152	800056ec	00fce3b3	or	x7,x25,x15	 x25:0x000001cc x15:0xb860c000  x7=0xb860c1cc
       11545000	      1153	800056f0	ff8b0ba3	sb	x24,-9(x22)	 x22:0x800084fe x24:0x2b800000 PA:0x800084f5
       11555000	      1154	800056f4	009b4603	lbu	x12,9(x22)	 x22:0x800084fe x12=0x000000a0 PA:0x80008507
       11565000	      1155	800056f8	00000013	addi	x0,x0,0	  x0:0x00000000
       11575000	      1156	800056fc	b016e037	lui	x0,0xb016e	
       11585000	      1157	80005700	002bd313	srli	x6,x23,0x2	 x23:0xb860c000  x6=0x2e183000
       11595000	      1158	80005704	00a43e33	sltu	x28,x8,x10	  x8:0x00000000 x10:0xb860c000 x28=0x00000001
       11605000	      1159	80005708	0100e533	or	x10,x1,x16	  x1:0x00000000 x16:0x80009fc4 x10=0x80009fc4
       11615000	      1160	8000570c	004b4883	lbu	x17,4(x22)	 x22:0x800084fe x17=0x00000005 PA:0x80008502
       11625000	      1161	80005710	ff4b4c83	lbu	x25,-12(x22)	 x22:0x800084fe x25=0x000000a0 PA:0x800084f2
       11635000	      1162	00000000	00000013	addi	x0,x0,0	  x0:0x00000000
       11645000	      1163	80005714	41dcdc93	srai	x25,x25,0x1d	 x25:0x000000a0 x25=0x00000000
       11655000	      1164	80005718	405857b3	sra	x15,x16,x5	 x16:0x80009fc4  x5:0x00000067 x15=0xff00013f
       11665000	      1165	8000571c	2ee5ea93	ori	x21,x11,750	 x11:0xef781000 x21=0xef7812ee
       11675000	      1166	80005720	004b0303	lb	x6,4(x22)	 x22:0x800084fe  x6=0x00000005 PA:0x80008502
       11685000	      1167	80005724	8f054393	xori	x7,x10,-1808	 x10:0x80009fc4  x7=0x7fff6734
       11695000	      1168	80005728	00ad04b3	add	x9,x26,x10	 x26:0x0000005a x10:0x80009fc4  x9=0x8000a01e
       11705000	      1169	8000572c	015612b3	sll	x5,x12,x21	 x12:0x000000a0 x21:0xef7812ee  x5=0x00280000
       11715000	      1170	80005730	6047e593	ori	x11,x15,1540	 x15:0xff00013f x11=0xff00073f
       11725000	      1171	80005734	41435f33	sra	x30,x6,x20	  x6:0x00000005 x20:0xb860c000 x30=0x00000005
       11735000	      1172	80005738	003c02b3	add	x5,x24,x3	 x24:0x2b800000  x3:0x00001331  x5=0x2b801331
       11745000	      1173	8000573c	37b10f93	addi	x31,x2,891	  x2:0x80008c20 x31=0x80008f9b
       11755000	      1174	80005740	01a99733	sll	x14,x19,x26	 x19:0x00000000 x26:0x0000005a x14=0x00000000
       11765000	      1175	80005744	009b4003	lbu	x0,9(x22)	 x22:0x800084fe PA:0x80008507
       11775000	      1176	80005748	002b0623	sb	x2,12(x22)	 x22:0x800084fe  x2:0x80008c20 PA:0x8000850a
       11785000	      1177	8000574c	ff9b4603	lbu	x12,-7(x22)	 x22:0x800084fe x12=0x00000089 PA:0x800084f7
       11795000	      1178	80005750	0123d893	srli	x17,x7,0x12	  x7:0x7fff6734 x17=0x00001fff
       11805000	      1179	80005754	ff8b1c23	sh	x24,-8(x22)	 x22:0x800084fe x24:0x2b800000 PA:0x800084f6
       11815000	      1180	80005758	8071ab93	slti	x23,x3,-2041	  x3:0x00001331 x23=0x00000000
       11825000	      1181	8000575c	015b07a3	sb	x21,15(x22)	 x22:0x800084fe x21:0xef7812ee PA:0x8000850d
       11835000	      1182	80005760	3cdf3c93	sltiu	x25,x30,973	 x30:0x00000005 x25=0x00000001
       11845000	      1183	80005764	ffeb2103	lw	x2,-2(x22)	 x22:0x800084fe  x2=0x1481ce85 PA:0x800084fc
       11855000	      1184	80005768	00fb01a3	sb	x15,3(x22)	 x22:0x800084fe x15:0xff00013f PA:0x80008501
       11865000	      1185	8000576c	00e75fb3	srl	x31,x14,x14	 x14:0x00000000 x14:0x00000000 x31=0x00000000
       11875000	      1186	80005770	0050f433	and	x8,x1,x5	  x1:0x00000000  x5:0x2b801331  x8=0x00000000
       11885000	      1187	80005774	b4568293	addi	x5,x13,-1211	 x13:0xffffff83  x5=0xfffffac8
       11895000	      1188	80005778	00000013	addi	x0,x0,0	  x0:0x00000000
       11905000	      1189	8000577c	fe4b0ea3	sb	x4,-3(x22)	 x22:0x800084fe  x4:0x1843e000 PA:0x800084fb
       11915000	      1190	80005780	91892a13	slti	x20,x18,-1768	 x18:0xb5d9b6bc x20=0x00000001
       11925000	      1191	80005784	6db9b993	sltiu	x19,x19,1755	 x19:0x00000000 x19=0x00000001
       11935000	      1192	80005788	00cb5c03	lhu	x24,12(x22)	 x22:0x800084fe x24=0x00007b20 PA:0x8000850a
       11945000	      1193	8000578c	12f6c913	xori	x18,x13,303	 x13:0xffffff83 x18=0xfffffeac
       11955000	      1194	80005790	002e5933	srl	x18,x28,x2	 x28:0x00000001  x2:0x1481ce85 x18=0x00000000
       11965000	      1195	80005794	004bcbb3	xor	x23,x23,x4	 x23:0x00000000  x4:0x1843e000 x23=0x1843e000
       11975000	      1196	80005798	407185b3	sub	x11,x3,x7	  x3:0x00001331  x7:0x7fff6734 x11=0x8000abfd
       11985000	      1197	8000579c	0efe7793	andi	x15,x28,239	 x28:0x00000001 x15=0x00000001
       11995000	      1198	800057a0	41f1deb3	sra	x29,x3,x31	  x3:0x00001331 x31:0x00000000 x29=0x00001331
       12005000	      1199	800057a4	010e6f33	or	x30,x28,x16	 x28:0x00000001 x16:0x80009fc4 x30=0x80009fc5
       12015000	      1200	800057a8	0096ceb3	xor	x29,x13,x9	 x13:0xffffff83  x9:0x8000a01e x29=0x7fff5f9d
       12025000	      1201	800057ac	6dbdf313	andi	x6,x27,1755	 x27:0x80009f24  x6=0x00000600
       12035000	      1202	800057b0	01878a33	add	x20,x15,x24	 x15:0x00000001 x24:0x00007b20 x20=0x00007b21
       12045000	      1203	800057b4	41125e93	srai	x29,x4,0x11	  x4:0x1843e000 x29=0x00000c21
       12055000	      1204	800057b8	fa3f4913	xori	x18,x30,-93	 x30:0x80009fc5 x18=0x7fff6066
       12065000	      1205	800057bc	01d5fa63	bgeu	x11,x29,800057d0	 x11:0x8000abfd x29:0x00000c21
       12075000	      1206	00000000	00000013	addi	x0,x0,0	  x0:0x00000000
       12085000	      1207	800057cc	00000013	addi	x0,x0,0	  x0:0x00000000
       12095000	      1208	800057d0	41e20bb3	sub	x23,x4,x30	  x4:0x1843e000 x30:0x80009fc5 x23=0x9843403b
       12105000	      1209	800057d4	0ce01917	auipc	x18,0xce01	 x18=0x8ce067d0
       12115000	      1210	800057d8	04525063	bge	x4,x5,80005818	  x4:0x1843e000  x5:0xfffffac8
       12125000	      1211	00000000	00000013	addi	x0,x0,0	  x0:0x00000000
       12135000	      1212	80005814	00000013	addi	x0,x0,0	  x0:0x00000000
       12145000	      1213	80005818	01cc7eb3	and	x29,x24,x28	 x24:0x00007b20 x28:0x00000001 x29=0x00000000
       12155000	      1214	8000581c	002cda33	srl	x20,x25,x2	 x25:0x00000001  x2:0x1481ce85 x20=0x00000000
       12165000	      1215	80005820	01928eb3	add	x29,x5,x25	  x5:0xfffffac8 x25:0x00000001 x29=0xfffffac9
       12175000	      1216	80005824	202bf793	andi	x15,x23,514	 x23:0x9843403b x15=0x00000002
       12185000	      1217	80005828	002943b3	xor	x7,x18,x2	 x18:0x8ce067d0  x2:0x1481ce85  x7=0x9861a955
       12195000	      1218	8000582c	00f39cb3	sll	x25,x7,x15	  x7:0x9861a955 x15:0x00000002 x25=0x6186a554
       12205000	      1219	80005830	006be533	or	x10,x23,x6	 x23:0x9843403b  x6:0x00000600 x10=0x9843463b
       12215000	      1220	80005834	41f7d393	srai	x7,x15,0x1f	 x15:0x00000002  x7=0x00000000
       12225000	      1221	80005838	00193433	sltu	x8,x18,x1	 x18:0x8ce067d0  x1:0x00000000  x8=0x00000000
       12235000	      1222	8000583c	01b25663	bge	x4,x27,80005848	  x4:0x1843e000 x27:0x80009f24
       12245000	      1223	00000000	00000013	addi	x0,x0,0	  x0:0x00000000
       12255000	      1224	80005844	00000013	addi	x0,x0,0	  x0:0x00000000
       12265000	      1225	80005848	aab7b997	auipc	x19,0xaab7b	 x19=0x2ab80844
       12275000	      1226	8000584c	0079c1b3	xor	x3,x19,x7	 x19:0x2ab80844  x7:0x00000000  x3=0x2ab80844
       12285000	      1227	80005850	8e6fbf13	sltiu	x30,x31,-1818	 x31:0x00000000 x30=0x00000001
       12295000	      1228	80005854	ba507c13	andi	x24,x0,-1115	  x0:0x00000000 x24=0x00000000
       12305000	      1229	80005858	12406493	ori	x9,x0,292	  x0:0x00000000  x9=0x00000124
       12315000	      1230	8000585c	015f1e93	slli	x29,x30,0x15	 x30:0x00000001 x29=0x00200000
       12325000	      1231	80005860	01215613	srli	x12,x2,0x12	  x2:0x1481ce85 x12=0x00000520
       12335000	      1232	80005864	dbb86b37	lui	x22,0xdbb86	 x22=0xdbb86000
       12345000	      1233	80005868	02fa0c63	beq	x20,x15,800058a0	 x20:0x00000000 x15:0x00000002
       12355000	      1234	8000586c	40db5633	sra	x12,x22,x13	 x22:0xdbb86000 x13:0xffffff83 x12=0xfb770c00
       12365000	      1235	80005870	41565033	sra	x0,x12,x21	 x12:0xfb770c00 x21:0xef7812ee
       12375000	      1236	80005874	013f03b3	add	x7,x30,x19	 x30:0x00000001 x19:0x2ab80844  x7=0x2ab80845
       12385000	      1237	80005878	7580e9b7	lui	x19,0x7580e	 x19=0x7580e000
       12395000	      1238	8000587c	11ee0f93	addi	x31,x28,286	 x28:0x00000001 x31=0x0000011f
       12405000	      1239	80005880	0182d893	srli	x17,x5,0x18	  x5:0xfffffac8 x17=0x000000ff
       12415000	      1240	80005884	016a9533	sll	x10,x21,x22	 x21:0xef7812ee x22:0xdbb86000 x10=0xef7812ee
       12425000	      1241	80005888	00d85663	bge	x16,x13,80005894	 x16:0x80009fc4 x13:0xffffff83
       12435000	      1242	8000588c	032f8463	beq	x31,x18,800058b4	 x31:0x0000011f x18:0x8ce067d0
       12445000	      1243	80005890	04e76463	bltu	x14,x14,800058d8	 x14:0x00000000 x14:0x00000000
       12455000	      1244	80005894	00bda933	slt	x18,x27,x11	 x27:0x80009f24 x11:0x8000abfd x18=0x00000001
       12465000	      1245	80005898	011792b3	sll	x5,x15,x17	 x15:0x00000002 x17:0x000000ff  x5=0x00000000
       12475000	      1246	8000589c	b7066e93	ori	x29,x12,-1168	 x12:0xfb770c00 x29=0xffffff70
       12485000	      1247	800058a0	01db0a63	beq	x22,x29,800058b4	 x22:0xdbb86000 x29:0xffffff70
       12495000	      1248	800058a4	adcbc013	xori	x0,x23,-1316	 x23:0x9843403b
       12505000	      1249	800058a8	04b58063	beq	x11,x11,800058e8	 x11:0x8000abfd x11:0x8000abfd
       12515000	      1250	00000000	00000013	addi	x0,x0,0	  x0:0x00000000
       12525000	      1251	800058e4	00000013	addi	x0,x0,0	  x0:0x00000000
       12535000	      1252	800058e8	01b07133	and	x2,x0,x27	  x0:0x00000000 x27:0x80009f24  x2=0x00000000
       12545000	      1253	800058ec	04c01263	bne	x0,x12,80005930	  x0:0x00000000 x12:0xfb770c00
       12555000	      1254	00000000	00000013	addi	x0,x0,0	  x0:0x00000000
       12565000	      1255	8000592c	00000013	addi	x0,x0,0	  x0:0x00000000
       12575000	      1256	80005930	02f94a63	blt	x18,x15,80005964	 x18:0x00000001 x15:0x00000002
       12585000	      1257	00000000	00000013	addi	x0,x0,0	  x0:0x00000000
       12595000	      1258	80005960	00000013	addi	x0,x0,0	  x0:0x00000000
       12605000	      1259	80005964	39f05e37	lui	x28,0x39f05	 x28=0x39f05000
       12615000	      1260	80005968	27236f13	ori	x30,x6,626	  x6:0x00000600 x30=0x00000672
       12625000	      1261	8000596c	ae68bc93	sltiu	x25,x17,-1306	 x17:0x000000ff x25=0x00000001
       12635000	      1262	80005970	0092fc33	and	x24,x5,x9	  x5:0x00000000  x9:0x00000124 x24=0x00000000
       12645000	      1263	80005974	00745933	srl	x18,x8,x7	  x8:0x00000000  x7:0x2ab80845 x18=0x00000000
       12655000	      1264	80005978	414253b3	sra	x7,x4,x20	  x4:0x1843e000 x20:0x00000000  x7=0x1843e000
       12665000	      1265	8000597c	04424063	blt	x4,x4,800059bc	  x4:0x1843e000  x4:0x1843e000
       12675000	      1266	80005980	c75d3d13	sltiu	x26,x26,-907	 x26:0x0000005a x26=0x00000001
       12685000	      1267	80005984	032b0863	beq	x22,x18,800059b4	 x22:0xdbb86000 x18:0x00000000
       12695000	      1268	80005988	03e90663	beq	x18,x30,800059b4	 x18:0x00000000 x30:0x00000672
       12705000	      1269	8000598c	00000013	addi	x0,x0,0	  x0:0x00000000
       12715000	      1270	80005990	00a39c33	sll	x24,x7,x10	  x7:0x1843e000 x10:0xef7812ee x24=0xf8000000
       12725000	      1271	80005994	26d44c13	xori	x24,x8,621	  x8:0x00000000 x24=0x0000026d
       12735000	      1272	80005998	00119e63	bne	x3,x1,800059b4	  x3:0x2ab80844  x1:0x00000000
       12745000	      1273	00000000	00000013	addi	x0,x0,0	  x0:0x00000000
       12755000	      1274	800059b0	00000013	addi	x0,x0,0	  x0:0x00000000
       12765000	      1275	800059b4	015e4663	blt	x28,x21,800059c0	 x28:0x39f05000 x21:0xef7812ee
       12775000	      1276	800059b8	00575c63	bge	x14,x5,800059d0	 x14:0x00000000  x5:0x00000000
       12785000	      1277	00000000	00000013	addi	x0,x0,0	  x0:0x00000000
       12795000	      1278	800059cc	00000013	addi	x0,x0,0	  x0:0x00000000
       12805000	      1279	800059d0	f9a97b13	andi	x22,x18,-102	 x18:0x00000000 x22=0x00000000
       12815000	      1280	800059d4	017ece63	blt	x29,x23,800059f0	 x29:0xffffff70 x23:0x9843403b
       12825000	      1281	800059d8	41dad3b3	sra	x7,x21,x29	 x21:0xef7812ee x29:0xffffff70  x7=0xffffef78
       12835000	      1282	800059dc	c093e637	lui	x12,0xc093e	 x12=0xc093e000
       12845000	      1283	800059e0	01f71a13	slli	x20,x14,0x1f	 x14:0x00000000 x20=0x00000000
       12855000	      1284	800059e4	80cf2a13	slti	x20,x30,-2036	 x30:0x00000672 x20=0x00000000
       12865000	      1285	800059e8	00169793	slli	x15,x13,0x1	 x13:0xffffff83 x15=0xffffff06
       12875000	      1286	800059ec	00a2ea63	bltu	x5,x10,80005a00	  x5:0x00000000 x10:0xef7812ee
       12885000	      1287	00000000	00000013	addi	x0,x0,0	  x0:0x00000000
       12895000	      1288	800059fc	00000013	addi	x0,x0,0	  x0:0x00000000
       12905000	      1289	80005a00	00000013	addi	x0,x0,0	  x0:0x00000000
       12915000	      1290	80005a04	2594f3b7	lui	x7,0x2594f	  x7=0x2594f000
       12925000	      1291	80005a08	0048beb3	sltu	x29,x17,x4	 x17:0x000000ff  x4:0x1843e000 x29=0x00000001
       12935000	      1292	80005a0c	82518413	addi	x8,x3,-2011	  x3:0x2ab80844  x8=0x2ab80069
       12945000	      1293	80005a10	00000013	addi	x0,x0,0	  x0:0x00000000
       12955000	      1294	80005a14	01a64433	xor	x8,x12,x26	 x12:0xc093e000 x26:0x00000001  x8=0xc093e001
       12965000	      1295	80005a18	416ad133	sra	x2,x21,x22	 x21:0xef7812ee x22:0x00000000  x2=0xef7812ee
       12975000	      1296	80005a1c	00c11413	slli	x8,x2,0xc	  x2:0xef7812ee  x8=0x812ee000
       12985000	      1297	80005a20	bde02b13	slti	x22,x0,-1058	  x0:0x00000000 x22=0x00000000
       12995000	      1298	80005a24	03e2e263	bltu	x5,x30,80005a48	  x5:0x00000000 x30:0x00000672
       13005000	      1299	00000000	00000013	addi	x0,x0,0	  x0:0x00000000
       13015000	      1300	80005a44	00000013	addi	x0,x0,0	  x0:0x00000000
       13025000	      1301	80005a48	4020deb3	sra	x29,x1,x2	  x1:0x00000000  x2:0xef7812ee x29=0x00000000
       13035000	      1302	80005a4c	40320513	addi	x10,x4,1027	  x4:0x1843e000 x10=0x1843e403
       13045000	      1303	80005a50	019bbd33	sltu	x26,x23,x25	 x23:0x9843403b x25:0x00000001 x26=0x00000000
       13055000	      1304	80005a54	00fb6533	or	x10,x22,x15	 x22:0x00000000 x15:0xffffff06 x10=0xffffff06
       13065000	      1305	80005a58	b7442fb7	lui	x31,0xb7442	 x31=0xb7442000
       13075000	      1306	80005a5c	41e7dc93	srai	x25,x15,0x1e	 x15:0xffffff06 x25=0xffffffff
       13085000	      1307	80005a60	00000013	addi	x0,x0,0	  x0:0x00000000
       13095000	      1308	80005a64	04ebd263	bge	x23,x14,80005aa8	 x23:0x9843403b x14:0x00000000
       13105000	      1309	80005a68	1811e593	ori	x11,x3,385	  x3:0x2ab80844 x11=0x2ab809c5
       13115000	      1310	80005a6c	0148dd33	srl	x26,x17,x20	 x17:0x000000ff x20:0x00000000 x26=0x000000ff
       13125000	      1311	80005a70	05fb6863	bltu	x22,x31,80005ac0	 x22:0x00000000 x31:0xb7442000
       13135000	      1312	00000000	00000013	addi	x0,x0,0	  x0:0x00000000
       13145000	      1313	80005abc	00000013	addi	x0,x0,0	  x0:0x00000000
       13155000	      1314	80005ac0	0078fb33	and	x22,x17,x7	 x17:0x000000ff  x7:0x2594f000 x22=0x00000000
       13165000	      1315	80005ac4	00de0663	beq	x28,x13,80005ad0	 x28:0x39f05000 x13:0xffffff83
       13175000	      1316	80005ac8	00fee663	bltu	x29,x15,80005ad4	 x29:0x00000000 x15:0xffffff06
       13185000	      1317	00000000	00000013	addi	x0,x0,0	  x0:0x00000000
       13195000	      1318	80005ad0	00000013	addi	x0,x0,0	  x0:0x00000000
       13205000	      1319	80005ad4	00bc07b3	add	x15,x24,x11	 x24:0x0000026d x11:0x2ab809c5 x15=0x2ab80c32
       13215000	      1320	80005ad8	00b01233	sll	x4,x0,x11	  x0:0x00000000 x11:0x2ab809c5  x4=0x00000000
       13225000	      1321	80005adc	01062f33	slt	x30,x12,x16	 x12:0xc093e000 x16:0x80009fc4 x30=0x00000000
       13235000	      1322	80005ae0	5bffe113	ori	x2,x31,1471	 x31:0xb7442000  x2=0xb74425bf
       13245000	      1323	80005ae4	00414bb3	xor	x23,x2,x4	  x2:0xb74425bf  x4:0x00000000 x23=0xb74425bf
       13255000	      1324	80005ae8	00db9c13	slli	x24,x23,0xd	 x23:0xb74425bf x24=0x84b7e000
       13265000	      1325	80005aec	012c5693	srli	x13,x24,0x12	 x24:0x84b7e000 x13=0x0000212d
       13275000	      1326	80005af0	31af3313	sltiu	x6,x30,794	 x30:0x00000000  x6=0x00000001
       13285000	      1327	80005af4	00bf1a33	sll	x20,x30,x11	 x30:0x00000000 x11:0x2ab809c5 x20=0x00000000
       13295000	      1328	80005af8	01659033	sll	x0,x11,x22	 x11:0x2ab809c5 x22:0x00000000
       13305000	      1329	80005afc	401d0133	sub	x2,x26,x1	 x26:0x000000ff  x1:0x00000000  x2=0x000000ff
       13315000	      1330	80005b00	01c28933	add	x18,x5,x28	  x5:0x00000000 x28:0x39f05000 x18=0x39f05000
       13325000	      1331	80005b04	40e0d313	srai	x6,x1,0xe	  x1:0x00000000  x6=0x00000000
       13335000	      1332	80005b08	05574263	blt	x14,x21,80005b4c	 x14:0x00000000 x21:0xef7812ee
       13345000	      1333	80005b0c	40d95633	sra	x12,x18,x13	 x18:0x39f05000 x13:0x0000212d x12=0x0001cf82
       13355000	      1334	80005b10	019c3c33	sltu	x24,x24,x25	 x24:0x84b7e000 x25:0xffffffff x24=0x00000001
       13365000	      1335	80005b14	011a6cb3	or	x25,x20,x17	 x20:0x00000000 x17:0x000000ff x25=0x000000ff
       13375000	      1336	80005b18	3cef6513	ori	x10,x30,974	 x30:0x00000000 x10=0x000003ce
       13385000	      1337	80005b1c	7a52cf17	auipc	x30,0x7a52c	 x30=0xfa531b18
       13395000	      1338	80005b20	04ef4063	blt	x30,x14,80005b60	 x30:0xfa531b18 x14:0x00000000
       13405000	      1339	00000000	00000013	addi	x0,x0,0	  x0:0x00000000
       13415000	      1340	80005b5c	00000013	addi	x0,x0,0	  x0:0x00000000
       13425000	      1341	80005b60	fe6a7513	andi	x10,x20,-26	 x20:0x00000000 x10=0x00000000
       13435000	      1342	80005b64	03238863	beq	x7,x18,80005b94	  x7:0x2594f000 x18:0x39f05000
       13445000	      1343	80005b68	03e0f063	bgeu	x1,x30,80005b88	  x1:0x00000000 x30:0xfa531b18
       13455000	      1344	80005b6c	d0abea13	ori	x20,x23,-758	 x23:0xb74425bf x20=0xfffffdbf
       13465000	      1345	80005b70	04538463	beq	x7,x5,80005bb8	  x7:0x2594f000  x5:0x00000000
       13475000	      1346	80005b74	00eb2b33	slt	x22,x22,x14	 x22:0x00000000 x14:0x00000000 x22=0x00000000
       13485000	      1347	80005b78	01552a33	slt	x20,x10,x21	 x10:0x00000000 x21:0xef7812ee x20=0x00000000
       13495000	      1348	80005b7c	b39af313	andi	x6,x21,-1223	 x21:0xef7812ee  x6=0xef781228
       13505000	      1349	80005b80	15e4c113	xori	x2,x9,350	  x9:0x00000124  x2=0x0000007a
       13515000	      1350	80005b84	00ea3333	sltu	x6,x20,x14	 x20:0x00000000 x14:0x00000000  x6=0x00000000
       13525000	      1351	80005b88	01a699b3	sll	x19,x13,x26	 x13:0x0000212d x26:0x000000ff x19=0x80000000
       13535000	      1352	80005b8c	00897633	and	x12,x18,x8	 x18:0x39f05000  x8:0x812ee000 x12=0x01204000
       13545000	      1353	80005b90	669381b7	lui	x3,0x66938	  x3=0x66938000
       13555000	      1354	80005b94	39384b13	xori	x22,x16,915	 x16:0x80009fc4 x22=0x80009c57
       13565000	      1355	80005b98	05969263	bne	x13,x25,80005bdc	 x13:0x0000212d x25:0x000000ff
       13575000	      1356	00000000	00000013	addi	x0,x0,0	  x0:0x00000000
       13585000	      1357	80005bd8	00000013	addi	x0,x0,0	  x0:0x00000000
       13595000	      1358	80005bdc	048b8063	beq	x23,x8,80005c1c	 x23:0xb74425bf  x8:0x812ee000
       13605000	      1359	80005be0	01e381b3	add	x3,x7,x30	  x7:0x2594f000 x30:0xfa531b18  x3=0x1fe80b18
       13615000	      1360	80005be4	41f55f93	srai	x31,x10,0x1f	 x10:0x00000000 x31=0x00000000
       13625000	      1361	80005be8	344fe293	ori	x5,x31,836	 x31:0x00000000  x5=0x00000344
       13635000	      1362	80005bec	41090633	sub	x12,x18,x16	 x18:0x39f05000 x16:0x80009fc4 x12=0xb9efb03c
       13645000	      1363	80005bf0	0021f633	and	x12,x3,x2	  x3:0x1fe80b18  x2:0x0000007a x12=0x00000018
       13655000	      1364	80005bf4	00b3fe63	bgeu	x7,x11,80005c10	  x7:0x2594f000 x11:0x2ab809c5
       13665000	      1365	80005bf8	05a44063	blt	x8,x26,80005c38	  x8:0x812ee000 x26:0x000000ff
       13675000	      1366	00000000	00000013	addi	x0,x0,0	  x0:0x00000000
       13685000	      1367	80005c34	00000013	addi	x0,x0,0	  x0:0x00000000
       13695000	      1368	80005c38	a47bba93	sltiu	x21,x23,-1465	 x23:0xb74425bf x21=0x00000001
       13705000	      1369	80005c3c	0e992113	slti	x2,x18,233	 x18:0x39f05000  x2=0x00000000
       13715000	      1370	80005c40	4bb37e93	andi	x29,x6,1211	  x6:0x00000000 x29=0x00000000
       13725000	      1371	80005c44	00478fb3	add	x31,x15,x4	 x15:0x2ab80c32  x4:0x00000000 x31=0x2ab80c32
       13735000	      1372	80005c48	0107eab3	or	x21,x15,x16	 x15:0x2ab80c32 x16:0x80009fc4 x21=0xaab89ff6
       13745000	      1373	80005c4c	01405993	srli	x19,x0,0x14	  x0:0x00000000 x19=0x00000000
       13755000	      1374	80005c50	01beb933	sltu	x18,x29,x27	 x29:0x00000000 x27:0x80009f24 x18=0x00000001
       13765000	      1375	80005c54	d94afb93	andi	x23,x21,-620	 x21:0xaab89ff6 x23=0xaab89d94
       13775000	      1376	80005c58	b26d8313	addi	x6,x27,-1242	 x27:0x80009f24  x6=0x80009a4a
       13785000	      1377	80005c5c	41ddd293	srai	x5,x27,0x1d	 x27:0x80009f24  x5=0xfffffffc
       13795000	      1378	80005c60	417d5b13	srai	x22,x26,0x17	 x26:0x000000ff x22=0x00000000
       13805000	      1379	80005c64	cd2d0893	addi	x17,x26,-814	 x26:0x000000ff x17=0xfffffdd1
       13815000	      1380	80005c68	037fcc63	blt	x31,x23,80005ca0	 x31:0x2ab80c32 x23:0xaab89d94
       13825000	      1381	80005c6c	02ff8463	beq	x31,x15,80005c94	 x31:0x2ab80c32 x15:0x2ab80c32
       13835000	      1382	00000000	00000013	addi	x0,x0,0	  x0:0x00000000
       13845000	      1383	80005c90	00000013	addi	x0,x0,0	  x0:0x00000000
       13855000	      1384	80005c94	c9c18513	addi	x10,x3,-868	  x3:0x1fe80b18 x10=0x1fe807b4
       13865000	      1385	80005c98	00a19c33	sll	x24,x3,x10	  x3:0x1fe80b18 x10:0x1fe807b4 x24=0xb1800000
       13875000	      1386	80005c9c	0155d793	srli	x15,x11,0x15	 x11:0x2ab809c5 x15=0x00000155
       13885000	      1387	80005ca0	017512b3	sll	x5,x10,x23	 x10:0x1fe807b4 x23:0xaab89d94  x5=0x7b400000
       13895000	      1388	80005ca4	015eb033	sltu	x0,x29,x21	 x29:0x00000000 x21:0xaab89ff6
       13905000	      1389	80005ca8	00000013	addi	x0,x0,0	  x0:0x00000000
       13915000	      1390	80005cac	fa812013	slti	x0,x2,-88	  x2:0x00000000
       13925000	      1391	80005cb0	65678f93	addi	x31,x15,1622	 x15:0x00000155 x31=0x000007ab
       13935000	      1392	80005cb4	00ee1f13	slli	x30,x28,0xe	 x28:0x39f05000 x30=0x14000000
       13945000	      1393	80005cb8	25134993	xori	x19,x6,593	  x6:0x80009a4a x19=0x8000981b
       13955000	      1394	80005cbc	00000013	addi	x0,x0,0	  x0:0x00000000
       13965000	      1395	80005cc0	00854fb3	xor	x31,x10,x8	 x10:0x1fe807b4  x8:0x812ee000 x31=0x9ec6e7b4
       13975000	      1396	80005cc4	85b2a613	slti	x12,x5,-1957	  x5:0x7b400000 x12=0x00000000
       13985000	      1397	80005cc8	00e59a93	slli	x21,x11,0xe	 x11:0x2ab809c5 x21=0x02714000
       13995000	      1398	80005ccc	ec680f93	addi	x31,x16,-314	 x16:0x80009fc4 x31=0x80009e8a
       14005000	      1399	80005cd0	41d2d613	srai	x12,x5,0x1d	  x5:0x7b400000 x12=0x00000003
       14015000	      1400	80005cd4	00c3f2b3	and	x5,x7,x12	  x7:0x2594f000 x12:0x00000003  x5=0x00000000
       14025000	      1401	80005cd8	01cb5a93	srli	x21,x22,0x1c	 x22:0x00000000 x21=0x00000000
       14035000	      1402	80005cdc	40db0b33	sub	x22,x22,x13	 x22:0x00000000 x13:0x0000212d x22=0xffffded3
       14045000	      1403	80005ce0	bd138fb7	lui	x31,0xbd138	 x31=0xbd138000
       14055000	      1404	80005ce4	0213d463	bge	x7,x1,80005d0c	  x7:0x2594f000  x1:0x00000000
       14065000	      1405	00000000	00000013	addi	x0,x0,0	  x0:0x00000000
       14075000	      1406	80005d08	00000013	addi	x0,x0,0	  x0:0x00000000
       14085000	      1407	80005d0c	c6c8b713	sltiu	x14,x17,-916	 x17:0xfffffdd1 x14=0x00000000
       14095000	      1408	80005d10	01cac663	blt	x21,x28,80005d1c	 x21:0x00000000 x28:0x39f05000
       14105000	      1409	00000000	00000013	addi	x0,x0,0	  x0:0x00000000
       14115000	      1410	80005d18	00000013	addi	x0,x0,0	  x0:0x00000000
       14125000	      1411	80005d1c	fdbd7b93	andi	x23,x26,-37	 x26:0x000000ff x23=0x000000db
       14135000	      1412	80005d20	0154cbb3	xor	x23,x9,x21	  x9:0x00000124 x21:0x00000000 x23=0x00000124
       14145000	      1413	80005d24	00271e13	slli	x28,x14,0x2	 x14:0x00000000 x28=0x00000000
       14155000	      1414	80005d28	60ae3e93	sltiu	x29,x28,1546	 x28:0x00000000 x29=0x00000001
       14165000	      1415	80005d2c	013bb5b3	sltu	x11,x23,x19	 x23:0x00000124 x19:0x8000981b x11=0x00000001
       14175000	      1416	80005d30	01ae4fb3	xor	x31,x28,x26	 x28:0x00000000 x26:0x000000ff x31=0x000000ff
       14185000	      1417	80005d34	d28bce17	auipc	x28,0xd28bc	 x28=0x528c1d30
       14195000	      1418	80005d38	01a21233	sll	x4,x4,x26	  x4:0x00000000 x26:0x000000ff  x4=0x00000000
       14205000	      1419	80005d3c	1183c593	xori	x11,x7,280	  x7:0x2594f000 x11=0x2594f118
       14215000	      1420	80005d40	00d2ef33	or	x30,x5,x13	  x5:0x00000000 x13:0x0000212d x30=0x0000212d
       14225000	      1421	80005d44	01f0cb33	xor	x22,x1,x31	  x1:0x00000000 x31:0x000000ff x22=0x000000ff
       14235000	      1422	80005d48	01510fb3	add	x31,x2,x21	  x2:0x00000000 x21:0x00000000 x31=0x00000000
       14245000	      1423	80005d4c	be7b78b7	lui	x17,0xbe7b7	 x17=0xbe7b7000
       14255000	      1424	80005d50	d0f6a8b7	lui	x17,0xd0f6a	 x17=0xd0f6a000
       14265000	      1425	80005d54	ceea4893	xori	x17,x20,-786	 x20:0x00000000 x17=0xfffffcee
       14275000	      1426	80005d58	01ce6733	or	x14,x28,x28	 x28:0x528c1d30 x28:0x528c1d30 x14=0x528c1d30
       14285000	      1427	80005d5c	f0a7de97	auipc	x29,0xf0a7d	 x29=0x70a82d58
       14295000	      1428	80005d60	02ce0c63	beq	x28,x12,80005d98	 x28:0x528c1d30 x12:0x00000003
       14305000	      1429	80005d64	018c7663	bgeu	x24,x24,80005d70	 x24:0xb1800000 x24:0xb1800000
       14315000	      1430	00000000	00000013	addi	x0,x0,0	  x0:0x00000000
       14325000	      1431	80005d6c	00000013	addi	x0,x0,0	  x0:0x00000000
       14335000	      1432	80005d70	409209b3	sub	x19,x4,x9	  x4:0x00000000  x9:0x00000124 x19=0xfffffedc
       14345000	      1433	80005d74	000c7a33	and	x20,x24,x0	 x24:0xb1800000  x0:0x00000000 x20=0x00000000
       14355000	      1434	80005d78	40c081b3	sub	x3,x1,x12	  x1:0x00000000 x12:0x00000003  x3=0xfffffffd
       14365000	      1435	80005d7c	00bffe63	bgeu	x31,x11,80005d98	 x31:0x00000000 x11:0x2594f118
       14375000	      1436	80005d80	015399b3	sll	x19,x7,x21	  x7:0x2594f000 x21:0x00000000 x19=0x2594f000
       14385000	      1437	80005d84	66b81797	auipc	x15,0x66b81	 x15=0xe6b86d80
       14395000	      1438	80005d88	26102693	slti	x13,x0,609	  x0:0x00000000 x13=0x00000001
       14405000	      1439	80005d8c	0191db33	srl	x22,x3,x25	  x3:0xfffffffd x25:0x000000ff x22=0x00000001
       14415000	      1440	80005d90	04f9f463	bgeu	x19,x15,80005dd8	 x19:0x2594f000 x15:0xe6b86d80
       14425000	      1441	80005d94	c9cc3d13	sltiu	x26,x24,-868	 x24:0xb1800000 x26=0x00000001
       14435000	      1442	80005d98	506e6993	ori	x19,x28,1286	 x28:0x528c1d30 x19=0x528c1d36
       14445000	      1443	80005d9c	01422433	slt	x8,x4,x20	  x4:0x00000000 x20:0x00000000  x8=0x00000000
       14455000	      1444	80005da0	402dd013	srai	x0,x27,0x2	 x27:0x80009f24
       14465000	      1445	80005da4	01024533	xor	x10,x4,x16	  x4:0x00000000 x16:0x80009fc4 x10=0x80009fc4
       14475000	      1446	80005da8	01f1b933	sltu	x18,x3,x31	  x3:0xfffffffd x31:0x00000000 x18=0x00000000
       14485000	      1447	80005dac	055fc263	blt	x31,x21,80005df0	 x31:0x00000000 x21:0x00000000
       14495000	      1448	80005db0	00921a33	sll	x20,x4,x9	  x4:0x00000000  x9:0x00000124 x20=0x00000000
       14505000	      1449	80005db4	2bb38e13	addi	x28,x7,699	  x7:0x2594f000 x28=0x2594f2bb
       14515000	      1450	80005db8	4947c893	xori	x17,x15,1172	 x15:0xe6b86d80 x17=0xe6b86914
       14525000	      1451	80005dbc	01f40033	add	x0,x8,x31	  x8:0x00000000 x31:0x00000000
       14535000	      1452	80005dc0	aa6f3193	sltiu	x3,x30,-1370	 x30:0x0000212d  x3=0x00000001
       14545000	      1453	80005dc4	bad87693	andi	x13,x16,-1107	 x16:0x80009fc4 x13=0x80009b84
       14555000	      1454	80005dc8	014d55b3	srl	x11,x26,x20	 x26:0x00000001 x20:0x00000000 x11=0x00000001
       14565000	      1455	80005dcc	0018b733	sltu	x14,x17,x1	 x17:0xe6b86914  x1:0x00000000 x14=0x00000000
       14575000	      1456	80005dd0	00fc5313	srli	x6,x24,0xf	 x24:0xb1800000  x6=0x00016300
       14585000	      1457	80005dd4	0151ce63	blt	x3,x21,80005df0	  x3:0x00000001 x21:0x00000000
       14595000	      1458	80005dd8	01b9d133	srl	x2,x19,x27	 x19:0x528c1d36 x27:0x80009f24  x2=0x0528c1d3
       14605000	      1459	80005ddc	00ba5a33	srl	x20,x20,x11	 x20:0x00000000 x11:0x00000001 x20=0x00000000
       14615000	      1460	80005de0	00749bb3	sll	x23,x9,x7	  x9:0x00000124  x7:0x2594f000 x23=0x00000124
       14625000	      1461	80005de4	011597b3	sll	x15,x11,x17	 x11:0x00000001 x17:0xe6b86914 x15=0x00100000
       14635000	      1462	80005de8	5ac50f13	addi	x30,x10,1452	 x10:0x80009fc4 x30=0x8000a570
       14645000	      1463	80005dec	40a45793	srai	x15,x8,0xa	  x8:0x00000000 x15=0x00000000
       14655000	      1464	80005df0	40cd5893	srai	x17,x26,0xc	 x26:0x00000001 x17=0x00000000
       14665000	      1465	80005df4	40ed08b3	sub	x17,x26,x14	 x26:0x00000001 x14:0x00000000 x17=0x00000001
       14675000	      1466	80005df8	01e35c13	srli	x24,x6,0x1e	  x6:0x00016300 x24=0x00000000
       14685000	      1467	80005dfc	0203c663	blt	x7,x0,80005e28	  x7:0x2594f000  x0:0x00000000
       14695000	      1468	80005e00	00eb87b3	add	x15,x23,x14	 x23:0x00000124 x14:0x00000000 x15=0x00000124
       14705000	      1469	80005e04	9f520617	auipc	x12,0x9f520	 x12=0x1f525e00
       14715000	      1470	80005e08	045e1063	bne	x28,x5,80005e48	 x28:0x2594f2bb  x5:0x00000000
       14725000	      1471	00000000	00000013	addi	x0,x0,0	  x0:0x00000000
       14735000	      1472	80005e44	00000013	addi	x0,x0,0	  x0:0x00000000
       14745000	      1473	80005e48	52401497	auipc	x9,0x52401	  x9=0xd2406e44
       14755000	      1474	80005e4c	782a6e13	ori	x28,x20,1922	 x20:0x00000000 x28=0x00000782
       14765000	      1475	80005e50	028e6263	bltu	x28,x8,80005e74	 x28:0x00000782  x8:0x00000000
       14775000	      1476	80005e54	01a19d33	sll	x26,x3,x26	  x3:0x00000001 x26:0x00000001 x26=0x00000002
       14785000	      1477	80005e58	4072dc13	srai	x24,x5,0x7	  x5:0x00000000 x24=0x00000000
       14795000	      1478	80005e5c	019e5e93	srli	x29,x28,0x19	 x28:0x00000782 x29=0x00000000
       14805000	      1479	80005e60	00c5d193	srli	x3,x11,0xc	 x11:0x00000001  x3=0x00000000
       14815000	      1480	80005e64	01ace533	or	x10,x25,x26	 x25:0x000000ff x26:0x00000002 x10=0x000000ff
       14825000	      1481	80005e68	03055c63	bge	x10,x16,80005ea0	 x10:0x000000ff x16:0x80009fc4
       14835000	      1482	00000000	00000013	addi	x0,x0,0	  x0:0x00000000
       14845000	      1483	80005e9c	00000013	addi	x0,x0,0	  x0:0x00000000
       14855000	      1484	80005ea0	08b2f413	andi	x8,x5,139	  x5:0x00000000  x8=0x00000000
       14865000	      1485	80005ea4	01b71613	slli	x12,x14,0x1b	 x14:0x00000000 x12=0x00000000
       14875000	      1486	80005ea8	0137cb33	xor	x22,x15,x19	 x15:0x00000124 x19:0x528c1d36 x22=0x528c1c12
       14885000	      1487	80005eac	01a35b93	srli	x23,x6,0x1a	  x6:0x00016300 x23=0x00000000
       14895000	      1488	80005eb0	00182bb3	slt	x23,x16,x1	 x16:0x80009fc4  x1:0x00000000 x23=0x00000001
       14905000	      1489	80005eb4	2de77193	andi	x3,x14,734	 x14:0x00000000  x3=0x00000000
       14915000	      1490	80005eb8	c9a73a93	sltiu	x21,x14,-870	 x14:0x00000000 x21=0x00000001
       14925000	      1491	80005ebc	bec03397	auipc	x7,0xbec03	  x7=0x3ec08eb8
       14935000	      1492	80005ec0	52f9a493	slti	x9,x19,1327	 x19:0x528c1d36  x9=0x00000000
       14945000	      1493	80005ec4	29fa4717	auipc	x14,0x29fa4	 x14=0xa9fa9ec0
       14955000	      1494	80005ec8	05f08063	beq	x1,x31,80005f08	  x1:0x00000000 x31:0x00000000
       14965000	      1495	00000000	00000013	addi	x0,x0,0	  x0:0x00000000
       14975000	      1496	80005f04	00000013	addi	x0,x0,0	  x0:0x00000000
       14985000	      1497	80005f08	03178a63	beq	x15,x17,80005f3c	 x15:0x00000124 x17:0x00000001
       14995000	      1498	80005f0c	05d20063	beq	x4,x29,80005f4c	  x4:0x00000000 x29:0x00000000
       15005000	      1499	00000000	00000013	addi	x0,x0,0	  x0:0x00000000
       15015000	      1500	80005f48	00000013	addi	x0,x0,0	  x0:0x00000000
       15025000	      1501	80005f4c	19faa313	slti	x6,x21,415	 x21:0x00000001  x6=0x00000001
       15035000	      1502	80005f50	3f522d37	lui	x26,0x3f522	 x26=0x3f522000
       15045000	      1503	80005f54	00000013	addi	x0,x0,0	  x0:0x00000000
       15055000	      1504	80005f58	018f6a63	bltu	x30,x24,80005f6c	 x30:0x8000a570 x24:0x00000000
       15065000	      1505	80005f5c	01674433	xor	x8,x14,x22	 x14:0xa9fa9ec0 x22:0x528c1c12  x8=0xfb7682d2
       15075000	      1506	80005f60	00881c63	bne	x16,x8,80005f78	 x16:0x80009fc4  x8:0xfb7682d2
       15085000	      1507	00000000	00000013	addi	x0,x0,0	  x0:0x00000000
       15095000	      1508	80005f74	00000013	addi	x0,x0,0	  x0:0x00000000
       15105000	      1509	80005f78	00b71333	sll	x6,x14,x11	 x14:0xa9fa9ec0 x11:0x00000001  x6=0x53f53d80
       15115000	      1510	80005f7c	033b8463	beq	x23,x19,80005fa4	 x23:0x00000001 x19:0x528c1d36
       15125000	      1511	80005f80	183a6793	ori	x15,x20,387	 x20:0x00000000 x15=0x00000183
       15135000	      1512	80005f84	40d6dd33	sra	x26,x13,x13	 x13:0x80009b84 x13:0x80009b84 x26=0xf80009b8
       15145000	      1513	80005f88	8876c197	auipc	x3,0x8876c	  x3=0x08771f84
       15155000	      1514	80005f8c	418f0533	sub	x10,x30,x24	 x30:0x8000a570 x24:0x00000000 x10=0x8000a570
       15165000	      1515	80005f90	05e71463	bne	x14,x30,80005fd8	 x14:0xa9fa9ec0 x30:0x8000a570
       15175000	      1516	00000000	00000013	addi	x0,x0,0	  x0:0x00000000
       15185000	      1517	80005fd4	00000013	addi	x0,x0,0	  x0:0x00000000
       15195000	      1518	80005fd8	0005b433	sltu	x8,x11,x0	 x11:0x00000001  x0:0x00000000  x8=0x00000000
       15205000	      1519	80005fdc	011c8cb3	add	x25,x25,x17	 x25:0x000000ff x17:0x00000001 x25=0x00000100
       15215000	      1520	80005fe0	04550463	beq	x10,x5,80006028	 x10:0x8000a570  x5:0x00000000
       15225000	      1521	80005fe4	0036d033	srl	x0,x13,x3	 x13:0x80009b84  x3:0x08771f84
       15235000	      1522	80005fe8	018f7d33	and	x26,x30,x24	 x30:0x8000a570 x24:0x00000000 x26=0x00000000
       15245000	      1523	80005fec	01d01533	sll	x10,x0,x29	  x0:0x00000000 x29:0x00000000 x10=0x00000000
       15255000	      1524	80005ff0	01ea9113	slli	x2,x21,0x1e	 x21:0x00000001  x2=0x40000000
       15265000	      1525	80005ff4	89f36013	ori	x0,x6,-1889	  x6:0x53f53d80
       15275000	      1526	80005ff8	407f5b93	srai	x23,x30,0x7	 x30:0x8000a570 x23=0xff00014a
       15285000	      1527	80005ffc	13cf4a13	xori	x20,x30,316	 x30:0x8000a570 x20=0x8000a44c
       15295000	      1528	80006000	01f6da33	srl	x20,x13,x31	 x13:0x80009b84 x31:0x00000000 x20=0x80009b84
       15305000	      1529	80006004	fa426513	ori	x10,x4,-92	  x4:0x00000000 x10=0xffffffa4
       15315000	      1530	80006008	41360133	sub	x2,x12,x19	 x12:0x00000000 x19:0x528c1d36  x2=0xad73e2ca
       15325000	      1531	8000600c	408adb33	sra	x22,x21,x8	 x21:0x00000001  x8:0x00000000 x22=0x00000001
       15335000	      1532	80006010	6eca2713	slti	x14,x20,1772	 x20:0x80009b84 x14=0x00000001
       15345000	      1533	80006014	5454ec13	ori	x24,x9,1349	  x9:0x00000000 x24=0x00000545
       15355000	      1534	80006018	eb10a413	slti	x8,x1,-335	  x1:0x00000000  x8=0x00000000
       15365000	      1535	8000601c	01797663	bgeu	x18,x23,80006028	 x18:0x00000000 x23:0xff00014a
       15375000	      1536	80006020	01fce633	or	x12,x25,x31	 x25:0x00000100 x31:0x00000000 x12=0x00000100
       15385000	      1537	80006024	4fdae213	ori	x4,x21,1277	 x21:0x00000001  x4=0x000004fd
       15395000	      1538	80006028	86802493	slti	x9,x0,-1944	  x0:0x00000000  x9=0x00000000
       15405000	      1539	8000602c	00c624b3	slt	x9,x12,x12	 x12:0x00000100 x12:0x00000100  x9=0x00000000
       15415000	      1540	80006030	00536333	or	x6,x6,x5	  x6:0x53f53d80  x5:0x00000000  x6=0x53f53d80
       15425000	      1541	80006034	01fbd993	srli	x19,x23,0x1f	 x23:0xff00014a x19=0x00000001
       15435000	      1542	80006038	04efc263	blt	x31,x14,8000607c	 x31:0x00000000 x14:0x00000001
       15445000	      1543	00000000	00000013	addi	x0,x0,0	  x0:0x00000000
       15455000	      1544	80006078	00000013	addi	x0,x0,0	  x0:0x00000000
       15465000	      1545	8000607c	3ca74393	xori	x7,x14,970	 x14:0x00000001  x7=0x000003cb
       15475000	      1546	80006080	00b864b3	or	x9,x16,x11	 x16:0x80009fc4 x11:0x00000001  x9=0x80009fc5
       15485000	      1547	80006084	419ad4b3	sra	x9,x21,x25	 x21:0x00000001 x25:0x00000100  x9=0x00000001
       15495000	      1548	80006088	01fa1193	slli	x3,x20,0x1f	 x20:0x80009b84  x3=0x00000000
       15505000	      1549	8000608c	04725063	bge	x4,x7,800060cc	  x4:0x000004fd  x7:0x000003cb
       15515000	      1550	00000000	00000013	addi	x0,x0,0	  x0:0x00000000
       15525000	      1551	800060c8	00000013	addi	x0,x0,0	  x0:0x00000000
       15535000	      1552	800060cc	40595eb3	sra	x29,x18,x5	 x18:0x00000000  x5:0x00000000 x29=0x00000000
       15545000	      1553	800060d0	40f75b33	sra	x22,x14,x15	 x14:0x00000001 x15:0x00000183 x22=0x00000000
       15555000	      1554	800060d4	05751063	bne	x10,x23,80006114	 x10:0xffffffa4 x23:0xff00014a
       15565000	      1555	00000000	00000013	addi	x0,x0,0	  x0:0x00000000
       15575000	      1556	80006110	00000013	addi	x0,x0,0	  x0:0x00000000
       15585000	      1557	80006114	dc203cb7	lui	x25,0xdc203	 x25=0xdc203000
       15595000	      1558	80006118	000b13b3	sll	x7,x22,x0	 x22:0x00000000  x0:0x00000000  x7=0x00000000
       15605000	      1559	8000611c	01475d13	srli	x26,x14,0x14	 x14:0x00000001 x26=0x00000000
       15615000	      1560	80006120	039c0663	beq	x24,x25,8000614c	 x24:0x00000545 x25:0xdc203000
       15625000	      1561	80006124	00ff9a33	sll	x20,x31,x15	 x31:0x00000000 x15:0x00000183 x20=0x00000000
       15635000	      1562	80006128	262a4f93	xori	x31,x20,610	 x20:0x00000000 x31=0x00000262
       15645000	      1563	8000612c	40e3d733	sra	x14,x7,x14	  x7:0x00000000 x14:0x00000001 x14=0x00000000
       15655000	      1564	80006130	0122d633	srl	x12,x5,x18	  x5:0x00000000 x18:0x00000000 x12=0x00000000
       15665000	      1565	80006134	001af033	and	x0,x21,x1	 x21:0x00000001  x1:0x00000000
       15675000	      1566	80006138	cbef3493	sltiu	x9,x30,-834	 x30:0x8000a570  x9=0x00000001
       15685000	      1567	8000613c	95a3c193	xori	x3,x7,-1702	  x7:0x00000000  x3=0xfffff95a
       15695000	      1568	80006140	01ad4933	xor	x18,x26,x26	 x26:0x00000000 x26:0x00000000 x18=0x00000000
       15705000	      1569	80006144	41ec5733	sra	x14,x24,x30	 x24:0x00000545 x30:0x8000a570 x14=0x00000000
       15715000	      1570	80006148	02eb5463	bge	x22,x14,80006170	 x22:0x00000000 x14:0x00000000
       15725000	      1571	00000000	00000013	addi	x0,x0,0	  x0:0x00000000
       15735000	      1572	8000616c	00000013	addi	x0,x0,0	  x0:0x00000000
       15745000	      1573	80006170	01f5ca63	blt	x11,x31,80006184	 x11:0x00000001 x31:0x00000262
       15755000	      1574	00000000	00000013	addi	x0,x0,0	  x0:0x00000000
       15765000	      1575	80006180	00000013	addi	x0,x0,0	  x0:0x00000000
       15775000	      1576	80006184	01361b13	slli	x22,x12,0x13	 x12:0x00000000 x22=0x00000000
       15785000	      1577	80006188	01b838b3	sltu	x17,x16,x27	 x16:0x80009fc4 x27:0x80009f24 x17=0x00000000
       15795000	      1578	8000618c	c1e5fb13	andi	x22,x11,-994	 x11:0x00000001 x22=0x00000000
       15805000	      1579	80006190	01af9193	slli	x3,x31,0x1a	 x31:0x00000262  x3=0x88000000
       15815000	      1580	80006194	002ff7b3	and	x15,x31,x2	 x31:0x00000262  x2:0xad73e2ca x15=0x00000242
       15825000	      1581	80006198	41918e33	sub	x28,x3,x25	  x3:0x88000000 x25:0xdc203000 x28=0xabdfd000
       15835000	      1582	8000619c	4010d433	sra	x8,x1,x1	  x1:0x00000000  x1:0x00000000  x8=0x00000000
       15845000	      1583	800061a0	407ad2b3	sra	x5,x21,x7	 x21:0x00000001  x7:0x00000000  x5=0x00000001
       15855000	      1584	800061a4	01139593	slli	x11,x7,0x11	  x7:0x00000000 x11=0x00000000
       15865000	      1585	800061a8	01699133	sll	x2,x19,x22	 x19:0x00000001 x22:0x00000000  x2=0x00000001
       15875000	      1586	800061ac	01239d33	sll	x26,x7,x18	  x7:0x00000000 x18:0x00000000 x26=0x00000000
       15885000	      1587	800061b0	8122e213	ori	x4,x5,-2030	  x5:0x00000001  x4=0xfffff813
       15895000	      1588	800061b4	50c94593	xori	x11,x18,1292	 x18:0x00000000 x11=0x0000050c
       15905000	      1589	800061b8	00fb1663	bne	x22,x15,800061c4	 x22:0x00000000 x15:0x00000242
       15915000	      1590	00000000	00000013	addi	x0,x0,0	  x0:0x00000000
       15925000	      1591	800061c0	00000013	addi	x0,x0,0	  x0:0x00000000
       15935000	      1592	800061c4	41a05c93	srai	x25,x0,0x1a	  x0:0x00000000 x25=0x00000000
       15945000	      1593	800061c8	01e704b3	add	x9,x14,x30	 x14:0x00000000 x30:0x8000a570  x9=0x8000a570
       15955000	      1594	800061cc	0189db93	srli	x23,x19,0x18	 x19:0x00000001 x23=0x00000000
       15965000	      1595	800061d0	05226463	bltu	x4,x18,80006218	  x4:0xfffff813 x18:0x00000000
       15975000	      1596	800061d4	032d4c63	blt	x26,x18,8000620c	 x26:0x00000000 x18:0x00000000
       15985000	      1597	800061d8	29998393	addi	x7,x19,665	 x19:0x00000001  x7=0x0000029a
       15995000	      1598	800061dc	88ace137	lui	x2,0x88ace	  x2=0x88ace000
       16005000	      1599	800061e0	8022e313	ori	x6,x5,-2046	  x5:0x00000001  x6=0xfffff803
       16015000	      1600	800061e4	172f6b13	ori	x22,x30,370	 x30:0x8000a570 x22=0x8000a572
       16025000	      1601	800061e8	40a25393	srai	x7,x4,0xa	  x4:0xfffff813  x7=0xfffffffe
       16035000	      1602	800061ec	00a92c33	slt	x24,x18,x10	 x18:0x00000000 x10:0xffffffa4 x24=0x00000000
       16045000	      1603	800061f0	c63dc593	xori	x11,x27,-925	 x27:0x80009f24 x11=0x7fff6347
       16055000	      1604	800061f4	00efacb3	slt	x25,x31,x14	 x31:0x00000262 x14:0x00000000 x25=0x00000000
       16065000	      1605	800061f8	0156dc63	bge	x13,x21,80006210	 x13:0x80009b84 x21:0x00000001
       16075000	      1606	800061fc	01b534b3	sltu	x9,x10,x27	 x10:0xffffffa4 x27:0x80009f24  x9=0x00000000
       16085000	      1607	80006200	03ff5663	bge	x30,x31,8000622c	 x30:0x8000a570 x31:0x00000262
       16095000	      1608	80006204	00000013	addi	x0,x0,0	  x0:0x00000000
       16105000	      1609	80006208	02b3c863	blt	x7,x11,80006238	  x7:0xfffffffe x11:0x7fff6347
       16115000	      1610	00000000	00000013	addi	x0,x0,0	  x0:0x00000000
       16125000	      1611	80006234	00000013	addi	x0,x0,0	  x0:0x00000000
       16135000	      1612	80006238	a77caf13	slti	x30,x25,-1417	 x25:0x00000000 x30=0x00000000
       16145000	      1613	8000623c	02e24263	blt	x4,x14,80006260	  x4:0xfffff813 x14:0x00000000
       16155000	      1614	00000000	00000013	addi	x0,x0,0	  x0:0x00000000
       16165000	      1615	8000625c	00000013	addi	x0,x0,0	  x0:0x00000000
       16175000	      1616	80006260	00a6eeb3	or	x29,x13,x10	 x13:0x80009b84 x10:0xffffffa4 x29=0xffffffa4
       16185000	      1617	80006264	01864233	xor	x4,x12,x24	 x12:0x00000000 x24:0x00000000  x4=0x00000000
       16195000	      1618	80006268	01854533	xor	x10,x10,x24	 x10:0xffffffa4 x24:0x00000000 x10=0xffffffa4
       16205000	      1619	8000626c	02590063	beq	x18,x5,8000628c	 x18:0x00000000  x5:0x00000001
       16215000	      1620	80006270	57888197	auipc	x3,0x57888	  x3=0xd788e26c
       16225000	      1621	80006274	00e2d313	srli	x6,x5,0xe	  x5:0x00000001  x6=0x00000000
       16235000	      1622	80006278	4133dd33	sra	x26,x7,x19	  x7:0xfffffffe x19:0x00000001 x26=0xffffffff
       16245000	      1623	8000627c	02c08c63	beq	x1,x12,800062b4	  x1:0x00000000 x12:0x00000000
       16255000	      1624	00000000	00000013	addi	x0,x0,0	  x0:0x00000000
       16265000	      1625	800062b0	00000013	addi	x0,x0,0	  x0:0x00000000
       16275000	      1626	800062b4	1f5b8f13	addi	x30,x23,501	 x23:0x00000000 x30=0x000001f5
       16285000	      1627	800062b8	107de063	bltu	x27,x7,800063b8	 x27:0x80009f24  x7:0xfffffffe
       16295000	      1628	00000000	00000013	addi	x0,x0,0	  x0:0x00000000
       16305000	      1629	800063b4	00000013	addi	x0,x0,0	  x0:0x00000000
       16315000	      1630	800063b8	8a140b93	addi	x23,x8,-1887	  x8:0x00000000 x23=0xfffff8a1
       16325000	      1631	800063bc	05f17063	bgeu	x2,x31,800063fc	  x2:0x88ace000 x31:0x00000262
       16335000	      1632	00000000	00000013	addi	x0,x0,0	  x0:0x00000000
       16345000	      1633	800063f8	00000013	addi	x0,x0,0	  x0:0x00000000
       16355000	      1634	800063fc	01901d13	slli	x26,x0,0x19	  x0:0x00000000 x26=0x00000000
       16365000	      1635	80006400	60338393	addi	x7,x7,1539	  x7:0xfffffffe  x7=0x00000601
       16375000	      1636	80006404	e1cacc13	xori	x24,x21,-484	 x21:0x00000001 x24=0xfffffe1d
       16385000	      1637	80006408	036d0463	beq	x26,x22,80006430	 x26:0x00000000 x22:0x8000a572
       16395000	      1638	8000640c	01713233	sltu	x4,x2,x23	  x2:0x88ace000 x23:0xfffff8a1  x4=0x00000001
       16405000	      1639	80006410	01c707b3	add	x15,x14,x28	 x14:0x00000000 x28:0xabdfd000 x15=0xabdfd000
       16415000	      1640	80006414	00000013	addi	x0,x0,0	  x0:0x00000000
       16425000	      1641	80006418	41195bb3	sra	x23,x18,x17	 x18:0x00000000 x17:0x00000000 x23=0x00000000
       16435000	      1642	8000641c	b4457c93	andi	x25,x10,-1212	 x10:0xffffffa4 x25=0xfffffb04
       16445000	      1643	80006420	8f006e13	ori	x28,x0,-1808	  x0:0x00000000 x28=0xfffff8f0
       16455000	      1644	80006424	40825693	srai	x13,x4,0x8	  x4:0x00000001 x13=0x00000000
       16465000	      1645	80006428	40250eb3	sub	x29,x10,x2	 x10:0xffffffa4  x2:0x88ace000 x29=0x77531fa4
       16475000	      1646	8000642c	00e95f13	srli	x30,x18,0xe	 x18:0x00000000 x30=0x00000000
       16485000	      1647	80006430	01ee1a63	bne	x28,x30,80006444	 x28:0xfffff8f0 x30:0x00000000
       16495000	      1648	00000000	00000013	addi	x0,x0,0	  x0:0x00000000
       16505000	      1649	80006440	00000013	addi	x0,x0,0	  x0:0x00000000
       16515000	      1650	80006444	020f4a63	blt	x30,x0,80006478	 x30:0x00000000  x0:0x00000000
       16525000	      1651	80006448	403bd193	srai	x3,x23,0x3	 x23:0x00000000  x3=0x00000000
       16535000	      1652	8000644c	e31f67b7	lui	x15,0xe31f6	 x15=0xe31f6000
       16545000	      1653	80006450	00000013	addi	x0,x0,0	  x0:0x00000000
       16555000	      1654	80006454	325b7f13	andi	x30,x22,805	 x22:0x8000a572 x30=0x00000120
       16565000	      1655	80006458	01c35a33	srl	x20,x6,x28	  x6:0x00000000 x28:0xfffff8f0 x20=0x00000000
       16575000	      1656	8000645c	32cba993	slti	x19,x23,812	 x23:0x00000000 x19=0x00000001
       16585000	      1657	80006460	4a220a93	addi	x21,x4,1186	  x4:0x00000001 x21=0x000004a3
       16595000	      1658	80006464	028b0863	beq	x22,x8,80006494	 x22:0x8000a572  x8:0x00000000
       16605000	      1659	80006468	00f54d33	xor	x26,x10,x15	 x10:0xffffffa4 x15:0xe31f6000 x26=0x1ce09fa4
       16615000	      1660	8000646c	01091633	sll	x12,x18,x16	 x18:0x00000000 x16:0x80009fc4 x12=0x00000000
       16625000	      1661	80006470	00000013	addi	x0,x0,0	  x0:0x00000000
       16635000	      1662	80006474	00df4533	xor	x10,x30,x13	 x30:0x00000120 x13:0x00000000 x10=0x00000120
       16645000	      1663	80006478	ca14f013	andi	x0,x9,-863	  x9:0x00000000
       16655000	      1664	8000647c	03fddc63	bge	x27,x31,800064b4	 x27:0x80009f24 x31:0x00000262
       16665000	      1665	80006480	41af8133	sub	x2,x31,x26	 x31:0x00000262 x26:0x1ce09fa4  x2=0xe31f62be
       16675000	      1666	80006484	0466f463	bgeu	x13,x6,800064cc	 x13:0x00000000  x6:0x00000000
       16685000	      1667	00000000	00000013	addi	x0,x0,0	  x0:0x00000000
       16695000	      1668	800064c8	00000013	addi	x0,x0,0	  x0:0x00000000
       16705000	      1669	800064cc	0050fa63	bgeu	x1,x5,800064e0	  x1:0x00000000  x5:0x00000001
       16715000	      1670	800064d0	011a13b3	sll	x7,x20,x17	 x20:0x00000000 x17:0x00000000  x7=0x00000000
       16725000	      1671	800064d4	407708b3	sub	x17,x14,x7	 x14:0x00000000  x7:0x00000000 x17=0x00000000
       16735000	      1672	800064d8	4e322e13	slti	x28,x4,1251	  x4:0x00000001 x28=0x00000001
       16745000	      1673	800064dc	0108de33	srl	x28,x17,x16	 x17:0x00000000 x16:0x80009fc4 x28=0x00000000
       16755000	      1674	800064e0	0244f463	bgeu	x9,x4,80006508	  x9:0x00000000  x4:0x00000001
       16765000	      1675	800064e4	046f5063	bge	x30,x6,80006524	 x30:0x00000120  x6:0x00000000
       16775000	      1676	00000000	00000013	addi	x0,x0,0	  x0:0x00000000
       16785000	      1677	80006520	00000013	addi	x0,x0,0	  x0:0x00000000
       16795000	      1678	80006524	00000013	addi	x0,x0,0	  x0:0x00000000
       16805000	      1679	80006528	04ed1463	bne	x26,x14,80006570	 x26:0x1ce09fa4 x14:0x00000000
       16815000	      1680	00000000	00000013	addi	x0,x0,0	  x0:0x00000000
       16825000	      1681	8000656c	00000013	addi	x0,x0,0	  x0:0x00000000
       16835000	      1682	80006570	ee970393	addi	x7,x14,-279	 x14:0x00000000  x7=0xfffffee9
       16845000	      1683	80006574	48c196b7	lui	x13,0x48c19	 x13=0x48c19000
       16855000	      1684	80006578	029e0863	beq	x28,x9,800065a8	 x28:0x00000000  x9:0x00000000
       16865000	      1685	00000000	00000013	addi	x0,x0,0	  x0:0x00000000
       16875000	      1686	800065a4	00000013	addi	x0,x0,0	  x0:0x00000000
       16885000	      1687	800065a8	01ed1133	sll	x2,x26,x30	 x26:0x1ce09fa4 x30:0x00000120  x2=0x1ce09fa4
       16895000	      1688	800065ac	00a92a33	slt	x20,x18,x10	 x18:0x00000000 x10:0x00000120 x20=0x00000001
       16905000	      1689	800065b0	00e266b3	or	x13,x4,x14	  x4:0x00000001 x14:0x00000000 x13=0x00000001
       16915000	      1690	800065b4	01946733	or	x14,x8,x25	  x8:0x00000000 x25:0xfffffb04 x14=0xfffffb04
       16925000	      1691	800065b8	34a3d297	auipc	x5,0x34a3d	  x5=0xb4a435b4
       16935000	      1692	800065bc	fab8ba13	sltiu	x20,x17,-85	 x17:0x00000000 x20=0x00000001
       16945000	      1693	800065c0	00a637b3	sltu	x15,x12,x10	 x12:0x00000000 x10:0x00000120 x15=0x00000001
       16955000	      1694	800065c4	017b1663	bne	x22,x23,800065d0	 x22:0x8000a572 x23:0x00000000
       16965000	      1695	00000000	00000013	addi	x0,x0,0	  x0:0x00000000
       16975000	      1696	800065cc	00000013	addi	x0,x0,0	  x0:0x00000000
       16985000	      1697	800065d0	400e5293	srai	x5,x28,0x0	 x28:0x00000000  x5=0x00000000
       16995000	      1698	800065d4	00e691b3	sll	x3,x13,x14	 x13:0x00000001 x14:0xfffffb04  x3=0x00000010
       17005000	      1699	800065d8	0db35c63	bge	x6,x27,800066b0	  x6:0x00000000 x27:0x80009f24
       17015000	      1700	00000000	00000013	addi	x0,x0,0	  x0:0x00000000
       17025000	      1701	800066ac	00000013	addi	x0,x0,0	  x0:0x00000000
       17035000	      1702	800066b0	011d6bb3	or	x23,x26,x17	 x26:0x1ce09fa4 x17:0x00000000 x23=0x1ce09fa4
       17045000	      1703	800066b4	0179d133	srl	x2,x19,x23	 x19:0x00000001 x23:0x1ce09fa4  x2=0x00000000
       17055000	      1704	800066b8	015b1333	sll	x6,x22,x21	 x22:0x8000a572 x21:0x000004a3  x6=0x00052b90
       17065000	      1705	800066bc	01c94a63	blt	x18,x28,800066d0	 x18:0x00000000 x28:0x00000000
       17075000	      1706	800066c0	012c1e33	sll	x28,x24,x18	 x24:0xfffffe1d x18:0x00000000 x28=0xfffffe1d
       17085000	      1707	800066c4	04440863	beq	x8,x4,80006714	  x8:0x00000000  x4:0x00000001
       17095000	      1708	800066c8	03f2ca63	blt	x5,x31,800066fc	  x5:0x00000000 x31:0x00000262
       17105000	      1709	00000000	00000013	addi	x0,x0,0	  x0:0x00000000
       17115000	      1710	800066f8	00000013	addi	x0,x0,0	  x0:0x00000000
       17125000	      1711	800066fc	00f43d33	sltu	x26,x8,x15	  x8:0x00000000 x15:0x00000001 x26=0x00000001
       17135000	      1712	80006700	c69caf93	slti	x31,x25,-919	 x25:0xfffffb04 x31=0x00000001
       17145000	      1713	80006704	001bb033	sltu	x0,x23,x1	 x23:0x1ce09fa4  x1:0x00000000
       17155000	      1714	80006708	01304ab3	xor	x21,x0,x19	  x0:0x00000000 x19:0x00000001 x21=0x00000001
       17165000	      1715	8000670c	05607063	bgeu	x0,x22,8000674c	  x0:0x00000000 x22:0x8000a572
       17175000	      1716	80006710	40d25393	srai	x7,x4,0xd	  x4:0x00000001  x7=0x00000000
       17185000	      1717	80006714	017dde13	srli	x28,x27,0x17	 x27:0x80009f24 x28=0x00000100
       17195000	      1718	80006718	8a712393	slti	x7,x2,-1881	  x2:0x00000000  x7=0x00000000
       17205000	      1719	8000671c	07d2d663	bge	x5,x29,80006788	  x5:0x00000000 x29:0x77531fa4
       17215000	      1720	80006720	ee67c213	xori	x4,x15,-282	 x15:0x00000001  x4=0xfffffee7
       17225000	      1721	80006724	014a3fb3	sltu	x31,x20,x20	 x20:0x00000001 x20:0x00000001 x31=0x00000000
       17235000	      1722	80006728	4184d4b3	sra	x9,x9,x24	  x9:0x00000000 x24:0xfffffe1d  x9=0x00000000
       17245000	      1723	8000672c	4e65c417	auipc	x8,0x4e65c	  x8=0xce662728
       17255000	      1724	80006730	01ec9b33	sll	x22,x25,x30	 x25:0xfffffb04 x30:0x00000120 x22=0xfffffb04
       17265000	      1725	80006734	00cec233	xor	x4,x29,x12	 x29:0x77531fa4 x12:0x00000000  x4=0x77531fa4
       17275000	      1726	80006738	c4e52a13	slti	x20,x10,-946	 x10:0x00000120 x20=0x00000000
       17285000	      1727	8000673c	01e75793	srli	x15,x14,0x1e	 x14:0xfffffb04 x15=0x00000003
       17295000	      1728	80006740	008aed33	or	x26,x21,x8	 x21:0x00000001  x8:0xce662728 x26=0xce662729
       17305000	      1729	80006744	01ff4133	xor	x2,x30,x31	 x30:0x00000120 x31:0x00000000  x2=0x00000120
       17315000	      1730	80006748	00549a13	slli	x20,x9,0x5	  x9:0x00000000 x20=0x00000000
       17325000	      1731	8000674c	014f7433	and	x8,x30,x20	 x30:0x00000120 x20:0x00000000  x8=0x00000000
       17335000	      1732	80006750	be5147b7	lui	x15,0xbe514	 x15=0xbe514000
       17345000	      1733	80006754	06a8c463	blt	x17,x10,800067bc	 x17:0x00000000 x10:0x00000120
       17355000	      1734	00000000	00000013	addi	x0,x0,0	  x0:0x00000000
       17365000	      1735	800067b8	00000013	addi	x0,x0,0	  x0:0x00000000
       17375000	      1736	800067bc	41938b33	sub	x22,x7,x25	  x7:0x00000000 x25:0xfffffb04 x22=0x000004fc
       17385000	      1737	800067c0	00000013	addi	x0,x0,0	  x0:0x00000000
       17395000	      1738	800067c4	70f46793	ori	x15,x8,1807	  x8:0x00000000 x15=0x0000070f
       17405000	      1739	800067c8	017c33b3	sltu	x7,x24,x23	 x24:0xfffffe1d x23:0x1ce09fa4  x7=0x00000000
       17415000	      1740	800067cc	00105233	srl	x4,x0,x1	  x0:0x00000000  x1:0x00000000  x4=0x00000000
       17425000	      1741	800067d0	631feb13	ori	x22,x31,1585	 x31:0x00000000 x22=0x00000631
       17435000	      1742	800067d4	6dfd1037	lui	x0,0x6dfd1	
       17445000	      1743	800067d8	410a88b3	sub	x17,x21,x16	 x21:0x00000001 x16:0x80009fc4 x17=0x7fff603d
       17455000	      1744	800067dc	00c68663	beq	x13,x12,800067e8	 x13:0x00000001 x12:0x00000000
       17465000	      1745	800067e0	005ce933	or	x18,x25,x5	 x25:0xfffffb04  x5:0x00000000 x18=0xfffffb04
       17475000	      1746	800067e4	69a57513	andi	x10,x10,1690	 x10:0x00000120 x10=0x00000000
       17485000	      1747	800067e8	036c4a63	blt	x24,x22,8000681c	 x24:0xfffffe1d x22:0x00000631
       17495000	      1748	00000000	00000013	addi	x0,x0,0	  x0:0x00000000
       17505000	      1749	80006818	00000013	addi	x0,x0,0	  x0:0x00000000
       17515000	      1750	8000681c	00de9693	slli	x13,x29,0xd	 x29:0x77531fa4 x13=0x63f48000
       17525000	      1751	80006820	00000013	addi	x0,x0,0	  x0:0x00000000
       17535000	      1752	80006824	00bb8233	add	x4,x23,x11	 x23:0x1ce09fa4 x11:0x7fff6347  x4=0x9ce002eb
       17545000	      1753	80006828	d5cb62b7	lui	x5,0xd5cb6	  x5=0xd5cb6000
       17555000	      1754	8000682c	00efde63	bge	x31,x14,80006848	 x31:0x00000000 x14:0xfffffb04
       17565000	      1755	00000000	00000013	addi	x0,x0,0	  x0:0x00000000
       17575000	      1756	80006844	00000013	addi	x0,x0,0	  x0:0x00000000
       17585000	      1757	80006848	c9103493	sltiu	x9,x0,-879	  x0:0x00000000  x9=0x00000001
       17595000	      1758	8000684c	004b0a63	beq	x22,x4,80006860	 x22:0x00000631  x4:0x9ce002eb
       17605000	      1759	80006850	41c78f33	sub	x30,x15,x28	 x15:0x0000070f x28:0x00000100 x30=0x0000060f
       17615000	      1760	80006854	004fb333	sltu	x6,x31,x4	 x31:0x00000000  x4:0x9ce002eb  x6=0x00000001
       17625000	      1761	80006858	41fd5033	sra	x0,x26,x31	 x26:0xce662729 x31:0x00000000
       17635000	      1762	8000685c	03f08263	beq	x1,x31,80006880	  x1:0x00000000 x31:0x00000000
       17645000	      1763	00000000	00000013	addi	x0,x0,0	  x0:0x00000000
       17655000	      1764	8000687c	00000013	addi	x0,x0,0	  x0:0x00000000
       17665000	      1765	80006880	04014863	blt	x2,x0,800068d0	  x2:0x00000120  x0:0x00000000
       17675000	      1766	80006884	943b5497	auipc	x9,0x943b5	  x9=0x143bb880
       17685000	      1767	80006888	d1ca9e17	auipc	x28,0xd1ca9	 x28=0x51caf884
       17695000	      1768	8000688c	008dee63	bltu	x27,x8,800068a8	 x27:0x80009f24  x8:0x00000000
       17705000	      1769	80006890	03a28c63	beq	x5,x26,800068c8	  x5:0xd5cb6000 x26:0xce662729
       17715000	      1770	80006894	00000013	addi	x0,x0,0	  x0:0x00000000
       17725000	      1771	80006898	002e9193	slli	x3,x29,0x2	 x29:0x77531fa4  x3=0xdd4c7e90
       17735000	      1772	8000689c	fa646313	ori	x6,x8,-90	  x8:0x00000000  x6=0xffffffa6
       17745000	      1773	800068a0	02b11663	bne	x2,x11,800068cc	  x2:0x00000120 x11:0x7fff6347
       17755000	      1774	00000000	00000013	addi	x0,x0,0	  x0:0x00000000
       17765000	      1775	800068c8	00000013	addi	x0,x0,0	  x0:0x00000000
       17775000	      1776	800068cc	055cd263	bge	x25,x21,80006910	 x25:0xfffffb04 x21:0x00000001
       17785000	      1777	800068d0	40335e13	srai	x28,x6,0x3	  x6:0xffffffa6 x28=0xfffffff4
       17795000	      1778	800068d4	7c57ec93	ori	x25,x15,1989	 x15:0x0000070f x25=0x000007cf
       17805000	      1779	800068d8	26877e13	andi	x28,x14,616	 x14:0xfffffb04 x28=0x00000200
       17815000	      1780	800068dc	6af98113	addi	x2,x19,1711	 x19:0x00000001  x2=0x000006b0
       17825000	      1781	800068e0	00f305b3	add	x11,x6,x15	  x6:0xffffffa6 x15:0x0000070f x11=0x000006b5
       17835000	      1782	800068e4	00207a63	bgeu	x0,x2,800068f8	  x0:0x00000000  x2:0x000006b0
       17845000	      1783	800068e8	02b2e063	bltu	x5,x11,80006908	  x5:0xd5cb6000 x11:0x000006b5
       17855000	      1784	800068ec	025a8863	beq	x21,x5,8000691c	 x21:0x00000001  x5:0xd5cb6000
       17865000	      1785	800068f0	44987f13	andi	x30,x16,1097	 x16:0x80009fc4 x30=0x00000440
       17875000	      1786	800068f4	00941b93	slli	x23,x8,0x9	  x8:0x00000000 x23=0x00000000
       17885000	      1787	800068f8	00000013	addi	x0,x0,0	  x0:0x00000000
       17895000	      1788	800068fc	499ca493	slti	x9,x25,1177	 x25:0x000007cf  x9=0x00000000
       17905000	      1789	80006900	23600b93	addi	x23,x0,566	  x0:0x00000000 x23=0x00000236
       17915000	      1790	80006904	00e2a8b3	slt	x17,x5,x14	  x5:0xd5cb6000 x14:0xfffffb04 x17=0x00000001
       17925000	      1791	80006908	0ef77713	andi	x14,x14,239	 x14:0xfffffb04 x14=0x00000004
       17935000	      1792	8000690c	31e7e737	lui	x14,0x31e7e	 x14=0x31e7e000
       17945000	      1793	80006910	01afa5b3	slt	x11,x31,x26	 x31:0x00000000 x26:0xce662729 x11=0x00000000
       17955000	      1794	80006914	00ad5113	srli	x2,x26,0xa	 x26:0xce662729  x2=0x00339989
       17965000	      1795	80006918	007cbcb3	sltu	x25,x25,x7	 x25:0x000007cf  x7:0x00000000 x25=0x00000000
       17975000	      1796	8000691c	05167463	bgeu	x12,x17,80006964	 x12:0x00000000 x17:0x00000001
       17985000	      1797	80006920	00369f93	slli	x31,x13,0x3	 x13:0x63f48000 x31=0x1fa40000
       17995000	      1798	80006924	79df7a13	andi	x20,x30,1949	 x30:0x00000440 x20=0x00000400
       18005000	      1799	80006928	2cca4893	xori	x17,x20,716	 x20:0x00000400 x17=0x000006cc
       18015000	      1800	8000692c	01e01493	slli	x9,x0,0x1e	  x0:0x00000000  x9=0x00000000
       18025000	      1801	80006930	04559263	bne	x11,x5,80006974	 x11:0x00000000  x5:0xd5cb6000
       18035000	      1802	00000000	00000013	addi	x0,x0,0	  x0:0x00000000
       18045000	      1803	80006970	00000013	addi	x0,x0,0	  x0:0x00000000
       18055000	      1804	80006974	4d404d13	xori	x26,x0,1236	  x0:0x00000000 x26=0x000004d4
       18065000	      1805	80006978	00000013	addi	x0,x0,0	  x0:0x00000000
       18075000	      1806	8000697c	4583bb13	sltiu	x22,x7,1112	  x7:0x00000000 x22=0x00000001
       18085000	      1807	80006980	01ac7a63	bgeu	x24,x26,80006994	 x24:0xfffffe1d x26:0x000004d4
       18095000	      1808	00000000	00000013	addi	x0,x0,0	  x0:0x00000000
       18105000	      1809	80006990	00000013	addi	x0,x0,0	  x0:0x00000000
       18115000	      1810	80006994	00000013	addi	x0,x0,0	  x0:0x00000000
       18125000	      1811	80006998	4c40bb17	auipc	x22,0x4c40b	 x22=0xcc411994
       18135000	      1812	8000699c	62733693	sltiu	x13,x6,1575	  x6:0xffffffa6 x13=0x00000000
       18145000	      1813	800069a0	541def93	ori	x31,x27,1345	 x27:0x80009f24 x31=0x80009f65
       18155000	      1814	800069a4	03e79a63	bne	x15,x30,800069d8	 x15:0x0000070f x30:0x00000440
       18165000	      1815	00000000	00000013	addi	x0,x0,0	  x0:0x00000000
       18175000	      1816	800069d4	00000013	addi	x0,x0,0	  x0:0x00000000
       18185000	      1817	800069d8	0063f033	and	x0,x7,x6	  x7:0x00000000  x6:0xffffffa6
       18195000	      1818	800069dc	00000013	addi	x0,x0,0	  x0:0x00000000
       18205000	      1819	800069e0	ebf6aa13	slti	x20,x13,-321	 x13:0x00000000 x20=0x00000000
       18215000	      1820	800069e4	04fe8263	beq	x29,x15,80006a28	 x29:0x77531fa4 x15:0x0000070f
       18225000	      1821	800069e8	009d0eb3	add	x29,x26,x9	 x26:0x000004d4  x9:0x00000000 x29=0x000004d4
       18235000	      1822	800069ec	03a17c63	bgeu	x2,x26,80006a24	  x2:0x00339989 x26:0x000004d4
       18245000	      1823	00000000	00000013	addi	x0,x0,0	  x0:0x00000000
       18255000	      1824	80006a20	00000013	addi	x0,x0,0	  x0:0x00000000
       18265000	      1825	80006a24	0282c863	blt	x5,x8,80006a54	  x5:0xd5cb6000  x8:0x00000000
       18275000	      1826	00000000	00000013	addi	x0,x0,0	  x0:0x00000000
       18285000	      1827	80006a50	00000013	addi	x0,x0,0	  x0:0x00000000
       18295000	      1828	80006a54	01c90033	add	x0,x18,x28	 x18:0xfffffb04 x28:0x00000200
       18305000	      1829	80006a58	00139e93	slli	x29,x7,0x1	  x7:0x00000000 x29=0x00000000
       18315000	      1830	80006a5c	4021df93	srai	x31,x3,0x2	  x3:0xdd4c7e90 x31=0xf7531fa4
       18325000	      1831	80006a60	cc8f3c13	sltiu	x24,x30,-824	 x30:0x00000440 x24=0x00000001
       18335000	      1832	80006a64	404b5113	srai	x2,x22,0x4	 x22:0xcc411994  x2=0xfcc41199
       18345000	      1833	80006a68	011ee9b3	or	x19,x29,x17	 x29:0x00000000 x17:0x000006cc x19=0x000006cc
       18355000	      1834	80006a6c	016413b3	sll	x7,x8,x22	  x8:0x00000000 x22:0xcc411994  x7=0x00000000
       18365000	      1835	80006a70	00a9d113	srli	x2,x19,0xa	 x19:0x000006cc  x2=0x00000001
       18375000	      1836	80006a74	040bf063	bgeu	x23,x0,80006ab4	 x23:0x00000236  x0:0x00000000
       18385000	      1837	00000000	00000013	addi	x0,x0,0	  x0:0x00000000
       18395000	      1838	80006ab0	00000013	addi	x0,x0,0	  x0:0x00000000
       18405000	      1839	80006ab4	01ed7433	and	x8,x26,x30	 x26:0x000004d4 x30:0x00000440  x8=0x00000440
       18415000	      1840	80006ab8	11044f17	auipc	x30,0x11044	 x30=0x9104aab4
       18425000	      1841	80006abc	00bc7e33	and	x28,x24,x11	 x24:0x00000001 x11:0x00000000 x28=0x00000000
       18435000	      1842	80006ac0	012009b3	add	x19,x0,x18	  x0:0x00000000 x18:0xfffffb04 x19=0xfffffb04
       18445000	      1843	80006ac4	05751263	bne	x10,x23,80006b08	 x10:0x00000000 x23:0x00000236
       18455000	      1844	00000000	00000013	addi	x0,x0,0	  x0:0x00000000
       18465000	      1845	80006b04	00000013	addi	x0,x0,0	  x0:0x00000000
       18475000	      1846	80006b08	410ad713	srai	x14,x21,0x10	 x21:0x00000001 x14=0x00000000
       18485000	      1847	80006b0c	00000013	addi	x0,x0,0	  x0:0x00000000
       18495000	      1848	80006b10	004da903	lw	x18,4(x27)	 x27:0x80009f24 x18=0x80004ea8 PA:0x80009f28
       18505000	      1849	80006b14	40a20333	sub	x6,x4,x10	  x4:0x9ce002eb x10:0x00000000  x6=0x9ce002eb
       18515000	      1850	80006b18	01b55d13	srli	x26,x10,0x1b	 x10:0x00000000 x26=0x00000000
       18525000	      1851	80006b1c	00000013	addi	x0,x0,0	  x0:0x00000000
       18535000	      1852	80006b20	01386d33	or	x26,x16,x19	 x16:0x80009fc4 x19:0xfffffb04 x26=0xffffffc4
       18545000	      1853	80006b24	e8476413	ori	x8,x14,-380	 x14:0x00000000  x8=0xfffffe84
       18555000	      1854	80006b28	010d8d93	addi	x27,x27,16	 x27:0x80009f24 x27=0x80009f34
       18565000	      1855	80006b2c	01fda4b3	slt	x9,x27,x31	 x27:0x80009f34 x31:0xf7531fa4  x9=0x00000001
       18575000	      1856	80006b30	00190c93	addi	x25,x18,1	 x18:0x80004ea8 x25=0x80004ea9
       18585000	      1857	80006b34	000c8ce7	jalr	x25,x25,0	 x25:0x80004ea9 x25=0x80006b34
       18595000	      1858	00000000	00000013	addi	x0,x0,0	  x0:0x00000000
       18605000	      1859	80004ea8	00000013	addi	x0,x0,0	  x0:0x00000000
       18615000	      1860	80004eac	00000197	auipc	x3,0x0	  x3=0x80004ea8
       18625000	      1861	80004eb0	41418193	addi	x3,x3,1044	  x3:0x80004ea8  x3=0x800052bc
       18635000	      1862	80004eb4	40df5cb3	sra	x25,x30,x13	 x30:0x9104aab4 x13:0x00000000 x25=0x9104aab4
       18645000	      1863	80004eb8	e1918193	addi	x3,x3,-487	  x3:0x800052bc  x3=0x800050d5
       18655000	      1864	80004ebc	018a1e93	slli	x29,x20,0x18	 x20:0x00000000 x29=0x00000000
       18665000	      1865	80004ec0	018e8863	beq	x29,x24,80004ed0	 x29:0x00000000 x24:0x00000001
       18675000	      1866	80004ec4	013f4b33	xor	x22,x30,x19	 x30:0x9104aab4 x19:0xfffffb04 x22=0x6efb51b0
       18685000	      1867	80004ec8	01a9d5b3	srl	x11,x19,x26	 x19:0xfffffb04 x26:0xffffffc4 x11=0x0fffffb0
       18695000	      1868	80004ecc	40418e33	sub	x28,x3,x4	  x3:0x800050d5  x4:0x9ce002eb x28=0xe3204dea
       18705000	      1869	80004ed0	1e718967	jalr	x18,x3,487	  x3:0x800050d5 x18=0x80004ed0
       18715000	      1870	00000000	00000013	addi	x0,x0,0	  x0:0x00000000
       18725000	      1871	800052bc	00000013	addi	x0,x0,0	  x0:0x00000000
       18735000	      1872	800052c0	01d39263	bne	x7,x29,800052c4	  x7:0x00000000 x29:0x00000000
       18745000	      1873	800052c4	ff0d8d93	addi	x27,x27,-16	 x27:0x80009f34 x27=0x80009f24
       18755000	      1874	800052c8	9edffa93	andi	x21,x31,-1555	 x31:0xf7531fa4 x21=0xf75319a4
       18765000	      1875	800052cc	4d1994b7	lui	x9,0x4d199	  x9=0x4d199000
       18775000	      1876	800052d0	012da223	sw	x18,4(x27)	 x27:0x80009f24 x18:0x80004ed0 PA:0x80009f28
       18785000	      1877	800052d4	00000013	addi	x0,x0,0	  x0:0x00000000
       18795000	      1878	800052d8	00004117	auipc	x2,0x4	  x2=0x800092d4
       18805000	      1879	800052dc	8e010113	addi	x2,x2,-1824	  x2:0x800092d4  x2=0x80008bb4
       18815000	      1880	800052e0	36602f17	auipc	x30,0x36602	 x30=0xb66072dc
       18825000	      1881	800052e4	f0514983	lbu	x19,-251(x2)	  x2:0x80008bb4 x19=0x0000006e PA:0x80008ab9
       18835000	      1882	800052e8	f2210f23	sb	x2,-194(x2)	  x2:0x80008bb4  x2:0x80008bb4 PA:0x80008af2
       18845000	      1883	800052ec	016c95b3	sll	x11,x25,x22	 x25:0x9104aab4 x22:0x6efb51b0 x11=0xaab40000
       18855000	      1884	800052f0	01c134b3	sltu	x9,x2,x28	  x2:0x80008bb4 x28:0xe3204dea  x9=0x00000001
       18865000	      1885	800052f4	01af7b33	and	x22,x30,x26	 x30:0xb66072dc x26:0xffffffc4 x22=0xb66072c4
       18875000	      1886	800052f8	0037ccb3	xor	x25,x15,x3	 x15:0x0000070f  x3:0x800050d5 x25=0x800057da
       18885000	      1887	800052fc	0e0107a3	sb	x0,239(x2)	  x2:0x80008bb4  x0:0x00000000 PA:0x80008ca3
       18895000	      1888	80005300	00000013	addi	x0,x0,0	  x0:0x00000000
       18905000	      1889	80005304	f5114503	lbu	x10,-175(x2)	  x2:0x80008bb4 x10=0x0000003c PA:0x80008b05
       18915000	      1890	80005308	f43107a3	sb	x3,-177(x2)	  x2:0x80008bb4  x3:0x800050d5 PA:0x80008b03
       18925000	      1891	8000530c	fd110a83	lb	x21,-47(x2)	  x2:0x80008bb4 x21=0xffffff90 PA:0x80008b85
       18935000	      1892	80005310	00000013	addi	x0,x0,0	  x0:0x00000000
       18945000	      1893	80005314	017c0d33	add	x26,x24,x23	 x24:0x00000001 x23:0x00000236 x26=0x00000237
       18955000	      1894	80005318	6f610e17	auipc	x28,0x6f610	 x28=0xef615314
       18965000	      1895	8000531c	40ac5fb3	sra	x31,x24,x10	 x24:0x00000001 x10:0x0000003c x31=0x00000000
       18975000	      1896	80005320	acde2a97	auipc	x21,0xacde2	 x21=0x2cde731c
       18985000	      1897	80005324	69997c13	andi	x24,x18,1689	 x18:0x80004ed0 x24=0x00000690
       18995000	      1898	80005328	f2c12023	sw	x12,-224(x2)	  x2:0x80008bb4 x12:0x00000000 PA:0x80008ad4
       19005000	      1899	8000532c	fa914883	lbu	x17,-87(x2)	  x2:0x80008bb4 x17=0x000000b4 PA:0x80008b5d
       19015000	      1900	80005330	01f2ac33	slt	x24,x5,x31	  x5:0xd5cb6000 x31:0x00000000 x24=0x00000001
       19025000	      1901	80005334	012abe33	sltu	x28,x21,x18	 x21:0x2cde731c x18:0x80004ed0 x28=0x00000001
       19035000	      1902	80005338	05b14b83	lbu	x23,91(x2)	  x2:0x80008bb4 x23=0x000000b1 PA:0x80008c0f
       19045000	      1903	8000533c	f4914f83	lbu	x31,-183(x2)	  x2:0x80008bb4 x31=0x000000d2 PA:0x80008afd
       19055000	      1904	80005340	f8614183	lbu	x3,-122(x2)	  x2:0x80008bb4  x3=0x0000001c PA:0x80008b3a
       19065000	      1905	80005344	fe410123	sb	x4,-30(x2)	  x2:0x80008bb4  x4:0x9ce002eb PA:0x80008b96
       19075000	      1906	80005348	005f5013	srli	x0,x30,0x5	 x30:0xb66072dc
       19085000	      1907	8000534c	012d4a33	xor	x20,x26,x18	 x26:0x00000237 x18:0x80004ed0 x20=0x80004ce7
       19095000	      1908	80005350	0fb10ca3	sb	x27,249(x2)	  x2:0x80008bb4 x27:0x80009f24 PA:0x80008cad
       19105000	      1909	80005354	013ca1b3	slt	x3,x25,x19	 x25:0x800057da x19:0x0000006e  x3=0x00000001
       19115000	      1910	80005358	00915f33	srl	x30,x2,x9	  x2:0x80008bb4  x9:0x00000001 x30=0x400045da
       19125000	      1911	8000535c	00f10723	sb	x15,14(x2)	  x2:0x80008bb4 x15:0x0000070f PA:0x80008bc2
       19135000	      1912	80005360	0165eeb3	or	x29,x11,x22	 x11:0xaab40000 x22:0xb66072c4 x29=0xbef472c4
       19145000	      1913	80005364	01614433	xor	x8,x2,x22	  x2:0x80008bb4 x22:0xb66072c4  x8=0x3660f970
       19155000	      1914	80005368	2a732c13	slti	x24,x6,679	  x6:0x9ce002eb x24=0x00000001
       19165000	      1915	8000536c	0b310123	sb	x19,162(x2)	  x2:0x80008bb4 x19:0x0000006e PA:0x80008c56
       19175000	      1916	80005370	f4a10b83	lb	x23,-182(x2)	  x2:0x80008bb4 x23=0xffffffec PA:0x80008afe
       19185000	      1917	80005374	fc110323	sb	x1,-58(x2)	  x2:0x80008bb4  x1:0x00000000 PA:0x80008b7a
       19195000	      1918	80005378	f25fa493	slti	x9,x31,-219	 x31:0x000000d2  x9=0x00000000
       19205000	      1919	8000537c	108cd437	lui	x8,0x108cd	  x8=0x108cd000
       19215000	      1920	80005380	fc114403	lbu	x8,-63(x2)	  x2:0x80008bb4  x8=0x000000e4 PA:0x80008b75
       19225000	      1921	80005384	fee10303	lb	x6,-18(x2)	  x2:0x80008bb4  x6=0xffffff9d PA:0x80008ba2
       19235000	      1922	80005388	00004317	auipc	x6,0x4	  x6=0x80009384
       19245000	      1923	8000538c	87930313	addi	x6,x6,-1927	  x6:0x80009384  x6=0x80008bfd
       19255000	      1924	80005390	fc135f03	lhu	x30,-63(x6)	  x6:0x80008bfd x30=0x0000d91e PA:0x80008bbe
       19265000	      1925	80005394	c983c393	xori	x7,x7,-872	  x7:0x00000000  x7=0xfffffc98
       19275000	      1926	80005398	49bcfd13	andi	x26,x25,1179	 x25:0x800057da x26=0x0000049a
       19285000	      1927	8000539c	003314a3	sh	x3,9(x6)	  x6:0x80008bfd  x3:0x00000001 PA:0x80008c06
       19295000	      1928	800053a0	05030023	sb	x16,64(x6)	  x6:0x80008bfd x16:0x80009fc4 PA:0x80008c3d
       19305000	      1929	800053a4	871ea713	slti	x14,x29,-1935	 x29:0xbef472c4 x14=0x00000001
       19315000	      1930	800053a8	01d73633	sltu	x12,x14,x29	 x14:0x00000001 x29:0xbef472c4 x12=0x00000001
       19325000	      1931	800053ac	00a791b3	sll	x3,x15,x10	 x15:0x0000070f x10:0x0000003c  x3=0xf0000000
       19335000	      1932	800053b0	fe934883	lbu	x17,-23(x6)	  x6:0x80008bfd x17=0x00000057 PA:0x80008be6
       19345000	      1933	800053b4	03730a83	lb	x21,55(x6)	  x6:0x80008bfd x21=0x00000074 PA:0x80008c34
       19355000	      1934	800053b8	cc904d13	xori	x26,x0,-823	  x0:0x00000000 x26=0xfffffcc9
       19365000	      1935	800053bc	2ee8b893	sltiu	x17,x17,750	 x17:0x00000057 x17=0x00000001
       19375000	      1936	800053c0	01630983	lb	x19,22(x6)	  x6:0x80008bfd x19=0x00000000 PA:0x80008c13
       19385000	      1937	00000000	00000013	addi	x0,x0,0	  x0:0x00000000
       19395000	      1938	800053c4	013321a3	sw	x19,3(x6)	  x6:0x80008bfd x19:0x00000000 PA:0x80008c00
       19405000	      1939	800053c8	01034603	lbu	x12,16(x6)	  x6:0x80008bfd x12=0x000000ef PA:0x80008c0d
       19415000	      1940	800053cc	0000d593	srli	x11,x1,0x0	  x1:0x00000000 x11=0x00000000
       19425000	      1941	800053d0	13e66213	ori	x4,x12,318	 x12:0x000000ef  x4=0x000001ff
       19435000	      1942	800053d4	0127f9b3	and	x19,x15,x18	 x15:0x0000070f x18:0x80004ed0 x19=0x00000600
       19445000	      1943	800053d8	41e005b3	sub	x11,x0,x30	  x0:0x00000000 x30:0x0000d91e x11=0xffff26e2
       19455000	      1944	800053dc	034301a3	sb	x20,35(x6)	  x6:0x80008bfd x20:0x80004ce7 PA:0x80008c20
       19465000	      1945	800053e0	fce30203	lb	x4,-50(x6)	  x6:0x80008bfd  x4=0x0000002f PA:0x80008bcb
       19475000	      1946	800053e4	41a4de13	srai	x28,x9,0x1a	  x9:0x00000000 x28=0x00000000
       19485000	      1947	800053e8	fc135003	lhu	x0,-63(x6)	  x6:0x80008bfd PA:0x80008bbe
       19495000	      1948	800053ec	fd434783	lbu	x15,-44(x6)	  x6:0x80008bfd x15=0x000000f3 PA:0x80008bd1
       19505000	      1949	800053f0	00530203	lb	x4,5(x6)	  x6:0x80008bfd  x4=0x00000000 PA:0x80008c02
       19515000	      1950	800053f4	41d85533	sra	x10,x16,x29	 x16:0x80009fc4 x29:0xbef472c4 x10=0xf80009fc
       19525000	      1951	800053f8	f0460593	addi	x11,x12,-252	 x12:0x000000ef x11=0xfffffff3
       19535000	      1952	800053fc	01597ab3	and	x21,x18,x21	 x18:0x80004ed0 x21:0x00000074 x21=0x00000050
       19545000	      1953	80005400	02d30b03	lb	x22,45(x6)	  x6:0x80008bfd x22=0x00000046 PA:0x80008c2a
       19555000	      1954	80005404	eebece93	xori	x29,x29,-277	 x29:0xbef472c4 x29=0x410b8c2f
       19565000	      1955	80005408	6cf63f13	sltiu	x30,x12,1743	 x12:0x000000ef x30=0x00000001
       19575000	      1956	8000540c	f5f92013	slti	x0,x18,-161	 x18:0x80004ed0
       19585000	      1957	80005410	80a8fcb7	lui	x25,0x80a8f	 x25=0x80a8f000
       19595000	      1958	80005414	38065f97	auipc	x31,0x38065	 x31=0xb806a410
       19605000	      1959	80005418	013c5b33	srl	x22,x24,x19	 x24:0x00000001 x19:0x00000600 x22=0x00000001
       19615000	      1960	8000541c	fdb31ba3	sh	x27,-41(x6)	  x6:0x80008bfd x27:0x80009f24 PA:0x80008bd4
       19625000	      1961	80005420	3a7ec2b7	lui	x5,0x3a7ec	  x5=0x3a7ec000
       19635000	      1962	80005424	01830b83	lb	x23,24(x6)	  x6:0x80008bfd x23=0x00000002 PA:0x80008c15
       19645000	      1963	00000000	00000013	addi	x0,x0,0	  x0:0x00000000
       19655000	      1964	80005428	017c53b3	srl	x7,x24,x23	 x24:0x00000001 x23:0x00000002  x7=0x00000000
       19665000	      1965	8000542c	ff434f03	lbu	x30,-12(x6)	  x6:0x80008bfd x30=0x00000034 PA:0x80008bf1
       19675000	      1966	80005430	00003a17	auipc	x20,0x3	 x20=0x8000842c
       19685000	      1967	80005434	e66a0a13	addi	x20,x20,-410	 x20:0x8000842c x20=0x80008292
       19695000	      1968	80005438	00319d13	slli	x26,x3,0x3	  x3:0xf0000000 x26=0x80000000
       19705000	      1969	8000543c	ffda4183	lbu	x3,-3(x20)	 x20:0x80008292  x3=0x000000ac PA:0x8000828f
       19715000	      1970	00000000	00000013	addi	x0,x0,0	  x0:0x00000000
       19725000	      1971	80005440	2031af93	slti	x31,x3,515	  x3:0x000000ac x31=0x00000001
       19735000	      1972	80005444	00aa0123	sb	x10,2(x20)	 x20:0x80008292 x10:0xf80009fc PA:0x80008294
       19745000	      1973	80005448	d0610013	addi	x0,x2,-762	  x2:0x80008bb4
       19755000	      1974	8000544c	01fc5733	srl	x14,x24,x31	 x24:0x00000001 x31:0x00000001 x14=0x00000000
       19765000	      1975	80005450	40988ab3	sub	x21,x17,x9	 x17:0x00000001  x9:0x00000000 x21=0x00000001
       19775000	      1976	80005454	009a4603	lbu	x12,9(x20)	 x20:0x80008292 x12=0x00000080 PA:0x8000829b
       19785000	      1977	80005458	214ebd17	auipc	x26,0x214eb	 x26=0xa14f0454
       19795000	      1978	8000545c	01a8f3b3	and	x7,x17,x26	 x17:0x00000001 x26:0xa14f0454  x7=0x00000000
       19805000	      1979	80005460	9930b293	sltiu	x5,x1,-1645	  x1:0x00000000  x5=0x00000001
       19815000	      1980	80005464	004a2523	sw	x4,10(x20)	 x20:0x80008292  x4:0x00000000 PA:0x8000829c
       19825000	      1981	80005468	005a4d03	lbu	x26,5(x20)	 x20:0x80008292 x26=0x00000000 PA:0x80008297
       19835000	      1982	00000000	00000013	addi	x0,x0,0	  x0:0x00000000
       19845000	      1983	8000546c	017d6533	or	x10,x26,x23	 x26:0x00000000 x23:0x00000002 x10=0x00000002
       19855000	      1984	80005470	017a0823	sb	x23,16(x20)	 x20:0x80008292 x23:0x00000002 PA:0x800082a2
       19865000	      1985	80005474	002a9e93	slli	x29,x21,0x2	 x21:0x00000001 x29=0x00000004
       19875000	      1986	80005478	ff6a5f83	lhu	x31,-10(x20)	 x20:0x80008292 x31=0x0000d1c3 PA:0x80008288
       19885000	      1987	8000547c	ff3a0303	lb	x6,-13(x20)	 x20:0x80008292  x6=0xfffffff3 PA:0x80008285
       19895000	      1988	80005480	00aa1c03	lh	x24,10(x20)	 x20:0x80008292 x24=0x00000000 PA:0x8000829c
       19905000	      1989	80005484	fffa0ca3	sb	x31,-7(x20)	 x20:0x80008292 x31:0x0000d1c3 PA:0x8000828b
       19915000	      1990	80005488	018a1223	sh	x24,4(x20)	 x20:0x80008292 x24:0x00000000 PA:0x80008296
       19925000	      1991	8000548c	ff6a4e03	lbu	x28,-10(x20)	 x20:0x80008292 x28=0x000000c3 PA:0x80008288
       19935000	      1992	80005490	012a2323	sw	x18,6(x20)	 x20:0x80008292 x18:0x80004ed0 PA:0x80008298
       19945000	      1993	80005494	005a4183	lbu	x3,5(x20)	 x20:0x80008292  x3=0x00000000 PA:0x80008297
       19955000	      1994	80005498	00de0c33	add	x24,x28,x13	 x28:0x000000c3 x13:0x00000000 x24=0x000000c3
       19965000	      1995	8000549c	412b5893	srai	x17,x22,0x12	 x22:0x00000001 x17=0x00000000
       19975000	      1996	800054a0	ffca5c83	lhu	x25,-4(x20)	 x20:0x80008292 x25=0x0000ace5 PA:0x8000828e
       19985000	      1997	00000000	00000013	addi	x0,x0,0	  x0:0x00000000
       19995000	      1998	800054a4	ff9a0ca3	sb	x25,-7(x20)	 x20:0x80008292 x25:0x0000ace5 PA:0x8000828b
       20005000	      1999	800054a8	feca1f23	sh	x12,-2(x20)	 x20:0x80008292 x12:0x00000080 PA:0x80008290
       20015000	      2000	800054ac	ffba0fa3	sb	x27,-1(x20)	 x20:0x80008292 x27:0x80009f24 PA:0x80008291
       20025000	      2001	800054b0	00003697	auipc	x13,0x3	 x13=0x800084ac
       20035000	      2002	800054b4	c5268693	addi	x13,x13,-942	 x13:0x800084ac x13=0x800080fe
       20045000	      2003	800054b8	0f06c403	lbu	x8,240(x13)	 x13:0x800080fe  x8=0x00000039 PA:0x800081ee
       20055000	      2004	800054bc	034686a3	sb	x20,45(x13)	 x13:0x800080fe x20:0x80008292 PA:0x8000812b
       20065000	      2005	800054c0	48d60493	addi	x9,x12,1165	 x12:0x00000080  x9=0x0000050d
       20075000	      2006	800054c4	012682b3	add	x5,x13,x18	 x13:0x800080fe x18:0x80004ed0  x5=0x0000cfce
       20085000	      2007	800054c8	01e75393	srli	x7,x14,0x1e	 x14:0x00000000  x7=0x00000000
       20095000	      2008	800054cc	40a4d5b3	sra	x11,x9,x10	  x9:0x0000050d x10:0x00000002 x11=0x00000143
       20105000	      2009	800054d0	857de793	ori	x15,x27,-1961	 x27:0x80009f24 x15=0xffffff77
       20115000	      2010	800054d4	00000013	addi	x0,x0,0	  x0:0x00000000
       20125000	      2011	800054d8	0144f033	and	x0,x9,x20	  x9:0x0000050d x20:0x80008292
       20135000	      2012	800054dc	400988b3	sub	x17,x19,x0	 x19:0x00000600  x0:0x00000000 x17=0x00000600
       20145000	      2013	800054e0	00000013	addi	x0,x0,0	  x0:0x00000000
       20155000	      2014	800054e4	01f19a13	slli	x20,x3,0x1f	  x3:0x00000000 x20=0x00000000
       20165000	      2015	800054e8	2dac2913	slti	x18,x24,730	 x24:0x000000c3 x18=0x00000001
       20175000	      2016	800054ec	0e968e03	lb	x28,233(x13)	 x13:0x800080fe x28=0x00000002 PA:0x800081e7
       20185000	      2017	800054f0	000ea033	slt	x0,x29,x0	 x29:0x00000004  x0:0x00000000
       20195000	      2018	800054f4	00a56a33	or	x20,x10,x10	 x10:0x00000002 x10:0x00000002 x20=0x00000002
       20205000	      2019	800054f8	40dcd2b3	sra	x5,x25,x13	 x25:0x0000ace5 x13:0x800080fe  x5=0x00000000
       20215000	      2020	800054fc	844d3137	lui	x2,0x844d3	  x2=0x844d3000
       20225000	      2021	80005500	ff8687a3	sb	x24,-17(x13)	 x13:0x800080fe x24:0x000000c3 PA:0x800080ed
       20235000	      2022	80005504	0ef68323	sb	x15,230(x13)	 x13:0x800080fe x15:0xffffff77 PA:0x800081e4
       20245000	      2023	80005508	f9b6cf83	lbu	x31,-101(x13)	 x13:0x800080fe x31=0x000000bf PA:0x80008099
       20255000	      2024	8000550c	a8fb2e93	slti	x29,x22,-1393	 x22:0x00000001 x29=0x00000000
       20265000	      2025	80005510	05c6c903	lbu	x18,92(x13)	 x13:0x800080fe x18=0x00000060 PA:0x8000815a
       20275000	      2026	80005514	006add33	srl	x26,x21,x6	 x21:0x00000001  x6:0xfffffff3 x26=0x00000000
       20285000	      2027	80005518	2082c013	xori	x0,x5,520	  x5:0x00000000
       20295000	      2028	8000551c	8bd07c17	auipc	x24,0x8bd07	 x24=0x0bd0c518
       20305000	      2029	80005520	0526c783	lbu	x15,82(x13)	 x13:0x800080fe x15=0x0000000c PA:0x80008150
       20315000	      2030	80005524	fb6688a3	sb	x22,-79(x13)	 x13:0x800080fe x22:0x00000001 PA:0x800080af
       20325000	      2031	80005528	f4f6af23	sw	x15,-162(x13)	 x13:0x800080fe x15:0x0000000c PA:0x8000805c
       20335000	      2032	8000552c	f64e0913	addi	x18,x28,-156	 x28:0x00000002 x18=0xffffff66
       20345000	      2033	80005530	01e16fb3	or	x31,x2,x30	  x2:0x844d3000 x30:0x00000034 x31=0x844d3034
       20355000	      2034	80005534	14bea393	slti	x7,x29,331	 x29:0x00000000  x7=0x00000001
       20365000	      2035	80005538	014b5733	srl	x14,x22,x20	 x22:0x00000001 x20:0x00000002 x14=0x00000000
       20375000	      2036	8000553c	0fe6db03	lhu	x22,254(x13)	 x13:0x800080fe x22=0x0000c12f PA:0x800081fc
       20385000	      2037	80005540	0656c003	lbu	x0,101(x13)	 x13:0x800080fe PA:0x80008163
       20395000	      2038	80005544	1d88b213	sltiu	x4,x17,472	 x17:0x00000600  x4=0x00000000
       20405000	      2039	80005548	11b40413	addi	x8,x8,283	  x8:0x00000039  x8=0x00000154
       20415000	      2040	8000554c	01ac8c33	add	x24,x25,x26	 x25:0x0000ace5 x26:0x00000000 x24=0x0000ace5
       20425000	      2041	80005550	41525cb3	sra	x25,x4,x21	  x4:0x00000000 x21:0x00000001 x25=0x00000000
       20435000	      2042	80005554	013ad8b3	srl	x17,x21,x19	 x21:0x00000001 x19:0x00000600 x17=0x00000001
       20445000	      2043	80005558	07e6c503	lbu	x10,126(x13)	 x13:0x800080fe x10=0x00000013 PA:0x8000817c
       20455000	      2044	8000555c	01e2b9b3	sltu	x19,x5,x30	  x5:0x00000000 x30:0x00000034 x19=0x00000001
       20465000	      2045	80005560	f4a6ce03	lbu	x28,-182(x13)	 x13:0x800080fe x28=0x000000e0 PA:0x80008048
       20475000	      2046	80005564	00004797	auipc	x15,0x4	 x15=0x80009560
       20485000	      2047	80005568	a2278793	addi	x15,x15,-1502	 x15:0x80009560 x15=0x80008f82
       20495000	      2048	8000556c	f8479723	sh	x4,-114(x15)	 x15:0x80008f82  x4:0x00000000 PA:0x80008f10
       20505000	      2049	80005570	00881513	slli	x10,x16,0x8	 x16:0x80009fc4 x10=0x009fc400
       20515000	      2050	80005574	00ea1933	sll	x18,x20,x14	 x20:0x00000002 x14:0x00000000 x18=0x00000002
       20525000	      2051	80005578	001f9f33	sll	x30,x31,x1	 x31:0x844d3034  x1:0x00000000 x30=0x844d3034
       20535000	      2052	8000557c	f7978a83	lb	x21,-135(x15)	 x15:0x80008f82 x21=0xffffff8f PA:0x80008efb
       20545000	      2053	80005580	fe97c303	lbu	x6,-23(x15)	 x15:0x80008f82  x6=0x00000057 PA:0x80008f6b
       20555000	      2054	80005584	f6379223	sh	x3,-156(x15)	 x15:0x80008f82  x3:0x00000000 PA:0x80008ee6
       20565000	      2055	80005588	f6278f83	lb	x31,-158(x15)	 x15:0x80008f82 x31=0x0000006b PA:0x80008ee4
       20575000	      2056	8000558c	f27784a3	sb	x7,-215(x15)	 x15:0x80008f82  x7:0x00000001 PA:0x80008eab
       20585000	      2057	80005590	01731c13	slli	x24,x6,0x17	  x6:0x00000057 x24=0x2b800000
       20595000	      2058	80005594	f0378f83	lb	x31,-253(x15)	 x15:0x80008f82 x31=0x0000005a PA:0x80008e85
       20605000	      2059	80005598	00079283	lh	x5,0(x15)	 x15:0x80008f82  x5=0x0000175a PA:0x80008f82
       20615000	      2060	8000559c	0115a1b3	slt	x3,x11,x17	 x11:0x00000143 x17:0x00000001  x3=0x00000000
       20625000	      2061	800055a0	f4e781a3	sb	x14,-189(x15)	 x15:0x80008f82 x14:0x00000000 PA:0x80008ec5
       20635000	      2062	800055a4	00925533	srl	x10,x4,x9	  x4:0x00000000  x9:0x0000050d x10=0x00000000
       20645000	      2063	800055a8	01a05233	srl	x4,x0,x26	  x0:0x00000000 x26:0x00000000  x4=0x00000000
       20655000	      2064	800055ac	f6678883	lb	x17,-154(x15)	 x15:0x80008f82 x17=0xffffffc9 PA:0x80008ee8
       20665000	      2065	800055b0	f297cd03	lbu	x26,-215(x15)	 x15:0x80008f82 x26=0x00000001 PA:0x80008eab
       20675000	      2066	800055b4	f5878b03	lb	x22,-168(x15)	 x15:0x80008f82 x22=0x00000040 PA:0x80008eda
       20685000	      2067	800055b8	f747d603	lhu	x12,-140(x15)	 x15:0x80008f82 x12=0x000090b0 PA:0x80008ef6
       20695000	      2068	800055bc	6c9ca637	lui	x12,0x6c9ca	 x12=0x6c9ca000
       20705000	      2069	800055c0	00ada2b3	slt	x5,x27,x10	 x27:0x80009f24 x10:0x00000000  x5=0x00000001
       20715000	      2070	800055c4	f8e780a3	sb	x14,-127(x15)	 x15:0x80008f82 x14:0x00000000 PA:0x80008f03
       20725000	      2071	800055c8	017fed33	or	x26,x31,x23	 x31:0x0000005a x23:0x00000002 x26=0x0000005a
       20735000	      2072	800055cc	f0e7d203	lhu	x4,-242(x15)	 x15:0x80008f82  x4=0x0000aa33 PA:0x80008e90
       20745000	      2073	800055d0	01c90733	add	x14,x18,x28	 x18:0x00000002 x28:0x000000e0 x14=0x000000e2
       20755000	      2074	800055d4	03f78523	sb	x31,42(x15)	 x15:0x80008f82 x31:0x0000005a PA:0x80008fac
       20765000	      2075	800055d8	00000013	addi	x0,x0,0	  x0:0x00000000
       20775000	      2076	800055dc	49264b93	xori	x23,x12,1170	 x12:0x6c9ca000 x23=0x6c9ca492
       20785000	      2077	800055e0	f4d7c283	lbu	x5,-179(x15)	 x15:0x80008f82  x5=0x00000067 PA:0x80008ecf
       20795000	      2078	800055e4	018cf9b3	and	x19,x25,x24	 x25:0x00000000 x24:0x2b800000 x19=0x00000000
       20805000	      2079	800055e8	03279823	sh	x18,48(x15)	 x15:0x80008f82 x18:0x00000002 PA:0x80008fb2
       20815000	      2080	800055ec	fd878a03	lb	x20,-40(x15)	 x15:0x80008f82 x20=0xffffff90 PA:0x80008f5a
       20825000	      2081	800055f0	b860ca37	lui	x20,0xb860c	 x20=0xb860c000
       20835000	      2082	800055f4	f0c7a523	sw	x12,-246(x15)	 x15:0x80008f82 x12:0x6c9ca000 PA:0x80008e8c
       20845000	      2083	800055f8	fd013113	sltiu	x2,x2,-48	  x2:0x844d3000  x2=0x00000001
       20855000	      2084	800055fc	fb87c583	lbu	x11,-72(x15)	 x15:0x80008f82 x11=0x00000043 PA:0x80008f3a
       20865000	      2085	80005600	03d79e23	sh	x29,60(x15)	 x15:0x80008f82 x29:0x00000000 PA:0x80008fbe
       20875000	      2086	80005604	fa97c883	lbu	x17,-87(x15)	 x15:0x80008f82 x17=0x000000ec PA:0x80008f2b
       20885000	      2087	80005608	f0679183	lh	x3,-250(x15)	 x15:0x80008f82  x3=0x00001331 PA:0x80008e88
       20895000	      2088	8000560c	4066d133	sra	x2,x13,x6	 x13:0x800080fe  x6:0x00000057  x2=0xffffff00
       20905000	      2089	80005610	00278b23	sb	x2,22(x15)	 x15:0x80008f82  x2:0xffffff00 PA:0x80008f98
       20915000	      2090	80005614	00000013	addi	x0,x0,0	  x0:0x00000000
       20925000	      2091	80005618	f4678ea3	sb	x6,-163(x15)	 x15:0x80008f82  x6:0x00000057 PA:0x80008edf
       20935000	      2092	8000561c	f2778d23	sb	x7,-198(x15)	 x15:0x80008f82  x7:0x00000001 PA:0x80008ebc
       20945000	      2093	80005620	00771cb3	sll	x25,x14,x7	 x14:0x000000e2  x7:0x00000001 x25=0x000001c4
       20955000	      2094	80005624	00678aa3	sb	x6,21(x15)	 x15:0x80008f82  x6:0x00000057 PA:0x80008f97
       20965000	      2095	80005628	f3478ba3	sb	x20,-201(x15)	 x15:0x80008f82 x20:0xb860c000 PA:0x80008eb9
       20975000	      2096	8000562c	f817c403	lbu	x8,-127(x15)	 x15:0x80008f82  x8=0x00000000 PA:0x80008f03
       20985000	      2097	80005630	00003117	auipc	x2,0x3	  x2=0x8000862c
       20995000	      2098	80005634	5f410113	addi	x2,x2,1524	  x2:0x8000862c  x2=0x80008c20
       21005000	      2099	80005638	fe215b03	lhu	x22,-30(x2)	  x2:0x80008c20 x22=0x00000000 PA:0x80008c02
       21015000	      2100	8000563c	fdb10da3	sb	x27,-37(x2)	  x2:0x80008c20 x27:0x80009f24 PA:0x80008bfb
       21025000	      2101	80005640	c281af13	slti	x30,x3,-984	  x3:0x00001331 x30=0x00000000
       21035000	      2102	80005644	6157a493	slti	x9,x15,1557	 x15:0x80008f82  x9=0x00000001
       21045000	      2103	80005648	ea4bcf93	xori	x31,x23,-348	 x23:0x6c9ca492 x31=0x93635a36
       21055000	      2104	8000564c	01f108a3	sb	x31,17(x2)	  x2:0x80008c20 x31:0x93635a36 PA:0x80008c31
       21065000	      2105	80005650	02b10523	sb	x11,42(x2)	  x2:0x80008c20 x11:0x00000043 PA:0x80008c4a
       21075000	      2106	80005654	00000013	addi	x0,x0,0	  x0:0x00000000
       21085000	      2107	80005658	01175693	srli	x13,x14,0x11	 x14:0x000000e2 x13=0x00000000
       21095000	      2108	8000565c	01002ab3	slt	x21,x0,x16	  x0:0x00000000 x16:0x80009fc4 x21=0x00000000
       21105000	      2109	80005660	03010aa3	sb	x16,53(x2)	  x2:0x80008c20 x16:0x80009fc4 PA:0x80008c55
       21115000	      2110	80005664	001a63b3	or	x7,x20,x1	 x20:0xb860c000  x1:0x00000000  x7=0xb860c000
       21125000	      2111	80005668	00a8d693	srli	x13,x17,0xa	 x17:0x000000ec x13=0x00000000
       21135000	      2112	8000566c	0117e033	or	x0,x15,x17	 x15:0x80008f82 x17:0x000000ec
       21145000	      2113	80005670	8b330f17	auipc	x30,0x8b330	 x30=0x0b33566c
       21155000	      2114	80005674	fea11683	lh	x13,-22(x2)	  x2:0x80008c20 x13=0xffffdf01 PA:0x80008c0a
       21165000	      2115	80005678	fe311823	sh	x3,-16(x2)	  x2:0x80008c20  x3:0x00001331 PA:0x80008c10
       21175000	      2116	8000567c	ff6109a3	sb	x22,-13(x2)	  x2:0x80008c20 x22:0x00000000 PA:0x80008c13
       21185000	      2117	80005680	fc710f83	lb	x31,-57(x2)	  x2:0x80008c20 x31=0xffffffc4 PA:0x80008be7
       21195000	      2118	00000000	00000013	addi	x0,x0,0	  x0:0x00000000
       21205000	      2119	80005684	01f32eb3	slt	x29,x6,x31	  x6:0x00000057 x31:0xffffffc4 x29=0x00000000
       21215000	      2120	80005688	fee10e23	sb	x14,-4(x2)	  x2:0x80008c20 x14:0x000000e2 PA:0x80008c1c
       21225000	      2121	8000568c	51c23217	auipc	x4,0x51c23	  x4=0xd1c28688
       21235000	      2122	80005690	1843e237	lui	x4,0x1843e	  x4=0x1843e000
       21245000	      2123	80005694	03114683	lbu	x13,49(x2)	  x2:0x80008c20 x13=0x0000005e PA:0x80008c51
       21255000	      2124	80005698	01da4fb3	xor	x31,x20,x29	 x20:0xb860c000 x29:0x00000000 x31=0xb860c000
       21265000	      2125	8000569c	ef7815b7	lui	x11,0xef781	 x11=0xef781000
       21275000	      2126	800056a0	fc810d23	sb	x8,-38(x2)	  x2:0x80008c20  x8:0x00000000 PA:0x80008bfa
       21285000	      2127	800056a4	0154c933	xor	x18,x9,x21	  x9:0x00000001 x21:0x00000000 x18=0x00000001
       21295000	      2128	800056a8	fc2101a3	sb	x2,-61(x2)	  x2:0x80008c20  x2:0x80008c20 PA:0x80008be3
       21305000	      2129	800056ac	01cfd7b3	srl	x15,x31,x28	 x31:0xb860c000 x28:0x000000e0 x15=0xb860c000
       21315000	      2130	800056b0	41da5bb3	sra	x23,x20,x29	 x20:0xb860c000 x29:0x00000000 x23=0xb860c000
       21325000	      2131	800056b4	cbe5f893	andi	x17,x11,-834	 x11:0xef781000 x17=0xef781000
       21335000	      2132	800056b8	6fbf2513	slti	x10,x30,1787	 x30:0x0b33566c x10=0x00000000
       21345000	      2133	800056bc	004bb433	sltu	x8,x23,x4	 x23:0xb860c000  x4:0x1843e000  x8=0x00000000
       21355000	      2134	800056c0	35d96917	auipc	x18,0x35d96	 x18=0xb5d9b6bc
       21365000	      2135	800056c4	01da0533	add	x10,x20,x29	 x20:0xb860c000 x29:0x00000000 x10=0xb860c000
       21375000	      2136	800056c8	c5cbfa93	andi	x21,x23,-932	 x23:0xb860c000 x21=0xb860c000
       21385000	      2137	800056cc	007d5333	srl	x6,x26,x7	 x26:0x0000005a  x7:0xb860c000  x6=0x0000005a
       21395000	      2138	800056d0	00bb5993	srli	x19,x22,0xb	 x22:0x00000000 x19=0x00000000
       21405000	      2139	800056d4	00510da3	sb	x5,27(x2)	  x2:0x80008c20  x5:0x00000067 PA:0x80008c3b
       21415000	      2140	800056d8	00e10ba3	sb	x14,23(x2)	  x2:0x80008c20 x14:0x000000e2 PA:0x80008c37
       21425000	      2141	800056dc	00003b17	auipc	x22,0x3	 x22=0x800086d8
       21435000	      2142	800056e0	e26b0b13	addi	x22,x22,-474	 x22:0x800086d8 x22=0x800084fe
       21445000	      2143	800056e4	00764733	xor	x14,x12,x7	 x12:0x6c9ca000  x7:0xb860c000 x14=0xd4fc6000
       21455000	      2144	800056e8	ff0b0683	lb	x13,-16(x22)	 x22:0x800084fe x13=0xffffff83 PA:0x800084ee
       21465000	      2145	800056ec	00fce3b3	or	x7,x25,x15	 x25:0x000001c4 x15:0xb860c000  x7=0xb860c1c4
       21475000	      2146	800056f0	ff8b0ba3	sb	x24,-9(x22)	 x22:0x800084fe x24:0x2b800000 PA:0x800084f5
       21485000	      2147	800056f4	009b4603	lbu	x12,9(x22)	 x22:0x800084fe x12=0x000000a0 PA:0x80008507
       21495000	      2148	800056f8	00000013	addi	x0,x0,0	  x0:0x00000000
       21505000	      2149	800056fc	b016e037	lui	x0,0xb016e	
       21515000	      2150	80005700	002bd313	srli	x6,x23,0x2	 x23:0xb860c000  x6=0x2e183000
       21525000	      2151	80005704	00a43e33	sltu	x28,x8,x10	  x8:0x00000000 x10:0xb860c000 x28=0x00000001
       21535000	      2152	80005708	0100e533	or	x10,x1,x16	  x1:0x00000000 x16:0x80009fc4 x10=0x80009fc4
       21545000	      2153	8000570c	004b4883	lbu	x17,4(x22)	 x22:0x800084fe x17=0x00000005 PA:0x80008502
       21555000	      2154	80005710	ff4b4c83	lbu	x25,-12(x22)	 x22:0x800084fe x25=0x000000a0 PA:0x800084f2
       21565000	      2155	00000000	00000013	addi	x0,x0,0	  x0:0x00000000
       21575000	      2156	80005714	41dcdc93	srai	x25,x25,0x1d	 x25:0x000000a0 x25=0x00000000
       21585000	      2157	80005718	405857b3	sra	x15,x16,x5	 x16:0x80009fc4  x5:0x00000067 x15=0xff00013f
       21595000	      2158	8000571c	2ee5ea93	ori	x21,x11,750	 x11:0xef781000 x21=0xef7812ee
       21605000	      2159	80005720	004b0303	lb	x6,4(x22)	 x22:0x800084fe  x6=0x00000005 PA:0x80008502
       21615000	      2160	80005724	8f054393	xori	x7,x10,-1808	 x10:0x80009fc4  x7=0x7fff6734
       21625000	      2161	80005728	00ad04b3	add	x9,x26,x10	 x26:0x0000005a x10:0x80009fc4  x9=0x8000a01e
       21635000	      2162	8000572c	015612b3	sll	x5,x12,x21	 x12:0x000000a0 x21:0xef7812ee  x5=0x00280000
       21645000	      2163	80005730	6047e593	ori	x11,x15,1540	 x15:0xff00013f x11=0xff00073f
       21655000	      2164	80005734	41435f33	sra	x30,x6,x20	  x6:0x00000005 x20:0xb860c000 x30=0x00000005
       21665000	      2165	80005738	003c02b3	add	x5,x24,x3	 x24:0x2b800000  x3:0x00001331  x5=0x2b801331
       21675000	      2166	8000573c	37b10f93	addi	x31,x2,891	  x2:0x80008c20 x31=0x80008f9b
       21685000	      2167	80005740	01a99733	sll	x14,x19,x26	 x19:0x00000000 x26:0x0000005a x14=0x00000000
       21695000	      2168	80005744	009b4003	lbu	x0,9(x22)	 x22:0x800084fe PA:0x80008507
       21705000	      2169	80005748	002b0623	sb	x2,12(x22)	 x22:0x800084fe  x2:0x80008c20 PA:0x8000850a
       21715000	      2170	8000574c	ff9b4603	lbu	x12,-7(x22)	 x22:0x800084fe x12=0x00000000 PA:0x800084f7
       21725000	      2171	80005750	0123d893	srli	x17,x7,0x12	  x7:0x7fff6734 x17=0x00001fff
       21735000	      2172	80005754	ff8b1c23	sh	x24,-8(x22)	 x22:0x800084fe x24:0x2b800000 PA:0x800084f6
       21745000	      2173	80005758	8071ab93	slti	x23,x3,-2041	  x3:0x00001331 x23=0x00000000
       21755000	      2174	8000575c	015b07a3	sb	x21,15(x22)	 x22:0x800084fe x21:0xef7812ee PA:0x8000850d
       21765000	      2175	80005760	3cdf3c93	sltiu	x25,x30,973	 x30:0x00000005 x25=0x00000001
       21775000	      2176	80005764	ffeb2103	lw	x2,-2(x22)	 x22:0x800084fe  x2=0x1481ce85 PA:0x800084fc
       21785000	      2177	80005768	00fb01a3	sb	x15,3(x22)	 x22:0x800084fe x15:0xff00013f PA:0x80008501
       21795000	      2178	8000576c	00e75fb3	srl	x31,x14,x14	 x14:0x00000000 x14:0x00000000 x31=0x00000000
       21805000	      2179	80005770	0050f433	and	x8,x1,x5	  x1:0x00000000  x5:0x2b801331  x8=0x00000000
       21815000	      2180	80005774	b4568293	addi	x5,x13,-1211	 x13:0xffffff83  x5=0xfffffac8
       21825000	      2181	80005778	00000013	addi	x0,x0,0	  x0:0x00000000
       21835000	      2182	8000577c	fe4b0ea3	sb	x4,-3(x22)	 x22:0x800084fe  x4:0x1843e000 PA:0x800084fb
       21845000	      2183	80005780	91892a13	slti	x20,x18,-1768	 x18:0xb5d9b6bc x20=0x00000001
       21855000	      2184	80005784	6db9b993	sltiu	x19,x19,1755	 x19:0x00000000 x19=0x00000001
       21865000	      2185	80005788	00cb5c03	lhu	x24,12(x22)	 x22:0x800084fe x24=0x00007b20 PA:0x8000850a
       21875000	      2186	8000578c	12f6c913	xori	x18,x13,303	 x13:0xffffff83 x18=0xfffffeac
       21885000	      2187	80005790	002e5933	srl	x18,x28,x2	 x28:0x00000001  x2:0x1481ce85 x18=0x00000000
       21895000	      2188	80005794	004bcbb3	xor	x23,x23,x4	 x23:0x00000000  x4:0x1843e000 x23=0x1843e000
       21905000	      2189	80005798	407185b3	sub	x11,x3,x7	  x3:0x00001331  x7:0x7fff6734 x11=0x8000abfd
       21915000	      2190	8000579c	0efe7793	andi	x15,x28,239	 x28:0x00000001 x15=0x00000001
       21925000	      2191	800057a0	41f1deb3	sra	x29,x3,x31	  x3:0x00001331 x31:0x00000000 x29=0x00001331
       21935000	      2192	800057a4	010e6f33	or	x30,x28,x16	 x28:0x00000001 x16:0x80009fc4 x30=0x80009fc5
       21945000	      2193	800057a8	0096ceb3	xor	x29,x13,x9	 x13:0xffffff83  x9:0x8000a01e x29=0x7fff5f9d
       21955000	      2194	800057ac	6dbdf313	andi	x6,x27,1755	 x27:0x80009f24  x6=0x00000600
       21965000	      2195	800057b0	01878a33	add	x20,x15,x24	 x15:0x00000001 x24:0x00007b20 x20=0x00007b21
       21975000	      2196	800057b4	41125e93	srai	x29,x4,0x11	  x4:0x1843e000 x29=0x00000c21
       21985000	      2197	800057b8	fa3f4913	xori	x18,x30,-93	 x30:0x80009fc5 x18=0x7fff6066
       21995000	      2198	800057bc	01d5fa63	bgeu	x11,x29,800057d0	 x11:0x8000abfd x29:0x00000c21
       22005000	      2199	00000000	00000013	addi	x0,x0,0	  x0:0x00000000
       22015000	      2200	800057cc	00000013	addi	x0,x0,0	  x0:0x00000000
       22025000	      2201	800057d0	41e20bb3	sub	x23,x4,x30	  x4:0x1843e000 x30:0x80009fc5 x23=0x9843403b
       22035000	      2202	800057d4	0ce01917	auipc	x18,0xce01	 x18=0x8ce067d0
       22045000	      2203	800057d8	04525063	bge	x4,x5,80005818	  x4:0x1843e000  x5:0xfffffac8
       22055000	      2204	00000000	00000013	addi	x0,x0,0	  x0:0x00000000
       22065000	      2205	80005814	00000013	addi	x0,x0,0	  x0:0x00000000
       22075000	      2206	80005818	01cc7eb3	and	x29,x24,x28	 x24:0x00007b20 x28:0x00000001 x29=0x00000000
       22085000	      2207	8000581c	002cda33	srl	x20,x25,x2	 x25:0x00000001  x2:0x1481ce85 x20=0x00000000
       22095000	      2208	80005820	01928eb3	add	x29,x5,x25	  x5:0xfffffac8 x25:0x00000001 x29=0xfffffac9
       22105000	      2209	80005824	202bf793	andi	x15,x23,514	 x23:0x9843403b x15=0x00000002
       22115000	      2210	80005828	002943b3	xor	x7,x18,x2	 x18:0x8ce067d0  x2:0x1481ce85  x7=0x9861a955
       22125000	      2211	8000582c	00f39cb3	sll	x25,x7,x15	  x7:0x9861a955 x15:0x00000002 x25=0x6186a554
       22135000	      2212	80005830	006be533	or	x10,x23,x6	 x23:0x9843403b  x6:0x00000600 x10=0x9843463b
       22145000	      2213	80005834	41f7d393	srai	x7,x15,0x1f	 x15:0x00000002  x7=0x00000000
       22155000	      2214	80005838	00193433	sltu	x8,x18,x1	 x18:0x8ce067d0  x1:0x00000000  x8=0x00000000
       22165000	      2215	8000583c	01b25663	bge	x4,x27,80005848	  x4:0x1843e000 x27:0x80009f24
       22175000	      2216	00000000	00000013	addi	x0,x0,0	  x0:0x00000000
       22185000	      2217	80005844	00000013	addi	x0,x0,0	  x0:0x00000000
       22195000	      2218	80005848	aab7b997	auipc	x19,0xaab7b	 x19=0x2ab80844
       22205000	      2219	8000584c	0079c1b3	xor	x3,x19,x7	 x19:0x2ab80844  x7:0x00000000  x3=0x2ab80844
       22215000	      2220	80005850	8e6fbf13	sltiu	x30,x31,-1818	 x31:0x00000000 x30=0x00000001
       22225000	      2221	80005854	ba507c13	andi	x24,x0,-1115	  x0:0x00000000 x24=0x00000000
       22235000	      2222	80005858	12406493	ori	x9,x0,292	  x0:0x00000000  x9=0x00000124
       22245000	      2223	8000585c	015f1e93	slli	x29,x30,0x15	 x30:0x00000001 x29=0x00200000
       22255000	      2224	80005860	01215613	srli	x12,x2,0x12	  x2:0x1481ce85 x12=0x00000520
       22265000	      2225	80005864	dbb86b37	lui	x22,0xdbb86	 x22=0xdbb86000
       22275000	      2226	80005868	02fa0c63	beq	x20,x15,800058a0	 x20:0x00000000 x15:0x00000002
       22285000	      2227	8000586c	40db5633	sra	x12,x22,x13	 x22:0xdbb86000 x13:0xffffff83 x12=0xfb770c00
       22295000	      2228	80005870	41565033	sra	x0,x12,x21	 x12:0xfb770c00 x21:0xef7812ee
       22305000	      2229	80005874	013f03b3	add	x7,x30,x19	 x30:0x00000001 x19:0x2ab80844  x7=0x2ab80845
       22315000	      2230	80005878	7580e9b7	lui	x19,0x7580e	 x19=0x7580e000
       22325000	      2231	8000587c	11ee0f93	addi	x31,x28,286	 x28:0x00000001 x31=0x0000011f
       22335000	      2232	80005880	0182d893	srli	x17,x5,0x18	  x5:0xfffffac8 x17=0x000000ff
       22345000	      2233	80005884	016a9533	sll	x10,x21,x22	 x21:0xef7812ee x22:0xdbb86000 x10=0xef7812ee
       22355000	      2234	80005888	00d85663	bge	x16,x13,80005894	 x16:0x80009fc4 x13:0xffffff83
       22365000	      2235	8000588c	032f8463	beq	x31,x18,800058b4	 x31:0x0000011f x18:0x8ce067d0
       22375000	      2236	80005890	04e76463	bltu	x14,x14,800058d8	 x14:0x00000000 x14:0x00000000
       22385000	      2237	80005894	00bda933	slt	x18,x27,x11	 x27:0x80009f24 x11:0x8000abfd x18=0x00000001
       22395000	      2238	80005898	011792b3	sll	x5,x15,x17	 x15:0x00000002 x17:0x000000ff  x5=0x00000000
       22405000	      2239	8000589c	b7066e93	ori	x29,x12,-1168	 x12:0xfb770c00 x29=0xffffff70
       22415000	      2240	800058a0	01db0a63	beq	x22,x29,800058b4	 x22:0xdbb86000 x29:0xffffff70
       22425000	      2241	800058a4	adcbc013	xori	x0,x23,-1316	 x23:0x9843403b
       22435000	      2242	800058a8	04b58063	beq	x11,x11,800058e8	 x11:0x8000abfd x11:0x8000abfd
       22445000	      2243	00000000	00000013	addi	x0,x0,0	  x0:0x00000000
       22455000	      2244	800058e4	00000013	addi	x0,x0,0	  x0:0x00000000
       22465000	      2245	800058e8	01b07133	and	x2,x0,x27	  x0:0x00000000 x27:0x80009f24  x2=0x00000000
       22475000	      2246	800058ec	04c01263	bne	x0,x12,80005930	  x0:0x00000000 x12:0xfb770c00
       22485000	      2247	00000000	00000013	addi	x0,x0,0	  x0:0x00000000
       22495000	      2248	8000592c	00000013	addi	x0,x0,0	  x0:0x00000000
       22505000	      2249	80005930	02f94a63	blt	x18,x15,80005964	 x18:0x00000001 x15:0x00000002
       22515000	      2250	00000000	00000013	addi	x0,x0,0	  x0:0x00000000
       22525000	      2251	80005960	00000013	addi	x0,x0,0	  x0:0x00000000
       22535000	      2252	80005964	39f05e37	lui	x28,0x39f05	 x28=0x39f05000
       22545000	      2253	80005968	27236f13	ori	x30,x6,626	  x6:0x00000600 x30=0x00000672
       22555000	      2254	8000596c	ae68bc93	sltiu	x25,x17,-1306	 x17:0x000000ff x25=0x00000001
       22565000	      2255	80005970	0092fc33	and	x24,x5,x9	  x5:0x00000000  x9:0x00000124 x24=0x00000000
       22575000	      2256	80005974	00745933	srl	x18,x8,x7	  x8:0x00000000  x7:0x2ab80845 x18=0x00000000
       22585000	      2257	80005978	414253b3	sra	x7,x4,x20	  x4:0x1843e000 x20:0x00000000  x7=0x1843e000
       22595000	      2258	8000597c	04424063	blt	x4,x4,800059bc	  x4:0x1843e000  x4:0x1843e000
       22605000	      2259	80005980	c75d3d13	sltiu	x26,x26,-907	 x26:0x0000005a x26=0x00000001
       22615000	      2260	80005984	032b0863	beq	x22,x18,800059b4	 x22:0xdbb86000 x18:0x00000000
       22625000	      2261	80005988	03e90663	beq	x18,x30,800059b4	 x18:0x00000000 x30:0x00000672
       22635000	      2262	8000598c	00000013	addi	x0,x0,0	  x0:0x00000000
       22645000	      2263	80005990	00a39c33	sll	x24,x7,x10	  x7:0x1843e000 x10:0xef7812ee x24=0xf8000000
       22655000	      2264	80005994	26d44c13	xori	x24,x8,621	  x8:0x00000000 x24=0x0000026d
       22665000	      2265	80005998	00119e63	bne	x3,x1,800059b4	  x3:0x2ab80844  x1:0x00000000
       22675000	      2266	00000000	00000013	addi	x0,x0,0	  x0:0x00000000
       22685000	      2267	800059b0	00000013	addi	x0,x0,0	  x0:0x00000000
       22695000	      2268	800059b4	015e4663	blt	x28,x21,800059c0	 x28:0x39f05000 x21:0xef7812ee
       22705000	      2269	800059b8	00575c63	bge	x14,x5,800059d0	 x14:0x00000000  x5:0x00000000
       22715000	      2270	00000000	00000013	addi	x0,x0,0	  x0:0x00000000
       22725000	      2271	800059cc	00000013	addi	x0,x0,0	  x0:0x00000000
       22735000	      2272	800059d0	f9a97b13	andi	x22,x18,-102	 x18:0x00000000 x22=0x00000000
       22745000	      2273	800059d4	017ece63	blt	x29,x23,800059f0	 x29:0xffffff70 x23:0x9843403b
       22755000	      2274	800059d8	41dad3b3	sra	x7,x21,x29	 x21:0xef7812ee x29:0xffffff70  x7=0xffffef78
       22765000	      2275	800059dc	c093e637	lui	x12,0xc093e	 x12=0xc093e000
       22775000	      2276	800059e0	01f71a13	slli	x20,x14,0x1f	 x14:0x00000000 x20=0x00000000
       22785000	      2277	800059e4	80cf2a13	slti	x20,x30,-2036	 x30:0x00000672 x20=0x00000000
       22795000	      2278	800059e8	00169793	slli	x15,x13,0x1	 x13:0xffffff83 x15=0xffffff06
       22805000	      2279	800059ec	00a2ea63	bltu	x5,x10,80005a00	  x5:0x00000000 x10:0xef7812ee
       22815000	      2280	00000000	00000013	addi	x0,x0,0	  x0:0x00000000
       22825000	      2281	800059fc	00000013	addi	x0,x0,0	  x0:0x00000000
       22835000	      2282	80005a00	00000013	addi	x0,x0,0	  x0:0x00000000
       22845000	      2283	80005a04	2594f3b7	lui	x7,0x2594f	  x7=0x2594f000
       22855000	      2284	80005a08	0048beb3	sltu	x29,x17,x4	 x17:0x000000ff  x4:0x1843e000 x29=0x00000001
       22865000	      2285	80005a0c	82518413	addi	x8,x3,-2011	  x3:0x2ab80844  x8=0x2ab80069
       22875000	      2286	80005a10	00000013	addi	x0,x0,0	  x0:0x00000000
       22885000	      2287	80005a14	01a64433	xor	x8,x12,x26	 x12:0xc093e000 x26:0x00000001  x8=0xc093e001
       22895000	      2288	80005a18	416ad133	sra	x2,x21,x22	 x21:0xef7812ee x22:0x00000000  x2=0xef7812ee
       22905000	      2289	80005a1c	00c11413	slli	x8,x2,0xc	  x2:0xef7812ee  x8=0x812ee000
       22915000	      2290	80005a20	bde02b13	slti	x22,x0,-1058	  x0:0x00000000 x22=0x00000000
       22925000	      2291	80005a24	03e2e263	bltu	x5,x30,80005a48	  x5:0x00000000 x30:0x00000672
       22935000	      2292	00000000	00000013	addi	x0,x0,0	  x0:0x00000000
       22945000	      2293	80005a44	00000013	addi	x0,x0,0	  x0:0x00000000
       22955000	      2294	80005a48	4020deb3	sra	x29,x1,x2	  x1:0x00000000  x2:0xef7812ee x29=0x00000000
       22965000	      2295	80005a4c	40320513	addi	x10,x4,1027	  x4:0x1843e000 x10=0x1843e403
       22975000	      2296	80005a50	019bbd33	sltu	x26,x23,x25	 x23:0x9843403b x25:0x00000001 x26=0x00000000
       22985000	      2297	80005a54	00fb6533	or	x10,x22,x15	 x22:0x00000000 x15:0xffffff06 x10=0xffffff06
       22995000	      2298	80005a58	b7442fb7	lui	x31,0xb7442	 x31=0xb7442000
       23005000	      2299	80005a5c	41e7dc93	srai	x25,x15,0x1e	 x15:0xffffff06 x25=0xffffffff
       23015000	      2300	80005a60	00000013	addi	x0,x0,0	  x0:0x00000000
       23025000	      2301	80005a64	04ebd263	bge	x23,x14,80005aa8	 x23:0x9843403b x14:0x00000000
       23035000	      2302	80005a68	1811e593	ori	x11,x3,385	  x3:0x2ab80844 x11=0x2ab809c5
       23045000	      2303	80005a6c	0148dd33	srl	x26,x17,x20	 x17:0x000000ff x20:0x00000000 x26=0x000000ff
       23055000	      2304	80005a70	05fb6863	bltu	x22,x31,80005ac0	 x22:0x00000000 x31:0xb7442000
       23065000	      2305	00000000	00000013	addi	x0,x0,0	  x0:0x00000000
       23075000	      2306	80005abc	00000013	addi	x0,x0,0	  x0:0x00000000
       23085000	      2307	80005ac0	0078fb33	and	x22,x17,x7	 x17:0x000000ff  x7:0x2594f000 x22=0x00000000
       23095000	      2308	80005ac4	00de0663	beq	x28,x13,80005ad0	 x28:0x39f05000 x13:0xffffff83
       23105000	      2309	80005ac8	00fee663	bltu	x29,x15,80005ad4	 x29:0x00000000 x15:0xffffff06
       23115000	      2310	00000000	00000013	addi	x0,x0,0	  x0:0x00000000
       23125000	      2311	80005ad0	00000013	addi	x0,x0,0	  x0:0x00000000
       23135000	      2312	80005ad4	00bc07b3	add	x15,x24,x11	 x24:0x0000026d x11:0x2ab809c5 x15=0x2ab80c32
       23145000	      2313	80005ad8	00b01233	sll	x4,x0,x11	  x0:0x00000000 x11:0x2ab809c5  x4=0x00000000
       23155000	      2314	80005adc	01062f33	slt	x30,x12,x16	 x12:0xc093e000 x16:0x80009fc4 x30=0x00000000
       23165000	      2315	80005ae0	5bffe113	ori	x2,x31,1471	 x31:0xb7442000  x2=0xb74425bf
       23175000	      2316	80005ae4	00414bb3	xor	x23,x2,x4	  x2:0xb74425bf  x4:0x00000000 x23=0xb74425bf
       23185000	      2317	80005ae8	00db9c13	slli	x24,x23,0xd	 x23:0xb74425bf x24=0x84b7e000
       23195000	      2318	80005aec	012c5693	srli	x13,x24,0x12	 x24:0x84b7e000 x13=0x0000212d
       23205000	      2319	80005af0	31af3313	sltiu	x6,x30,794	 x30:0x00000000  x6=0x00000001
       23215000	      2320	80005af4	00bf1a33	sll	x20,x30,x11	 x30:0x00000000 x11:0x2ab809c5 x20=0x00000000
       23225000	      2321	80005af8	01659033	sll	x0,x11,x22	 x11:0x2ab809c5 x22:0x00000000
       23235000	      2322	80005afc	401d0133	sub	x2,x26,x1	 x26:0x000000ff  x1:0x00000000  x2=0x000000ff
       23245000	      2323	80005b00	01c28933	add	x18,x5,x28	  x5:0x00000000 x28:0x39f05000 x18=0x39f05000
       23255000	      2324	80005b04	40e0d313	srai	x6,x1,0xe	  x1:0x00000000  x6=0x00000000
       23265000	      2325	80005b08	05574263	blt	x14,x21,80005b4c	 x14:0x00000000 x21:0xef7812ee
       23275000	      2326	80005b0c	40d95633	sra	x12,x18,x13	 x18:0x39f05000 x13:0x0000212d x12=0x0001cf82
       23285000	      2327	80005b10	019c3c33	sltu	x24,x24,x25	 x24:0x84b7e000 x25:0xffffffff x24=0x00000001
       23295000	      2328	80005b14	011a6cb3	or	x25,x20,x17	 x20:0x00000000 x17:0x000000ff x25=0x000000ff
       23305000	      2329	80005b18	3cef6513	ori	x10,x30,974	 x30:0x00000000 x10=0x000003ce
       23315000	      2330	80005b1c	7a52cf17	auipc	x30,0x7a52c	 x30=0xfa531b18
       23325000	      2331	80005b20	04ef4063	blt	x30,x14,80005b60	 x30:0xfa531b18 x14:0x00000000
       23335000	      2332	00000000	00000013	addi	x0,x0,0	  x0:0x00000000
       23345000	      2333	80005b5c	00000013	addi	x0,x0,0	  x0:0x00000000
       23355000	      2334	80005b60	fe6a7513	andi	x10,x20,-26	 x20:0x00000000 x10=0x00000000
       23365000	      2335	80005b64	03238863	beq	x7,x18,80005b94	  x7:0x2594f000 x18:0x39f05000
       23375000	      2336	80005b68	03e0f063	bgeu	x1,x30,80005b88	  x1:0x00000000 x30:0xfa531b18
       23385000	      2337	80005b6c	d0abea13	ori	x20,x23,-758	 x23:0xb74425bf x20=0xfffffdbf
       23395000	      2338	80005b70	04538463	beq	x7,x5,80005bb8	  x7:0x2594f000  x5:0x00000000
       23405000	      2339	80005b74	00eb2b33	slt	x22,x22,x14	 x22:0x00000000 x14:0x00000000 x22=0x00000000
       23415000	      2340	80005b78	01552a33	slt	x20,x10,x21	 x10:0x00000000 x21:0xef7812ee x20=0x00000000
       23425000	      2341	80005b7c	b39af313	andi	x6,x21,-1223	 x21:0xef7812ee  x6=0xef781228
       23435000	      2342	80005b80	15e4c113	xori	x2,x9,350	  x9:0x00000124  x2=0x0000007a
       23445000	      2343	80005b84	00ea3333	sltu	x6,x20,x14	 x20:0x00000000 x14:0x00000000  x6=0x00000000
       23455000	      2344	80005b88	01a699b3	sll	x19,x13,x26	 x13:0x0000212d x26:0x000000ff x19=0x80000000
       23465000	      2345	80005b8c	00897633	and	x12,x18,x8	 x18:0x39f05000  x8:0x812ee000 x12=0x01204000
       23475000	      2346	80005b90	669381b7	lui	x3,0x66938	  x3=0x66938000
       23485000	      2347	80005b94	39384b13	xori	x22,x16,915	 x16:0x80009fc4 x22=0x80009c57
       23495000	      2348	80005b98	05969263	bne	x13,x25,80005bdc	 x13:0x0000212d x25:0x000000ff
       23505000	      2349	00000000	00000013	addi	x0,x0,0	  x0:0x00000000
       23515000	      2350	80005bd8	00000013	addi	x0,x0,0	  x0:0x00000000
       23525000	      2351	80005bdc	048b8063	beq	x23,x8,80005c1c	 x23:0xb74425bf  x8:0x812ee000
       23535000	      2352	80005be0	01e381b3	add	x3,x7,x30	  x7:0x2594f000 x30:0xfa531b18  x3=0x1fe80b18
       23545000	      2353	80005be4	41f55f93	srai	x31,x10,0x1f	 x10:0x00000000 x31=0x00000000
       23555000	      2354	80005be8	344fe293	ori	x5,x31,836	 x31:0x00000000  x5=0x00000344
       23565000	      2355	80005bec	41090633	sub	x12,x18,x16	 x18:0x39f05000 x16:0x80009fc4 x12=0xb9efb03c
       23575000	      2356	80005bf0	0021f633	and	x12,x3,x2	  x3:0x1fe80b18  x2:0x0000007a x12=0x00000018
       23585000	      2357	80005bf4	00b3fe63	bgeu	x7,x11,80005c10	  x7:0x2594f000 x11:0x2ab809c5
       23595000	      2358	80005bf8	05a44063	blt	x8,x26,80005c38	  x8:0x812ee000 x26:0x000000ff
       23605000	      2359	00000000	00000013	addi	x0,x0,0	  x0:0x00000000
       23615000	      2360	80005c34	00000013	addi	x0,x0,0	  x0:0x00000000
       23625000	      2361	80005c38	a47bba93	sltiu	x21,x23,-1465	 x23:0xb74425bf x21=0x00000001
       23635000	      2362	80005c3c	0e992113	slti	x2,x18,233	 x18:0x39f05000  x2=0x00000000
       23645000	      2363	80005c40	4bb37e93	andi	x29,x6,1211	  x6:0x00000000 x29=0x00000000
       23655000	      2364	80005c44	00478fb3	add	x31,x15,x4	 x15:0x2ab80c32  x4:0x00000000 x31=0x2ab80c32
       23665000	      2365	80005c48	0107eab3	or	x21,x15,x16	 x15:0x2ab80c32 x16:0x80009fc4 x21=0xaab89ff6
       23675000	      2366	80005c4c	01405993	srli	x19,x0,0x14	  x0:0x00000000 x19=0x00000000
       23685000	      2367	80005c50	01beb933	sltu	x18,x29,x27	 x29:0x00000000 x27:0x80009f24 x18=0x00000001
       23695000	      2368	80005c54	d94afb93	andi	x23,x21,-620	 x21:0xaab89ff6 x23=0xaab89d94
       23705000	      2369	80005c58	b26d8313	addi	x6,x27,-1242	 x27:0x80009f24  x6=0x80009a4a
       23715000	      2370	80005c5c	41ddd293	srai	x5,x27,0x1d	 x27:0x80009f24  x5=0xfffffffc
       23725000	      2371	80005c60	417d5b13	srai	x22,x26,0x17	 x26:0x000000ff x22=0x00000000
       23735000	      2372	80005c64	cd2d0893	addi	x17,x26,-814	 x26:0x000000ff x17=0xfffffdd1
       23745000	      2373	80005c68	037fcc63	blt	x31,x23,80005ca0	 x31:0x2ab80c32 x23:0xaab89d94
       23755000	      2374	80005c6c	02ff8463	beq	x31,x15,80005c94	 x31:0x2ab80c32 x15:0x2ab80c32
       23765000	      2375	00000000	00000013	addi	x0,x0,0	  x0:0x00000000
       23775000	      2376	80005c90	00000013	addi	x0,x0,0	  x0:0x00000000
       23785000	      2377	80005c94	c9c18513	addi	x10,x3,-868	  x3:0x1fe80b18 x10=0x1fe807b4
       23795000	      2378	80005c98	00a19c33	sll	x24,x3,x10	  x3:0x1fe80b18 x10:0x1fe807b4 x24=0xb1800000
       23805000	      2379	80005c9c	0155d793	srli	x15,x11,0x15	 x11:0x2ab809c5 x15=0x00000155
       23815000	      2380	80005ca0	017512b3	sll	x5,x10,x23	 x10:0x1fe807b4 x23:0xaab89d94  x5=0x7b400000
       23825000	      2381	80005ca4	015eb033	sltu	x0,x29,x21	 x29:0x00000000 x21:0xaab89ff6
       23835000	      2382	80005ca8	00000013	addi	x0,x0,0	  x0:0x00000000
       23845000	      2383	80005cac	fa812013	slti	x0,x2,-88	  x2:0x00000000
       23855000	      2384	80005cb0	65678f93	addi	x31,x15,1622	 x15:0x00000155 x31=0x000007ab
       23865000	      2385	80005cb4	00ee1f13	slli	x30,x28,0xe	 x28:0x39f05000 x30=0x14000000
       23875000	      2386	80005cb8	25134993	xori	x19,x6,593	  x6:0x80009a4a x19=0x8000981b
       23885000	      2387	80005cbc	00000013	addi	x0,x0,0	  x0:0x00000000
       23895000	      2388	80005cc0	00854fb3	xor	x31,x10,x8	 x10:0x1fe807b4  x8:0x812ee000 x31=0x9ec6e7b4
       23905000	      2389	80005cc4	85b2a613	slti	x12,x5,-1957	  x5:0x7b400000 x12=0x00000000
       23915000	      2390	80005cc8	00e59a93	slli	x21,x11,0xe	 x11:0x2ab809c5 x21=0x02714000
       23925000	      2391	80005ccc	ec680f93	addi	x31,x16,-314	 x16:0x80009fc4 x31=0x80009e8a
       23935000	      2392	80005cd0	41d2d613	srai	x12,x5,0x1d	  x5:0x7b400000 x12=0x00000003
       23945000	      2393	80005cd4	00c3f2b3	and	x5,x7,x12	  x7:0x2594f000 x12:0x00000003  x5=0x00000000
       23955000	      2394	80005cd8	01cb5a93	srli	x21,x22,0x1c	 x22:0x00000000 x21=0x00000000
       23965000	      2395	80005cdc	40db0b33	sub	x22,x22,x13	 x22:0x00000000 x13:0x0000212d x22=0xffffded3
       23975000	      2396	80005ce0	bd138fb7	lui	x31,0xbd138	 x31=0xbd138000
       23985000	      2397	80005ce4	0213d463	bge	x7,x1,80005d0c	  x7:0x2594f000  x1:0x00000000
       23995000	      2398	00000000	00000013	addi	x0,x0,0	  x0:0x00000000
       24005000	      2399	80005d08	00000013	addi	x0,x0,0	  x0:0x00000000
       24015000	      2400	80005d0c	c6c8b713	sltiu	x14,x17,-916	 x17:0xfffffdd1 x14=0x00000000
       24025000	      2401	80005d10	01cac663	blt	x21,x28,80005d1c	 x21:0x00000000 x28:0x39f05000
       24035000	      2402	00000000	00000013	addi	x0,x0,0	  x0:0x00000000
       24045000	      2403	80005d18	00000013	addi	x0,x0,0	  x0:0x00000000
       24055000	      2404	80005d1c	fdbd7b93	andi	x23,x26,-37	 x26:0x000000ff x23=0x000000db
       24065000	      2405	80005d20	0154cbb3	xor	x23,x9,x21	  x9:0x00000124 x21:0x00000000 x23=0x00000124
       24075000	      2406	80005d24	00271e13	slli	x28,x14,0x2	 x14:0x00000000 x28=0x00000000
       24085000	      2407	80005d28	60ae3e93	sltiu	x29,x28,1546	 x28:0x00000000 x29=0x00000001
       24095000	      2408	80005d2c	013bb5b3	sltu	x11,x23,x19	 x23:0x00000124 x19:0x8000981b x11=0x00000001
       24105000	      2409	80005d30	01ae4fb3	xor	x31,x28,x26	 x28:0x00000000 x26:0x000000ff x31=0x000000ff
       24115000	      2410	80005d34	d28bce17	auipc	x28,0xd28bc	 x28=0x528c1d30
       24125000	      2411	80005d38	01a21233	sll	x4,x4,x26	  x4:0x00000000 x26:0x000000ff  x4=0x00000000
       24135000	      2412	80005d3c	1183c593	xori	x11,x7,280	  x7:0x2594f000 x11=0x2594f118
       24145000	      2413	80005d40	00d2ef33	or	x30,x5,x13	  x5:0x00000000 x13:0x0000212d x30=0x0000212d
       24155000	      2414	80005d44	01f0cb33	xor	x22,x1,x31	  x1:0x00000000 x31:0x000000ff x22=0x000000ff
       24165000	      2415	80005d48	01510fb3	add	x31,x2,x21	  x2:0x00000000 x21:0x00000000 x31=0x00000000
       24175000	      2416	80005d4c	be7b78b7	lui	x17,0xbe7b7	 x17=0xbe7b7000
       24185000	      2417	80005d50	d0f6a8b7	lui	x17,0xd0f6a	 x17=0xd0f6a000
       24195000	      2418	80005d54	ceea4893	xori	x17,x20,-786	 x20:0x00000000 x17=0xfffffcee
       24205000	      2419	80005d58	01ce6733	or	x14,x28,x28	 x28:0x528c1d30 x28:0x528c1d30 x14=0x528c1d30
       24215000	      2420	80005d5c	f0a7de97	auipc	x29,0xf0a7d	 x29=0x70a82d58
       24225000	      2421	80005d60	02ce0c63	beq	x28,x12,80005d98	 x28:0x528c1d30 x12:0x00000003
       24235000	      2422	80005d64	018c7663	bgeu	x24,x24,80005d70	 x24:0xb1800000 x24:0xb1800000
       24245000	      2423	00000000	00000013	addi	x0,x0,0	  x0:0x00000000
       24255000	      2424	80005d6c	00000013	addi	x0,x0,0	  x0:0x00000000
       24265000	      2425	80005d70	409209b3	sub	x19,x4,x9	  x4:0x00000000  x9:0x00000124 x19=0xfffffedc
       24275000	      2426	80005d74	000c7a33	and	x20,x24,x0	 x24:0xb1800000  x0:0x00000000 x20=0x00000000
       24285000	      2427	80005d78	40c081b3	sub	x3,x1,x12	  x1:0x00000000 x12:0x00000003  x3=0xfffffffd
       24295000	      2428	80005d7c	00bffe63	bgeu	x31,x11,80005d98	 x31:0x00000000 x11:0x2594f118
       24305000	      2429	80005d80	015399b3	sll	x19,x7,x21	  x7:0x2594f000 x21:0x00000000 x19=0x2594f000
       24315000	      2430	80005d84	66b81797	auipc	x15,0x66b81	 x15=0xe6b86d80
       24325000	      2431	80005d88	26102693	slti	x13,x0,609	  x0:0x00000000 x13=0x00000001
       24335000	      2432	80005d8c	0191db33	srl	x22,x3,x25	  x3:0xfffffffd x25:0x000000ff x22=0x00000001
       24345000	      2433	80005d90	04f9f463	bgeu	x19,x15,80005dd8	 x19:0x2594f000 x15:0xe6b86d80
       24355000	      2434	80005d94	c9cc3d13	sltiu	x26,x24,-868	 x24:0xb1800000 x26=0x00000001
       24365000	      2435	80005d98	506e6993	ori	x19,x28,1286	 x28:0x528c1d30 x19=0x528c1d36
       24375000	      2436	80005d9c	01422433	slt	x8,x4,x20	  x4:0x00000000 x20:0x00000000  x8=0x00000000
       24385000	      2437	80005da0	402dd013	srai	x0,x27,0x2	 x27:0x80009f24
       24395000	      2438	80005da4	01024533	xor	x10,x4,x16	  x4:0x00000000 x16:0x80009fc4 x10=0x80009fc4
       24405000	      2439	80005da8	01f1b933	sltu	x18,x3,x31	  x3:0xfffffffd x31:0x00000000 x18=0x00000000
       24415000	      2440	80005dac	055fc263	blt	x31,x21,80005df0	 x31:0x00000000 x21:0x00000000
       24425000	      2441	80005db0	00921a33	sll	x20,x4,x9	  x4:0x00000000  x9:0x00000124 x20=0x00000000
       24435000	      2442	80005db4	2bb38e13	addi	x28,x7,699	  x7:0x2594f000 x28=0x2594f2bb
       24445000	      2443	80005db8	4947c893	xori	x17,x15,1172	 x15:0xe6b86d80 x17=0xe6b86914
       24455000	      2444	80005dbc	01f40033	add	x0,x8,x31	  x8:0x00000000 x31:0x00000000
       24465000	      2445	80005dc0	aa6f3193	sltiu	x3,x30,-1370	 x30:0x0000212d  x3=0x00000001
       24475000	      2446	80005dc4	bad87693	andi	x13,x16,-1107	 x16:0x80009fc4 x13=0x80009b84
       24485000	      2447	80005dc8	014d55b3	srl	x11,x26,x20	 x26:0x00000001 x20:0x00000000 x11=0x00000001
       24495000	      2448	80005dcc	0018b733	sltu	x14,x17,x1	 x17:0xe6b86914  x1:0x00000000 x14=0x00000000
       24505000	      2449	80005dd0	00fc5313	srli	x6,x24,0xf	 x24:0xb1800000  x6=0x00016300
       24515000	      2450	80005dd4	0151ce63	blt	x3,x21,80005df0	  x3:0x00000001 x21:0x00000000
       24525000	      2451	80005dd8	01b9d133	srl	x2,x19,x27	 x19:0x528c1d36 x27:0x80009f24  x2=0x0528c1d3
       24535000	      2452	80005ddc	00ba5a33	srl	x20,x20,x11	 x20:0x00000000 x11:0x00000001 x20=0x00000000
       24545000	      2453	80005de0	00749bb3	sll	x23,x9,x7	  x9:0x00000124  x7:0x2594f000 x23=0x00000124
       24555000	      2454	80005de4	011597b3	sll	x15,x11,x17	 x11:0x00000001 x17:0xe6b86914 x15=0x00100000
       24565000	      2455	80005de8	5ac50f13	addi	x30,x10,1452	 x10:0x80009fc4 x30=0x8000a570
       24575000	      2456	80005dec	40a45793	srai	x15,x8,0xa	  x8:0x00000000 x15=0x00000000
       24585000	      2457	80005df0	40cd5893	srai	x17,x26,0xc	 x26:0x00000001 x17=0x00000000
       24595000	      2458	80005df4	40ed08b3	sub	x17,x26,x14	 x26:0x00000001 x14:0x00000000 x17=0x00000001
       24605000	      2459	80005df8	01e35c13	srli	x24,x6,0x1e	  x6:0x00016300 x24=0x00000000
       24615000	      2460	80005dfc	0203c663	blt	x7,x0,80005e28	  x7:0x2594f000  x0:0x00000000
       24625000	      2461	80005e00	00eb87b3	add	x15,x23,x14	 x23:0x00000124 x14:0x00000000 x15=0x00000124
       24635000	      2462	80005e04	9f520617	auipc	x12,0x9f520	 x12=0x1f525e00
       24645000	      2463	80005e08	045e1063	bne	x28,x5,80005e48	 x28:0x2594f2bb  x5:0x00000000
       24655000	      2464	00000000	00000013	addi	x0,x0,0	  x0:0x00000000
       24665000	      2465	80005e44	00000013	addi	x0,x0,0	  x0:0x00000000
       24675000	      2466	80005e48	52401497	auipc	x9,0x52401	  x9=0xd2406e44
       24685000	      2467	80005e4c	782a6e13	ori	x28,x20,1922	 x20:0x00000000 x28=0x00000782
       24695000	      2468	80005e50	028e6263	bltu	x28,x8,80005e74	 x28:0x00000782  x8:0x00000000
       24705000	      2469	80005e54	01a19d33	sll	x26,x3,x26	  x3:0x00000001 x26:0x00000001 x26=0x00000002
       24715000	      2470	80005e58	4072dc13	srai	x24,x5,0x7	  x5:0x00000000 x24=0x00000000
       24725000	      2471	80005e5c	019e5e93	srli	x29,x28,0x19	 x28:0x00000782 x29=0x00000000
       24735000	      2472	80005e60	00c5d193	srli	x3,x11,0xc	 x11:0x00000001  x3=0x00000000
       24745000	      2473	80005e64	01ace533	or	x10,x25,x26	 x25:0x000000ff x26:0x00000002 x10=0x000000ff
       24755000	      2474	80005e68	03055c63	bge	x10,x16,80005ea0	 x10:0x000000ff x16:0x80009fc4
       24765000	      2475	00000000	00000013	addi	x0,x0,0	  x0:0x00000000
       24775000	      2476	80005e9c	00000013	addi	x0,x0,0	  x0:0x00000000
       24785000	      2477	80005ea0	08b2f413	andi	x8,x5,139	  x5:0x00000000  x8=0x00000000
       24795000	      2478	80005ea4	01b71613	slli	x12,x14,0x1b	 x14:0x00000000 x12=0x00000000
       24805000	      2479	80005ea8	0137cb33	xor	x22,x15,x19	 x15:0x00000124 x19:0x528c1d36 x22=0x528c1c12
       24815000	      2480	80005eac	01a35b93	srli	x23,x6,0x1a	  x6:0x00016300 x23=0x00000000
       24825000	      2481	80005eb0	00182bb3	slt	x23,x16,x1	 x16:0x80009fc4  x1:0x00000000 x23=0x00000001
       24835000	      2482	80005eb4	2de77193	andi	x3,x14,734	 x14:0x00000000  x3=0x00000000
       24845000	      2483	80005eb8	c9a73a93	sltiu	x21,x14,-870	 x14:0x00000000 x21=0x00000001
       24855000	      2484	80005ebc	bec03397	auipc	x7,0xbec03	  x7=0x3ec08eb8
       24865000	      2485	80005ec0	52f9a493	slti	x9,x19,1327	 x19:0x528c1d36  x9=0x00000000
       24875000	      2486	80005ec4	29fa4717	auipc	x14,0x29fa4	 x14=0xa9fa9ec0
       24885000	      2487	80005ec8	05f08063	beq	x1,x31,80005f08	  x1:0x00000000 x31:0x00000000
       24895000	      2488	00000000	00000013	addi	x0,x0,0	  x0:0x00000000
       24905000	      2489	80005f04	00000013	addi	x0,x0,0	  x0:0x00000000
       24915000	      2490	80005f08	03178a63	beq	x15,x17,80005f3c	 x15:0x00000124 x17:0x00000001
       24925000	      2491	80005f0c	05d20063	beq	x4,x29,80005f4c	  x4:0x00000000 x29:0x00000000
       24935000	      2492	00000000	00000013	addi	x0,x0,0	  x0:0x00000000
       24945000	      2493	80005f48	00000013	addi	x0,x0,0	  x0:0x00000000
       24955000	      2494	80005f4c	19faa313	slti	x6,x21,415	 x21:0x00000001  x6=0x00000001
       24965000	      2495	80005f50	3f522d37	lui	x26,0x3f522	 x26=0x3f522000
       24975000	      2496	80005f54	00000013	addi	x0,x0,0	  x0:0x00000000
       24985000	      2497	80005f58	018f6a63	bltu	x30,x24,80005f6c	 x30:0x8000a570 x24:0x00000000
       24995000	      2498	80005f5c	01674433	xor	x8,x14,x22	 x14:0xa9fa9ec0 x22:0x528c1c12  x8=0xfb7682d2
       25005000	      2499	80005f60	00881c63	bne	x16,x8,80005f78	 x16:0x80009fc4  x8:0xfb7682d2
       25015000	      2500	00000000	00000013	addi	x0,x0,0	  x0:0x00000000
       25025000	      2501	80005f74	00000013	addi	x0,x0,0	  x0:0x00000000
       25035000	      2502	80005f78	00b71333	sll	x6,x14,x11	 x14:0xa9fa9ec0 x11:0x00000001  x6=0x53f53d80
       25045000	      2503	80005f7c	033b8463	beq	x23,x19,80005fa4	 x23:0x00000001 x19:0x528c1d36
       25055000	      2504	80005f80	183a6793	ori	x15,x20,387	 x20:0x00000000 x15=0x00000183
       25065000	      2505	80005f84	40d6dd33	sra	x26,x13,x13	 x13:0x80009b84 x13:0x80009b84 x26=0xf80009b8
       25075000	      2506	80005f88	8876c197	auipc	x3,0x8876c	  x3=0x08771f84
       25085000	      2507	80005f8c	418f0533	sub	x10,x30,x24	 x30:0x8000a570 x24:0x00000000 x10=0x8000a570
       25095000	      2508	80005f90	05e71463	bne	x14,x30,80005fd8	 x14:0xa9fa9ec0 x30:0x8000a570
       25105000	      2509	00000000	00000013	addi	x0,x0,0	  x0:0x00000000
       25115000	      2510	80005fd4	00000013	addi	x0,x0,0	  x0:0x00000000
       25125000	      2511	80005fd8	0005b433	sltu	x8,x11,x0	 x11:0x00000001  x0:0x00000000  x8=0x00000000
       25135000	      2512	80005fdc	011c8cb3	add	x25,x25,x17	 x25:0x000000ff x17:0x00000001 x25=0x00000100
       25145000	      2513	80005fe0	04550463	beq	x10,x5,80006028	 x10:0x8000a570  x5:0x00000000
       25155000	      2514	80005fe4	0036d033	srl	x0,x13,x3	 x13:0x80009b84  x3:0x08771f84
       25165000	      2515	80005fe8	018f7d33	and	x26,x30,x24	 x30:0x8000a570 x24:0x00000000 x26=0x00000000
       25175000	      2516	80005fec	01d01533	sll	x10,x0,x29	  x0:0x00000000 x29:0x00000000 x10=0x00000000
       25185000	      2517	80005ff0	01ea9113	slli	x2,x21,0x1e	 x21:0x00000001  x2=0x40000000
       25195000	      2518	80005ff4	89f36013	ori	x0,x6,-1889	  x6:0x53f53d80
       25205000	      2519	80005ff8	407f5b93	srai	x23,x30,0x7	 x30:0x8000a570 x23=0xff00014a
       25215000	      2520	80005ffc	13cf4a13	xori	x20,x30,316	 x30:0x8000a570 x20=0x8000a44c
       25225000	      2521	80006000	01f6da33	srl	x20,x13,x31	 x13:0x80009b84 x31:0x00000000 x20=0x80009b84
       25235000	      2522	80006004	fa426513	ori	x10,x4,-92	  x4:0x00000000 x10=0xffffffa4
       25245000	      2523	80006008	41360133	sub	x2,x12,x19	 x12:0x00000000 x19:0x528c1d36  x2=0xad73e2ca
       25255000	      2524	8000600c	408adb33	sra	x22,x21,x8	 x21:0x00000001  x8:0x00000000 x22=0x00000001
       25265000	      2525	80006010	6eca2713	slti	x14,x20,1772	 x20:0x80009b84 x14=0x00000001
       25275000	      2526	80006014	5454ec13	ori	x24,x9,1349	  x9:0x00000000 x24=0x00000545
       25285000	      2527	80006018	eb10a413	slti	x8,x1,-335	  x1:0x00000000  x8=0x00000000
       25295000	      2528	8000601c	01797663	bgeu	x18,x23,80006028	 x18:0x00000000 x23:0xff00014a
       25305000	      2529	80006020	01fce633	or	x12,x25,x31	 x25:0x00000100 x31:0x00000000 x12=0x00000100
       25315000	      2530	80006024	4fdae213	ori	x4,x21,1277	 x21:0x00000001  x4=0x000004fd
       25325000	      2531	80006028	86802493	slti	x9,x0,-1944	  x0:0x00000000  x9=0x00000000
       25335000	      2532	8000602c	00c624b3	slt	x9,x12,x12	 x12:0x00000100 x12:0x00000100  x9=0x00000000
       25345000	      2533	80006030	00536333	or	x6,x6,x5	  x6:0x53f53d80  x5:0x00000000  x6=0x53f53d80
       25355000	      2534	80006034	01fbd993	srli	x19,x23,0x1f	 x23:0xff00014a x19=0x00000001
       25365000	      2535	80006038	04efc263	blt	x31,x14,8000607c	 x31:0x00000000 x14:0x00000001
       25375000	      2536	00000000	00000013	addi	x0,x0,0	  x0:0x00000000
       25385000	      2537	80006078	00000013	addi	x0,x0,0	  x0:0x00000000
       25395000	      2538	8000607c	3ca74393	xori	x7,x14,970	 x14:0x00000001  x7=0x000003cb
       25405000	      2539	80006080	00b864b3	or	x9,x16,x11	 x16:0x80009fc4 x11:0x00000001  x9=0x80009fc5
       25415000	      2540	80006084	419ad4b3	sra	x9,x21,x25	 x21:0x00000001 x25:0x00000100  x9=0x00000001
       25425000	      2541	80006088	01fa1193	slli	x3,x20,0x1f	 x20:0x80009b84  x3=0x00000000
       25435000	      2542	8000608c	04725063	bge	x4,x7,800060cc	  x4:0x000004fd  x7:0x000003cb
       25445000	      2543	00000000	00000013	addi	x0,x0,0	  x0:0x00000000
       25455000	      2544	800060c8	00000013	addi	x0,x0,0	  x0:0x00000000
       25465000	      2545	800060cc	40595eb3	sra	x29,x18,x5	 x18:0x00000000  x5:0x00000000 x29=0x00000000
       25475000	      2546	800060d0	40f75b33	sra	x22,x14,x15	 x14:0x00000001 x15:0x00000183 x22=0x00000000
       25485000	      2547	800060d4	05751063	bne	x10,x23,80006114	 x10:0xffffffa4 x23:0xff00014a
       25495000	      2548	00000000	00000013	addi	x0,x0,0	  x0:0x00000000
       25505000	      2549	80006110	00000013	addi	x0,x0,0	  x0:0x00000000
       25515000	      2550	80006114	dc203cb7	lui	x25,0xdc203	 x25=0xdc203000
       25525000	      2551	80006118	000b13b3	sll	x7,x22,x0	 x22:0x00000000  x0:0x00000000  x7=0x00000000
       25535000	      2552	8000611c	01475d13	srli	x26,x14,0x14	 x14:0x00000001 x26=0x00000000
       25545000	      2553	80006120	039c0663	beq	x24,x25,8000614c	 x24:0x00000545 x25:0xdc203000
       25555000	      2554	80006124	00ff9a33	sll	x20,x31,x15	 x31:0x00000000 x15:0x00000183 x20=0x00000000
       25565000	      2555	80006128	262a4f93	xori	x31,x20,610	 x20:0x00000000 x31=0x00000262
       25575000	      2556	8000612c	40e3d733	sra	x14,x7,x14	  x7:0x00000000 x14:0x00000001 x14=0x00000000
       25585000	      2557	80006130	0122d633	srl	x12,x5,x18	  x5:0x00000000 x18:0x00000000 x12=0x00000000
       25595000	      2558	80006134	001af033	and	x0,x21,x1	 x21:0x00000001  x1:0x00000000
       25605000	      2559	80006138	cbef3493	sltiu	x9,x30,-834	 x30:0x8000a570  x9=0x00000001
       25615000	      2560	8000613c	95a3c193	xori	x3,x7,-1702	  x7:0x00000000  x3=0xfffff95a
       25625000	      2561	80006140	01ad4933	xor	x18,x26,x26	 x26:0x00000000 x26:0x00000000 x18=0x00000000
       25635000	      2562	80006144	41ec5733	sra	x14,x24,x30	 x24:0x00000545 x30:0x8000a570 x14=0x00000000
       25645000	      2563	80006148	02eb5463	bge	x22,x14,80006170	 x22:0x00000000 x14:0x00000000
       25655000	      2564	00000000	00000013	addi	x0,x0,0	  x0:0x00000000
       25665000	      2565	8000616c	00000013	addi	x0,x0,0	  x0:0x00000000
       25675000	      2566	80006170	01f5ca63	blt	x11,x31,80006184	 x11:0x00000001 x31:0x00000262
       25685000	      2567	00000000	00000013	addi	x0,x0,0	  x0:0x00000000
       25695000	      2568	80006180	00000013	addi	x0,x0,0	  x0:0x00000000
       25705000	      2569	80006184	01361b13	slli	x22,x12,0x13	 x12:0x00000000 x22=0x00000000
       25715000	      2570	80006188	01b838b3	sltu	x17,x16,x27	 x16:0x80009fc4 x27:0x80009f24 x17=0x00000000
       25725000	      2571	8000618c	c1e5fb13	andi	x22,x11,-994	 x11:0x00000001 x22=0x00000000
       25735000	      2572	80006190	01af9193	slli	x3,x31,0x1a	 x31:0x00000262  x3=0x88000000
       25745000	      2573	80006194	002ff7b3	and	x15,x31,x2	 x31:0x00000262  x2:0xad73e2ca x15=0x00000242
       25755000	      2574	80006198	41918e33	sub	x28,x3,x25	  x3:0x88000000 x25:0xdc203000 x28=0xabdfd000
       25765000	      2575	8000619c	4010d433	sra	x8,x1,x1	  x1:0x00000000  x1:0x00000000  x8=0x00000000
       25775000	      2576	800061a0	407ad2b3	sra	x5,x21,x7	 x21:0x00000001  x7:0x00000000  x5=0x00000001
       25785000	      2577	800061a4	01139593	slli	x11,x7,0x11	  x7:0x00000000 x11=0x00000000
       25795000	      2578	800061a8	01699133	sll	x2,x19,x22	 x19:0x00000001 x22:0x00000000  x2=0x00000001
       25805000	      2579	800061ac	01239d33	sll	x26,x7,x18	  x7:0x00000000 x18:0x00000000 x26=0x00000000
       25815000	      2580	800061b0	8122e213	ori	x4,x5,-2030	  x5:0x00000001  x4=0xfffff813
       25825000	      2581	800061b4	50c94593	xori	x11,x18,1292	 x18:0x00000000 x11=0x0000050c
       25835000	      2582	800061b8	00fb1663	bne	x22,x15,800061c4	 x22:0x00000000 x15:0x00000242
       25845000	      2583	00000000	00000013	addi	x0,x0,0	  x0:0x00000000
       25855000	      2584	800061c0	00000013	addi	x0,x0,0	  x0:0x00000000
       25865000	      2585	800061c4	41a05c93	srai	x25,x0,0x1a	  x0:0x00000000 x25=0x00000000
       25875000	      2586	800061c8	01e704b3	add	x9,x14,x30	 x14:0x00000000 x30:0x8000a570  x9=0x8000a570
       25885000	      2587	800061cc	0189db93	srli	x23,x19,0x18	 x19:0x00000001 x23=0x00000000
       25895000	      2588	800061d0	05226463	bltu	x4,x18,80006218	  x4:0xfffff813 x18:0x00000000
       25905000	      2589	800061d4	032d4c63	blt	x26,x18,8000620c	 x26:0x00000000 x18:0x00000000
       25915000	      2590	800061d8	29998393	addi	x7,x19,665	 x19:0x00000001  x7=0x0000029a
       25925000	      2591	800061dc	88ace137	lui	x2,0x88ace	  x2=0x88ace000
       25935000	      2592	800061e0	8022e313	ori	x6,x5,-2046	  x5:0x00000001  x6=0xfffff803
       25945000	      2593	800061e4	172f6b13	ori	x22,x30,370	 x30:0x8000a570 x22=0x8000a572
       25955000	      2594	800061e8	40a25393	srai	x7,x4,0xa	  x4:0xfffff813  x7=0xfffffffe
       25965000	      2595	800061ec	00a92c33	slt	x24,x18,x10	 x18:0x00000000 x10:0xffffffa4 x24=0x00000000
       25975000	      2596	800061f0	c63dc593	xori	x11,x27,-925	 x27:0x80009f24 x11=0x7fff6347
       25985000	      2597	800061f4	00efacb3	slt	x25,x31,x14	 x31:0x00000262 x14:0x00000000 x25=0x00000000
       25995000	      2598	800061f8	0156dc63	bge	x13,x21,80006210	 x13:0x80009b84 x21:0x00000001
       26005000	      2599	800061fc	01b534b3	sltu	x9,x10,x27	 x10:0xffffffa4 x27:0x80009f24  x9=0x00000000
       26015000	      2600	80006200	03ff5663	bge	x30,x31,8000622c	 x30:0x8000a570 x31:0x00000262
       26025000	      2601	80006204	00000013	addi	x0,x0,0	  x0:0x00000000
       26035000	      2602	80006208	02b3c863	blt	x7,x11,80006238	  x7:0xfffffffe x11:0x7fff6347
       26045000	      2603	00000000	00000013	addi	x0,x0,0	  x0:0x00000000
       26055000	      2604	80006234	00000013	addi	x0,x0,0	  x0:0x00000000
       26065000	      2605	80006238	a77caf13	slti	x30,x25,-1417	 x25:0x00000000 x30=0x00000000
       26075000	      2606	8000623c	02e24263	blt	x4,x14,80006260	  x4:0xfffff813 x14:0x00000000
       26085000	      2607	00000000	00000013	addi	x0,x0,0	  x0:0x00000000
       26095000	      2608	8000625c	00000013	addi	x0,x0,0	  x0:0x00000000
       26105000	      2609	80006260	00a6eeb3	or	x29,x13,x10	 x13:0x80009b84 x10:0xffffffa4 x29=0xffffffa4
       26115000	      2610	80006264	01864233	xor	x4,x12,x24	 x12:0x00000000 x24:0x00000000  x4=0x00000000
       26125000	      2611	80006268	01854533	xor	x10,x10,x24	 x10:0xffffffa4 x24:0x00000000 x10=0xffffffa4
       26135000	      2612	8000626c	02590063	beq	x18,x5,8000628c	 x18:0x00000000  x5:0x00000001
       26145000	      2613	80006270	57888197	auipc	x3,0x57888	  x3=0xd788e26c
       26155000	      2614	80006274	00e2d313	srli	x6,x5,0xe	  x5:0x00000001  x6=0x00000000
       26165000	      2615	80006278	4133dd33	sra	x26,x7,x19	  x7:0xfffffffe x19:0x00000001 x26=0xffffffff
       26175000	      2616	8000627c	02c08c63	beq	x1,x12,800062b4	  x1:0x00000000 x12:0x00000000
       26185000	      2617	00000000	00000013	addi	x0,x0,0	  x0:0x00000000
       26195000	      2618	800062b0	00000013	addi	x0,x0,0	  x0:0x00000000
       26205000	      2619	800062b4	1f5b8f13	addi	x30,x23,501	 x23:0x00000000 x30=0x000001f5
       26215000	      2620	800062b8	107de063	bltu	x27,x7,800063b8	 x27:0x80009f24  x7:0xfffffffe
       26225000	      2621	00000000	00000013	addi	x0,x0,0	  x0:0x00000000
       26235000	      2622	800063b4	00000013	addi	x0,x0,0	  x0:0x00000000
       26245000	      2623	800063b8	8a140b93	addi	x23,x8,-1887	  x8:0x00000000 x23=0xfffff8a1
       26255000	      2624	800063bc	05f17063	bgeu	x2,x31,800063fc	  x2:0x88ace000 x31:0x00000262
       26265000	      2625	00000000	00000013	addi	x0,x0,0	  x0:0x00000000
       26275000	      2626	800063f8	00000013	addi	x0,x0,0	  x0:0x00000000
       26285000	      2627	800063fc	01901d13	slli	x26,x0,0x19	  x0:0x00000000 x26=0x00000000
       26295000	      2628	80006400	60338393	addi	x7,x7,1539	  x7:0xfffffffe  x7=0x00000601
       26305000	      2629	80006404	e1cacc13	xori	x24,x21,-484	 x21:0x00000001 x24=0xfffffe1d
       26315000	      2630	80006408	036d0463	beq	x26,x22,80006430	 x26:0x00000000 x22:0x8000a572
       26325000	      2631	8000640c	01713233	sltu	x4,x2,x23	  x2:0x88ace000 x23:0xfffff8a1  x4=0x00000001
       26335000	      2632	80006410	01c707b3	add	x15,x14,x28	 x14:0x00000000 x28:0xabdfd000 x15=0xabdfd000
       26345000	      2633	80006414	00000013	addi	x0,x0,0	  x0:0x00000000
       26355000	      2634	80006418	41195bb3	sra	x23,x18,x17	 x18:0x00000000 x17:0x00000000 x23=0x00000000
       26365000	      2635	8000641c	b4457c93	andi	x25,x10,-1212	 x10:0xffffffa4 x25=0xfffffb04
       26375000	      2636	80006420	8f006e13	ori	x28,x0,-1808	  x0:0x00000000 x28=0xfffff8f0
       26385000	      2637	80006424	40825693	srai	x13,x4,0x8	  x4:0x00000001 x13=0x00000000
       26395000	      2638	80006428	40250eb3	sub	x29,x10,x2	 x10:0xffffffa4  x2:0x88ace000 x29=0x77531fa4
       26405000	      2639	8000642c	00e95f13	srli	x30,x18,0xe	 x18:0x00000000 x30=0x00000000
       26415000	      2640	80006430	01ee1a63	bne	x28,x30,80006444	 x28:0xfffff8f0 x30:0x00000000
       26425000	      2641	00000000	00000013	addi	x0,x0,0	  x0:0x00000000
       26435000	      2642	80006440	00000013	addi	x0,x0,0	  x0:0x00000000
       26445000	      2643	80006444	020f4a63	blt	x30,x0,80006478	 x30:0x00000000  x0:0x00000000
       26455000	      2644	80006448	403bd193	srai	x3,x23,0x3	 x23:0x00000000  x3=0x00000000
       26465000	      2645	8000644c	e31f67b7	lui	x15,0xe31f6	 x15=0xe31f6000
       26475000	      2646	80006450	00000013	addi	x0,x0,0	  x0:0x00000000
       26485000	      2647	80006454	325b7f13	andi	x30,x22,805	 x22:0x8000a572 x30=0x00000120
       26495000	      2648	80006458	01c35a33	srl	x20,x6,x28	  x6:0x00000000 x28:0xfffff8f0 x20=0x00000000
       26505000	      2649	8000645c	32cba993	slti	x19,x23,812	 x23:0x00000000 x19=0x00000001
       26515000	      2650	80006460	4a220a93	addi	x21,x4,1186	  x4:0x00000001 x21=0x000004a3
       26525000	      2651	80006464	028b0863	beq	x22,x8,80006494	 x22:0x8000a572  x8:0x00000000
       26535000	      2652	80006468	00f54d33	xor	x26,x10,x15	 x10:0xffffffa4 x15:0xe31f6000 x26=0x1ce09fa4
       26545000	      2653	8000646c	01091633	sll	x12,x18,x16	 x18:0x00000000 x16:0x80009fc4 x12=0x00000000
       26555000	      2654	80006470	00000013	addi	x0,x0,0	  x0:0x00000000
       26565000	      2655	80006474	00df4533	xor	x10,x30,x13	 x30:0x00000120 x13:0x00000000 x10=0x00000120
       26575000	      2656	80006478	ca14f013	andi	x0,x9,-863	  x9:0x00000000
       26585000	      2657	8000647c	03fddc63	bge	x27,x31,800064b4	 x27:0x80009f24 x31:0x00000262
       26595000	      2658	80006480	41af8133	sub	x2,x31,x26	 x31:0x00000262 x26:0x1ce09fa4  x2=0xe31f62be
       26605000	      2659	80006484	0466f463	bgeu	x13,x6,800064cc	 x13:0x00000000  x6:0x00000000
       26615000	      2660	00000000	00000013	addi	x0,x0,0	  x0:0x00000000
       26625000	      2661	800064c8	00000013	addi	x0,x0,0	  x0:0x00000000
       26635000	      2662	800064cc	0050fa63	bgeu	x1,x5,800064e0	  x1:0x00000000  x5:0x00000001
       26645000	      2663	800064d0	011a13b3	sll	x7,x20,x17	 x20:0x00000000 x17:0x00000000  x7=0x00000000
       26655000	      2664	800064d4	407708b3	sub	x17,x14,x7	 x14:0x00000000  x7:0x00000000 x17=0x00000000
       26665000	      2665	800064d8	4e322e13	slti	x28,x4,1251	  x4:0x00000001 x28=0x00000001
       26675000	      2666	800064dc	0108de33	srl	x28,x17,x16	 x17:0x00000000 x16:0x80009fc4 x28=0x00000000
       26685000	      2667	800064e0	0244f463	bgeu	x9,x4,80006508	  x9:0x00000000  x4:0x00000001
       26695000	      2668	800064e4	046f5063	bge	x30,x6,80006524	 x30:0x00000120  x6:0x00000000
       26705000	      2669	00000000	00000013	addi	x0,x0,0	  x0:0x00000000
       26715000	      2670	80006520	00000013	addi	x0,x0,0	  x0:0x00000000
       26725000	      2671	80006524	00000013	addi	x0,x0,0	  x0:0x00000000
       26735000	      2672	80006528	04ed1463	bne	x26,x14,80006570	 x26:0x1ce09fa4 x14:0x00000000
       26745000	      2673	00000000	00000013	addi	x0,x0,0	  x0:0x00000000
       26755000	      2674	8000656c	00000013	addi	x0,x0,0	  x0:0x00000000
       26765000	      2675	80006570	ee970393	addi	x7,x14,-279	 x14:0x00000000  x7=0xfffffee9
       26775000	      2676	80006574	48c196b7	lui	x13,0x48c19	 x13=0x48c19000
       26785000	      2677	80006578	029e0863	beq	x28,x9,800065a8	 x28:0x00000000  x9:0x00000000
       26795000	      2678	00000000	00000013	addi	x0,x0,0	  x0:0x00000000
       26805000	      2679	800065a4	00000013	addi	x0,x0,0	  x0:0x00000000
       26815000	      2680	800065a8	01ed1133	sll	x2,x26,x30	 x26:0x1ce09fa4 x30:0x00000120  x2=0x1ce09fa4
       26825000	      2681	800065ac	00a92a33	slt	x20,x18,x10	 x18:0x00000000 x10:0x00000120 x20=0x00000001
       26835000	      2682	800065b0	00e266b3	or	x13,x4,x14	  x4:0x00000001 x14:0x00000000 x13=0x00000001
       26845000	      2683	800065b4	01946733	or	x14,x8,x25	  x8:0x00000000 x25:0xfffffb04 x14=0xfffffb04
       26855000	      2684	800065b8	34a3d297	auipc	x5,0x34a3d	  x5=0xb4a435b4
       26865000	      2685	800065bc	fab8ba13	sltiu	x20,x17,-85	 x17:0x00000000 x20=0x00000001
       26875000	      2686	800065c0	00a637b3	sltu	x15,x12,x10	 x12:0x00000000 x10:0x00000120 x15=0x00000001
       26885000	      2687	800065c4	017b1663	bne	x22,x23,800065d0	 x22:0x8000a572 x23:0x00000000
       26895000	      2688	00000000	00000013	addi	x0,x0,0	  x0:0x00000000
       26905000	      2689	800065cc	00000013	addi	x0,x0,0	  x0:0x00000000
       26915000	      2690	800065d0	400e5293	srai	x5,x28,0x0	 x28:0x00000000  x5=0x00000000
       26925000	      2691	800065d4	00e691b3	sll	x3,x13,x14	 x13:0x00000001 x14:0xfffffb04  x3=0x00000010
       26935000	      2692	800065d8	0db35c63	bge	x6,x27,800066b0	  x6:0x00000000 x27:0x80009f24
       26945000	      2693	00000000	00000013	addi	x0,x0,0	  x0:0x00000000
       26955000	      2694	800066ac	00000013	addi	x0,x0,0	  x0:0x00000000
       26965000	      2695	800066b0	011d6bb3	or	x23,x26,x17	 x26:0x1ce09fa4 x17:0x00000000 x23=0x1ce09fa4
       26975000	      2696	800066b4	0179d133	srl	x2,x19,x23	 x19:0x00000001 x23:0x1ce09fa4  x2=0x00000000
       26985000	      2697	800066b8	015b1333	sll	x6,x22,x21	 x22:0x8000a572 x21:0x000004a3  x6=0x00052b90
       26995000	      2698	800066bc	01c94a63	blt	x18,x28,800066d0	 x18:0x00000000 x28:0x00000000
       27005000	      2699	800066c0	012c1e33	sll	x28,x24,x18	 x24:0xfffffe1d x18:0x00000000 x28=0xfffffe1d
       27015000	      2700	800066c4	04440863	beq	x8,x4,80006714	  x8:0x00000000  x4:0x00000001
       27025000	      2701	800066c8	03f2ca63	blt	x5,x31,800066fc	  x5:0x00000000 x31:0x00000262
       27035000	      2702	00000000	00000013	addi	x0,x0,0	  x0:0x00000000
       27045000	      2703	800066f8	00000013	addi	x0,x0,0	  x0:0x00000000
       27055000	      2704	800066fc	00f43d33	sltu	x26,x8,x15	  x8:0x00000000 x15:0x00000001 x26=0x00000001
       27065000	      2705	80006700	c69caf93	slti	x31,x25,-919	 x25:0xfffffb04 x31=0x00000001
       27075000	      2706	80006704	001bb033	sltu	x0,x23,x1	 x23:0x1ce09fa4  x1:0x00000000
       27085000	      2707	80006708	01304ab3	xor	x21,x0,x19	  x0:0x00000000 x19:0x00000001 x21=0x00000001
       27095000	      2708	8000670c	05607063	bgeu	x0,x22,8000674c	  x0:0x00000000 x22:0x8000a572
       27105000	      2709	80006710	40d25393	srai	x7,x4,0xd	  x4:0x00000001  x7=0x00000000
       27115000	      2710	80006714	017dde13	srli	x28,x27,0x17	 x27:0x80009f24 x28=0x00000100
       27125000	      2711	80006718	8a712393	slti	x7,x2,-1881	  x2:0x00000000  x7=0x00000000
       27135000	      2712	8000671c	07d2d663	bge	x5,x29,80006788	  x5:0x00000000 x29:0x77531fa4
       27145000	      2713	80006720	ee67c213	xori	x4,x15,-282	 x15:0x00000001  x4=0xfffffee7
       27155000	      2714	80006724	014a3fb3	sltu	x31,x20,x20	 x20:0x00000001 x20:0x00000001 x31=0x00000000
       27165000	      2715	80006728	4184d4b3	sra	x9,x9,x24	  x9:0x00000000 x24:0xfffffe1d  x9=0x00000000
       27175000	      2716	8000672c	4e65c417	auipc	x8,0x4e65c	  x8=0xce662728
       27185000	      2717	80006730	01ec9b33	sll	x22,x25,x30	 x25:0xfffffb04 x30:0x00000120 x22=0xfffffb04
       27195000	      2718	80006734	00cec233	xor	x4,x29,x12	 x29:0x77531fa4 x12:0x00000000  x4=0x77531fa4
       27205000	      2719	80006738	c4e52a13	slti	x20,x10,-946	 x10:0x00000120 x20=0x00000000
       27215000	      2720	8000673c	01e75793	srli	x15,x14,0x1e	 x14:0xfffffb04 x15=0x00000003
       27225000	      2721	80006740	008aed33	or	x26,x21,x8	 x21:0x00000001  x8:0xce662728 x26=0xce662729
       27235000	      2722	80006744	01ff4133	xor	x2,x30,x31	 x30:0x00000120 x31:0x00000000  x2=0x00000120
       27245000	      2723	80006748	00549a13	slli	x20,x9,0x5	  x9:0x00000000 x20=0x00000000
       27255000	      2724	8000674c	014f7433	and	x8,x30,x20	 x30:0x00000120 x20:0x00000000  x8=0x00000000
       27265000	      2725	80006750	be5147b7	lui	x15,0xbe514	 x15=0xbe514000
       27275000	      2726	80006754	06a8c463	blt	x17,x10,800067bc	 x17:0x00000000 x10:0x00000120
       27285000	      2727	00000000	00000013	addi	x0,x0,0	  x0:0x00000000
       27295000	      2728	800067b8	00000013	addi	x0,x0,0	  x0:0x00000000
       27305000	      2729	800067bc	41938b33	sub	x22,x7,x25	  x7:0x00000000 x25:0xfffffb04 x22=0x000004fc
       27315000	      2730	800067c0	00000013	addi	x0,x0,0	  x0:0x00000000
       27325000	      2731	800067c4	70f46793	ori	x15,x8,1807	  x8:0x00000000 x15=0x0000070f
       27335000	      2732	800067c8	017c33b3	sltu	x7,x24,x23	 x24:0xfffffe1d x23:0x1ce09fa4  x7=0x00000000
       27345000	      2733	800067cc	00105233	srl	x4,x0,x1	  x0:0x00000000  x1:0x00000000  x4=0x00000000
       27355000	      2734	800067d0	631feb13	ori	x22,x31,1585	 x31:0x00000000 x22=0x00000631
       27365000	      2735	800067d4	6dfd1037	lui	x0,0x6dfd1	
       27375000	      2736	800067d8	410a88b3	sub	x17,x21,x16	 x21:0x00000001 x16:0x80009fc4 x17=0x7fff603d
       27385000	      2737	800067dc	00c68663	beq	x13,x12,800067e8	 x13:0x00000001 x12:0x00000000
       27395000	      2738	800067e0	005ce933	or	x18,x25,x5	 x25:0xfffffb04  x5:0x00000000 x18=0xfffffb04
       27405000	      2739	800067e4	69a57513	andi	x10,x10,1690	 x10:0x00000120 x10=0x00000000
       27415000	      2740	800067e8	036c4a63	blt	x24,x22,8000681c	 x24:0xfffffe1d x22:0x00000631
       27425000	      2741	00000000	00000013	addi	x0,x0,0	  x0:0x00000000
       27435000	      2742	80006818	00000013	addi	x0,x0,0	  x0:0x00000000
       27445000	      2743	8000681c	00de9693	slli	x13,x29,0xd	 x29:0x77531fa4 x13=0x63f48000
       27455000	      2744	80006820	00000013	addi	x0,x0,0	  x0:0x00000000
       27465000	      2745	80006824	00bb8233	add	x4,x23,x11	 x23:0x1ce09fa4 x11:0x7fff6347  x4=0x9ce002eb
       27475000	      2746	80006828	d5cb62b7	lui	x5,0xd5cb6	  x5=0xd5cb6000
       27485000	      2747	8000682c	00efde63	bge	x31,x14,80006848	 x31:0x00000000 x14:0xfffffb04
       27495000	      2748	00000000	00000013	addi	x0,x0,0	  x0:0x00000000
       27505000	      2749	80006844	00000013	addi	x0,x0,0	  x0:0x00000000
       27515000	      2750	80006848	c9103493	sltiu	x9,x0,-879	  x0:0x00000000  x9=0x00000001
       27525000	      2751	8000684c	004b0a63	beq	x22,x4,80006860	 x22:0x00000631  x4:0x9ce002eb
       27535000	      2752	80006850	41c78f33	sub	x30,x15,x28	 x15:0x0000070f x28:0x00000100 x30=0x0000060f
       27545000	      2753	80006854	004fb333	sltu	x6,x31,x4	 x31:0x00000000  x4:0x9ce002eb  x6=0x00000001
       27555000	      2754	80006858	41fd5033	sra	x0,x26,x31	 x26:0xce662729 x31:0x00000000
       27565000	      2755	8000685c	03f08263	beq	x1,x31,80006880	  x1:0x00000000 x31:0x00000000
       27575000	      2756	00000000	00000013	addi	x0,x0,0	  x0:0x00000000
       27585000	      2757	8000687c	00000013	addi	x0,x0,0	  x0:0x00000000
       27595000	      2758	80006880	04014863	blt	x2,x0,800068d0	  x2:0x00000120  x0:0x00000000
       27605000	      2759	80006884	943b5497	auipc	x9,0x943b5	  x9=0x143bb880
       27615000	      2760	80006888	d1ca9e17	auipc	x28,0xd1ca9	 x28=0x51caf884
       27625000	      2761	8000688c	008dee63	bltu	x27,x8,800068a8	 x27:0x80009f24  x8:0x00000000
       27635000	      2762	80006890	03a28c63	beq	x5,x26,800068c8	  x5:0xd5cb6000 x26:0xce662729
       27645000	      2763	80006894	00000013	addi	x0,x0,0	  x0:0x00000000
       27655000	      2764	80006898	002e9193	slli	x3,x29,0x2	 x29:0x77531fa4  x3=0xdd4c7e90
       27665000	      2765	8000689c	fa646313	ori	x6,x8,-90	  x8:0x00000000  x6=0xffffffa6
       27675000	      2766	800068a0	02b11663	bne	x2,x11,800068cc	  x2:0x00000120 x11:0x7fff6347
       27685000	      2767	00000000	00000013	addi	x0,x0,0	  x0:0x00000000
       27695000	      2768	800068c8	00000013	addi	x0,x0,0	  x0:0x00000000
       27705000	      2769	800068cc	055cd263	bge	x25,x21,80006910	 x25:0xfffffb04 x21:0x00000001
       27715000	      2770	800068d0	40335e13	srai	x28,x6,0x3	  x6:0xffffffa6 x28=0xfffffff4
       27725000	      2771	800068d4	7c57ec93	ori	x25,x15,1989	 x15:0x0000070f x25=0x000007cf
       27735000	      2772	800068d8	26877e13	andi	x28,x14,616	 x14:0xfffffb04 x28=0x00000200
       27745000	      2773	800068dc	6af98113	addi	x2,x19,1711	 x19:0x00000001  x2=0x000006b0
       27755000	      2774	800068e0	00f305b3	add	x11,x6,x15	  x6:0xffffffa6 x15:0x0000070f x11=0x000006b5
       27765000	      2775	800068e4	00207a63	bgeu	x0,x2,800068f8	  x0:0x00000000  x2:0x000006b0
       27775000	      2776	800068e8	02b2e063	bltu	x5,x11,80006908	  x5:0xd5cb6000 x11:0x000006b5
       27785000	      2777	800068ec	025a8863	beq	x21,x5,8000691c	 x21:0x00000001  x5:0xd5cb6000
       27795000	      2778	800068f0	44987f13	andi	x30,x16,1097	 x16:0x80009fc4 x30=0x00000440
       27805000	      2779	800068f4	00941b93	slli	x23,x8,0x9	  x8:0x00000000 x23=0x00000000
       27815000	      2780	800068f8	00000013	addi	x0,x0,0	  x0:0x00000000
       27825000	      2781	800068fc	499ca493	slti	x9,x25,1177	 x25:0x000007cf  x9=0x00000000
       27835000	      2782	80006900	23600b93	addi	x23,x0,566	  x0:0x00000000 x23=0x00000236
       27845000	      2783	80006904	00e2a8b3	slt	x17,x5,x14	  x5:0xd5cb6000 x14:0xfffffb04 x17=0x00000001
       27855000	      2784	80006908	0ef77713	andi	x14,x14,239	 x14:0xfffffb04 x14=0x00000004
       27865000	      2785	8000690c	31e7e737	lui	x14,0x31e7e	 x14=0x31e7e000
       27875000	      2786	80006910	01afa5b3	slt	x11,x31,x26	 x31:0x00000000 x26:0xce662729 x11=0x00000000
       27885000	      2787	80006914	00ad5113	srli	x2,x26,0xa	 x26:0xce662729  x2=0x00339989
       27895000	      2788	80006918	007cbcb3	sltu	x25,x25,x7	 x25:0x000007cf  x7:0x00000000 x25=0x00000000
       27905000	      2789	8000691c	05167463	bgeu	x12,x17,80006964	 x12:0x00000000 x17:0x00000001
       27915000	      2790	80006920	00369f93	slli	x31,x13,0x3	 x13:0x63f48000 x31=0x1fa40000
       27925000	      2791	80006924	79df7a13	andi	x20,x30,1949	 x30:0x00000440 x20=0x00000400
       27935000	      2792	80006928	2cca4893	xori	x17,x20,716	 x20:0x00000400 x17=0x000006cc
       27945000	      2793	8000692c	01e01493	slli	x9,x0,0x1e	  x0:0x00000000  x9=0x00000000
       27955000	      2794	80006930	04559263	bne	x11,x5,80006974	 x11:0x00000000  x5:0xd5cb6000
       27965000	      2795	00000000	00000013	addi	x0,x0,0	  x0:0x00000000
       27975000	      2796	80006970	00000013	addi	x0,x0,0	  x0:0x00000000
       27985000	      2797	80006974	4d404d13	xori	x26,x0,1236	  x0:0x00000000 x26=0x000004d4
       27995000	      2798	80006978	00000013	addi	x0,x0,0	  x0:0x00000000
       28005000	      2799	8000697c	4583bb13	sltiu	x22,x7,1112	  x7:0x00000000 x22=0x00000001
       28015000	      2800	80006980	01ac7a63	bgeu	x24,x26,80006994	 x24:0xfffffe1d x26:0x000004d4
       28025000	      2801	00000000	00000013	addi	x0,x0,0	  x0:0x00000000
       28035000	      2802	80006990	00000013	addi	x0,x0,0	  x0:0x00000000
       28045000	      2803	80006994	00000013	addi	x0,x0,0	  x0:0x00000000
       28055000	      2804	80006998	4c40bb17	auipc	x22,0x4c40b	 x22=0xcc411994
       28065000	      2805	8000699c	62733693	sltiu	x13,x6,1575	  x6:0xffffffa6 x13=0x00000000
       28075000	      2806	800069a0	541def93	ori	x31,x27,1345	 x27:0x80009f24 x31=0x80009f65
       28085000	      2807	800069a4	03e79a63	bne	x15,x30,800069d8	 x15:0x0000070f x30:0x00000440
       28095000	      2808	00000000	00000013	addi	x0,x0,0	  x0:0x00000000
       28105000	      2809	800069d4	00000013	addi	x0,x0,0	  x0:0x00000000
       28115000	      2810	800069d8	0063f033	and	x0,x7,x6	  x7:0x00000000  x6:0xffffffa6
       28125000	      2811	800069dc	00000013	addi	x0,x0,0	  x0:0x00000000
       28135000	      2812	800069e0	ebf6aa13	slti	x20,x13,-321	 x13:0x00000000 x20=0x00000000
       28145000	      2813	800069e4	04fe8263	beq	x29,x15,80006a28	 x29:0x77531fa4 x15:0x0000070f
       28155000	      2814	800069e8	009d0eb3	add	x29,x26,x9	 x26:0x000004d4  x9:0x00000000 x29=0x000004d4
       28165000	      2815	800069ec	03a17c63	bgeu	x2,x26,80006a24	  x2:0x00339989 x26:0x000004d4
       28175000	      2816	00000000	00000013	addi	x0,x0,0	  x0:0x00000000
       28185000	      2817	80006a20	00000013	addi	x0,x0,0	  x0:0x00000000
       28195000	      2818	80006a24	0282c863	blt	x5,x8,80006a54	  x5:0xd5cb6000  x8:0x00000000
       28205000	      2819	00000000	00000013	addi	x0,x0,0	  x0:0x00000000
       28215000	      2820	80006a50	00000013	addi	x0,x0,0	  x0:0x00000000
       28225000	      2821	80006a54	01c90033	add	x0,x18,x28	 x18:0xfffffb04 x28:0x00000200
       28235000	      2822	80006a58	00139e93	slli	x29,x7,0x1	  x7:0x00000000 x29=0x00000000
       28245000	      2823	80006a5c	4021df93	srai	x31,x3,0x2	  x3:0xdd4c7e90 x31=0xf7531fa4
       28255000	      2824	80006a60	cc8f3c13	sltiu	x24,x30,-824	 x30:0x00000440 x24=0x00000001
       28265000	      2825	80006a64	404b5113	srai	x2,x22,0x4	 x22:0xcc411994  x2=0xfcc41199
       28275000	      2826	80006a68	011ee9b3	or	x19,x29,x17	 x29:0x00000000 x17:0x000006cc x19=0x000006cc
       28285000	      2827	80006a6c	016413b3	sll	x7,x8,x22	  x8:0x00000000 x22:0xcc411994  x7=0x00000000
       28295000	      2828	80006a70	00a9d113	srli	x2,x19,0xa	 x19:0x000006cc  x2=0x00000001
       28305000	      2829	80006a74	040bf063	bgeu	x23,x0,80006ab4	 x23:0x00000236  x0:0x00000000
       28315000	      2830	00000000	00000013	addi	x0,x0,0	  x0:0x00000000
       28325000	      2831	80006ab0	00000013	addi	x0,x0,0	  x0:0x00000000
       28335000	      2832	80006ab4	01ed7433	and	x8,x26,x30	 x26:0x000004d4 x30:0x00000440  x8=0x00000440
       28345000	      2833	80006ab8	11044f17	auipc	x30,0x11044	 x30=0x9104aab4
       28355000	      2834	80006abc	00bc7e33	and	x28,x24,x11	 x24:0x00000001 x11:0x00000000 x28=0x00000000
       28365000	      2835	80006ac0	012009b3	add	x19,x0,x18	  x0:0x00000000 x18:0xfffffb04 x19=0xfffffb04
       28375000	      2836	80006ac4	05751263	bne	x10,x23,80006b08	 x10:0x00000000 x23:0x00000236
       28385000	      2837	00000000	00000013	addi	x0,x0,0	  x0:0x00000000
       28395000	      2838	80006b04	00000013	addi	x0,x0,0	  x0:0x00000000
       28405000	      2839	80006b08	410ad713	srai	x14,x21,0x10	 x21:0x00000001 x14=0x00000000
       28415000	      2840	80006b0c	00000013	addi	x0,x0,0	  x0:0x00000000
       28425000	      2841	80006b10	004da903	lw	x18,4(x27)	 x27:0x80009f24 x18=0x80004ed0 PA:0x80009f28
       28435000	      2842	80006b14	40a20333	sub	x6,x4,x10	  x4:0x9ce002eb x10:0x00000000  x6=0x9ce002eb
       28445000	      2843	80006b18	01b55d13	srli	x26,x10,0x1b	 x10:0x00000000 x26=0x00000000
       28455000	      2844	80006b1c	00000013	addi	x0,x0,0	  x0:0x00000000
       28465000	      2845	80006b20	01386d33	or	x26,x16,x19	 x16:0x80009fc4 x19:0xfffffb04 x26=0xffffffc4
       28475000	      2846	80006b24	e8476413	ori	x8,x14,-380	 x14:0x00000000  x8=0xfffffe84
       28485000	      2847	80006b28	010d8d93	addi	x27,x27,16	 x27:0x80009f24 x27=0x80009f34
       28495000	      2848	80006b2c	01fda4b3	slt	x9,x27,x31	 x27:0x80009f34 x31:0xf7531fa4  x9=0x00000001
       28505000	      2849	80006b30	00190c93	addi	x25,x18,1	 x18:0x80004ed0 x25=0x80004ed1
       28515000	      2850	80006b34	000c8ce7	jalr	x25,x25,0	 x25:0x80004ed1 x25=0x80006b34
       28525000	      2851	00000000	00000013	addi	x0,x0,0	  x0:0x00000000
       28535000	      2852	80004ed0	00000013	addi	x0,x0,0	  x0:0x00000000
       28545000	      2853	80004ed4	00003797	auipc	x15,0x3	 x15=0x80007ed0
       28555000	      2854	80004ed8	44b78793	addi	x15,x15,1099	 x15:0x80007ed0 x15=0x8000831b
       28565000	      2855	80004edc	007abe33	sltu	x28,x21,x7	 x21:0x00000001  x7:0x00000000 x28=0x00000000
       28575000	      2856	80004ee0	0bb78823	sb	x27,176(x15)	 x15:0x8000831b x27:0x80009f34 PA:0x800083cb
       28585000	      2857	80004ee4	3bbb2a93	slti	x21,x22,955	 x22:0xcc411994 x21=0x00000001
       28595000	      2858	80004ee8	4d2e0a93	addi	x21,x28,1234	 x28:0x00000000 x21=0x000004d2
       28605000	      2859	80004eec	ec690f93	addi	x31,x18,-314	 x18:0x80004ed0 x31=0x80004d96
       28615000	      2860	80004ef0	00eddc13	srli	x24,x27,0xe	 x27:0x80009f34 x24=0x00020002
       28625000	      2861	80004ef4	5bfe8313	addi	x6,x29,1471	 x29:0x00000000  x6=0x000005bf
       28635000	      2862	80004ef8	9c1b8413	addi	x8,x23,-1599	 x23:0x00000236  x8=0xfffffbf7
       28645000	      2863	80004efc	00c78b03	lb	x22,12(x15)	 x15:0x8000831b x22=0xffffffa6 PA:0x80008327
       28655000	      2864	80004f00	0063dc33	srl	x24,x7,x6	  x7:0x00000000  x6:0x000005bf x24=0x00000000
       28665000	      2865	80004f04	003fd6b3	srl	x13,x31,x3	 x31:0x80004d96  x3:0xdd4c7e90 x13=0x00008000
       28675000	      2866	80004f08	f0f78903	lb	x18,-241(x15)	 x15:0x8000831b x18=0x00000062 PA:0x8000822a
       28685000	      2867	80004f0c	41325133	sra	x2,x4,x19	  x4:0x9ce002eb x19:0xfffffb04  x2=0xf9ce002e
       28695000	      2868	80004f10	00278433	add	x8,x15,x2	 x15:0x8000831b  x2:0xf9ce002e  x8=0x79ce8349
       28705000	      2869	80004f14	00b78fa3	sb	x11,31(x15)	 x15:0x8000831b x11:0x00000000 PA:0x8000833a
       28715000	      2870	80004f18	f7c78c03	lb	x24,-132(x15)	 x15:0x8000831b x24=0x00000000 PA:0x80008297
       28725000	      2871	80004f1c	415bdf13	srai	x30,x23,0x15	 x23:0x00000236 x30=0x00000000
       28735000	      2872	80004f20	00148f33	add	x30,x9,x1	  x9:0x00000001  x1:0x00000000 x30=0x00000001
       28745000	      2873	80004f24	00000013	addi	x0,x0,0	  x0:0x00000000
       28755000	      2874	80004f28	01d9d313	srli	x6,x19,0x1d	 x19:0xfffffb04  x6=0x00000007
       28765000	      2875	80004f2c	015c4e33	xor	x28,x24,x21	 x24:0x00000000 x21:0x000004d2 x28=0x000004d2
       28775000	      2876	80004f30	0137da03	lhu	x20,19(x15)	 x15:0x8000831b x20=0x00000f6c PA:0x8000832e
       28785000	      2877	80004f34	00e6f133	and	x2,x13,x14	 x13:0x00008000 x14:0x00000000  x2=0x00000000
       28795000	      2878	80004f38	fc878203	lb	x4,-56(x15)	 x15:0x8000831b  x4=0xfffffffb PA:0x800082e3
       28805000	      2879	80004f3c	ffc78403	lb	x8,-4(x15)	 x15:0x8000831b  x8=0x00000029 PA:0x80008317
       28815000	      2880	80004f40	0de793a3	sh	x30,199(x15)	 x15:0x8000831b x30:0x00000001 PA:0x800083e2
       28825000	      2881	80004f44	03a78703	lb	x14,58(x15)	 x15:0x8000831b x14=0xffffffa4 PA:0x80008355
       28835000	      2882	80004f48	005c7733	and	x14,x24,x5	 x24:0x00000000  x5:0xd5cb6000 x14=0x00000000
       28845000	      2883	80004f4c	40fa0133	sub	x2,x20,x15	 x20:0x00000f6c x15:0x8000831b  x2=0x7fff8c51
       28855000	      2884	80004f50	07d7c703	lbu	x14,125(x15)	 x15:0x8000831b x14=0x0000005a PA:0x80008398
       28865000	      2885	80004f54	009cdf93	srli	x31,x25,0x9	 x25:0x80006b34 x31=0x00400035
       28875000	      2886	80004f58	0093f333	and	x6,x7,x9	  x7:0x00000000  x9:0x00000001  x6=0x00000000
       28885000	      2887	80004f5c	0b6793a3	sh	x22,167(x15)	 x15:0x8000831b x22:0xffffffa6 PA:0x800083c2
       28895000	      2888	80004f60	0b17d603	lhu	x12,177(x15)	 x15:0x8000831b x12=0x0000518d PA:0x800083cc
       28905000	      2889	80004f64	0ae79da3	sh	x14,187(x15)	 x15:0x8000831b x14:0x0000005a PA:0x800083d6
       28915000	      2890	80004f68	002dd593	srli	x11,x27,0x2	 x27:0x80009f34 x11=0x200027cd
       28925000	      2891	80004f6c	f0779b03	lh	x22,-249(x15)	 x15:0x8000831b x22=0x000016dd PA:0x80008222
       28935000	      2892	80004f70	42d38a13	addi	x20,x7,1069	  x7:0x00000000 x20=0x0000042d
       28945000	      2893	80004f74	40e288b3	sub	x17,x5,x14	  x5:0xd5cb6000 x14:0x0000005a x17=0xd5cb5fa6
       28955000	      2894	80004f78	00894733	xor	x14,x18,x8	 x18:0x00000062  x8:0x00000029 x14=0x0000004b
       28965000	      2895	80004f7c	00000013	addi	x0,x0,0	  x0:0x00000000
       28975000	      2896	80004f80	00fd6033	or	x0,x26,x15	 x26:0xffffffc4 x15:0x8000831b
       28985000	      2897	80004f84	01559263	bne	x11,x21,80004f88	 x11:0x200027cd x21:0x000004d2
       28995000	      2898	00000000	00000013	addi	x0,x0,0	  x0:0x00000000
       29005000	      2899	80004f84	00000013	addi	x0,x0,0	  x0:0x00000000
       29015000	      2900	80004f88	01ae4463	blt	x28,x26,80004f90	 x28:0x000004d2 x26:0xffffffc4
       29025000	      2901	80004f8c	01540933	add	x18,x8,x21	  x8:0x00000029 x21:0x000004d2 x18=0x000004fb
       29035000	      2902	80004f90	410f5ab3	sra	x21,x30,x16	 x30:0x00000001 x16:0x80009fc4 x21=0x00000000
       29045000	      2903	80004f94	004e0333	add	x6,x28,x4	 x28:0x000004d2  x4:0xfffffffb  x6=0x000004cd
       29055000	      2904	80004f98	fc934893	xori	x17,x6,-55	  x6:0x000004cd x17=0xfffffb04
       29065000	      2905	80004f9c	00c5f863	bgeu	x11,x12,80004fac	 x11:0x200027cd x12:0x0000518d
       29075000	      2906	00000000	00000013	addi	x0,x0,0	  x0:0x00000000
       29085000	      2907	80004fa8	00000013	addi	x0,x0,0	  x0:0x00000000
       29095000	      2908	80004fac	000bd713	srli	x14,x23,0x0	 x23:0x00000236 x14=0x00000236
       29105000	      2909	80004fb0	00969533	sll	x10,x13,x9	 x13:0x00008000  x9:0x00000001 x10=0x00010000
       29115000	      2910	80004fb4	302c6013	ori	x0,x24,770	 x24:0x00000000
       29125000	      2911	80004fb8	66ddae93	slti	x29,x27,1645	 x27:0x80009f34 x29=0x00000001
       29135000	      2912	80004fbc	02ab5263	bge	x22,x10,80004fe0	 x22:0x000016dd x10:0x00010000
       29145000	      2913	80004fc0	9636e617	auipc	x12,0x9636e	 x12=0x16372fbc
       29155000	      2914	80004fc4	00ccb7b3	sltu	x15,x25,x12	 x25:0x80006b34 x12:0x16372fbc x15=0x00000000
       29165000	      2915	80004fc8	f1a86613	ori	x12,x16,-230	 x16:0x80009fc4 x12=0xffffffde
       29175000	      2916	80004fcc	041cc263	blt	x25,x1,80005010	 x25:0x80006b34  x1:0x00000000
       29185000	      2917	00000000	00000013	addi	x0,x0,0	  x0:0x00000000
       29195000	      2918	8000500c	00000013	addi	x0,x0,0	  x0:0x00000000
       29205000	      2919	80005010	40415933	sra	x18,x2,x4	  x2:0x7fff8c51  x4:0xfffffffb x18=0x0000000f
       29215000	      2920	80005014	00d9d613	srli	x12,x19,0xd	 x19:0xfffffb04 x12=0x0007ffff
       29225000	      2921	80005018	01ca7bb3	and	x23,x20,x28	 x20:0x0000042d x28:0x000004d2 x23=0x00000400
       29235000	      2922	8000501c	5f4b3693	sltiu	x13,x22,1524	 x22:0x000016dd x13=0x00000000
       29245000	      2923	80005020	41fc5f33	sra	x30,x24,x31	 x24:0x00000000 x31:0x00400035 x30=0x00000000
       29255000	      2924	80005024	5c704c93	xori	x25,x0,1479	  x0:0x00000000 x25=0x000005c7
       29265000	      2925	80005028	0b1be313	ori	x6,x23,177	 x23:0x00000400  x6=0x000004b1
       29275000	      2926	8000502c	00000013	addi	x0,x0,0	  x0:0x00000000
       29285000	      2927	80005030	052cf663	bgeu	x25,x18,8000507c	 x25:0x000005c7 x18:0x0000000f
       29295000	      2928	00000000	00000013	addi	x0,x0,0	  x0:0x00000000
       29305000	      2929	80005078	00000013	addi	x0,x0,0	  x0:0x00000000
       29315000	      2930	8000507c	00b34033	xor	x0,x6,x11	  x6:0x000004b1 x11:0x200027cd
       29325000	      2931	80005080	01172133	slt	x2,x14,x17	 x14:0x00000236 x17:0xfffffb04  x2=0x00000000
       29335000	      2932	80005084	00baf9b3	and	x19,x21,x11	 x21:0x00000000 x11:0x200027cd x19=0x00000000
       29345000	      2933	80005088	00828433	add	x8,x5,x8	  x5:0xd5cb6000  x8:0x00000029  x8=0xd5cb6029
       29355000	      2934	8000508c	0037d293	srli	x5,x15,0x3	 x15:0x00000000  x5=0x00000000
       29365000	      2935	80005090	003ffab3	and	x21,x31,x3	 x31:0x00400035  x3:0xdd4c7e90 x21=0x00400010
       29375000	      2936	80005094	0170b6b3	sltu	x13,x1,x23	  x1:0x00000000 x23:0x00000400 x13=0x00000001
       29385000	      2937	80005098	019e5bb3	srl	x23,x28,x25	 x28:0x000004d2 x25:0x000005c7 x23=0x00000009
       29395000	      2938	8000509c	00f90c63	beq	x18,x15,800050b4	 x18:0x0000000f x15:0x00000000
       29405000	      2939	800050a0	961ccf93	xori	x31,x25,-1695	 x25:0x000005c7 x31=0xfffffca6
       29415000	      2940	800050a4	404dd913	srai	x18,x27,0x4	 x27:0x80009f34 x18=0xf80009f3
       29425000	      2941	800050a8	01a7ad33	slt	x26,x15,x26	 x15:0x00000000 x26:0xffffffc4 x26=0x00000000
       29435000	      2942	800050ac	004835b3	sltu	x11,x16,x4	 x16:0x80009fc4  x4:0xfffffffb x11=0x00000001
       29445000	      2943	800050b0	006f5733	srl	x14,x30,x6	 x30:0x00000000  x6:0x000004b1 x14=0x00000000
       29455000	      2944	800050b4	713ddf97	auipc	x31,0x713dd	 x31=0xf13e20b0
       29465000	      2945	800050b8	b2ee8597	auipc	x11,0xb2ee8	 x11=0x32eed0b4
       29475000	      2946	800050bc	00085793	srli	x15,x16,0x0	 x16:0x80009fc4 x15=0x80009fc4
       29485000	      2947	800050c0	016f5eb3	srl	x29,x30,x22	 x30:0x00000000 x22:0x000016dd x29=0x00000000
       29495000	      2948	800050c4	17221b37	lui	x22,0x17221	 x22=0x17221000
       29505000	      2949	800050c8	40c752b3	sra	x5,x14,x12	 x14:0x00000000 x12:0x0007ffff  x5=0x00000000
       29515000	      2950	800050cc	ffffc897	auipc	x17,0xffffc	 x17=0x800010c8
       29525000	      2951	800050d0	f4088893	addi	x17,x17,-192	 x17:0x800010c8 x17=0x80001008
       29535000	      2952	800050d4	008a9bb3	sll	x23,x21,x8	 x21:0x00400010  x8:0xd5cb6029 x23=0x80002000
       29545000	      2953	800050d8	f3988893	addi	x17,x17,-199	 x17:0x80001008 x17=0x80000f41
       29555000	      2954	800050dc	cf1ae493	ori	x9,x21,-783	 x21:0x00400010  x9=0xfffffcf1
       29565000	      2955	800050e0	0164ca33	xor	x20,x9,x22	  x9:0xfffffcf1 x22:0x17221000 x20=0xe8ddecf1
       29575000	      2956	800050e4	0c888967	jalr	x18,x17,200	 x17:0x80000f41 x18=0x800050e4
       29585000	      2957	00000000	00000013	addi	x0,x0,0	  x0:0x00000000
       29595000	      2958	80001008	00000013	addi	x0,x0,0	  x0:0x00000000
       29605000	      2959	8000100c	fc8d8d93	addi	x27,x27,-56	 x27:0x80009f34 x27=0x80009efc
       29615000	      2960	80001010	c158ef13	ori	x30,x17,-1003	 x17:0x80000f41 x30=0xffffff55
       29625000	      2961	80001014	257b0113	addi	x2,x22,599	 x22:0x17221000  x2=0x17221257
       29635000	      2962	80001018	012da223	sw	x18,4(x27)	 x27:0x80009efc x18:0x800050e4 PA:0x80009f00
       29645000	      2963	8000101c	0170d993	srli	x19,x1,0x17	  x1:0x00000000 x19=0x00000000
       29655000	      2964	80001020	00007897	auipc	x17,0x7	 x17=0x8000801c
       29665000	      2965	80001024	1fb88893	addi	x17,x17,507	 x17:0x8000801c x17=0x80008217
       29675000	      2966	80001028	405ad393	srai	x7,x21,0x5	 x21:0x00400010  x7=0x00020000
       29685000	      2967	8000102c	17088d03	lb	x26,368(x17)	 x17:0x80008217 x26=0xffffffc1 PA:0x80008387
       29695000	      2968	80001030	40925133	sra	x2,x4,x9	  x4:0xfffffffb  x9:0xfffffcf1  x2=0xffffffff
       29705000	      2969	80001034	c8d10b93	addi	x23,x2,-883	  x2:0xffffffff x23=0xfffffc8c
       29715000	      2970	80001038	30789aa3	sh	x7,789(x17)	 x17:0x80008217  x7:0x00020000 PA:0x8000852c
       29725000	      2971	8000103c	1958df03	lhu	x30,405(x17)	 x17:0x80008217 x30=0x0000d158 PA:0x800083ac
       29735000	      2972	80001040	0c688223	sb	x6,196(x17)	 x17:0x80008217  x6:0x000004b1 PA:0x800082db
       29745000	      2973	80001044	1f48cc03	lbu	x24,500(x17)	 x17:0x80008217 x24=0x0000009e PA:0x8000840b
       29755000	      2974	80001048	48b89da3	sh	x11,1179(x17)	 x17:0x80008217 x11:0x32eed0b4 PA:0x800086b2
       29765000	      2975	8000104c	00000013	addi	x0,x0,0	  x0:0x00000000
       29775000	      2976	80001050	5d888aa3	sb	x24,1493(x17)	 x17:0x80008217 x24:0x0000009e PA:0x800087ec
       29785000	      2977	80001054	31589b03	lh	x22,789(x17)	 x17:0x80008217 x22=0x00000000 PA:0x8000852c
       29795000	      2978	80001058	40388423	sb	x3,1032(x17)	 x17:0x80008217  x3:0xdd4c7e90 PA:0x8000861f
       29805000	      2979	8000105c	3ac88f03	lb	x30,940(x17)	 x17:0x80008217 x30=0x0000004b PA:0x800085c3
       29815000	      2980	80001060	e4b89103	lh	x2,-437(x17)	 x17:0x80008217  x2=0xfffff42d PA:0x80008062
       29825000	      2981	80001064	ed78d303	lhu	x6,-297(x17)	 x17:0x80008217  x6=0x00004309 PA:0x800080ee
       29835000	      2982	80001068	01ec04b3	add	x9,x24,x30	 x24:0x0000009e x30:0x0000004b  x9=0x000000e9
       29845000	      2983	8000106c	e698d903	lhu	x18,-407(x17)	 x17:0x80008217 x18=0x0000c694 PA:0x80008080
       29855000	      2984	80001070	f9e88423	sb	x30,-120(x17)	 x17:0x80008217 x30:0x0000004b PA:0x8000819f
       29865000	      2985	80001074	e8188c83	lb	x25,-383(x17)	 x17:0x80008217 x25=0x0000007c PA:0x80008098
       29875000	      2986	80001078	0e68cf03	lbu	x30,230(x17)	 x17:0x80008217 x30=0x0000009a PA:0x800082fd
       29885000	      2987	8000107c	a8556a93	ori	x21,x10,-1403	 x10:0x00010000 x21=0xfffffa85
       29895000	      2988	80001080	4a488203	lb	x4,1188(x17)	 x17:0x80008217  x4=0x00000019 PA:0x800086bb
       29905000	      2989	80001084	f9388da3	sb	x19,-101(x17)	 x17:0x80008217 x19:0x00000000 PA:0x800081b2
       29915000	      2990	80001088	52e8c703	lbu	x14,1326(x17)	 x17:0x80008217 x14=0x000000cf PA:0x80008745
       29925000	      2991	00000000	00000013	addi	x0,x0,0	  x0:0x00000000
       29935000	      2992	8000108c	54e88103	lb	x2,1358(x17)	 x17:0x80008217  x2=0x00000058 PA:0x80008765
       29945000	      2993	80001090	4914b413	sltiu	x8,x9,1169	  x9:0x000000e9  x8=0x00000001
       29955000	      2994	80001094	0185d233	srl	x4,x11,x24	 x11:0x32eed0b4 x24:0x0000009e  x4=0x00000000
       29965000	      2995	80001098	22f8c903	lbu	x18,559(x17)	 x17:0x80008217 x18=0x00000087 PA:0x80008446
       29975000	      2996	8000109c	27189703	lh	x14,625(x17)	 x17:0x80008217 x14=0x00004d2a PA:0x80008488
       29985000	      2997	800010a0	f678dd03	lhu	x26,-153(x17)	 x17:0x80008217 x26=0x0000f246 PA:0x8000817e
       29995000	      2998	800010a4	00fa1693	slli	x13,x20,0xf	 x20:0xe8ddecf1 x13=0xf6788000
       30005000	      2999	800010a8	2568c503	lbu	x10,598(x17)	 x17:0x80008217 x10=0x00000099 PA:0x8000846d
       30015000	      3000	800010ac	35c88203	lb	x4,860(x17)	 x17:0x80008217  x4=0x0000002f PA:0x80008573
       30025000	      3001	800010b0	4145db13	srai	x22,x11,0x14	 x11:0x32eed0b4 x22=0x0000032e
       30035000	      3002	800010b4	47688623	sb	x22,1132(x17)	 x17:0x80008217 x22:0x0000032e PA:0x80008683
       30045000	      3003	800010b8	06688b83	lb	x23,102(x17)	 x17:0x80008217 x23=0xffffffe7 PA:0x8000827d
       30055000	      3004	00000000	00000013	addi	x0,x0,0	  x0:0x00000000
       30065000	      3005	800010bc	135bce13	xori	x28,x23,309	 x23:0xffffffe7 x28=0xfffffed2
       30075000	      3006	800010c0	24989b83	lh	x23,585(x17)	 x17:0x80008217 x23=0xffffd86d PA:0x80008460
       30085000	      3007	800010c4	38a88e23	sb	x10,924(x17)	 x17:0x80008217 x10:0x00000099 PA:0x800085b3
       30095000	      3008	800010c8	38c8f793	andi	x15,x17,908	 x17:0x80008217 x15=0x00000204
       30105000	      3009	800010cc	40ad8e33	sub	x28,x27,x10	 x27:0x80009efc x10:0x00000099 x28=0x80009e63
       30115000	      3010	800010d0	1cf8d003	lhu	x0,463(x17)	 x17:0x80008217 PA:0x800083e6
       30125000	      3011	800010d4	00007117	auipc	x2,0x7	  x2=0x800080d0
       30135000	      3012	800010d8	6aa10113	addi	x2,x2,1706	  x2:0x800080d0  x2=0x8000877a
       30145000	      3013	800010dc	015ca933	slt	x18,x25,x21	 x25:0x0000007c x21:0xfffffa85 x18=0x00000000
       30155000	      3014	800010e0	00000013	addi	x0,x0,0	  x0:0x00000000
       30165000	      3015	800010e4	138d0b93	addi	x23,x26,312	 x26:0x0000f246 x23=0x0000f37e
       30175000	      3016	800010e8	fd910aa3	sb	x25,-43(x2)	  x2:0x8000877a x25:0x0000007c PA:0x8000874f
       30185000	      3017	800010ec	c4afa193	slti	x3,x31,-950	 x31:0xf13e20b0  x3=0x00000001
       30195000	      3018	800010f0	0067d993	srli	x19,x15,0x6	 x15:0x00000204 x19=0x00000008
       30205000	      3019	800010f4	f6914203	lbu	x4,-151(x2)	  x2:0x8000877a  x4=0x000000ae PA:0x800086e3
       30215000	      3020	800010f8	00563bb3	sltu	x23,x12,x5	 x12:0x0007ffff  x5:0x00000000 x23=0x00000000
       30225000	      3021	800010fc	00f2a333	slt	x6,x5,x15	  x5:0x00000000 x15:0x00000204  x6=0x00000001
       30235000	      3022	80001100	08914a03	lbu	x20,137(x2)	  x2:0x8000877a x20=0x000000b0 PA:0x80008803
       30245000	      3023	80001104	01111c23	sh	x17,24(x2)	  x2:0x8000877a x17:0x80008217 PA:0x80008792
       30255000	      3024	80001108	00a40eb3	add	x29,x8,x10	  x8:0x00000001 x10:0x00000099 x29=0x0000009a
       30265000	      3025	8000110c	f83108a3	sb	x3,-111(x2)	  x2:0x8000877a  x3:0x00000001 PA:0x8000870b
       30275000	      3026	80001110	00e1eb33	or	x22,x3,x14	  x3:0x00000001 x14:0x00004d2a x22=0x00004d2b
       30285000	      3027	80001114	fb910da3	sb	x25,-69(x2)	  x2:0x8000877a x25:0x0000007c PA:0x80008735
       30295000	      3028	80001118	ffc14b83	lbu	x23,-4(x2)	  x2:0x8000877a x23=0x000000f2 PA:0x80008776
       30305000	      3029	8000111c	00e107a3	sb	x14,15(x2)	  x2:0x8000877a x14:0x00004d2a PA:0x80008789
       30315000	      3030	80001120	fc914503	lbu	x10,-55(x2)	  x2:0x8000877a x10=0x00000005 PA:0x80008743
       30325000	      3031	80001124	07410603	lb	x12,116(x2)	  x2:0x8000877a x12=0x0000002c PA:0x800087ee
       30335000	      3032	80001128	30afb013	sltiu	x0,x31,778	 x31:0xf13e20b0
       30345000	      3033	8000112c	6eb5c513	xori	x10,x11,1771	 x11:0x32eed0b4 x10=0x32eed65f
       30355000	      3034	80001130	33b78513	addi	x10,x15,827	 x15:0x00000204 x10=0x0000053f
       30365000	      3035	80001134	f2510a83	lb	x21,-219(x2)	  x2:0x8000877a x21=0x00000021 PA:0x8000869f
       30375000	      3036	80001138	b251b513	sltiu	x10,x3,-1243	  x3:0x00000001 x10=0x00000001
       30385000	      3037	8000113c	4169dc93	srai	x25,x19,0x16	 x19:0x00000008 x25=0x00000000
       30395000	      3038	80001140	00000013	addi	x0,x0,0	  x0:0x00000000
       30405000	      3039	80001144	40bdd793	srai	x15,x27,0xb	 x27:0x80009efc x15=0xfff00013
       30415000	      3040	80001148	1a33ea13	ori	x20,x7,419	  x7:0x00020000 x20=0x000201a3
       30425000	      3041	8000114c	09b10883	lb	x17,155(x2)	  x2:0x8000877a x17=0xffffffb1 PA:0x80008815
       30435000	      3042	80001150	0081db93	srli	x23,x3,0x8	  x3:0x00000001 x23=0x00000000
       30445000	      3043	80001154	274d7993	andi	x19,x26,628	 x26:0x0000f246 x19=0x00000244
       30455000	      3044	80001158	ff310183	lb	x3,-13(x2)	  x2:0x8000877a  x3=0xffffff8e PA:0x8000876d
       30465000	      3045	8000115c	00000013	addi	x0,x0,0	  x0:0x00000000
       30475000	      3046	80001160	015f67b3	or	x15,x30,x21	 x30:0x0000009a x21:0x00000021 x15=0x000000bb
       30485000	      3047	80001164	d5b88e13	addi	x28,x17,-677	 x17:0xffffffb1 x28=0xfffffd0c
       30495000	      3048	80001168	46c7b713	sltiu	x14,x15,1132	 x15:0x000000bb x14=0x00000001
       30505000	      3049	8000116c	012a71b3	and	x3,x20,x18	 x20:0x000201a3 x18:0x00000000  x3=0x00000000
       30515000	      3050	80001170	0104bf33	sltu	x30,x9,x16	  x9:0x000000e9 x16:0x80009fc4 x30=0x00000001
       30525000	      3051	80001174	a7a44393	xori	x7,x8,-1414	  x8:0x00000001  x7=0xfffffa7b
       30535000	      3052	80001178	003fd313	srli	x6,x31,0x3	 x31:0xf13e20b0  x6=0x1e27c416
       30545000	      3053	8000117c	d783dc97	auipc	x25,0xd783d	 x25=0x5783e178
       30555000	      3054	80001180	00bed193	srli	x3,x29,0xb	 x29:0x0000009a  x3=0x00000000
       30565000	      3055	80001184	01892ab3	slt	x21,x18,x24	 x18:0x00000000 x24:0x0000009e x21=0x00000001
       30575000	      3056	80001188	fb514f83	lbu	x31,-75(x2)	  x2:0x8000877a x31=0x00000081 PA:0x8000872f
       30585000	      3057	8000118c	00007a17	auipc	x20,0x7	 x20=0x80008188
       30595000	      3058	80001190	45aa0a13	addi	x20,x20,1114	 x20:0x80008188 x20=0x800085e2
       30605000	      3059	80001194	00508733	add	x14,x1,x5	  x1:0x00000000  x5:0x00000000 x14=0x00000000
       30615000	      3060	80001198	41e5deb3	sra	x29,x11,x30	 x11:0x32eed0b4 x30:0x00000001 x29=0x1977685a
       30625000	      3061	8000119c	b55afe13	andi	x28,x21,-1195	 x21:0x00000001 x28=0x00000001
       30635000	      3062	800011a0	008a0623	sb	x8,12(x20)	 x20:0x800085e2  x8:0x00000001 PA:0x800085ee
       30645000	      3063	800011a4	89c70713	addi	x14,x14,-1892	 x14:0x00000000 x14=0xfffff89c
       30655000	      3064	800011a8	81f3e113	ori	x2,x7,-2017	  x7:0xfffffa7b  x2=0xfffffa7f
       30665000	      3065	800011ac	01d12e33	slt	x28,x2,x29	  x2:0xfffffa7f x29:0x1977685a x28=0x00000001
       30675000	      3066	800011b0	4172de33	sra	x28,x5,x23	  x5:0x00000000 x23:0x00000000 x28=0x00000000
       30685000	      3067	800011b4	01859913	slli	x18,x11,0x18	 x11:0x32eed0b4 x18=0xb4000000
       30695000	      3068	800011b8	010a5503	lhu	x10,16(x20)	 x20:0x800085e2 x10=0x0000a51e PA:0x800085f2
       30705000	      3069	800011bc	010a0b83	lb	x23,16(x20)	 x20:0x800085e2 x23=0x0000001e PA:0x800085f2
       30715000	      3070	800011c0	009a4c03	lbu	x24,9(x20)	 x20:0x800085e2 x24=0x000000de PA:0x800085eb
       30725000	      3071	800011c4	000a4503	lbu	x10,0(x20)	 x20:0x800085e2 x10=0x00000093 PA:0x800085e2
       30735000	      3072	800011c8	00459393	slli	x7,x11,0x4	 x11:0x32eed0b4  x7=0x2eed0b40
       30745000	      3073	800011cc	01bb83b3	add	x7,x23,x27	 x23:0x0000001e x27:0x80009efc  x7=0x80009f1a
       30755000	      3074	800011d0	00ac6cb3	or	x25,x24,x10	 x24:0x000000de x10:0x00000093 x25=0x000000df
       30765000	      3075	800011d4	ff2a4d03	lbu	x26,-14(x20)	 x20:0x800085e2 x26=0x000000a1 PA:0x800085d4
       30775000	      3076	800011d8	00acab33	slt	x22,x25,x10	 x25:0x000000df x10:0x00000093 x22=0x00000000
       30785000	      3077	800011dc	016585b3	add	x11,x11,x22	 x11:0x32eed0b4 x22:0x00000000 x11=0x32eed0b4
       30795000	      3078	800011e0	fc942e13	slti	x28,x8,-55	  x8:0x00000001 x28=0x00000000
       30805000	      3079	800011e4	e52de213	ori	x4,x27,-430	 x27:0x80009efc  x4=0xfffffefe
       30815000	      3080	800011e8	00ca5b03	lhu	x22,12(x20)	 x20:0x800085e2 x22=0x00001d01 PA:0x800085ee
       30825000	      3081	800011ec	4157d8b3	sra	x17,x15,x21	 x15:0x000000bb x21:0x00000001 x17=0x0000005d
       30835000	      3082	800011f0	4a7db713	sltiu	x14,x27,1191	 x27:0x80009efc x14=0x00000000
       30845000	      3083	800011f4	5feab693	sltiu	x13,x21,1534	 x21:0x00000001 x13=0x00000001
       30855000	      3084	800011f8	005a4783	lbu	x15,5(x20)	 x20:0x800085e2 x15=0x0000002c PA:0x800085e7
       30865000	      3085	800011fc	01d9d113	srli	x2,x19,0x1d	 x19:0x00000244  x2=0x00000000
       30875000	      3086	80001200	ff2a1b03	lh	x22,-14(x20)	 x20:0x800085e2 x22=0xffffbba1 PA:0x800085d4
       30885000	      3087	80001204	fe7a0ba3	sb	x7,-9(x20)	 x20:0x800085e2  x7:0x80009f1a PA:0x800085d9
       30895000	      3088	80001208	00007217	auipc	x4,0x7	  x4=0x80008204
       30905000	      3089	8000120c	2b120213	addi	x4,x4,689	  x4:0x80008204  x4=0x800084b5
       30915000	      3090	80001210	012243b3	xor	x7,x4,x18	  x4:0x800084b5 x18:0xb4000000  x7=0x340084b5
       30925000	      3091	80001214	019201a3	sb	x25,3(x4)	  x4:0x800084b5 x25:0x000000df PA:0x800084b8
       30935000	      3092	80001218	ff321e83	lh	x29,-13(x4)	  x4:0x800084b5 x29=0x0000573f PA:0x800084a8
       30945000	      3093	8000121c	0051e433	or	x8,x3,x5	  x3:0x00000000  x5:0x00000000  x8=0x00000000
       30955000	      3094	80001220	ae71fb13	andi	x22,x3,-1305	  x3:0x00000000 x22=0x00000000
       30965000	      3095	80001224	009223a3	sw	x9,7(x4)	  x4:0x800084b5  x9:0x000000e9 PA:0x800084bc
       30975000	      3096	80001228	ff521003	lh	x0,-11(x4)	  x4:0x800084b5 PA:0x800084aa
       30985000	      3097	8000122c	ff020823	sb	x16,-16(x4)	  x4:0x800084b5 x16:0x80009fc4 PA:0x800084a5
       30995000	      3098	80001230	76effe93	andi	x29,x31,1902	 x31:0x00000081 x29=0x00000000
       31005000	      3099	80001234	383d6a93	ori	x21,x26,899	 x26:0x000000a1 x21=0x000003a3
       31015000	      3100	80001238	400f5eb3	sra	x29,x30,x0	 x30:0x00000001  x0:0x00000000 x29=0x00000001
       31025000	      3101	8000123c	007214a3	sh	x7,9(x4)	  x4:0x800084b5  x7:0x340084b5 PA:0x800084be
       31035000	      3102	80001240	01cadf13	srli	x30,x21,0x1c	 x21:0x000003a3 x30=0x00000000
       31045000	      3103	80001244	fff24383	lbu	x7,-1(x4)	  x4:0x800084b5  x7=0x000000c6 PA:0x800084b4
       31055000	      3104	80001248	0e3aaf13	slti	x30,x21,227	 x21:0x000003a3 x30=0x00000000
       31065000	      3105	8000124c	00520e03	lb	x28,5(x4)	  x4:0x800084b5 x28=0x00000065 PA:0x800084ba
       31075000	      3106	80001250	ff320283	lb	x5,-13(x4)	  x4:0x800084b5  x5=0x0000003f PA:0x800084a8
       31085000	      3107	80001254	ffc20003	lb	x0,-4(x4)	  x4:0x800084b5 PA:0x800084b1
       31095000	      3108	80001258	003a8c33	add	x24,x21,x3	 x21:0x000003a3  x3:0x00000000 x24=0x000003a3
       31105000	      3109	8000125c	01a203a3	sb	x26,7(x4)	  x4:0x800084b5 x26:0x000000a1 PA:0x800084bc
       31115000	      3110	80001260	00197033	and	x0,x18,x1	 x18:0xb4000000  x1:0x00000000
       31125000	      3111	80001264	ff321303	lh	x6,-13(x4)	  x4:0x800084b5  x6=0x0000573f PA:0x800084a8
       31135000	      3112	80001268	00824b03	lbu	x22,8(x4)	  x4:0x800084b5 x22=0x00000000 PA:0x800084bd
       31145000	      3113	8000126c	0013c5b3	xor	x11,x7,x1	  x7:0x000000c6  x1:0x00000000 x11=0x000000c6
       31155000	      3114	80001270	961d2b93	slti	x23,x26,-1695	 x26:0x000000a1 x23=0x00000000
       31165000	      3115	80001274	ffe20c23	sb	x30,-8(x4)	  x4:0x800084b5 x30:0x00000000 PA:0x800084ad
       31175000	      3116	80001278	40908333	sub	x6,x1,x9	  x1:0x00000000  x9:0x000000e9  x6=0xffffff17
       31185000	      3117	8000127c	00723733	sltu	x14,x4,x7	  x4:0x800084b5  x7:0x000000c6 x14=0x00000000
       31195000	      3118	80001280	ffd21ca3	sh	x29,-7(x4)	  x4:0x800084b5 x29:0x00000001 PA:0x800084ae
       31205000	      3119	80001284	fea20923	sb	x10,-14(x4)	  x4:0x800084b5 x10:0x00000093 PA:0x800084a7
       31215000	      3120	80001288	fe021ca3	sh	x0,-7(x4)	  x4:0x800084b5  x0:0x00000000 PA:0x800084ae
       31225000	      3121	8000128c	014205a3	sb	x20,11(x4)	  x4:0x800084b5 x20:0x800085e2 PA:0x800084c0
       31235000	      3122	80001290	01242eb3	slt	x29,x8,x18	  x8:0x00000000 x18:0xb4000000 x29=0x00000000
       31245000	      3123	80001294	00dfde13	srli	x28,x31,0xd	 x31:0x00000081 x28=0x00000000
       31255000	      3124	80001298	012216a3	sh	x18,13(x4)	  x4:0x800084b5 x18:0xb4000000 PA:0x800084c2
       31265000	      3125	8000129c	00007297	auipc	x5,0x7	  x5=0x80008298
       31275000	      3126	800012a0	5fc28293	addi	x5,x5,1532	  x5:0x80008298  x5=0x80008894
       31285000	      3127	800012a4	26e2d683	lhu	x13,622(x5)	  x5:0x80008894 x13=0x0000d5d0 PA:0x80008b02
       31295000	      3128	00000000	00000013	addi	x0,x0,0	  x0:0x00000000
       31305000	      3129	800012a8	00d991b3	sll	x3,x19,x13	 x19:0x00000244 x13:0x0000d5d0  x3=0x02440000
       31315000	      3130	800012ac	2ba288a3	sb	x26,689(x5)	  x5:0x80008894 x26:0x000000a1 PA:0x80008b45
       31325000	      3131	800012b0	00428f03	lb	x30,4(x5)	  x5:0x80008894 x30=0x0000007e PA:0x80008898
       31335000	      3132	800012b4	4542de83	lhu	x29,1108(x5)	  x5:0x80008894 x29=0x000082ed PA:0x80008ce8
       31345000	      3133	800012b8	72b28b03	lb	x22,1835(x5)	  x5:0x80008894 x22=0x00000000 PA:0x80008fbf
       31355000	      3134	800012bc	01571693	slli	x13,x14,0x15	 x14:0x00000000 x13=0x00000000
       31365000	      3135	800012c0	41ecdf33	sra	x30,x25,x30	 x25:0x000000df x30:0x0000007e x30=0x00000000
       31375000	      3136	800012c4	0144f8b3	and	x17,x9,x20	  x9:0x000000e9 x20:0x800085e2 x17=0x000000e0
       31385000	      3137	800012c8	1ab0f9b7	lui	x19,0x1ab0f	 x19=0x1ab0f000
       31395000	      3138	800012cc	42f29523	sh	x15,1066(x5)	  x5:0x80008894 x15:0x0000002c PA:0x80008cbe
       31405000	      3139	800012d0	00b97ab3	and	x21,x18,x11	 x18:0xb4000000 x11:0x000000c6 x21=0x00000000
       31415000	      3140	800012d4	4c32c003	lbu	x0,1219(x5)	  x5:0x80008894 PA:0x80008d57
       31425000	      3141	800012d8	01d2c933	xor	x18,x5,x29	  x5:0x80008894 x29:0x000082ed x18=0x80000a79
       31435000	      3142	800012dc	5c728503	lb	x10,1479(x5)	  x5:0x80008894 x10=0xffffffa4 PA:0x80008e5b
       31445000	      3143	800012e0	e1323c13	sltiu	x24,x4,-493	  x4:0x800084b5 x24=0x00000001
       31455000	      3144	800012e4	031f7413	andi	x8,x30,49	 x30:0x00000000  x8=0x00000000
       31465000	      3145	800012e8	55828b83	lb	x23,1368(x5)	  x5:0x80008894 x23=0x0000001d PA:0x80008dec
       31475000	      3146	800012ec	1672a023	sw	x7,352(x5)	  x5:0x80008894  x7:0x000000c6 PA:0x800089f4
       31485000	      3147	800012f0	f8429a83	lh	x21,-124(x5)	  x5:0x80008894 x21=0x0000244d PA:0x80008818
       31495000	      3148	800012f4	01d51a13	slli	x20,x10,0x1d	 x10:0xffffffa4 x20=0x80000000
       31505000	      3149	800012f8	01d101b3	add	x3,x2,x29	  x2:0x00000000 x29:0x000082ed  x3=0x000082ed
       31515000	      3150	800012fc	f1caa113	slti	x2,x21,-228	 x21:0x0000244d  x2=0x00000000
       31525000	      3151	80001300	00a906b3	add	x13,x18,x10	 x18:0x80000a79 x10:0xffffffa4 x13=0x80000a1d
       31535000	      3152	80001304	01bd1e13	slli	x28,x26,0x1b	 x26:0x000000a1 x28=0x08000000
       31545000	      3153	80001308	40f2c183	lbu	x3,1039(x5)	  x5:0x80008894  x3=0x00000000 PA:0x80008ca3
       31555000	      3154	8000130c	00000013	addi	x0,x0,0	  x0:0x00000000
       31565000	      3155	80001310	0092ae23	sw	x9,28(x5)	  x5:0x80008894  x9:0x000000e9 PA:0x800088b0
       31575000	      3156	80001314	00f08bb3	add	x23,x1,x15	  x1:0x00000000 x15:0x0000002c x23=0x0000002c
       31585000	      3157	80001318	49728783	lb	x15,1175(x5)	  x5:0x80008894 x15=0xffffffd0 PA:0x80008d2b
       31595000	      3158	8000131c	41935d33	sra	x26,x6,x25	  x6:0xffffff17 x25:0x000000df x26=0xffffffff
       31605000	      3159	80001320	0fd29123	sh	x29,226(x5)	  x5:0x80008894 x29:0x000082ed PA:0x80008976
       31615000	      3160	80001324	ffa28e03	lb	x28,-6(x5)	  x5:0x80008894 x28=0x0000007e PA:0x8000888e
       31625000	      3161	80001328	40195a13	srai	x20,x18,0x1	 x18:0x80000a79 x20=0xc000053c
       31635000	      3162	8000132c	6fd285a3	sb	x29,1771(x5)	  x5:0x80008894 x29:0x000082ed PA:0x80008f7f
       31645000	      3163	80001330	bfb73f13	sltiu	x30,x14,-1029	 x14:0x00000000 x30=0x00000001
       31655000	      3164	80001334	00000013	addi	x0,x0,0	  x0:0x00000000
       31665000	      3165	80001338	0d33ae93	slti	x29,x7,211	  x7:0x000000c6 x29=0x00000001
       31675000	      3166	8000133c	25b28183	lb	x3,603(x5)	  x5:0x80008894  x3=0xffffff8f PA:0x80008aef
       31685000	      3167	80001340	688d3493	sltiu	x9,x26,1672	 x26:0xffffffff  x9=0x00000000
       31695000	      3168	80001344	3099c793	xori	x15,x19,777	 x19:0x1ab0f000 x15=0x1ab0f309
       31705000	      3169	80001348	6f72c383	lbu	x7,1783(x5)	  x5:0x80008894  x7=0x000000c9 PA:0x80008f8b
       31715000	      3170	8000134c	00d31213	slli	x4,x6,0xd	  x6:0xffffff17  x4=0xffe2e000
       31725000	      3171	80001350	2b2a3b97	auipc	x23,0x2b2a3	 x23=0xab2a434c
       31735000	      3172	80001354	6052c183	lbu	x3,1541(x5)	  x5:0x80008894  x3=0x00000076 PA:0x80008e99
       31745000	      3173	80001358	11f2ce83	lbu	x29,287(x5)	  x5:0x80008894 x29=0x00000051 PA:0x800089b3
       31755000	      3174	8000135c	016d19b3	sll	x19,x26,x22	 x26:0xffffffff x22:0x00000000 x19=0xffffffff
       31765000	      3175	80001360	002a4533	xor	x10,x20,x2	 x20:0xc000053c  x2:0x00000000 x10=0xc000053c
       31775000	      3176	80001364	fa8a0e13	addi	x28,x20,-88	 x20:0xc000053c x28=0xc00004e4
       31785000	      3177	80001368	00c022b3	slt	x5,x0,x12	  x0:0x00000000 x12:0x0000002c  x5=0x00000001
       31795000	      3178	8000136c	01ba1393	slli	x7,x20,0x1b	 x20:0xc000053c  x7=0xe0000000
       31805000	      3179	80001370	00000013	addi	x0,x0,0	  x0:0x00000000
       31815000	      3180	80001374	00e846b3	xor	x13,x16,x14	 x16:0x80009fc4 x14:0x00000000 x13=0x80009fc4
       31825000	      3181	80001378	00ea9863	bne	x21,x14,80001388	 x21:0x0000244d x14:0x00000000
       31835000	      3182	00000000	00000013	addi	x0,x0,0	  x0:0x00000000
       31845000	      3183	80001384	00000013	addi	x0,x0,0	  x0:0x00000000
       31855000	      3184	80001388	008cd233	srl	x4,x25,x8	 x25:0x000000df  x8:0x00000000  x4=0x000000df
       31865000	      3185	8000138c	01bd1663	bne	x26,x27,80001398	 x26:0xffffffff x27:0x80009efc
       31875000	      3186	00000000	00000013	addi	x0,x0,0	  x0:0x00000000
       31885000	      3187	80001394	00000013	addi	x0,x0,0	  x0:0x00000000
       31895000	      3188	80001398	f9a9dcb7	lui	x25,0xf9a9d	 x25=0xf9a9d000
       31905000	      3189	8000139c	020f0863	beq	x30,x0,800013cc	 x30:0x00000001  x0:0x00000000
       31915000	      3190	800013a0	47051d37	lui	x26,0x47051	 x26=0x47051000
       31925000	      3191	800013a4	2fac1917	auipc	x18,0x2fac1	 x18=0xafac23a0
       31935000	      3192	800013a8	57e57ab7	lui	x21,0x57e57	 x21=0x57e57000
       31945000	      3193	800013ac	c95e3a93	sltiu	x21,x28,-875	 x28:0xc00004e4 x21=0x00000001
       31955000	      3194	800013b0	036b6863	bltu	x22,x22,800013e0	 x22:0x00000000 x22:0x00000000
       31965000	      3195	800013b4	00e62a33	slt	x20,x12,x14	 x12:0x0000002c x14:0x00000000 x20=0x00000000
       31975000	      3196	800013b8	bfd7a897	auipc	x17,0xbfd7a	 x17=0x3fd7b3b4
       31985000	      3197	800013bc	5018b113	sltiu	x2,x17,1281	 x17:0x3fd7b3b4  x2=0x00000000
       31995000	      3198	800013c0	cbb1f293	andi	x5,x3,-837	  x3:0x00000076  x5=0x00000032
       32005000	      3199	800013c4	02ca6863	bltu	x20,x12,800013f4	 x20:0x00000000 x12:0x0000002c
       32015000	      3200	00000000	00000013	addi	x0,x0,0	  x0:0x00000000
       32025000	      3201	800013f0	00000013	addi	x0,x0,0	  x0:0x00000000
       32035000	      3202	800013f4	dc100613	addi	x12,x0,-575	  x0:0x00000000 x12=0xfffffdc1
       32045000	      3203	800013f8	01766c33	or	x24,x12,x23	 x12:0xfffffdc1 x23:0xab2a434c x24=0xffffffcd
       32055000	      3204	800013fc	00624263	blt	x4,x6,80001400	  x4:0x000000df  x6:0xffffff17
       32065000	      3205	80001400	3a9df517	auipc	x10,0x3a9df	 x10=0xba9e03fc
       32075000	      3206	80001404	0414d063	bge	x9,x1,80001444	  x9:0x00000000  x1:0x00000000
       32085000	      3207	00000000	00000013	addi	x0,x0,0	  x0:0x00000000
       32095000	      3208	80001440	00000013	addi	x0,x0,0	  x0:0x00000000
       32105000	      3209	80001444	608f3693	sltiu	x13,x30,1544	 x30:0x00000001 x13=0x00000001
       32115000	      3210	80001448	6c970e13	addi	x28,x14,1737	 x14:0x00000000 x28=0x000006c9
       32125000	      3211	8000144c	0069fc63	bgeu	x19,x6,80001464	 x19:0xffffffff  x6:0xffffff17
       32135000	      3212	00000000	00000013	addi	x0,x0,0	  x0:0x00000000
       32145000	      3213	80001460	00000013	addi	x0,x0,0	  x0:0x00000000
       32155000	      3214	80001464	77cf6a13	ori	x20,x30,1916	 x30:0x00000001 x20=0x0000077d
       32165000	      3215	80001468	0ddf4193	xori	x3,x30,221	 x30:0x00000001  x3=0x000000dc
       32175000	      3216	8000146c	00725433	srl	x8,x4,x7	  x4:0x000000df  x7:0xe0000000  x8=0x000000df
       32185000	      3217	80001470	01c39213	slli	x4,x7,0x1c	  x7:0xe0000000  x4=0x00000000
       32195000	      3218	80001474	0077d013	srli	x0,x15,0x7	 x15:0x1ab0f309
       32205000	      3219	80001478	41e48733	sub	x14,x9,x30	  x9:0x00000000 x30:0x00000001 x14=0xffffffff
       32215000	      3220	8000147c	fe1a4913	xori	x18,x20,-31	 x20:0x0000077d x18=0xfffff89c
       32225000	      3221	80001480	40398033	sub	x0,x19,x3	 x19:0xffffffff  x3:0x000000dc
       32235000	      3222	80001484	05d41863	bne	x8,x29,800014d4	  x8:0x000000df x29:0x00000051
       32245000	      3223	00000000	00000013	addi	x0,x0,0	  x0:0x00000000
       32255000	      3224	800014d0	00000013	addi	x0,x0,0	  x0:0x00000000
       32265000	      3225	800014d4	01273fb3	sltu	x31,x14,x18	 x14:0xffffffff x18:0xfffff89c x31=0x00000000
       32275000	      3226	800014d8	0068fa63	bgeu	x17,x6,800014ec	 x17:0x3fd7b3b4  x6:0xffffff17
       32285000	      3227	800014dc	054df663	bgeu	x27,x20,80001528	 x27:0x80009efc x20:0x0000077d
       32295000	      3228	00000000	00000013	addi	x0,x0,0	  x0:0x00000000
       32305000	      3229	80001524	00000013	addi	x0,x0,0	  x0:0x00000000
       32315000	      3230	80001528	ef3a0313	addi	x6,x20,-269	 x20:0x0000077d  x6=0x00000670
       32325000	      3231	8000152c	418cdc33	sra	x24,x25,x24	 x25:0xf9a9d000 x24:0xffffffcd x24=0xffffcd4e
       32335000	      3232	80001530	01919f33	sll	x30,x3,x25	  x3:0x000000dc x25:0xf9a9d000 x30=0x000000dc
       32345000	      3233	80001534	01d4dc93	srli	x25,x9,0x1d	  x9:0x00000000 x25=0x00000000
       32355000	      3234	80001538	e87a6c13	ori	x24,x20,-377	 x20:0x0000077d x24=0xffffffff
       32365000	      3235	8000153c	00000013	addi	x0,x0,0	  x0:0x00000000
       32375000	      3236	80001540	033cf863	bgeu	x25,x19,80001570	 x25:0x00000000 x19:0xffffffff
       32385000	      3237	80001544	02afe063	bltu	x31,x10,80001564	 x31:0x00000000 x10:0xba9e03fc
       32395000	      3238	00000000	00000013	addi	x0,x0,0	  x0:0x00000000
       32405000	      3239	80001560	00000013	addi	x0,x0,0	  x0:0x00000000
       32415000	      3240	80001564	005dd713	srli	x14,x27,0x5	 x27:0x80009efc x14=0x040004f7
       32425000	      3241	80001568	00000013	addi	x0,x0,0	  x0:0x00000000
       32435000	      3242	8000156c	01d0a733	slt	x14,x1,x29	  x1:0x00000000 x29:0x00000051 x14=0x00000001
       32445000	      3243	80001570	50b1cf93	xori	x31,x3,1291	  x3:0x000000dc x31=0x000005d7
       32455000	      3244	80001574	04c86063	bltu	x16,x12,800015b4	 x16:0x80009fc4 x12:0xfffffdc1
       32465000	      3245	00000000	00000013	addi	x0,x0,0	  x0:0x00000000
       32475000	      3246	800015b0	00000013	addi	x0,x0,0	  x0:0x00000000
       32485000	      3247	800015b4	05c94863	blt	x18,x28,80001604	 x18:0xfffff89c x28:0x000006c9
       32495000	      3248	00000000	00000013	addi	x0,x0,0	  x0:0x00000000
       32505000	      3249	80001600	00000013	addi	x0,x0,0	  x0:0x00000000
       32515000	      3250	80001604	000d3a33	sltu	x20,x26,x0	 x26:0x47051000  x0:0x00000000 x20=0x00000000
       32525000	      3251	80001608	01509bb3	sll	x23,x1,x21	  x1:0x00000000 x21:0x00000001 x23=0x00000000
       32535000	      3252	8000160c	012a2ab3	slt	x21,x20,x18	 x20:0x00000000 x18:0xfffff89c x21=0x00000000
       32545000	      3253	80001610	01b73e33	sltu	x28,x14,x27	 x14:0x00000001 x27:0x80009efc x28=0x00000001
       32555000	      3254	80001614	01d59593	slli	x11,x11,0x1d	 x11:0x000000c6 x11=0xc0000000
       32565000	      3255	80001618	017dee63	bltu	x27,x23,80001634	 x27:0x80009efc x23:0x00000000
       32575000	      3256	8000161c	4188de33	sra	x28,x17,x24	 x17:0x3fd7b3b4 x24:0xffffffff x28=0x00000000
       32585000	      3257	80001620	00426bb3	or	x23,x4,x4	  x4:0x00000000  x4:0x00000000 x23=0x00000000
       32595000	      3258	80001624	0553f513	andi	x10,x7,85	  x7:0xe0000000 x10=0x00000000
       32605000	      3259	80001628	0168df33	srl	x30,x17,x22	 x17:0x3fd7b3b4 x22:0x00000000 x30=0x3fd7b3b4
       32615000	      3260	8000162c	000d5e63	bge	x26,x0,80001648	 x26:0x47051000  x0:0x00000000
       32625000	      3261	00000000	00000013	addi	x0,x0,0	  x0:0x00000000
       32635000	      3262	80001644	00000013	addi	x0,x0,0	  x0:0x00000000
       32645000	      3263	80001648	ebda6913	ori	x18,x20,-323	 x20:0x00000000 x18=0xfffffebd
       32655000	      3264	8000164c	a0f3c393	xori	x7,x7,-1521	  x7:0xe0000000  x7=0x1ffffa0f
       32665000	      3265	80001650	009d4333	xor	x6,x26,x9	 x26:0x47051000  x9:0x00000000  x6=0x47051000
       32675000	      3266	80001654	40aad233	sra	x4,x21,x10	 x21:0x00000000 x10:0x00000000  x4=0x00000000
       32685000	      3267	80001658	00f63433	sltu	x8,x12,x15	 x12:0xfffffdc1 x15:0x1ab0f309  x8=0x00000000
       32695000	      3268	8000165c	042b5663	bge	x22,x2,800016a8	 x22:0x00000000  x2:0x00000000
       32705000	      3269	00000000	00000013	addi	x0,x0,0	  x0:0x00000000
       32715000	      3270	800016a4	00000013	addi	x0,x0,0	  x0:0x00000000
       32725000	      3271	800016a8	01f399b3	sll	x19,x7,x31	  x7:0x1ffffa0f x31:0x000005d7 x19=0x07800000
       32735000	      3272	800016ac	015a7a63	bgeu	x20,x21,800016c0	 x20:0x00000000 x21:0x00000000
       32745000	      3273	00000000	00000013	addi	x0,x0,0	  x0:0x00000000
       32755000	      3274	800016bc	00000013	addi	x0,x0,0	  x0:0x00000000
       32765000	      3275	800016c0	9f837313	andi	x6,x6,-1544	  x6:0x47051000  x6=0x47051000
       32775000	      3276	800016c4	00159a33	sll	x20,x11,x1	 x11:0xc0000000  x1:0x00000000 x20=0xc0000000
       32785000	      3277	800016c8	01c61d33	sll	x26,x12,x28	 x12:0xfffffdc1 x28:0x00000000 x26=0xfffffdc1
       32795000	      3278	800016cc	0075ee33	or	x28,x11,x7	 x11:0xc0000000  x7:0x1ffffa0f x28=0xdffffa0f
       32805000	      3279	800016d0	04a07663	bgeu	x0,x10,8000171c	  x0:0x00000000 x10:0x00000000
       32815000	      3280	00000000	00000013	addi	x0,x0,0	  x0:0x00000000
       32825000	      3281	80001718	00000013	addi	x0,x0,0	  x0:0x00000000
       32835000	      3282	8000171c	647bb013	sltiu	x0,x23,1607	 x23:0x00000000
       32845000	      3283	80001720	011d1693	slli	x13,x26,0x11	 x26:0xfffffdc1 x13=0xfb820000
       32855000	      3284	80001724	0027a4b3	slt	x9,x15,x2	 x15:0x1ab0f309  x2:0x00000000  x9=0x00000000
       32865000	      3285	80001728	0167dfb3	srl	x31,x15,x22	 x15:0x1ab0f309 x22:0x00000000 x31=0x1ab0f309
       32875000	      3286	8000172c	03c10863	beq	x2,x28,8000175c	  x2:0x00000000 x28:0xdffffa0f
       32885000	      3287	80001730	00b4d4b3	srl	x9,x9,x11	  x9:0x00000000 x11:0xc0000000  x9=0x00000000
       32895000	      3288	80001734	01359eb3	sll	x29,x11,x19	 x11:0xc0000000 x19:0x07800000 x29=0xc0000000
       32905000	      3289	80001738	01f41b93	slli	x23,x8,0x1f	  x8:0x00000000 x23=0x00000000
       32915000	      3290	8000173c	74c48a13	addi	x20,x9,1868	  x9:0x00000000 x20=0x0000074c
       32925000	      3291	80001740	403ad413	srai	x8,x21,0x3	 x21:0x00000000  x8=0x00000000
       32935000	      3292	80001744	96d42493	slti	x9,x8,-1683	  x8:0x00000000  x9=0x00000000
       32945000	      3293	80001748	00a36a63	bltu	x6,x10,8000175c	  x6:0x47051000 x10:0x00000000
       32955000	      3294	8000174c	581e7593	andi	x11,x28,1409	 x28:0xdffffa0f x11=0x00000001
       32965000	      3295	80001750	a0a13713	sltiu	x14,x2,-1526	  x2:0x00000000 x14=0x00000001
       32975000	      3296	80001754	4c854c13	xori	x24,x10,1224	 x10:0x00000000 x24=0x000004c8
       32985000	      3297	80001758	7e374e13	xori	x28,x14,2019	 x14:0x00000001 x28=0x000007e2
       32995000	      3298	8000175c	017a9663	bne	x21,x23,80001768	 x21:0x00000000 x23:0x00000000
       33005000	      3299	80001760	7dce3c97	auipc	x25,0x7dce3	 x25=0xfdce475c
       33015000	      3300	80001764	41f48a33	sub	x20,x9,x31	  x9:0x00000000 x31:0x1ab0f309 x20=0xe54f0cf7
       33025000	      3301	80001768	5bcf0b37	lui	x22,0x5bcf0	 x22=0x5bcf0000
       33035000	      3302	8000176c	0426c9b7	lui	x19,0x426c	 x19=0x0426c000
       33045000	      3303	80001770	03bc8863	beq	x25,x27,800017a0	 x25:0xfdce475c x27:0x80009efc
       33055000	      3304	80001774	41b85d33	sra	x26,x16,x27	 x16:0x80009fc4 x27:0x80009efc x26=0xfffffff8
       33065000	      3305	80001778	00fdec63	bltu	x27,x15,80001790	 x27:0x80009efc x15:0x1ab0f309
       33075000	      3306	8000177c	01749e33	sll	x28,x9,x23	  x9:0x00000000 x23:0x00000000 x28=0x00000000
       33085000	      3307	80001780	01955493	srli	x9,x10,0x19	 x10:0x00000000  x9=0x00000000
       33095000	      3308	80001784	001dd2b3	srl	x5,x27,x1	 x27:0x80009efc  x1:0x00000000  x5=0x80009efc
       33105000	      3309	80001788	04ac6063	bltu	x24,x10,800017c8	 x24:0x000004c8 x10:0x00000000
       33115000	      3310	8000178c	05834063	blt	x6,x24,800017cc	  x6:0x47051000 x24:0x000004c8
       33125000	      3311	80001790	92b32a93	slti	x21,x6,-1749	  x6:0x47051000 x21=0x00000000
       33135000	      3312	80001794	011eaeb3	slt	x29,x29,x17	 x29:0xc0000000 x17:0x3fd7b3b4 x29=0x00000001
       33145000	      3313	80001798	01695f93	srli	x31,x18,0x16	 x18:0xfffffebd x31=0x000003ff
       33155000	      3314	8000179c	00862fb3	slt	x31,x12,x8	 x12:0xfffffdc1  x8:0x00000000 x31=0x00000001
       33165000	      3315	800017a0	0114d433	srl	x8,x9,x17	  x9:0x00000000 x17:0x3fd7b3b4  x8=0x00000000
       33175000	      3316	800017a4	02469063	bne	x13,x4,800017c4	 x13:0xfb820000  x4:0x00000000
       33185000	      3317	00000000	00000013	addi	x0,x0,0	  x0:0x00000000
       33195000	      3318	800017c0	00000013	addi	x0,x0,0	  x0:0x00000000
       33205000	      3319	800017c4	01c1bfb3	sltu	x31,x3,x28	  x3:0x000000dc x28:0x00000000 x31=0x00000000
       33215000	      3320	800017c8	017a5e13	srli	x28,x20,0x17	 x20:0xe54f0cf7 x28=0x000001ca
       33225000	      3321	800017cc	8c292937	lui	x18,0x8c292	 x18=0x8c292000
       33235000	      3322	800017d0	01fc9233	sll	x4,x25,x31	 x25:0xfdce475c x31:0x00000000  x4=0xfdce475c
       33245000	      3323	800017d4	01445263	bge	x8,x20,800017d8	  x8:0x00000000 x20:0xe54f0cf7
       33255000	      3324	00000000	00000013	addi	x0,x0,0	  x0:0x00000000
       33265000	      3325	800017d4	00000013	addi	x0,x0,0	  x0:0x00000000
       33275000	      3326	800017d8	00719193	slli	x3,x3,0x7	  x3:0x000000dc  x3=0x00006e00
       33285000	      3327	800017dc	c3777213	andi	x4,x14,-969	 x14:0x00000001  x4=0x00000001
       33295000	      3328	800017e0	0085d633	srl	x12,x11,x8	 x11:0x00000001  x8:0x00000000 x12=0x00000001
       33305000	      3329	800017e4	91a46713	ori	x14,x8,-1766	  x8:0x00000000 x14=0xfffff91a
       33315000	      3330	800017e8	017ef933	and	x18,x29,x23	 x29:0x00000001 x23:0x00000000 x18=0x00000000
       33325000	      3331	800017ec	0195fc63	bgeu	x11,x25,80001804	 x11:0x00000001 x25:0xfdce475c
       33335000	      3332	800017f0	e9fb0e13	addi	x28,x22,-353	 x22:0x5bcf0000 x28=0x5bcefe9f
       33345000	      3333	800017f4	2ebd6497	auipc	x9,0x2ebd6	  x9=0xaebd77f0
       33355000	      3334	800017f8	03291c63	bne	x18,x18,80001830	 x18:0x00000000 x18:0x00000000
       33365000	      3335	800017fc	6c2beb93	ori	x23,x23,1730	 x23:0x00000000 x23=0x000006c2
       33375000	      3336	80001800	00a445b3	xor	x11,x8,x10	  x8:0x00000000 x10:0x00000000 x11=0x00000000
       33385000	      3337	80001804	00f7ecb3	or	x25,x15,x15	 x15:0x1ab0f309 x15:0x1ab0f309 x25=0x1ab0f309
       33395000	      3338	80001808	01085b93	srli	x23,x16,0x10	 x16:0x80009fc4 x23=0x00008000
       33405000	      3339	8000180c	00000013	addi	x0,x0,0	  x0:0x00000000
       33415000	      3340	80001810	fda03e13	sltiu	x28,x0,-38	  x0:0x00000000 x28=0x00000001
       33425000	      3341	80001814	00db5a13	srli	x20,x22,0xd	 x22:0x5bcf0000 x20=0x0002de78
       33435000	      3342	80001818	0121de33	srl	x28,x3,x18	  x3:0x00006e00 x18:0x00000000 x28=0x00006e00
       33445000	      3343	8000181c	23c93d13	sltiu	x26,x18,572	 x18:0x00000000 x26=0x00000001
       33455000	      3344	80001820	05271063	bne	x14,x18,80001860	 x14:0xfffff91a x18:0x00000000
       33465000	      3345	00000000	00000013	addi	x0,x0,0	  x0:0x00000000
       33475000	      3346	8000185c	00000013	addi	x0,x0,0	  x0:0x00000000
       33485000	      3347	80001860	01d61bb3	sll	x23,x12,x29	 x12:0x00000001 x29:0x00000001 x23=0x00000002
       33495000	      3348	80001864	584a7f93	andi	x31,x20,1412	 x20:0x0002de78 x31=0x00000400
       33505000	      3349	80001868	535e6a13	ori	x20,x28,1333	 x28:0x00006e00 x20=0x00006f35
       33515000	      3350	8000186c	7de92513	slti	x10,x18,2014	 x18:0x00000000 x10=0x00000001
       33525000	      3351	80001870	00cf2933	slt	x18,x30,x12	 x30:0x3fd7b3b4 x12:0x00000001 x18=0x00000000
       33535000	      3352	80001874	3a157593	andi	x11,x10,929	 x10:0x00000001 x11=0x00000001
       33545000	      3353	80001878	00d5fc63	bgeu	x11,x13,80001890	 x11:0x00000001 x13:0xfb820000
       33555000	      3354	8000187c	0506f663	bgeu	x13,x16,800018c8	 x13:0xfb820000 x16:0x80009fc4
       33565000	      3355	00000000	00000013	addi	x0,x0,0	  x0:0x00000000
       33575000	      3356	800018c4	00000013	addi	x0,x0,0	  x0:0x00000000
       33585000	      3357	800018c8	00cf7cb3	and	x25,x30,x12	 x30:0x3fd7b3b4 x12:0x00000001 x25=0x00000000
       33595000	      3358	800018cc	f68e7e13	andi	x28,x28,-152	 x28:0x00006e00 x28=0x00006e00
       33605000	      3359	800018d0	013e0633	add	x12,x28,x19	 x28:0x00006e00 x19:0x0426c000 x12=0x04272e00
       33615000	      3360	800018d4	d4297c93	andi	x25,x18,-702	 x18:0x00000000 x25=0x00000000
       33625000	      3361	800018d8	40735933	sra	x18,x6,x7	  x6:0x47051000  x7:0x1ffffa0f x18=0x00008e0a
       33635000	      3362	800018dc	00479993	slli	x19,x15,0x4	 x15:0x1ab0f309 x19=0xab0f3090
       33645000	      3363	800018e0	01f65e63	bge	x12,x31,800018fc	 x12:0x04272e00 x31:0x00000400
       33655000	      3364	00000000	00000013	addi	x0,x0,0	  x0:0x00000000
       33665000	      3365	800018f8	00000013	addi	x0,x0,0	  x0:0x00000000
       33675000	      3366	800018fc	419ed733	sra	x14,x29,x25	 x29:0x00000001 x25:0x00000000 x14=0x00000001
       33685000	      3367	80001900	a57e4693	xori	x13,x28,-1449	 x28:0x00006e00 x13=0xffff9457
       33695000	      3368	80001904	00166a63	bltu	x12,x1,80001918	 x12:0x04272e00  x1:0x00000000
       33705000	      3369	80001908	0010b633	sltu	x12,x1,x1	  x1:0x00000000  x1:0x00000000 x12=0x00000000
       33715000	      3370	8000190c	00860933	add	x18,x12,x8	 x12:0x00000000  x8:0x00000000 x18=0x00000000
       33725000	      3371	80001910	7bd3c913	xori	x18,x7,1981	  x7:0x1ffffa0f x18=0x1ffffdb2
       33735000	      3372	80001914	003074b3	and	x9,x0,x3	  x0:0x00000000  x3:0x00006e00  x9=0x00000000
       33745000	      3373	80001918	c5583e13	sltiu	x28,x16,-939	 x16:0x80009fc4 x28=0x00000001
       33755000	      3374	8000191c	01b90a63	beq	x18,x27,80001930	 x18:0x1ffffdb2 x27:0x80009efc
       33765000	      3375	80001920	02265063	bge	x12,x2,80001940	 x12:0x00000000  x2:0x00000000
       33775000	      3376	00000000	00000013	addi	x0,x0,0	  x0:0x00000000
       33785000	      3377	8000193c	00000013	addi	x0,x0,0	  x0:0x00000000
       33795000	      3378	80001940	00b39e33	sll	x28,x7,x11	  x7:0x1ffffa0f x11:0x00000001 x28=0x3ffff41e
       33805000	      3379	80001944	41cf8e33	sub	x28,x31,x28	 x31:0x00000400 x28:0x3ffff41e x28=0xc0000fe2
       33815000	      3380	80001948	c8a0e413	ori	x8,x1,-886	  x1:0x00000000  x8=0xfffffc8a
       33825000	      3381	8000194c	01a4d4b3	srl	x9,x9,x26	  x9:0x00000000 x26:0x00000001  x9=0x00000000
       33835000	      3382	80001950	40cd01b3	sub	x3,x26,x12	 x26:0x00000001 x12:0x00000000  x3=0x00000001
       33845000	      3383	80001954	41f1d293	srai	x5,x3,0x1f	  x3:0x00000001  x5=0x00000000
       33855000	      3384	80001958	41df5733	sra	x14,x30,x29	 x30:0x3fd7b3b4 x29:0x00000001 x14=0x1febd9da
       33865000	      3385	8000195c	00226733	or	x14,x4,x2	  x4:0x00000001  x2:0x00000000 x14=0x00000001
       33875000	      3386	80001960	008cdc33	srl	x24,x25,x8	 x25:0x00000000  x8:0xfffffc8a x24=0x00000000
       33885000	      3387	80001964	008b7b33	and	x22,x22,x8	 x22:0x5bcf0000  x8:0xfffffc8a x22=0x5bcf0000
       33895000	      3388	80001968	43fb4393	xori	x7,x22,1087	 x22:0x5bcf0000  x7=0x5bcf043f
       33905000	      3389	8000196c	0087fa63	bgeu	x15,x8,80001980	 x15:0x1ab0f309  x8:0xfffffc8a
       33915000	      3390	80001970	a1662613	slti	x12,x12,-1514	 x12:0x00000000 x12=0x00000000
       33925000	      3391	80001974	016fdc63	bge	x31,x22,8000198c	 x31:0x00000400 x22:0x5bcf0000
       33935000	      3392	80001978	00a335b3	sltu	x11,x6,x10	  x6:0x47051000 x10:0x00000001 x11=0x00000000
       33945000	      3393	8000197c	c8f5ee13	ori	x28,x11,-881	 x11:0x00000000 x28=0xfffffc8f
       33955000	      3394	80001980	05031063	bne	x6,x16,800019c0	  x6:0x47051000 x16:0x80009fc4
       33965000	      3395	00000000	00000013	addi	x0,x0,0	  x0:0x00000000
       33975000	      3396	800019bc	00000013	addi	x0,x0,0	  x0:0x00000000
       33985000	      3397	800019c0	288eb013	sltiu	x0,x29,648	 x29:0x00000001
       33995000	      3398	800019c4	016e1bb3	sll	x23,x28,x22	 x28:0xfffffc8f x22:0x5bcf0000 x23=0xfffffc8f
       34005000	      3399	800019c8	618b2b93	slti	x23,x22,1560	 x22:0x5bcf0000 x23=0x00000000
       34015000	      3400	800019cc	01c58033	add	x0,x11,x28	 x11:0x00000000 x28:0xfffffc8f
       34025000	      3401	800019d0	74662b13	slti	x22,x12,1862	 x12:0x00000000 x22=0x00000001
       34035000	      3402	800019d4	af56f793	andi	x15,x13,-1291	 x13:0xffff9457 x15=0xffff9055
       34045000	      3403	800019d8	fbdd8213	addi	x4,x27,-67	 x27:0x80009efc  x4=0x80009eb9
       34055000	      3404	800019dc	00069f33	sll	x30,x13,x0	 x13:0xffff9457  x0:0x00000000 x30=0xffff9457
       34065000	      3405	800019e0	172951b7	lui	x3,0x17295	  x3=0x17295000
       34075000	      3406	800019e4	0035a133	slt	x2,x11,x3	 x11:0x00000000  x3:0x17295000  x2=0x00000001
       34085000	      3407	800019e8	410c85b3	sub	x11,x25,x16	 x25:0x00000000 x16:0x80009fc4 x11=0x7fff603c
       34095000	      3408	800019ec	3a310313	addi	x6,x2,931	  x2:0x00000001  x6=0x000003a4
       34105000	      3409	800019f0	06b1ca13	xori	x20,x3,107	  x3:0x17295000 x20=0x1729506b
       34115000	      3410	800019f4	003af533	and	x10,x21,x3	 x21:0x00000000  x3:0x17295000 x10=0x00000000
       34125000	      3411	800019f8	86180793	addi	x15,x16,-1951	 x16:0x80009fc4 x15=0x80009825
       34135000	      3412	800019fc	00000013	addi	x0,x0,0	  x0:0x00000000
       34145000	      3413	80001a00	8f932e97	auipc	x29,0x8f932	 x29=0x0f9339fc
       34155000	      3414	80001a04	2fca4393	xori	x7,x20,764	 x20:0x1729506b  x7=0x17295297
       34165000	      3415	80001a08	3cde4c97	auipc	x25,0x3cde4	 x25=0xbcde5a04
       34175000	      3416	80001a0c	9fb92013	slti	x0,x18,-1541	 x18:0x1ffffdb2
       34185000	      3417	80001a10	41cf5293	srai	x5,x30,0x1c	 x30:0xffff9457  x5=0xffffffff
       34195000	      3418	80001a14	01702b33	slt	x22,x0,x23	  x0:0x00000000 x23:0x00000000 x22=0x00000000
       34205000	      3419	80001a18	af31c913	xori	x18,x3,-1293	  x3:0x17295000 x18=0xe8d6aaf3
       34215000	      3420	80001a1c	00dc42b3	xor	x5,x24,x13	 x24:0x00000000 x13:0xffff9457  x5=0xffff9457
       34225000	      3421	80001a20	b77ab213	sltiu	x4,x21,-1161	 x21:0x00000000  x4=0x00000001
       34235000	      3422	80001a24	00d2f2b3	and	x5,x5,x13	  x5:0xffff9457 x13:0xffff9457  x5=0xffff9457
       34245000	      3423	80001a28	6e138717	auipc	x14,0x6e138	 x14=0xee139a24
       34255000	      3424	80001a2c	c2352993	slti	x19,x10,-989	 x10:0x00000000 x19=0x00000000
       34265000	      3425	80001a30	40d6d4b3	sra	x9,x13,x13	 x13:0xffff9457 x13:0xffff9457  x9=0xffffffff
       34275000	      3426	80001a34	8990b993	sltiu	x19,x1,-1895	  x1:0x00000000 x19=0x00000001
       34285000	      3427	80001a38	01133cb3	sltu	x25,x6,x17	  x6:0x000003a4 x17:0x3fd7b3b4 x25=0x00000001
       34295000	      3428	80001a3c	02544863	blt	x8,x5,80001a6c	  x8:0xfffffc8a  x5:0xffff9457
       34305000	      3429	80001a40	025a7863	bgeu	x20,x5,80001a70	 x20:0x1729506b  x5:0xffff9457
       34315000	      3430	80001a44	016bd2b3	srl	x5,x23,x22	 x23:0x00000000 x22:0x00000000  x5=0x00000000
       34325000	      3431	80001a48	00f91c63	bne	x18,x15,80001a60	 x18:0xe8d6aaf3 x15:0x80009825
       34335000	      3432	00000000	00000013	addi	x0,x0,0	  x0:0x00000000
       34345000	      3433	80001a5c	00000013	addi	x0,x0,0	  x0:0x00000000
       34355000	      3434	80001a60	00c304b3	add	x9,x6,x12	  x6:0x000003a4 x12:0x00000000  x9=0x000003a4
       34365000	      3435	80001a64	0193da13	srli	x20,x7,0x19	  x7:0x17295297 x20=0x0000000b
       34375000	      3436	80001a68	46362493	slti	x9,x12,1123	 x12:0x00000000  x9=0x00000001
       34385000	      3437	80001a6c	396fc993	xori	x19,x31,918	 x31:0x00000400 x19=0x00000796
       34395000	      3438	80001a70	00000013	addi	x0,x0,0	  x0:0x00000000
       34405000	      3439	80001a74	05dff063	bgeu	x31,x29,80001ab4	 x31:0x00000400 x29:0x0f9339fc
       34415000	      3440	80001a78	02071063	bne	x14,x0,80001a98	 x14:0xee139a24  x0:0x00000000
       34425000	      3441	00000000	00000013	addi	x0,x0,0	  x0:0x00000000
       34435000	      3442	80001a94	00000013	addi	x0,x0,0	  x0:0x00000000
       34445000	      3443	80001a98	033b4c63	blt	x22,x19,80001ad0	 x22:0x00000000 x19:0x00000796
       34455000	      3444	00000000	00000013	addi	x0,x0,0	  x0:0x00000000
       34465000	      3445	80001acc	00000013	addi	x0,x0,0	  x0:0x00000000
       34475000	      3446	80001ad0	00d31a63	bne	x6,x13,80001ae4	  x6:0x000003a4 x13:0xffff9457
       34485000	      3447	00000000	00000013	addi	x0,x0,0	  x0:0x00000000
       34495000	      3448	80001ae0	00000013	addi	x0,x0,0	  x0:0x00000000
       34505000	      3449	80001ae4	00b81033	sll	x0,x16,x11	 x16:0x80009fc4 x11:0x7fff603c
       34515000	      3450	80001ae8	40ec0733	sub	x14,x24,x14	 x24:0x00000000 x14:0xee139a24 x14=0x11ec65dc
       34525000	      3451	80001aec	04c55663	bge	x10,x12,80001b38	 x10:0x00000000 x12:0x00000000
       34535000	      3452	00000000	00000013	addi	x0,x0,0	  x0:0x00000000
       34545000	      3453	80001b34	00000013	addi	x0,x0,0	  x0:0x00000000
       34555000	      3454	80001b38	0172d2b3	srl	x5,x5,x23	  x5:0x00000000 x23:0x00000000  x5=0x00000000
       34565000	      3455	80001b3c	00882eb3	slt	x29,x16,x8	 x16:0x80009fc4  x8:0xfffffc8a x29=0x00000001
       34575000	      3456	80001b40	05cc5063	bge	x24,x28,80001b80	 x24:0x00000000 x28:0xfffffc8f
       34585000	      3457	00000000	00000013	addi	x0,x0,0	  x0:0x00000000
       34595000	      3458	80001b7c	00000013	addi	x0,x0,0	  x0:0x00000000
       34605000	      3459	80001b80	00fe89b3	add	x19,x29,x15	 x29:0x00000001 x15:0x80009825 x19=0x80009826
       34615000	      3460	80001b84	41ec5a13	srai	x20,x24,0x1e	 x24:0x00000000 x20=0x00000000
       34625000	      3461	80001b88	401fd8b3	sra	x17,x31,x1	 x31:0x00000400  x1:0x00000000 x17=0x00000400
       34635000	      3462	80001b8c	5d0f6913	ori	x18,x30,1488	 x30:0xffff9457 x18=0xffff95d7
       34645000	      3463	80001b90	0186dc63	bge	x13,x24,80001ba8	 x13:0xffff9457 x24:0x00000000
       34655000	      3464	80001b94	df074e13	xori	x28,x14,-528	 x14:0x11ec65dc x28=0xee13982c
       34665000	      3465	80001b98	5827b037	lui	x0,0x5827b	
       34675000	      3466	80001b9c	60ab0e93	addi	x29,x22,1546	 x22:0x00000000 x29=0x0000060a
       34685000	      3467	80001ba0	00042233	slt	x4,x8,x0	  x8:0xfffffc8a  x0:0x00000000  x4=0x00000001
       34695000	      3468	80001ba4	004f9d13	slli	x26,x31,0x4	 x31:0x00000400 x26=0x00004000
       34705000	      3469	80001ba8	00abd393	srli	x7,x23,0xa	 x23:0x00000000  x7=0x00000000
       34715000	      3470	80001bac	01657a63	bgeu	x10,x22,80001bc0	 x10:0x00000000 x22:0x00000000
       34725000	      3471	00000000	00000013	addi	x0,x0,0	  x0:0x00000000
       34735000	      3472	80001bbc	00000013	addi	x0,x0,0	  x0:0x00000000
       34745000	      3473	80001bc0	05b26863	bltu	x4,x27,80001c10	  x4:0x00000001 x27:0x80009efc
       34755000	      3474	00000000	00000013	addi	x0,x0,0	  x0:0x00000000
       34765000	      3475	80001c0c	00000013	addi	x0,x0,0	  x0:0x00000000
       34775000	      3476	80001c10	41c78133	sub	x2,x15,x28	 x15:0x80009825 x28:0xee13982c  x2=0x91ecfff9
       34785000	      3477	80001c14	007d8263	beq	x27,x7,80001c18	 x27:0x80009efc  x7:0x00000000
       34795000	      3478	80001c18	03c57663	bgeu	x10,x28,80001c44	 x10:0x00000000 x28:0xee13982c
       34805000	      3479	80001c1c	ab7db713	sltiu	x14,x27,-1353	 x27:0x80009efc x14=0x00000001
       34815000	      3480	80001c20	01875c33	srl	x24,x14,x24	 x14:0x00000001 x24:0x00000000 x24=0x00000001
       34825000	      3481	80001c24	002bd893	srli	x17,x23,0x2	 x23:0x00000000 x17=0x00000000
       34835000	      3482	80001c28	0b4e8063	beq	x29,x20,80001cc8	 x29:0x0000060a x20:0x00000000
       34845000	      3483	80001c2c	d29efb93	andi	x23,x29,-727	 x29:0x0000060a x23=0x00000408
       34855000	      3484	80001c30	01538533	add	x10,x7,x21	  x7:0x00000000 x21:0x00000000 x10=0x00000000
       34865000	      3485	80001c34	01397233	and	x4,x18,x19	 x18:0xffff95d7 x19:0x80009826  x4=0x80009006
       34875000	      3486	80001c38	005c5663	bge	x24,x5,80001c44	 x24:0x00000001  x5:0x00000000
       34885000	      3487	00000000	00000013	addi	x0,x0,0	  x0:0x00000000
       34895000	      3488	80001c40	00000013	addi	x0,x0,0	  x0:0x00000000
       34905000	      3489	80001c44	945d3213	sltiu	x4,x26,-1723	 x26:0x00004000  x4=0x00000001
       34915000	      3490	80001c48	00000013	addi	x0,x0,0	  x0:0x00000000
       34925000	      3491	80001c4c	a26cca17	auipc	x20,0xa26cc	 x20=0x226cdc48
       34935000	      3492	80001c50	008fb7b3	sltu	x15,x31,x8	 x31:0x00000400  x8:0xfffffc8a x15=0x00000001
       34945000	      3493	80001c54	00007117	auipc	x2,0x7	  x2=0x80008c50
       34955000	      3494	80001c58	fa910113	addi	x2,x2,-87	  x2:0x80008c50  x2=0x80008bf9
       34965000	      3495	80001c5c	0e5121a3	sw	x5,227(x2)	  x2:0x80008bf9  x5:0x00000000 PA:0x80008cdc
       34975000	      3496	80001c60	0188fe33	and	x28,x17,x24	 x17:0x00000000 x24:0x00000001 x28=0x00000000
       34985000	      3497	80001c64	019ec933	xor	x18,x29,x25	 x29:0x0000060a x25:0x00000001 x18=0x0000060b
       34995000	      3498	80001c68	416dd713	srai	x14,x27,0x16	 x27:0x80009efc x14=0xfffffe00
       35005000	      3499	80001c6c	400cd513	srai	x10,x25,0x0	 x25:0x00000001 x10=0x00000001
       35015000	      3500	80001c70	02baf193	andi	x3,x21,43	 x21:0x00000000  x3=0x00000000
       35025000	      3501	80001c74	db414a03	lbu	x20,-588(x2)	  x2:0x80008bf9 x20=0x0000002d PA:0x800089ad
       35035000	      3502	80001c78	08014c83	lbu	x25,128(x2)	  x2:0x80008bf9 x25=0x000000da PA:0x80008c79
       35045000	      3503	80001c7c	00f9dc93	srli	x25,x19,0xf	 x19:0x80009826 x25=0x00010001
       35055000	      3504	80001c80	dcc10403	lb	x8,-564(x2)	  x2:0x80008bf9  x8=0xffffffda PA:0x800089c5
       35065000	      3505	80001c84	23114003	lbu	x0,561(x2)	  x2:0x80008bf9 PA:0x80008e2a
       35075000	      3506	80001c88	00000013	addi	x0,x0,0	  x0:0x00000000
       35085000	      3507	80001c8c	27d10403	lb	x8,637(x2)	  x2:0x80008bf9  x8=0x0000006f PA:0x80008e76
       35095000	      3508	80001c90	01f3f533	and	x10,x7,x31	  x7:0x00000000 x31:0x00000400 x10=0x00000000
       35105000	      3509	80001c94	c4e10683	lb	x13,-946(x2)	  x2:0x80008bf9 x13=0xffffffe5 PA:0x80008847
       35115000	      3510	80001c98	002856b3	srl	x13,x16,x2	 x16:0x80009fc4  x2:0x80008bf9 x13=0x00000040
       35125000	      3511	80001c9c	cef1e493	ori	x9,x3,-785	  x3:0x00000000  x9=0xfffffcef
       35135000	      3512	80001ca0	012788b3	add	x17,x15,x18	 x15:0x00000001 x18:0x0000060b x17=0x0000060c
       35145000	      3513	80001ca4	220113a3	sh	x0,551(x2)	  x2:0x80008bf9  x0:0x00000000 PA:0x80008e20
       35155000	      3514	80001ca8	af346537	lui	x10,0xaf346	 x10=0xaf346000
       35165000	      3515	80001cac	02010503	lb	x10,32(x2)	  x2:0x80008bf9 x10=0x00000018 PA:0x80008c19
       35175000	      3516	80001cb0	d6d10c83	lb	x25,-659(x2)	  x2:0x80008bf9 x25=0xffffffd5 PA:0x80008966
       35185000	      3517	80001cb4	f8910d23	sb	x9,-102(x2)	  x2:0x80008bf9  x9:0xfffffcef PA:0x80008b93
       35195000	      3518	80001cb8	416b8eb3	sub	x29,x23,x22	 x23:0x00000408 x22:0x00000000 x29=0x00000408
       35205000	      3519	80001cbc	001a1693	slli	x13,x20,0x1	 x20:0x0000002d x13=0x0000005a
       35215000	      3520	80001cc0	c8711fa3	sh	x7,-865(x2)	  x2:0x80008bf9  x7:0x00000000 PA:0x80008898
       35225000	      3521	80001cc4	013f1533	sll	x10,x30,x19	 x30:0xffff9457 x19:0x80009826 x10=0xffe515c0
       35235000	      3522	80001cc8	35067113	andi	x2,x12,848	 x12:0x00000000  x2=0x00000000
       35245000	      3523	80001ccc	019c33b3	sltu	x7,x24,x25	 x24:0x00000001 x25:0xffffffd5  x7=0x00000001
       35255000	      3524	80001cd0	01f3e3b3	or	x7,x7,x31	  x7:0x00000001 x31:0x00000400  x7=0x00000401
       35265000	      3525	80001cd4	00500133	add	x2,x0,x5	  x0:0x00000000  x5:0x00000000  x2=0x00000000
       35275000	      3526	80001cd8	034c4063	blt	x24,x20,80001cf8	 x24:0x00000001 x20:0x0000002d
       35285000	      3527	00000000	00000013	addi	x0,x0,0	  x0:0x00000000
       35295000	      3528	80001cf4	00000013	addi	x0,x0,0	  x0:0x00000000
       35305000	      3529	80001cf8	02047063	bgeu	x8,x0,80001d18	  x8:0x0000006f  x0:0x00000000
       35315000	      3530	00000000	00000013	addi	x0,x0,0	  x0:0x00000000
       35325000	      3531	80001d14	00000013	addi	x0,x0,0	  x0:0x00000000
       35335000	      3532	80001d18	01631533	sll	x10,x6,x22	  x6:0x000003a4 x22:0x00000000 x10=0x000003a4
       35345000	      3533	80001d1c	30cdf893	andi	x17,x27,780	 x27:0x80009efc x17=0x0000020c
       35355000	      3534	80001d20	04f5e063	bltu	x11,x15,80001d60	 x11:0x7fff603c x15:0x00000001
       35365000	      3535	80001d24	00198c63	beq	x19,x1,80001d3c	 x19:0x80009826  x1:0x00000000
       35375000	      3536	80001d28	0243f063	bgeu	x7,x4,80001d48	  x7:0x00000401  x4:0x00000001
       35385000	      3537	00000000	00000013	addi	x0,x0,0	  x0:0x00000000
       35395000	      3538	80001d44	00000013	addi	x0,x0,0	  x0:0x00000000
       35405000	      3539	80001d48	0353ca63	blt	x7,x21,80001d7c	  x7:0x00000401 x21:0x00000000
       35415000	      3540	80001d4c	00000013	addi	x0,x0,0	  x0:0x00000000
       35425000	      3541	80001d50	05d60663	beq	x12,x29,80001d9c	 x12:0x00000000 x29:0x00000408
       35435000	      3542	80001d54	02145c63	bge	x8,x1,80001d8c	  x8:0x0000006f  x1:0x00000000
       35445000	      3543	00000000	00000013	addi	x0,x0,0	  x0:0x00000000
       35455000	      3544	80001d88	00000013	addi	x0,x0,0	  x0:0x00000000
       35465000	      3545	80001d8c	9904a613	slti	x12,x9,-1648	  x9:0xfffffcef x12=0x00000000
       35475000	      3546	80001d90	003e5293	srli	x5,x28,0x3	 x28:0x00000000  x5=0x00000000
       35485000	      3547	80001d94	8aebc213	xori	x4,x23,-1874	 x23:0x00000408  x4=0xfffffca6
       35495000	      3548	80001d98	01279e93	slli	x29,x15,0x12	 x15:0x00000001 x29=0x00040000
       35505000	      3549	80001d9c	00657c63	bgeu	x10,x6,80001db4	 x10:0x000003a4  x6:0x000003a4
       35515000	      3550	00000000	00000013	addi	x0,x0,0	  x0:0x00000000
       35525000	      3551	80001db0	00000013	addi	x0,x0,0	  x0:0x00000000
       35535000	      3552	80001db4	01b8ceb3	xor	x29,x17,x27	 x17:0x0000020c x27:0x80009efc x29=0x80009cf0
       35545000	      3553	80001db8	f51a9537	lui	x10,0xf51a9	 x10=0xf51a9000
       35555000	      3554	80001dbc	402b5bb3	sra	x23,x22,x2	 x22:0x00000000  x2:0x00000000 x23=0x00000000
       35565000	      3555	80001dc0	40a40eb3	sub	x29,x8,x10	  x8:0x0000006f x10:0xf51a9000 x29=0x0ae5706f
       35575000	      3556	80001dc4	010a9c63	bne	x21,x16,80001ddc	 x21:0x00000000 x16:0x80009fc4
       35585000	      3557	00000000	00000013	addi	x0,x0,0	  x0:0x00000000
       35595000	      3558	80001dd8	00000013	addi	x0,x0,0	  x0:0x00000000
       35605000	      3559	80001ddc	a4552413	slti	x8,x10,-1467	 x10:0xf51a9000  x8=0x00000001
       35615000	      3560	80001de0	419389b3	sub	x19,x7,x25	  x7:0x00000401 x25:0xffffffd5 x19=0x0000042c
       35625000	      3561	80001de4	00000013	addi	x0,x0,0	  x0:0x00000000
       35635000	      3562	80001de8	010ae5b3	or	x11,x21,x16	 x21:0x00000000 x16:0x80009fc4 x11=0x80009fc4
       35645000	      3563	80001dec	41650fb3	sub	x31,x10,x22	 x10:0xf51a9000 x22:0x00000000 x31=0xf51a9000
       35655000	      3564	80001df0	0027b1b3	sltu	x3,x15,x2	 x15:0x00000001  x2:0x00000000  x3=0x00000000
       35665000	      3565	80001df4	0119bb33	sltu	x22,x19,x17	 x19:0x0000042c x17:0x0000020c x22=0x00000000
       35675000	      3566	80001df8	00113133	sltu	x2,x2,x1	  x2:0x00000000  x1:0x00000000  x2=0x00000000
       35685000	      3567	80001dfc	0154b3b3	sltu	x7,x9,x21	  x9:0xfffffcef x21:0x00000000  x7=0x00000000
       35695000	      3568	80001e00	01031693	slli	x13,x6,0x10	  x6:0x000003a4 x13=0x03a40000
       35705000	      3569	80001e04	019e6263	bltu	x28,x25,80001e08	 x28:0x00000000 x25:0xffffffd5
       35715000	      3570	00000000	00000013	addi	x0,x0,0	  x0:0x00000000
       35725000	      3571	80001e04	00000013	addi	x0,x0,0	  x0:0x00000000
       35735000	      3572	80001e08	50866997	auipc	x19,0x50866	 x19=0xd0867e04
       35745000	      3573	80001e0c	01521e13	slli	x28,x4,0x15	  x4:0xfffffca6 x28=0x94c00000
       35755000	      3574	80001e10	04d6d663	bge	x13,x13,80001e5c	 x13:0x03a40000 x13:0x03a40000
       35765000	      3575	00000000	00000013	addi	x0,x0,0	  x0:0x00000000
       35775000	      3576	80001e58	00000013	addi	x0,x0,0	  x0:0x00000000
       35785000	      3577	80001e5c	00640033	add	x0,x8,x6	  x8:0x00000001  x6:0x000003a4
       35795000	      3578	80001e60	407d5513	srai	x10,x26,0x7	 x26:0x00004000 x10=0x00000080
       35805000	      3579	80001e64	010a2eb3	slt	x29,x20,x16	 x20:0x0000002d x16:0x80009fc4 x29=0x00000000
       35815000	      3580	80001e68	01b9fc63	bgeu	x19,x27,80001e80	 x19:0xd0867e04 x27:0x80009efc
       35825000	      3581	00000000	00000013	addi	x0,x0,0	  x0:0x00000000
       35835000	      3582	80001e7c	00000013	addi	x0,x0,0	  x0:0x00000000
       35845000	      3583	80001e80	018d1a63	bne	x26,x24,80001e94	 x26:0x00004000 x24:0x00000001
       35855000	      3584	00000000	00000013	addi	x0,x0,0	  x0:0x00000000
       35865000	      3585	80001e90	00000013	addi	x0,x0,0	  x0:0x00000000
       35875000	      3586	80001e94	01095e63	bge	x18,x16,80001eb0	 x18:0x0000060b x16:0x80009fc4
       35885000	      3587	00000000	00000013	addi	x0,x0,0	  x0:0x00000000
       35895000	      3588	80001eac	00000013	addi	x0,x0,0	  x0:0x00000000
       35905000	      3589	80001eb0	01c1fc63	bgeu	x3,x28,80001ec8	  x3:0x00000000 x28:0x94c00000
       35915000	      3590	80001eb4	4167dc33	sra	x24,x15,x22	 x15:0x00000001 x22:0x00000000 x24=0x00000001
       35925000	      3591	80001eb8	00000013	addi	x0,x0,0	  x0:0x00000000
       35935000	      3592	80001ebc	002d1c93	slli	x25,x26,0x2	 x26:0x00004000 x25=0x00010000
       35945000	      3593	80001ec0	01d45133	srl	x2,x8,x29	  x8:0x00000001 x29:0x00000000  x2=0x00000001
       35955000	      3594	80001ec4	0492f863	bgeu	x5,x9,80001f14	  x5:0x00000000  x9:0xfffffcef
       35965000	      3595	80001ec8	cb777893	andi	x17,x14,-841	 x14:0xfffffe00 x17=0xfffffc00
       35975000	      3596	80001ecc	00cd4e63	blt	x26,x12,80001ee8	 x26:0x00004000 x12:0x00000000
       35985000	      3597	80001ed0	0136b5b3	sltu	x11,x13,x19	 x13:0x03a40000 x19:0xd0867e04 x11=0x00000001
       35995000	      3598	80001ed4	02de5863	bge	x28,x13,80001f04	 x28:0x94c00000 x13:0x03a40000
       36005000	      3599	80001ed8	01736133	or	x2,x6,x23	  x6:0x000003a4 x23:0x00000000  x2=0x000003a4
       36015000	      3600	80001edc	0107b693	sltiu	x13,x15,16	 x15:0x00000001 x13=0x00000001
       36025000	      3601	80001ee0	01451eb3	sll	x29,x10,x20	 x10:0x00000080 x20:0x0000002d x29=0x00100000
       36035000	      3602	80001ee4	414c5613	srai	x12,x24,0x14	 x24:0x00000001 x12=0x00000000
       36045000	      3603	80001ee8	f2bec013	xori	x0,x29,-213	 x29:0x00100000
       36055000	      3604	80001eec	000c03b3	add	x7,x24,x0	 x24:0x00000001  x0:0x00000000  x7=0x00000001
       36065000	      3605	80001ef0	7f683e93	sltiu	x29,x16,2038	 x16:0x80009fc4 x29=0x00000000
       36075000	      3606	80001ef4	f6a33437	lui	x8,0xf6a33	  x8=0xf6a33000
       36085000	      3607	80001ef8	87b48213	addi	x4,x9,-1925	  x9:0xfffffcef  x4=0xfffff56a
       36095000	      3608	80001efc	054e9663	bne	x29,x20,80001f48	 x29:0x00000000 x20:0x0000002d
       36105000	      3609	00000000	00000013	addi	x0,x0,0	  x0:0x00000000
       36115000	      3610	80001f44	00000013	addi	x0,x0,0	  x0:0x00000000
       36125000	      3611	80001f48	01b31933	sll	x18,x6,x27	  x6:0x000003a4 x27:0x80009efc x18=0x40000000
       36135000	      3612	80001f4c	3232c9b7	lui	x19,0x3232c	 x19=0x3232c000
       36145000	      3613	80001f50	b33f7417	auipc	x8,0xb33f7	  x8=0x333f8f4c
       36155000	      3614	80001f54	41f50cb3	sub	x25,x10,x31	 x10:0x00000080 x31:0xf51a9000 x25=0x0ae57080
       36165000	      3615	80001f58	62a53293	sltiu	x5,x10,1578	 x10:0x00000080  x5=0x00000001
       36175000	      3616	80001f5c	48136113	ori	x2,x6,1153	  x6:0x000003a4  x2=0x000007a5
       36185000	      3617	80001f60	0118abb3	slt	x23,x17,x17	 x17:0xfffffc00 x17:0xfffffc00 x23=0x00000000
       36195000	      3618	80001f64	016533b3	sltu	x7,x10,x22	 x10:0x00000080 x22:0x00000000  x7=0x00000000
       36205000	      3619	80001f68	01f143b3	xor	x7,x2,x31	  x2:0x000007a5 x31:0xf51a9000  x7=0xf51a97a5
       36215000	      3620	80001f6c	98c83a97	auipc	x21,0x98c83	 x21=0x18c84f68
       36225000	      3621	80001f70	b5fe4713	xori	x14,x28,-1185	 x28:0x94c00000 x14=0x6b3ffb5f
       36235000	      3622	80001f74	014a4d33	xor	x26,x20,x20	 x20:0x0000002d x20:0x0000002d x26=0x00000000
       36245000	      3623	80001f78	0049ef33	or	x30,x19,x4	 x19:0x3232c000  x4:0xfffff56a x30=0xfffff56a
       36255000	      3624	80001f7c	db36cb93	xori	x23,x13,-589	 x13:0x00000001 x23=0xfffffdb2
       36265000	      3625	80001f80	00000013	addi	x0,x0,0	  x0:0x00000000
       36275000	      3626	80001f84	000ddb93	srli	x23,x27,0x0	 x27:0x80009efc x23=0x80009efc
       36285000	      3627	80001f88	000b4eb3	xor	x29,x22,x0	 x22:0x00000000  x0:0x00000000 x29=0x00000000
       36295000	      3628	80001f8c	2764b213	sltiu	x4,x9,630	  x9:0xfffffcef  x4=0x00000000
       36305000	      3629	80001f90	019286b3	add	x13,x5,x25	  x5:0x00000001 x25:0x0ae57080 x13=0x0ae57081
       36315000	      3630	80001f94	12e76017	auipc	x0,0x12e76	
       36325000	      3631	80001f98	014dccb3	xor	x25,x27,x20	 x27:0x80009efc x20:0x0000002d x25=0x80009ed1
       36335000	      3632	80001f9c	0a25da37	lui	x20,0xa25d	 x20=0x0a25d000
       36345000	      3633	80001fa0	01c7df93	srli	x31,x15,0x1c	 x15:0x00000001 x31=0x00000000
       36355000	      3634	80001fa4	014d9593	slli	x11,x27,0x14	 x27:0x80009efc x11=0xefc00000
       36365000	      3635	80001fa8	04ff1663	bne	x30,x15,80001ff4	 x30:0xfffff56a x15:0x00000001
       36375000	      3636	00000000	00000013	addi	x0,x0,0	  x0:0x00000000
       36385000	      3637	80001ff0	00000013	addi	x0,x0,0	  x0:0x00000000
       36395000	      3638	80001ff4	001e5933	srl	x18,x28,x1	 x28:0x94c00000  x1:0x00000000 x18=0x94c00000
       36405000	      3639	80001ff8	5eb41c97	auipc	x25,0x5eb41	 x25=0xdeb42ff4
       36415000	      3640	80001ffc	001d01b3	add	x3,x26,x1	 x26:0x00000000  x1:0x00000000  x3=0x00000000
       36425000	      3641	80002000	bb5d8113	addi	x2,x27,-1099	 x27:0x80009efc  x2=0x80009ab1
       36435000	      3642	80002004	00000013	addi	x0,x0,0	  x0:0x00000000
       36445000	      3643	80002008	0e5f3613	sltiu	x12,x30,229	 x30:0xfffff56a x12=0x00000000
       36455000	      3644	8000200c	0123efb3	or	x31,x7,x18	  x7:0xf51a97a5 x18:0x94c00000 x31=0xf5da97a5
       36465000	      3645	80002010	05541063	bne	x8,x21,80002050	  x8:0x333f8f4c x21:0x18c84f68
       36475000	      3646	00000000	00000013	addi	x0,x0,0	  x0:0x00000000
       36485000	      3647	8000204c	00000013	addi	x0,x0,0	  x0:0x00000000
       36495000	      3648	80002050	01ef6863	bltu	x30,x30,80002060	 x30:0xfffff56a x30:0xfffff56a
       36505000	      3649	80002054	02eb9063	bne	x23,x14,80002074	 x23:0x80009efc x14:0x6b3ffb5f
       36515000	      3650	00000000	00000013	addi	x0,x0,0	  x0:0x00000000
       36525000	      3651	80002070	00000013	addi	x0,x0,0	  x0:0x00000000
       36535000	      3652	80002074	40f60533	sub	x10,x12,x15	 x12:0x00000000 x15:0x00000001 x10=0xffffffff
       36545000	      3653	80002078	1c8ef913	andi	x18,x29,456	 x29:0x00000000 x18=0x00000000
       36555000	      3654	8000207c	00190663	beq	x18,x1,80002088	 x18:0x00000000  x1:0x00000000
       36565000	      3655	00000000	00000013	addi	x0,x0,0	  x0:0x00000000
       36575000	      3656	80002084	00000013	addi	x0,x0,0	  x0:0x00000000
       36585000	      3657	80002088	997bcab7	lui	x21,0x997bc	 x21=0x997bc000
       36595000	      3658	8000208c	016b1b33	sll	x22,x22,x22	 x22:0x00000000 x22:0x00000000 x22=0x00000000
       36605000	      3659	80002090	00e7c263	blt	x15,x14,80002094	 x15:0x00000001 x14:0x6b3ffb5f
       36615000	      3660	00000000	00000013	addi	x0,x0,0	  x0:0x00000000
       36625000	      3661	80002090	00000013	addi	x0,x0,0	  x0:0x00000000
       36635000	      3662	80002094	f2db8193	addi	x3,x23,-211	 x23:0x80009efc  x3=0x80009e29
       36645000	      3663	80002098	00000013	addi	x0,x0,0	  x0:0x00000000
       36655000	      3664	8000209c	47f53a13	sltiu	x20,x10,1151	 x10:0xffffffff x20=0x00000000
       36665000	      3665	800020a0	ce852293	slti	x5,x10,-792	 x10:0xffffffff  x5=0x00000000
       36675000	      3666	800020a4	c12ea313	slti	x6,x29,-1006	 x29:0x00000000  x6=0x00000000
       36685000	      3667	800020a8	c4ae7e93	andi	x29,x28,-950	 x28:0x94c00000 x29=0x94c00000
       36695000	      3668	800020ac	037ef863	bgeu	x29,x23,800020dc	 x29:0x94c00000 x23:0x80009efc
       36705000	      3669	00000000	00000013	addi	x0,x0,0	  x0:0x00000000
       36715000	      3670	800020d8	00000013	addi	x0,x0,0	  x0:0x00000000
       36725000	      3671	800020dc	0394c663	blt	x9,x25,80002108	  x9:0xfffffcef x25:0xdeb42ff4
       36735000	      3672	800020e0	0127d133	srl	x2,x15,x18	 x15:0x00000001 x18:0x00000000  x2=0x00000001
       36745000	      3673	800020e4	03a88863	beq	x17,x26,80002114	 x17:0xfffffc00 x26:0x00000000
       36755000	      3674	800020e8	029e8063	beq	x29,x9,80002108	 x29:0x94c00000  x9:0xfffffcef
       36765000	      3675	800020ec	0163cc63	blt	x7,x22,80002104	  x7:0xf51a97a5 x22:0x00000000
       36775000	      3676	00000000	00000013	addi	x0,x0,0	  x0:0x00000000
       36785000	      3677	80002100	00000013	addi	x0,x0,0	  x0:0x00000000
       36795000	      3678	80002104	01e2de33	srl	x28,x5,x30	  x5:0x00000000 x30:0xfffff56a x28=0x00000000
       36805000	      3679	80002108	01361a33	sll	x20,x12,x19	 x12:0x00000000 x19:0x3232c000 x20=0x00000000
       36815000	      3680	8000210c	014d8e33	add	x28,x27,x20	 x27:0x80009efc x20:0x00000000 x28=0x80009efc
       36825000	      3681	80002110	4147dfb3	sra	x31,x15,x20	 x15:0x00000001 x20:0x00000000 x31=0x00000001
       36835000	      3682	80002114	a832f193	andi	x3,x5,-1405	  x5:0x00000000  x3=0x00000000
       36845000	      3683	80002118	00006f97	auipc	x31,0x6	 x31=0x80008114
       36855000	      3684	8000211c	08cf8f93	addi	x31,x31,140	 x31:0x80008114 x31=0x800081a0
       36865000	      3685	80002120	7d82ae93	slti	x29,x5,2008	  x5:0x00000000 x29=0x00000001
       36875000	      3686	80002124	41c402b3	sub	x5,x8,x28	  x8:0x333f8f4c x28:0x80009efc  x5=0xb33ef050
       36885000	      3687	80002128	00ef8c83	lb	x25,14(x31)	 x31:0x800081a0 x25=0xffffffc7 PA:0x800081ae
       36895000	      3688	8000212c	00000013	addi	x0,x0,0	  x0:0x00000000
       36905000	      3689	80002130	d57fbb13	sltiu	x22,x31,-681	 x31:0x800081a0 x22=0x00000001
       36915000	      3690	80002134	e5c4cc13	xori	x24,x9,-420	  x9:0xfffffcef x24=0x000002b3
       36925000	      3691	80002138	2ef91d37	lui	x26,0x2ef91	 x26=0x2ef91000
       36935000	      3692	8000213c	fedf9823	sh	x13,-16(x31)	 x31:0x800081a0 x13:0x0ae57081 PA:0x80008190
       36945000	      3693	80002140	e6e30213	addi	x4,x6,-402	  x6:0x00000000  x4=0xfffffe6e
       36955000	      3694	80002144	018fb1b3	sltu	x3,x31,x24	 x31:0x800081a0 x24:0x000002b3  x3=0x00000000
       36965000	      3695	80002148	00b37633	and	x12,x6,x11	  x6:0x00000000 x11:0xefc00000 x12=0x00000000
       36975000	      3696	8000214c	01bf9223	sh	x27,4(x31)	 x31:0x800081a0 x27:0x80009efc PA:0x800081a4
       36985000	      3697	80002150	0109a333	slt	x6,x19,x16	 x19:0x3232c000 x16:0x80009fc4  x6=0x00000000
       36995000	      3698	80002154	003f8483	lb	x9,3(x31)	 x31:0x800081a0  x9=0x0000007a PA:0x800081a3
       37005000	      3699	80002158	9123de97	auipc	x29,0x9123d	 x29=0x1123f154
       37015000	      3700	8000215c	00aa7f33	and	x30,x20,x10	 x20:0x00000000 x10:0xffffffff x30=0x00000000
       37025000	      3701	80002160	95fd5d37	lui	x26,0x95fd5	 x26=0x95fd5000
       37035000	      3702	80002164	ffff8183	lb	x3,-1(x31)	 x31:0x800081a0  x3=0x0000004b PA:0x8000819f
       37045000	      3703	80002168	fe0fac23	sw	x0,-8(x31)	 x31:0x800081a0  x0:0x00000000 PA:0x80008198
       37055000	      3704	8000216c	010e9633	sll	x12,x29,x16	 x29:0x1123f154 x16:0x80009fc4 x12=0x123f1540
       37065000	      3705	80002170	416cd233	sra	x4,x25,x22	 x25:0xffffffc7 x22:0x00000001  x4=0xffffffe3
       37075000	      3706	80002174	00dbb8b3	sltu	x17,x23,x13	 x23:0x80009efc x13:0x0ae57081 x17=0x00000000
       37085000	      3707	80002178	0061c7b3	xor	x15,x3,x6	  x3:0x0000004b  x6:0x00000000 x15=0x0000004b
       37095000	      3708	8000217c	fe8f8aa3	sb	x8,-11(x31)	 x31:0x800081a0  x8:0x333f8f4c PA:0x80008195
       37105000	      3709	80002180	00af8523	sb	x10,10(x31)	 x31:0x800081a0 x10:0xffffffff PA:0x800081aa
       37115000	      3710	80002184	150dfb93	andi	x23,x27,336	 x27:0x80009efc x23=0x00000050
       37125000	      3711	80002188	ff7fc903	lbu	x18,-9(x31)	 x31:0x800081a0 x18=0x00000013 PA:0x80008197
       37135000	      3712	8000218c	015017b3	sll	x15,x0,x21	  x0:0x00000000 x21:0x997bc000 x15=0x00000000
       37145000	      3713	80002190	40bd5bb3	sra	x23,x26,x11	 x26:0x95fd5000 x11:0xefc00000 x23=0x95fd5000
       37155000	      3714	80002194	ff7f8383	lb	x7,-9(x31)	 x31:0x800081a0  x7=0x00000013 PA:0x80008197
       37165000	      3715	80002198	00349493	slli	x9,x9,0x3	  x9:0x0000007a  x9=0x000003d0
       37175000	      3716	8000219c	0019a933	slt	x18,x19,x1	 x19:0x3232c000  x1:0x00000000 x18=0x00000000
       37185000	      3717	800021a0	ffbfc283	lbu	x5,-5(x31)	 x31:0x800081a0  x5=0x00000000 PA:0x8000819b
       37195000	      3718	800021a4	ff6f8923	sb	x22,-14(x31)	 x31:0x800081a0 x22:0x00000001 PA:0x80008192
       37205000	      3719	800021a8	5fb50fb7	lui	x31,0x5fb50	 x31=0x5fb50000
       37215000	      3720	800021ac	01862533	slt	x10,x12,x24	 x12:0x123f1540 x24:0x000002b3 x10=0x00000000
       37225000	      3721	800021b0	03615c63	bge	x2,x22,800021e8	  x2:0x00000001 x22:0x00000001
       37235000	      3722	00000000	00000013	addi	x0,x0,0	  x0:0x00000000
       37245000	      3723	800021e4	00000013	addi	x0,x0,0	  x0:0x00000000
       37255000	      3724	800021e8	084ef493	andi	x9,x29,132	 x29:0x1123f154  x9=0x00000004
       37265000	      3725	800021ec	01d13a33	sltu	x20,x2,x29	  x2:0x00000001 x29:0x1123f154 x20=0x00000001
       37275000	      3726	800021f0	01362fb3	slt	x31,x12,x19	 x12:0x123f1540 x19:0x3232c000 x31=0x00000001
       37285000	      3727	800021f4	011bd663	bge	x23,x17,80002200	 x23:0x95fd5000 x17:0x00000000
       37295000	      3728	800021f8	04155663	bge	x10,x1,80002244	 x10:0x00000000  x1:0x00000000
       37305000	      3729	00000000	00000013	addi	x0,x0,0	  x0:0x00000000
       37315000	      3730	80002240	00000013	addi	x0,x0,0	  x0:0x00000000
       37325000	      3731	80002244	00000013	addi	x0,x0,0	  x0:0x00000000
       37335000	      3732	80002248	fad12b93	slti	x23,x2,-83	  x2:0x00000001 x23=0x00000000
       37345000	      3733	8000224c	00bf55b3	srl	x11,x30,x11	 x30:0x00000000 x11:0xefc00000 x11=0x00000000
       37355000	      3734	80002250	409d0933	sub	x18,x26,x9	 x26:0x95fd5000  x9:0x00000004 x18=0x95fd4ffc
       37365000	      3735	80002254	015361b3	or	x3,x6,x21	  x6:0x00000000 x21:0x997bc000  x3=0x997bc000
       37375000	      3736	80002258	5043e937	lui	x18,0x5043e	 x18=0x5043e000
       37385000	      3737	8000225c	014bdbb3	srl	x23,x23,x20	 x23:0x00000000 x20:0x00000001 x23=0x00000000
       37395000	      3738	80002260	00aeca33	xor	x20,x29,x10	 x29:0x1123f154 x10:0x00000000 x20=0x1123f154
       37405000	      3739	80002264	40d7db33	sra	x22,x15,x13	 x15:0x00000000 x13:0x0ae57081 x22=0x00000000
       37415000	      3740	80002268	1f073737	lui	x14,0x1f073	 x14=0x1f073000
       37425000	      3741	8000226c	008a6a33	or	x20,x20,x8	 x20:0x1123f154  x8:0x333f8f4c x20=0x333fff5c
       37435000	      3742	80002270	004da903	lw	x18,4(x27)	 x27:0x80009efc x18=0x800050e4 PA:0x80009f00
       37445000	      3743	80002274	01beb2b3	sltu	x5,x29,x27	 x29:0x1123f154 x27:0x80009efc  x5=0x00000001
       37455000	      3744	80002278	038d8d93	addi	x27,x27,56	 x27:0x80009efc x27=0x80009f34
       37465000	      3745	8000227c	00a0e2b3	or	x5,x1,x10	  x1:0x00000000 x10:0x00000000  x5=0x00000000
       37475000	      3746	80002280	a5880b13	addi	x22,x16,-1448	 x16:0x80009fc4 x22=0x80009a1c
       37485000	      3747	80002284	af7b6313	ori	x6,x22,-1289	 x22:0x80009a1c  x6=0xfffffaff
       37495000	      3748	80002288	d9352037	lui	x0,0xd9352	
       37505000	      3749	8000228c	41375fb3	sra	x31,x14,x19	 x14:0x1f073000 x19:0x3232c000 x31=0x1f073000
       37515000	      3750	80002290	00092333	slt	x6,x18,x0	 x18:0x800050e4  x0:0x00000000  x6=0x00000001
       37525000	      3751	80002294	63894413	xori	x8,x18,1592	 x18:0x800050e4  x8=0x800056dc
       37535000	      3752	80002298	4108dfb3	sra	x31,x17,x16	 x17:0x00000000 x16:0x80009fc4 x31=0x00000000
       37545000	      3753	8000229c	00190393	addi	x7,x18,1	 x18:0x800050e4  x7=0x800050e5
       37555000	      3754	800022a0	000383e7	jalr	x7,x7,0	  x7:0x800050e5  x7=0x800022a0
       37565000	      3755	00000000	00000013	addi	x0,x0,0	  x0:0x00000000
       37575000	      3756	800050e4	00000013	addi	x0,x0,0	  x0:0x00000000
       37585000	      3757	800050e8	f0917717	auipc	x14,0xf0917	 x14=0x7091c0e4
       37595000	      3758	800050ec	01925863	bge	x4,x25,800050fc	  x4:0xffffffe3 x25:0xffffffc7
       37605000	      3759	00000000	00000013	addi	x0,x0,0	  x0:0x00000000
       37615000	      3760	800050f8	00000013	addi	x0,x0,0	  x0:0x00000000
       37625000	      3761	800050fc	879dc293	xori	x5,x27,-1927	 x27:0x80009f34  x5=0x7fff674d
       37635000	      3762	80005100	01701bb3	sll	x23,x0,x23	  x0:0x00000000 x23:0x00000000 x23=0x00000000
       37645000	      3763	80005104	73c2fb13	andi	x22,x5,1852	  x5:0x7fff674d x22=0x0000070c
       37655000	      3764	80005108	fbe80f37	lui	x30,0xfbe80	 x30=0xfbe80000
       37665000	      3765	8000510c	013f5c63	bge	x30,x19,80005124	 x30:0xfbe80000 x19:0x3232c000
       37675000	      3766	80005110	41c5de13	srai	x28,x11,0x1c	 x11:0x00000000 x28=0x00000000
       37685000	      3767	80005114	01a9e8b3	or	x17,x19,x26	 x19:0x3232c000 x26:0x95fd5000 x17=0xb7ffd000
       37695000	      3768	80005118	01fff8b3	and	x17,x31,x31	 x31:0x00000000 x31:0x00000000 x17=0x00000000
       37705000	      3769	8000511c	7fbd8193	addi	x3,x27,2043	 x27:0x80009f34  x3=0x8000a72f
       37715000	      3770	80005120	4572b393	sltiu	x7,x5,1111	  x5:0x7fff674d  x7=0x00000000
       37725000	      3771	80005124	01011733	sll	x14,x2,x16	  x2:0x00000001 x16:0x80009fc4 x14=0x00000010
       37735000	      3772	80005128	00c295b3	sll	x11,x5,x12	  x5:0x7fff674d x12:0x123f1540 x11=0x7fff674d
       37745000	      3773	8000512c	05830863	beq	x6,x24,8000517c	  x6:0x00000001 x24:0x000002b3
       37755000	      3774	80005130	04cc4463	blt	x24,x12,80005178	 x24:0x000002b3 x12:0x123f1540
       37765000	      3775	00000000	00000013	addi	x0,x0,0	  x0:0x00000000
       37775000	      3776	80005174	00000013	addi	x0,x0,0	  x0:0x00000000
       37785000	      3777	80005178	01a11133	sll	x2,x2,x26	  x2:0x00000001 x26:0x95fd5000  x2=0x00000001
       37795000	      3778	8000517c	f4b5a993	slti	x19,x11,-181	 x11:0x7fff674d x19=0x00000000
       37805000	      3779	80005180	00545a63	bge	x8,x5,80005194	  x8:0x800056dc  x5:0x7fff674d
       37815000	      3780	80005184	04f14463	blt	x2,x15,800051cc	  x2:0x00000001 x15:0x00000000
       37825000	      3781	80005188	01e30ab3	add	x21,x6,x30	  x6:0x00000001 x30:0xfbe80000 x21=0xfbe80001
       37835000	      3782	8000518c	029af463	bgeu	x21,x9,800051b4	 x21:0xfbe80001  x9:0x00000004
       37845000	      3783	00000000	00000013	addi	x0,x0,0	  x0:0x00000000
       37855000	      3784	800051b0	00000013	addi	x0,x0,0	  x0:0x00000000
       37865000	      3785	800051b4	3c1b3f13	sltiu	x30,x22,961	 x22:0x0000070c x30=0x00000000
       37875000	      3786	800051b8	00f31ab3	sll	x21,x6,x15	  x6:0x00000001 x15:0x00000000 x21=0x00000001
       37885000	      3787	800051bc	b91ee313	ori	x6,x29,-1135	 x29:0x1123f154  x6=0xfffffbd5
       37895000	      3788	800051c0	00afd933	srl	x18,x31,x10	 x31:0x00000000 x10:0x00000000 x18=0x00000000
       37905000	      3789	800051c4	c2c6b713	sltiu	x14,x13,-980	 x13:0x0ae57081 x14=0x00000001
       37915000	      3790	800051c8	00cd5993	srli	x19,x26,0xc	 x26:0x95fd5000 x19=0x00095fd5
       37925000	      3791	800051cc	408f52b3	sra	x5,x30,x8	 x30:0x00000000  x8:0x800056dc  x5=0x00000000
       37935000	      3792	800051d0	01c5dd13	srli	x26,x11,0x1c	 x11:0x7fff674d x26=0x00000007
       37945000	      3793	800051d4	c559d117	auipc	x2,0xc559d	  x2=0x455a21d0
       37955000	      3794	800051d8	012b9313	slli	x6,x23,0x12	 x23:0x00000000  x6=0x00000000
       37965000	      3795	800051dc	d3d64793	xori	x15,x12,-707	 x12:0x123f1540 x15=0xedc0e87d
       37975000	      3796	800051e0	0166dc63	bge	x13,x22,800051f8	 x13:0x0ae57081 x22:0x0000070c
       37985000	      3797	00000000	00000013	addi	x0,x0,0	  x0:0x00000000
       37995000	      3798	800051f4	00000013	addi	x0,x0,0	  x0:0x00000000
       38005000	      3799	800051f8	1e290a97	auipc	x21,0x1e290	 x21=0x9e2951f4
       38015000	      3800	800051fc	01535c63	bge	x6,x21,80005214	  x6:0x00000000 x21:0x9e2951f4
       38025000	      3801	00000000	00000013	addi	x0,x0,0	  x0:0x00000000
       38035000	      3802	80005210	00000013	addi	x0,x0,0	  x0:0x00000000
       38045000	      3803	80005214	00ebb1b3	sltu	x3,x23,x14	 x23:0x00000000 x14:0x00000001  x3=0x00000001
       38055000	      3804	80005218	09ee5063	bge	x28,x30,80005298	 x28:0x00000000 x30:0x00000000
       38065000	      3805	00000000	00000013	addi	x0,x0,0	  x0:0x00000000
       38075000	      3806	80005294	00000013	addi	x0,x0,0	  x0:0x00000000
       38085000	      3807	80005298	41978eb3	sub	x29,x15,x25	 x15:0xedc0e87d x25:0xffffffc7 x29=0xedc0e8b6
       38095000	      3808	8000529c	c4804793	xori	x15,x0,-952	  x0:0x00000000 x15=0xfffffc48
       38105000	      3809	800052a0	43ac8613	addi	x12,x25,1082	 x25:0xffffffc7 x12=0x00000401
       38115000	      3810	800052a4	004da903	lw	x18,4(x27)	 x27:0x80009f34 x18=0x80000e2c PA:0x80009f38
       38125000	      3811	800052a8	00000013	addi	x0,x0,0	  x0:0x00000000
       38135000	      3812	800052ac	018d8d93	addi	x27,x27,24	 x27:0x80009f34 x27=0x80009f4c
       38145000	      3813	800052b0	005a22b3	slt	x5,x20,x5	 x20:0x333fff5c  x5:0x00000000  x5=0x00000000
       38155000	      3814	800052b4	10f32b37	lui	x22,0x10f32	 x22=0x10f32000
       38165000	      3815	800052b8	00190293	addi	x5,x18,1	 x18:0x80000e2c  x5=0x80000e2d
       38175000	      3816	800052bc	000282e7	jalr	x5,x5,0	  x5:0x80000e2d  x5=0x800052bc
       38185000	      3817	00000000	00000013	addi	x0,x0,0	  x0:0x00000000
       38195000	      3818	80000e2c	00000013	addi	x0,x0,0	  x0:0x00000000
       38205000	      3819	80000e30	a6a26517	auipc	x10,0xa6a26	 x10=0x26a26e2c
       38215000	      3820	80000e34	00000013	addi	x0,x0,0	  x0:0x00000000
       38225000	      3821	80000e38	00f2c4b3	xor	x9,x5,x15	  x5:0x800052bc x15:0xfffffc48  x9=0x7fffaef4
       38235000	      3822	80000e3c	015cdf13	srli	x30,x25,0x15	 x25:0xffffffc7 x30=0x000007ff
       38245000	      3823	80000e40	40858b33	sub	x22,x11,x8	 x11:0x7fff674d  x8:0x800056dc x22=0xffff1071
       38255000	      3824	80000e44	291ef293	andi	x5,x29,657	 x29:0xedc0e8b6  x5=0x00000090
       38265000	      3825	80000e48	403405b3	sub	x11,x8,x3	  x8:0x800056dc  x3:0x00000001 x11=0x800056db
       38275000	      3826	80000e4c	0080496f	jal	x18,80000e4c	 x18=0x80000e4c
       38285000	      3827	00000000	00000013	addi	x0,x0,0	  x0:0x00000000
       38295000	      3828	80004e50	00000013	addi	x0,x0,0	  x0:0x00000000
       38305000	      3829	80004e54	5daa5717	auipc	x14,0x5daa5	 x14=0xddaa9e50
       38315000	      3830	80004e58	00bf9fb3	sll	x31,x31,x11	 x31:0x00000000 x11:0x800056db x31=0x00000000
       38325000	      3831	80004e5c	00544133	xor	x2,x8,x5	  x8:0x800056dc  x5:0x00000090  x2=0x8000564c
       38335000	      3832	80004e60	0008e863	bltu	x17,x0,80004e70	 x17:0x00000000  x0:0x00000000
       38345000	      3833	80004e64	4164d193	srai	x3,x9,0x16	  x9:0x7fffaef4  x3=0x000001ff
       38355000	      3834	80004e68	364d7f93	andi	x31,x26,868	 x26:0x00000007 x31=0x00000004
       38365000	      3835	80004e6c	5681fd13	andi	x26,x3,1384	  x3:0x000001ff x26=0x00000168
       38375000	      3836	80004e70	fe8d8d93	addi	x27,x27,-24	 x27:0x80009f4c x27=0x80009f34
       38385000	      3837	80004e74	012da223	sw	x18,4(x27)	 x27:0x80009f34 x18:0x80000e4c PA:0x80009f38
       38395000	      3838	80004e78	0086f433	and	x8,x13,x8	 x13:0x0ae57081  x8:0x800056dc  x8=0x00005080
       38405000	      3839	80004e7c	01684233	xor	x4,x16,x22	 x16:0x80009fc4 x22:0xffff1071  x4=0x7fff8fb5
       38415000	      3840	80004e80	2971a293	slti	x5,x3,663	  x3:0x000001ff  x5=0x00000001
       38425000	      3841	80004e84	41a5d413	srai	x8,x11,0x1a	 x11:0x800056db  x8=0xffffffe0
       38435000	      3842	80004e88	0150d513	srli	x10,x1,0x15	  x1:0x00000000 x10=0x00000000
       38445000	      3843	80004e8c	410a8c33	sub	x24,x21,x16	 x21:0x9e2951f4 x16:0x80009fc4 x24=0x1e28b230
       38455000	      3844	80004e90	42de6f93	ori	x31,x28,1069	 x28:0x00000000 x31=0x0000042d
       38465000	      3845	80004e94	de5ebb93	sltiu	x23,x29,-539	 x29:0xedc0e8b6 x23=0x00000001
       38475000	      3846	80004e98	410edcb3	sra	x25,x29,x16	 x29:0xedc0e8b6 x16:0x80009fc4 x25=0xfedc0e8b
       38485000	      3847	80004e9c	e1a4c913	xori	x18,x9,-486	  x9:0x7fffaef4 x18=0x800050ee
       38495000	      3848	80004ea0	4177dcb3	sra	x25,x15,x23	 x15:0xfffffc48 x23:0x00000001 x25=0xfffffe24
       38505000	      3849	80004ea4	ad643013	sltiu	x0,x8,-1322	  x8:0xffffffe0
       38515000	      3850	80004ea8	4180096f	jal	x18,80004ea8	 x18=0x80004ea8
       38525000	      3851	00000000	00000013	addi	x0,x0,0	  x0:0x00000000
       38535000	      3852	800052bc	00000013	addi	x0,x0,0	  x0:0x00000000
       38545000	      3853	800052c0	01d39263	bne	x7,x29,800052c4	  x7:0x00000000 x29:0xedc0e8b6
       38555000	      3854	00000000	00000013	addi	x0,x0,0	  x0:0x00000000
       38565000	      3855	800052c0	00000013	addi	x0,x0,0	  x0:0x00000000
       38575000	      3856	800052c4	ff0d8d93	addi	x27,x27,-16	 x27:0x80009f34 x27=0x80009f24
       38585000	      3857	800052c8	9edffa93	andi	x21,x31,-1555	 x31:0x0000042d x21=0x0000002d
       38595000	      3858	800052cc	4d1994b7	lui	x9,0x4d199	  x9=0x4d199000
       38605000	      3859	800052d0	012da223	sw	x18,4(x27)	 x27:0x80009f24 x18:0x80004ea8 PA:0x80009f28
       38615000	      3860	800052d4	00000013	addi	x0,x0,0	  x0:0x00000000
       38625000	      3861	800052d8	00004117	auipc	x2,0x4	  x2=0x800092d4
       38635000	      3862	800052dc	8e010113	addi	x2,x2,-1824	  x2:0x800092d4  x2=0x80008bb4
       38645000	      3863	800052e0	36602f17	auipc	x30,0x36602	 x30=0xb66072dc
       38655000	      3864	800052e4	f0514983	lbu	x19,-251(x2)	  x2:0x80008bb4 x19=0x0000006e PA:0x80008ab9
       38665000	      3865	800052e8	f2210f23	sb	x2,-194(x2)	  x2:0x80008bb4  x2:0x80008bb4 PA:0x80008af2
       38675000	      3866	800052ec	016c95b3	sll	x11,x25,x22	 x25:0xfffffe24 x22:0xffff1071 x11=0xfc480000
       38685000	      3867	800052f0	01c134b3	sltu	x9,x2,x28	  x2:0x80008bb4 x28:0x00000000  x9=0x00000000
       38695000	      3868	800052f4	01af7b33	and	x22,x30,x26	 x30:0xb66072dc x26:0x00000168 x22=0x00000048
       38705000	      3869	800052f8	0037ccb3	xor	x25,x15,x3	 x15:0xfffffc48  x3:0x000001ff x25=0xfffffdb7
       38715000	      3870	800052fc	0e0107a3	sb	x0,239(x2)	  x2:0x80008bb4  x0:0x00000000 PA:0x80008ca3
       38725000	      3871	80005300	00000013	addi	x0,x0,0	  x0:0x00000000
       38735000	      3872	80005304	f5114503	lbu	x10,-175(x2)	  x2:0x80008bb4 x10=0x0000003c PA:0x80008b05
       38745000	      3873	80005308	f43107a3	sb	x3,-177(x2)	  x2:0x80008bb4  x3:0x000001ff PA:0x80008b03
       38755000	      3874	8000530c	fd110a83	lb	x21,-47(x2)	  x2:0x80008bb4 x21=0xffffff90 PA:0x80008b85
       38765000	      3875	80005310	00000013	addi	x0,x0,0	  x0:0x00000000
       38775000	      3876	80005314	017c0d33	add	x26,x24,x23	 x24:0x1e28b230 x23:0x00000001 x26=0x1e28b231
       38785000	      3877	80005318	6f610e17	auipc	x28,0x6f610	 x28=0xef615314
       38795000	      3878	8000531c	40ac5fb3	sra	x31,x24,x10	 x24:0x1e28b230 x10:0x0000003c x31=0x00000001
       38805000	      3879	80005320	acde2a97	auipc	x21,0xacde2	 x21=0x2cde731c
       38815000	      3880	80005324	69997c13	andi	x24,x18,1689	 x18:0x80004ea8 x24=0x00000688
       38825000	      3881	80005328	f2c12023	sw	x12,-224(x2)	  x2:0x80008bb4 x12:0x00000401 PA:0x80008ad4
       38835000	      3882	8000532c	fa914883	lbu	x17,-87(x2)	  x2:0x80008bb4 x17=0x000000b4 PA:0x80008b5d
       38845000	      3883	80005330	01f2ac33	slt	x24,x5,x31	  x5:0x00000001 x31:0x00000001 x24=0x00000000
       38855000	      3884	80005334	012abe33	sltu	x28,x21,x18	 x21:0x2cde731c x18:0x80004ea8 x28=0x00000001
       38865000	      3885	80005338	05b14b83	lbu	x23,91(x2)	  x2:0x80008bb4 x23=0x000000b1 PA:0x80008c0f
       38875000	      3886	8000533c	f4914f83	lbu	x31,-183(x2)	  x2:0x80008bb4 x31=0x000000d2 PA:0x80008afd
       38885000	      3887	80005340	f8614183	lbu	x3,-122(x2)	  x2:0x80008bb4  x3=0x0000001c PA:0x80008b3a
       38895000	      3888	80005344	fe410123	sb	x4,-30(x2)	  x2:0x80008bb4  x4:0x7fff8fb5 PA:0x80008b96
       38905000	      3889	80005348	005f5013	srli	x0,x30,0x5	 x30:0xb66072dc
       38915000	      3890	8000534c	012d4a33	xor	x20,x26,x18	 x26:0x1e28b231 x18:0x80004ea8 x20=0x9e28fc99
       38925000	      3891	80005350	0fb10ca3	sb	x27,249(x2)	  x2:0x80008bb4 x27:0x80009f24 PA:0x80008cad
       38935000	      3892	80005354	013ca1b3	slt	x3,x25,x19	 x25:0xfffffdb7 x19:0x0000006e  x3=0x00000001
       38945000	      3893	80005358	00915f33	srl	x30,x2,x9	  x2:0x80008bb4  x9:0x00000000 x30=0x80008bb4
       38955000	      3894	8000535c	00f10723	sb	x15,14(x2)	  x2:0x80008bb4 x15:0xfffffc48 PA:0x80008bc2
       38965000	      3895	80005360	0165eeb3	or	x29,x11,x22	 x11:0xfc480000 x22:0x00000048 x29=0xfc480048
       38975000	      3896	80005364	01614433	xor	x8,x2,x22	  x2:0x80008bb4 x22:0x00000048  x8=0x80008bfc
       38985000	      3897	80005368	2a732c13	slti	x24,x6,679	  x6:0x00000000 x24=0x00000001
       38995000	      3898	8000536c	0b310123	sb	x19,162(x2)	  x2:0x80008bb4 x19:0x0000006e PA:0x80008c56
       39005000	      3899	80005370	f4a10b83	lb	x23,-182(x2)	  x2:0x80008bb4 x23=0xffffffec PA:0x80008afe
       39015000	      3900	80005374	fc110323	sb	x1,-58(x2)	  x2:0x80008bb4  x1:0x00000000 PA:0x80008b7a
       39025000	      3901	80005378	f25fa493	slti	x9,x31,-219	 x31:0x000000d2  x9=0x00000000
       39035000	      3902	8000537c	108cd437	lui	x8,0x108cd	  x8=0x108cd000
       39045000	      3903	80005380	fc114403	lbu	x8,-63(x2)	  x2:0x80008bb4  x8=0x000000e4 PA:0x80008b75
       39055000	      3904	80005384	fee10303	lb	x6,-18(x2)	  x2:0x80008bb4  x6=0xffffff9d PA:0x80008ba2
       39065000	      3905	80005388	00004317	auipc	x6,0x4	  x6=0x80009384
       39075000	      3906	8000538c	87930313	addi	x6,x6,-1927	  x6:0x80009384  x6=0x80008bfd
       39085000	      3907	80005390	fc135f03	lhu	x30,-63(x6)	  x6:0x80008bfd x30=0x0000d91e PA:0x80008bbe
       39095000	      3908	80005394	c983c393	xori	x7,x7,-872	  x7:0x00000000  x7=0xfffffc98
       39105000	      3909	80005398	49bcfd13	andi	x26,x25,1179	 x25:0xfffffdb7 x26=0x00000493
       39115000	      3910	8000539c	003314a3	sh	x3,9(x6)	  x6:0x80008bfd  x3:0x00000001 PA:0x80008c06
       39125000	      3911	800053a0	05030023	sb	x16,64(x6)	  x6:0x80008bfd x16:0x80009fc4 PA:0x80008c3d
       39135000	      3912	800053a4	871ea713	slti	x14,x29,-1935	 x29:0xfc480048 x14=0x00000001
       39145000	      3913	800053a8	01d73633	sltu	x12,x14,x29	 x14:0x00000001 x29:0xfc480048 x12=0x00000001
       39155000	      3914	800053ac	00a791b3	sll	x3,x15,x10	 x15:0xfffffc48 x10:0x0000003c  x3=0x80000000
       39165000	      3915	800053b0	fe934883	lbu	x17,-23(x6)	  x6:0x80008bfd x17=0x00000057 PA:0x80008be6
       39175000	      3916	800053b4	03730a83	lb	x21,55(x6)	  x6:0x80008bfd x21=0x00000074 PA:0x80008c34
       39185000	      3917	800053b8	cc904d13	xori	x26,x0,-823	  x0:0x00000000 x26=0xfffffcc9
       39195000	      3918	800053bc	2ee8b893	sltiu	x17,x17,750	 x17:0x00000057 x17=0x00000001
       39205000	      3919	800053c0	01630983	lb	x19,22(x6)	  x6:0x80008bfd x19=0x00000000 PA:0x80008c13
       39215000	      3920	00000000	00000013	addi	x0,x0,0	  x0:0x00000000
       39225000	      3921	800053c4	013321a3	sw	x19,3(x6)	  x6:0x80008bfd x19:0x00000000 PA:0x80008c00
       39235000	      3922	800053c8	01034603	lbu	x12,16(x6)	  x6:0x80008bfd x12=0x000000ef PA:0x80008c0d
       39245000	      3923	800053cc	0000d593	srli	x11,x1,0x0	  x1:0x00000000 x11=0x00000000
       39255000	      3924	800053d0	13e66213	ori	x4,x12,318	 x12:0x000000ef  x4=0x000001ff
       39265000	      3925	800053d4	0127f9b3	and	x19,x15,x18	 x15:0xfffffc48 x18:0x80004ea8 x19=0x80004c08
       39275000	      3926	800053d8	41e005b3	sub	x11,x0,x30	  x0:0x00000000 x30:0x0000d91e x11=0xffff26e2
       39285000	      3927	800053dc	034301a3	sb	x20,35(x6)	  x6:0x80008bfd x20:0x9e28fc99 PA:0x80008c20
       39295000	      3928	800053e0	fce30203	lb	x4,-50(x6)	  x6:0x80008bfd  x4=0x0000002f PA:0x80008bcb
       39305000	      3929	800053e4	41a4de13	srai	x28,x9,0x1a	  x9:0x00000000 x28=0x00000000
       39315000	      3930	800053e8	fc135003	lhu	x0,-63(x6)	  x6:0x80008bfd PA:0x80008bbe
       39325000	      3931	800053ec	fd434783	lbu	x15,-44(x6)	  x6:0x80008bfd x15=0x000000f3 PA:0x80008bd1
       39335000	      3932	800053f0	00530203	lb	x4,5(x6)	  x6:0x80008bfd  x4=0x00000000 PA:0x80008c02
       39345000	      3933	800053f4	41d85533	sra	x10,x16,x29	 x16:0x80009fc4 x29:0xfc480048 x10=0xff80009f
       39355000	      3934	800053f8	f0460593	addi	x11,x12,-252	 x12:0x000000ef x11=0xfffffff3
       39365000	      3935	800053fc	01597ab3	and	x21,x18,x21	 x18:0x80004ea8 x21:0x00000074 x21=0x00000020
       39375000	      3936	80005400	02d30b03	lb	x22,45(x6)	  x6:0x80008bfd x22=0x00000046 PA:0x80008c2a
       39385000	      3937	80005404	eebece93	xori	x29,x29,-277	 x29:0xfc480048 x29=0x03b7fea3
       39395000	      3938	80005408	6cf63f13	sltiu	x30,x12,1743	 x12:0x000000ef x30=0x00000001
       39405000	      3939	8000540c	f5f92013	slti	x0,x18,-161	 x18:0x80004ea8
       39415000	      3940	80005410	80a8fcb7	lui	x25,0x80a8f	 x25=0x80a8f000
       39425000	      3941	80005414	38065f97	auipc	x31,0x38065	 x31=0xb806a410
       39435000	      3942	80005418	013c5b33	srl	x22,x24,x19	 x24:0x00000001 x19:0x80004c08 x22=0x00000000
       39445000	      3943	8000541c	fdb31ba3	sh	x27,-41(x6)	  x6:0x80008bfd x27:0x80009f24 PA:0x80008bd4
       39455000	      3944	80005420	3a7ec2b7	lui	x5,0x3a7ec	  x5=0x3a7ec000
       39465000	      3945	80005424	01830b83	lb	x23,24(x6)	  x6:0x80008bfd x23=0x00000002 PA:0x80008c15
       39475000	      3946	00000000	00000013	addi	x0,x0,0	  x0:0x00000000
       39485000	      3947	80005428	017c53b3	srl	x7,x24,x23	 x24:0x00000001 x23:0x00000002  x7=0x00000000
       39495000	      3948	8000542c	ff434f03	lbu	x30,-12(x6)	  x6:0x80008bfd x30=0x00000034 PA:0x80008bf1
       39505000	      3949	80005430	00003a17	auipc	x20,0x3	 x20=0x8000842c
       39515000	      3950	80005434	e66a0a13	addi	x20,x20,-410	 x20:0x8000842c x20=0x80008292
       39525000	      3951	80005438	00319d13	slli	x26,x3,0x3	  x3:0x80000000 x26=0x00000000
       39535000	      3952	8000543c	ffda4183	lbu	x3,-3(x20)	 x20:0x80008292  x3=0x000000ac PA:0x8000828f
       39545000	      3953	00000000	00000013	addi	x0,x0,0	  x0:0x00000000
       39555000	      3954	80005440	2031af93	slti	x31,x3,515	  x3:0x000000ac x31=0x00000001
       39565000	      3955	80005444	00aa0123	sb	x10,2(x20)	 x20:0x80008292 x10:0xff80009f PA:0x80008294
       39575000	      3956	80005448	d0610013	addi	x0,x2,-762	  x2:0x80008bb4
       39585000	      3957	8000544c	01fc5733	srl	x14,x24,x31	 x24:0x00000001 x31:0x00000001 x14=0x00000000
       39595000	      3958	80005450	40988ab3	sub	x21,x17,x9	 x17:0x00000001  x9:0x00000000 x21=0x00000001
       39605000	      3959	80005454	009a4603	lbu	x12,9(x20)	 x20:0x80008292 x12=0x00000080 PA:0x8000829b
       39615000	      3960	80005458	214ebd17	auipc	x26,0x214eb	 x26=0xa14f0454
       39625000	      3961	8000545c	01a8f3b3	and	x7,x17,x26	 x17:0x00000001 x26:0xa14f0454  x7=0x00000000
       39635000	      3962	80005460	9930b293	sltiu	x5,x1,-1645	  x1:0x00000000  x5=0x00000001
       39645000	      3963	80005464	004a2523	sw	x4,10(x20)	 x20:0x80008292  x4:0x00000000 PA:0x8000829c
       39655000	      3964	80005468	005a4d03	lbu	x26,5(x20)	 x20:0x80008292 x26=0x00000000 PA:0x80008297
       39665000	      3965	00000000	00000013	addi	x0,x0,0	  x0:0x00000000
       39675000	      3966	8000546c	017d6533	or	x10,x26,x23	 x26:0x00000000 x23:0x00000002 x10=0x00000002
       39685000	      3967	80005470	017a0823	sb	x23,16(x20)	 x20:0x80008292 x23:0x00000002 PA:0x800082a2
       39695000	      3968	80005474	002a9e93	slli	x29,x21,0x2	 x21:0x00000001 x29=0x00000004
       39705000	      3969	80005478	ff6a5f83	lhu	x31,-10(x20)	 x20:0x80008292 x31=0x0000d1c3 PA:0x80008288
       39715000	      3970	8000547c	ff3a0303	lb	x6,-13(x20)	 x20:0x80008292  x6=0xfffffff3 PA:0x80008285
       39725000	      3971	80005480	00aa1c03	lh	x24,10(x20)	 x20:0x80008292 x24=0x00000000 PA:0x8000829c
       39735000	      3972	80005484	fffa0ca3	sb	x31,-7(x20)	 x20:0x80008292 x31:0x0000d1c3 PA:0x8000828b
       39745000	      3973	80005488	018a1223	sh	x24,4(x20)	 x20:0x80008292 x24:0x00000000 PA:0x80008296
       39755000	      3974	8000548c	ff6a4e03	lbu	x28,-10(x20)	 x20:0x80008292 x28=0x000000c3 PA:0x80008288
       39765000	      3975	80005490	012a2323	sw	x18,6(x20)	 x20:0x80008292 x18:0x80004ea8 PA:0x80008298
       39775000	      3976	80005494	005a4183	lbu	x3,5(x20)	 x20:0x80008292  x3=0x00000000 PA:0x80008297
       39785000	      3977	80005498	00de0c33	add	x24,x28,x13	 x28:0x000000c3 x13:0x0ae57081 x24=0x0ae57144
       39795000	      3978	8000549c	412b5893	srai	x17,x22,0x12	 x22:0x00000000 x17=0x00000000
       39805000	      3979	800054a0	ffca5c83	lhu	x25,-4(x20)	 x20:0x80008292 x25=0x0000ace5 PA:0x8000828e
       39815000	      3980	00000000	00000013	addi	x0,x0,0	  x0:0x00000000
       39825000	      3981	800054a4	ff9a0ca3	sb	x25,-7(x20)	 x20:0x80008292 x25:0x0000ace5 PA:0x8000828b
       39835000	      3982	800054a8	feca1f23	sh	x12,-2(x20)	 x20:0x80008292 x12:0x00000080 PA:0x80008290
       39845000	      3983	800054ac	ffba0fa3	sb	x27,-1(x20)	 x20:0x80008292 x27:0x80009f24 PA:0x80008291
       39855000	      3984	800054b0	00003697	auipc	x13,0x3	 x13=0x800084ac
       39865000	      3985	800054b4	c5268693	addi	x13,x13,-942	 x13:0x800084ac x13=0x800080fe
       39875000	      3986	800054b8	0f06c403	lbu	x8,240(x13)	 x13:0x800080fe  x8=0x00000039 PA:0x800081ee
       39885000	      3987	800054bc	034686a3	sb	x20,45(x13)	 x13:0x800080fe x20:0x80008292 PA:0x8000812b
       39895000	      3988	800054c0	48d60493	addi	x9,x12,1165	 x12:0x00000080  x9=0x0000050d
       39905000	      3989	800054c4	012682b3	add	x5,x13,x18	 x13:0x800080fe x18:0x80004ea8  x5=0x0000cfa6
       39915000	      3990	800054c8	01e75393	srli	x7,x14,0x1e	 x14:0x00000000  x7=0x00000000
       39925000	      3991	800054cc	40a4d5b3	sra	x11,x9,x10	  x9:0x0000050d x10:0x00000002 x11=0x00000143
       39935000	      3992	800054d0	857de793	ori	x15,x27,-1961	 x27:0x80009f24 x15=0xffffff77
       39945000	      3993	800054d4	00000013	addi	x0,x0,0	  x0:0x00000000
       39955000	      3994	800054d8	0144f033	and	x0,x9,x20	  x9:0x0000050d x20:0x80008292
       39965000	      3995	800054dc	400988b3	sub	x17,x19,x0	 x19:0x80004c08  x0:0x00000000 x17=0x80004c08
       39975000	      3996	800054e0	00000013	addi	x0,x0,0	  x0:0x00000000
       39985000	      3997	800054e4	01f19a13	slli	x20,x3,0x1f	  x3:0x00000000 x20=0x00000000
       39995000	      3998	800054e8	2dac2913	slti	x18,x24,730	 x24:0x0ae57144 x18=0x00000000
       40005000	      3999	800054ec	0e968e03	lb	x28,233(x13)	 x13:0x800080fe x28=0x00000002 PA:0x800081e7
       40015000	      4000	800054f0	000ea033	slt	x0,x29,x0	 x29:0x00000004  x0:0x00000000
       40025000	      4001	800054f4	00a56a33	or	x20,x10,x10	 x10:0x00000002 x10:0x00000002 x20=0x00000002
       40035000	      4002	800054f8	40dcd2b3	sra	x5,x25,x13	 x25:0x0000ace5 x13:0x800080fe  x5=0x00000000
       40045000	      4003	800054fc	844d3137	lui	x2,0x844d3	  x2=0x844d3000
       40055000	      4004	80005500	ff8687a3	sb	x24,-17(x13)	 x13:0x800080fe x24:0x0ae57144 PA:0x800080ed
       40065000	      4005	80005504	0ef68323	sb	x15,230(x13)	 x13:0x800080fe x15:0xffffff77 PA:0x800081e4
       40075000	      4006	80005508	f9b6cf83	lbu	x31,-101(x13)	 x13:0x800080fe x31=0x000000bf PA:0x80008099
       40085000	      4007	8000550c	a8fb2e93	slti	x29,x22,-1393	 x22:0x00000000 x29=0x00000000
       40095000	      4008	80005510	05c6c903	lbu	x18,92(x13)	 x13:0x800080fe x18=0x00000060 PA:0x8000815a
       40105000	      4009	80005514	006add33	srl	x26,x21,x6	 x21:0x00000001  x6:0xfffffff3 x26=0x00000000
       40115000	      4010	80005518	2082c013	xori	x0,x5,520	  x5:0x00000000
       40125000	      4011	8000551c	8bd07c17	auipc	x24,0x8bd07	 x24=0x0bd0c518
       40135000	      4012	80005520	0526c783	lbu	x15,82(x13)	 x13:0x800080fe x15=0x0000000c PA:0x80008150
       40145000	      4013	80005524	fb6688a3	sb	x22,-79(x13)	 x13:0x800080fe x22:0x00000000 PA:0x800080af
       40155000	      4014	80005528	f4f6af23	sw	x15,-162(x13)	 x13:0x800080fe x15:0x0000000c PA:0x8000805c
       40165000	      4015	8000552c	f64e0913	addi	x18,x28,-156	 x28:0x00000002 x18=0xffffff66
       40175000	      4016	80005530	01e16fb3	or	x31,x2,x30	  x2:0x844d3000 x30:0x00000034 x31=0x844d3034
       40185000	      4017	80005534	14bea393	slti	x7,x29,331	 x29:0x00000000  x7=0x00000001
       40195000	      4018	80005538	014b5733	srl	x14,x22,x20	 x22:0x00000000 x20:0x00000002 x14=0x00000000
       40205000	      4019	8000553c	0fe6db03	lhu	x22,254(x13)	 x13:0x800080fe x22=0x0000c12f PA:0x800081fc
       40215000	      4020	80005540	0656c003	lbu	x0,101(x13)	 x13:0x800080fe PA:0x80008163
       40225000	      4021	80005544	1d88b213	sltiu	x4,x17,472	 x17:0x80004c08  x4=0x00000000
       40235000	      4022	80005548	11b40413	addi	x8,x8,283	  x8:0x00000039  x8=0x00000154
       40245000	      4023	8000554c	01ac8c33	add	x24,x25,x26	 x25:0x0000ace5 x26:0x00000000 x24=0x0000ace5
       40255000	      4024	80005550	41525cb3	sra	x25,x4,x21	  x4:0x00000000 x21:0x00000001 x25=0x00000000
       40265000	      4025	80005554	013ad8b3	srl	x17,x21,x19	 x21:0x00000001 x19:0x80004c08 x17=0x00000000
       40275000	      4026	80005558	07e6c503	lbu	x10,126(x13)	 x13:0x800080fe x10=0x00000013 PA:0x8000817c
       40285000	      4027	8000555c	01e2b9b3	sltu	x19,x5,x30	  x5:0x00000000 x30:0x00000034 x19=0x00000001
       40295000	      4028	80005560	f4a6ce03	lbu	x28,-182(x13)	 x13:0x800080fe x28=0x000000e0 PA:0x80008048
       40305000	      4029	80005564	00004797	auipc	x15,0x4	 x15=0x80009560
       40315000	      4030	80005568	a2278793	addi	x15,x15,-1502	 x15:0x80009560 x15=0x80008f82
       40325000	      4031	8000556c	f8479723	sh	x4,-114(x15)	 x15:0x80008f82  x4:0x00000000 PA:0x80008f10
       40335000	      4032	80005570	00881513	slli	x10,x16,0x8	 x16:0x80009fc4 x10=0x009fc400
       40345000	      4033	80005574	00ea1933	sll	x18,x20,x14	 x20:0x00000002 x14:0x00000000 x18=0x00000002
       40355000	      4034	80005578	001f9f33	sll	x30,x31,x1	 x31:0x844d3034  x1:0x00000000 x30=0x844d3034
       40365000	      4035	8000557c	f7978a83	lb	x21,-135(x15)	 x15:0x80008f82 x21=0xffffff8f PA:0x80008efb
       40375000	      4036	80005580	fe97c303	lbu	x6,-23(x15)	 x15:0x80008f82  x6=0x00000057 PA:0x80008f6b
       40385000	      4037	80005584	f6379223	sh	x3,-156(x15)	 x15:0x80008f82  x3:0x00000000 PA:0x80008ee6
       40395000	      4038	80005588	f6278f83	lb	x31,-158(x15)	 x15:0x80008f82 x31=0x0000006b PA:0x80008ee4
       40405000	      4039	8000558c	f27784a3	sb	x7,-215(x15)	 x15:0x80008f82  x7:0x00000001 PA:0x80008eab
       40415000	      4040	80005590	01731c13	slli	x24,x6,0x17	  x6:0x00000057 x24=0x2b800000
       40425000	      4041	80005594	f0378f83	lb	x31,-253(x15)	 x15:0x80008f82 x31=0x0000005a PA:0x80008e85
       40435000	      4042	80005598	00079283	lh	x5,0(x15)	 x15:0x80008f82  x5=0x0000175a PA:0x80008f82
       40445000	      4043	8000559c	0115a1b3	slt	x3,x11,x17	 x11:0x00000143 x17:0x00000000  x3=0x00000000
       40455000	      4044	800055a0	f4e781a3	sb	x14,-189(x15)	 x15:0x80008f82 x14:0x00000000 PA:0x80008ec5
       40465000	      4045	800055a4	00925533	srl	x10,x4,x9	  x4:0x00000000  x9:0x0000050d x10=0x00000000
       40475000	      4046	800055a8	01a05233	srl	x4,x0,x26	  x0:0x00000000 x26:0x00000000  x4=0x00000000
       40485000	      4047	800055ac	f6678883	lb	x17,-154(x15)	 x15:0x80008f82 x17=0xffffffc9 PA:0x80008ee8
       40495000	      4048	800055b0	f297cd03	lbu	x26,-215(x15)	 x15:0x80008f82 x26=0x00000001 PA:0x80008eab
       40505000	      4049	800055b4	f5878b03	lb	x22,-168(x15)	 x15:0x80008f82 x22=0x00000040 PA:0x80008eda
       40515000	      4050	800055b8	f747d603	lhu	x12,-140(x15)	 x15:0x80008f82 x12=0x000090b0 PA:0x80008ef6
       40525000	      4051	800055bc	6c9ca637	lui	x12,0x6c9ca	 x12=0x6c9ca000
       40535000	      4052	800055c0	00ada2b3	slt	x5,x27,x10	 x27:0x80009f24 x10:0x00000000  x5=0x00000001
       40545000	      4053	800055c4	f8e780a3	sb	x14,-127(x15)	 x15:0x80008f82 x14:0x00000000 PA:0x80008f03
       40555000	      4054	800055c8	017fed33	or	x26,x31,x23	 x31:0x0000005a x23:0x00000002 x26=0x0000005a
       40565000	      4055	800055cc	f0e7d203	lhu	x4,-242(x15)	 x15:0x80008f82  x4=0x0000aa33 PA:0x80008e90
       40575000	      4056	800055d0	01c90733	add	x14,x18,x28	 x18:0x00000002 x28:0x000000e0 x14=0x000000e2
       40585000	      4057	800055d4	03f78523	sb	x31,42(x15)	 x15:0x80008f82 x31:0x0000005a PA:0x80008fac
       40595000	      4058	800055d8	00000013	addi	x0,x0,0	  x0:0x00000000
       40605000	      4059	800055dc	49264b93	xori	x23,x12,1170	 x12:0x6c9ca000 x23=0x6c9ca492
       40615000	      4060	800055e0	f4d7c283	lbu	x5,-179(x15)	 x15:0x80008f82  x5=0x00000067 PA:0x80008ecf
       40625000	      4061	800055e4	018cf9b3	and	x19,x25,x24	 x25:0x00000000 x24:0x2b800000 x19=0x00000000
       40635000	      4062	800055e8	03279823	sh	x18,48(x15)	 x15:0x80008f82 x18:0x00000002 PA:0x80008fb2
       40645000	      4063	800055ec	fd878a03	lb	x20,-40(x15)	 x15:0x80008f82 x20=0xffffff90 PA:0x80008f5a
       40655000	      4064	800055f0	b860ca37	lui	x20,0xb860c	 x20=0xb860c000
       40665000	      4065	800055f4	f0c7a523	sw	x12,-246(x15)	 x15:0x80008f82 x12:0x6c9ca000 PA:0x80008e8c
       40675000	      4066	800055f8	fd013113	sltiu	x2,x2,-48	  x2:0x844d3000  x2=0x00000001
       40685000	      4067	800055fc	fb87c583	lbu	x11,-72(x15)	 x15:0x80008f82 x11=0x00000043 PA:0x80008f3a
       40695000	      4068	80005600	03d79e23	sh	x29,60(x15)	 x15:0x80008f82 x29:0x00000000 PA:0x80008fbe
       40705000	      4069	80005604	fa97c883	lbu	x17,-87(x15)	 x15:0x80008f82 x17=0x000000ec PA:0x80008f2b
       40715000	      4070	80005608	f0679183	lh	x3,-250(x15)	 x15:0x80008f82  x3=0x00001331 PA:0x80008e88
       40725000	      4071	8000560c	4066d133	sra	x2,x13,x6	 x13:0x800080fe  x6:0x00000057  x2=0xffffff00
       40735000	      4072	80005610	00278b23	sb	x2,22(x15)	 x15:0x80008f82  x2:0xffffff00 PA:0x80008f98
       40745000	      4073	80005614	00000013	addi	x0,x0,0	  x0:0x00000000
       40755000	      4074	80005618	f4678ea3	sb	x6,-163(x15)	 x15:0x80008f82  x6:0x00000057 PA:0x80008edf
       40765000	      4075	8000561c	f2778d23	sb	x7,-198(x15)	 x15:0x80008f82  x7:0x00000001 PA:0x80008ebc
       40775000	      4076	80005620	00771cb3	sll	x25,x14,x7	 x14:0x000000e2  x7:0x00000001 x25=0x000001c4
       40785000	      4077	80005624	00678aa3	sb	x6,21(x15)	 x15:0x80008f82  x6:0x00000057 PA:0x80008f97
       40795000	      4078	80005628	f3478ba3	sb	x20,-201(x15)	 x15:0x80008f82 x20:0xb860c000 PA:0x80008eb9
       40805000	      4079	8000562c	f817c403	lbu	x8,-127(x15)	 x15:0x80008f82  x8=0x00000000 PA:0x80008f03
       40815000	      4080	80005630	00003117	auipc	x2,0x3	  x2=0x8000862c
       40825000	      4081	80005634	5f410113	addi	x2,x2,1524	  x2:0x8000862c  x2=0x80008c20
       40835000	      4082	80005638	fe215b03	lhu	x22,-30(x2)	  x2:0x80008c20 x22=0x00000000 PA:0x80008c02
       40845000	      4083	8000563c	fdb10da3	sb	x27,-37(x2)	  x2:0x80008c20 x27:0x80009f24 PA:0x80008bfb
       40855000	      4084	80005640	c281af13	slti	x30,x3,-984	  x3:0x00001331 x30=0x00000000
       40865000	      4085	80005644	6157a493	slti	x9,x15,1557	 x15:0x80008f82  x9=0x00000001
       40875000	      4086	80005648	ea4bcf93	xori	x31,x23,-348	 x23:0x6c9ca492 x31=0x93635a36
       40885000	      4087	8000564c	01f108a3	sb	x31,17(x2)	  x2:0x80008c20 x31:0x93635a36 PA:0x80008c31
       40895000	      4088	80005650	02b10523	sb	x11,42(x2)	  x2:0x80008c20 x11:0x00000043 PA:0x80008c4a
       40905000	      4089	80005654	00000013	addi	x0,x0,0	  x0:0x00000000
       40915000	      4090	80005658	01175693	srli	x13,x14,0x11	 x14:0x000000e2 x13=0x00000000
       40925000	      4091	8000565c	01002ab3	slt	x21,x0,x16	  x0:0x00000000 x16:0x80009fc4 x21=0x00000000
       40935000	      4092	80005660	03010aa3	sb	x16,53(x2)	  x2:0x80008c20 x16:0x80009fc4 PA:0x80008c55
       40945000	      4093	80005664	001a63b3	or	x7,x20,x1	 x20:0xb860c000  x1:0x00000000  x7=0xb860c000
       40955000	      4094	80005668	00a8d693	srli	x13,x17,0xa	 x17:0x000000ec x13=0x00000000
       40965000	      4095	8000566c	0117e033	or	x0,x15,x17	 x15:0x80008f82 x17:0x000000ec
       40975000	      4096	80005670	8b330f17	auipc	x30,0x8b330	 x30=0x0b33566c
       40985000	      4097	80005674	fea11683	lh	x13,-22(x2)	  x2:0x80008c20 x13=0xffffdf01 PA:0x80008c0a
       40995000	      4098	80005678	fe311823	sh	x3,-16(x2)	  x2:0x80008c20  x3:0x00001331 PA:0x80008c10
       41005000	      4099	8000567c	ff6109a3	sb	x22,-13(x2)	  x2:0x80008c20 x22:0x00000000 PA:0x80008c13
       41015000	      4100	80005680	fc710f83	lb	x31,-57(x2)	  x2:0x80008c20 x31=0xffffffc4 PA:0x80008be7
       41025000	      4101	00000000	00000013	addi	x0,x0,0	  x0:0x00000000
       41035000	      4102	80005684	01f32eb3	slt	x29,x6,x31	  x6:0x00000057 x31:0xffffffc4 x29=0x00000000
       41045000	      4103	80005688	fee10e23	sb	x14,-4(x2)	  x2:0x80008c20 x14:0x000000e2 PA:0x80008c1c
       41055000	      4104	8000568c	51c23217	auipc	x4,0x51c23	  x4=0xd1c28688
       41065000	      4105	80005690	1843e237	lui	x4,0x1843e	  x4=0x1843e000
       41075000	      4106	80005694	03114683	lbu	x13,49(x2)	  x2:0x80008c20 x13=0x0000005e PA:0x80008c51
       41085000	      4107	80005698	01da4fb3	xor	x31,x20,x29	 x20:0xb860c000 x29:0x00000000 x31=0xb860c000
       41095000	      4108	8000569c	ef7815b7	lui	x11,0xef781	 x11=0xef781000
       41105000	      4109	800056a0	fc810d23	sb	x8,-38(x2)	  x2:0x80008c20  x8:0x00000000 PA:0x80008bfa
       41115000	      4110	800056a4	0154c933	xor	x18,x9,x21	  x9:0x00000001 x21:0x00000000 x18=0x00000001
       41125000	      4111	800056a8	fc2101a3	sb	x2,-61(x2)	  x2:0x80008c20  x2:0x80008c20 PA:0x80008be3
       41135000	      4112	800056ac	01cfd7b3	srl	x15,x31,x28	 x31:0xb860c000 x28:0x000000e0 x15=0xb860c000
       41145000	      4113	800056b0	41da5bb3	sra	x23,x20,x29	 x20:0xb860c000 x29:0x00000000 x23=0xb860c000
       41155000	      4114	800056b4	cbe5f893	andi	x17,x11,-834	 x11:0xef781000 x17=0xef781000
       41165000	      4115	800056b8	6fbf2513	slti	x10,x30,1787	 x30:0x0b33566c x10=0x00000000
       41175000	      4116	800056bc	004bb433	sltu	x8,x23,x4	 x23:0xb860c000  x4:0x1843e000  x8=0x00000000
       41185000	      4117	800056c0	35d96917	auipc	x18,0x35d96	 x18=0xb5d9b6bc
       41195000	      4118	800056c4	01da0533	add	x10,x20,x29	 x20:0xb860c000 x29:0x00000000 x10=0xb860c000
       41205000	      4119	800056c8	c5cbfa93	andi	x21,x23,-932	 x23:0xb860c000 x21=0xb860c000
       41215000	      4120	800056cc	007d5333	srl	x6,x26,x7	 x26:0x0000005a  x7:0xb860c000  x6=0x0000005a
       41225000	      4121	800056d0	00bb5993	srli	x19,x22,0xb	 x22:0x00000000 x19=0x00000000
       41235000	      4122	800056d4	00510da3	sb	x5,27(x2)	  x2:0x80008c20  x5:0x00000067 PA:0x80008c3b
       41245000	      4123	800056d8	00e10ba3	sb	x14,23(x2)	  x2:0x80008c20 x14:0x000000e2 PA:0x80008c37
       41255000	      4124	800056dc	00003b17	auipc	x22,0x3	 x22=0x800086d8
       41265000	      4125	800056e0	e26b0b13	addi	x22,x22,-474	 x22:0x800086d8 x22=0x800084fe
       41275000	      4126	800056e4	00764733	xor	x14,x12,x7	 x12:0x6c9ca000  x7:0xb860c000 x14=0xd4fc6000
       41285000	      4127	800056e8	ff0b0683	lb	x13,-16(x22)	 x22:0x800084fe x13=0xffffff83 PA:0x800084ee
       41295000	      4128	800056ec	00fce3b3	or	x7,x25,x15	 x25:0x000001c4 x15:0xb860c000  x7=0xb860c1c4
       41305000	      4129	800056f0	ff8b0ba3	sb	x24,-9(x22)	 x22:0x800084fe x24:0x2b800000 PA:0x800084f5
       41315000	      4130	800056f4	009b4603	lbu	x12,9(x22)	 x22:0x800084fe x12=0x000000a0 PA:0x80008507
       41325000	      4131	800056f8	00000013	addi	x0,x0,0	  x0:0x00000000
       41335000	      4132	800056fc	b016e037	lui	x0,0xb016e	
       41345000	      4133	80005700	002bd313	srli	x6,x23,0x2	 x23:0xb860c000  x6=0x2e183000
       41355000	      4134	80005704	00a43e33	sltu	x28,x8,x10	  x8:0x00000000 x10:0xb860c000 x28=0x00000001
       41365000	      4135	80005708	0100e533	or	x10,x1,x16	  x1:0x00000000 x16:0x80009fc4 x10=0x80009fc4
       41375000	      4136	8000570c	004b4883	lbu	x17,4(x22)	 x22:0x800084fe x17=0x00000005 PA:0x80008502
       41385000	      4137	80005710	ff4b4c83	lbu	x25,-12(x22)	 x22:0x800084fe x25=0x000000a0 PA:0x800084f2
       41395000	      4138	00000000	00000013	addi	x0,x0,0	  x0:0x00000000
       41405000	      4139	80005714	41dcdc93	srai	x25,x25,0x1d	 x25:0x000000a0 x25=0x00000000
       41415000	      4140	80005718	405857b3	sra	x15,x16,x5	 x16:0x80009fc4  x5:0x00000067 x15=0xff00013f
       41425000	      4141	8000571c	2ee5ea93	ori	x21,x11,750	 x11:0xef781000 x21=0xef7812ee
       41435000	      4142	80005720	004b0303	lb	x6,4(x22)	 x22:0x800084fe  x6=0x00000005 PA:0x80008502
       41445000	      4143	80005724	8f054393	xori	x7,x10,-1808	 x10:0x80009fc4  x7=0x7fff6734
       41455000	      4144	80005728	00ad04b3	add	x9,x26,x10	 x26:0x0000005a x10:0x80009fc4  x9=0x8000a01e
       41465000	      4145	8000572c	015612b3	sll	x5,x12,x21	 x12:0x000000a0 x21:0xef7812ee  x5=0x00280000
       41475000	      4146	80005730	6047e593	ori	x11,x15,1540	 x15:0xff00013f x11=0xff00073f
       41485000	      4147	80005734	41435f33	sra	x30,x6,x20	  x6:0x00000005 x20:0xb860c000 x30=0x00000005
       41495000	      4148	80005738	003c02b3	add	x5,x24,x3	 x24:0x2b800000  x3:0x00001331  x5=0x2b801331
       41505000	      4149	8000573c	37b10f93	addi	x31,x2,891	  x2:0x80008c20 x31=0x80008f9b
       41515000	      4150	80005740	01a99733	sll	x14,x19,x26	 x19:0x00000000 x26:0x0000005a x14=0x00000000
       41525000	      4151	80005744	009b4003	lbu	x0,9(x22)	 x22:0x800084fe PA:0x80008507
       41535000	      4152	80005748	002b0623	sb	x2,12(x22)	 x22:0x800084fe  x2:0x80008c20 PA:0x8000850a
       41545000	      4153	8000574c	ff9b4603	lbu	x12,-7(x22)	 x22:0x800084fe x12=0x00000000 PA:0x800084f7
       41555000	      4154	80005750	0123d893	srli	x17,x7,0x12	  x7:0x7fff6734 x17=0x00001fff
       41565000	      4155	80005754	ff8b1c23	sh	x24,-8(x22)	 x22:0x800084fe x24:0x2b800000 PA:0x800084f6
       41575000	      4156	80005758	8071ab93	slti	x23,x3,-2041	  x3:0x00001331 x23=0x00000000
       41585000	      4157	8000575c	015b07a3	sb	x21,15(x22)	 x22:0x800084fe x21:0xef7812ee PA:0x8000850d
       41595000	      4158	80005760	3cdf3c93	sltiu	x25,x30,973	 x30:0x00000005 x25=0x00000001
       41605000	      4159	80005764	ffeb2103	lw	x2,-2(x22)	 x22:0x800084fe  x2=0x1481ce85 PA:0x800084fc
       41615000	      4160	80005768	00fb01a3	sb	x15,3(x22)	 x22:0x800084fe x15:0xff00013f PA:0x80008501
       41625000	      4161	8000576c	00e75fb3	srl	x31,x14,x14	 x14:0x00000000 x14:0x00000000 x31=0x00000000
       41635000	      4162	80005770	0050f433	and	x8,x1,x5	  x1:0x00000000  x5:0x2b801331  x8=0x00000000
       41645000	      4163	80005774	b4568293	addi	x5,x13,-1211	 x13:0xffffff83  x5=0xfffffac8
       41655000	      4164	80005778	00000013	addi	x0,x0,0	  x0:0x00000000
       41665000	      4165	8000577c	fe4b0ea3	sb	x4,-3(x22)	 x22:0x800084fe  x4:0x1843e000 PA:0x800084fb
       41675000	      4166	80005780	91892a13	slti	x20,x18,-1768	 x18:0xb5d9b6bc x20=0x00000001
       41685000	      4167	80005784	6db9b993	sltiu	x19,x19,1755	 x19:0x00000000 x19=0x00000001
       41695000	      4168	80005788	00cb5c03	lhu	x24,12(x22)	 x22:0x800084fe x24=0x00007b20 PA:0x8000850a
       41705000	      4169	8000578c	12f6c913	xori	x18,x13,303	 x13:0xffffff83 x18=0xfffffeac
       41715000	      4170	80005790	002e5933	srl	x18,x28,x2	 x28:0x00000001  x2:0x1481ce85 x18=0x00000000
       41725000	      4171	80005794	004bcbb3	xor	x23,x23,x4	 x23:0x00000000  x4:0x1843e000 x23=0x1843e000
       41735000	      4172	80005798	407185b3	sub	x11,x3,x7	  x3:0x00001331  x7:0x7fff6734 x11=0x8000abfd
       41745000	      4173	8000579c	0efe7793	andi	x15,x28,239	 x28:0x00000001 x15=0x00000001
       41755000	      4174	800057a0	41f1deb3	sra	x29,x3,x31	  x3:0x00001331 x31:0x00000000 x29=0x00001331
       41765000	      4175	800057a4	010e6f33	or	x30,x28,x16	 x28:0x00000001 x16:0x80009fc4 x30=0x80009fc5
       41775000	      4176	800057a8	0096ceb3	xor	x29,x13,x9	 x13:0xffffff83  x9:0x8000a01e x29=0x7fff5f9d
       41785000	      4177	800057ac	6dbdf313	andi	x6,x27,1755	 x27:0x80009f24  x6=0x00000600
       41795000	      4178	800057b0	01878a33	add	x20,x15,x24	 x15:0x00000001 x24:0x00007b20 x20=0x00007b21
       41805000	      4179	800057b4	41125e93	srai	x29,x4,0x11	  x4:0x1843e000 x29=0x00000c21
       41815000	      4180	800057b8	fa3f4913	xori	x18,x30,-93	 x30:0x80009fc5 x18=0x7fff6066
       41825000	      4181	800057bc	01d5fa63	bgeu	x11,x29,800057d0	 x11:0x8000abfd x29:0x00000c21
       41835000	      4182	00000000	00000013	addi	x0,x0,0	  x0:0x00000000
       41845000	      4183	800057cc	00000013	addi	x0,x0,0	  x0:0x00000000
       41855000	      4184	800057d0	41e20bb3	sub	x23,x4,x30	  x4:0x1843e000 x30:0x80009fc5 x23=0x9843403b
       41865000	      4185	800057d4	0ce01917	auipc	x18,0xce01	 x18=0x8ce067d0
       41875000	      4186	800057d8	04525063	bge	x4,x5,80005818	  x4:0x1843e000  x5:0xfffffac8
       41885000	      4187	00000000	00000013	addi	x0,x0,0	  x0:0x00000000
       41895000	      4188	80005814	00000013	addi	x0,x0,0	  x0:0x00000000
       41905000	      4189	80005818	01cc7eb3	and	x29,x24,x28	 x24:0x00007b20 x28:0x00000001 x29=0x00000000
       41915000	      4190	8000581c	002cda33	srl	x20,x25,x2	 x25:0x00000001  x2:0x1481ce85 x20=0x00000000
       41925000	      4191	80005820	01928eb3	add	x29,x5,x25	  x5:0xfffffac8 x25:0x00000001 x29=0xfffffac9
       41935000	      4192	80005824	202bf793	andi	x15,x23,514	 x23:0x9843403b x15=0x00000002
       41945000	      4193	80005828	002943b3	xor	x7,x18,x2	 x18:0x8ce067d0  x2:0x1481ce85  x7=0x9861a955
       41955000	      4194	8000582c	00f39cb3	sll	x25,x7,x15	  x7:0x9861a955 x15:0x00000002 x25=0x6186a554
       41965000	      4195	80005830	006be533	or	x10,x23,x6	 x23:0x9843403b  x6:0x00000600 x10=0x9843463b
       41975000	      4196	80005834	41f7d393	srai	x7,x15,0x1f	 x15:0x00000002  x7=0x00000000
       41985000	      4197	80005838	00193433	sltu	x8,x18,x1	 x18:0x8ce067d0  x1:0x00000000  x8=0x00000000
       41995000	      4198	8000583c	01b25663	bge	x4,x27,80005848	  x4:0x1843e000 x27:0x80009f24
       42005000	      4199	00000000	00000013	addi	x0,x0,0	  x0:0x00000000
       42015000	      4200	80005844	00000013	addi	x0,x0,0	  x0:0x00000000
       42025000	      4201	80005848	aab7b997	auipc	x19,0xaab7b	 x19=0x2ab80844
       42035000	      4202	8000584c	0079c1b3	xor	x3,x19,x7	 x19:0x2ab80844  x7:0x00000000  x3=0x2ab80844
       42045000	      4203	80005850	8e6fbf13	sltiu	x30,x31,-1818	 x31:0x00000000 x30=0x00000001
       42055000	      4204	80005854	ba507c13	andi	x24,x0,-1115	  x0:0x00000000 x24=0x00000000
       42065000	      4205	80005858	12406493	ori	x9,x0,292	  x0:0x00000000  x9=0x00000124
       42075000	      4206	8000585c	015f1e93	slli	x29,x30,0x15	 x30:0x00000001 x29=0x00200000
       42085000	      4207	80005860	01215613	srli	x12,x2,0x12	  x2:0x1481ce85 x12=0x00000520
       42095000	      4208	80005864	dbb86b37	lui	x22,0xdbb86	 x22=0xdbb86000
       42105000	      4209	80005868	02fa0c63	beq	x20,x15,800058a0	 x20:0x00000000 x15:0x00000002
       42115000	      4210	8000586c	40db5633	sra	x12,x22,x13	 x22:0xdbb86000 x13:0xffffff83 x12=0xfb770c00
       42125000	      4211	80005870	41565033	sra	x0,x12,x21	 x12:0xfb770c00 x21:0xef7812ee
       42135000	      4212	80005874	013f03b3	add	x7,x30,x19	 x30:0x00000001 x19:0x2ab80844  x7=0x2ab80845
       42145000	      4213	80005878	7580e9b7	lui	x19,0x7580e	 x19=0x7580e000
       42155000	      4214	8000587c	11ee0f93	addi	x31,x28,286	 x28:0x00000001 x31=0x0000011f
       42165000	      4215	80005880	0182d893	srli	x17,x5,0x18	  x5:0xfffffac8 x17=0x000000ff
       42175000	      4216	80005884	016a9533	sll	x10,x21,x22	 x21:0xef7812ee x22:0xdbb86000 x10=0xef7812ee
       42185000	      4217	80005888	00d85663	bge	x16,x13,80005894	 x16:0x80009fc4 x13:0xffffff83
       42195000	      4218	8000588c	032f8463	beq	x31,x18,800058b4	 x31:0x0000011f x18:0x8ce067d0
       42205000	      4219	80005890	04e76463	bltu	x14,x14,800058d8	 x14:0x00000000 x14:0x00000000
       42215000	      4220	80005894	00bda933	slt	x18,x27,x11	 x27:0x80009f24 x11:0x8000abfd x18=0x00000001
       42225000	      4221	80005898	011792b3	sll	x5,x15,x17	 x15:0x00000002 x17:0x000000ff  x5=0x00000000
       42235000	      4222	8000589c	b7066e93	ori	x29,x12,-1168	 x12:0xfb770c00 x29=0xffffff70
       42245000	      4223	800058a0	01db0a63	beq	x22,x29,800058b4	 x22:0xdbb86000 x29:0xffffff70
       42255000	      4224	800058a4	adcbc013	xori	x0,x23,-1316	 x23:0x9843403b
       42265000	      4225	800058a8	04b58063	beq	x11,x11,800058e8	 x11:0x8000abfd x11:0x8000abfd
       42275000	      4226	00000000	00000013	addi	x0,x0,0	  x0:0x00000000
       42285000	      4227	800058e4	00000013	addi	x0,x0,0	  x0:0x00000000
       42295000	      4228	800058e8	01b07133	and	x2,x0,x27	  x0:0x00000000 x27:0x80009f24  x2=0x00000000
       42305000	      4229	800058ec	04c01263	bne	x0,x12,80005930	  x0:0x00000000 x12:0xfb770c00
       42315000	      4230	00000000	00000013	addi	x0,x0,0	  x0:0x00000000
       42325000	      4231	8000592c	00000013	addi	x0,x0,0	  x0:0x00000000
       42335000	      4232	80005930	02f94a63	blt	x18,x15,80005964	 x18:0x00000001 x15:0x00000002
       42345000	      4233	00000000	00000013	addi	x0,x0,0	  x0:0x00000000
       42355000	      4234	80005960	00000013	addi	x0,x0,0	  x0:0x00000000
       42365000	      4235	80005964	39f05e37	lui	x28,0x39f05	 x28=0x39f05000
       42375000	      4236	80005968	27236f13	ori	x30,x6,626	  x6:0x00000600 x30=0x00000672
       42385000	      4237	8000596c	ae68bc93	sltiu	x25,x17,-1306	 x17:0x000000ff x25=0x00000001
       42395000	      4238	80005970	0092fc33	and	x24,x5,x9	  x5:0x00000000  x9:0x00000124 x24=0x00000000
       42405000	      4239	80005974	00745933	srl	x18,x8,x7	  x8:0x00000000  x7:0x2ab80845 x18=0x00000000
       42415000	      4240	80005978	414253b3	sra	x7,x4,x20	  x4:0x1843e000 x20:0x00000000  x7=0x1843e000
       42425000	      4241	8000597c	04424063	blt	x4,x4,800059bc	  x4:0x1843e000  x4:0x1843e000
       42435000	      4242	80005980	c75d3d13	sltiu	x26,x26,-907	 x26:0x0000005a x26=0x00000001
       42445000	      4243	80005984	032b0863	beq	x22,x18,800059b4	 x22:0xdbb86000 x18:0x00000000
       42455000	      4244	80005988	03e90663	beq	x18,x30,800059b4	 x18:0x00000000 x30:0x00000672
       42465000	      4245	8000598c	00000013	addi	x0,x0,0	  x0:0x00000000
       42475000	      4246	80005990	00a39c33	sll	x24,x7,x10	  x7:0x1843e000 x10:0xef7812ee x24=0xf8000000
       42485000	      4247	80005994	26d44c13	xori	x24,x8,621	  x8:0x00000000 x24=0x0000026d
       42495000	      4248	80005998	00119e63	bne	x3,x1,800059b4	  x3:0x2ab80844  x1:0x00000000
       42505000	      4249	00000000	00000013	addi	x0,x0,0	  x0:0x00000000
       42515000	      4250	800059b0	00000013	addi	x0,x0,0	  x0:0x00000000
       42525000	      4251	800059b4	015e4663	blt	x28,x21,800059c0	 x28:0x39f05000 x21:0xef7812ee
       42535000	      4252	800059b8	00575c63	bge	x14,x5,800059d0	 x14:0x00000000  x5:0x00000000
       42545000	      4253	00000000	00000013	addi	x0,x0,0	  x0:0x00000000
       42555000	      4254	800059cc	00000013	addi	x0,x0,0	  x0:0x00000000
       42565000	      4255	800059d0	f9a97b13	andi	x22,x18,-102	 x18:0x00000000 x22=0x00000000
       42575000	      4256	800059d4	017ece63	blt	x29,x23,800059f0	 x29:0xffffff70 x23:0x9843403b
       42585000	      4257	800059d8	41dad3b3	sra	x7,x21,x29	 x21:0xef7812ee x29:0xffffff70  x7=0xffffef78
       42595000	      4258	800059dc	c093e637	lui	x12,0xc093e	 x12=0xc093e000
       42605000	      4259	800059e0	01f71a13	slli	x20,x14,0x1f	 x14:0x00000000 x20=0x00000000
       42615000	      4260	800059e4	80cf2a13	slti	x20,x30,-2036	 x30:0x00000672 x20=0x00000000
       42625000	      4261	800059e8	00169793	slli	x15,x13,0x1	 x13:0xffffff83 x15=0xffffff06
       42635000	      4262	800059ec	00a2ea63	bltu	x5,x10,80005a00	  x5:0x00000000 x10:0xef7812ee
       42645000	      4263	00000000	00000013	addi	x0,x0,0	  x0:0x00000000
       42655000	      4264	800059fc	00000013	addi	x0,x0,0	  x0:0x00000000
       42665000	      4265	80005a00	00000013	addi	x0,x0,0	  x0:0x00000000
       42675000	      4266	80005a04	2594f3b7	lui	x7,0x2594f	  x7=0x2594f000
       42685000	      4267	80005a08	0048beb3	sltu	x29,x17,x4	 x17:0x000000ff  x4:0x1843e000 x29=0x00000001
       42695000	      4268	80005a0c	82518413	addi	x8,x3,-2011	  x3:0x2ab80844  x8=0x2ab80069
       42705000	      4269	80005a10	00000013	addi	x0,x0,0	  x0:0x00000000
       42715000	      4270	80005a14	01a64433	xor	x8,x12,x26	 x12:0xc093e000 x26:0x00000001  x8=0xc093e001
       42725000	      4271	80005a18	416ad133	sra	x2,x21,x22	 x21:0xef7812ee x22:0x00000000  x2=0xef7812ee
       42735000	      4272	80005a1c	00c11413	slli	x8,x2,0xc	  x2:0xef7812ee  x8=0x812ee000
       42745000	      4273	80005a20	bde02b13	slti	x22,x0,-1058	  x0:0x00000000 x22=0x00000000
       42755000	      4274	80005a24	03e2e263	bltu	x5,x30,80005a48	  x5:0x00000000 x30:0x00000672
       42765000	      4275	00000000	00000013	addi	x0,x0,0	  x0:0x00000000
       42775000	      4276	80005a44	00000013	addi	x0,x0,0	  x0:0x00000000
       42785000	      4277	80005a48	4020deb3	sra	x29,x1,x2	  x1:0x00000000  x2:0xef7812ee x29=0x00000000
       42795000	      4278	80005a4c	40320513	addi	x10,x4,1027	  x4:0x1843e000 x10=0x1843e403
       42805000	      4279	80005a50	019bbd33	sltu	x26,x23,x25	 x23:0x9843403b x25:0x00000001 x26=0x00000000
       42815000	      4280	80005a54	00fb6533	or	x10,x22,x15	 x22:0x00000000 x15:0xffffff06 x10=0xffffff06
       42825000	      4281	80005a58	b7442fb7	lui	x31,0xb7442	 x31=0xb7442000
       42835000	      4282	80005a5c	41e7dc93	srai	x25,x15,0x1e	 x15:0xffffff06 x25=0xffffffff
       42845000	      4283	80005a60	00000013	addi	x0,x0,0	  x0:0x00000000
       42855000	      4284	80005a64	04ebd263	bge	x23,x14,80005aa8	 x23:0x9843403b x14:0x00000000
       42865000	      4285	80005a68	1811e593	ori	x11,x3,385	  x3:0x2ab80844 x11=0x2ab809c5
       42875000	      4286	80005a6c	0148dd33	srl	x26,x17,x20	 x17:0x000000ff x20:0x00000000 x26=0x000000ff
       42885000	      4287	80005a70	05fb6863	bltu	x22,x31,80005ac0	 x22:0x00000000 x31:0xb7442000
       42895000	      4288	00000000	00000013	addi	x0,x0,0	  x0:0x00000000
       42905000	      4289	80005abc	00000013	addi	x0,x0,0	  x0:0x00000000
       42915000	      4290	80005ac0	0078fb33	and	x22,x17,x7	 x17:0x000000ff  x7:0x2594f000 x22=0x00000000
       42925000	      4291	80005ac4	00de0663	beq	x28,x13,80005ad0	 x28:0x39f05000 x13:0xffffff83
       42935000	      4292	80005ac8	00fee663	bltu	x29,x15,80005ad4	 x29:0x00000000 x15:0xffffff06
       42945000	      4293	00000000	00000013	addi	x0,x0,0	  x0:0x00000000
       42955000	      4294	80005ad0	00000013	addi	x0,x0,0	  x0:0x00000000
       42965000	      4295	80005ad4	00bc07b3	add	x15,x24,x11	 x24:0x0000026d x11:0x2ab809c5 x15=0x2ab80c32
       42975000	      4296	80005ad8	00b01233	sll	x4,x0,x11	  x0:0x00000000 x11:0x2ab809c5  x4=0x00000000
       42985000	      4297	80005adc	01062f33	slt	x30,x12,x16	 x12:0xc093e000 x16:0x80009fc4 x30=0x00000000
       42995000	      4298	80005ae0	5bffe113	ori	x2,x31,1471	 x31:0xb7442000  x2=0xb74425bf
       43005000	      4299	80005ae4	00414bb3	xor	x23,x2,x4	  x2:0xb74425bf  x4:0x00000000 x23=0xb74425bf
       43015000	      4300	80005ae8	00db9c13	slli	x24,x23,0xd	 x23:0xb74425bf x24=0x84b7e000
       43025000	      4301	80005aec	012c5693	srli	x13,x24,0x12	 x24:0x84b7e000 x13=0x0000212d
       43035000	      4302	80005af0	31af3313	sltiu	x6,x30,794	 x30:0x00000000  x6=0x00000001
       43045000	      4303	80005af4	00bf1a33	sll	x20,x30,x11	 x30:0x00000000 x11:0x2ab809c5 x20=0x00000000
       43055000	      4304	80005af8	01659033	sll	x0,x11,x22	 x11:0x2ab809c5 x22:0x00000000
       43065000	      4305	80005afc	401d0133	sub	x2,x26,x1	 x26:0x000000ff  x1:0x00000000  x2=0x000000ff
       43075000	      4306	80005b00	01c28933	add	x18,x5,x28	  x5:0x00000000 x28:0x39f05000 x18=0x39f05000
       43085000	      4307	80005b04	40e0d313	srai	x6,x1,0xe	  x1:0x00000000  x6=0x00000000
       43095000	      4308	80005b08	05574263	blt	x14,x21,80005b4c	 x14:0x00000000 x21:0xef7812ee
       43105000	      4309	80005b0c	40d95633	sra	x12,x18,x13	 x18:0x39f05000 x13:0x0000212d x12=0x0001cf82
       43115000	      4310	80005b10	019c3c33	sltu	x24,x24,x25	 x24:0x84b7e000 x25:0xffffffff x24=0x00000001
       43125000	      4311	80005b14	011a6cb3	or	x25,x20,x17	 x20:0x00000000 x17:0x000000ff x25=0x000000ff
       43135000	      4312	80005b18	3cef6513	ori	x10,x30,974	 x30:0x00000000 x10=0x000003ce
       43145000	      4313	80005b1c	7a52cf17	auipc	x30,0x7a52c	 x30=0xfa531b18
       43155000	      4314	80005b20	04ef4063	blt	x30,x14,80005b60	 x30:0xfa531b18 x14:0x00000000
       43165000	      4315	00000000	00000013	addi	x0,x0,0	  x0:0x00000000
       43175000	      4316	80005b5c	00000013	addi	x0,x0,0	  x0:0x00000000
       43185000	      4317	80005b60	fe6a7513	andi	x10,x20,-26	 x20:0x00000000 x10=0x00000000
       43195000	      4318	80005b64	03238863	beq	x7,x18,80005b94	  x7:0x2594f000 x18:0x39f05000
       43205000	      4319	80005b68	03e0f063	bgeu	x1,x30,80005b88	  x1:0x00000000 x30:0xfa531b18
       43215000	      4320	80005b6c	d0abea13	ori	x20,x23,-758	 x23:0xb74425bf x20=0xfffffdbf
       43225000	      4321	80005b70	04538463	beq	x7,x5,80005bb8	  x7:0x2594f000  x5:0x00000000
       43235000	      4322	80005b74	00eb2b33	slt	x22,x22,x14	 x22:0x00000000 x14:0x00000000 x22=0x00000000
       43245000	      4323	80005b78	01552a33	slt	x20,x10,x21	 x10:0x00000000 x21:0xef7812ee x20=0x00000000
       43255000	      4324	80005b7c	b39af313	andi	x6,x21,-1223	 x21:0xef7812ee  x6=0xef781228
       43265000	      4325	80005b80	15e4c113	xori	x2,x9,350	  x9:0x00000124  x2=0x0000007a
       43275000	      4326	80005b84	00ea3333	sltu	x6,x20,x14	 x20:0x00000000 x14:0x00000000  x6=0x00000000
       43285000	      4327	80005b88	01a699b3	sll	x19,x13,x26	 x13:0x0000212d x26:0x000000ff x19=0x80000000
       43295000	      4328	80005b8c	00897633	and	x12,x18,x8	 x18:0x39f05000  x8:0x812ee000 x12=0x01204000
       43305000	      4329	80005b90	669381b7	lui	x3,0x66938	  x3=0x66938000
       43315000	      4330	80005b94	39384b13	xori	x22,x16,915	 x16:0x80009fc4 x22=0x80009c57
       43325000	      4331	80005b98	05969263	bne	x13,x25,80005bdc	 x13:0x0000212d x25:0x000000ff
       43335000	      4332	00000000	00000013	addi	x0,x0,0	  x0:0x00000000
       43345000	      4333	80005bd8	00000013	addi	x0,x0,0	  x0:0x00000000
       43355000	      4334	80005bdc	048b8063	beq	x23,x8,80005c1c	 x23:0xb74425bf  x8:0x812ee000
       43365000	      4335	80005be0	01e381b3	add	x3,x7,x30	  x7:0x2594f000 x30:0xfa531b18  x3=0x1fe80b18
       43375000	      4336	80005be4	41f55f93	srai	x31,x10,0x1f	 x10:0x00000000 x31=0x00000000
       43385000	      4337	80005be8	344fe293	ori	x5,x31,836	 x31:0x00000000  x5=0x00000344
       43395000	      4338	80005bec	41090633	sub	x12,x18,x16	 x18:0x39f05000 x16:0x80009fc4 x12=0xb9efb03c
       43405000	      4339	80005bf0	0021f633	and	x12,x3,x2	  x3:0x1fe80b18  x2:0x0000007a x12=0x00000018
       43415000	      4340	80005bf4	00b3fe63	bgeu	x7,x11,80005c10	  x7:0x2594f000 x11:0x2ab809c5
       43425000	      4341	80005bf8	05a44063	blt	x8,x26,80005c38	  x8:0x812ee000 x26:0x000000ff
       43435000	      4342	00000000	00000013	addi	x0,x0,0	  x0:0x00000000
       43445000	      4343	80005c34	00000013	addi	x0,x0,0	  x0:0x00000000
       43455000	      4344	80005c38	a47bba93	sltiu	x21,x23,-1465	 x23:0xb74425bf x21=0x00000001
       43465000	      4345	80005c3c	0e992113	slti	x2,x18,233	 x18:0x39f05000  x2=0x00000000
       43475000	      4346	80005c40	4bb37e93	andi	x29,x6,1211	  x6:0x00000000 x29=0x00000000
       43485000	      4347	80005c44	00478fb3	add	x31,x15,x4	 x15:0x2ab80c32  x4:0x00000000 x31=0x2ab80c32
       43495000	      4348	80005c48	0107eab3	or	x21,x15,x16	 x15:0x2ab80c32 x16:0x80009fc4 x21=0xaab89ff6
       43505000	      4349	80005c4c	01405993	srli	x19,x0,0x14	  x0:0x00000000 x19=0x00000000
       43515000	      4350	80005c50	01beb933	sltu	x18,x29,x27	 x29:0x00000000 x27:0x80009f24 x18=0x00000001
       43525000	      4351	80005c54	d94afb93	andi	x23,x21,-620	 x21:0xaab89ff6 x23=0xaab89d94
       43535000	      4352	80005c58	b26d8313	addi	x6,x27,-1242	 x27:0x80009f24  x6=0x80009a4a
       43545000	      4353	80005c5c	41ddd293	srai	x5,x27,0x1d	 x27:0x80009f24  x5=0xfffffffc
       43555000	      4354	80005c60	417d5b13	srai	x22,x26,0x17	 x26:0x000000ff x22=0x00000000
       43565000	      4355	80005c64	cd2d0893	addi	x17,x26,-814	 x26:0x000000ff x17=0xfffffdd1
       43575000	      4356	80005c68	037fcc63	blt	x31,x23,80005ca0	 x31:0x2ab80c32 x23:0xaab89d94
       43585000	      4357	80005c6c	02ff8463	beq	x31,x15,80005c94	 x31:0x2ab80c32 x15:0x2ab80c32
       43595000	      4358	00000000	00000013	addi	x0,x0,0	  x0:0x00000000
       43605000	      4359	80005c90	00000013	addi	x0,x0,0	  x0:0x00000000
       43615000	      4360	80005c94	c9c18513	addi	x10,x3,-868	  x3:0x1fe80b18 x10=0x1fe807b4
       43625000	      4361	80005c98	00a19c33	sll	x24,x3,x10	  x3:0x1fe80b18 x10:0x1fe807b4 x24=0xb1800000
       43635000	      4362	80005c9c	0155d793	srli	x15,x11,0x15	 x11:0x2ab809c5 x15=0x00000155
       43645000	      4363	80005ca0	017512b3	sll	x5,x10,x23	 x10:0x1fe807b4 x23:0xaab89d94  x5=0x7b400000
       43655000	      4364	80005ca4	015eb033	sltu	x0,x29,x21	 x29:0x00000000 x21:0xaab89ff6
       43665000	      4365	80005ca8	00000013	addi	x0,x0,0	  x0:0x00000000
       43675000	      4366	80005cac	fa812013	slti	x0,x2,-88	  x2:0x00000000
       43685000	      4367	80005cb0	65678f93	addi	x31,x15,1622	 x15:0x00000155 x31=0x000007ab
       43695000	      4368	80005cb4	00ee1f13	slli	x30,x28,0xe	 x28:0x39f05000 x30=0x14000000
       43705000	      4369	80005cb8	25134993	xori	x19,x6,593	  x6:0x80009a4a x19=0x8000981b
       43715000	      4370	80005cbc	00000013	addi	x0,x0,0	  x0:0x00000000
       43725000	      4371	80005cc0	00854fb3	xor	x31,x10,x8	 x10:0x1fe807b4  x8:0x812ee000 x31=0x9ec6e7b4
       43735000	      4372	80005cc4	85b2a613	slti	x12,x5,-1957	  x5:0x7b400000 x12=0x00000000
       43745000	      4373	80005cc8	00e59a93	slli	x21,x11,0xe	 x11:0x2ab809c5 x21=0x02714000
       43755000	      4374	80005ccc	ec680f93	addi	x31,x16,-314	 x16:0x80009fc4 x31=0x80009e8a
       43765000	      4375	80005cd0	41d2d613	srai	x12,x5,0x1d	  x5:0x7b400000 x12=0x00000003
       43775000	      4376	80005cd4	00c3f2b3	and	x5,x7,x12	  x7:0x2594f000 x12:0x00000003  x5=0x00000000
       43785000	      4377	80005cd8	01cb5a93	srli	x21,x22,0x1c	 x22:0x00000000 x21=0x00000000
       43795000	      4378	80005cdc	40db0b33	sub	x22,x22,x13	 x22:0x00000000 x13:0x0000212d x22=0xffffded3
       43805000	      4379	80005ce0	bd138fb7	lui	x31,0xbd138	 x31=0xbd138000
       43815000	      4380	80005ce4	0213d463	bge	x7,x1,80005d0c	  x7:0x2594f000  x1:0x00000000
       43825000	      4381	00000000	00000013	addi	x0,x0,0	  x0:0x00000000
       43835000	      4382	80005d08	00000013	addi	x0,x0,0	  x0:0x00000000
       43845000	      4383	80005d0c	c6c8b713	sltiu	x14,x17,-916	 x17:0xfffffdd1 x14=0x00000000
       43855000	      4384	80005d10	01cac663	blt	x21,x28,80005d1c	 x21:0x00000000 x28:0x39f05000
       43865000	      4385	00000000	00000013	addi	x0,x0,0	  x0:0x00000000
       43875000	      4386	80005d18	00000013	addi	x0,x0,0	  x0:0x00000000
       43885000	      4387	80005d1c	fdbd7b93	andi	x23,x26,-37	 x26:0x000000ff x23=0x000000db
       43895000	      4388	80005d20	0154cbb3	xor	x23,x9,x21	  x9:0x00000124 x21:0x00000000 x23=0x00000124
       43905000	      4389	80005d24	00271e13	slli	x28,x14,0x2	 x14:0x00000000 x28=0x00000000
       43915000	      4390	80005d28	60ae3e93	sltiu	x29,x28,1546	 x28:0x00000000 x29=0x00000001
       43925000	      4391	80005d2c	013bb5b3	sltu	x11,x23,x19	 x23:0x00000124 x19:0x8000981b x11=0x00000001
       43935000	      4392	80005d30	01ae4fb3	xor	x31,x28,x26	 x28:0x00000000 x26:0x000000ff x31=0x000000ff
       43945000	      4393	80005d34	d28bce17	auipc	x28,0xd28bc	 x28=0x528c1d30
       43955000	      4394	80005d38	01a21233	sll	x4,x4,x26	  x4:0x00000000 x26:0x000000ff  x4=0x00000000
       43965000	      4395	80005d3c	1183c593	xori	x11,x7,280	  x7:0x2594f000 x11=0x2594f118
       43975000	      4396	80005d40	00d2ef33	or	x30,x5,x13	  x5:0x00000000 x13:0x0000212d x30=0x0000212d
       43985000	      4397	80005d44	01f0cb33	xor	x22,x1,x31	  x1:0x00000000 x31:0x000000ff x22=0x000000ff
       43995000	      4398	80005d48	01510fb3	add	x31,x2,x21	  x2:0x00000000 x21:0x00000000 x31=0x00000000
       44005000	      4399	80005d4c	be7b78b7	lui	x17,0xbe7b7	 x17=0xbe7b7000
       44015000	      4400	80005d50	d0f6a8b7	lui	x17,0xd0f6a	 x17=0xd0f6a000
       44025000	      4401	80005d54	ceea4893	xori	x17,x20,-786	 x20:0x00000000 x17=0xfffffcee
       44035000	      4402	80005d58	01ce6733	or	x14,x28,x28	 x28:0x528c1d30 x28:0x528c1d30 x14=0x528c1d30
       44045000	      4403	80005d5c	f0a7de97	auipc	x29,0xf0a7d	 x29=0x70a82d58
       44055000	      4404	80005d60	02ce0c63	beq	x28,x12,80005d98	 x28:0x528c1d30 x12:0x00000003
       44065000	      4405	80005d64	018c7663	bgeu	x24,x24,80005d70	 x24:0xb1800000 x24:0xb1800000
       44075000	      4406	00000000	00000013	addi	x0,x0,0	  x0:0x00000000
       44085000	      4407	80005d6c	00000013	addi	x0,x0,0	  x0:0x00000000
       44095000	      4408	80005d70	409209b3	sub	x19,x4,x9	  x4:0x00000000  x9:0x00000124 x19=0xfffffedc
       44105000	      4409	80005d74	000c7a33	and	x20,x24,x0	 x24:0xb1800000  x0:0x00000000 x20=0x00000000
       44115000	      4410	80005d78	40c081b3	sub	x3,x1,x12	  x1:0x00000000 x12:0x00000003  x3=0xfffffffd
       44125000	      4411	80005d7c	00bffe63	bgeu	x31,x11,80005d98	 x31:0x00000000 x11:0x2594f118
       44135000	      4412	80005d80	015399b3	sll	x19,x7,x21	  x7:0x2594f000 x21:0x00000000 x19=0x2594f000
       44145000	      4413	80005d84	66b81797	auipc	x15,0x66b81	 x15=0xe6b86d80
       44155000	      4414	80005d88	26102693	slti	x13,x0,609	  x0:0x00000000 x13=0x00000001
       44165000	      4415	80005d8c	0191db33	srl	x22,x3,x25	  x3:0xfffffffd x25:0x000000ff x22=0x00000001
       44175000	      4416	80005d90	04f9f463	bgeu	x19,x15,80005dd8	 x19:0x2594f000 x15:0xe6b86d80
       44185000	      4417	80005d94	c9cc3d13	sltiu	x26,x24,-868	 x24:0xb1800000 x26=0x00000001
       44195000	      4418	80005d98	506e6993	ori	x19,x28,1286	 x28:0x528c1d30 x19=0x528c1d36
       44205000	      4419	80005d9c	01422433	slt	x8,x4,x20	  x4:0x00000000 x20:0x00000000  x8=0x00000000
       44215000	      4420	80005da0	402dd013	srai	x0,x27,0x2	 x27:0x80009f24
       44225000	      4421	80005da4	01024533	xor	x10,x4,x16	  x4:0x00000000 x16:0x80009fc4 x10=0x80009fc4
       44235000	      4422	80005da8	01f1b933	sltu	x18,x3,x31	  x3:0xfffffffd x31:0x00000000 x18=0x00000000
       44245000	      4423	80005dac	055fc263	blt	x31,x21,80005df0	 x31:0x00000000 x21:0x00000000
       44255000	      4424	80005db0	00921a33	sll	x20,x4,x9	  x4:0x00000000  x9:0x00000124 x20=0x00000000
       44265000	      4425	80005db4	2bb38e13	addi	x28,x7,699	  x7:0x2594f000 x28=0x2594f2bb
       44275000	      4426	80005db8	4947c893	xori	x17,x15,1172	 x15:0xe6b86d80 x17=0xe6b86914
       44285000	      4427	80005dbc	01f40033	add	x0,x8,x31	  x8:0x00000000 x31:0x00000000
       44295000	      4428	80005dc0	aa6f3193	sltiu	x3,x30,-1370	 x30:0x0000212d  x3=0x00000001
       44305000	      4429	80005dc4	bad87693	andi	x13,x16,-1107	 x16:0x80009fc4 x13=0x80009b84
       44315000	      4430	80005dc8	014d55b3	srl	x11,x26,x20	 x26:0x00000001 x20:0x00000000 x11=0x00000001
       44325000	      4431	80005dcc	0018b733	sltu	x14,x17,x1	 x17:0xe6b86914  x1:0x00000000 x14=0x00000000
       44335000	      4432	80005dd0	00fc5313	srli	x6,x24,0xf	 x24:0xb1800000  x6=0x00016300
       44345000	      4433	80005dd4	0151ce63	blt	x3,x21,80005df0	  x3:0x00000001 x21:0x00000000
       44355000	      4434	80005dd8	01b9d133	srl	x2,x19,x27	 x19:0x528c1d36 x27:0x80009f24  x2=0x0528c1d3
       44365000	      4435	80005ddc	00ba5a33	srl	x20,x20,x11	 x20:0x00000000 x11:0x00000001 x20=0x00000000
       44375000	      4436	80005de0	00749bb3	sll	x23,x9,x7	  x9:0x00000124  x7:0x2594f000 x23=0x00000124
       44385000	      4437	80005de4	011597b3	sll	x15,x11,x17	 x11:0x00000001 x17:0xe6b86914 x15=0x00100000
       44395000	      4438	80005de8	5ac50f13	addi	x30,x10,1452	 x10:0x80009fc4 x30=0x8000a570
       44405000	      4439	80005dec	40a45793	srai	x15,x8,0xa	  x8:0x00000000 x15=0x00000000
       44415000	      4440	80005df0	40cd5893	srai	x17,x26,0xc	 x26:0x00000001 x17=0x00000000
       44425000	      4441	80005df4	40ed08b3	sub	x17,x26,x14	 x26:0x00000001 x14:0x00000000 x17=0x00000001
       44435000	      4442	80005df8	01e35c13	srli	x24,x6,0x1e	  x6:0x00016300 x24=0x00000000
       44445000	      4443	80005dfc	0203c663	blt	x7,x0,80005e28	  x7:0x2594f000  x0:0x00000000
       44455000	      4444	80005e00	00eb87b3	add	x15,x23,x14	 x23:0x00000124 x14:0x00000000 x15=0x00000124
       44465000	      4445	80005e04	9f520617	auipc	x12,0x9f520	 x12=0x1f525e00
       44475000	      4446	80005e08	045e1063	bne	x28,x5,80005e48	 x28:0x2594f2bb  x5:0x00000000
       44485000	      4447	00000000	00000013	addi	x0,x0,0	  x0:0x00000000
       44495000	      4448	80005e44	00000013	addi	x0,x0,0	  x0:0x00000000
       44505000	      4449	80005e48	52401497	auipc	x9,0x52401	  x9=0xd2406e44
       44515000	      4450	80005e4c	782a6e13	ori	x28,x20,1922	 x20:0x00000000 x28=0x00000782
       44525000	      4451	80005e50	028e6263	bltu	x28,x8,80005e74	 x28:0x00000782  x8:0x00000000
       44535000	      4452	80005e54	01a19d33	sll	x26,x3,x26	  x3:0x00000001 x26:0x00000001 x26=0x00000002
       44545000	      4453	80005e58	4072dc13	srai	x24,x5,0x7	  x5:0x00000000 x24=0x00000000
       44555000	      4454	80005e5c	019e5e93	srli	x29,x28,0x19	 x28:0x00000782 x29=0x00000000
       44565000	      4455	80005e60	00c5d193	srli	x3,x11,0xc	 x11:0x00000001  x3=0x00000000
       44575000	      4456	80005e64	01ace533	or	x10,x25,x26	 x25:0x000000ff x26:0x00000002 x10=0x000000ff
       44585000	      4457	80005e68	03055c63	bge	x10,x16,80005ea0	 x10:0x000000ff x16:0x80009fc4
       44595000	      4458	00000000	00000013	addi	x0,x0,0	  x0:0x00000000
       44605000	      4459	80005e9c	00000013	addi	x0,x0,0	  x0:0x00000000
       44615000	      4460	80005ea0	08b2f413	andi	x8,x5,139	  x5:0x00000000  x8=0x00000000
       44625000	      4461	80005ea4	01b71613	slli	x12,x14,0x1b	 x14:0x00000000 x12=0x00000000
       44635000	      4462	80005ea8	0137cb33	xor	x22,x15,x19	 x15:0x00000124 x19:0x528c1d36 x22=0x528c1c12
       44645000	      4463	80005eac	01a35b93	srli	x23,x6,0x1a	  x6:0x00016300 x23=0x00000000
       44655000	      4464	80005eb0	00182bb3	slt	x23,x16,x1	 x16:0x80009fc4  x1:0x00000000 x23=0x00000001
       44665000	      4465	80005eb4	2de77193	andi	x3,x14,734	 x14:0x00000000  x3=0x00000000
       44675000	      4466	80005eb8	c9a73a93	sltiu	x21,x14,-870	 x14:0x00000000 x21=0x00000001
       44685000	      4467	80005ebc	bec03397	auipc	x7,0xbec03	  x7=0x3ec08eb8
       44695000	      4468	80005ec0	52f9a493	slti	x9,x19,1327	 x19:0x528c1d36  x9=0x00000000
       44705000	      4469	80005ec4	29fa4717	auipc	x14,0x29fa4	 x14=0xa9fa9ec0
       44715000	      4470	80005ec8	05f08063	beq	x1,x31,80005f08	  x1:0x00000000 x31:0x00000000
       44725000	      4471	00000000	00000013	addi	x0,x0,0	  x0:0x00000000
       44735000	      4472	80005f04	00000013	addi	x0,x0,0	  x0:0x00000000
       44745000	      4473	80005f08	03178a63	beq	x15,x17,80005f3c	 x15:0x00000124 x17:0x00000001
       44755000	      4474	80005f0c	05d20063	beq	x4,x29,80005f4c	  x4:0x00000000 x29:0x00000000
       44765000	      4475	00000000	00000013	addi	x0,x0,0	  x0:0x00000000
       44775000	      4476	80005f48	00000013	addi	x0,x0,0	  x0:0x00000000
       44785000	      4477	80005f4c	19faa313	slti	x6,x21,415	 x21:0x00000001  x6=0x00000001
       44795000	      4478	80005f50	3f522d37	lui	x26,0x3f522	 x26=0x3f522000
       44805000	      4479	80005f54	00000013	addi	x0,x0,0	  x0:0x00000000
       44815000	      4480	80005f58	018f6a63	bltu	x30,x24,80005f6c	 x30:0x8000a570 x24:0x00000000
       44825000	      4481	80005f5c	01674433	xor	x8,x14,x22	 x14:0xa9fa9ec0 x22:0x528c1c12  x8=0xfb7682d2
       44835000	      4482	80005f60	00881c63	bne	x16,x8,80005f78	 x16:0x80009fc4  x8:0xfb7682d2
       44845000	      4483	00000000	00000013	addi	x0,x0,0	  x0:0x00000000
       44855000	      4484	80005f74	00000013	addi	x0,x0,0	  x0:0x00000000
       44865000	      4485	80005f78	00b71333	sll	x6,x14,x11	 x14:0xa9fa9ec0 x11:0x00000001  x6=0x53f53d80
       44875000	      4486	80005f7c	033b8463	beq	x23,x19,80005fa4	 x23:0x00000001 x19:0x528c1d36
       44885000	      4487	80005f80	183a6793	ori	x15,x20,387	 x20:0x00000000 x15=0x00000183
       44895000	      4488	80005f84	40d6dd33	sra	x26,x13,x13	 x13:0x80009b84 x13:0x80009b84 x26=0xf80009b8
       44905000	      4489	80005f88	8876c197	auipc	x3,0x8876c	  x3=0x08771f84
       44915000	      4490	80005f8c	418f0533	sub	x10,x30,x24	 x30:0x8000a570 x24:0x00000000 x10=0x8000a570
       44925000	      4491	80005f90	05e71463	bne	x14,x30,80005fd8	 x14:0xa9fa9ec0 x30:0x8000a570
       44935000	      4492	00000000	00000013	addi	x0,x0,0	  x0:0x00000000
       44945000	      4493	80005fd4	00000013	addi	x0,x0,0	  x0:0x00000000
       44955000	      4494	80005fd8	0005b433	sltu	x8,x11,x0	 x11:0x00000001  x0:0x00000000  x8=0x00000000
       44965000	      4495	80005fdc	011c8cb3	add	x25,x25,x17	 x25:0x000000ff x17:0x00000001 x25=0x00000100
       44975000	      4496	80005fe0	04550463	beq	x10,x5,80006028	 x10:0x8000a570  x5:0x00000000
       44985000	      4497	80005fe4	0036d033	srl	x0,x13,x3	 x13:0x80009b84  x3:0x08771f84
       44995000	      4498	80005fe8	018f7d33	and	x26,x30,x24	 x30:0x8000a570 x24:0x00000000 x26=0x00000000
       45005000	      4499	80005fec	01d01533	sll	x10,x0,x29	  x0:0x00000000 x29:0x00000000 x10=0x00000000
       45015000	      4500	80005ff0	01ea9113	slli	x2,x21,0x1e	 x21:0x00000001  x2=0x40000000
       45025000	      4501	80005ff4	89f36013	ori	x0,x6,-1889	  x6:0x53f53d80
       45035000	      4502	80005ff8	407f5b93	srai	x23,x30,0x7	 x30:0x8000a570 x23=0xff00014a
       45045000	      4503	80005ffc	13cf4a13	xori	x20,x30,316	 x30:0x8000a570 x20=0x8000a44c
       45055000	      4504	80006000	01f6da33	srl	x20,x13,x31	 x13:0x80009b84 x31:0x00000000 x20=0x80009b84
       45065000	      4505	80006004	fa426513	ori	x10,x4,-92	  x4:0x00000000 x10=0xffffffa4
       45075000	      4506	80006008	41360133	sub	x2,x12,x19	 x12:0x00000000 x19:0x528c1d36  x2=0xad73e2ca
       45085000	      4507	8000600c	408adb33	sra	x22,x21,x8	 x21:0x00000001  x8:0x00000000 x22=0x00000001
       45095000	      4508	80006010	6eca2713	slti	x14,x20,1772	 x20:0x80009b84 x14=0x00000001
       45105000	      4509	80006014	5454ec13	ori	x24,x9,1349	  x9:0x00000000 x24=0x00000545
       45115000	      4510	80006018	eb10a413	slti	x8,x1,-335	  x1:0x00000000  x8=0x00000000
       45125000	      4511	8000601c	01797663	bgeu	x18,x23,80006028	 x18:0x00000000 x23:0xff00014a
       45135000	      4512	80006020	01fce633	or	x12,x25,x31	 x25:0x00000100 x31:0x00000000 x12=0x00000100
       45145000	      4513	80006024	4fdae213	ori	x4,x21,1277	 x21:0x00000001  x4=0x000004fd
       45155000	      4514	80006028	86802493	slti	x9,x0,-1944	  x0:0x00000000  x9=0x00000000
       45165000	      4515	8000602c	00c624b3	slt	x9,x12,x12	 x12:0x00000100 x12:0x00000100  x9=0x00000000
       45175000	      4516	80006030	00536333	or	x6,x6,x5	  x6:0x53f53d80  x5:0x00000000  x6=0x53f53d80
       45185000	      4517	80006034	01fbd993	srli	x19,x23,0x1f	 x23:0xff00014a x19=0x00000001
       45195000	      4518	80006038	04efc263	blt	x31,x14,8000607c	 x31:0x00000000 x14:0x00000001
       45205000	      4519	00000000	00000013	addi	x0,x0,0	  x0:0x00000000
       45215000	      4520	80006078	00000013	addi	x0,x0,0	  x0:0x00000000
       45225000	      4521	8000607c	3ca74393	xori	x7,x14,970	 x14:0x00000001  x7=0x000003cb
       45235000	      4522	80006080	00b864b3	or	x9,x16,x11	 x16:0x80009fc4 x11:0x00000001  x9=0x80009fc5
       45245000	      4523	80006084	419ad4b3	sra	x9,x21,x25	 x21:0x00000001 x25:0x00000100  x9=0x00000001
       45255000	      4524	80006088	01fa1193	slli	x3,x20,0x1f	 x20:0x80009b84  x3=0x00000000
       45265000	      4525	8000608c	04725063	bge	x4,x7,800060cc	  x4:0x000004fd  x7:0x000003cb
       45275000	      4526	00000000	00000013	addi	x0,x0,0	  x0:0x00000000
       45285000	      4527	800060c8	00000013	addi	x0,x0,0	  x0:0x00000000
       45295000	      4528	800060cc	40595eb3	sra	x29,x18,x5	 x18:0x00000000  x5:0x00000000 x29=0x00000000
       45305000	      4529	800060d0	40f75b33	sra	x22,x14,x15	 x14:0x00000001 x15:0x00000183 x22=0x00000000
       45315000	      4530	800060d4	05751063	bne	x10,x23,80006114	 x10:0xffffffa4 x23:0xff00014a
       45325000	      4531	00000000	00000013	addi	x0,x0,0	  x0:0x00000000
       45335000	      4532	80006110	00000013	addi	x0,x0,0	  x0:0x00000000
       45345000	      4533	80006114	dc203cb7	lui	x25,0xdc203	 x25=0xdc203000
       45355000	      4534	80006118	000b13b3	sll	x7,x22,x0	 x22:0x00000000  x0:0x00000000  x7=0x00000000
       45365000	      4535	8000611c	01475d13	srli	x26,x14,0x14	 x14:0x00000001 x26=0x00000000
       45375000	      4536	80006120	039c0663	beq	x24,x25,8000614c	 x24:0x00000545 x25:0xdc203000
       45385000	      4537	80006124	00ff9a33	sll	x20,x31,x15	 x31:0x00000000 x15:0x00000183 x20=0x00000000
       45395000	      4538	80006128	262a4f93	xori	x31,x20,610	 x20:0x00000000 x31=0x00000262
       45405000	      4539	8000612c	40e3d733	sra	x14,x7,x14	  x7:0x00000000 x14:0x00000001 x14=0x00000000
       45415000	      4540	80006130	0122d633	srl	x12,x5,x18	  x5:0x00000000 x18:0x00000000 x12=0x00000000
       45425000	      4541	80006134	001af033	and	x0,x21,x1	 x21:0x00000001  x1:0x00000000
       45435000	      4542	80006138	cbef3493	sltiu	x9,x30,-834	 x30:0x8000a570  x9=0x00000001
       45445000	      4543	8000613c	95a3c193	xori	x3,x7,-1702	  x7:0x00000000  x3=0xfffff95a
       45455000	      4544	80006140	01ad4933	xor	x18,x26,x26	 x26:0x00000000 x26:0x00000000 x18=0x00000000
       45465000	      4545	80006144	41ec5733	sra	x14,x24,x30	 x24:0x00000545 x30:0x8000a570 x14=0x00000000
       45475000	      4546	80006148	02eb5463	bge	x22,x14,80006170	 x22:0x00000000 x14:0x00000000
       45485000	      4547	00000000	00000013	addi	x0,x0,0	  x0:0x00000000
       45495000	      4548	8000616c	00000013	addi	x0,x0,0	  x0:0x00000000
       45505000	      4549	80006170	01f5ca63	blt	x11,x31,80006184	 x11:0x00000001 x31:0x00000262
       45515000	      4550	00000000	00000013	addi	x0,x0,0	  x0:0x00000000
       45525000	      4551	80006180	00000013	addi	x0,x0,0	  x0:0x00000000
       45535000	      4552	80006184	01361b13	slli	x22,x12,0x13	 x12:0x00000000 x22=0x00000000
       45545000	      4553	80006188	01b838b3	sltu	x17,x16,x27	 x16:0x80009fc4 x27:0x80009f24 x17=0x00000000
       45555000	      4554	8000618c	c1e5fb13	andi	x22,x11,-994	 x11:0x00000001 x22=0x00000000
       45565000	      4555	80006190	01af9193	slli	x3,x31,0x1a	 x31:0x00000262  x3=0x88000000
       45575000	      4556	80006194	002ff7b3	and	x15,x31,x2	 x31:0x00000262  x2:0xad73e2ca x15=0x00000242
       45585000	      4557	80006198	41918e33	sub	x28,x3,x25	  x3:0x88000000 x25:0xdc203000 x28=0xabdfd000
       45595000	      4558	8000619c	4010d433	sra	x8,x1,x1	  x1:0x00000000  x1:0x00000000  x8=0x00000000
       45605000	      4559	800061a0	407ad2b3	sra	x5,x21,x7	 x21:0x00000001  x7:0x00000000  x5=0x00000001
       45615000	      4560	800061a4	01139593	slli	x11,x7,0x11	  x7:0x00000000 x11=0x00000000
       45625000	      4561	800061a8	01699133	sll	x2,x19,x22	 x19:0x00000001 x22:0x00000000  x2=0x00000001
       45635000	      4562	800061ac	01239d33	sll	x26,x7,x18	  x7:0x00000000 x18:0x00000000 x26=0x00000000
       45645000	      4563	800061b0	8122e213	ori	x4,x5,-2030	  x5:0x00000001  x4=0xfffff813
       45655000	      4564	800061b4	50c94593	xori	x11,x18,1292	 x18:0x00000000 x11=0x0000050c
       45665000	      4565	800061b8	00fb1663	bne	x22,x15,800061c4	 x22:0x00000000 x15:0x00000242
       45675000	      4566	00000000	00000013	addi	x0,x0,0	  x0:0x00000000
       45685000	      4567	800061c0	00000013	addi	x0,x0,0	  x0:0x00000000
       45695000	      4568	800061c4	41a05c93	srai	x25,x0,0x1a	  x0:0x00000000 x25=0x00000000
       45705000	      4569	800061c8	01e704b3	add	x9,x14,x30	 x14:0x00000000 x30:0x8000a570  x9=0x8000a570
       45715000	      4570	800061cc	0189db93	srli	x23,x19,0x18	 x19:0x00000001 x23=0x00000000
       45725000	      4571	800061d0	05226463	bltu	x4,x18,80006218	  x4:0xfffff813 x18:0x00000000
       45735000	      4572	800061d4	032d4c63	blt	x26,x18,8000620c	 x26:0x00000000 x18:0x00000000
       45745000	      4573	800061d8	29998393	addi	x7,x19,665	 x19:0x00000001  x7=0x0000029a
       45755000	      4574	800061dc	88ace137	lui	x2,0x88ace	  x2=0x88ace000
       45765000	      4575	800061e0	8022e313	ori	x6,x5,-2046	  x5:0x00000001  x6=0xfffff803
       45775000	      4576	800061e4	172f6b13	ori	x22,x30,370	 x30:0x8000a570 x22=0x8000a572
       45785000	      4577	800061e8	40a25393	srai	x7,x4,0xa	  x4:0xfffff813  x7=0xfffffffe
       45795000	      4578	800061ec	00a92c33	slt	x24,x18,x10	 x18:0x00000000 x10:0xffffffa4 x24=0x00000000
       45805000	      4579	800061f0	c63dc593	xori	x11,x27,-925	 x27:0x80009f24 x11=0x7fff6347
       45815000	      4580	800061f4	00efacb3	slt	x25,x31,x14	 x31:0x00000262 x14:0x00000000 x25=0x00000000
       45825000	      4581	800061f8	0156dc63	bge	x13,x21,80006210	 x13:0x80009b84 x21:0x00000001
       45835000	      4582	800061fc	01b534b3	sltu	x9,x10,x27	 x10:0xffffffa4 x27:0x80009f24  x9=0x00000000
       45845000	      4583	80006200	03ff5663	bge	x30,x31,8000622c	 x30:0x8000a570 x31:0x00000262
       45855000	      4584	80006204	00000013	addi	x0,x0,0	  x0:0x00000000
       45865000	      4585	80006208	02b3c863	blt	x7,x11,80006238	  x7:0xfffffffe x11:0x7fff6347
       45875000	      4586	00000000	00000013	addi	x0,x0,0	  x0:0x00000000
       45885000	      4587	80006234	00000013	addi	x0,x0,0	  x0:0x00000000
       45895000	      4588	80006238	a77caf13	slti	x30,x25,-1417	 x25:0x00000000 x30=0x00000000
       45905000	      4589	8000623c	02e24263	blt	x4,x14,80006260	  x4:0xfffff813 x14:0x00000000
       45915000	      4590	00000000	00000013	addi	x0,x0,0	  x0:0x00000000
       45925000	      4591	8000625c	00000013	addi	x0,x0,0	  x0:0x00000000
       45935000	      4592	80006260	00a6eeb3	or	x29,x13,x10	 x13:0x80009b84 x10:0xffffffa4 x29=0xffffffa4
       45945000	      4593	80006264	01864233	xor	x4,x12,x24	 x12:0x00000000 x24:0x00000000  x4=0x00000000
       45955000	      4594	80006268	01854533	xor	x10,x10,x24	 x10:0xffffffa4 x24:0x00000000 x10=0xffffffa4
       45965000	      4595	8000626c	02590063	beq	x18,x5,8000628c	 x18:0x00000000  x5:0x00000001
       45975000	      4596	80006270	57888197	auipc	x3,0x57888	  x3=0xd788e26c
       45985000	      4597	80006274	00e2d313	srli	x6,x5,0xe	  x5:0x00000001  x6=0x00000000
       45995000	      4598	80006278	4133dd33	sra	x26,x7,x19	  x7:0xfffffffe x19:0x00000001 x26=0xffffffff
       46005000	      4599	8000627c	02c08c63	beq	x1,x12,800062b4	  x1:0x00000000 x12:0x00000000
       46015000	      4600	00000000	00000013	addi	x0,x0,0	  x0:0x00000000
       46025000	      4601	800062b0	00000013	addi	x0,x0,0	  x0:0x00000000
       46035000	      4602	800062b4	1f5b8f13	addi	x30,x23,501	 x23:0x00000000 x30=0x000001f5
       46045000	      4603	800062b8	107de063	bltu	x27,x7,800063b8	 x27:0x80009f24  x7:0xfffffffe
       46055000	      4604	00000000	00000013	addi	x0,x0,0	  x0:0x00000000
       46065000	      4605	800063b4	00000013	addi	x0,x0,0	  x0:0x00000000
       46075000	      4606	800063b8	8a140b93	addi	x23,x8,-1887	  x8:0x00000000 x23=0xfffff8a1
       46085000	      4607	800063bc	05f17063	bgeu	x2,x31,800063fc	  x2:0x88ace000 x31:0x00000262
       46095000	      4608	00000000	00000013	addi	x0,x0,0	  x0:0x00000000
       46105000	      4609	800063f8	00000013	addi	x0,x0,0	  x0:0x00000000
       46115000	      4610	800063fc	01901d13	slli	x26,x0,0x19	  x0:0x00000000 x26=0x00000000
       46125000	      4611	80006400	60338393	addi	x7,x7,1539	  x7:0xfffffffe  x7=0x00000601
       46135000	      4612	80006404	e1cacc13	xori	x24,x21,-484	 x21:0x00000001 x24=0xfffffe1d
       46145000	      4613	80006408	036d0463	beq	x26,x22,80006430	 x26:0x00000000 x22:0x8000a572
       46155000	      4614	8000640c	01713233	sltu	x4,x2,x23	  x2:0x88ace000 x23:0xfffff8a1  x4=0x00000001
       46165000	      4615	80006410	01c707b3	add	x15,x14,x28	 x14:0x00000000 x28:0xabdfd000 x15=0xabdfd000
       46175000	      4616	80006414	00000013	addi	x0,x0,0	  x0:0x00000000
       46185000	      4617	80006418	41195bb3	sra	x23,x18,x17	 x18:0x00000000 x17:0x00000000 x23=0x00000000
       46195000	      4618	8000641c	b4457c93	andi	x25,x10,-1212	 x10:0xffffffa4 x25=0xfffffb04
       46205000	      4619	80006420	8f006e13	ori	x28,x0,-1808	  x0:0x00000000 x28=0xfffff8f0
       46215000	      4620	80006424	40825693	srai	x13,x4,0x8	  x4:0x00000001 x13=0x00000000
       46225000	      4621	80006428	40250eb3	sub	x29,x10,x2	 x10:0xffffffa4  x2:0x88ace000 x29=0x77531fa4
       46235000	      4622	8000642c	00e95f13	srli	x30,x18,0xe	 x18:0x00000000 x30=0x00000000
       46245000	      4623	80006430	01ee1a63	bne	x28,x30,80006444	 x28:0xfffff8f0 x30:0x00000000
       46255000	      4624	00000000	00000013	addi	x0,x0,0	  x0:0x00000000
       46265000	      4625	80006440	00000013	addi	x0,x0,0	  x0:0x00000000
       46275000	      4626	80006444	020f4a63	blt	x30,x0,80006478	 x30:0x00000000  x0:0x00000000
       46285000	      4627	80006448	403bd193	srai	x3,x23,0x3	 x23:0x00000000  x3=0x00000000
       46295000	      4628	8000644c	e31f67b7	lui	x15,0xe31f6	 x15=0xe31f6000
       46305000	      4629	80006450	00000013	addi	x0,x0,0	  x0:0x00000000
       46315000	      4630	80006454	325b7f13	andi	x30,x22,805	 x22:0x8000a572 x30=0x00000120
       46325000	      4631	80006458	01c35a33	srl	x20,x6,x28	  x6:0x00000000 x28:0xfffff8f0 x20=0x00000000
       46335000	      4632	8000645c	32cba993	slti	x19,x23,812	 x23:0x00000000 x19=0x00000001
       46345000	      4633	80006460	4a220a93	addi	x21,x4,1186	  x4:0x00000001 x21=0x000004a3
       46355000	      4634	80006464	028b0863	beq	x22,x8,80006494	 x22:0x8000a572  x8:0x00000000
       46365000	      4635	80006468	00f54d33	xor	x26,x10,x15	 x10:0xffffffa4 x15:0xe31f6000 x26=0x1ce09fa4
       46375000	      4636	8000646c	01091633	sll	x12,x18,x16	 x18:0x00000000 x16:0x80009fc4 x12=0x00000000
       46385000	      4637	80006470	00000013	addi	x0,x0,0	  x0:0x00000000
       46395000	      4638	80006474	00df4533	xor	x10,x30,x13	 x30:0x00000120 x13:0x00000000 x10=0x00000120
       46405000	      4639	80006478	ca14f013	andi	x0,x9,-863	  x9:0x00000000
       46415000	      4640	8000647c	03fddc63	bge	x27,x31,800064b4	 x27:0x80009f24 x31:0x00000262
       46425000	      4641	80006480	41af8133	sub	x2,x31,x26	 x31:0x00000262 x26:0x1ce09fa4  x2=0xe31f62be
       46435000	      4642	80006484	0466f463	bgeu	x13,x6,800064cc	 x13:0x00000000  x6:0x00000000
       46445000	      4643	00000000	00000013	addi	x0,x0,0	  x0:0x00000000
       46455000	      4644	800064c8	00000013	addi	x0,x0,0	  x0:0x00000000
       46465000	      4645	800064cc	0050fa63	bgeu	x1,x5,800064e0	  x1:0x00000000  x5:0x00000001
       46475000	      4646	800064d0	011a13b3	sll	x7,x20,x17	 x20:0x00000000 x17:0x00000000  x7=0x00000000
       46485000	      4647	800064d4	407708b3	sub	x17,x14,x7	 x14:0x00000000  x7:0x00000000 x17=0x00000000
       46495000	      4648	800064d8	4e322e13	slti	x28,x4,1251	  x4:0x00000001 x28=0x00000001
       46505000	      4649	800064dc	0108de33	srl	x28,x17,x16	 x17:0x00000000 x16:0x80009fc4 x28=0x00000000
       46515000	      4650	800064e0	0244f463	bgeu	x9,x4,80006508	  x9:0x00000000  x4:0x00000001
       46525000	      4651	800064e4	046f5063	bge	x30,x6,80006524	 x30:0x00000120  x6:0x00000000
       46535000	      4652	00000000	00000013	addi	x0,x0,0	  x0:0x00000000
       46545000	      4653	80006520	00000013	addi	x0,x0,0	  x0:0x00000000
       46555000	      4654	80006524	00000013	addi	x0,x0,0	  x0:0x00000000
       46565000	      4655	80006528	04ed1463	bne	x26,x14,80006570	 x26:0x1ce09fa4 x14:0x00000000
       46575000	      4656	00000000	00000013	addi	x0,x0,0	  x0:0x00000000
       46585000	      4657	8000656c	00000013	addi	x0,x0,0	  x0:0x00000000
       46595000	      4658	80006570	ee970393	addi	x7,x14,-279	 x14:0x00000000  x7=0xfffffee9
       46605000	      4659	80006574	48c196b7	lui	x13,0x48c19	 x13=0x48c19000
       46615000	      4660	80006578	029e0863	beq	x28,x9,800065a8	 x28:0x00000000  x9:0x00000000
       46625000	      4661	00000000	00000013	addi	x0,x0,0	  x0:0x00000000
       46635000	      4662	800065a4	00000013	addi	x0,x0,0	  x0:0x00000000
       46645000	      4663	800065a8	01ed1133	sll	x2,x26,x30	 x26:0x1ce09fa4 x30:0x00000120  x2=0x1ce09fa4
       46655000	      4664	800065ac	00a92a33	slt	x20,x18,x10	 x18:0x00000000 x10:0x00000120 x20=0x00000001
       46665000	      4665	800065b0	00e266b3	or	x13,x4,x14	  x4:0x00000001 x14:0x00000000 x13=0x00000001
       46675000	      4666	800065b4	01946733	or	x14,x8,x25	  x8:0x00000000 x25:0xfffffb04 x14=0xfffffb04
       46685000	      4667	800065b8	34a3d297	auipc	x5,0x34a3d	  x5=0xb4a435b4
       46695000	      4668	800065bc	fab8ba13	sltiu	x20,x17,-85	 x17:0x00000000 x20=0x00000001
       46705000	      4669	800065c0	00a637b3	sltu	x15,x12,x10	 x12:0x00000000 x10:0x00000120 x15=0x00000001
       46715000	      4670	800065c4	017b1663	bne	x22,x23,800065d0	 x22:0x8000a572 x23:0x00000000
       46725000	      4671	00000000	00000013	addi	x0,x0,0	  x0:0x00000000
       46735000	      4672	800065cc	00000013	addi	x0,x0,0	  x0:0x00000000
       46745000	      4673	800065d0	400e5293	srai	x5,x28,0x0	 x28:0x00000000  x5=0x00000000
       46755000	      4674	800065d4	00e691b3	sll	x3,x13,x14	 x13:0x00000001 x14:0xfffffb04  x3=0x00000010
       46765000	      4675	800065d8	0db35c63	bge	x6,x27,800066b0	  x6:0x00000000 x27:0x80009f24
       46775000	      4676	00000000	00000013	addi	x0,x0,0	  x0:0x00000000
       46785000	      4677	800066ac	00000013	addi	x0,x0,0	  x0:0x00000000
       46795000	      4678	800066b0	011d6bb3	or	x23,x26,x17	 x26:0x1ce09fa4 x17:0x00000000 x23=0x1ce09fa4
       46805000	      4679	800066b4	0179d133	srl	x2,x19,x23	 x19:0x00000001 x23:0x1ce09fa4  x2=0x00000000
       46815000	      4680	800066b8	015b1333	sll	x6,x22,x21	 x22:0x8000a572 x21:0x000004a3  x6=0x00052b90
       46825000	      4681	800066bc	01c94a63	blt	x18,x28,800066d0	 x18:0x00000000 x28:0x00000000
       46835000	      4682	800066c0	012c1e33	sll	x28,x24,x18	 x24:0xfffffe1d x18:0x00000000 x28=0xfffffe1d
       46845000	      4683	800066c4	04440863	beq	x8,x4,80006714	  x8:0x00000000  x4:0x00000001
       46855000	      4684	800066c8	03f2ca63	blt	x5,x31,800066fc	  x5:0x00000000 x31:0x00000262
       46865000	      4685	00000000	00000013	addi	x0,x0,0	  x0:0x00000000
       46875000	      4686	800066f8	00000013	addi	x0,x0,0	  x0:0x00000000
       46885000	      4687	800066fc	00f43d33	sltu	x26,x8,x15	  x8:0x00000000 x15:0x00000001 x26=0x00000001
       46895000	      4688	80006700	c69caf93	slti	x31,x25,-919	 x25:0xfffffb04 x31=0x00000001
       46905000	      4689	80006704	001bb033	sltu	x0,x23,x1	 x23:0x1ce09fa4  x1:0x00000000
       46915000	      4690	80006708	01304ab3	xor	x21,x0,x19	  x0:0x00000000 x19:0x00000001 x21=0x00000001
       46925000	      4691	8000670c	05607063	bgeu	x0,x22,8000674c	  x0:0x00000000 x22:0x8000a572
       46935000	      4692	80006710	40d25393	srai	x7,x4,0xd	  x4:0x00000001  x7=0x00000000
       46945000	      4693	80006714	017dde13	srli	x28,x27,0x17	 x27:0x80009f24 x28=0x00000100
       46955000	      4694	80006718	8a712393	slti	x7,x2,-1881	  x2:0x00000000  x7=0x00000000
       46965000	      4695	8000671c	07d2d663	bge	x5,x29,80006788	  x5:0x00000000 x29:0x77531fa4
       46975000	      4696	80006720	ee67c213	xori	x4,x15,-282	 x15:0x00000001  x4=0xfffffee7
       46985000	      4697	80006724	014a3fb3	sltu	x31,x20,x20	 x20:0x00000001 x20:0x00000001 x31=0x00000000
       46995000	      4698	80006728	4184d4b3	sra	x9,x9,x24	  x9:0x00000000 x24:0xfffffe1d  x9=0x00000000
       47005000	      4699	8000672c	4e65c417	auipc	x8,0x4e65c	  x8=0xce662728
       47015000	      4700	80006730	01ec9b33	sll	x22,x25,x30	 x25:0xfffffb04 x30:0x00000120 x22=0xfffffb04
       47025000	      4701	80006734	00cec233	xor	x4,x29,x12	 x29:0x77531fa4 x12:0x00000000  x4=0x77531fa4
       47035000	      4702	80006738	c4e52a13	slti	x20,x10,-946	 x10:0x00000120 x20=0x00000000
       47045000	      4703	8000673c	01e75793	srli	x15,x14,0x1e	 x14:0xfffffb04 x15=0x00000003
       47055000	      4704	80006740	008aed33	or	x26,x21,x8	 x21:0x00000001  x8:0xce662728 x26=0xce662729
       47065000	      4705	80006744	01ff4133	xor	x2,x30,x31	 x30:0x00000120 x31:0x00000000  x2=0x00000120
       47075000	      4706	80006748	00549a13	slli	x20,x9,0x5	  x9:0x00000000 x20=0x00000000
       47085000	      4707	8000674c	014f7433	and	x8,x30,x20	 x30:0x00000120 x20:0x00000000  x8=0x00000000
       47095000	      4708	80006750	be5147b7	lui	x15,0xbe514	 x15=0xbe514000
       47105000	      4709	80006754	06a8c463	blt	x17,x10,800067bc	 x17:0x00000000 x10:0x00000120
       47115000	      4710	00000000	00000013	addi	x0,x0,0	  x0:0x00000000
       47125000	      4711	800067b8	00000013	addi	x0,x0,0	  x0:0x00000000
       47135000	      4712	800067bc	41938b33	sub	x22,x7,x25	  x7:0x00000000 x25:0xfffffb04 x22=0x000004fc
       47145000	      4713	800067c0	00000013	addi	x0,x0,0	  x0:0x00000000
       47155000	      4714	800067c4	70f46793	ori	x15,x8,1807	  x8:0x00000000 x15=0x0000070f
       47165000	      4715	800067c8	017c33b3	sltu	x7,x24,x23	 x24:0xfffffe1d x23:0x1ce09fa4  x7=0x00000000
       47175000	      4716	800067cc	00105233	srl	x4,x0,x1	  x0:0x00000000  x1:0x00000000  x4=0x00000000
       47185000	      4717	800067d0	631feb13	ori	x22,x31,1585	 x31:0x00000000 x22=0x00000631
       47195000	      4718	800067d4	6dfd1037	lui	x0,0x6dfd1	
       47205000	      4719	800067d8	410a88b3	sub	x17,x21,x16	 x21:0x00000001 x16:0x80009fc4 x17=0x7fff603d
       47215000	      4720	800067dc	00c68663	beq	x13,x12,800067e8	 x13:0x00000001 x12:0x00000000
       47225000	      4721	800067e0	005ce933	or	x18,x25,x5	 x25:0xfffffb04  x5:0x00000000 x18=0xfffffb04
       47235000	      4722	800067e4	69a57513	andi	x10,x10,1690	 x10:0x00000120 x10=0x00000000
       47245000	      4723	800067e8	036c4a63	blt	x24,x22,8000681c	 x24:0xfffffe1d x22:0x00000631
       47255000	      4724	00000000	00000013	addi	x0,x0,0	  x0:0x00000000
       47265000	      4725	80006818	00000013	addi	x0,x0,0	  x0:0x00000000
       47275000	      4726	8000681c	00de9693	slli	x13,x29,0xd	 x29:0x77531fa4 x13=0x63f48000
       47285000	      4727	80006820	00000013	addi	x0,x0,0	  x0:0x00000000
       47295000	      4728	80006824	00bb8233	add	x4,x23,x11	 x23:0x1ce09fa4 x11:0x7fff6347  x4=0x9ce002eb
       47305000	      4729	80006828	d5cb62b7	lui	x5,0xd5cb6	  x5=0xd5cb6000
       47315000	      4730	8000682c	00efde63	bge	x31,x14,80006848	 x31:0x00000000 x14:0xfffffb04
       47325000	      4731	00000000	00000013	addi	x0,x0,0	  x0:0x00000000
       47335000	      4732	80006844	00000013	addi	x0,x0,0	  x0:0x00000000
       47345000	      4733	80006848	c9103493	sltiu	x9,x0,-879	  x0:0x00000000  x9=0x00000001
       47355000	      4734	8000684c	004b0a63	beq	x22,x4,80006860	 x22:0x00000631  x4:0x9ce002eb
       47365000	      4735	80006850	41c78f33	sub	x30,x15,x28	 x15:0x0000070f x28:0x00000100 x30=0x0000060f
       47375000	      4736	80006854	004fb333	sltu	x6,x31,x4	 x31:0x00000000  x4:0x9ce002eb  x6=0x00000001
       47385000	      4737	80006858	41fd5033	sra	x0,x26,x31	 x26:0xce662729 x31:0x00000000
       47395000	      4738	8000685c	03f08263	beq	x1,x31,80006880	  x1:0x00000000 x31:0x00000000
       47405000	      4739	00000000	00000013	addi	x0,x0,0	  x0:0x00000000
       47415000	      4740	8000687c	00000013	addi	x0,x0,0	  x0:0x00000000
       47425000	      4741	80006880	04014863	blt	x2,x0,800068d0	  x2:0x00000120  x0:0x00000000
       47435000	      4742	80006884	943b5497	auipc	x9,0x943b5	  x9=0x143bb880
       47445000	      4743	80006888	d1ca9e17	auipc	x28,0xd1ca9	 x28=0x51caf884
       47455000	      4744	8000688c	008dee63	bltu	x27,x8,800068a8	 x27:0x80009f24  x8:0x00000000
       47465000	      4745	80006890	03a28c63	beq	x5,x26,800068c8	  x5:0xd5cb6000 x26:0xce662729
       47475000	      4746	80006894	00000013	addi	x0,x0,0	  x0:0x00000000
       47485000	      4747	80006898	002e9193	slli	x3,x29,0x2	 x29:0x77531fa4  x3=0xdd4c7e90
       47495000	      4748	8000689c	fa646313	ori	x6,x8,-90	  x8:0x00000000  x6=0xffffffa6
       47505000	      4749	800068a0	02b11663	bne	x2,x11,800068cc	  x2:0x00000120 x11:0x7fff6347
       47515000	      4750	00000000	00000013	addi	x0,x0,0	  x0:0x00000000
       47525000	      4751	800068c8	00000013	addi	x0,x0,0	  x0:0x00000000
       47535000	      4752	800068cc	055cd263	bge	x25,x21,80006910	 x25:0xfffffb04 x21:0x00000001
       47545000	      4753	800068d0	40335e13	srai	x28,x6,0x3	  x6:0xffffffa6 x28=0xfffffff4
       47555000	      4754	800068d4	7c57ec93	ori	x25,x15,1989	 x15:0x0000070f x25=0x000007cf
       47565000	      4755	800068d8	26877e13	andi	x28,x14,616	 x14:0xfffffb04 x28=0x00000200
       47575000	      4756	800068dc	6af98113	addi	x2,x19,1711	 x19:0x00000001  x2=0x000006b0
       47585000	      4757	800068e0	00f305b3	add	x11,x6,x15	  x6:0xffffffa6 x15:0x0000070f x11=0x000006b5
       47595000	      4758	800068e4	00207a63	bgeu	x0,x2,800068f8	  x0:0x00000000  x2:0x000006b0
       47605000	      4759	800068e8	02b2e063	bltu	x5,x11,80006908	  x5:0xd5cb6000 x11:0x000006b5
       47615000	      4760	800068ec	025a8863	beq	x21,x5,8000691c	 x21:0x00000001  x5:0xd5cb6000
       47625000	      4761	800068f0	44987f13	andi	x30,x16,1097	 x16:0x80009fc4 x30=0x00000440
       47635000	      4762	800068f4	00941b93	slli	x23,x8,0x9	  x8:0x00000000 x23=0x00000000
       47645000	      4763	800068f8	00000013	addi	x0,x0,0	  x0:0x00000000
       47655000	      4764	800068fc	499ca493	slti	x9,x25,1177	 x25:0x000007cf  x9=0x00000000
       47665000	      4765	80006900	23600b93	addi	x23,x0,566	  x0:0x00000000 x23=0x00000236
       47675000	      4766	80006904	00e2a8b3	slt	x17,x5,x14	  x5:0xd5cb6000 x14:0xfffffb04 x17=0x00000001
       47685000	      4767	80006908	0ef77713	andi	x14,x14,239	 x14:0xfffffb04 x14=0x00000004
       47695000	      4768	8000690c	31e7e737	lui	x14,0x31e7e	 x14=0x31e7e000
       47705000	      4769	80006910	01afa5b3	slt	x11,x31,x26	 x31:0x00000000 x26:0xce662729 x11=0x00000000
       47715000	      4770	80006914	00ad5113	srli	x2,x26,0xa	 x26:0xce662729  x2=0x00339989
       47725000	      4771	80006918	007cbcb3	sltu	x25,x25,x7	 x25:0x000007cf  x7:0x00000000 x25=0x00000000
       47735000	      4772	8000691c	05167463	bgeu	x12,x17,80006964	 x12:0x00000000 x17:0x00000001
       47745000	      4773	80006920	00369f93	slli	x31,x13,0x3	 x13:0x63f48000 x31=0x1fa40000
       47755000	      4774	80006924	79df7a13	andi	x20,x30,1949	 x30:0x00000440 x20=0x00000400
       47765000	      4775	80006928	2cca4893	xori	x17,x20,716	 x20:0x00000400 x17=0x000006cc
       47775000	      4776	8000692c	01e01493	slli	x9,x0,0x1e	  x0:0x00000000  x9=0x00000000
       47785000	      4777	80006930	04559263	bne	x11,x5,80006974	 x11:0x00000000  x5:0xd5cb6000
       47795000	      4778	00000000	00000013	addi	x0,x0,0	  x0:0x00000000
       47805000	      4779	80006970	00000013	addi	x0,x0,0	  x0:0x00000000
       47815000	      4780	80006974	4d404d13	xori	x26,x0,1236	  x0:0x00000000 x26=0x000004d4
       47825000	      4781	80006978	00000013	addi	x0,x0,0	  x0:0x00000000
       47835000	      4782	8000697c	4583bb13	sltiu	x22,x7,1112	  x7:0x00000000 x22=0x00000001
       47845000	      4783	80006980	01ac7a63	bgeu	x24,x26,80006994	 x24:0xfffffe1d x26:0x000004d4
       47855000	      4784	00000000	00000013	addi	x0,x0,0	  x0:0x00000000
       47865000	      4785	80006990	00000013	addi	x0,x0,0	  x0:0x00000000
       47875000	      4786	80006994	00000013	addi	x0,x0,0	  x0:0x00000000
       47885000	      4787	80006998	4c40bb17	auipc	x22,0x4c40b	 x22=0xcc411994
       47895000	      4788	8000699c	62733693	sltiu	x13,x6,1575	  x6:0xffffffa6 x13=0x00000000
       47905000	      4789	800069a0	541def93	ori	x31,x27,1345	 x27:0x80009f24 x31=0x80009f65
       47915000	      4790	800069a4	03e79a63	bne	x15,x30,800069d8	 x15:0x0000070f x30:0x00000440
       47925000	      4791	00000000	00000013	addi	x0,x0,0	  x0:0x00000000
       47935000	      4792	800069d4	00000013	addi	x0,x0,0	  x0:0x00000000
       47945000	      4793	800069d8	0063f033	and	x0,x7,x6	  x7:0x00000000  x6:0xffffffa6
       47955000	      4794	800069dc	00000013	addi	x0,x0,0	  x0:0x00000000
       47965000	      4795	800069e0	ebf6aa13	slti	x20,x13,-321	 x13:0x00000000 x20=0x00000000
       47975000	      4796	800069e4	04fe8263	beq	x29,x15,80006a28	 x29:0x77531fa4 x15:0x0000070f
       47985000	      4797	800069e8	009d0eb3	add	x29,x26,x9	 x26:0x000004d4  x9:0x00000000 x29=0x000004d4
       47995000	      4798	800069ec	03a17c63	bgeu	x2,x26,80006a24	  x2:0x00339989 x26:0x000004d4
       48005000	      4799	00000000	00000013	addi	x0,x0,0	  x0:0x00000000
       48015000	      4800	80006a20	00000013	addi	x0,x0,0	  x0:0x00000000
       48025000	      4801	80006a24	0282c863	blt	x5,x8,80006a54	  x5:0xd5cb6000  x8:0x00000000
       48035000	      4802	00000000	00000013	addi	x0,x0,0	  x0:0x00000000
       48045000	      4803	80006a50	00000013	addi	x0,x0,0	  x0:0x00000000
       48055000	      4804	80006a54	01c90033	add	x0,x18,x28	 x18:0xfffffb04 x28:0x00000200
       48065000	      4805	80006a58	00139e93	slli	x29,x7,0x1	  x7:0x00000000 x29=0x00000000
       48075000	      4806	80006a5c	4021df93	srai	x31,x3,0x2	  x3:0xdd4c7e90 x31=0xf7531fa4
       48085000	      4807	80006a60	cc8f3c13	sltiu	x24,x30,-824	 x30:0x00000440 x24=0x00000001
       48095000	      4808	80006a64	404b5113	srai	x2,x22,0x4	 x22:0xcc411994  x2=0xfcc41199
       48105000	      4809	80006a68	011ee9b3	or	x19,x29,x17	 x29:0x00000000 x17:0x000006cc x19=0x000006cc
       48115000	      4810	80006a6c	016413b3	sll	x7,x8,x22	  x8:0x00000000 x22:0xcc411994  x7=0x00000000
       48125000	      4811	80006a70	00a9d113	srli	x2,x19,0xa	 x19:0x000006cc  x2=0x00000001
       48135000	      4812	80006a74	040bf063	bgeu	x23,x0,80006ab4	 x23:0x00000236  x0:0x00000000
       48145000	      4813	00000000	00000013	addi	x0,x0,0	  x0:0x00000000
       48155000	      4814	80006ab0	00000013	addi	x0,x0,0	  x0:0x00000000
       48165000	      4815	80006ab4	01ed7433	and	x8,x26,x30	 x26:0x000004d4 x30:0x00000440  x8=0x00000440
       48175000	      4816	80006ab8	11044f17	auipc	x30,0x11044	 x30=0x9104aab4
       48185000	      4817	80006abc	00bc7e33	and	x28,x24,x11	 x24:0x00000001 x11:0x00000000 x28=0x00000000
       48195000	      4818	80006ac0	012009b3	add	x19,x0,x18	  x0:0x00000000 x18:0xfffffb04 x19=0xfffffb04
       48205000	      4819	80006ac4	05751263	bne	x10,x23,80006b08	 x10:0x00000000 x23:0x00000236
       48215000	      4820	00000000	00000013	addi	x0,x0,0	  x0:0x00000000
       48225000	      4821	80006b04	00000013	addi	x0,x0,0	  x0:0x00000000
       48235000	      4822	80006b08	410ad713	srai	x14,x21,0x10	 x21:0x00000001 x14=0x00000000
       48245000	      4823	80006b0c	00000013	addi	x0,x0,0	  x0:0x00000000
       48255000	      4824	80006b10	004da903	lw	x18,4(x27)	 x27:0x80009f24 x18=0x80004ea8 PA:0x80009f28
       48265000	      4825	80006b14	40a20333	sub	x6,x4,x10	  x4:0x9ce002eb x10:0x00000000  x6=0x9ce002eb
       48275000	      4826	80006b18	01b55d13	srli	x26,x10,0x1b	 x10:0x00000000 x26=0x00000000
       48285000	      4827	80006b1c	00000013	addi	x0,x0,0	  x0:0x00000000
       48295000	      4828	80006b20	01386d33	or	x26,x16,x19	 x16:0x80009fc4 x19:0xfffffb04 x26=0xffffffc4
       48305000	      4829	80006b24	e8476413	ori	x8,x14,-380	 x14:0x00000000  x8=0xfffffe84
       48315000	      4830	80006b28	010d8d93	addi	x27,x27,16	 x27:0x80009f24 x27=0x80009f34
       48325000	      4831	80006b2c	01fda4b3	slt	x9,x27,x31	 x27:0x80009f34 x31:0xf7531fa4  x9=0x00000001
       48335000	      4832	80006b30	00190c93	addi	x25,x18,1	 x18:0x80004ea8 x25=0x80004ea9
       48345000	      4833	80006b34	000c8ce7	jalr	x25,x25,0	 x25:0x80004ea9 x25=0x80006b34
       48355000	      4834	00000000	00000013	addi	x0,x0,0	  x0:0x00000000
       48365000	      4835	80004ea8	00000013	addi	x0,x0,0	  x0:0x00000000
       48375000	      4836	80004eac	00000197	auipc	x3,0x0	  x3=0x80004ea8
       48385000	      4837	80004eb0	41418193	addi	x3,x3,1044	  x3:0x80004ea8  x3=0x800052bc
       48395000	      4838	80004eb4	40df5cb3	sra	x25,x30,x13	 x30:0x9104aab4 x13:0x00000000 x25=0x9104aab4
       48405000	      4839	80004eb8	e1918193	addi	x3,x3,-487	  x3:0x800052bc  x3=0x800050d5
       48415000	      4840	80004ebc	018a1e93	slli	x29,x20,0x18	 x20:0x00000000 x29=0x00000000
       48425000	      4841	80004ec0	018e8863	beq	x29,x24,80004ed0	 x29:0x00000000 x24:0x00000001
       48435000	      4842	80004ec4	013f4b33	xor	x22,x30,x19	 x30:0x9104aab4 x19:0xfffffb04 x22=0x6efb51b0
       48445000	      4843	80004ec8	01a9d5b3	srl	x11,x19,x26	 x19:0xfffffb04 x26:0xffffffc4 x11=0x0fffffb0
       48455000	      4844	80004ecc	40418e33	sub	x28,x3,x4	  x3:0x800050d5  x4:0x9ce002eb x28=0xe3204dea
       48465000	      4845	80004ed0	1e718967	jalr	x18,x3,487	  x3:0x800050d5 x18=0x80004ed0
       48475000	      4846	00000000	00000013	addi	x0,x0,0	  x0:0x00000000
       48485000	      4847	800052bc	00000013	addi	x0,x0,0	  x0:0x00000000
       48495000	      4848	800052c0	01d39263	bne	x7,x29,800052c4	  x7:0x00000000 x29:0x00000000
       48505000	      4849	800052c4	ff0d8d93	addi	x27,x27,-16	 x27:0x80009f34 x27=0x80009f24
       48515000	      4850	800052c8	9edffa93	andi	x21,x31,-1555	 x31:0xf7531fa4 x21=0xf75319a4
       48525000	      4851	800052cc	4d1994b7	lui	x9,0x4d199	  x9=0x4d199000
       48535000	      4852	800052d0	012da223	sw	x18,4(x27)	 x27:0x80009f24 x18:0x80004ed0 PA:0x80009f28
       48545000	      4853	800052d4	00000013	addi	x0,x0,0	  x0:0x00000000
       48555000	      4854	800052d8	00004117	auipc	x2,0x4	  x2=0x800092d4
       48565000	      4855	800052dc	8e010113	addi	x2,x2,-1824	  x2:0x800092d4  x2=0x80008bb4
       48575000	      4856	800052e0	36602f17	auipc	x30,0x36602	 x30=0xb66072dc
       48585000	      4857	800052e4	f0514983	lbu	x19,-251(x2)	  x2:0x80008bb4 x19=0x0000006e PA:0x80008ab9
       48595000	      4858	800052e8	f2210f23	sb	x2,-194(x2)	  x2:0x80008bb4  x2:0x80008bb4 PA:0x80008af2
       48605000	      4859	800052ec	016c95b3	sll	x11,x25,x22	 x25:0x9104aab4 x22:0x6efb51b0 x11=0xaab40000
       48615000	      4860	800052f0	01c134b3	sltu	x9,x2,x28	  x2:0x80008bb4 x28:0xe3204dea  x9=0x00000001
       48625000	      4861	800052f4	01af7b33	and	x22,x30,x26	 x30:0xb66072dc x26:0xffffffc4 x22=0xb66072c4
       48635000	      4862	800052f8	0037ccb3	xor	x25,x15,x3	 x15:0x0000070f  x3:0x800050d5 x25=0x800057da
       48645000	      4863	800052fc	0e0107a3	sb	x0,239(x2)	  x2:0x80008bb4  x0:0x00000000 PA:0x80008ca3
       48655000	      4864	80005300	00000013	addi	x0,x0,0	  x0:0x00000000
       48665000	      4865	80005304	f5114503	lbu	x10,-175(x2)	  x2:0x80008bb4 x10=0x0000003c PA:0x80008b05
       48675000	      4866	80005308	f43107a3	sb	x3,-177(x2)	  x2:0x80008bb4  x3:0x800050d5 PA:0x80008b03
       48685000	      4867	8000530c	fd110a83	lb	x21,-47(x2)	  x2:0x80008bb4 x21=0xffffff90 PA:0x80008b85
       48695000	      4868	80005310	00000013	addi	x0,x0,0	  x0:0x00000000
       48705000	      4869	80005314	017c0d33	add	x26,x24,x23	 x24:0x00000001 x23:0x00000236 x26=0x00000237
       48715000	      4870	80005318	6f610e17	auipc	x28,0x6f610	 x28=0xef615314
       48725000	      4871	8000531c	40ac5fb3	sra	x31,x24,x10	 x24:0x00000001 x10:0x0000003c x31=0x00000000
       48735000	      4872	80005320	acde2a97	auipc	x21,0xacde2	 x21=0x2cde731c
       48745000	      4873	80005324	69997c13	andi	x24,x18,1689	 x18:0x80004ed0 x24=0x00000690
       48755000	      4874	80005328	f2c12023	sw	x12,-224(x2)	  x2:0x80008bb4 x12:0x00000000 PA:0x80008ad4
       48765000	      4875	8000532c	fa914883	lbu	x17,-87(x2)	  x2:0x80008bb4 x17=0x000000b4 PA:0x80008b5d
       48775000	      4876	80005330	01f2ac33	slt	x24,x5,x31	  x5:0xd5cb6000 x31:0x00000000 x24=0x00000001
       48785000	      4877	80005334	012abe33	sltu	x28,x21,x18	 x21:0x2cde731c x18:0x80004ed0 x28=0x00000001
       48795000	      4878	80005338	05b14b83	lbu	x23,91(x2)	  x2:0x80008bb4 x23=0x000000b1 PA:0x80008c0f
       48805000	      4879	8000533c	f4914f83	lbu	x31,-183(x2)	  x2:0x80008bb4 x31=0x000000d2 PA:0x80008afd
       48815000	      4880	80005340	f8614183	lbu	x3,-122(x2)	  x2:0x80008bb4  x3=0x0000001c PA:0x80008b3a
       48825000	      4881	80005344	fe410123	sb	x4,-30(x2)	  x2:0x80008bb4  x4:0x9ce002eb PA:0x80008b96
       48835000	      4882	80005348	005f5013	srli	x0,x30,0x5	 x30:0xb66072dc
       48845000	      4883	8000534c	012d4a33	xor	x20,x26,x18	 x26:0x00000237 x18:0x80004ed0 x20=0x80004ce7
       48855000	      4884	80005350	0fb10ca3	sb	x27,249(x2)	  x2:0x80008bb4 x27:0x80009f24 PA:0x80008cad
       48865000	      4885	80005354	013ca1b3	slt	x3,x25,x19	 x25:0x800057da x19:0x0000006e  x3=0x00000001
       48875000	      4886	80005358	00915f33	srl	x30,x2,x9	  x2:0x80008bb4  x9:0x00000001 x30=0x400045da
       48885000	      4887	8000535c	00f10723	sb	x15,14(x2)	  x2:0x80008bb4 x15:0x0000070f PA:0x80008bc2
       48895000	      4888	80005360	0165eeb3	or	x29,x11,x22	 x11:0xaab40000 x22:0xb66072c4 x29=0xbef472c4
       48905000	      4889	80005364	01614433	xor	x8,x2,x22	  x2:0x80008bb4 x22:0xb66072c4  x8=0x3660f970
       48915000	      4890	80005368	2a732c13	slti	x24,x6,679	  x6:0x9ce002eb x24=0x00000001
       48925000	      4891	8000536c	0b310123	sb	x19,162(x2)	  x2:0x80008bb4 x19:0x0000006e PA:0x80008c56
       48935000	      4892	80005370	f4a10b83	lb	x23,-182(x2)	  x2:0x80008bb4 x23=0xffffffec PA:0x80008afe
       48945000	      4893	80005374	fc110323	sb	x1,-58(x2)	  x2:0x80008bb4  x1:0x00000000 PA:0x80008b7a
       48955000	      4894	80005378	f25fa493	slti	x9,x31,-219	 x31:0x000000d2  x9=0x00000000
       48965000	      4895	8000537c	108cd437	lui	x8,0x108cd	  x8=0x108cd000
       48975000	      4896	80005380	fc114403	lbu	x8,-63(x2)	  x2:0x80008bb4  x8=0x000000e4 PA:0x80008b75
       48985000	      4897	80005384	fee10303	lb	x6,-18(x2)	  x2:0x80008bb4  x6=0xffffff9d PA:0x80008ba2
       48995000	      4898	80005388	00004317	auipc	x6,0x4	  x6=0x80009384
       49005000	      4899	8000538c	87930313	addi	x6,x6,-1927	  x6:0x80009384  x6=0x80008bfd
       49015000	      4900	80005390	fc135f03	lhu	x30,-63(x6)	  x6:0x80008bfd x30=0x0000d91e PA:0x80008bbe
       49025000	      4901	80005394	c983c393	xori	x7,x7,-872	  x7:0x00000000  x7=0xfffffc98
       49035000	      4902	80005398	49bcfd13	andi	x26,x25,1179	 x25:0x800057da x26=0x0000049a
       49045000	      4903	8000539c	003314a3	sh	x3,9(x6)	  x6:0x80008bfd  x3:0x00000001 PA:0x80008c06
       49055000	      4904	800053a0	05030023	sb	x16,64(x6)	  x6:0x80008bfd x16:0x80009fc4 PA:0x80008c3d
       49065000	      4905	800053a4	871ea713	slti	x14,x29,-1935	 x29:0xbef472c4 x14=0x00000001
       49075000	      4906	800053a8	01d73633	sltu	x12,x14,x29	 x14:0x00000001 x29:0xbef472c4 x12=0x00000001
       49085000	      4907	800053ac	00a791b3	sll	x3,x15,x10	 x15:0x0000070f x10:0x0000003c  x3=0xf0000000
       49095000	      4908	800053b0	fe934883	lbu	x17,-23(x6)	  x6:0x80008bfd x17=0x00000057 PA:0x80008be6
       49105000	      4909	800053b4	03730a83	lb	x21,55(x6)	  x6:0x80008bfd x21=0x00000074 PA:0x80008c34
       49115000	      4910	800053b8	cc904d13	xori	x26,x0,-823	  x0:0x00000000 x26=0xfffffcc9
       49125000	      4911	800053bc	2ee8b893	sltiu	x17,x17,750	 x17:0x00000057 x17=0x00000001
       49135000	      4912	800053c0	01630983	lb	x19,22(x6)	  x6:0x80008bfd x19=0x00000000 PA:0x80008c13
       49145000	      4913	00000000	00000013	addi	x0,x0,0	  x0:0x00000000
       49155000	      4914	800053c4	013321a3	sw	x19,3(x6)	  x6:0x80008bfd x19:0x00000000 PA:0x80008c00
       49165000	      4915	800053c8	01034603	lbu	x12,16(x6)	  x6:0x80008bfd x12=0x000000ef PA:0x80008c0d
       49175000	      4916	800053cc	0000d593	srli	x11,x1,0x0	  x1:0x00000000 x11=0x00000000
       49185000	      4917	800053d0	13e66213	ori	x4,x12,318	 x12:0x000000ef  x4=0x000001ff
       49195000	      4918	800053d4	0127f9b3	and	x19,x15,x18	 x15:0x0000070f x18:0x80004ed0 x19=0x00000600
       49205000	      4919	800053d8	41e005b3	sub	x11,x0,x30	  x0:0x00000000 x30:0x0000d91e x11=0xffff26e2
       49215000	      4920	800053dc	034301a3	sb	x20,35(x6)	  x6:0x80008bfd x20:0x80004ce7 PA:0x80008c20
       49225000	      4921	800053e0	fce30203	lb	x4,-50(x6)	  x6:0x80008bfd  x4=0x0000002f PA:0x80008bcb
       49235000	      4922	800053e4	41a4de13	srai	x28,x9,0x1a	  x9:0x00000000 x28=0x00000000
       49245000	      4923	800053e8	fc135003	lhu	x0,-63(x6)	  x6:0x80008bfd PA:0x80008bbe
       49255000	      4924	800053ec	fd434783	lbu	x15,-44(x6)	  x6:0x80008bfd x15=0x000000f3 PA:0x80008bd1
       49265000	      4925	800053f0	00530203	lb	x4,5(x6)	  x6:0x80008bfd  x4=0x00000000 PA:0x80008c02
       49275000	      4926	800053f4	41d85533	sra	x10,x16,x29	 x16:0x80009fc4 x29:0xbef472c4 x10=0xf80009fc
       49285000	      4927	800053f8	f0460593	addi	x11,x12,-252	 x12:0x000000ef x11=0xfffffff3
       49295000	      4928	800053fc	01597ab3	and	x21,x18,x21	 x18:0x80004ed0 x21:0x00000074 x21=0x00000050
       49305000	      4929	80005400	02d30b03	lb	x22,45(x6)	  x6:0x80008bfd x22=0x00000046 PA:0x80008c2a
       49315000	      4930	80005404	eebece93	xori	x29,x29,-277	 x29:0xbef472c4 x29=0x410b8c2f
       49325000	      4931	80005408	6cf63f13	sltiu	x30,x12,1743	 x12:0x000000ef x30=0x00000001
       49335000	      4932	8000540c	f5f92013	slti	x0,x18,-161	 x18:0x80004ed0
       49345000	      4933	80005410	80a8fcb7	lui	x25,0x80a8f	 x25=0x80a8f000
       49355000	      4934	80005414	38065f97	auipc	x31,0x38065	 x31=0xb806a410
       49365000	      4935	80005418	013c5b33	srl	x22,x24,x19	 x24:0x00000001 x19:0x00000600 x22=0x00000001
       49375000	      4936	8000541c	fdb31ba3	sh	x27,-41(x6)	  x6:0x80008bfd x27:0x80009f24 PA:0x80008bd4
       49385000	      4937	80005420	3a7ec2b7	lui	x5,0x3a7ec	  x5=0x3a7ec000
       49395000	      4938	80005424	01830b83	lb	x23,24(x6)	  x6:0x80008bfd x23=0x00000002 PA:0x80008c15
       49405000	      4939	00000000	00000013	addi	x0,x0,0	  x0:0x00000000
       49415000	      4940	80005428	017c53b3	srl	x7,x24,x23	 x24:0x00000001 x23:0x00000002  x7=0x00000000
       49425000	      4941	8000542c	ff434f03	lbu	x30,-12(x6)	  x6:0x80008bfd x30=0x00000034 PA:0x80008bf1
       49435000	      4942	80005430	00003a17	auipc	x20,0x3	 x20=0x8000842c
       49445000	      4943	80005434	e66a0a13	addi	x20,x20,-410	 x20:0x8000842c x20=0x80008292
       49455000	      4944	80005438	00319d13	slli	x26,x3,0x3	  x3:0xf0000000 x26=0x80000000
       49465000	      4945	8000543c	ffda4183	lbu	x3,-3(x20)	 x20:0x80008292  x3=0x000000ac PA:0x8000828f
       49475000	      4946	00000000	00000013	addi	x0,x0,0	  x0:0x00000000
       49485000	      4947	80005440	2031af93	slti	x31,x3,515	  x3:0x000000ac x31=0x00000001
       49495000	      4948	80005444	00aa0123	sb	x10,2(x20)	 x20:0x80008292 x10:0xf80009fc PA:0x80008294
       49505000	      4949	80005448	d0610013	addi	x0,x2,-762	  x2:0x80008bb4
       49515000	      4950	8000544c	01fc5733	srl	x14,x24,x31	 x24:0x00000001 x31:0x00000001 x14=0x00000000
       49525000	      4951	80005450	40988ab3	sub	x21,x17,x9	 x17:0x00000001  x9:0x00000000 x21=0x00000001
       49535000	      4952	80005454	009a4603	lbu	x12,9(x20)	 x20:0x80008292 x12=0x00000080 PA:0x8000829b
       49545000	      4953	80005458	214ebd17	auipc	x26,0x214eb	 x26=0xa14f0454
       49555000	      4954	8000545c	01a8f3b3	and	x7,x17,x26	 x17:0x00000001 x26:0xa14f0454  x7=0x00000000
       49565000	      4955	80005460	9930b293	sltiu	x5,x1,-1645	  x1:0x00000000  x5=0x00000001
       49575000	      4956	80005464	004a2523	sw	x4,10(x20)	 x20:0x80008292  x4:0x00000000 PA:0x8000829c
       49585000	      4957	80005468	005a4d03	lbu	x26,5(x20)	 x20:0x80008292 x26=0x00000000 PA:0x80008297
       49595000	      4958	00000000	00000013	addi	x0,x0,0	  x0:0x00000000
       49605000	      4959	8000546c	017d6533	or	x10,x26,x23	 x26:0x00000000 x23:0x00000002 x10=0x00000002
       49615000	      4960	80005470	017a0823	sb	x23,16(x20)	 x20:0x80008292 x23:0x00000002 PA:0x800082a2
       49625000	      4961	80005474	002a9e93	slli	x29,x21,0x2	 x21:0x00000001 x29=0x00000004
       49635000	      4962	80005478	ff6a5f83	lhu	x31,-10(x20)	 x20:0x80008292 x31=0x0000d1c3 PA:0x80008288
       49645000	      4963	8000547c	ff3a0303	lb	x6,-13(x20)	 x20:0x80008292  x6=0xfffffff3 PA:0x80008285
       49655000	      4964	80005480	00aa1c03	lh	x24,10(x20)	 x20:0x80008292 x24=0x00000000 PA:0x8000829c
       49665000	      4965	80005484	fffa0ca3	sb	x31,-7(x20)	 x20:0x80008292 x31:0x0000d1c3 PA:0x8000828b
       49675000	      4966	80005488	018a1223	sh	x24,4(x20)	 x20:0x80008292 x24:0x00000000 PA:0x80008296
       49685000	      4967	8000548c	ff6a4e03	lbu	x28,-10(x20)	 x20:0x80008292 x28=0x000000c3 PA:0x80008288
       49695000	      4968	80005490	012a2323	sw	x18,6(x20)	 x20:0x80008292 x18:0x80004ed0 PA:0x80008298
       49705000	      4969	80005494	005a4183	lbu	x3,5(x20)	 x20:0x80008292  x3=0x00000000 PA:0x80008297
       49715000	      4970	80005498	00de0c33	add	x24,x28,x13	 x28:0x000000c3 x13:0x00000000 x24=0x000000c3
       49725000	      4971	8000549c	412b5893	srai	x17,x22,0x12	 x22:0x00000001 x17=0x00000000
       49735000	      4972	800054a0	ffca5c83	lhu	x25,-4(x20)	 x20:0x80008292 x25=0x0000ace5 PA:0x8000828e
       49745000	      4973	00000000	00000013	addi	x0,x0,0	  x0:0x00000000
       49755000	      4974	800054a4	ff9a0ca3	sb	x25,-7(x20)	 x20:0x80008292 x25:0x0000ace5 PA:0x8000828b
       49765000	      4975	800054a8	feca1f23	sh	x12,-2(x20)	 x20:0x80008292 x12:0x00000080 PA:0x80008290
       49775000	      4976	800054ac	ffba0fa3	sb	x27,-1(x20)	 x20:0x80008292 x27:0x80009f24 PA:0x80008291
       49785000	      4977	800054b0	00003697	auipc	x13,0x3	 x13=0x800084ac
       49795000	      4978	800054b4	c5268693	addi	x13,x13,-942	 x13:0x800084ac x13=0x800080fe
       49805000	      4979	800054b8	0f06c403	lbu	x8,240(x13)	 x13:0x800080fe  x8=0x00000039 PA:0x800081ee
       49815000	      4980	800054bc	034686a3	sb	x20,45(x13)	 x13:0x800080fe x20:0x80008292 PA:0x8000812b
       49825000	      4981	800054c0	48d60493	addi	x9,x12,1165	 x12:0x00000080  x9=0x0000050d
       49835000	      4982	800054c4	012682b3	add	x5,x13,x18	 x13:0x800080fe x18:0x80004ed0  x5=0x0000cfce
       49845000	      4983	800054c8	01e75393	srli	x7,x14,0x1e	 x14:0x00000000  x7=0x00000000
       49855000	      4984	800054cc	40a4d5b3	sra	x11,x9,x10	  x9:0x0000050d x10:0x00000002 x11=0x00000143
       49865000	      4985	800054d0	857de793	ori	x15,x27,-1961	 x27:0x80009f24 x15=0xffffff77
       49875000	      4986	800054d4	00000013	addi	x0,x0,0	  x0:0x00000000
       49885000	      4987	800054d8	0144f033	and	x0,x9,x20	  x9:0x0000050d x20:0x80008292
       49895000	      4988	800054dc	400988b3	sub	x17,x19,x0	 x19:0x00000600  x0:0x00000000 x17=0x00000600
       49905000	      4989	800054e0	00000013	addi	x0,x0,0	  x0:0x00000000
       49915000	      4990	800054e4	01f19a13	slli	x20,x3,0x1f	  x3:0x00000000 x20=0x00000000
       49925000	      4991	800054e8	2dac2913	slti	x18,x24,730	 x24:0x000000c3 x18=0x00000001
       49935000	      4992	800054ec	0e968e03	lb	x28,233(x13)	 x13:0x800080fe x28=0x00000002 PA:0x800081e7
       49945000	      4993	800054f0	000ea033	slt	x0,x29,x0	 x29:0x00000004  x0:0x00000000
       49955000	      4994	800054f4	00a56a33	or	x20,x10,x10	 x10:0x00000002 x10:0x00000002 x20=0x00000002
       49965000	      4995	800054f8	40dcd2b3	sra	x5,x25,x13	 x25:0x0000ace5 x13:0x800080fe  x5=0x00000000
       49975000	      4996	800054fc	844d3137	lui	x2,0x844d3	  x2=0x844d3000
       49985000	      4997	80005500	ff8687a3	sb	x24,-17(x13)	 x13:0x800080fe x24:0x000000c3 PA:0x800080ed
       49995000	      4998	80005504	0ef68323	sb	x15,230(x13)	 x13:0x800080fe x15:0xffffff77 PA:0x800081e4
       50005000	      4999	80005508	f9b6cf83	lbu	x31,-101(x13)	 x13:0x800080fe x31=0x000000bf PA:0x80008099
       50015000	      5000	8000550c	a8fb2e93	slti	x29,x22,-1393	 x22:0x00000001 x29=0x00000000
       50025000	      5001	80005510	05c6c903	lbu	x18,92(x13)	 x13:0x800080fe x18=0x00000060 PA:0x8000815a
       50035000	      5002	80005514	006add33	srl	x26,x21,x6	 x21:0x00000001  x6:0xfffffff3 x26=0x00000000
       50045000	      5003	80005518	2082c013	xori	x0,x5,520	  x5:0x00000000
       50055000	      5004	8000551c	8bd07c17	auipc	x24,0x8bd07	 x24=0x0bd0c518
       50065000	      5005	80005520	0526c783	lbu	x15,82(x13)	 x13:0x800080fe x15=0x0000000c PA:0x80008150
       50075000	      5006	80005524	fb6688a3	sb	x22,-79(x13)	 x13:0x800080fe x22:0x00000001 PA:0x800080af
       50085000	      5007	80005528	f4f6af23	sw	x15,-162(x13)	 x13:0x800080fe x15:0x0000000c PA:0x8000805c
       50095000	      5008	8000552c	f64e0913	addi	x18,x28,-156	 x28:0x00000002 x18=0xffffff66
       50105000	      5009	80005530	01e16fb3	or	x31,x2,x30	  x2:0x844d3000 x30:0x00000034 x31=0x844d3034
       50115000	      5010	80005534	14bea393	slti	x7,x29,331	 x29:0x00000000  x7=0x00000001
       50125000	      5011	80005538	014b5733	srl	x14,x22,x20	 x22:0x00000001 x20:0x00000002 x14=0x00000000
       50135000	      5012	8000553c	0fe6db03	lhu	x22,254(x13)	 x13:0x800080fe x22=0x0000c12f PA:0x800081fc
       50145000	      5013	80005540	0656c003	lbu	x0,101(x13)	 x13:0x800080fe PA:0x80008163
       50155000	      5014	80005544	1d88b213	sltiu	x4,x17,472	 x17:0x00000600  x4=0x00000000
       50165000	      5015	80005548	11b40413	addi	x8,x8,283	  x8:0x00000039  x8=0x00000154
       50175000	      5016	8000554c	01ac8c33	add	x24,x25,x26	 x25:0x0000ace5 x26:0x00000000 x24=0x0000ace5
       50185000	      5017	80005550	41525cb3	sra	x25,x4,x21	  x4:0x00000000 x21:0x00000001 x25=0x00000000
       50195000	      5018	80005554	013ad8b3	srl	x17,x21,x19	 x21:0x00000001 x19:0x00000600 x17=0x00000001
       50205000	      5019	80005558	07e6c503	lbu	x10,126(x13)	 x13:0x800080fe x10=0x00000013 PA:0x8000817c
       50215000	      5020	8000555c	01e2b9b3	sltu	x19,x5,x30	  x5:0x00000000 x30:0x00000034 x19=0x00000001
       50225000	      5021	80005560	f4a6ce03	lbu	x28,-182(x13)	 x13:0x800080fe x28=0x000000e0 PA:0x80008048
       50235000	      5022	80005564	00004797	auipc	x15,0x4	 x15=0x80009560
       50245000	      5023	80005568	a2278793	addi	x15,x15,-1502	 x15:0x80009560 x15=0x80008f82
       50255000	      5024	8000556c	f8479723	sh	x4,-114(x15)	 x15:0x80008f82  x4:0x00000000 PA:0x80008f10
       50265000	      5025	80005570	00881513	slli	x10,x16,0x8	 x16:0x80009fc4 x10=0x009fc400
       50275000	      5026	80005574	00ea1933	sll	x18,x20,x14	 x20:0x00000002 x14:0x00000000 x18=0x00000002
       50285000	      5027	80005578	001f9f33	sll	x30,x31,x1	 x31:0x844d3034  x1:0x00000000 x30=0x844d3034
       50295000	      5028	8000557c	f7978a83	lb	x21,-135(x15)	 x15:0x80008f82 x21=0xffffff8f PA:0x80008efb
       50305000	      5029	80005580	fe97c303	lbu	x6,-23(x15)	 x15:0x80008f82  x6=0x00000057 PA:0x80008f6b
       50315000	      5030	80005584	f6379223	sh	x3,-156(x15)	 x15:0x80008f82  x3:0x00000000 PA:0x80008ee6
       50325000	      5031	80005588	f6278f83	lb	x31,-158(x15)	 x15:0x80008f82 x31=0x0000006b PA:0x80008ee4
       50335000	      5032	8000558c	f27784a3	sb	x7,-215(x15)	 x15:0x80008f82  x7:0x00000001 PA:0x80008eab
       50345000	      5033	80005590	01731c13	slli	x24,x6,0x17	  x6:0x00000057 x24=0x2b800000
       50355000	      5034	80005594	f0378f83	lb	x31,-253(x15)	 x15:0x80008f82 x31=0x0000005a PA:0x80008e85
       50365000	      5035	80005598	00079283	lh	x5,0(x15)	 x15:0x80008f82  x5=0x0000175a PA:0x80008f82
       50375000	      5036	8000559c	0115a1b3	slt	x3,x11,x17	 x11:0x00000143 x17:0x00000001  x3=0x00000000
       50385000	      5037	800055a0	f4e781a3	sb	x14,-189(x15)	 x15:0x80008f82 x14:0x00000000 PA:0x80008ec5
       50395000	      5038	800055a4	00925533	srl	x10,x4,x9	  x4:0x00000000  x9:0x0000050d x10=0x00000000
       50405000	      5039	800055a8	01a05233	srl	x4,x0,x26	  x0:0x00000000 x26:0x00000000  x4=0x00000000
       50415000	      5040	800055ac	f6678883	lb	x17,-154(x15)	 x15:0x80008f82 x17=0xffffffc9 PA:0x80008ee8
       50425000	      5041	800055b0	f297cd03	lbu	x26,-215(x15)	 x15:0x80008f82 x26=0x00000001 PA:0x80008eab
       50435000	      5042	800055b4	f5878b03	lb	x22,-168(x15)	 x15:0x80008f82 x22=0x00000040 PA:0x80008eda
       50445000	      5043	800055b8	f747d603	lhu	x12,-140(x15)	 x15:0x80008f82 x12=0x000090b0 PA:0x80008ef6
       50455000	      5044	800055bc	6c9ca637	lui	x12,0x6c9ca	 x12=0x6c9ca000
       50465000	      5045	800055c0	00ada2b3	slt	x5,x27,x10	 x27:0x80009f24 x10:0x00000000  x5=0x00000001
       50475000	      5046	800055c4	f8e780a3	sb	x14,-127(x15)	 x15:0x80008f82 x14:0x00000000 PA:0x80008f03
       50485000	      5047	800055c8	017fed33	or	x26,x31,x23	 x31:0x0000005a x23:0x00000002 x26=0x0000005a
       50495000	      5048	800055cc	f0e7d203	lhu	x4,-242(x15)	 x15:0x80008f82  x4=0x0000aa33 PA:0x80008e90
       50505000	      5049	800055d0	01c90733	add	x14,x18,x28	 x18:0x00000002 x28:0x000000e0 x14=0x000000e2
       50515000	      5050	800055d4	03f78523	sb	x31,42(x15)	 x15:0x80008f82 x31:0x0000005a PA:0x80008fac
       50525000	      5051	800055d8	00000013	addi	x0,x0,0	  x0:0x00000000
       50535000	      5052	800055dc	49264b93	xori	x23,x12,1170	 x12:0x6c9ca000 x23=0x6c9ca492
       50545000	      5053	800055e0	f4d7c283	lbu	x5,-179(x15)	 x15:0x80008f82  x5=0x00000067 PA:0x80008ecf
       50555000	      5054	800055e4	018cf9b3	and	x19,x25,x24	 x25:0x00000000 x24:0x2b800000 x19=0x00000000
       50565000	      5055	800055e8	03279823	sh	x18,48(x15)	 x15:0x80008f82 x18:0x00000002 PA:0x80008fb2
       50575000	      5056	800055ec	fd878a03	lb	x20,-40(x15)	 x15:0x80008f82 x20=0xffffff90 PA:0x80008f5a
       50585000	      5057	800055f0	b860ca37	lui	x20,0xb860c	 x20=0xb860c000
       50595000	      5058	800055f4	f0c7a523	sw	x12,-246(x15)	 x15:0x80008f82 x12:0x6c9ca000 PA:0x80008e8c
       50605000	      5059	800055f8	fd013113	sltiu	x2,x2,-48	  x2:0x844d3000  x2=0x00000001
       50615000	      5060	800055fc	fb87c583	lbu	x11,-72(x15)	 x15:0x80008f82 x11=0x00000043 PA:0x80008f3a
       50625000	      5061	80005600	03d79e23	sh	x29,60(x15)	 x15:0x80008f82 x29:0x00000000 PA:0x80008fbe
       50635000	      5062	80005604	fa97c883	lbu	x17,-87(x15)	 x15:0x80008f82 x17=0x000000ec PA:0x80008f2b
       50645000	      5063	80005608	f0679183	lh	x3,-250(x15)	 x15:0x80008f82  x3=0x00001331 PA:0x80008e88
       50655000	      5064	8000560c	4066d133	sra	x2,x13,x6	 x13:0x800080fe  x6:0x00000057  x2=0xffffff00
       50665000	      5065	80005610	00278b23	sb	x2,22(x15)	 x15:0x80008f82  x2:0xffffff00 PA:0x80008f98
       50675000	      5066	80005614	00000013	addi	x0,x0,0	  x0:0x00000000
       50685000	      5067	80005618	f4678ea3	sb	x6,-163(x15)	 x15:0x80008f82  x6:0x00000057 PA:0x80008edf
       50695000	      5068	8000561c	f2778d23	sb	x7,-198(x15)	 x15:0x80008f82  x7:0x00000001 PA:0x80008ebc
       50705000	      5069	80005620	00771cb3	sll	x25,x14,x7	 x14:0x000000e2  x7:0x00000001 x25=0x000001c4
       50715000	      5070	80005624	00678aa3	sb	x6,21(x15)	 x15:0x80008f82  x6:0x00000057 PA:0x80008f97
       50725000	      5071	80005628	f3478ba3	sb	x20,-201(x15)	 x15:0x80008f82 x20:0xb860c000 PA:0x80008eb9
       50735000	      5072	8000562c	f817c403	lbu	x8,-127(x15)	 x15:0x80008f82  x8=0x00000000 PA:0x80008f03
       50745000	      5073	80005630	00003117	auipc	x2,0x3	  x2=0x8000862c
       50755000	      5074	80005634	5f410113	addi	x2,x2,1524	  x2:0x8000862c  x2=0x80008c20
       50765000	      5075	80005638	fe215b03	lhu	x22,-30(x2)	  x2:0x80008c20 x22=0x00000000 PA:0x80008c02
       50775000	      5076	8000563c	fdb10da3	sb	x27,-37(x2)	  x2:0x80008c20 x27:0x80009f24 PA:0x80008bfb
       50785000	      5077	80005640	c281af13	slti	x30,x3,-984	  x3:0x00001331 x30=0x00000000
       50795000	      5078	80005644	6157a493	slti	x9,x15,1557	 x15:0x80008f82  x9=0x00000001
       50805000	      5079	80005648	ea4bcf93	xori	x31,x23,-348	 x23:0x6c9ca492 x31=0x93635a36
       50815000	      5080	8000564c	01f108a3	sb	x31,17(x2)	  x2:0x80008c20 x31:0x93635a36 PA:0x80008c31
       50825000	      5081	80005650	02b10523	sb	x11,42(x2)	  x2:0x80008c20 x11:0x00000043 PA:0x80008c4a
       50835000	      5082	80005654	00000013	addi	x0,x0,0	  x0:0x00000000
       50845000	      5083	80005658	01175693	srli	x13,x14,0x11	 x14:0x000000e2 x13=0x00000000
       50855000	      5084	8000565c	01002ab3	slt	x21,x0,x16	  x0:0x00000000 x16:0x80009fc4 x21=0x00000000
       50865000	      5085	80005660	03010aa3	sb	x16,53(x2)	  x2:0x80008c20 x16:0x80009fc4 PA:0x80008c55
       50875000	      5086	80005664	001a63b3	or	x7,x20,x1	 x20:0xb860c000  x1:0x00000000  x7=0xb860c000
       50885000	      5087	80005668	00a8d693	srli	x13,x17,0xa	 x17:0x000000ec x13=0x00000000
       50895000	      5088	8000566c	0117e033	or	x0,x15,x17	 x15:0x80008f82 x17:0x000000ec
       50905000	      5089	80005670	8b330f17	auipc	x30,0x8b330	 x30=0x0b33566c
       50915000	      5090	80005674	fea11683	lh	x13,-22(x2)	  x2:0x80008c20 x13=0xffffdf01 PA:0x80008c0a
       50925000	      5091	80005678	fe311823	sh	x3,-16(x2)	  x2:0x80008c20  x3:0x00001331 PA:0x80008c10
       50935000	      5092	8000567c	ff6109a3	sb	x22,-13(x2)	  x2:0x80008c20 x22:0x00000000 PA:0x80008c13
       50945000	      5093	80005680	fc710f83	lb	x31,-57(x2)	  x2:0x80008c20 x31=0xffffffc4 PA:0x80008be7
       50955000	      5094	00000000	00000013	addi	x0,x0,0	  x0:0x00000000
       50965000	      5095	80005684	01f32eb3	slt	x29,x6,x31	  x6:0x00000057 x31:0xffffffc4 x29=0x00000000
       50975000	      5096	80005688	fee10e23	sb	x14,-4(x2)	  x2:0x80008c20 x14:0x000000e2 PA:0x80008c1c
       50985000	      5097	8000568c	51c23217	auipc	x4,0x51c23	  x4=0xd1c28688
       50995000	      5098	80005690	1843e237	lui	x4,0x1843e	  x4=0x1843e000
       51005000	      5099	80005694	03114683	lbu	x13,49(x2)	  x2:0x80008c20 x13=0x0000005e PA:0x80008c51
       51015000	      5100	80005698	01da4fb3	xor	x31,x20,x29	 x20:0xb860c000 x29:0x00000000 x31=0xb860c000
       51025000	      5101	8000569c	ef7815b7	lui	x11,0xef781	 x11=0xef781000
       51035000	      5102	800056a0	fc810d23	sb	x8,-38(x2)	  x2:0x80008c20  x8:0x00000000 PA:0x80008bfa
       51045000	      5103	800056a4	0154c933	xor	x18,x9,x21	  x9:0x00000001 x21:0x00000000 x18=0x00000001
       51055000	      5104	800056a8	fc2101a3	sb	x2,-61(x2)	  x2:0x80008c20  x2:0x80008c20 PA:0x80008be3
       51065000	      5105	800056ac	01cfd7b3	srl	x15,x31,x28	 x31:0xb860c000 x28:0x000000e0 x15=0xb860c000
       51075000	      5106	800056b0	41da5bb3	sra	x23,x20,x29	 x20:0xb860c000 x29:0x00000000 x23=0xb860c000
       51085000	      5107	800056b4	cbe5f893	andi	x17,x11,-834	 x11:0xef781000 x17=0xef781000
       51095000	      5108	800056b8	6fbf2513	slti	x10,x30,1787	 x30:0x0b33566c x10=0x00000000
       51105000	      5109	800056bc	004bb433	sltu	x8,x23,x4	 x23:0xb860c000  x4:0x1843e000  x8=0x00000000
       51115000	      5110	800056c0	35d96917	auipc	x18,0x35d96	 x18=0xb5d9b6bc
       51125000	      5111	800056c4	01da0533	add	x10,x20,x29	 x20:0xb860c000 x29:0x00000000 x10=0xb860c000
       51135000	      5112	800056c8	c5cbfa93	andi	x21,x23,-932	 x23:0xb860c000 x21=0xb860c000
       51145000	      5113	800056cc	007d5333	srl	x6,x26,x7	 x26:0x0000005a  x7:0xb860c000  x6=0x0000005a
       51155000	      5114	800056d0	00bb5993	srli	x19,x22,0xb	 x22:0x00000000 x19=0x00000000
       51165000	      5115	800056d4	00510da3	sb	x5,27(x2)	  x2:0x80008c20  x5:0x00000067 PA:0x80008c3b
       51175000	      5116	800056d8	00e10ba3	sb	x14,23(x2)	  x2:0x80008c20 x14:0x000000e2 PA:0x80008c37
       51185000	      5117	800056dc	00003b17	auipc	x22,0x3	 x22=0x800086d8
       51195000	      5118	800056e0	e26b0b13	addi	x22,x22,-474	 x22:0x800086d8 x22=0x800084fe
       51205000	      5119	800056e4	00764733	xor	x14,x12,x7	 x12:0x6c9ca000  x7:0xb860c000 x14=0xd4fc6000
       51215000	      5120	800056e8	ff0b0683	lb	x13,-16(x22)	 x22:0x800084fe x13=0xffffff83 PA:0x800084ee
       51225000	      5121	800056ec	00fce3b3	or	x7,x25,x15	 x25:0x000001c4 x15:0xb860c000  x7=0xb860c1c4
       51235000	      5122	800056f0	ff8b0ba3	sb	x24,-9(x22)	 x22:0x800084fe x24:0x2b800000 PA:0x800084f5
       51245000	      5123	800056f4	009b4603	lbu	x12,9(x22)	 x22:0x800084fe x12=0x000000a0 PA:0x80008507
       51255000	      5124	800056f8	00000013	addi	x0,x0,0	  x0:0x00000000
       51265000	      5125	800056fc	b016e037	lui	x0,0xb016e	
       51275000	      5126	80005700	002bd313	srli	x6,x23,0x2	 x23:0xb860c000  x6=0x2e183000
       51285000	      5127	80005704	00a43e33	sltu	x28,x8,x10	  x8:0x00000000 x10:0xb860c000 x28=0x00000001
       51295000	      5128	80005708	0100e533	or	x10,x1,x16	  x1:0x00000000 x16:0x80009fc4 x10=0x80009fc4
       51305000	      5129	8000570c	004b4883	lbu	x17,4(x22)	 x22:0x800084fe x17=0x00000005 PA:0x80008502
       51315000	      5130	80005710	ff4b4c83	lbu	x25,-12(x22)	 x22:0x800084fe x25=0x000000a0 PA:0x800084f2
       51325000	      5131	00000000	00000013	addi	x0,x0,0	  x0:0x00000000
       51335000	      5132	80005714	41dcdc93	srai	x25,x25,0x1d	 x25:0x000000a0 x25=0x00000000
       51345000	      5133	80005718	405857b3	sra	x15,x16,x5	 x16:0x80009fc4  x5:0x00000067 x15=0xff00013f
       51355000	      5134	8000571c	2ee5ea93	ori	x21,x11,750	 x11:0xef781000 x21=0xef7812ee
       51365000	      5135	80005720	004b0303	lb	x6,4(x22)	 x22:0x800084fe  x6=0x00000005 PA:0x80008502
       51375000	      5136	80005724	8f054393	xori	x7,x10,-1808	 x10:0x80009fc4  x7=0x7fff6734
       51385000	      5137	80005728	00ad04b3	add	x9,x26,x10	 x26:0x0000005a x10:0x80009fc4  x9=0x8000a01e
       51395000	      5138	8000572c	015612b3	sll	x5,x12,x21	 x12:0x000000a0 x21:0xef7812ee  x5=0x00280000
       51405000	      5139	80005730	6047e593	ori	x11,x15,1540	 x15:0xff00013f x11=0xff00073f
       51415000	      5140	80005734	41435f33	sra	x30,x6,x20	  x6:0x00000005 x20:0xb860c000 x30=0x00000005
       51425000	      5141	80005738	003c02b3	add	x5,x24,x3	 x24:0x2b800000  x3:0x00001331  x5=0x2b801331
       51435000	      5142	8000573c	37b10f93	addi	x31,x2,891	  x2:0x80008c20 x31=0x80008f9b
       51445000	      5143	80005740	01a99733	sll	x14,x19,x26	 x19:0x00000000 x26:0x0000005a x14=0x00000000
       51455000	      5144	80005744	009b4003	lbu	x0,9(x22)	 x22:0x800084fe PA:0x80008507
       51465000	      5145	80005748	002b0623	sb	x2,12(x22)	 x22:0x800084fe  x2:0x80008c20 PA:0x8000850a
       51475000	      5146	8000574c	ff9b4603	lbu	x12,-7(x22)	 x22:0x800084fe x12=0x00000000 PA:0x800084f7
       51485000	      5147	80005750	0123d893	srli	x17,x7,0x12	  x7:0x7fff6734 x17=0x00001fff
       51495000	      5148	80005754	ff8b1c23	sh	x24,-8(x22)	 x22:0x800084fe x24:0x2b800000 PA:0x800084f6
       51505000	      5149	80005758	8071ab93	slti	x23,x3,-2041	  x3:0x00001331 x23=0x00000000
       51515000	      5150	8000575c	015b07a3	sb	x21,15(x22)	 x22:0x800084fe x21:0xef7812ee PA:0x8000850d
       51525000	      5151	80005760	3cdf3c93	sltiu	x25,x30,973	 x30:0x00000005 x25=0x00000001
       51535000	      5152	80005764	ffeb2103	lw	x2,-2(x22)	 x22:0x800084fe  x2=0x1481ce85 PA:0x800084fc
       51545000	      5153	80005768	00fb01a3	sb	x15,3(x22)	 x22:0x800084fe x15:0xff00013f PA:0x80008501
       51555000	      5154	8000576c	00e75fb3	srl	x31,x14,x14	 x14:0x00000000 x14:0x00000000 x31=0x00000000
       51565000	      5155	80005770	0050f433	and	x8,x1,x5	  x1:0x00000000  x5:0x2b801331  x8=0x00000000
       51575000	      5156	80005774	b4568293	addi	x5,x13,-1211	 x13:0xffffff83  x5=0xfffffac8
       51585000	      5157	80005778	00000013	addi	x0,x0,0	  x0:0x00000000
       51595000	      5158	8000577c	fe4b0ea3	sb	x4,-3(x22)	 x22:0x800084fe  x4:0x1843e000 PA:0x800084fb
       51605000	      5159	80005780	91892a13	slti	x20,x18,-1768	 x18:0xb5d9b6bc x20=0x00000001
       51615000	      5160	80005784	6db9b993	sltiu	x19,x19,1755	 x19:0x00000000 x19=0x00000001
       51625000	      5161	80005788	00cb5c03	lhu	x24,12(x22)	 x22:0x800084fe x24=0x00007b20 PA:0x8000850a
       51635000	      5162	8000578c	12f6c913	xori	x18,x13,303	 x13:0xffffff83 x18=0xfffffeac
       51645000	      5163	80005790	002e5933	srl	x18,x28,x2	 x28:0x00000001  x2:0x1481ce85 x18=0x00000000
       51655000	      5164	80005794	004bcbb3	xor	x23,x23,x4	 x23:0x00000000  x4:0x1843e000 x23=0x1843e000
       51665000	      5165	80005798	407185b3	sub	x11,x3,x7	  x3:0x00001331  x7:0x7fff6734 x11=0x8000abfd
       51675000	      5166	8000579c	0efe7793	andi	x15,x28,239	 x28:0x00000001 x15=0x00000001
       51685000	      5167	800057a0	41f1deb3	sra	x29,x3,x31	  x3:0x00001331 x31:0x00000000 x29=0x00001331
       51695000	      5168	800057a4	010e6f33	or	x30,x28,x16	 x28:0x00000001 x16:0x80009fc4 x30=0x80009fc5
       51705000	      5169	800057a8	0096ceb3	xor	x29,x13,x9	 x13:0xffffff83  x9:0x8000a01e x29=0x7fff5f9d
       51715000	      5170	800057ac	6dbdf313	andi	x6,x27,1755	 x27:0x80009f24  x6=0x00000600
       51725000	      5171	800057b0	01878a33	add	x20,x15,x24	 x15:0x00000001 x24:0x00007b20 x20=0x00007b21
       51735000	      5172	800057b4	41125e93	srai	x29,x4,0x11	  x4:0x1843e000 x29=0x00000c21
       51745000	      5173	800057b8	fa3f4913	xori	x18,x30,-93	 x30:0x80009fc5 x18=0x7fff6066
       51755000	      5174	800057bc	01d5fa63	bgeu	x11,x29,800057d0	 x11:0x8000abfd x29:0x00000c21
       51765000	      5175	00000000	00000013	addi	x0,x0,0	  x0:0x00000000
       51775000	      5176	800057cc	00000013	addi	x0,x0,0	  x0:0x00000000
       51785000	      5177	800057d0	41e20bb3	sub	x23,x4,x30	  x4:0x1843e000 x30:0x80009fc5 x23=0x9843403b
       51795000	      5178	800057d4	0ce01917	auipc	x18,0xce01	 x18=0x8ce067d0
       51805000	      5179	800057d8	04525063	bge	x4,x5,80005818	  x4:0x1843e000  x5:0xfffffac8
       51815000	      5180	00000000	00000013	addi	x0,x0,0	  x0:0x00000000
       51825000	      5181	80005814	00000013	addi	x0,x0,0	  x0:0x00000000
       51835000	      5182	80005818	01cc7eb3	and	x29,x24,x28	 x24:0x00007b20 x28:0x00000001 x29=0x00000000
       51845000	      5183	8000581c	002cda33	srl	x20,x25,x2	 x25:0x00000001  x2:0x1481ce85 x20=0x00000000
       51855000	      5184	80005820	01928eb3	add	x29,x5,x25	  x5:0xfffffac8 x25:0x00000001 x29=0xfffffac9
       51865000	      5185	80005824	202bf793	andi	x15,x23,514	 x23:0x9843403b x15=0x00000002
       51875000	      5186	80005828	002943b3	xor	x7,x18,x2	 x18:0x8ce067d0  x2:0x1481ce85  x7=0x9861a955
       51885000	      5187	8000582c	00f39cb3	sll	x25,x7,x15	  x7:0x9861a955 x15:0x00000002 x25=0x6186a554
       51895000	      5188	80005830	006be533	or	x10,x23,x6	 x23:0x9843403b  x6:0x00000600 x10=0x9843463b
       51905000	      5189	80005834	41f7d393	srai	x7,x15,0x1f	 x15:0x00000002  x7=0x00000000
       51915000	      5190	80005838	00193433	sltu	x8,x18,x1	 x18:0x8ce067d0  x1:0x00000000  x8=0x00000000
       51925000	      5191	8000583c	01b25663	bge	x4,x27,80005848	  x4:0x1843e000 x27:0x80009f24
       51935000	      5192	00000000	00000013	addi	x0,x0,0	  x0:0x00000000
       51945000	      5193	80005844	00000013	addi	x0,x0,0	  x0:0x00000000
       51955000	      5194	80005848	aab7b997	auipc	x19,0xaab7b	 x19=0x2ab80844
       51965000	      5195	8000584c	0079c1b3	xor	x3,x19,x7	 x19:0x2ab80844  x7:0x00000000  x3=0x2ab80844
       51975000	      5196	80005850	8e6fbf13	sltiu	x30,x31,-1818	 x31:0x00000000 x30=0x00000001
       51985000	      5197	80005854	ba507c13	andi	x24,x0,-1115	  x0:0x00000000 x24=0x00000000
       51995000	      5198	80005858	12406493	ori	x9,x0,292	  x0:0x00000000  x9=0x00000124
       52005000	      5199	8000585c	015f1e93	slli	x29,x30,0x15	 x30:0x00000001 x29=0x00200000
       52015000	      5200	80005860	01215613	srli	x12,x2,0x12	  x2:0x1481ce85 x12=0x00000520
       52025000	      5201	80005864	dbb86b37	lui	x22,0xdbb86	 x22=0xdbb86000
       52035000	      5202	80005868	02fa0c63	beq	x20,x15,800058a0	 x20:0x00000000 x15:0x00000002
       52045000	      5203	8000586c	40db5633	sra	x12,x22,x13	 x22:0xdbb86000 x13:0xffffff83 x12=0xfb770c00
       52055000	      5204	80005870	41565033	sra	x0,x12,x21	 x12:0xfb770c00 x21:0xef7812ee
       52065000	      5205	80005874	013f03b3	add	x7,x30,x19	 x30:0x00000001 x19:0x2ab80844  x7=0x2ab80845
       52075000	      5206	80005878	7580e9b7	lui	x19,0x7580e	 x19=0x7580e000
       52085000	      5207	8000587c	11ee0f93	addi	x31,x28,286	 x28:0x00000001 x31=0x0000011f
       52095000	      5208	80005880	0182d893	srli	x17,x5,0x18	  x5:0xfffffac8 x17=0x000000ff
       52105000	      5209	80005884	016a9533	sll	x10,x21,x22	 x21:0xef7812ee x22:0xdbb86000 x10=0xef7812ee
       52115000	      5210	80005888	00d85663	bge	x16,x13,80005894	 x16:0x80009fc4 x13:0xffffff83
       52125000	      5211	8000588c	032f8463	beq	x31,x18,800058b4	 x31:0x0000011f x18:0x8ce067d0
       52135000	      5212	80005890	04e76463	bltu	x14,x14,800058d8	 x14:0x00000000 x14:0x00000000
       52145000	      5213	80005894	00bda933	slt	x18,x27,x11	 x27:0x80009f24 x11:0x8000abfd x18=0x00000001
       52155000	      5214	80005898	011792b3	sll	x5,x15,x17	 x15:0x00000002 x17:0x000000ff  x5=0x00000000
       52165000	      5215	8000589c	b7066e93	ori	x29,x12,-1168	 x12:0xfb770c00 x29=0xffffff70
       52175000	      5216	800058a0	01db0a63	beq	x22,x29,800058b4	 x22:0xdbb86000 x29:0xffffff70
       52185000	      5217	800058a4	adcbc013	xori	x0,x23,-1316	 x23:0x9843403b
       52195000	      5218	800058a8	04b58063	beq	x11,x11,800058e8	 x11:0x8000abfd x11:0x8000abfd
       52205000	      5219	00000000	00000013	addi	x0,x0,0	  x0:0x00000000
       52215000	      5220	800058e4	00000013	addi	x0,x0,0	  x0:0x00000000
       52225000	      5221	800058e8	01b07133	and	x2,x0,x27	  x0:0x00000000 x27:0x80009f24  x2=0x00000000
       52235000	      5222	800058ec	04c01263	bne	x0,x12,80005930	  x0:0x00000000 x12:0xfb770c00
       52245000	      5223	00000000	00000013	addi	x0,x0,0	  x0:0x00000000
       52255000	      5224	8000592c	00000013	addi	x0,x0,0	  x0:0x00000000
       52265000	      5225	80005930	02f94a63	blt	x18,x15,80005964	 x18:0x00000001 x15:0x00000002
       52275000	      5226	00000000	00000013	addi	x0,x0,0	  x0:0x00000000
       52285000	      5227	80005960	00000013	addi	x0,x0,0	  x0:0x00000000
       52295000	      5228	80005964	39f05e37	lui	x28,0x39f05	 x28=0x39f05000
       52305000	      5229	80005968	27236f13	ori	x30,x6,626	  x6:0x00000600 x30=0x00000672
       52315000	      5230	8000596c	ae68bc93	sltiu	x25,x17,-1306	 x17:0x000000ff x25=0x00000001
       52325000	      5231	80005970	0092fc33	and	x24,x5,x9	  x5:0x00000000  x9:0x00000124 x24=0x00000000
       52335000	      5232	80005974	00745933	srl	x18,x8,x7	  x8:0x00000000  x7:0x2ab80845 x18=0x00000000
       52345000	      5233	80005978	414253b3	sra	x7,x4,x20	  x4:0x1843e000 x20:0x00000000  x7=0x1843e000
       52355000	      5234	8000597c	04424063	blt	x4,x4,800059bc	  x4:0x1843e000  x4:0x1843e000
       52365000	      5235	80005980	c75d3d13	sltiu	x26,x26,-907	 x26:0x0000005a x26=0x00000001
       52375000	      5236	80005984	032b0863	beq	x22,x18,800059b4	 x22:0xdbb86000 x18:0x00000000
       52385000	      5237	80005988	03e90663	beq	x18,x30,800059b4	 x18:0x00000000 x30:0x00000672
       52395000	      5238	8000598c	00000013	addi	x0,x0,0	  x0:0x00000000
       52405000	      5239	80005990	00a39c33	sll	x24,x7,x10	  x7:0x1843e000 x10:0xef7812ee x24=0xf8000000
       52415000	      5240	80005994	26d44c13	xori	x24,x8,621	  x8:0x00000000 x24=0x0000026d
       52425000	      5241	80005998	00119e63	bne	x3,x1,800059b4	  x3:0x2ab80844  x1:0x00000000
       52435000	      5242	00000000	00000013	addi	x0,x0,0	  x0:0x00000000
       52445000	      5243	800059b0	00000013	addi	x0,x0,0	  x0:0x00000000
       52455000	      5244	800059b4	015e4663	blt	x28,x21,800059c0	 x28:0x39f05000 x21:0xef7812ee
       52465000	      5245	800059b8	00575c63	bge	x14,x5,800059d0	 x14:0x00000000  x5:0x00000000
       52475000	      5246	00000000	00000013	addi	x0,x0,0	  x0:0x00000000
       52485000	      5247	800059cc	00000013	addi	x0,x0,0	  x0:0x00000000
       52495000	      5248	800059d0	f9a97b13	andi	x22,x18,-102	 x18:0x00000000 x22=0x00000000
       52505000	      5249	800059d4	017ece63	blt	x29,x23,800059f0	 x29:0xffffff70 x23:0x9843403b
       52515000	      5250	800059d8	41dad3b3	sra	x7,x21,x29	 x21:0xef7812ee x29:0xffffff70  x7=0xffffef78
       52525000	      5251	800059dc	c093e637	lui	x12,0xc093e	 x12=0xc093e000
       52535000	      5252	800059e0	01f71a13	slli	x20,x14,0x1f	 x14:0x00000000 x20=0x00000000
       52545000	      5253	800059e4	80cf2a13	slti	x20,x30,-2036	 x30:0x00000672 x20=0x00000000
       52555000	      5254	800059e8	00169793	slli	x15,x13,0x1	 x13:0xffffff83 x15=0xffffff06
       52565000	      5255	800059ec	00a2ea63	bltu	x5,x10,80005a00	  x5:0x00000000 x10:0xef7812ee
       52575000	      5256	00000000	00000013	addi	x0,x0,0	  x0:0x00000000
       52585000	      5257	800059fc	00000013	addi	x0,x0,0	  x0:0x00000000
       52595000	      5258	80005a00	00000013	addi	x0,x0,0	  x0:0x00000000
       52605000	      5259	80005a04	2594f3b7	lui	x7,0x2594f	  x7=0x2594f000
       52615000	      5260	80005a08	0048beb3	sltu	x29,x17,x4	 x17:0x000000ff  x4:0x1843e000 x29=0x00000001
       52625000	      5261	80005a0c	82518413	addi	x8,x3,-2011	  x3:0x2ab80844  x8=0x2ab80069
       52635000	      5262	80005a10	00000013	addi	x0,x0,0	  x0:0x00000000
       52645000	      5263	80005a14	01a64433	xor	x8,x12,x26	 x12:0xc093e000 x26:0x00000001  x8=0xc093e001
       52655000	      5264	80005a18	416ad133	sra	x2,x21,x22	 x21:0xef7812ee x22:0x00000000  x2=0xef7812ee
       52665000	      5265	80005a1c	00c11413	slli	x8,x2,0xc	  x2:0xef7812ee  x8=0x812ee000
       52675000	      5266	80005a20	bde02b13	slti	x22,x0,-1058	  x0:0x00000000 x22=0x00000000
       52685000	      5267	80005a24	03e2e263	bltu	x5,x30,80005a48	  x5:0x00000000 x30:0x00000672
       52695000	      5268	00000000	00000013	addi	x0,x0,0	  x0:0x00000000
       52705000	      5269	80005a44	00000013	addi	x0,x0,0	  x0:0x00000000
       52715000	      5270	80005a48	4020deb3	sra	x29,x1,x2	  x1:0x00000000  x2:0xef7812ee x29=0x00000000
       52725000	      5271	80005a4c	40320513	addi	x10,x4,1027	  x4:0x1843e000 x10=0x1843e403
       52735000	      5272	80005a50	019bbd33	sltu	x26,x23,x25	 x23:0x9843403b x25:0x00000001 x26=0x00000000
       52745000	      5273	80005a54	00fb6533	or	x10,x22,x15	 x22:0x00000000 x15:0xffffff06 x10=0xffffff06
       52755000	      5274	80005a58	b7442fb7	lui	x31,0xb7442	 x31=0xb7442000
       52765000	      5275	80005a5c	41e7dc93	srai	x25,x15,0x1e	 x15:0xffffff06 x25=0xffffffff
       52775000	      5276	80005a60	00000013	addi	x0,x0,0	  x0:0x00000000
       52785000	      5277	80005a64	04ebd263	bge	x23,x14,80005aa8	 x23:0x9843403b x14:0x00000000
       52795000	      5278	80005a68	1811e593	ori	x11,x3,385	  x3:0x2ab80844 x11=0x2ab809c5
       52805000	      5279	80005a6c	0148dd33	srl	x26,x17,x20	 x17:0x000000ff x20:0x00000000 x26=0x000000ff
       52815000	      5280	80005a70	05fb6863	bltu	x22,x31,80005ac0	 x22:0x00000000 x31:0xb7442000
       52825000	      5281	00000000	00000013	addi	x0,x0,0	  x0:0x00000000
       52835000	      5282	80005abc	00000013	addi	x0,x0,0	  x0:0x00000000
       52845000	      5283	80005ac0	0078fb33	and	x22,x17,x7	 x17:0x000000ff  x7:0x2594f000 x22=0x00000000
       52855000	      5284	80005ac4	00de0663	beq	x28,x13,80005ad0	 x28:0x39f05000 x13:0xffffff83
       52865000	      5285	80005ac8	00fee663	bltu	x29,x15,80005ad4	 x29:0x00000000 x15:0xffffff06
       52875000	      5286	00000000	00000013	addi	x0,x0,0	  x0:0x00000000
       52885000	      5287	80005ad0	00000013	addi	x0,x0,0	  x0:0x00000000
       52895000	      5288	80005ad4	00bc07b3	add	x15,x24,x11	 x24:0x0000026d x11:0x2ab809c5 x15=0x2ab80c32
       52905000	      5289	80005ad8	00b01233	sll	x4,x0,x11	  x0:0x00000000 x11:0x2ab809c5  x4=0x00000000
       52915000	      5290	80005adc	01062f33	slt	x30,x12,x16	 x12:0xc093e000 x16:0x80009fc4 x30=0x00000000
       52925000	      5291	80005ae0	5bffe113	ori	x2,x31,1471	 x31:0xb7442000  x2=0xb74425bf
       52935000	      5292	80005ae4	00414bb3	xor	x23,x2,x4	  x2:0xb74425bf  x4:0x00000000 x23=0xb74425bf
       52945000	      5293	80005ae8	00db9c13	slli	x24,x23,0xd	 x23:0xb74425bf x24=0x84b7e000
       52955000	      5294	80005aec	012c5693	srli	x13,x24,0x12	 x24:0x84b7e000 x13=0x0000212d
       52965000	      5295	80005af0	31af3313	sltiu	x6,x30,794	 x30:0x00000000  x6=0x00000001
       52975000	      5296	80005af4	00bf1a33	sll	x20,x30,x11	 x30:0x00000000 x11:0x2ab809c5 x20=0x00000000
       52985000	      5297	80005af8	01659033	sll	x0,x11,x22	 x11:0x2ab809c5 x22:0x00000000
       52995000	      5298	80005afc	401d0133	sub	x2,x26,x1	 x26:0x000000ff  x1:0x00000000  x2=0x000000ff
       53005000	      5299	80005b00	01c28933	add	x18,x5,x28	  x5:0x00000000 x28:0x39f05000 x18=0x39f05000
       53015000	      5300	80005b04	40e0d313	srai	x6,x1,0xe	  x1:0x00000000  x6=0x00000000
       53025000	      5301	80005b08	05574263	blt	x14,x21,80005b4c	 x14:0x00000000 x21:0xef7812ee
       53035000	      5302	80005b0c	40d95633	sra	x12,x18,x13	 x18:0x39f05000 x13:0x0000212d x12=0x0001cf82
       53045000	      5303	80005b10	019c3c33	sltu	x24,x24,x25	 x24:0x84b7e000 x25:0xffffffff x24=0x00000001
       53055000	      5304	80005b14	011a6cb3	or	x25,x20,x17	 x20:0x00000000 x17:0x000000ff x25=0x000000ff
       53065000	      5305	80005b18	3cef6513	ori	x10,x30,974	 x30:0x00000000 x10=0x000003ce
       53075000	      5306	80005b1c	7a52cf17	auipc	x30,0x7a52c	 x30=0xfa531b18
       53085000	      5307	80005b20	04ef4063	blt	x30,x14,80005b60	 x30:0xfa531b18 x14:0x00000000
       53095000	      5308	00000000	00000013	addi	x0,x0,0	  x0:0x00000000
       53105000	      5309	80005b5c	00000013	addi	x0,x0,0	  x0:0x00000000
       53115000	      5310	80005b60	fe6a7513	andi	x10,x20,-26	 x20:0x00000000 x10=0x00000000
       53125000	      5311	80005b64	03238863	beq	x7,x18,80005b94	  x7:0x2594f000 x18:0x39f05000
       53135000	      5312	80005b68	03e0f063	bgeu	x1,x30,80005b88	  x1:0x00000000 x30:0xfa531b18
       53145000	      5313	80005b6c	d0abea13	ori	x20,x23,-758	 x23:0xb74425bf x20=0xfffffdbf
       53155000	      5314	80005b70	04538463	beq	x7,x5,80005bb8	  x7:0x2594f000  x5:0x00000000
       53165000	      5315	80005b74	00eb2b33	slt	x22,x22,x14	 x22:0x00000000 x14:0x00000000 x22=0x00000000
       53175000	      5316	80005b78	01552a33	slt	x20,x10,x21	 x10:0x00000000 x21:0xef7812ee x20=0x00000000
       53185000	      5317	80005b7c	b39af313	andi	x6,x21,-1223	 x21:0xef7812ee  x6=0xef781228
       53195000	      5318	80005b80	15e4c113	xori	x2,x9,350	  x9:0x00000124  x2=0x0000007a
       53205000	      5319	80005b84	00ea3333	sltu	x6,x20,x14	 x20:0x00000000 x14:0x00000000  x6=0x00000000
       53215000	      5320	80005b88	01a699b3	sll	x19,x13,x26	 x13:0x0000212d x26:0x000000ff x19=0x80000000
       53225000	      5321	80005b8c	00897633	and	x12,x18,x8	 x18:0x39f05000  x8:0x812ee000 x12=0x01204000
       53235000	      5322	80005b90	669381b7	lui	x3,0x66938	  x3=0x66938000
       53245000	      5323	80005b94	39384b13	xori	x22,x16,915	 x16:0x80009fc4 x22=0x80009c57
       53255000	      5324	80005b98	05969263	bne	x13,x25,80005bdc	 x13:0x0000212d x25:0x000000ff
       53265000	      5325	00000000	00000013	addi	x0,x0,0	  x0:0x00000000
       53275000	      5326	80005bd8	00000013	addi	x0,x0,0	  x0:0x00000000
       53285000	      5327	80005bdc	048b8063	beq	x23,x8,80005c1c	 x23:0xb74425bf  x8:0x812ee000
       53295000	      5328	80005be0	01e381b3	add	x3,x7,x30	  x7:0x2594f000 x30:0xfa531b18  x3=0x1fe80b18
       53305000	      5329	80005be4	41f55f93	srai	x31,x10,0x1f	 x10:0x00000000 x31=0x00000000
       53315000	      5330	80005be8	344fe293	ori	x5,x31,836	 x31:0x00000000  x5=0x00000344
       53325000	      5331	80005bec	41090633	sub	x12,x18,x16	 x18:0x39f05000 x16:0x80009fc4 x12=0xb9efb03c
       53335000	      5332	80005bf0	0021f633	and	x12,x3,x2	  x3:0x1fe80b18  x2:0x0000007a x12=0x00000018
       53345000	      5333	80005bf4	00b3fe63	bgeu	x7,x11,80005c10	  x7:0x2594f000 x11:0x2ab809c5
       53355000	      5334	80005bf8	05a44063	blt	x8,x26,80005c38	  x8:0x812ee000 x26:0x000000ff
       53365000	      5335	00000000	00000013	addi	x0,x0,0	  x0:0x00000000
       53375000	      5336	80005c34	00000013	addi	x0,x0,0	  x0:0x00000000
       53385000	      5337	80005c38	a47bba93	sltiu	x21,x23,-1465	 x23:0xb74425bf x21=0x00000001
       53395000	      5338	80005c3c	0e992113	slti	x2,x18,233	 x18:0x39f05000  x2=0x00000000
       53405000	      5339	80005c40	4bb37e93	andi	x29,x6,1211	  x6:0x00000000 x29=0x00000000
       53415000	      5340	80005c44	00478fb3	add	x31,x15,x4	 x15:0x2ab80c32  x4:0x00000000 x31=0x2ab80c32
       53425000	      5341	80005c48	0107eab3	or	x21,x15,x16	 x15:0x2ab80c32 x16:0x80009fc4 x21=0xaab89ff6
       53435000	      5342	80005c4c	01405993	srli	x19,x0,0x14	  x0:0x00000000 x19=0x00000000
       53445000	      5343	80005c50	01beb933	sltu	x18,x29,x27	 x29:0x00000000 x27:0x80009f24 x18=0x00000001
       53455000	      5344	80005c54	d94afb93	andi	x23,x21,-620	 x21:0xaab89ff6 x23=0xaab89d94
       53465000	      5345	80005c58	b26d8313	addi	x6,x27,-1242	 x27:0x80009f24  x6=0x80009a4a
       53475000	      5346	80005c5c	41ddd293	srai	x5,x27,0x1d	 x27:0x80009f24  x5=0xfffffffc
       53485000	      5347	80005c60	417d5b13	srai	x22,x26,0x17	 x26:0x000000ff x22=0x00000000
       53495000	      5348	80005c64	cd2d0893	addi	x17,x26,-814	 x26:0x000000ff x17=0xfffffdd1
       53505000	      5349	80005c68	037fcc63	blt	x31,x23,80005ca0	 x31:0x2ab80c32 x23:0xaab89d94
       53515000	      5350	80005c6c	02ff8463	beq	x31,x15,80005c94	 x31:0x2ab80c32 x15:0x2ab80c32
       53525000	      5351	00000000	00000013	addi	x0,x0,0	  x0:0x00000000
       53535000	      5352	80005c90	00000013	addi	x0,x0,0	  x0:0x00000000
       53545000	      5353	80005c94	c9c18513	addi	x10,x3,-868	  x3:0x1fe80b18 x10=0x1fe807b4
       53555000	      5354	80005c98	00a19c33	sll	x24,x3,x10	  x3:0x1fe80b18 x10:0x1fe807b4 x24=0xb1800000
       53565000	      5355	80005c9c	0155d793	srli	x15,x11,0x15	 x11:0x2ab809c5 x15=0x00000155
       53575000	      5356	80005ca0	017512b3	sll	x5,x10,x23	 x10:0x1fe807b4 x23:0xaab89d94  x5=0x7b400000
       53585000	      5357	80005ca4	015eb033	sltu	x0,x29,x21	 x29:0x00000000 x21:0xaab89ff6
       53595000	      5358	80005ca8	00000013	addi	x0,x0,0	  x0:0x00000000
       53605000	      5359	80005cac	fa812013	slti	x0,x2,-88	  x2:0x00000000
       53615000	      5360	80005cb0	65678f93	addi	x31,x15,1622	 x15:0x00000155 x31=0x000007ab
       53625000	      5361	80005cb4	00ee1f13	slli	x30,x28,0xe	 x28:0x39f05000 x30=0x14000000
       53635000	      5362	80005cb8	25134993	xori	x19,x6,593	  x6:0x80009a4a x19=0x8000981b
       53645000	      5363	80005cbc	00000013	addi	x0,x0,0	  x0:0x00000000
       53655000	      5364	80005cc0	00854fb3	xor	x31,x10,x8	 x10:0x1fe807b4  x8:0x812ee000 x31=0x9ec6e7b4
       53665000	      5365	80005cc4	85b2a613	slti	x12,x5,-1957	  x5:0x7b400000 x12=0x00000000
       53675000	      5366	80005cc8	00e59a93	slli	x21,x11,0xe	 x11:0x2ab809c5 x21=0x02714000
       53685000	      5367	80005ccc	ec680f93	addi	x31,x16,-314	 x16:0x80009fc4 x31=0x80009e8a
       53695000	      5368	80005cd0	41d2d613	srai	x12,x5,0x1d	  x5:0x7b400000 x12=0x00000003
       53705000	      5369	80005cd4	00c3f2b3	and	x5,x7,x12	  x7:0x2594f000 x12:0x00000003  x5=0x00000000
       53715000	      5370	80005cd8	01cb5a93	srli	x21,x22,0x1c	 x22:0x00000000 x21=0x00000000
       53725000	      5371	80005cdc	40db0b33	sub	x22,x22,x13	 x22:0x00000000 x13:0x0000212d x22=0xffffded3
       53735000	      5372	80005ce0	bd138fb7	lui	x31,0xbd138	 x31=0xbd138000
       53745000	      5373	80005ce4	0213d463	bge	x7,x1,80005d0c	  x7:0x2594f000  x1:0x00000000
       53755000	      5374	00000000	00000013	addi	x0,x0,0	  x0:0x00000000
       53765000	      5375	80005d08	00000013	addi	x0,x0,0	  x0:0x00000000
       53775000	      5376	80005d0c	c6c8b713	sltiu	x14,x17,-916	 x17:0xfffffdd1 x14=0x00000000
       53785000	      5377	80005d10	01cac663	blt	x21,x28,80005d1c	 x21:0x00000000 x28:0x39f05000
       53795000	      5378	00000000	00000013	addi	x0,x0,0	  x0:0x00000000
       53805000	      5379	80005d18	00000013	addi	x0,x0,0	  x0:0x00000000
       53815000	      5380	80005d1c	fdbd7b93	andi	x23,x26,-37	 x26:0x000000ff x23=0x000000db
       53825000	      5381	80005d20	0154cbb3	xor	x23,x9,x21	  x9:0x00000124 x21:0x00000000 x23=0x00000124
       53835000	      5382	80005d24	00271e13	slli	x28,x14,0x2	 x14:0x00000000 x28=0x00000000
       53845000	      5383	80005d28	60ae3e93	sltiu	x29,x28,1546	 x28:0x00000000 x29=0x00000001
       53855000	      5384	80005d2c	013bb5b3	sltu	x11,x23,x19	 x23:0x00000124 x19:0x8000981b x11=0x00000001
       53865000	      5385	80005d30	01ae4fb3	xor	x31,x28,x26	 x28:0x00000000 x26:0x000000ff x31=0x000000ff
       53875000	      5386	80005d34	d28bce17	auipc	x28,0xd28bc	 x28=0x528c1d30
       53885000	      5387	80005d38	01a21233	sll	x4,x4,x26	  x4:0x00000000 x26:0x000000ff  x4=0x00000000
       53895000	      5388	80005d3c	1183c593	xori	x11,x7,280	  x7:0x2594f000 x11=0x2594f118
       53905000	      5389	80005d40	00d2ef33	or	x30,x5,x13	  x5:0x00000000 x13:0x0000212d x30=0x0000212d
       53915000	      5390	80005d44	01f0cb33	xor	x22,x1,x31	  x1:0x00000000 x31:0x000000ff x22=0x000000ff
       53925000	      5391	80005d48	01510fb3	add	x31,x2,x21	  x2:0x00000000 x21:0x00000000 x31=0x00000000
       53935000	      5392	80005d4c	be7b78b7	lui	x17,0xbe7b7	 x17=0xbe7b7000
       53945000	      5393	80005d50	d0f6a8b7	lui	x17,0xd0f6a	 x17=0xd0f6a000
       53955000	      5394	80005d54	ceea4893	xori	x17,x20,-786	 x20:0x00000000 x17=0xfffffcee
       53965000	      5395	80005d58	01ce6733	or	x14,x28,x28	 x28:0x528c1d30 x28:0x528c1d30 x14=0x528c1d30
       53975000	      5396	80005d5c	f0a7de97	auipc	x29,0xf0a7d	 x29=0x70a82d58
       53985000	      5397	80005d60	02ce0c63	beq	x28,x12,80005d98	 x28:0x528c1d30 x12:0x00000003
       53995000	      5398	80005d64	018c7663	bgeu	x24,x24,80005d70	 x24:0xb1800000 x24:0xb1800000
       54005000	      5399	00000000	00000013	addi	x0,x0,0	  x0:0x00000000
       54015000	      5400	80005d6c	00000013	addi	x0,x0,0	  x0:0x00000000
       54025000	      5401	80005d70	409209b3	sub	x19,x4,x9	  x4:0x00000000  x9:0x00000124 x19=0xfffffedc
       54035000	      5402	80005d74	000c7a33	and	x20,x24,x0	 x24:0xb1800000  x0:0x00000000 x20=0x00000000
       54045000	      5403	80005d78	40c081b3	sub	x3,x1,x12	  x1:0x00000000 x12:0x00000003  x3=0xfffffffd
       54055000	      5404	80005d7c	00bffe63	bgeu	x31,x11,80005d98	 x31:0x00000000 x11:0x2594f118
       54065000	      5405	80005d80	015399b3	sll	x19,x7,x21	  x7:0x2594f000 x21:0x00000000 x19=0x2594f000
       54075000	      5406	80005d84	66b81797	auipc	x15,0x66b81	 x15=0xe6b86d80
       54085000	      5407	80005d88	26102693	slti	x13,x0,609	  x0:0x00000000 x13=0x00000001
       54095000	      5408	80005d8c	0191db33	srl	x22,x3,x25	  x3:0xfffffffd x25:0x000000ff x22=0x00000001
       54105000	      5409	80005d90	04f9f463	bgeu	x19,x15,80005dd8	 x19:0x2594f000 x15:0xe6b86d80
       54115000	      5410	80005d94	c9cc3d13	sltiu	x26,x24,-868	 x24:0xb1800000 x26=0x00000001
       54125000	      5411	80005d98	506e6993	ori	x19,x28,1286	 x28:0x528c1d30 x19=0x528c1d36
       54135000	      5412	80005d9c	01422433	slt	x8,x4,x20	  x4:0x00000000 x20:0x00000000  x8=0x00000000
       54145000	      5413	80005da0	402dd013	srai	x0,x27,0x2	 x27:0x80009f24
       54155000	      5414	80005da4	01024533	xor	x10,x4,x16	  x4:0x00000000 x16:0x80009fc4 x10=0x80009fc4
       54165000	      5415	80005da8	01f1b933	sltu	x18,x3,x31	  x3:0xfffffffd x31:0x00000000 x18=0x00000000
       54175000	      5416	80005dac	055fc263	blt	x31,x21,80005df0	 x31:0x00000000 x21:0x00000000
       54185000	      5417	80005db0	00921a33	sll	x20,x4,x9	  x4:0x00000000  x9:0x00000124 x20=0x00000000
       54195000	      5418	80005db4	2bb38e13	addi	x28,x7,699	  x7:0x2594f000 x28=0x2594f2bb
       54205000	      5419	80005db8	4947c893	xori	x17,x15,1172	 x15:0xe6b86d80 x17=0xe6b86914
       54215000	      5420	80005dbc	01f40033	add	x0,x8,x31	  x8:0x00000000 x31:0x00000000
       54225000	      5421	80005dc0	aa6f3193	sltiu	x3,x30,-1370	 x30:0x0000212d  x3=0x00000001
       54235000	      5422	80005dc4	bad87693	andi	x13,x16,-1107	 x16:0x80009fc4 x13=0x80009b84
       54245000	      5423	80005dc8	014d55b3	srl	x11,x26,x20	 x26:0x00000001 x20:0x00000000 x11=0x00000001
       54255000	      5424	80005dcc	0018b733	sltu	x14,x17,x1	 x17:0xe6b86914  x1:0x00000000 x14=0x00000000
       54265000	      5425	80005dd0	00fc5313	srli	x6,x24,0xf	 x24:0xb1800000  x6=0x00016300
       54275000	      5426	80005dd4	0151ce63	blt	x3,x21,80005df0	  x3:0x00000001 x21:0x00000000
       54285000	      5427	80005dd8	01b9d133	srl	x2,x19,x27	 x19:0x528c1d36 x27:0x80009f24  x2=0x0528c1d3
       54295000	      5428	80005ddc	00ba5a33	srl	x20,x20,x11	 x20:0x00000000 x11:0x00000001 x20=0x00000000
       54305000	      5429	80005de0	00749bb3	sll	x23,x9,x7	  x9:0x00000124  x7:0x2594f000 x23=0x00000124
       54315000	      5430	80005de4	011597b3	sll	x15,x11,x17	 x11:0x00000001 x17:0xe6b86914 x15=0x00100000
       54325000	      5431	80005de8	5ac50f13	addi	x30,x10,1452	 x10:0x80009fc4 x30=0x8000a570
       54335000	      5432	80005dec	40a45793	srai	x15,x8,0xa	  x8:0x00000000 x15=0x00000000
       54345000	      5433	80005df0	40cd5893	srai	x17,x26,0xc	 x26:0x00000001 x17=0x00000000
       54355000	      5434	80005df4	40ed08b3	sub	x17,x26,x14	 x26:0x00000001 x14:0x00000000 x17=0x00000001
       54365000	      5435	80005df8	01e35c13	srli	x24,x6,0x1e	  x6:0x00016300 x24=0x00000000
       54375000	      5436	80005dfc	0203c663	blt	x7,x0,80005e28	  x7:0x2594f000  x0:0x00000000
       54385000	      5437	80005e00	00eb87b3	add	x15,x23,x14	 x23:0x00000124 x14:0x00000000 x15=0x00000124
       54395000	      5438	80005e04	9f520617	auipc	x12,0x9f520	 x12=0x1f525e00
       54405000	      5439	80005e08	045e1063	bne	x28,x5,80005e48	 x28:0x2594f2bb  x5:0x00000000
       54415000	      5440	00000000	00000013	addi	x0,x0,0	  x0:0x00000000
       54425000	      5441	80005e44	00000013	addi	x0,x0,0	  x0:0x00000000
       54435000	      5442	80005e48	52401497	auipc	x9,0x52401	  x9=0xd2406e44
       54445000	      5443	80005e4c	782a6e13	ori	x28,x20,1922	 x20:0x00000000 x28=0x00000782
       54455000	      5444	80005e50	028e6263	bltu	x28,x8,80005e74	 x28:0x00000782  x8:0x00000000
       54465000	      5445	80005e54	01a19d33	sll	x26,x3,x26	  x3:0x00000001 x26:0x00000001 x26=0x00000002
       54475000	      5446	80005e58	4072dc13	srai	x24,x5,0x7	  x5:0x00000000 x24=0x00000000
       54485000	      5447	80005e5c	019e5e93	srli	x29,x28,0x19	 x28:0x00000782 x29=0x00000000
       54495000	      5448	80005e60	00c5d193	srli	x3,x11,0xc	 x11:0x00000001  x3=0x00000000
       54505000	      5449	80005e64	01ace533	or	x10,x25,x26	 x25:0x000000ff x26:0x00000002 x10=0x000000ff
       54515000	      5450	80005e68	03055c63	bge	x10,x16,80005ea0	 x10:0x000000ff x16:0x80009fc4
       54525000	      5451	00000000	00000013	addi	x0,x0,0	  x0:0x00000000
       54535000	      5452	80005e9c	00000013	addi	x0,x0,0	  x0:0x00000000
       54545000	      5453	80005ea0	08b2f413	andi	x8,x5,139	  x5:0x00000000  x8=0x00000000
       54555000	      5454	80005ea4	01b71613	slli	x12,x14,0x1b	 x14:0x00000000 x12=0x00000000
       54565000	      5455	80005ea8	0137cb33	xor	x22,x15,x19	 x15:0x00000124 x19:0x528c1d36 x22=0x528c1c12
       54575000	      5456	80005eac	01a35b93	srli	x23,x6,0x1a	  x6:0x00016300 x23=0x00000000
       54585000	      5457	80005eb0	00182bb3	slt	x23,x16,x1	 x16:0x80009fc4  x1:0x00000000 x23=0x00000001
       54595000	      5458	80005eb4	2de77193	andi	x3,x14,734	 x14:0x00000000  x3=0x00000000
       54605000	      5459	80005eb8	c9a73a93	sltiu	x21,x14,-870	 x14:0x00000000 x21=0x00000001
       54615000	      5460	80005ebc	bec03397	auipc	x7,0xbec03	  x7=0x3ec08eb8
       54625000	      5461	80005ec0	52f9a493	slti	x9,x19,1327	 x19:0x528c1d36  x9=0x00000000
       54635000	      5462	80005ec4	29fa4717	auipc	x14,0x29fa4	 x14=0xa9fa9ec0
       54645000	      5463	80005ec8	05f08063	beq	x1,x31,80005f08	  x1:0x00000000 x31:0x00000000
       54655000	      5464	00000000	00000013	addi	x0,x0,0	  x0:0x00000000
       54665000	      5465	80005f04	00000013	addi	x0,x0,0	  x0:0x00000000
       54675000	      5466	80005f08	03178a63	beq	x15,x17,80005f3c	 x15:0x00000124 x17:0x00000001
       54685000	      5467	80005f0c	05d20063	beq	x4,x29,80005f4c	  x4:0x00000000 x29:0x00000000
       54695000	      5468	00000000	00000013	addi	x0,x0,0	  x0:0x00000000
       54705000	      5469	80005f48	00000013	addi	x0,x0,0	  x0:0x00000000
       54715000	      5470	80005f4c	19faa313	slti	x6,x21,415	 x21:0x00000001  x6=0x00000001
       54725000	      5471	80005f50	3f522d37	lui	x26,0x3f522	 x26=0x3f522000
       54735000	      5472	80005f54	00000013	addi	x0,x0,0	  x0:0x00000000
       54745000	      5473	80005f58	018f6a63	bltu	x30,x24,80005f6c	 x30:0x8000a570 x24:0x00000000
       54755000	      5474	80005f5c	01674433	xor	x8,x14,x22	 x14:0xa9fa9ec0 x22:0x528c1c12  x8=0xfb7682d2
       54765000	      5475	80005f60	00881c63	bne	x16,x8,80005f78	 x16:0x80009fc4  x8:0xfb7682d2
       54775000	      5476	00000000	00000013	addi	x0,x0,0	  x0:0x00000000
       54785000	      5477	80005f74	00000013	addi	x0,x0,0	  x0:0x00000000
       54795000	      5478	80005f78	00b71333	sll	x6,x14,x11	 x14:0xa9fa9ec0 x11:0x00000001  x6=0x53f53d80
       54805000	      5479	80005f7c	033b8463	beq	x23,x19,80005fa4	 x23:0x00000001 x19:0x528c1d36
       54815000	      5480	80005f80	183a6793	ori	x15,x20,387	 x20:0x00000000 x15=0x00000183
       54825000	      5481	80005f84	40d6dd33	sra	x26,x13,x13	 x13:0x80009b84 x13:0x80009b84 x26=0xf80009b8
       54835000	      5482	80005f88	8876c197	auipc	x3,0x8876c	  x3=0x08771f84
       54845000	      5483	80005f8c	418f0533	sub	x10,x30,x24	 x30:0x8000a570 x24:0x00000000 x10=0x8000a570
       54855000	      5484	80005f90	05e71463	bne	x14,x30,80005fd8	 x14:0xa9fa9ec0 x30:0x8000a570
       54865000	      5485	00000000	00000013	addi	x0,x0,0	  x0:0x00000000
       54875000	      5486	80005fd4	00000013	addi	x0,x0,0	  x0:0x00000000
       54885000	      5487	80005fd8	0005b433	sltu	x8,x11,x0	 x11:0x00000001  x0:0x00000000  x8=0x00000000
       54895000	      5488	80005fdc	011c8cb3	add	x25,x25,x17	 x25:0x000000ff x17:0x00000001 x25=0x00000100
       54905000	      5489	80005fe0	04550463	beq	x10,x5,80006028	 x10:0x8000a570  x5:0x00000000
       54915000	      5490	80005fe4	0036d033	srl	x0,x13,x3	 x13:0x80009b84  x3:0x08771f84
       54925000	      5491	80005fe8	018f7d33	and	x26,x30,x24	 x30:0x8000a570 x24:0x00000000 x26=0x00000000
       54935000	      5492	80005fec	01d01533	sll	x10,x0,x29	  x0:0x00000000 x29:0x00000000 x10=0x00000000
       54945000	      5493	80005ff0	01ea9113	slli	x2,x21,0x1e	 x21:0x00000001  x2=0x40000000
       54955000	      5494	80005ff4	89f36013	ori	x0,x6,-1889	  x6:0x53f53d80
       54965000	      5495	80005ff8	407f5b93	srai	x23,x30,0x7	 x30:0x8000a570 x23=0xff00014a
       54975000	      5496	80005ffc	13cf4a13	xori	x20,x30,316	 x30:0x8000a570 x20=0x8000a44c
       54985000	      5497	80006000	01f6da33	srl	x20,x13,x31	 x13:0x80009b84 x31:0x00000000 x20=0x80009b84
       54995000	      5498	80006004	fa426513	ori	x10,x4,-92	  x4:0x00000000 x10=0xffffffa4
       55005000	      5499	80006008	41360133	sub	x2,x12,x19	 x12:0x00000000 x19:0x528c1d36  x2=0xad73e2ca
       55015000	      5500	8000600c	408adb33	sra	x22,x21,x8	 x21:0x00000001  x8:0x00000000 x22=0x00000001
       55025000	      5501	80006010	6eca2713	slti	x14,x20,1772	 x20:0x80009b84 x14=0x00000001
       55035000	      5502	80006014	5454ec13	ori	x24,x9,1349	  x9:0x00000000 x24=0x00000545
       55045000	      5503	80006018	eb10a413	slti	x8,x1,-335	  x1:0x00000000  x8=0x00000000
       55055000	      5504	8000601c	01797663	bgeu	x18,x23,80006028	 x18:0x00000000 x23:0xff00014a
       55065000	      5505	80006020	01fce633	or	x12,x25,x31	 x25:0x00000100 x31:0x00000000 x12=0x00000100
       55075000	      5506	80006024	4fdae213	ori	x4,x21,1277	 x21:0x00000001  x4=0x000004fd
       55085000	      5507	80006028	86802493	slti	x9,x0,-1944	  x0:0x00000000  x9=0x00000000
       55095000	      5508	8000602c	00c624b3	slt	x9,x12,x12	 x12:0x00000100 x12:0x00000100  x9=0x00000000
       55105000	      5509	80006030	00536333	or	x6,x6,x5	  x6:0x53f53d80  x5:0x00000000  x6=0x53f53d80
       55115000	      5510	80006034	01fbd993	srli	x19,x23,0x1f	 x23:0xff00014a x19=0x00000001
       55125000	      5511	80006038	04efc263	blt	x31,x14,8000607c	 x31:0x00000000 x14:0x00000001
       55135000	      5512	00000000	00000013	addi	x0,x0,0	  x0:0x00000000
       55145000	      5513	80006078	00000013	addi	x0,x0,0	  x0:0x00000000
       55155000	      5514	8000607c	3ca74393	xori	x7,x14,970	 x14:0x00000001  x7=0x000003cb
       55165000	      5515	80006080	00b864b3	or	x9,x16,x11	 x16:0x80009fc4 x11:0x00000001  x9=0x80009fc5
       55175000	      5516	80006084	419ad4b3	sra	x9,x21,x25	 x21:0x00000001 x25:0x00000100  x9=0x00000001
       55185000	      5517	80006088	01fa1193	slli	x3,x20,0x1f	 x20:0x80009b84  x3=0x00000000
       55195000	      5518	8000608c	04725063	bge	x4,x7,800060cc	  x4:0x000004fd  x7:0x000003cb
       55205000	      5519	00000000	00000013	addi	x0,x0,0	  x0:0x00000000
       55215000	      5520	800060c8	00000013	addi	x0,x0,0	  x0:0x00000000
       55225000	      5521	800060cc	40595eb3	sra	x29,x18,x5	 x18:0x00000000  x5:0x00000000 x29=0x00000000
       55235000	      5522	800060d0	40f75b33	sra	x22,x14,x15	 x14:0x00000001 x15:0x00000183 x22=0x00000000
       55245000	      5523	800060d4	05751063	bne	x10,x23,80006114	 x10:0xffffffa4 x23:0xff00014a
       55255000	      5524	00000000	00000013	addi	x0,x0,0	  x0:0x00000000
       55265000	      5525	80006110	00000013	addi	x0,x0,0	  x0:0x00000000
       55275000	      5526	80006114	dc203cb7	lui	x25,0xdc203	 x25=0xdc203000
       55285000	      5527	80006118	000b13b3	sll	x7,x22,x0	 x22:0x00000000  x0:0x00000000  x7=0x00000000
       55295000	      5528	8000611c	01475d13	srli	x26,x14,0x14	 x14:0x00000001 x26=0x00000000
       55305000	      5529	80006120	039c0663	beq	x24,x25,8000614c	 x24:0x00000545 x25:0xdc203000
       55315000	      5530	80006124	00ff9a33	sll	x20,x31,x15	 x31:0x00000000 x15:0x00000183 x20=0x00000000
       55325000	      5531	80006128	262a4f93	xori	x31,x20,610	 x20:0x00000000 x31=0x00000262
       55335000	      5532	8000612c	40e3d733	sra	x14,x7,x14	  x7:0x00000000 x14:0x00000001 x14=0x00000000
       55345000	      5533	80006130	0122d633	srl	x12,x5,x18	  x5:0x00000000 x18:0x00000000 x12=0x00000000
       55355000	      5534	80006134	001af033	and	x0,x21,x1	 x21:0x00000001  x1:0x00000000
       55365000	      5535	80006138	cbef3493	sltiu	x9,x30,-834	 x30:0x8000a570  x9=0x00000001
       55375000	      5536	8000613c	95a3c193	xori	x3,x7,-1702	  x7:0x00000000  x3=0xfffff95a
       55385000	      5537	80006140	01ad4933	xor	x18,x26,x26	 x26:0x00000000 x26:0x00000000 x18=0x00000000
       55395000	      5538	80006144	41ec5733	sra	x14,x24,x30	 x24:0x00000545 x30:0x8000a570 x14=0x00000000
       55405000	      5539	80006148	02eb5463	bge	x22,x14,80006170	 x22:0x00000000 x14:0x00000000
       55415000	      5540	00000000	00000013	addi	x0,x0,0	  x0:0x00000000
       55425000	      5541	8000616c	00000013	addi	x0,x0,0	  x0:0x00000000
       55435000	      5542	80006170	01f5ca63	blt	x11,x31,80006184	 x11:0x00000001 x31:0x00000262
       55445000	      5543	00000000	00000013	addi	x0,x0,0	  x0:0x00000000
       55455000	      5544	80006180	00000013	addi	x0,x0,0	  x0:0x00000000
       55465000	      5545	80006184	01361b13	slli	x22,x12,0x13	 x12:0x00000000 x22=0x00000000
       55475000	      5546	80006188	01b838b3	sltu	x17,x16,x27	 x16:0x80009fc4 x27:0x80009f24 x17=0x00000000
       55485000	      5547	8000618c	c1e5fb13	andi	x22,x11,-994	 x11:0x00000001 x22=0x00000000
       55495000	      5548	80006190	01af9193	slli	x3,x31,0x1a	 x31:0x00000262  x3=0x88000000
       55505000	      5549	80006194	002ff7b3	and	x15,x31,x2	 x31:0x00000262  x2:0xad73e2ca x15=0x00000242
       55515000	      5550	80006198	41918e33	sub	x28,x3,x25	  x3:0x88000000 x25:0xdc203000 x28=0xabdfd000
       55525000	      5551	8000619c	4010d433	sra	x8,x1,x1	  x1:0x00000000  x1:0x00000000  x8=0x00000000
       55535000	      5552	800061a0	407ad2b3	sra	x5,x21,x7	 x21:0x00000001  x7:0x00000000  x5=0x00000001
       55545000	      5553	800061a4	01139593	slli	x11,x7,0x11	  x7:0x00000000 x11=0x00000000
       55555000	      5554	800061a8	01699133	sll	x2,x19,x22	 x19:0x00000001 x22:0x00000000  x2=0x00000001
       55565000	      5555	800061ac	01239d33	sll	x26,x7,x18	  x7:0x00000000 x18:0x00000000 x26=0x00000000
       55575000	      5556	800061b0	8122e213	ori	x4,x5,-2030	  x5:0x00000001  x4=0xfffff813
       55585000	      5557	800061b4	50c94593	xori	x11,x18,1292	 x18:0x00000000 x11=0x0000050c
       55595000	      5558	800061b8	00fb1663	bne	x22,x15,800061c4	 x22:0x00000000 x15:0x00000242
       55605000	      5559	00000000	00000013	addi	x0,x0,0	  x0:0x00000000
       55615000	      5560	800061c0	00000013	addi	x0,x0,0	  x0:0x00000000
       55625000	      5561	800061c4	41a05c93	srai	x25,x0,0x1a	  x0:0x00000000 x25=0x00000000
       55635000	      5562	800061c8	01e704b3	add	x9,x14,x30	 x14:0x00000000 x30:0x8000a570  x9=0x8000a570
       55645000	      5563	800061cc	0189db93	srli	x23,x19,0x18	 x19:0x00000001 x23=0x00000000
       55655000	      5564	800061d0	05226463	bltu	x4,x18,80006218	  x4:0xfffff813 x18:0x00000000
       55665000	      5565	800061d4	032d4c63	blt	x26,x18,8000620c	 x26:0x00000000 x18:0x00000000
       55675000	      5566	800061d8	29998393	addi	x7,x19,665	 x19:0x00000001  x7=0x0000029a
       55685000	      5567	800061dc	88ace137	lui	x2,0x88ace	  x2=0x88ace000
       55695000	      5568	800061e0	8022e313	ori	x6,x5,-2046	  x5:0x00000001  x6=0xfffff803
       55705000	      5569	800061e4	172f6b13	ori	x22,x30,370	 x30:0x8000a570 x22=0x8000a572
       55715000	      5570	800061e8	40a25393	srai	x7,x4,0xa	  x4:0xfffff813  x7=0xfffffffe
       55725000	      5571	800061ec	00a92c33	slt	x24,x18,x10	 x18:0x00000000 x10:0xffffffa4 x24=0x00000000
       55735000	      5572	800061f0	c63dc593	xori	x11,x27,-925	 x27:0x80009f24 x11=0x7fff6347
       55745000	      5573	800061f4	00efacb3	slt	x25,x31,x14	 x31:0x00000262 x14:0x00000000 x25=0x00000000
       55755000	      5574	800061f8	0156dc63	bge	x13,x21,80006210	 x13:0x80009b84 x21:0x00000001
       55765000	      5575	800061fc	01b534b3	sltu	x9,x10,x27	 x10:0xffffffa4 x27:0x80009f24  x9=0x00000000
       55775000	      5576	80006200	03ff5663	bge	x30,x31,8000622c	 x30:0x8000a570 x31:0x00000262
       55785000	      5577	80006204	00000013	addi	x0,x0,0	  x0:0x00000000
       55795000	      5578	80006208	02b3c863	blt	x7,x11,80006238	  x7:0xfffffffe x11:0x7fff6347
       55805000	      5579	00000000	00000013	addi	x0,x0,0	  x0:0x00000000
       55815000	      5580	80006234	00000013	addi	x0,x0,0	  x0:0x00000000
       55825000	      5581	80006238	a77caf13	slti	x30,x25,-1417	 x25:0x00000000 x30=0x00000000
       55835000	      5582	8000623c	02e24263	blt	x4,x14,80006260	  x4:0xfffff813 x14:0x00000000
       55845000	      5583	00000000	00000013	addi	x0,x0,0	  x0:0x00000000
       55855000	      5584	8000625c	00000013	addi	x0,x0,0	  x0:0x00000000
       55865000	      5585	80006260	00a6eeb3	or	x29,x13,x10	 x13:0x80009b84 x10:0xffffffa4 x29=0xffffffa4
       55875000	      5586	80006264	01864233	xor	x4,x12,x24	 x12:0x00000000 x24:0x00000000  x4=0x00000000
       55885000	      5587	80006268	01854533	xor	x10,x10,x24	 x10:0xffffffa4 x24:0x00000000 x10=0xffffffa4
       55895000	      5588	8000626c	02590063	beq	x18,x5,8000628c	 x18:0x00000000  x5:0x00000001
       55905000	      5589	80006270	57888197	auipc	x3,0x57888	  x3=0xd788e26c
       55915000	      5590	80006274	00e2d313	srli	x6,x5,0xe	  x5:0x00000001  x6=0x00000000
       55925000	      5591	80006278	4133dd33	sra	x26,x7,x19	  x7:0xfffffffe x19:0x00000001 x26=0xffffffff
       55935000	      5592	8000627c	02c08c63	beq	x1,x12,800062b4	  x1:0x00000000 x12:0x00000000
       55945000	      5593	00000000	00000013	addi	x0,x0,0	  x0:0x00000000
       55955000	      5594	800062b0	00000013	addi	x0,x0,0	  x0:0x00000000
       55965000	      5595	800062b4	1f5b8f13	addi	x30,x23,501	 x23:0x00000000 x30=0x000001f5
       55975000	      5596	800062b8	107de063	bltu	x27,x7,800063b8	 x27:0x80009f24  x7:0xfffffffe
       55985000	      5597	00000000	00000013	addi	x0,x0,0	  x0:0x00000000
       55995000	      5598	800063b4	00000013	addi	x0,x0,0	  x0:0x00000000
       56005000	      5599	800063b8	8a140b93	addi	x23,x8,-1887	  x8:0x00000000 x23=0xfffff8a1
       56015000	      5600	800063bc	05f17063	bgeu	x2,x31,800063fc	  x2:0x88ace000 x31:0x00000262
       56025000	      5601	00000000	00000013	addi	x0,x0,0	  x0:0x00000000
       56035000	      5602	800063f8	00000013	addi	x0,x0,0	  x0:0x00000000
       56045000	      5603	800063fc	01901d13	slli	x26,x0,0x19	  x0:0x00000000 x26=0x00000000
       56055000	      5604	80006400	60338393	addi	x7,x7,1539	  x7:0xfffffffe  x7=0x00000601
       56065000	      5605	80006404	e1cacc13	xori	x24,x21,-484	 x21:0x00000001 x24=0xfffffe1d
       56075000	      5606	80006408	036d0463	beq	x26,x22,80006430	 x26:0x00000000 x22:0x8000a572
       56085000	      5607	8000640c	01713233	sltu	x4,x2,x23	  x2:0x88ace000 x23:0xfffff8a1  x4=0x00000001
       56095000	      5608	80006410	01c707b3	add	x15,x14,x28	 x14:0x00000000 x28:0xabdfd000 x15=0xabdfd000
       56105000	      5609	80006414	00000013	addi	x0,x0,0	  x0:0x00000000
       56115000	      5610	80006418	41195bb3	sra	x23,x18,x17	 x18:0x00000000 x17:0x00000000 x23=0x00000000
       56125000	      5611	8000641c	b4457c93	andi	x25,x10,-1212	 x10:0xffffffa4 x25=0xfffffb04
       56135000	      5612	80006420	8f006e13	ori	x28,x0,-1808	  x0:0x00000000 x28=0xfffff8f0
       56145000	      5613	80006424	40825693	srai	x13,x4,0x8	  x4:0x00000001 x13=0x00000000
       56155000	      5614	80006428	40250eb3	sub	x29,x10,x2	 x10:0xffffffa4  x2:0x88ace000 x29=0x77531fa4
       56165000	      5615	8000642c	00e95f13	srli	x30,x18,0xe	 x18:0x00000000 x30=0x00000000
       56175000	      5616	80006430	01ee1a63	bne	x28,x30,80006444	 x28:0xfffff8f0 x30:0x00000000
       56185000	      5617	00000000	00000013	addi	x0,x0,0	  x0:0x00000000
       56195000	      5618	80006440	00000013	addi	x0,x0,0	  x0:0x00000000
       56205000	      5619	80006444	020f4a63	blt	x30,x0,80006478	 x30:0x00000000  x0:0x00000000
       56215000	      5620	80006448	403bd193	srai	x3,x23,0x3	 x23:0x00000000  x3=0x00000000
       56225000	      5621	8000644c	e31f67b7	lui	x15,0xe31f6	 x15=0xe31f6000
       56235000	      5622	80006450	00000013	addi	x0,x0,0	  x0:0x00000000
       56245000	      5623	80006454	325b7f13	andi	x30,x22,805	 x22:0x8000a572 x30=0x00000120
       56255000	      5624	80006458	01c35a33	srl	x20,x6,x28	  x6:0x00000000 x28:0xfffff8f0 x20=0x00000000
       56265000	      5625	8000645c	32cba993	slti	x19,x23,812	 x23:0x00000000 x19=0x00000001
       56275000	      5626	80006460	4a220a93	addi	x21,x4,1186	  x4:0x00000001 x21=0x000004a3
       56285000	      5627	80006464	028b0863	beq	x22,x8,80006494	 x22:0x8000a572  x8:0x00000000
       56295000	      5628	80006468	00f54d33	xor	x26,x10,x15	 x10:0xffffffa4 x15:0xe31f6000 x26=0x1ce09fa4
       56305000	      5629	8000646c	01091633	sll	x12,x18,x16	 x18:0x00000000 x16:0x80009fc4 x12=0x00000000
       56315000	      5630	80006470	00000013	addi	x0,x0,0	  x0:0x00000000
       56325000	      5631	80006474	00df4533	xor	x10,x30,x13	 x30:0x00000120 x13:0x00000000 x10=0x00000120
       56335000	      5632	80006478	ca14f013	andi	x0,x9,-863	  x9:0x00000000
       56345000	      5633	8000647c	03fddc63	bge	x27,x31,800064b4	 x27:0x80009f24 x31:0x00000262
       56355000	      5634	80006480	41af8133	sub	x2,x31,x26	 x31:0x00000262 x26:0x1ce09fa4  x2=0xe31f62be
       56365000	      5635	80006484	0466f463	bgeu	x13,x6,800064cc	 x13:0x00000000  x6:0x00000000
       56375000	      5636	00000000	00000013	addi	x0,x0,0	  x0:0x00000000
       56385000	      5637	800064c8	00000013	addi	x0,x0,0	  x0:0x00000000
       56395000	      5638	800064cc	0050fa63	bgeu	x1,x5,800064e0	  x1:0x00000000  x5:0x00000001
       56405000	      5639	800064d0	011a13b3	sll	x7,x20,x17	 x20:0x00000000 x17:0x00000000  x7=0x00000000
       56415000	      5640	800064d4	407708b3	sub	x17,x14,x7	 x14:0x00000000  x7:0x00000000 x17=0x00000000
       56425000	      5641	800064d8	4e322e13	slti	x28,x4,1251	  x4:0x00000001 x28=0x00000001
       56435000	      5642	800064dc	0108de33	srl	x28,x17,x16	 x17:0x00000000 x16:0x80009fc4 x28=0x00000000
       56445000	      5643	800064e0	0244f463	bgeu	x9,x4,80006508	  x9:0x00000000  x4:0x00000001
       56455000	      5644	800064e4	046f5063	bge	x30,x6,80006524	 x30:0x00000120  x6:0x00000000
       56465000	      5645	00000000	00000013	addi	x0,x0,0	  x0:0x00000000
       56475000	      5646	80006520	00000013	addi	x0,x0,0	  x0:0x00000000
       56485000	      5647	80006524	00000013	addi	x0,x0,0	  x0:0x00000000
       56495000	      5648	80006528	04ed1463	bne	x26,x14,80006570	 x26:0x1ce09fa4 x14:0x00000000
       56505000	      5649	00000000	00000013	addi	x0,x0,0	  x0:0x00000000
       56515000	      5650	8000656c	00000013	addi	x0,x0,0	  x0:0x00000000
       56525000	      5651	80006570	ee970393	addi	x7,x14,-279	 x14:0x00000000  x7=0xfffffee9
       56535000	      5652	80006574	48c196b7	lui	x13,0x48c19	 x13=0x48c19000
       56545000	      5653	80006578	029e0863	beq	x28,x9,800065a8	 x28:0x00000000  x9:0x00000000
       56555000	      5654	00000000	00000013	addi	x0,x0,0	  x0:0x00000000
       56565000	      5655	800065a4	00000013	addi	x0,x0,0	  x0:0x00000000
       56575000	      5656	800065a8	01ed1133	sll	x2,x26,x30	 x26:0x1ce09fa4 x30:0x00000120  x2=0x1ce09fa4
       56585000	      5657	800065ac	00a92a33	slt	x20,x18,x10	 x18:0x00000000 x10:0x00000120 x20=0x00000001
       56595000	      5658	800065b0	00e266b3	or	x13,x4,x14	  x4:0x00000001 x14:0x00000000 x13=0x00000001
       56605000	      5659	800065b4	01946733	or	x14,x8,x25	  x8:0x00000000 x25:0xfffffb04 x14=0xfffffb04
       56615000	      5660	800065b8	34a3d297	auipc	x5,0x34a3d	  x5=0xb4a435b4
       56625000	      5661	800065bc	fab8ba13	sltiu	x20,x17,-85	 x17:0x00000000 x20=0x00000001
       56635000	      5662	800065c0	00a637b3	sltu	x15,x12,x10	 x12:0x00000000 x10:0x00000120 x15=0x00000001
       56645000	      5663	800065c4	017b1663	bne	x22,x23,800065d0	 x22:0x8000a572 x23:0x00000000
       56655000	      5664	00000000	00000013	addi	x0,x0,0	  x0:0x00000000
       56665000	      5665	800065cc	00000013	addi	x0,x0,0	  x0:0x00000000
       56675000	      5666	800065d0	400e5293	srai	x5,x28,0x0	 x28:0x00000000  x5=0x00000000
       56685000	      5667	800065d4	00e691b3	sll	x3,x13,x14	 x13:0x00000001 x14:0xfffffb04  x3=0x00000010
       56695000	      5668	800065d8	0db35c63	bge	x6,x27,800066b0	  x6:0x00000000 x27:0x80009f24
       56705000	      5669	00000000	00000013	addi	x0,x0,0	  x0:0x00000000
       56715000	      5670	800066ac	00000013	addi	x0,x0,0	  x0:0x00000000
       56725000	      5671	800066b0	011d6bb3	or	x23,x26,x17	 x26:0x1ce09fa4 x17:0x00000000 x23=0x1ce09fa4
       56735000	      5672	800066b4	0179d133	srl	x2,x19,x23	 x19:0x00000001 x23:0x1ce09fa4  x2=0x00000000
       56745000	      5673	800066b8	015b1333	sll	x6,x22,x21	 x22:0x8000a572 x21:0x000004a3  x6=0x00052b90
       56755000	      5674	800066bc	01c94a63	blt	x18,x28,800066d0	 x18:0x00000000 x28:0x00000000
       56765000	      5675	800066c0	012c1e33	sll	x28,x24,x18	 x24:0xfffffe1d x18:0x00000000 x28=0xfffffe1d
       56775000	      5676	800066c4	04440863	beq	x8,x4,80006714	  x8:0x00000000  x4:0x00000001
       56785000	      5677	800066c8	03f2ca63	blt	x5,x31,800066fc	  x5:0x00000000 x31:0x00000262
       56795000	      5678	00000000	00000013	addi	x0,x0,0	  x0:0x00000000
       56805000	      5679	800066f8	00000013	addi	x0,x0,0	  x0:0x00000000
       56815000	      5680	800066fc	00f43d33	sltu	x26,x8,x15	  x8:0x00000000 x15:0x00000001 x26=0x00000001
       56825000	      5681	80006700	c69caf93	slti	x31,x25,-919	 x25:0xfffffb04 x31=0x00000001
       56835000	      5682	80006704	001bb033	sltu	x0,x23,x1	 x23:0x1ce09fa4  x1:0x00000000
       56845000	      5683	80006708	01304ab3	xor	x21,x0,x19	  x0:0x00000000 x19:0x00000001 x21=0x00000001
       56855000	      5684	8000670c	05607063	bgeu	x0,x22,8000674c	  x0:0x00000000 x22:0x8000a572
       56865000	      5685	80006710	40d25393	srai	x7,x4,0xd	  x4:0x00000001  x7=0x00000000
       56875000	      5686	80006714	017dde13	srli	x28,x27,0x17	 x27:0x80009f24 x28=0x00000100
       56885000	      5687	80006718	8a712393	slti	x7,x2,-1881	  x2:0x00000000  x7=0x00000000
       56895000	      5688	8000671c	07d2d663	bge	x5,x29,80006788	  x5:0x00000000 x29:0x77531fa4
       56905000	      5689	80006720	ee67c213	xori	x4,x15,-282	 x15:0x00000001  x4=0xfffffee7
       56915000	      5690	80006724	014a3fb3	sltu	x31,x20,x20	 x20:0x00000001 x20:0x00000001 x31=0x00000000
       56925000	      5691	80006728	4184d4b3	sra	x9,x9,x24	  x9:0x00000000 x24:0xfffffe1d  x9=0x00000000
       56935000	      5692	8000672c	4e65c417	auipc	x8,0x4e65c	  x8=0xce662728
       56945000	      5693	80006730	01ec9b33	sll	x22,x25,x30	 x25:0xfffffb04 x30:0x00000120 x22=0xfffffb04
       56955000	      5694	80006734	00cec233	xor	x4,x29,x12	 x29:0x77531fa4 x12:0x00000000  x4=0x77531fa4
       56965000	      5695	80006738	c4e52a13	slti	x20,x10,-946	 x10:0x00000120 x20=0x00000000
       56975000	      5696	8000673c	01e75793	srli	x15,x14,0x1e	 x14:0xfffffb04 x15=0x00000003
       56985000	      5697	80006740	008aed33	or	x26,x21,x8	 x21:0x00000001  x8:0xce662728 x26=0xce662729
       56995000	      5698	80006744	01ff4133	xor	x2,x30,x31	 x30:0x00000120 x31:0x00000000  x2=0x00000120
       57005000	      5699	80006748	00549a13	slli	x20,x9,0x5	  x9:0x00000000 x20=0x00000000
       57015000	      5700	8000674c	014f7433	and	x8,x30,x20	 x30:0x00000120 x20:0x00000000  x8=0x00000000
       57025000	      5701	80006750	be5147b7	lui	x15,0xbe514	 x15=0xbe514000
       57035000	      5702	80006754	06a8c463	blt	x17,x10,800067bc	 x17:0x00000000 x10:0x00000120
       57045000	      5703	00000000	00000013	addi	x0,x0,0	  x0:0x00000000
       57055000	      5704	800067b8	00000013	addi	x0,x0,0	  x0:0x00000000
       57065000	      5705	800067bc	41938b33	sub	x22,x7,x25	  x7:0x00000000 x25:0xfffffb04 x22=0x000004fc
       57075000	      5706	800067c0	00000013	addi	x0,x0,0	  x0:0x00000000
       57085000	      5707	800067c4	70f46793	ori	x15,x8,1807	  x8:0x00000000 x15=0x0000070f
       57095000	      5708	800067c8	017c33b3	sltu	x7,x24,x23	 x24:0xfffffe1d x23:0x1ce09fa4  x7=0x00000000
       57105000	      5709	800067cc	00105233	srl	x4,x0,x1	  x0:0x00000000  x1:0x00000000  x4=0x00000000
       57115000	      5710	800067d0	631feb13	ori	x22,x31,1585	 x31:0x00000000 x22=0x00000631
       57125000	      5711	800067d4	6dfd1037	lui	x0,0x6dfd1	
       57135000	      5712	800067d8	410a88b3	sub	x17,x21,x16	 x21:0x00000001 x16:0x80009fc4 x17=0x7fff603d
       57145000	      5713	800067dc	00c68663	beq	x13,x12,800067e8	 x13:0x00000001 x12:0x00000000
       57155000	      5714	800067e0	005ce933	or	x18,x25,x5	 x25:0xfffffb04  x5:0x00000000 x18=0xfffffb04
       57165000	      5715	800067e4	69a57513	andi	x10,x10,1690	 x10:0x00000120 x10=0x00000000
       57175000	      5716	800067e8	036c4a63	blt	x24,x22,8000681c	 x24:0xfffffe1d x22:0x00000631
       57185000	      5717	00000000	00000013	addi	x0,x0,0	  x0:0x00000000
       57195000	      5718	80006818	00000013	addi	x0,x0,0	  x0:0x00000000
       57205000	      5719	8000681c	00de9693	slli	x13,x29,0xd	 x29:0x77531fa4 x13=0x63f48000
       57215000	      5720	80006820	00000013	addi	x0,x0,0	  x0:0x00000000
       57225000	      5721	80006824	00bb8233	add	x4,x23,x11	 x23:0x1ce09fa4 x11:0x7fff6347  x4=0x9ce002eb
       57235000	      5722	80006828	d5cb62b7	lui	x5,0xd5cb6	  x5=0xd5cb6000
       57245000	      5723	8000682c	00efde63	bge	x31,x14,80006848	 x31:0x00000000 x14:0xfffffb04
       57255000	      5724	00000000	00000013	addi	x0,x0,0	  x0:0x00000000
       57265000	      5725	80006844	00000013	addi	x0,x0,0	  x0:0x00000000
       57275000	      5726	80006848	c9103493	sltiu	x9,x0,-879	  x0:0x00000000  x9=0x00000001
       57285000	      5727	8000684c	004b0a63	beq	x22,x4,80006860	 x22:0x00000631  x4:0x9ce002eb
       57295000	      5728	80006850	41c78f33	sub	x30,x15,x28	 x15:0x0000070f x28:0x00000100 x30=0x0000060f
       57305000	      5729	80006854	004fb333	sltu	x6,x31,x4	 x31:0x00000000  x4:0x9ce002eb  x6=0x00000001
       57315000	      5730	80006858	41fd5033	sra	x0,x26,x31	 x26:0xce662729 x31:0x00000000
       57325000	      5731	8000685c	03f08263	beq	x1,x31,80006880	  x1:0x00000000 x31:0x00000000
       57335000	      5732	00000000	00000013	addi	x0,x0,0	  x0:0x00000000
       57345000	      5733	8000687c	00000013	addi	x0,x0,0	  x0:0x00000000
       57355000	      5734	80006880	04014863	blt	x2,x0,800068d0	  x2:0x00000120  x0:0x00000000
       57365000	      5735	80006884	943b5497	auipc	x9,0x943b5	  x9=0x143bb880
       57375000	      5736	80006888	d1ca9e17	auipc	x28,0xd1ca9	 x28=0x51caf884
       57385000	      5737	8000688c	008dee63	bltu	x27,x8,800068a8	 x27:0x80009f24  x8:0x00000000
       57395000	      5738	80006890	03a28c63	beq	x5,x26,800068c8	  x5:0xd5cb6000 x26:0xce662729
       57405000	      5739	80006894	00000013	addi	x0,x0,0	  x0:0x00000000
       57415000	      5740	80006898	002e9193	slli	x3,x29,0x2	 x29:0x77531fa4  x3=0xdd4c7e90
       57425000	      5741	8000689c	fa646313	ori	x6,x8,-90	  x8:0x00000000  x6=0xffffffa6
       57435000	      5742	800068a0	02b11663	bne	x2,x11,800068cc	  x2:0x00000120 x11:0x7fff6347
       57445000	      5743	00000000	00000013	addi	x0,x0,0	  x0:0x00000000
       57455000	      5744	800068c8	00000013	addi	x0,x0,0	  x0:0x00000000
       57465000	      5745	800068cc	055cd263	bge	x25,x21,80006910	 x25:0xfffffb04 x21:0x00000001
       57475000	      5746	800068d0	40335e13	srai	x28,x6,0x3	  x6:0xffffffa6 x28=0xfffffff4
       57485000	      5747	800068d4	7c57ec93	ori	x25,x15,1989	 x15:0x0000070f x25=0x000007cf
       57495000	      5748	800068d8	26877e13	andi	x28,x14,616	 x14:0xfffffb04 x28=0x00000200
       57505000	      5749	800068dc	6af98113	addi	x2,x19,1711	 x19:0x00000001  x2=0x000006b0
       57515000	      5750	800068e0	00f305b3	add	x11,x6,x15	  x6:0xffffffa6 x15:0x0000070f x11=0x000006b5
       57525000	      5751	800068e4	00207a63	bgeu	x0,x2,800068f8	  x0:0x00000000  x2:0x000006b0
       57535000	      5752	800068e8	02b2e063	bltu	x5,x11,80006908	  x5:0xd5cb6000 x11:0x000006b5
       57545000	      5753	800068ec	025a8863	beq	x21,x5,8000691c	 x21:0x00000001  x5:0xd5cb6000
       57555000	      5754	800068f0	44987f13	andi	x30,x16,1097	 x16:0x80009fc4 x30=0x00000440
       57565000	      5755	800068f4	00941b93	slli	x23,x8,0x9	  x8:0x00000000 x23=0x00000000
       57575000	      5756	800068f8	00000013	addi	x0,x0,0	  x0:0x00000000
       57585000	      5757	800068fc	499ca493	slti	x9,x25,1177	 x25:0x000007cf  x9=0x00000000
       57595000	      5758	80006900	23600b93	addi	x23,x0,566	  x0:0x00000000 x23=0x00000236
       57605000	      5759	80006904	00e2a8b3	slt	x17,x5,x14	  x5:0xd5cb6000 x14:0xfffffb04 x17=0x00000001
       57615000	      5760	80006908	0ef77713	andi	x14,x14,239	 x14:0xfffffb04 x14=0x00000004
       57625000	      5761	8000690c	31e7e737	lui	x14,0x31e7e	 x14=0x31e7e000
       57635000	      5762	80006910	01afa5b3	slt	x11,x31,x26	 x31:0x00000000 x26:0xce662729 x11=0x00000000
       57645000	      5763	80006914	00ad5113	srli	x2,x26,0xa	 x26:0xce662729  x2=0x00339989
       57655000	      5764	80006918	007cbcb3	sltu	x25,x25,x7	 x25:0x000007cf  x7:0x00000000 x25=0x00000000
       57665000	      5765	8000691c	05167463	bgeu	x12,x17,80006964	 x12:0x00000000 x17:0x00000001
       57675000	      5766	80006920	00369f93	slli	x31,x13,0x3	 x13:0x63f48000 x31=0x1fa40000
       57685000	      5767	80006924	79df7a13	andi	x20,x30,1949	 x30:0x00000440 x20=0x00000400
       57695000	      5768	80006928	2cca4893	xori	x17,x20,716	 x20:0x00000400 x17=0x000006cc
       57705000	      5769	8000692c	01e01493	slli	x9,x0,0x1e	  x0:0x00000000  x9=0x00000000
       57715000	      5770	80006930	04559263	bne	x11,x5,80006974	 x11:0x00000000  x5:0xd5cb6000
       57725000	      5771	00000000	00000013	addi	x0,x0,0	  x0:0x00000000
       57735000	      5772	80006970	00000013	addi	x0,x0,0	  x0:0x00000000
       57745000	      5773	80006974	4d404d13	xori	x26,x0,1236	  x0:0x00000000 x26=0x000004d4
       57755000	      5774	80006978	00000013	addi	x0,x0,0	  x0:0x00000000
       57765000	      5775	8000697c	4583bb13	sltiu	x22,x7,1112	  x7:0x00000000 x22=0x00000001
       57775000	      5776	80006980	01ac7a63	bgeu	x24,x26,80006994	 x24:0xfffffe1d x26:0x000004d4
       57785000	      5777	00000000	00000013	addi	x0,x0,0	  x0:0x00000000
       57795000	      5778	80006990	00000013	addi	x0,x0,0	  x0:0x00000000
       57805000	      5779	80006994	00000013	addi	x0,x0,0	  x0:0x00000000
       57815000	      5780	80006998	4c40bb17	auipc	x22,0x4c40b	 x22=0xcc411994
       57825000	      5781	8000699c	62733693	sltiu	x13,x6,1575	  x6:0xffffffa6 x13=0x00000000
       57835000	      5782	800069a0	541def93	ori	x31,x27,1345	 x27:0x80009f24 x31=0x80009f65
       57845000	      5783	800069a4	03e79a63	bne	x15,x30,800069d8	 x15:0x0000070f x30:0x00000440
       57855000	      5784	00000000	00000013	addi	x0,x0,0	  x0:0x00000000
       57865000	      5785	800069d4	00000013	addi	x0,x0,0	  x0:0x00000000
       57875000	      5786	800069d8	0063f033	and	x0,x7,x6	  x7:0x00000000  x6:0xffffffa6
       57885000	      5787	800069dc	00000013	addi	x0,x0,0	  x0:0x00000000
       57895000	      5788	800069e0	ebf6aa13	slti	x20,x13,-321	 x13:0x00000000 x20=0x00000000
       57905000	      5789	800069e4	04fe8263	beq	x29,x15,80006a28	 x29:0x77531fa4 x15:0x0000070f
       57915000	      5790	800069e8	009d0eb3	add	x29,x26,x9	 x26:0x000004d4  x9:0x00000000 x29=0x000004d4
       57925000	      5791	800069ec	03a17c63	bgeu	x2,x26,80006a24	  x2:0x00339989 x26:0x000004d4
       57935000	      5792	00000000	00000013	addi	x0,x0,0	  x0:0x00000000
       57945000	      5793	80006a20	00000013	addi	x0,x0,0	  x0:0x00000000
       57955000	      5794	80006a24	0282c863	blt	x5,x8,80006a54	  x5:0xd5cb6000  x8:0x00000000
       57965000	      5795	00000000	00000013	addi	x0,x0,0	  x0:0x00000000
       57975000	      5796	80006a50	00000013	addi	x0,x0,0	  x0:0x00000000
       57985000	      5797	80006a54	01c90033	add	x0,x18,x28	 x18:0xfffffb04 x28:0x00000200
       57995000	      5798	80006a58	00139e93	slli	x29,x7,0x1	  x7:0x00000000 x29=0x00000000
       58005000	      5799	80006a5c	4021df93	srai	x31,x3,0x2	  x3:0xdd4c7e90 x31=0xf7531fa4
       58015000	      5800	80006a60	cc8f3c13	sltiu	x24,x30,-824	 x30:0x00000440 x24=0x00000001
       58025000	      5801	80006a64	404b5113	srai	x2,x22,0x4	 x22:0xcc411994  x2=0xfcc41199
       58035000	      5802	80006a68	011ee9b3	or	x19,x29,x17	 x29:0x00000000 x17:0x000006cc x19=0x000006cc
       58045000	      5803	80006a6c	016413b3	sll	x7,x8,x22	  x8:0x00000000 x22:0xcc411994  x7=0x00000000
       58055000	      5804	80006a70	00a9d113	srli	x2,x19,0xa	 x19:0x000006cc  x2=0x00000001
       58065000	      5805	80006a74	040bf063	bgeu	x23,x0,80006ab4	 x23:0x00000236  x0:0x00000000
       58075000	      5806	00000000	00000013	addi	x0,x0,0	  x0:0x00000000
       58085000	      5807	80006ab0	00000013	addi	x0,x0,0	  x0:0x00000000
       58095000	      5808	80006ab4	01ed7433	and	x8,x26,x30	 x26:0x000004d4 x30:0x00000440  x8=0x00000440
       58105000	      5809	80006ab8	11044f17	auipc	x30,0x11044	 x30=0x9104aab4
       58115000	      5810	80006abc	00bc7e33	and	x28,x24,x11	 x24:0x00000001 x11:0x00000000 x28=0x00000000
       58125000	      5811	80006ac0	012009b3	add	x19,x0,x18	  x0:0x00000000 x18:0xfffffb04 x19=0xfffffb04
       58135000	      5812	80006ac4	05751263	bne	x10,x23,80006b08	 x10:0x00000000 x23:0x00000236
       58145000	      5813	00000000	00000013	addi	x0,x0,0	  x0:0x00000000
       58155000	      5814	80006b04	00000013	addi	x0,x0,0	  x0:0x00000000
       58165000	      5815	80006b08	410ad713	srai	x14,x21,0x10	 x21:0x00000001 x14=0x00000000
       58175000	      5816	80006b0c	00000013	addi	x0,x0,0	  x0:0x00000000
       58185000	      5817	80006b10	004da903	lw	x18,4(x27)	 x27:0x80009f24 x18=0x80004ed0 PA:0x80009f28
       58195000	      5818	80006b14	40a20333	sub	x6,x4,x10	  x4:0x9ce002eb x10:0x00000000  x6=0x9ce002eb
       58205000	      5819	80006b18	01b55d13	srli	x26,x10,0x1b	 x10:0x00000000 x26=0x00000000
       58215000	      5820	80006b1c	00000013	addi	x0,x0,0	  x0:0x00000000
       58225000	      5821	80006b20	01386d33	or	x26,x16,x19	 x16:0x80009fc4 x19:0xfffffb04 x26=0xffffffc4
       58235000	      5822	80006b24	e8476413	ori	x8,x14,-380	 x14:0x00000000  x8=0xfffffe84
       58245000	      5823	80006b28	010d8d93	addi	x27,x27,16	 x27:0x80009f24 x27=0x80009f34
       58255000	      5824	80006b2c	01fda4b3	slt	x9,x27,x31	 x27:0x80009f34 x31:0xf7531fa4  x9=0x00000001
       58265000	      5825	80006b30	00190c93	addi	x25,x18,1	 x18:0x80004ed0 x25=0x80004ed1
       58275000	      5826	80006b34	000c8ce7	jalr	x25,x25,0	 x25:0x80004ed1 x25=0x80006b34
       58285000	      5827	00000000	00000013	addi	x0,x0,0	  x0:0x00000000
       58295000	      5828	80004ed0	00000013	addi	x0,x0,0	  x0:0x00000000
       58305000	      5829	80004ed4	00003797	auipc	x15,0x3	 x15=0x80007ed0
       58315000	      5830	80004ed8	44b78793	addi	x15,x15,1099	 x15:0x80007ed0 x15=0x8000831b
       58325000	      5831	80004edc	007abe33	sltu	x28,x21,x7	 x21:0x00000001  x7:0x00000000 x28=0x00000000
       58335000	      5832	80004ee0	0bb78823	sb	x27,176(x15)	 x15:0x8000831b x27:0x80009f34 PA:0x800083cb
       58345000	      5833	80004ee4	3bbb2a93	slti	x21,x22,955	 x22:0xcc411994 x21=0x00000001
       58355000	      5834	80004ee8	4d2e0a93	addi	x21,x28,1234	 x28:0x00000000 x21=0x000004d2
       58365000	      5835	80004eec	ec690f93	addi	x31,x18,-314	 x18:0x80004ed0 x31=0x80004d96
       58375000	      5836	80004ef0	00eddc13	srli	x24,x27,0xe	 x27:0x80009f34 x24=0x00020002
       58385000	      5837	80004ef4	5bfe8313	addi	x6,x29,1471	 x29:0x00000000  x6=0x000005bf
       58395000	      5838	80004ef8	9c1b8413	addi	x8,x23,-1599	 x23:0x00000236  x8=0xfffffbf7
       58405000	      5839	80004efc	00c78b03	lb	x22,12(x15)	 x15:0x8000831b x22=0xffffffa6 PA:0x80008327
       58415000	      5840	80004f00	0063dc33	srl	x24,x7,x6	  x7:0x00000000  x6:0x000005bf x24=0x00000000
       58425000	      5841	80004f04	003fd6b3	srl	x13,x31,x3	 x31:0x80004d96  x3:0xdd4c7e90 x13=0x00008000
       58435000	      5842	80004f08	f0f78903	lb	x18,-241(x15)	 x15:0x8000831b x18=0x00000062 PA:0x8000822a
       58445000	      5843	80004f0c	41325133	sra	x2,x4,x19	  x4:0x9ce002eb x19:0xfffffb04  x2=0xf9ce002e
       58455000	      5844	80004f10	00278433	add	x8,x15,x2	 x15:0x8000831b  x2:0xf9ce002e  x8=0x79ce8349
       58465000	      5845	80004f14	00b78fa3	sb	x11,31(x15)	 x15:0x8000831b x11:0x00000000 PA:0x8000833a
       58475000	      5846	80004f18	f7c78c03	lb	x24,-132(x15)	 x15:0x8000831b x24=0x00000000 PA:0x80008297
       58485000	      5847	80004f1c	415bdf13	srai	x30,x23,0x15	 x23:0x00000236 x30=0x00000000
       58495000	      5848	80004f20	00148f33	add	x30,x9,x1	  x9:0x00000001  x1:0x00000000 x30=0x00000001
       58505000	      5849	80004f24	00000013	addi	x0,x0,0	  x0:0x00000000
       58515000	      5850	80004f28	01d9d313	srli	x6,x19,0x1d	 x19:0xfffffb04  x6=0x00000007
       58525000	      5851	80004f2c	015c4e33	xor	x28,x24,x21	 x24:0x00000000 x21:0x000004d2 x28=0x000004d2
       58535000	      5852	80004f30	0137da03	lhu	x20,19(x15)	 x15:0x8000831b x20=0x00000f6c PA:0x8000832e
       58545000	      5853	80004f34	00e6f133	and	x2,x13,x14	 x13:0x00008000 x14:0x00000000  x2=0x00000000
       58555000	      5854	80004f38	fc878203	lb	x4,-56(x15)	 x15:0x8000831b  x4=0xfffffffb PA:0x800082e3
       58565000	      5855	80004f3c	ffc78403	lb	x8,-4(x15)	 x15:0x8000831b  x8=0x00000029 PA:0x80008317
       58575000	      5856	80004f40	0de793a3	sh	x30,199(x15)	 x15:0x8000831b x30:0x00000001 PA:0x800083e2
       58585000	      5857	80004f44	03a78703	lb	x14,58(x15)	 x15:0x8000831b x14=0xffffffa4 PA:0x80008355
       58595000	      5858	80004f48	005c7733	and	x14,x24,x5	 x24:0x00000000  x5:0xd5cb6000 x14=0x00000000
       58605000	      5859	80004f4c	40fa0133	sub	x2,x20,x15	 x20:0x00000f6c x15:0x8000831b  x2=0x7fff8c51
       58615000	      5860	80004f50	07d7c703	lbu	x14,125(x15)	 x15:0x8000831b x14=0x0000005a PA:0x80008398
       58625000	      5861	80004f54	009cdf93	srli	x31,x25,0x9	 x25:0x80006b34 x31=0x00400035
       58635000	      5862	80004f58	0093f333	and	x6,x7,x9	  x7:0x00000000  x9:0x00000001  x6=0x00000000
       58645000	      5863	80004f5c	0b6793a3	sh	x22,167(x15)	 x15:0x8000831b x22:0xffffffa6 PA:0x800083c2
       58655000	      5864	80004f60	0b17d603	lhu	x12,177(x15)	 x15:0x8000831b x12=0x0000518d PA:0x800083cc
       58665000	      5865	80004f64	0ae79da3	sh	x14,187(x15)	 x15:0x8000831b x14:0x0000005a PA:0x800083d6
       58675000	      5866	80004f68	002dd593	srli	x11,x27,0x2	 x27:0x80009f34 x11=0x200027cd
       58685000	      5867	80004f6c	f0779b03	lh	x22,-249(x15)	 x15:0x8000831b x22=0x000016dd PA:0x80008222
       58695000	      5868	80004f70	42d38a13	addi	x20,x7,1069	  x7:0x00000000 x20=0x0000042d
       58705000	      5869	80004f74	40e288b3	sub	x17,x5,x14	  x5:0xd5cb6000 x14:0x0000005a x17=0xd5cb5fa6
       58715000	      5870	80004f78	00894733	xor	x14,x18,x8	 x18:0x00000062  x8:0x00000029 x14=0x0000004b
       58725000	      5871	80004f7c	00000013	addi	x0,x0,0	  x0:0x00000000
       58735000	      5872	80004f80	00fd6033	or	x0,x26,x15	 x26:0xffffffc4 x15:0x8000831b
       58745000	      5873	80004f84	01559263	bne	x11,x21,80004f88	 x11:0x200027cd x21:0x000004d2
       58755000	      5874	00000000	00000013	addi	x0,x0,0	  x0:0x00000000
       58765000	      5875	80004f84	00000013	addi	x0,x0,0	  x0:0x00000000
       58775000	      5876	80004f88	01ae4463	blt	x28,x26,80004f90	 x28:0x000004d2 x26:0xffffffc4
       58785000	      5877	80004f8c	01540933	add	x18,x8,x21	  x8:0x00000029 x21:0x000004d2 x18=0x000004fb
       58795000	      5878	80004f90	410f5ab3	sra	x21,x30,x16	 x30:0x00000001 x16:0x80009fc4 x21=0x00000000
       58805000	      5879	80004f94	004e0333	add	x6,x28,x4	 x28:0x000004d2  x4:0xfffffffb  x6=0x000004cd
       58815000	      5880	80004f98	fc934893	xori	x17,x6,-55	  x6:0x000004cd x17=0xfffffb04
       58825000	      5881	80004f9c	00c5f863	bgeu	x11,x12,80004fac	 x11:0x200027cd x12:0x0000518d
       58835000	      5882	00000000	00000013	addi	x0,x0,0	  x0:0x00000000
       58845000	      5883	80004fa8	00000013	addi	x0,x0,0	  x0:0x00000000
       58855000	      5884	80004fac	000bd713	srli	x14,x23,0x0	 x23:0x00000236 x14=0x00000236
       58865000	      5885	80004fb0	00969533	sll	x10,x13,x9	 x13:0x00008000  x9:0x00000001 x10=0x00010000
       58875000	      5886	80004fb4	302c6013	ori	x0,x24,770	 x24:0x00000000
       58885000	      5887	80004fb8	66ddae93	slti	x29,x27,1645	 x27:0x80009f34 x29=0x00000001
       58895000	      5888	80004fbc	02ab5263	bge	x22,x10,80004fe0	 x22:0x000016dd x10:0x00010000
       58905000	      5889	80004fc0	9636e617	auipc	x12,0x9636e	 x12=0x16372fbc
       58915000	      5890	80004fc4	00ccb7b3	sltu	x15,x25,x12	 x25:0x80006b34 x12:0x16372fbc x15=0x00000000
       58925000	      5891	80004fc8	f1a86613	ori	x12,x16,-230	 x16:0x80009fc4 x12=0xffffffde
       58935000	      5892	80004fcc	041cc263	blt	x25,x1,80005010	 x25:0x80006b34  x1:0x00000000
       58945000	      5893	00000000	00000013	addi	x0,x0,0	  x0:0x00000000
       58955000	      5894	8000500c	00000013	addi	x0,x0,0	  x0:0x00000000
       58965000	      5895	80005010	40415933	sra	x18,x2,x4	  x2:0x7fff8c51  x4:0xfffffffb x18=0x0000000f
       58975000	      5896	80005014	00d9d613	srli	x12,x19,0xd	 x19:0xfffffb04 x12=0x0007ffff
       58985000	      5897	80005018	01ca7bb3	and	x23,x20,x28	 x20:0x0000042d x28:0x000004d2 x23=0x00000400
       58995000	      5898	8000501c	5f4b3693	sltiu	x13,x22,1524	 x22:0x000016dd x13=0x00000000
       59005000	      5899	80005020	41fc5f33	sra	x30,x24,x31	 x24:0x00000000 x31:0x00400035 x30=0x00000000
       59015000	      5900	80005024	5c704c93	xori	x25,x0,1479	  x0:0x00000000 x25=0x000005c7
       59025000	      5901	80005028	0b1be313	ori	x6,x23,177	 x23:0x00000400  x6=0x000004b1
       59035000	      5902	8000502c	00000013	addi	x0,x0,0	  x0:0x00000000
       59045000	      5903	80005030	052cf663	bgeu	x25,x18,8000507c	 x25:0x000005c7 x18:0x0000000f
       59055000	      5904	00000000	00000013	addi	x0,x0,0	  x0:0x00000000
       59065000	      5905	80005078	00000013	addi	x0,x0,0	  x0:0x00000000
       59075000	      5906	8000507c	00b34033	xor	x0,x6,x11	  x6:0x000004b1 x11:0x200027cd
       59085000	      5907	80005080	01172133	slt	x2,x14,x17	 x14:0x00000236 x17:0xfffffb04  x2=0x00000000
       59095000	      5908	80005084	00baf9b3	and	x19,x21,x11	 x21:0x00000000 x11:0x200027cd x19=0x00000000
       59105000	      5909	80005088	00828433	add	x8,x5,x8	  x5:0xd5cb6000  x8:0x00000029  x8=0xd5cb6029
       59115000	      5910	8000508c	0037d293	srli	x5,x15,0x3	 x15:0x00000000  x5=0x00000000
       59125000	      5911	80005090	003ffab3	and	x21,x31,x3	 x31:0x00400035  x3:0xdd4c7e90 x21=0x00400010
       59135000	      5912	80005094	0170b6b3	sltu	x13,x1,x23	  x1:0x00000000 x23:0x00000400 x13=0x00000001
       59145000	      5913	80005098	019e5bb3	srl	x23,x28,x25	 x28:0x000004d2 x25:0x000005c7 x23=0x00000009
       59155000	      5914	8000509c	00f90c63	beq	x18,x15,800050b4	 x18:0x0000000f x15:0x00000000
       59165000	      5915	800050a0	961ccf93	xori	x31,x25,-1695	 x25:0x000005c7 x31=0xfffffca6
       59175000	      5916	800050a4	404dd913	srai	x18,x27,0x4	 x27:0x80009f34 x18=0xf80009f3
       59185000	      5917	800050a8	01a7ad33	slt	x26,x15,x26	 x15:0x00000000 x26:0xffffffc4 x26=0x00000000
       59195000	      5918	800050ac	004835b3	sltu	x11,x16,x4	 x16:0x80009fc4  x4:0xfffffffb x11=0x00000001
       59205000	      5919	800050b0	006f5733	srl	x14,x30,x6	 x30:0x00000000  x6:0x000004b1 x14=0x00000000
       59215000	      5920	800050b4	713ddf97	auipc	x31,0x713dd	 x31=0xf13e20b0
       59225000	      5921	800050b8	b2ee8597	auipc	x11,0xb2ee8	 x11=0x32eed0b4
       59235000	      5922	800050bc	00085793	srli	x15,x16,0x0	 x16:0x80009fc4 x15=0x80009fc4
       59245000	      5923	800050c0	016f5eb3	srl	x29,x30,x22	 x30:0x00000000 x22:0x000016dd x29=0x00000000
       59255000	      5924	800050c4	17221b37	lui	x22,0x17221	 x22=0x17221000
       59265000	      5925	800050c8	40c752b3	sra	x5,x14,x12	 x14:0x00000000 x12:0x0007ffff  x5=0x00000000
       59275000	      5926	800050cc	ffffc897	auipc	x17,0xffffc	 x17=0x800010c8
       59285000	      5927	800050d0	f4088893	addi	x17,x17,-192	 x17:0x800010c8 x17=0x80001008
       59295000	      5928	800050d4	008a9bb3	sll	x23,x21,x8	 x21:0x00400010  x8:0xd5cb6029 x23=0x80002000
       59305000	      5929	800050d8	f3988893	addi	x17,x17,-199	 x17:0x80001008 x17=0x80000f41
       59315000	      5930	800050dc	cf1ae493	ori	x9,x21,-783	 x21:0x00400010  x9=0xfffffcf1
       59325000	      5931	800050e0	0164ca33	xor	x20,x9,x22	  x9:0xfffffcf1 x22:0x17221000 x20=0xe8ddecf1
       59335000	      5932	800050e4	0c888967	jalr	x18,x17,200	 x17:0x80000f41 x18=0x800050e4
       59345000	      5933	00000000	00000013	addi	x0,x0,0	  x0:0x00000000
       59355000	      5934	80001008	00000013	addi	x0,x0,0	  x0:0x00000000
       59365000	      5935	8000100c	fc8d8d93	addi	x27,x27,-56	 x27:0x80009f34 x27=0x80009efc
       59375000	      5936	80001010	c158ef13	ori	x30,x17,-1003	 x17:0x80000f41 x30=0xffffff55
       59385000	      5937	80001014	257b0113	addi	x2,x22,599	 x22:0x17221000  x2=0x17221257
       59395000	      5938	80001018	012da223	sw	x18,4(x27)	 x27:0x80009efc x18:0x800050e4 PA:0x80009f00
       59405000	      5939	8000101c	0170d993	srli	x19,x1,0x17	  x1:0x00000000 x19=0x00000000
       59415000	      5940	80001020	00007897	auipc	x17,0x7	 x17=0x8000801c
       59425000	      5941	80001024	1fb88893	addi	x17,x17,507	 x17:0x8000801c x17=0x80008217
       59435000	      5942	80001028	405ad393	srai	x7,x21,0x5	 x21:0x00400010  x7=0x00020000
       59445000	      5943	8000102c	17088d03	lb	x26,368(x17)	 x17:0x80008217 x26=0xffffffc1 PA:0x80008387
       59455000	      5944	80001030	40925133	sra	x2,x4,x9	  x4:0xfffffffb  x9:0xfffffcf1  x2=0xffffffff
       59465000	      5945	80001034	c8d10b93	addi	x23,x2,-883	  x2:0xffffffff x23=0xfffffc8c
       59475000	      5946	80001038	30789aa3	sh	x7,789(x17)	 x17:0x80008217  x7:0x00020000 PA:0x8000852c
       59485000	      5947	8000103c	1958df03	lhu	x30,405(x17)	 x17:0x80008217 x30=0x0000d158 PA:0x800083ac
       59495000	      5948	80001040	0c688223	sb	x6,196(x17)	 x17:0x80008217  x6:0x000004b1 PA:0x800082db
       59505000	      5949	80001044	1f48cc03	lbu	x24,500(x17)	 x17:0x80008217 x24=0x0000009e PA:0x8000840b
       59515000	      5950	80001048	48b89da3	sh	x11,1179(x17)	 x17:0x80008217 x11:0x32eed0b4 PA:0x800086b2
       59525000	      5951	8000104c	00000013	addi	x0,x0,0	  x0:0x00000000
       59535000	      5952	80001050	5d888aa3	sb	x24,1493(x17)	 x17:0x80008217 x24:0x0000009e PA:0x800087ec
       59545000	      5953	80001054	31589b03	lh	x22,789(x17)	 x17:0x80008217 x22=0x00000000 PA:0x8000852c
       59555000	      5954	80001058	40388423	sb	x3,1032(x17)	 x17:0x80008217  x3:0xdd4c7e90 PA:0x8000861f
       59565000	      5955	8000105c	3ac88f03	lb	x30,940(x17)	 x17:0x80008217 x30=0x0000004b PA:0x800085c3
       59575000	      5956	80001060	e4b89103	lh	x2,-437(x17)	 x17:0x80008217  x2=0xfffff42d PA:0x80008062
       59585000	      5957	80001064	ed78d303	lhu	x6,-297(x17)	 x17:0x80008217  x6=0x00004309 PA:0x800080ee
       59595000	      5958	80001068	01ec04b3	add	x9,x24,x30	 x24:0x0000009e x30:0x0000004b  x9=0x000000e9
       59605000	      5959	8000106c	e698d903	lhu	x18,-407(x17)	 x17:0x80008217 x18=0x0000c694 PA:0x80008080
       59615000	      5960	80001070	f9e88423	sb	x30,-120(x17)	 x17:0x80008217 x30:0x0000004b PA:0x8000819f
       59625000	      5961	80001074	e8188c83	lb	x25,-383(x17)	 x17:0x80008217 x25=0x0000007c PA:0x80008098
       59635000	      5962	80001078	0e68cf03	lbu	x30,230(x17)	 x17:0x80008217 x30=0x0000009a PA:0x800082fd
       59645000	      5963	8000107c	a8556a93	ori	x21,x10,-1403	 x10:0x00010000 x21=0xfffffa85
       59655000	      5964	80001080	4a488203	lb	x4,1188(x17)	 x17:0x80008217  x4=0x00000019 PA:0x800086bb
       59665000	      5965	80001084	f9388da3	sb	x19,-101(x17)	 x17:0x80008217 x19:0x00000000 PA:0x800081b2
       59675000	      5966	80001088	52e8c703	lbu	x14,1326(x17)	 x17:0x80008217 x14=0x000000cf PA:0x80008745
       59685000	      5967	00000000	00000013	addi	x0,x0,0	  x0:0x00000000
       59695000	      5968	8000108c	54e88103	lb	x2,1358(x17)	 x17:0x80008217  x2=0x00000058 PA:0x80008765
       59705000	      5969	80001090	4914b413	sltiu	x8,x9,1169	  x9:0x000000e9  x8=0x00000001
       59715000	      5970	80001094	0185d233	srl	x4,x11,x24	 x11:0x32eed0b4 x24:0x0000009e  x4=0x00000000
       59725000	      5971	80001098	22f8c903	lbu	x18,559(x17)	 x17:0x80008217 x18=0x00000087 PA:0x80008446
       59735000	      5972	8000109c	27189703	lh	x14,625(x17)	 x17:0x80008217 x14=0x00004d2a PA:0x80008488
       59745000	      5973	800010a0	f678dd03	lhu	x26,-153(x17)	 x17:0x80008217 x26=0x0000f246 PA:0x8000817e
       59755000	      5974	800010a4	00fa1693	slli	x13,x20,0xf	 x20:0xe8ddecf1 x13=0xf6788000
       59765000	      5975	800010a8	2568c503	lbu	x10,598(x17)	 x17:0x80008217 x10=0x00000099 PA:0x8000846d
       59775000	      5976	800010ac	35c88203	lb	x4,860(x17)	 x17:0x80008217  x4=0x0000002f PA:0x80008573
       59785000	      5977	800010b0	4145db13	srai	x22,x11,0x14	 x11:0x32eed0b4 x22=0x0000032e
       59795000	      5978	800010b4	47688623	sb	x22,1132(x17)	 x17:0x80008217 x22:0x0000032e PA:0x80008683
       59805000	      5979	800010b8	06688b83	lb	x23,102(x17)	 x17:0x80008217 x23=0xffffffe7 PA:0x8000827d
       59815000	      5980	00000000	00000013	addi	x0,x0,0	  x0:0x00000000
       59825000	      5981	800010bc	135bce13	xori	x28,x23,309	 x23:0xffffffe7 x28=0xfffffed2
       59835000	      5982	800010c0	24989b83	lh	x23,585(x17)	 x17:0x80008217 x23=0xffffd86d PA:0x80008460
       59845000	      5983	800010c4	38a88e23	sb	x10,924(x17)	 x17:0x80008217 x10:0x00000099 PA:0x800085b3
       59855000	      5984	800010c8	38c8f793	andi	x15,x17,908	 x17:0x80008217 x15=0x00000204
       59865000	      5985	800010cc	40ad8e33	sub	x28,x27,x10	 x27:0x80009efc x10:0x00000099 x28=0x80009e63
       59875000	      5986	800010d0	1cf8d003	lhu	x0,463(x17)	 x17:0x80008217 PA:0x800083e6
       59885000	      5987	800010d4	00007117	auipc	x2,0x7	  x2=0x800080d0
       59895000	      5988	800010d8	6aa10113	addi	x2,x2,1706	  x2:0x800080d0  x2=0x8000877a
       59905000	      5989	800010dc	015ca933	slt	x18,x25,x21	 x25:0x0000007c x21:0xfffffa85 x18=0x00000000
       59915000	      5990	800010e0	00000013	addi	x0,x0,0	  x0:0x00000000
       59925000	      5991	800010e4	138d0b93	addi	x23,x26,312	 x26:0x0000f246 x23=0x0000f37e
       59935000	      5992	800010e8	fd910aa3	sb	x25,-43(x2)	  x2:0x8000877a x25:0x0000007c PA:0x8000874f
       59945000	      5993	800010ec	c4afa193	slti	x3,x31,-950	 x31:0xf13e20b0  x3=0x00000001
       59955000	      5994	800010f0	0067d993	srli	x19,x15,0x6	 x15:0x00000204 x19=0x00000008
       59965000	      5995	800010f4	f6914203	lbu	x4,-151(x2)	  x2:0x8000877a  x4=0x000000ae PA:0x800086e3
       59975000	      5996	800010f8	00563bb3	sltu	x23,x12,x5	 x12:0x0007ffff  x5:0x00000000 x23=0x00000000
       59985000	      5997	800010fc	00f2a333	slt	x6,x5,x15	  x5:0x00000000 x15:0x00000204  x6=0x00000001
       59995000	      5998	80001100	08914a03	lbu	x20,137(x2)	  x2:0x8000877a x20=0x000000b0 PA:0x80008803
       60005000	      5999	80001104	01111c23	sh	x17,24(x2)	  x2:0x8000877a x17:0x80008217 PA:0x80008792
       60015000	      6000	80001108	00a40eb3	add	x29,x8,x10	  x8:0x00000001 x10:0x00000099 x29=0x0000009a
       60025000	      6001	8000110c	f83108a3	sb	x3,-111(x2)	  x2:0x8000877a  x3:0x00000001 PA:0x8000870b
       60035000	      6002	80001110	00e1eb33	or	x22,x3,x14	  x3:0x00000001 x14:0x00004d2a x22=0x00004d2b
       60045000	      6003	80001114	fb910da3	sb	x25,-69(x2)	  x2:0x8000877a x25:0x0000007c PA:0x80008735
       60055000	      6004	80001118	ffc14b83	lbu	x23,-4(x2)	  x2:0x8000877a x23=0x000000f2 PA:0x80008776
       60065000	      6005	8000111c	00e107a3	sb	x14,15(x2)	  x2:0x8000877a x14:0x00004d2a PA:0x80008789
       60075000	      6006	80001120	fc914503	lbu	x10,-55(x2)	  x2:0x8000877a x10=0x00000005 PA:0x80008743
       60085000	      6007	80001124	07410603	lb	x12,116(x2)	  x2:0x8000877a x12=0x0000002c PA:0x800087ee
       60095000	      6008	80001128	30afb013	sltiu	x0,x31,778	 x31:0xf13e20b0
       60105000	      6009	8000112c	6eb5c513	xori	x10,x11,1771	 x11:0x32eed0b4 x10=0x32eed65f
       60115000	      6010	80001130	33b78513	addi	x10,x15,827	 x15:0x00000204 x10=0x0000053f
       60125000	      6011	80001134	f2510a83	lb	x21,-219(x2)	  x2:0x8000877a x21=0x00000021 PA:0x8000869f
       60135000	      6012	80001138	b251b513	sltiu	x10,x3,-1243	  x3:0x00000001 x10=0x00000001
       60145000	      6013	8000113c	4169dc93	srai	x25,x19,0x16	 x19:0x00000008 x25=0x00000000
       60155000	      6014	80001140	00000013	addi	x0,x0,0	  x0:0x00000000
       60165000	      6015	80001144	40bdd793	srai	x15,x27,0xb	 x27:0x80009efc x15=0xfff00013
       60175000	      6016	80001148	1a33ea13	ori	x20,x7,419	  x7:0x00020000 x20=0x000201a3
       60185000	      6017	8000114c	09b10883	lb	x17,155(x2)	  x2:0x8000877a x17=0xffffffb1 PA:0x80008815
       60195000	      6018	80001150	0081db93	srli	x23,x3,0x8	  x3:0x00000001 x23=0x00000000
       60205000	      6019	80001154	274d7993	andi	x19,x26,628	 x26:0x0000f246 x19=0x00000244
       60215000	      6020	80001158	ff310183	lb	x3,-13(x2)	  x2:0x8000877a  x3=0xffffff8e PA:0x8000876d
       60225000	      6021	8000115c	00000013	addi	x0,x0,0	  x0:0x00000000
       60235000	      6022	80001160	015f67b3	or	x15,x30,x21	 x30:0x0000009a x21:0x00000021 x15=0x000000bb
       60245000	      6023	80001164	d5b88e13	addi	x28,x17,-677	 x17:0xffffffb1 x28=0xfffffd0c
       60255000	      6024	80001168	46c7b713	sltiu	x14,x15,1132	 x15:0x000000bb x14=0x00000001
       60265000	      6025	8000116c	012a71b3	and	x3,x20,x18	 x20:0x000201a3 x18:0x00000000  x3=0x00000000
       60275000	      6026	80001170	0104bf33	sltu	x30,x9,x16	  x9:0x000000e9 x16:0x80009fc4 x30=0x00000001
       60285000	      6027	80001174	a7a44393	xori	x7,x8,-1414	  x8:0x00000001  x7=0xfffffa7b
       60295000	      6028	80001178	003fd313	srli	x6,x31,0x3	 x31:0xf13e20b0  x6=0x1e27c416
       60305000	      6029	8000117c	d783dc97	auipc	x25,0xd783d	 x25=0x5783e178
       60315000	      6030	80001180	00bed193	srli	x3,x29,0xb	 x29:0x0000009a  x3=0x00000000
       60325000	      6031	80001184	01892ab3	slt	x21,x18,x24	 x18:0x00000000 x24:0x0000009e x21=0x00000001
       60335000	      6032	80001188	fb514f83	lbu	x31,-75(x2)	  x2:0x8000877a x31=0x00000081 PA:0x8000872f
       60345000	      6033	8000118c	00007a17	auipc	x20,0x7	 x20=0x80008188
       60355000	      6034	80001190	45aa0a13	addi	x20,x20,1114	 x20:0x80008188 x20=0x800085e2
       60365000	      6035	80001194	00508733	add	x14,x1,x5	  x1:0x00000000  x5:0x00000000 x14=0x00000000
       60375000	      6036	80001198	41e5deb3	sra	x29,x11,x30	 x11:0x32eed0b4 x30:0x00000001 x29=0x1977685a
       60385000	      6037	8000119c	b55afe13	andi	x28,x21,-1195	 x21:0x00000001 x28=0x00000001
       60395000	      6038	800011a0	008a0623	sb	x8,12(x20)	 x20:0x800085e2  x8:0x00000001 PA:0x800085ee
       60405000	      6039	800011a4	89c70713	addi	x14,x14,-1892	 x14:0x00000000 x14=0xfffff89c
       60415000	      6040	800011a8	81f3e113	ori	x2,x7,-2017	  x7:0xfffffa7b  x2=0xfffffa7f
       60425000	      6041	800011ac	01d12e33	slt	x28,x2,x29	  x2:0xfffffa7f x29:0x1977685a x28=0x00000001
       60435000	      6042	800011b0	4172de33	sra	x28,x5,x23	  x5:0x00000000 x23:0x00000000 x28=0x00000000
       60445000	      6043	800011b4	01859913	slli	x18,x11,0x18	 x11:0x32eed0b4 x18=0xb4000000
       60455000	      6044	800011b8	010a5503	lhu	x10,16(x20)	 x20:0x800085e2 x10=0x0000a51e PA:0x800085f2
       60465000	      6045	800011bc	010a0b83	lb	x23,16(x20)	 x20:0x800085e2 x23=0x0000001e PA:0x800085f2
       60475000	      6046	800011c0	009a4c03	lbu	x24,9(x20)	 x20:0x800085e2 x24=0x000000de PA:0x800085eb
       60485000	      6047	800011c4	000a4503	lbu	x10,0(x20)	 x20:0x800085e2 x10=0x00000093 PA:0x800085e2
       60495000	      6048	800011c8	00459393	slli	x7,x11,0x4	 x11:0x32eed0b4  x7=0x2eed0b40
       60505000	      6049	800011cc	01bb83b3	add	x7,x23,x27	 x23:0x0000001e x27:0x80009efc  x7=0x80009f1a
       60515000	      6050	800011d0	00ac6cb3	or	x25,x24,x10	 x24:0x000000de x10:0x00000093 x25=0x000000df
       60525000	      6051	800011d4	ff2a4d03	lbu	x26,-14(x20)	 x20:0x800085e2 x26=0x000000a1 PA:0x800085d4
       60535000	      6052	800011d8	00acab33	slt	x22,x25,x10	 x25:0x000000df x10:0x00000093 x22=0x00000000
       60545000	      6053	800011dc	016585b3	add	x11,x11,x22	 x11:0x32eed0b4 x22:0x00000000 x11=0x32eed0b4
       60555000	      6054	800011e0	fc942e13	slti	x28,x8,-55	  x8:0x00000001 x28=0x00000000
       60565000	      6055	800011e4	e52de213	ori	x4,x27,-430	 x27:0x80009efc  x4=0xfffffefe
       60575000	      6056	800011e8	00ca5b03	lhu	x22,12(x20)	 x20:0x800085e2 x22=0x00001d01 PA:0x800085ee
       60585000	      6057	800011ec	4157d8b3	sra	x17,x15,x21	 x15:0x000000bb x21:0x00000001 x17=0x0000005d
       60595000	      6058	800011f0	4a7db713	sltiu	x14,x27,1191	 x27:0x80009efc x14=0x00000000
       60605000	      6059	800011f4	5feab693	sltiu	x13,x21,1534	 x21:0x00000001 x13=0x00000001
       60615000	      6060	800011f8	005a4783	lbu	x15,5(x20)	 x20:0x800085e2 x15=0x0000002c PA:0x800085e7
       60625000	      6061	800011fc	01d9d113	srli	x2,x19,0x1d	 x19:0x00000244  x2=0x00000000
       60635000	      6062	80001200	ff2a1b03	lh	x22,-14(x20)	 x20:0x800085e2 x22=0xffffbba1 PA:0x800085d4
       60645000	      6063	80001204	fe7a0ba3	sb	x7,-9(x20)	 x20:0x800085e2  x7:0x80009f1a PA:0x800085d9
       60655000	      6064	80001208	00007217	auipc	x4,0x7	  x4=0x80008204
       60665000	      6065	8000120c	2b120213	addi	x4,x4,689	  x4:0x80008204  x4=0x800084b5
       60675000	      6066	80001210	012243b3	xor	x7,x4,x18	  x4:0x800084b5 x18:0xb4000000  x7=0x340084b5
       60685000	      6067	80001214	019201a3	sb	x25,3(x4)	  x4:0x800084b5 x25:0x000000df PA:0x800084b8
       60695000	      6068	80001218	ff321e83	lh	x29,-13(x4)	  x4:0x800084b5 x29=0x0000573f PA:0x800084a8
       60705000	      6069	8000121c	0051e433	or	x8,x3,x5	  x3:0x00000000  x5:0x00000000  x8=0x00000000
       60715000	      6070	80001220	ae71fb13	andi	x22,x3,-1305	  x3:0x00000000 x22=0x00000000
       60725000	      6071	80001224	009223a3	sw	x9,7(x4)	  x4:0x800084b5  x9:0x000000e9 PA:0x800084bc
       60735000	      6072	80001228	ff521003	lh	x0,-11(x4)	  x4:0x800084b5 PA:0x800084aa
       60745000	      6073	8000122c	ff020823	sb	x16,-16(x4)	  x4:0x800084b5 x16:0x80009fc4 PA:0x800084a5
       60755000	      6074	80001230	76effe93	andi	x29,x31,1902	 x31:0x00000081 x29=0x00000000
       60765000	      6075	80001234	383d6a93	ori	x21,x26,899	 x26:0x000000a1 x21=0x000003a3
       60775000	      6076	80001238	400f5eb3	sra	x29,x30,x0	 x30:0x00000001  x0:0x00000000 x29=0x00000001
       60785000	      6077	8000123c	007214a3	sh	x7,9(x4)	  x4:0x800084b5  x7:0x340084b5 PA:0x800084be
       60795000	      6078	80001240	01cadf13	srli	x30,x21,0x1c	 x21:0x000003a3 x30=0x00000000
       60805000	      6079	80001244	fff24383	lbu	x7,-1(x4)	  x4:0x800084b5  x7=0x000000c6 PA:0x800084b4
       60815000	      6080	80001248	0e3aaf13	slti	x30,x21,227	 x21:0x000003a3 x30=0x00000000
       60825000	      6081	8000124c	00520e03	lb	x28,5(x4)	  x4:0x800084b5 x28=0x00000065 PA:0x800084ba
       60835000	      6082	80001250	ff320283	lb	x5,-13(x4)	  x4:0x800084b5  x5=0x0000003f PA:0x800084a8
       60845000	      6083	80001254	ffc20003	lb	x0,-4(x4)	  x4:0x800084b5 PA:0x800084b1
       60855000	      6084	80001258	003a8c33	add	x24,x21,x3	 x21:0x000003a3  x3:0x00000000 x24=0x000003a3
       60865000	      6085	8000125c	01a203a3	sb	x26,7(x4)	  x4:0x800084b5 x26:0x000000a1 PA:0x800084bc
       60875000	      6086	80001260	00197033	and	x0,x18,x1	 x18:0xb4000000  x1:0x00000000
       60885000	      6087	80001264	ff321303	lh	x6,-13(x4)	  x4:0x800084b5  x6=0x0000573f PA:0x800084a8
       60895000	      6088	80001268	00824b03	lbu	x22,8(x4)	  x4:0x800084b5 x22=0x00000000 PA:0x800084bd
       60905000	      6089	8000126c	0013c5b3	xor	x11,x7,x1	  x7:0x000000c6  x1:0x00000000 x11=0x000000c6
       60915000	      6090	80001270	961d2b93	slti	x23,x26,-1695	 x26:0x000000a1 x23=0x00000000
       60925000	      6091	80001274	ffe20c23	sb	x30,-8(x4)	  x4:0x800084b5 x30:0x00000000 PA:0x800084ad
       60935000	      6092	80001278	40908333	sub	x6,x1,x9	  x1:0x00000000  x9:0x000000e9  x6=0xffffff17
       60945000	      6093	8000127c	00723733	sltu	x14,x4,x7	  x4:0x800084b5  x7:0x000000c6 x14=0x00000000
       60955000	      6094	80001280	ffd21ca3	sh	x29,-7(x4)	  x4:0x800084b5 x29:0x00000001 PA:0x800084ae
       60965000	      6095	80001284	fea20923	sb	x10,-14(x4)	  x4:0x800084b5 x10:0x00000093 PA:0x800084a7
       60975000	      6096	80001288	fe021ca3	sh	x0,-7(x4)	  x4:0x800084b5  x0:0x00000000 PA:0x800084ae
       60985000	      6097	8000128c	014205a3	sb	x20,11(x4)	  x4:0x800084b5 x20:0x800085e2 PA:0x800084c0
       60995000	      6098	80001290	01242eb3	slt	x29,x8,x18	  x8:0x00000000 x18:0xb4000000 x29=0x00000000
       61005000	      6099	80001294	00dfde13	srli	x28,x31,0xd	 x31:0x00000081 x28=0x00000000
       61015000	      6100	80001298	012216a3	sh	x18,13(x4)	  x4:0x800084b5 x18:0xb4000000 PA:0x800084c2
       61025000	      6101	8000129c	00007297	auipc	x5,0x7	  x5=0x80008298
       61035000	      6102	800012a0	5fc28293	addi	x5,x5,1532	  x5:0x80008298  x5=0x80008894
       61045000	      6103	800012a4	26e2d683	lhu	x13,622(x5)	  x5:0x80008894 x13=0x0000d5d0 PA:0x80008b02
       61055000	      6104	00000000	00000013	addi	x0,x0,0	  x0:0x00000000
       61065000	      6105	800012a8	00d991b3	sll	x3,x19,x13	 x19:0x00000244 x13:0x0000d5d0  x3=0x02440000
       61075000	      6106	800012ac	2ba288a3	sb	x26,689(x5)	  x5:0x80008894 x26:0x000000a1 PA:0x80008b45
       61085000	      6107	800012b0	00428f03	lb	x30,4(x5)	  x5:0x80008894 x30=0x00000000 PA:0x80008898
       61095000	      6108	800012b4	4542de83	lhu	x29,1108(x5)	  x5:0x80008894 x29=0x000082ed PA:0x80008ce8
       61105000	      6109	800012b8	72b28b03	lb	x22,1835(x5)	  x5:0x80008894 x22=0x00000000 PA:0x80008fbf
       61115000	      6110	800012bc	01571693	slli	x13,x14,0x15	 x14:0x00000000 x13=0x00000000
       61125000	      6111	800012c0	41ecdf33	sra	x30,x25,x30	 x25:0x000000df x30:0x00000000 x30=0x000000df
       61135000	      6112	800012c4	0144f8b3	and	x17,x9,x20	  x9:0x000000e9 x20:0x800085e2 x17=0x000000e0
       61145000	      6113	800012c8	1ab0f9b7	lui	x19,0x1ab0f	 x19=0x1ab0f000
       61155000	      6114	800012cc	42f29523	sh	x15,1066(x5)	  x5:0x80008894 x15:0x0000002c PA:0x80008cbe
       61165000	      6115	800012d0	00b97ab3	and	x21,x18,x11	 x18:0xb4000000 x11:0x000000c6 x21=0x00000000
       61175000	      6116	800012d4	4c32c003	lbu	x0,1219(x5)	  x5:0x80008894 PA:0x80008d57
       61185000	      6117	800012d8	01d2c933	xor	x18,x5,x29	  x5:0x80008894 x29:0x000082ed x18=0x80000a79
       61195000	      6118	800012dc	5c728503	lb	x10,1479(x5)	  x5:0x80008894 x10=0xffffffa4 PA:0x80008e5b
       61205000	      6119	800012e0	e1323c13	sltiu	x24,x4,-493	  x4:0x800084b5 x24=0x00000001
       61215000	      6120	800012e4	031f7413	andi	x8,x30,49	 x30:0x000000df  x8=0x00000011
       61225000	      6121	800012e8	55828b83	lb	x23,1368(x5)	  x5:0x80008894 x23=0x0000001d PA:0x80008dec
       61235000	      6122	800012ec	1672a023	sw	x7,352(x5)	  x5:0x80008894  x7:0x000000c6 PA:0x800089f4
       61245000	      6123	800012f0	f8429a83	lh	x21,-124(x5)	  x5:0x80008894 x21=0x0000244d PA:0x80008818
       61255000	      6124	800012f4	01d51a13	slli	x20,x10,0x1d	 x10:0xffffffa4 x20=0x80000000
       61265000	      6125	800012f8	01d101b3	add	x3,x2,x29	  x2:0x00000000 x29:0x000082ed  x3=0x000082ed
       61275000	      6126	800012fc	f1caa113	slti	x2,x21,-228	 x21:0x0000244d  x2=0x00000000
       61285000	      6127	80001300	00a906b3	add	x13,x18,x10	 x18:0x80000a79 x10:0xffffffa4 x13=0x80000a1d
       61295000	      6128	80001304	01bd1e13	slli	x28,x26,0x1b	 x26:0x000000a1 x28=0x08000000
       61305000	      6129	80001308	40f2c183	lbu	x3,1039(x5)	  x5:0x80008894  x3=0x00000000 PA:0x80008ca3
       61315000	      6130	8000130c	00000013	addi	x0,x0,0	  x0:0x00000000
       61325000	      6131	80001310	0092ae23	sw	x9,28(x5)	  x5:0x80008894  x9:0x000000e9 PA:0x800088b0
       61335000	      6132	80001314	00f08bb3	add	x23,x1,x15	  x1:0x00000000 x15:0x0000002c x23=0x0000002c
       61345000	      6133	80001318	49728783	lb	x15,1175(x5)	  x5:0x80008894 x15=0xffffffd0 PA:0x80008d2b
       61355000	      6134	8000131c	41935d33	sra	x26,x6,x25	  x6:0xffffff17 x25:0x000000df x26=0xffffffff
       61365000	      6135	80001320	0fd29123	sh	x29,226(x5)	  x5:0x80008894 x29:0x000082ed PA:0x80008976
       61375000	      6136	80001324	ffa28e03	lb	x28,-6(x5)	  x5:0x80008894 x28=0x0000007e PA:0x8000888e
       61385000	      6137	80001328	40195a13	srai	x20,x18,0x1	 x18:0x80000a79 x20=0xc000053c
       61395000	      6138	8000132c	6fd285a3	sb	x29,1771(x5)	  x5:0x80008894 x29:0x000082ed PA:0x80008f7f
       61405000	      6139	80001330	bfb73f13	sltiu	x30,x14,-1029	 x14:0x00000000 x30=0x00000001
       61415000	      6140	80001334	00000013	addi	x0,x0,0	  x0:0x00000000
       61425000	      6141	80001338	0d33ae93	slti	x29,x7,211	  x7:0x000000c6 x29=0x00000001
       61435000	      6142	8000133c	25b28183	lb	x3,603(x5)	  x5:0x80008894  x3=0xffffff8f PA:0x80008aef
       61445000	      6143	80001340	688d3493	sltiu	x9,x26,1672	 x26:0xffffffff  x9=0x00000000
       61455000	      6144	80001344	3099c793	xori	x15,x19,777	 x19:0x1ab0f000 x15=0x1ab0f309
       61465000	      6145	80001348	6f72c383	lbu	x7,1783(x5)	  x5:0x80008894  x7=0x000000c9 PA:0x80008f8b
       61475000	      6146	8000134c	00d31213	slli	x4,x6,0xd	  x6:0xffffff17  x4=0xffe2e000
       61485000	      6147	80001350	2b2a3b97	auipc	x23,0x2b2a3	 x23=0xab2a434c
       61495000	      6148	80001354	6052c183	lbu	x3,1541(x5)	  x5:0x80008894  x3=0x00000076 PA:0x80008e99
       61505000	      6149	80001358	11f2ce83	lbu	x29,287(x5)	  x5:0x80008894 x29=0x00000051 PA:0x800089b3
       61515000	      6150	8000135c	016d19b3	sll	x19,x26,x22	 x26:0xffffffff x22:0x00000000 x19=0xffffffff
       61525000	      6151	80001360	002a4533	xor	x10,x20,x2	 x20:0xc000053c  x2:0x00000000 x10=0xc000053c
       61535000	      6152	80001364	fa8a0e13	addi	x28,x20,-88	 x20:0xc000053c x28=0xc00004e4
       61545000	      6153	80001368	00c022b3	slt	x5,x0,x12	  x0:0x00000000 x12:0x0000002c  x5=0x00000001
       61555000	      6154	8000136c	01ba1393	slli	x7,x20,0x1b	 x20:0xc000053c  x7=0xe0000000
       61565000	      6155	80001370	00000013	addi	x0,x0,0	  x0:0x00000000
       61575000	      6156	80001374	00e846b3	xor	x13,x16,x14	 x16:0x80009fc4 x14:0x00000000 x13=0x80009fc4
       61585000	      6157	80001378	00ea9863	bne	x21,x14,80001388	 x21:0x0000244d x14:0x00000000
       61595000	      6158	00000000	00000013	addi	x0,x0,0	  x0:0x00000000
       61605000	      6159	80001384	00000013	addi	x0,x0,0	  x0:0x00000000
       61615000	      6160	80001388	008cd233	srl	x4,x25,x8	 x25:0x000000df  x8:0x00000011  x4=0x00000000
       61625000	      6161	8000138c	01bd1663	bne	x26,x27,80001398	 x26:0xffffffff x27:0x80009efc
       61635000	      6162	00000000	00000013	addi	x0,x0,0	  x0:0x00000000
       61645000	      6163	80001394	00000013	addi	x0,x0,0	  x0:0x00000000
       61655000	      6164	80001398	f9a9dcb7	lui	x25,0xf9a9d	 x25=0xf9a9d000
       61665000	      6165	8000139c	020f0863	beq	x30,x0,800013cc	 x30:0x00000001  x0:0x00000000
       61675000	      6166	800013a0	47051d37	lui	x26,0x47051	 x26=0x47051000
       61685000	      6167	800013a4	2fac1917	auipc	x18,0x2fac1	 x18=0xafac23a0
       61695000	      6168	800013a8	57e57ab7	lui	x21,0x57e57	 x21=0x57e57000
       61705000	      6169	800013ac	c95e3a93	sltiu	x21,x28,-875	 x28:0xc00004e4 x21=0x00000001
       61715000	      6170	800013b0	036b6863	bltu	x22,x22,800013e0	 x22:0x00000000 x22:0x00000000
       61725000	      6171	800013b4	00e62a33	slt	x20,x12,x14	 x12:0x0000002c x14:0x00000000 x20=0x00000000
       61735000	      6172	800013b8	bfd7a897	auipc	x17,0xbfd7a	 x17=0x3fd7b3b4
       61745000	      6173	800013bc	5018b113	sltiu	x2,x17,1281	 x17:0x3fd7b3b4  x2=0x00000000
       61755000	      6174	800013c0	cbb1f293	andi	x5,x3,-837	  x3:0x00000076  x5=0x00000032
       61765000	      6175	800013c4	02ca6863	bltu	x20,x12,800013f4	 x20:0x00000000 x12:0x0000002c
       61775000	      6176	00000000	00000013	addi	x0,x0,0	  x0:0x00000000
       61785000	      6177	800013f0	00000013	addi	x0,x0,0	  x0:0x00000000
       61795000	      6178	800013f4	dc100613	addi	x12,x0,-575	  x0:0x00000000 x12=0xfffffdc1
       61805000	      6179	800013f8	01766c33	or	x24,x12,x23	 x12:0xfffffdc1 x23:0xab2a434c x24=0xffffffcd
       61815000	      6180	800013fc	00624263	blt	x4,x6,80001400	  x4:0x00000000  x6:0xffffff17
       61825000	      6181	80001400	3a9df517	auipc	x10,0x3a9df	 x10=0xba9e03fc
       61835000	      6182	80001404	0414d063	bge	x9,x1,80001444	  x9:0x00000000  x1:0x00000000
       61845000	      6183	00000000	00000013	addi	x0,x0,0	  x0:0x00000000
       61855000	      6184	80001440	00000013	addi	x0,x0,0	  x0:0x00000000
       61865000	      6185	80001444	608f3693	sltiu	x13,x30,1544	 x30:0x00000001 x13=0x00000001
       61875000	      6186	80001448	6c970e13	addi	x28,x14,1737	 x14:0x00000000 x28=0x000006c9
       61885000	      6187	8000144c	0069fc63	bgeu	x19,x6,80001464	 x19:0xffffffff  x6:0xffffff17
       61895000	      6188	00000000	00000013	addi	x0,x0,0	  x0:0x00000000
       61905000	      6189	80001460	00000013	addi	x0,x0,0	  x0:0x00000000
       61915000	      6190	80001464	77cf6a13	ori	x20,x30,1916	 x30:0x00000001 x20=0x0000077d
       61925000	      6191	80001468	0ddf4193	xori	x3,x30,221	 x30:0x00000001  x3=0x000000dc
       61935000	      6192	8000146c	00725433	srl	x8,x4,x7	  x4:0x00000000  x7:0xe0000000  x8=0x00000000
       61945000	      6193	80001470	01c39213	slli	x4,x7,0x1c	  x7:0xe0000000  x4=0x00000000
       61955000	      6194	80001474	0077d013	srli	x0,x15,0x7	 x15:0x1ab0f309
       61965000	      6195	80001478	41e48733	sub	x14,x9,x30	  x9:0x00000000 x30:0x00000001 x14=0xffffffff
       61975000	      6196	8000147c	fe1a4913	xori	x18,x20,-31	 x20:0x0000077d x18=0xfffff89c
       61985000	      6197	80001480	40398033	sub	x0,x19,x3	 x19:0xffffffff  x3:0x000000dc
       61995000	      6198	80001484	05d41863	bne	x8,x29,800014d4	  x8:0x00000000 x29:0x00000051
       62005000	      6199	00000000	00000013	addi	x0,x0,0	  x0:0x00000000
       62015000	      6200	800014d0	00000013	addi	x0,x0,0	  x0:0x00000000
       62025000	      6201	800014d4	01273fb3	sltu	x31,x14,x18	 x14:0xffffffff x18:0xfffff89c x31=0x00000000
       62035000	      6202	800014d8	0068fa63	bgeu	x17,x6,800014ec	 x17:0x3fd7b3b4  x6:0xffffff17
       62045000	      6203	800014dc	054df663	bgeu	x27,x20,80001528	 x27:0x80009efc x20:0x0000077d
       62055000	      6204	00000000	00000013	addi	x0,x0,0	  x0:0x00000000
       62065000	      6205	80001524	00000013	addi	x0,x0,0	  x0:0x00000000
       62075000	      6206	80001528	ef3a0313	addi	x6,x20,-269	 x20:0x0000077d  x6=0x00000670
       62085000	      6207	8000152c	418cdc33	sra	x24,x25,x24	 x25:0xf9a9d000 x24:0xffffffcd x24=0xffffcd4e
       62095000	      6208	80001530	01919f33	sll	x30,x3,x25	  x3:0x000000dc x25:0xf9a9d000 x30=0x000000dc
       62105000	      6209	80001534	01d4dc93	srli	x25,x9,0x1d	  x9:0x00000000 x25=0x00000000
       62115000	      6210	80001538	e87a6c13	ori	x24,x20,-377	 x20:0x0000077d x24=0xffffffff
       62125000	      6211	8000153c	00000013	addi	x0,x0,0	  x0:0x00000000
       62135000	      6212	80001540	033cf863	bgeu	x25,x19,80001570	 x25:0x00000000 x19:0xffffffff
       62145000	      6213	80001544	02afe063	bltu	x31,x10,80001564	 x31:0x00000000 x10:0xba9e03fc
       62155000	      6214	00000000	00000013	addi	x0,x0,0	  x0:0x00000000
       62165000	      6215	80001560	00000013	addi	x0,x0,0	  x0:0x00000000
       62175000	      6216	80001564	005dd713	srli	x14,x27,0x5	 x27:0x80009efc x14=0x040004f7
       62185000	      6217	80001568	00000013	addi	x0,x0,0	  x0:0x00000000
       62195000	      6218	8000156c	01d0a733	slt	x14,x1,x29	  x1:0x00000000 x29:0x00000051 x14=0x00000001
       62205000	      6219	80001570	50b1cf93	xori	x31,x3,1291	  x3:0x000000dc x31=0x000005d7
       62215000	      6220	80001574	04c86063	bltu	x16,x12,800015b4	 x16:0x80009fc4 x12:0xfffffdc1
       62225000	      6221	00000000	00000013	addi	x0,x0,0	  x0:0x00000000
       62235000	      6222	800015b0	00000013	addi	x0,x0,0	  x0:0x00000000
       62245000	      6223	800015b4	05c94863	blt	x18,x28,80001604	 x18:0xfffff89c x28:0x000006c9
       62255000	      6224	00000000	00000013	addi	x0,x0,0	  x0:0x00000000
       62265000	      6225	80001600	00000013	addi	x0,x0,0	  x0:0x00000000
       62275000	      6226	80001604	000d3a33	sltu	x20,x26,x0	 x26:0x47051000  x0:0x00000000 x20=0x00000000
       62285000	      6227	80001608	01509bb3	sll	x23,x1,x21	  x1:0x00000000 x21:0x00000001 x23=0x00000000
       62295000	      6228	8000160c	012a2ab3	slt	x21,x20,x18	 x20:0x00000000 x18:0xfffff89c x21=0x00000000
       62305000	      6229	80001610	01b73e33	sltu	x28,x14,x27	 x14:0x00000001 x27:0x80009efc x28=0x00000001
       62315000	      6230	80001614	01d59593	slli	x11,x11,0x1d	 x11:0x000000c6 x11=0xc0000000
       62325000	      6231	80001618	017dee63	bltu	x27,x23,80001634	 x27:0x80009efc x23:0x00000000
       62335000	      6232	8000161c	4188de33	sra	x28,x17,x24	 x17:0x3fd7b3b4 x24:0xffffffff x28=0x00000000
       62345000	      6233	80001620	00426bb3	or	x23,x4,x4	  x4:0x00000000  x4:0x00000000 x23=0x00000000
       62355000	      6234	80001624	0553f513	andi	x10,x7,85	  x7:0xe0000000 x10=0x00000000
       62365000	      6235	80001628	0168df33	srl	x30,x17,x22	 x17:0x3fd7b3b4 x22:0x00000000 x30=0x3fd7b3b4
       62375000	      6236	8000162c	000d5e63	bge	x26,x0,80001648	 x26:0x47051000  x0:0x00000000
       62385000	      6237	00000000	00000013	addi	x0,x0,0	  x0:0x00000000
       62395000	      6238	80001644	00000013	addi	x0,x0,0	  x0:0x00000000
       62405000	      6239	80001648	ebda6913	ori	x18,x20,-323	 x20:0x00000000 x18=0xfffffebd
       62415000	      6240	8000164c	a0f3c393	xori	x7,x7,-1521	  x7:0xe0000000  x7=0x1ffffa0f
       62425000	      6241	80001650	009d4333	xor	x6,x26,x9	 x26:0x47051000  x9:0x00000000  x6=0x47051000
       62435000	      6242	80001654	40aad233	sra	x4,x21,x10	 x21:0x00000000 x10:0x00000000  x4=0x00000000
       62445000	      6243	80001658	00f63433	sltu	x8,x12,x15	 x12:0xfffffdc1 x15:0x1ab0f309  x8=0x00000000
       62455000	      6244	8000165c	042b5663	bge	x22,x2,800016a8	 x22:0x00000000  x2:0x00000000
       62465000	      6245	00000000	00000013	addi	x0,x0,0	  x0:0x00000000
       62475000	      6246	800016a4	00000013	addi	x0,x0,0	  x0:0x00000000
       62485000	      6247	800016a8	01f399b3	sll	x19,x7,x31	  x7:0x1ffffa0f x31:0x000005d7 x19=0x07800000
       62495000	      6248	800016ac	015a7a63	bgeu	x20,x21,800016c0	 x20:0x00000000 x21:0x00000000
       62505000	      6249	00000000	00000013	addi	x0,x0,0	  x0:0x00000000
       62515000	      6250	800016bc	00000013	addi	x0,x0,0	  x0:0x00000000
       62525000	      6251	800016c0	9f837313	andi	x6,x6,-1544	  x6:0x47051000  x6=0x47051000
       62535000	      6252	800016c4	00159a33	sll	x20,x11,x1	 x11:0xc0000000  x1:0x00000000 x20=0xc0000000
       62545000	      6253	800016c8	01c61d33	sll	x26,x12,x28	 x12:0xfffffdc1 x28:0x00000000 x26=0xfffffdc1
       62555000	      6254	800016cc	0075ee33	or	x28,x11,x7	 x11:0xc0000000  x7:0x1ffffa0f x28=0xdffffa0f
       62565000	      6255	800016d0	04a07663	bgeu	x0,x10,8000171c	  x0:0x00000000 x10:0x00000000
       62575000	      6256	00000000	00000013	addi	x0,x0,0	  x0:0x00000000
       62585000	      6257	80001718	00000013	addi	x0,x0,0	  x0:0x00000000
       62595000	      6258	8000171c	647bb013	sltiu	x0,x23,1607	 x23:0x00000000
       62605000	      6259	80001720	011d1693	slli	x13,x26,0x11	 x26:0xfffffdc1 x13=0xfb820000
       62615000	      6260	80001724	0027a4b3	slt	x9,x15,x2	 x15:0x1ab0f309  x2:0x00000000  x9=0x00000000
       62625000	      6261	80001728	0167dfb3	srl	x31,x15,x22	 x15:0x1ab0f309 x22:0x00000000 x31=0x1ab0f309
       62635000	      6262	8000172c	03c10863	beq	x2,x28,8000175c	  x2:0x00000000 x28:0xdffffa0f
       62645000	      6263	80001730	00b4d4b3	srl	x9,x9,x11	  x9:0x00000000 x11:0xc0000000  x9=0x00000000
       62655000	      6264	80001734	01359eb3	sll	x29,x11,x19	 x11:0xc0000000 x19:0x07800000 x29=0xc0000000
       62665000	      6265	80001738	01f41b93	slli	x23,x8,0x1f	  x8:0x00000000 x23=0x00000000
       62675000	      6266	8000173c	74c48a13	addi	x20,x9,1868	  x9:0x00000000 x20=0x0000074c
       62685000	      6267	80001740	403ad413	srai	x8,x21,0x3	 x21:0x00000000  x8=0x00000000
       62695000	      6268	80001744	96d42493	slti	x9,x8,-1683	  x8:0x00000000  x9=0x00000000
       62705000	      6269	80001748	00a36a63	bltu	x6,x10,8000175c	  x6:0x47051000 x10:0x00000000
       62715000	      6270	8000174c	581e7593	andi	x11,x28,1409	 x28:0xdffffa0f x11=0x00000001
       62725000	      6271	80001750	a0a13713	sltiu	x14,x2,-1526	  x2:0x00000000 x14=0x00000001
       62735000	      6272	80001754	4c854c13	xori	x24,x10,1224	 x10:0x00000000 x24=0x000004c8
       62745000	      6273	80001758	7e374e13	xori	x28,x14,2019	 x14:0x00000001 x28=0x000007e2
       62755000	      6274	8000175c	017a9663	bne	x21,x23,80001768	 x21:0x00000000 x23:0x00000000
       62765000	      6275	80001760	7dce3c97	auipc	x25,0x7dce3	 x25=0xfdce475c
       62775000	      6276	80001764	41f48a33	sub	x20,x9,x31	  x9:0x00000000 x31:0x1ab0f309 x20=0xe54f0cf7
       62785000	      6277	80001768	5bcf0b37	lui	x22,0x5bcf0	 x22=0x5bcf0000
       62795000	      6278	8000176c	0426c9b7	lui	x19,0x426c	 x19=0x0426c000
       62805000	      6279	80001770	03bc8863	beq	x25,x27,800017a0	 x25:0xfdce475c x27:0x80009efc
       62815000	      6280	80001774	41b85d33	sra	x26,x16,x27	 x16:0x80009fc4 x27:0x80009efc x26=0xfffffff8
       62825000	      6281	80001778	00fdec63	bltu	x27,x15,80001790	 x27:0x80009efc x15:0x1ab0f309
       62835000	      6282	8000177c	01749e33	sll	x28,x9,x23	  x9:0x00000000 x23:0x00000000 x28=0x00000000
       62845000	      6283	80001780	01955493	srli	x9,x10,0x19	 x10:0x00000000  x9=0x00000000
       62855000	      6284	80001784	001dd2b3	srl	x5,x27,x1	 x27:0x80009efc  x1:0x00000000  x5=0x80009efc
       62865000	      6285	80001788	04ac6063	bltu	x24,x10,800017c8	 x24:0x000004c8 x10:0x00000000
       62875000	      6286	8000178c	05834063	blt	x6,x24,800017cc	  x6:0x47051000 x24:0x000004c8
       62885000	      6287	80001790	92b32a93	slti	x21,x6,-1749	  x6:0x47051000 x21=0x00000000
       62895000	      6288	80001794	011eaeb3	slt	x29,x29,x17	 x29:0xc0000000 x17:0x3fd7b3b4 x29=0x00000001
       62905000	      6289	80001798	01695f93	srli	x31,x18,0x16	 x18:0xfffffebd x31=0x000003ff
       62915000	      6290	8000179c	00862fb3	slt	x31,x12,x8	 x12:0xfffffdc1  x8:0x00000000 x31=0x00000001
       62925000	      6291	800017a0	0114d433	srl	x8,x9,x17	  x9:0x00000000 x17:0x3fd7b3b4  x8=0x00000000
       62935000	      6292	800017a4	02469063	bne	x13,x4,800017c4	 x13:0xfb820000  x4:0x00000000
       62945000	      6293	00000000	00000013	addi	x0,x0,0	  x0:0x00000000
       62955000	      6294	800017c0	00000013	addi	x0,x0,0	  x0:0x00000000
       62965000	      6295	800017c4	01c1bfb3	sltu	x31,x3,x28	  x3:0x000000dc x28:0x00000000 x31=0x00000000
       62975000	      6296	800017c8	017a5e13	srli	x28,x20,0x17	 x20:0xe54f0cf7 x28=0x000001ca
       62985000	      6297	800017cc	8c292937	lui	x18,0x8c292	 x18=0x8c292000
       62995000	      6298	800017d0	01fc9233	sll	x4,x25,x31	 x25:0xfdce475c x31:0x00000000  x4=0xfdce475c
       63005000	      6299	800017d4	01445263	bge	x8,x20,800017d8	  x8:0x00000000 x20:0xe54f0cf7
       63015000	      6300	00000000	00000013	addi	x0,x0,0	  x0:0x00000000
       63025000	      6301	800017d4	00000013	addi	x0,x0,0	  x0:0x00000000
       63035000	      6302	800017d8	00719193	slli	x3,x3,0x7	  x3:0x000000dc  x3=0x00006e00
       63045000	      6303	800017dc	c3777213	andi	x4,x14,-969	 x14:0x00000001  x4=0x00000001
       63055000	      6304	800017e0	0085d633	srl	x12,x11,x8	 x11:0x00000001  x8:0x00000000 x12=0x00000001
       63065000	      6305	800017e4	91a46713	ori	x14,x8,-1766	  x8:0x00000000 x14=0xfffff91a
       63075000	      6306	800017e8	017ef933	and	x18,x29,x23	 x29:0x00000001 x23:0x00000000 x18=0x00000000
       63085000	      6307	800017ec	0195fc63	bgeu	x11,x25,80001804	 x11:0x00000001 x25:0xfdce475c
       63095000	      6308	800017f0	e9fb0e13	addi	x28,x22,-353	 x22:0x5bcf0000 x28=0x5bcefe9f
       63105000	      6309	800017f4	2ebd6497	auipc	x9,0x2ebd6	  x9=0xaebd77f0
       63115000	      6310	800017f8	03291c63	bne	x18,x18,80001830	 x18:0x00000000 x18:0x00000000
       63125000	      6311	800017fc	6c2beb93	ori	x23,x23,1730	 x23:0x00000000 x23=0x000006c2
       63135000	      6312	80001800	00a445b3	xor	x11,x8,x10	  x8:0x00000000 x10:0x00000000 x11=0x00000000
       63145000	      6313	80001804	00f7ecb3	or	x25,x15,x15	 x15:0x1ab0f309 x15:0x1ab0f309 x25=0x1ab0f309
       63155000	      6314	80001808	01085b93	srli	x23,x16,0x10	 x16:0x80009fc4 x23=0x00008000
       63165000	      6315	8000180c	00000013	addi	x0,x0,0	  x0:0x00000000
       63175000	      6316	80001810	fda03e13	sltiu	x28,x0,-38	  x0:0x00000000 x28=0x00000001
       63185000	      6317	80001814	00db5a13	srli	x20,x22,0xd	 x22:0x5bcf0000 x20=0x0002de78
       63195000	      6318	80001818	0121de33	srl	x28,x3,x18	  x3:0x00006e00 x18:0x00000000 x28=0x00006e00
       63205000	      6319	8000181c	23c93d13	sltiu	x26,x18,572	 x18:0x00000000 x26=0x00000001
       63215000	      6320	80001820	05271063	bne	x14,x18,80001860	 x14:0xfffff91a x18:0x00000000
       63225000	      6321	00000000	00000013	addi	x0,x0,0	  x0:0x00000000
       63235000	      6322	8000185c	00000013	addi	x0,x0,0	  x0:0x00000000
       63245000	      6323	80001860	01d61bb3	sll	x23,x12,x29	 x12:0x00000001 x29:0x00000001 x23=0x00000002
       63255000	      6324	80001864	584a7f93	andi	x31,x20,1412	 x20:0x0002de78 x31=0x00000400
       63265000	      6325	80001868	535e6a13	ori	x20,x28,1333	 x28:0x00006e00 x20=0x00006f35
       63275000	      6326	8000186c	7de92513	slti	x10,x18,2014	 x18:0x00000000 x10=0x00000001
       63285000	      6327	80001870	00cf2933	slt	x18,x30,x12	 x30:0x3fd7b3b4 x12:0x00000001 x18=0x00000000
       63295000	      6328	80001874	3a157593	andi	x11,x10,929	 x10:0x00000001 x11=0x00000001
       63305000	      6329	80001878	00d5fc63	bgeu	x11,x13,80001890	 x11:0x00000001 x13:0xfb820000
       63315000	      6330	8000187c	0506f663	bgeu	x13,x16,800018c8	 x13:0xfb820000 x16:0x80009fc4
       63325000	      6331	00000000	00000013	addi	x0,x0,0	  x0:0x00000000
       63335000	      6332	800018c4	00000013	addi	x0,x0,0	  x0:0x00000000
       63345000	      6333	800018c8	00cf7cb3	and	x25,x30,x12	 x30:0x3fd7b3b4 x12:0x00000001 x25=0x00000000
       63355000	      6334	800018cc	f68e7e13	andi	x28,x28,-152	 x28:0x00006e00 x28=0x00006e00
       63365000	      6335	800018d0	013e0633	add	x12,x28,x19	 x28:0x00006e00 x19:0x0426c000 x12=0x04272e00
       63375000	      6336	800018d4	d4297c93	andi	x25,x18,-702	 x18:0x00000000 x25=0x00000000
       63385000	      6337	800018d8	40735933	sra	x18,x6,x7	  x6:0x47051000  x7:0x1ffffa0f x18=0x00008e0a
       63395000	      6338	800018dc	00479993	slli	x19,x15,0x4	 x15:0x1ab0f309 x19=0xab0f3090
       63405000	      6339	800018e0	01f65e63	bge	x12,x31,800018fc	 x12:0x04272e00 x31:0x00000400
       63415000	      6340	00000000	00000013	addi	x0,x0,0	  x0:0x00000000
       63425000	      6341	800018f8	00000013	addi	x0,x0,0	  x0:0x00000000
       63435000	      6342	800018fc	419ed733	sra	x14,x29,x25	 x29:0x00000001 x25:0x00000000 x14=0x00000001
       63445000	      6343	80001900	a57e4693	xori	x13,x28,-1449	 x28:0x00006e00 x13=0xffff9457
       63455000	      6344	80001904	00166a63	bltu	x12,x1,80001918	 x12:0x04272e00  x1:0x00000000
       63465000	      6345	80001908	0010b633	sltu	x12,x1,x1	  x1:0x00000000  x1:0x00000000 x12=0x00000000
       63475000	      6346	8000190c	00860933	add	x18,x12,x8	 x12:0x00000000  x8:0x00000000 x18=0x00000000
       63485000	      6347	80001910	7bd3c913	xori	x18,x7,1981	  x7:0x1ffffa0f x18=0x1ffffdb2
       63495000	      6348	80001914	003074b3	and	x9,x0,x3	  x0:0x00000000  x3:0x00006e00  x9=0x00000000
       63505000	      6349	80001918	c5583e13	sltiu	x28,x16,-939	 x16:0x80009fc4 x28=0x00000001
       63515000	      6350	8000191c	01b90a63	beq	x18,x27,80001930	 x18:0x1ffffdb2 x27:0x80009efc
       63525000	      6351	80001920	02265063	bge	x12,x2,80001940	 x12:0x00000000  x2:0x00000000
       63535000	      6352	00000000	00000013	addi	x0,x0,0	  x0:0x00000000
       63545000	      6353	8000193c	00000013	addi	x0,x0,0	  x0:0x00000000
       63555000	      6354	80001940	00b39e33	sll	x28,x7,x11	  x7:0x1ffffa0f x11:0x00000001 x28=0x3ffff41e
       63565000	      6355	80001944	41cf8e33	sub	x28,x31,x28	 x31:0x00000400 x28:0x3ffff41e x28=0xc0000fe2
       63575000	      6356	80001948	c8a0e413	ori	x8,x1,-886	  x1:0x00000000  x8=0xfffffc8a
       63585000	      6357	8000194c	01a4d4b3	srl	x9,x9,x26	  x9:0x00000000 x26:0x00000001  x9=0x00000000
       63595000	      6358	80001950	40cd01b3	sub	x3,x26,x12	 x26:0x00000001 x12:0x00000000  x3=0x00000001
       63605000	      6359	80001954	41f1d293	srai	x5,x3,0x1f	  x3:0x00000001  x5=0x00000000
       63615000	      6360	80001958	41df5733	sra	x14,x30,x29	 x30:0x3fd7b3b4 x29:0x00000001 x14=0x1febd9da
       63625000	      6361	8000195c	00226733	or	x14,x4,x2	  x4:0x00000001  x2:0x00000000 x14=0x00000001
       63635000	      6362	80001960	008cdc33	srl	x24,x25,x8	 x25:0x00000000  x8:0xfffffc8a x24=0x00000000
       63645000	      6363	80001964	008b7b33	and	x22,x22,x8	 x22:0x5bcf0000  x8:0xfffffc8a x22=0x5bcf0000
       63655000	      6364	80001968	43fb4393	xori	x7,x22,1087	 x22:0x5bcf0000  x7=0x5bcf043f
       63665000	      6365	8000196c	0087fa63	bgeu	x15,x8,80001980	 x15:0x1ab0f309  x8:0xfffffc8a
       63675000	      6366	80001970	a1662613	slti	x12,x12,-1514	 x12:0x00000000 x12=0x00000000
       63685000	      6367	80001974	016fdc63	bge	x31,x22,8000198c	 x31:0x00000400 x22:0x5bcf0000
       63695000	      6368	80001978	00a335b3	sltu	x11,x6,x10	  x6:0x47051000 x10:0x00000001 x11=0x00000000
       63705000	      6369	8000197c	c8f5ee13	ori	x28,x11,-881	 x11:0x00000000 x28=0xfffffc8f
       63715000	      6370	80001980	05031063	bne	x6,x16,800019c0	  x6:0x47051000 x16:0x80009fc4
       63725000	      6371	00000000	00000013	addi	x0,x0,0	  x0:0x00000000
       63735000	      6372	800019bc	00000013	addi	x0,x0,0	  x0:0x00000000
       63745000	      6373	800019c0	288eb013	sltiu	x0,x29,648	 x29:0x00000001
       63755000	      6374	800019c4	016e1bb3	sll	x23,x28,x22	 x28:0xfffffc8f x22:0x5bcf0000 x23=0xfffffc8f
       63765000	      6375	800019c8	618b2b93	slti	x23,x22,1560	 x22:0x5bcf0000 x23=0x00000000
       63775000	      6376	800019cc	01c58033	add	x0,x11,x28	 x11:0x00000000 x28:0xfffffc8f
       63785000	      6377	800019d0	74662b13	slti	x22,x12,1862	 x12:0x00000000 x22=0x00000001
       63795000	      6378	800019d4	af56f793	andi	x15,x13,-1291	 x13:0xffff9457 x15=0xffff9055
       63805000	      6379	800019d8	fbdd8213	addi	x4,x27,-67	 x27:0x80009efc  x4=0x80009eb9
       63815000	      6380	800019dc	00069f33	sll	x30,x13,x0	 x13:0xffff9457  x0:0x00000000 x30=0xffff9457
       63825000	      6381	800019e0	172951b7	lui	x3,0x17295	  x3=0x17295000
       63835000	      6382	800019e4	0035a133	slt	x2,x11,x3	 x11:0x00000000  x3:0x17295000  x2=0x00000001
       63845000	      6383	800019e8	410c85b3	sub	x11,x25,x16	 x25:0x00000000 x16:0x80009fc4 x11=0x7fff603c
       63855000	      6384	800019ec	3a310313	addi	x6,x2,931	  x2:0x00000001  x6=0x000003a4
       63865000	      6385	800019f0	06b1ca13	xori	x20,x3,107	  x3:0x17295000 x20=0x1729506b
       63875000	      6386	800019f4	003af533	and	x10,x21,x3	 x21:0x00000000  x3:0x17295000 x10=0x00000000
       63885000	      6387	800019f8	86180793	addi	x15,x16,-1951	 x16:0x80009fc4 x15=0x80009825
       63895000	      6388	800019fc	00000013	addi	x0,x0,0	  x0:0x00000000
       63905000	      6389	80001a00	8f932e97	auipc	x29,0x8f932	 x29=0x0f9339fc
       63915000	      6390	80001a04	2fca4393	xori	x7,x20,764	 x20:0x1729506b  x7=0x17295297
       63925000	      6391	80001a08	3cde4c97	auipc	x25,0x3cde4	 x25=0xbcde5a04
       63935000	      6392	80001a0c	9fb92013	slti	x0,x18,-1541	 x18:0x1ffffdb2
       63945000	      6393	80001a10	41cf5293	srai	x5,x30,0x1c	 x30:0xffff9457  x5=0xffffffff
       63955000	      6394	80001a14	01702b33	slt	x22,x0,x23	  x0:0x00000000 x23:0x00000000 x22=0x00000000
       63965000	      6395	80001a18	af31c913	xori	x18,x3,-1293	  x3:0x17295000 x18=0xe8d6aaf3
       63975000	      6396	80001a1c	00dc42b3	xor	x5,x24,x13	 x24:0x00000000 x13:0xffff9457  x5=0xffff9457
       63985000	      6397	80001a20	b77ab213	sltiu	x4,x21,-1161	 x21:0x00000000  x4=0x00000001
       63995000	      6398	80001a24	00d2f2b3	and	x5,x5,x13	  x5:0xffff9457 x13:0xffff9457  x5=0xffff9457
       64005000	      6399	80001a28	6e138717	auipc	x14,0x6e138	 x14=0xee139a24
       64015000	      6400	80001a2c	c2352993	slti	x19,x10,-989	 x10:0x00000000 x19=0x00000000
       64025000	      6401	80001a30	40d6d4b3	sra	x9,x13,x13	 x13:0xffff9457 x13:0xffff9457  x9=0xffffffff
       64035000	      6402	80001a34	8990b993	sltiu	x19,x1,-1895	  x1:0x00000000 x19=0x00000001
       64045000	      6403	80001a38	01133cb3	sltu	x25,x6,x17	  x6:0x000003a4 x17:0x3fd7b3b4 x25=0x00000001
       64055000	      6404	80001a3c	02544863	blt	x8,x5,80001a6c	  x8:0xfffffc8a  x5:0xffff9457
       64065000	      6405	80001a40	025a7863	bgeu	x20,x5,80001a70	 x20:0x1729506b  x5:0xffff9457
       64075000	      6406	80001a44	016bd2b3	srl	x5,x23,x22	 x23:0x00000000 x22:0x00000000  x5=0x00000000
       64085000	      6407	80001a48	00f91c63	bne	x18,x15,80001a60	 x18:0xe8d6aaf3 x15:0x80009825
       64095000	      6408	00000000	00000013	addi	x0,x0,0	  x0:0x00000000
       64105000	      6409	80001a5c	00000013	addi	x0,x0,0	  x0:0x00000000
       64115000	      6410	80001a60	00c304b3	add	x9,x6,x12	  x6:0x000003a4 x12:0x00000000  x9=0x000003a4
       64125000	      6411	80001a64	0193da13	srli	x20,x7,0x19	  x7:0x17295297 x20=0x0000000b
       64135000	      6412	80001a68	46362493	slti	x9,x12,1123	 x12:0x00000000  x9=0x00000001
       64145000	      6413	80001a6c	396fc993	xori	x19,x31,918	 x31:0x00000400 x19=0x00000796
       64155000	      6414	80001a70	00000013	addi	x0,x0,0	  x0:0x00000000
       64165000	      6415	80001a74	05dff063	bgeu	x31,x29,80001ab4	 x31:0x00000400 x29:0x0f9339fc
       64175000	      6416	80001a78	02071063	bne	x14,x0,80001a98	 x14:0xee139a24  x0:0x00000000
       64185000	      6417	00000000	00000013	addi	x0,x0,0	  x0:0x00000000
       64195000	      6418	80001a94	00000013	addi	x0,x0,0	  x0:0x00000000
       64205000	      6419	80001a98	033b4c63	blt	x22,x19,80001ad0	 x22:0x00000000 x19:0x00000796
       64215000	      6420	00000000	00000013	addi	x0,x0,0	  x0:0x00000000
       64225000	      6421	80001acc	00000013	addi	x0,x0,0	  x0:0x00000000
       64235000	      6422	80001ad0	00d31a63	bne	x6,x13,80001ae4	  x6:0x000003a4 x13:0xffff9457
       64245000	      6423	00000000	00000013	addi	x0,x0,0	  x0:0x00000000
       64255000	      6424	80001ae0	00000013	addi	x0,x0,0	  x0:0x00000000
       64265000	      6425	80001ae4	00b81033	sll	x0,x16,x11	 x16:0x80009fc4 x11:0x7fff603c
       64275000	      6426	80001ae8	40ec0733	sub	x14,x24,x14	 x24:0x00000000 x14:0xee139a24 x14=0x11ec65dc
       64285000	      6427	80001aec	04c55663	bge	x10,x12,80001b38	 x10:0x00000000 x12:0x00000000
       64295000	      6428	00000000	00000013	addi	x0,x0,0	  x0:0x00000000
       64305000	      6429	80001b34	00000013	addi	x0,x0,0	  x0:0x00000000
       64315000	      6430	80001b38	0172d2b3	srl	x5,x5,x23	  x5:0x00000000 x23:0x00000000  x5=0x00000000
       64325000	      6431	80001b3c	00882eb3	slt	x29,x16,x8	 x16:0x80009fc4  x8:0xfffffc8a x29=0x00000001
       64335000	      6432	80001b40	05cc5063	bge	x24,x28,80001b80	 x24:0x00000000 x28:0xfffffc8f
       64345000	      6433	00000000	00000013	addi	x0,x0,0	  x0:0x00000000
       64355000	      6434	80001b7c	00000013	addi	x0,x0,0	  x0:0x00000000
       64365000	      6435	80001b80	00fe89b3	add	x19,x29,x15	 x29:0x00000001 x15:0x80009825 x19=0x80009826
       64375000	      6436	80001b84	41ec5a13	srai	x20,x24,0x1e	 x24:0x00000000 x20=0x00000000
       64385000	      6437	80001b88	401fd8b3	sra	x17,x31,x1	 x31:0x00000400  x1:0x00000000 x17=0x00000400
       64395000	      6438	80001b8c	5d0f6913	ori	x18,x30,1488	 x30:0xffff9457 x18=0xffff95d7
       64405000	      6439	80001b90	0186dc63	bge	x13,x24,80001ba8	 x13:0xffff9457 x24:0x00000000
       64415000	      6440	80001b94	df074e13	xori	x28,x14,-528	 x14:0x11ec65dc x28=0xee13982c
       64425000	      6441	80001b98	5827b037	lui	x0,0x5827b	
       64435000	      6442	80001b9c	60ab0e93	addi	x29,x22,1546	 x22:0x00000000 x29=0x0000060a
       64445000	      6443	80001ba0	00042233	slt	x4,x8,x0	  x8:0xfffffc8a  x0:0x00000000  x4=0x00000001
       64455000	      6444	80001ba4	004f9d13	slli	x26,x31,0x4	 x31:0x00000400 x26=0x00004000
       64465000	      6445	80001ba8	00abd393	srli	x7,x23,0xa	 x23:0x00000000  x7=0x00000000
       64475000	      6446	80001bac	01657a63	bgeu	x10,x22,80001bc0	 x10:0x00000000 x22:0x00000000
       64485000	      6447	00000000	00000013	addi	x0,x0,0	  x0:0x00000000
       64495000	      6448	80001bbc	00000013	addi	x0,x0,0	  x0:0x00000000
       64505000	      6449	80001bc0	05b26863	bltu	x4,x27,80001c10	  x4:0x00000001 x27:0x80009efc
       64515000	      6450	00000000	00000013	addi	x0,x0,0	  x0:0x00000000
       64525000	      6451	80001c0c	00000013	addi	x0,x0,0	  x0:0x00000000
       64535000	      6452	80001c10	41c78133	sub	x2,x15,x28	 x15:0x80009825 x28:0xee13982c  x2=0x91ecfff9
       64545000	      6453	80001c14	007d8263	beq	x27,x7,80001c18	 x27:0x80009efc  x7:0x00000000
       64555000	      6454	80001c18	03c57663	bgeu	x10,x28,80001c44	 x10:0x00000000 x28:0xee13982c
       64565000	      6455	80001c1c	ab7db713	sltiu	x14,x27,-1353	 x27:0x80009efc x14=0x00000001
       64575000	      6456	80001c20	01875c33	srl	x24,x14,x24	 x14:0x00000001 x24:0x00000000 x24=0x00000001
       64585000	      6457	80001c24	002bd893	srli	x17,x23,0x2	 x23:0x00000000 x17=0x00000000
       64595000	      6458	80001c28	0b4e8063	beq	x29,x20,80001cc8	 x29:0x0000060a x20:0x00000000
       64605000	      6459	80001c2c	d29efb93	andi	x23,x29,-727	 x29:0x0000060a x23=0x00000408
       64615000	      6460	80001c30	01538533	add	x10,x7,x21	  x7:0x00000000 x21:0x00000000 x10=0x00000000
       64625000	      6461	80001c34	01397233	and	x4,x18,x19	 x18:0xffff95d7 x19:0x80009826  x4=0x80009006
       64635000	      6462	80001c38	005c5663	bge	x24,x5,80001c44	 x24:0x00000001  x5:0x00000000
       64645000	      6463	00000000	00000013	addi	x0,x0,0	  x0:0x00000000
       64655000	      6464	80001c40	00000013	addi	x0,x0,0	  x0:0x00000000
       64665000	      6465	80001c44	945d3213	sltiu	x4,x26,-1723	 x26:0x00004000  x4=0x00000001
       64675000	      6466	80001c48	00000013	addi	x0,x0,0	  x0:0x00000000
       64685000	      6467	80001c4c	a26cca17	auipc	x20,0xa26cc	 x20=0x226cdc48
       64695000	      6468	80001c50	008fb7b3	sltu	x15,x31,x8	 x31:0x00000400  x8:0xfffffc8a x15=0x00000001
       64705000	      6469	80001c54	00007117	auipc	x2,0x7	  x2=0x80008c50
       64715000	      6470	80001c58	fa910113	addi	x2,x2,-87	  x2:0x80008c50  x2=0x80008bf9
       64725000	      6471	80001c5c	0e5121a3	sw	x5,227(x2)	  x2:0x80008bf9  x5:0x00000000 PA:0x80008cdc
       64735000	      6472	80001c60	0188fe33	and	x28,x17,x24	 x17:0x00000000 x24:0x00000001 x28=0x00000000
       64745000	      6473	80001c64	019ec933	xor	x18,x29,x25	 x29:0x0000060a x25:0x00000001 x18=0x0000060b
       64755000	      6474	80001c68	416dd713	srai	x14,x27,0x16	 x27:0x80009efc x14=0xfffffe00
       64765000	      6475	80001c6c	400cd513	srai	x10,x25,0x0	 x25:0x00000001 x10=0x00000001
       64775000	      6476	80001c70	02baf193	andi	x3,x21,43	 x21:0x00000000  x3=0x00000000
       64785000	      6477	80001c74	db414a03	lbu	x20,-588(x2)	  x2:0x80008bf9 x20=0x0000002d PA:0x800089ad
       64795000	      6478	80001c78	08014c83	lbu	x25,128(x2)	  x2:0x80008bf9 x25=0x000000da PA:0x80008c79
       64805000	      6479	80001c7c	00f9dc93	srli	x25,x19,0xf	 x19:0x80009826 x25=0x00010001
       64815000	      6480	80001c80	dcc10403	lb	x8,-564(x2)	  x2:0x80008bf9  x8=0xffffffda PA:0x800089c5
       64825000	      6481	80001c84	23114003	lbu	x0,561(x2)	  x2:0x80008bf9 PA:0x80008e2a
       64835000	      6482	80001c88	00000013	addi	x0,x0,0	  x0:0x00000000
       64845000	      6483	80001c8c	27d10403	lb	x8,637(x2)	  x2:0x80008bf9  x8=0x0000006f PA:0x80008e76
       64855000	      6484	80001c90	01f3f533	and	x10,x7,x31	  x7:0x00000000 x31:0x00000400 x10=0x00000000
       64865000	      6485	80001c94	c4e10683	lb	x13,-946(x2)	  x2:0x80008bf9 x13=0xffffffe5 PA:0x80008847
       64875000	      6486	80001c98	002856b3	srl	x13,x16,x2	 x16:0x80009fc4  x2:0x80008bf9 x13=0x00000040
       64885000	      6487	80001c9c	cef1e493	ori	x9,x3,-785	  x3:0x00000000  x9=0xfffffcef
       64895000	      6488	80001ca0	012788b3	add	x17,x15,x18	 x15:0x00000001 x18:0x0000060b x17=0x0000060c
       64905000	      6489	80001ca4	220113a3	sh	x0,551(x2)	  x2:0x80008bf9  x0:0x00000000 PA:0x80008e20
       64915000	      6490	80001ca8	af346537	lui	x10,0xaf346	 x10=0xaf346000
       64925000	      6491	80001cac	02010503	lb	x10,32(x2)	  x2:0x80008bf9 x10=0x00000018 PA:0x80008c19
       64935000	      6492	80001cb0	d6d10c83	lb	x25,-659(x2)	  x2:0x80008bf9 x25=0xffffffd5 PA:0x80008966
       64945000	      6493	80001cb4	f8910d23	sb	x9,-102(x2)	  x2:0x80008bf9  x9:0xfffffcef PA:0x80008b93
       64955000	      6494	80001cb8	416b8eb3	sub	x29,x23,x22	 x23:0x00000408 x22:0x00000000 x29=0x00000408
       64965000	      6495	80001cbc	001a1693	slli	x13,x20,0x1	 x20:0x0000002d x13=0x0000005a
       64975000	      6496	80001cc0	c8711fa3	sh	x7,-865(x2)	  x2:0x80008bf9  x7:0x00000000 PA:0x80008898
       64985000	      6497	80001cc4	013f1533	sll	x10,x30,x19	 x30:0xffff9457 x19:0x80009826 x10=0xffe515c0
       64995000	      6498	80001cc8	35067113	andi	x2,x12,848	 x12:0x00000000  x2=0x00000000
       65005000	      6499	80001ccc	019c33b3	sltu	x7,x24,x25	 x24:0x00000001 x25:0xffffffd5  x7=0x00000001
       65015000	      6500	80001cd0	01f3e3b3	or	x7,x7,x31	  x7:0x00000001 x31:0x00000400  x7=0x00000401
       65025000	      6501	80001cd4	00500133	add	x2,x0,x5	  x0:0x00000000  x5:0x00000000  x2=0x00000000
       65035000	      6502	80001cd8	034c4063	blt	x24,x20,80001cf8	 x24:0x00000001 x20:0x0000002d
       65045000	      6503	00000000	00000013	addi	x0,x0,0	  x0:0x00000000
       65055000	      6504	80001cf4	00000013	addi	x0,x0,0	  x0:0x00000000
       65065000	      6505	80001cf8	02047063	bgeu	x8,x0,80001d18	  x8:0x0000006f  x0:0x00000000
       65075000	      6506	00000000	00000013	addi	x0,x0,0	  x0:0x00000000
       65085000	      6507	80001d14	00000013	addi	x0,x0,0	  x0:0x00000000
       65095000	      6508	80001d18	01631533	sll	x10,x6,x22	  x6:0x000003a4 x22:0x00000000 x10=0x000003a4
       65105000	      6509	80001d1c	30cdf893	andi	x17,x27,780	 x27:0x80009efc x17=0x0000020c
       65115000	      6510	80001d20	04f5e063	bltu	x11,x15,80001d60	 x11:0x7fff603c x15:0x00000001
       65125000	      6511	80001d24	00198c63	beq	x19,x1,80001d3c	 x19:0x80009826  x1:0x00000000
       65135000	      6512	80001d28	0243f063	bgeu	x7,x4,80001d48	  x7:0x00000401  x4:0x00000001
       65145000	      6513	00000000	00000013	addi	x0,x0,0	  x0:0x00000000
       65155000	      6514	80001d44	00000013	addi	x0,x0,0	  x0:0x00000000
       65165000	      6515	80001d48	0353ca63	blt	x7,x21,80001d7c	  x7:0x00000401 x21:0x00000000
       65175000	      6516	80001d4c	00000013	addi	x0,x0,0	  x0:0x00000000
       65185000	      6517	80001d50	05d60663	beq	x12,x29,80001d9c	 x12:0x00000000 x29:0x00000408
       65195000	      6518	80001d54	02145c63	bge	x8,x1,80001d8c	  x8:0x0000006f  x1:0x00000000
       65205000	      6519	00000000	00000013	addi	x0,x0,0	  x0:0x00000000
       65215000	      6520	80001d88	00000013	addi	x0,x0,0	  x0:0x00000000
       65225000	      6521	80001d8c	9904a613	slti	x12,x9,-1648	  x9:0xfffffcef x12=0x00000000
       65235000	      6522	80001d90	003e5293	srli	x5,x28,0x3	 x28:0x00000000  x5=0x00000000
       65245000	      6523	80001d94	8aebc213	xori	x4,x23,-1874	 x23:0x00000408  x4=0xfffffca6
       65255000	      6524	80001d98	01279e93	slli	x29,x15,0x12	 x15:0x00000001 x29=0x00040000
       65265000	      6525	80001d9c	00657c63	bgeu	x10,x6,80001db4	 x10:0x000003a4  x6:0x000003a4
       65275000	      6526	00000000	00000013	addi	x0,x0,0	  x0:0x00000000
       65285000	      6527	80001db0	00000013	addi	x0,x0,0	  x0:0x00000000
       65295000	      6528	80001db4	01b8ceb3	xor	x29,x17,x27	 x17:0x0000020c x27:0x80009efc x29=0x80009cf0
       65305000	      6529	80001db8	f51a9537	lui	x10,0xf51a9	 x10=0xf51a9000
       65315000	      6530	80001dbc	402b5bb3	sra	x23,x22,x2	 x22:0x00000000  x2:0x00000000 x23=0x00000000
       65325000	      6531	80001dc0	40a40eb3	sub	x29,x8,x10	  x8:0x0000006f x10:0xf51a9000 x29=0x0ae5706f
       65335000	      6532	80001dc4	010a9c63	bne	x21,x16,80001ddc	 x21:0x00000000 x16:0x80009fc4
       65345000	      6533	00000000	00000013	addi	x0,x0,0	  x0:0x00000000
       65355000	      6534	80001dd8	00000013	addi	x0,x0,0	  x0:0x00000000
       65365000	      6535	80001ddc	a4552413	slti	x8,x10,-1467	 x10:0xf51a9000  x8=0x00000001
       65375000	      6536	80001de0	419389b3	sub	x19,x7,x25	  x7:0x00000401 x25:0xffffffd5 x19=0x0000042c
       65385000	      6537	80001de4	00000013	addi	x0,x0,0	  x0:0x00000000
       65395000	      6538	80001de8	010ae5b3	or	x11,x21,x16	 x21:0x00000000 x16:0x80009fc4 x11=0x80009fc4
       65405000	      6539	80001dec	41650fb3	sub	x31,x10,x22	 x10:0xf51a9000 x22:0x00000000 x31=0xf51a9000
       65415000	      6540	80001df0	0027b1b3	sltu	x3,x15,x2	 x15:0x00000001  x2:0x00000000  x3=0x00000000
       65425000	      6541	80001df4	0119bb33	sltu	x22,x19,x17	 x19:0x0000042c x17:0x0000020c x22=0x00000000
       65435000	      6542	80001df8	00113133	sltu	x2,x2,x1	  x2:0x00000000  x1:0x00000000  x2=0x00000000
       65445000	      6543	80001dfc	0154b3b3	sltu	x7,x9,x21	  x9:0xfffffcef x21:0x00000000  x7=0x00000000
       65455000	      6544	80001e00	01031693	slli	x13,x6,0x10	  x6:0x000003a4 x13=0x03a40000
       65465000	      6545	80001e04	019e6263	bltu	x28,x25,80001e08	 x28:0x00000000 x25:0xffffffd5
       65475000	      6546	00000000	00000013	addi	x0,x0,0	  x0:0x00000000
       65485000	      6547	80001e04	00000013	addi	x0,x0,0	  x0:0x00000000
       65495000	      6548	80001e08	50866997	auipc	x19,0x50866	 x19=0xd0867e04
       65505000	      6549	80001e0c	01521e13	slli	x28,x4,0x15	  x4:0xfffffca6 x28=0x94c00000
       65515000	      6550	80001e10	04d6d663	bge	x13,x13,80001e5c	 x13:0x03a40000 x13:0x03a40000
       65525000	      6551	00000000	00000013	addi	x0,x0,0	  x0:0x00000000
       65535000	      6552	80001e58	00000013	addi	x0,x0,0	  x0:0x00000000
       65545000	      6553	80001e5c	00640033	add	x0,x8,x6	  x8:0x00000001  x6:0x000003a4
       65555000	      6554	80001e60	407d5513	srai	x10,x26,0x7	 x26:0x00004000 x10=0x00000080
       65565000	      6555	80001e64	010a2eb3	slt	x29,x20,x16	 x20:0x0000002d x16:0x80009fc4 x29=0x00000000
       65575000	      6556	80001e68	01b9fc63	bgeu	x19,x27,80001e80	 x19:0xd0867e04 x27:0x80009efc
       65585000	      6557	00000000	00000013	addi	x0,x0,0	  x0:0x00000000
       65595000	      6558	80001e7c	00000013	addi	x0,x0,0	  x0:0x00000000
       65605000	      6559	80001e80	018d1a63	bne	x26,x24,80001e94	 x26:0x00004000 x24:0x00000001
       65615000	      6560	00000000	00000013	addi	x0,x0,0	  x0:0x00000000
       65625000	      6561	80001e90	00000013	addi	x0,x0,0	  x0:0x00000000
       65635000	      6562	80001e94	01095e63	bge	x18,x16,80001eb0	 x18:0x0000060b x16:0x80009fc4
       65645000	      6563	00000000	00000013	addi	x0,x0,0	  x0:0x00000000
       65655000	      6564	80001eac	00000013	addi	x0,x0,0	  x0:0x00000000
       65665000	      6565	80001eb0	01c1fc63	bgeu	x3,x28,80001ec8	  x3:0x00000000 x28:0x94c00000
       65675000	      6566	80001eb4	4167dc33	sra	x24,x15,x22	 x15:0x00000001 x22:0x00000000 x24=0x00000001
       65685000	      6567	80001eb8	00000013	addi	x0,x0,0	  x0:0x00000000
       65695000	      6568	80001ebc	002d1c93	slli	x25,x26,0x2	 x26:0x00004000 x25=0x00010000
       65705000	      6569	80001ec0	01d45133	srl	x2,x8,x29	  x8:0x00000001 x29:0x00000000  x2=0x00000001
       65715000	      6570	80001ec4	0492f863	bgeu	x5,x9,80001f14	  x5:0x00000000  x9:0xfffffcef
       65725000	      6571	80001ec8	cb777893	andi	x17,x14,-841	 x14:0xfffffe00 x17=0xfffffc00
       65735000	      6572	80001ecc	00cd4e63	blt	x26,x12,80001ee8	 x26:0x00004000 x12:0x00000000
       65745000	      6573	80001ed0	0136b5b3	sltu	x11,x13,x19	 x13:0x03a40000 x19:0xd0867e04 x11=0x00000001
       65755000	      6574	80001ed4	02de5863	bge	x28,x13,80001f04	 x28:0x94c00000 x13:0x03a40000
       65765000	      6575	80001ed8	01736133	or	x2,x6,x23	  x6:0x000003a4 x23:0x00000000  x2=0x000003a4
       65775000	      6576	80001edc	0107b693	sltiu	x13,x15,16	 x15:0x00000001 x13=0x00000001
       65785000	      6577	80001ee0	01451eb3	sll	x29,x10,x20	 x10:0x00000080 x20:0x0000002d x29=0x00100000
       65795000	      6578	80001ee4	414c5613	srai	x12,x24,0x14	 x24:0x00000001 x12=0x00000000
       65805000	      6579	80001ee8	f2bec013	xori	x0,x29,-213	 x29:0x00100000
       65815000	      6580	80001eec	000c03b3	add	x7,x24,x0	 x24:0x00000001  x0:0x00000000  x7=0x00000001
       65825000	      6581	80001ef0	7f683e93	sltiu	x29,x16,2038	 x16:0x80009fc4 x29=0x00000000
       65835000	      6582	80001ef4	f6a33437	lui	x8,0xf6a33	  x8=0xf6a33000
       65845000	      6583	80001ef8	87b48213	addi	x4,x9,-1925	  x9:0xfffffcef  x4=0xfffff56a
       65855000	      6584	80001efc	054e9663	bne	x29,x20,80001f48	 x29:0x00000000 x20:0x0000002d
       65865000	      6585	00000000	00000013	addi	x0,x0,0	  x0:0x00000000
       65875000	      6586	80001f44	00000013	addi	x0,x0,0	  x0:0x00000000
       65885000	      6587	80001f48	01b31933	sll	x18,x6,x27	  x6:0x000003a4 x27:0x80009efc x18=0x40000000
       65895000	      6588	80001f4c	3232c9b7	lui	x19,0x3232c	 x19=0x3232c000
       65905000	      6589	80001f50	b33f7417	auipc	x8,0xb33f7	  x8=0x333f8f4c
       65915000	      6590	80001f54	41f50cb3	sub	x25,x10,x31	 x10:0x00000080 x31:0xf51a9000 x25=0x0ae57080
       65925000	      6591	80001f58	62a53293	sltiu	x5,x10,1578	 x10:0x00000080  x5=0x00000001
       65935000	      6592	80001f5c	48136113	ori	x2,x6,1153	  x6:0x000003a4  x2=0x000007a5
       65945000	      6593	80001f60	0118abb3	slt	x23,x17,x17	 x17:0xfffffc00 x17:0xfffffc00 x23=0x00000000
       65955000	      6594	80001f64	016533b3	sltu	x7,x10,x22	 x10:0x00000080 x22:0x00000000  x7=0x00000000
       65965000	      6595	80001f68	01f143b3	xor	x7,x2,x31	  x2:0x000007a5 x31:0xf51a9000  x7=0xf51a97a5
       65975000	      6596	80001f6c	98c83a97	auipc	x21,0x98c83	 x21=0x18c84f68
       65985000	      6597	80001f70	b5fe4713	xori	x14,x28,-1185	 x28:0x94c00000 x14=0x6b3ffb5f
       65995000	      6598	80001f74	014a4d33	xor	x26,x20,x20	 x20:0x0000002d x20:0x0000002d x26=0x00000000
       66005000	      6599	80001f78	0049ef33	or	x30,x19,x4	 x19:0x3232c000  x4:0xfffff56a x30=0xfffff56a
       66015000	      6600	80001f7c	db36cb93	xori	x23,x13,-589	 x13:0x00000001 x23=0xfffffdb2
       66025000	      6601	80001f80	00000013	addi	x0,x0,0	  x0:0x00000000
       66035000	      6602	80001f84	000ddb93	srli	x23,x27,0x0	 x27:0x80009efc x23=0x80009efc
       66045000	      6603	80001f88	000b4eb3	xor	x29,x22,x0	 x22:0x00000000  x0:0x00000000 x29=0x00000000
       66055000	      6604	80001f8c	2764b213	sltiu	x4,x9,630	  x9:0xfffffcef  x4=0x00000000
       66065000	      6605	80001f90	019286b3	add	x13,x5,x25	  x5:0x00000001 x25:0x0ae57080 x13=0x0ae57081
       66075000	      6606	80001f94	12e76017	auipc	x0,0x12e76	
       66085000	      6607	80001f98	014dccb3	xor	x25,x27,x20	 x27:0x80009efc x20:0x0000002d x25=0x80009ed1
       66095000	      6608	80001f9c	0a25da37	lui	x20,0xa25d	 x20=0x0a25d000
       66105000	      6609	80001fa0	01c7df93	srli	x31,x15,0x1c	 x15:0x00000001 x31=0x00000000
       66115000	      6610	80001fa4	014d9593	slli	x11,x27,0x14	 x27:0x80009efc x11=0xefc00000
       66125000	      6611	80001fa8	04ff1663	bne	x30,x15,80001ff4	 x30:0xfffff56a x15:0x00000001
       66135000	      6612	00000000	00000013	addi	x0,x0,0	  x0:0x00000000
       66145000	      6613	80001ff0	00000013	addi	x0,x0,0	  x0:0x00000000
       66155000	      6614	80001ff4	001e5933	srl	x18,x28,x1	 x28:0x94c00000  x1:0x00000000 x18=0x94c00000
       66165000	      6615	80001ff8	5eb41c97	auipc	x25,0x5eb41	 x25=0xdeb42ff4
       66175000	      6616	80001ffc	001d01b3	add	x3,x26,x1	 x26:0x00000000  x1:0x00000000  x3=0x00000000
       66185000	      6617	80002000	bb5d8113	addi	x2,x27,-1099	 x27:0x80009efc  x2=0x80009ab1
       66195000	      6618	80002004	00000013	addi	x0,x0,0	  x0:0x00000000
       66205000	      6619	80002008	0e5f3613	sltiu	x12,x30,229	 x30:0xfffff56a x12=0x00000000
       66215000	      6620	8000200c	0123efb3	or	x31,x7,x18	  x7:0xf51a97a5 x18:0x94c00000 x31=0xf5da97a5
       66225000	      6621	80002010	05541063	bne	x8,x21,80002050	  x8:0x333f8f4c x21:0x18c84f68
       66235000	      6622	00000000	00000013	addi	x0,x0,0	  x0:0x00000000
       66245000	      6623	8000204c	00000013	addi	x0,x0,0	  x0:0x00000000
       66255000	      6624	80002050	01ef6863	bltu	x30,x30,80002060	 x30:0xfffff56a x30:0xfffff56a
       66265000	      6625	80002054	02eb9063	bne	x23,x14,80002074	 x23:0x80009efc x14:0x6b3ffb5f
       66275000	      6626	00000000	00000013	addi	x0,x0,0	  x0:0x00000000
       66285000	      6627	80002070	00000013	addi	x0,x0,0	  x0:0x00000000
       66295000	      6628	80002074	40f60533	sub	x10,x12,x15	 x12:0x00000000 x15:0x00000001 x10=0xffffffff
       66305000	      6629	80002078	1c8ef913	andi	x18,x29,456	 x29:0x00000000 x18=0x00000000
       66315000	      6630	8000207c	00190663	beq	x18,x1,80002088	 x18:0x00000000  x1:0x00000000
       66325000	      6631	00000000	00000013	addi	x0,x0,0	  x0:0x00000000
       66335000	      6632	80002084	00000013	addi	x0,x0,0	  x0:0x00000000
       66345000	      6633	80002088	997bcab7	lui	x21,0x997bc	 x21=0x997bc000
       66355000	      6634	8000208c	016b1b33	sll	x22,x22,x22	 x22:0x00000000 x22:0x00000000 x22=0x00000000
       66365000	      6635	80002090	00e7c263	blt	x15,x14,80002094	 x15:0x00000001 x14:0x6b3ffb5f
       66375000	      6636	00000000	00000013	addi	x0,x0,0	  x0:0x00000000
       66385000	      6637	80002090	00000013	addi	x0,x0,0	  x0:0x00000000
       66395000	      6638	80002094	f2db8193	addi	x3,x23,-211	 x23:0x80009efc  x3=0x80009e29
       66405000	      6639	80002098	00000013	addi	x0,x0,0	  x0:0x00000000
       66415000	      6640	8000209c	47f53a13	sltiu	x20,x10,1151	 x10:0xffffffff x20=0x00000000
       66425000	      6641	800020a0	ce852293	slti	x5,x10,-792	 x10:0xffffffff  x5=0x00000000
       66435000	      6642	800020a4	c12ea313	slti	x6,x29,-1006	 x29:0x00000000  x6=0x00000000
       66445000	      6643	800020a8	c4ae7e93	andi	x29,x28,-950	 x28:0x94c00000 x29=0x94c00000
       66455000	      6644	800020ac	037ef863	bgeu	x29,x23,800020dc	 x29:0x94c00000 x23:0x80009efc
       66465000	      6645	00000000	00000013	addi	x0,x0,0	  x0:0x00000000
       66475000	      6646	800020d8	00000013	addi	x0,x0,0	  x0:0x00000000
       66485000	      6647	800020dc	0394c663	blt	x9,x25,80002108	  x9:0xfffffcef x25:0xdeb42ff4
       66495000	      6648	800020e0	0127d133	srl	x2,x15,x18	 x15:0x00000001 x18:0x00000000  x2=0x00000001
       66505000	      6649	800020e4	03a88863	beq	x17,x26,80002114	 x17:0xfffffc00 x26:0x00000000
       66515000	      6650	800020e8	029e8063	beq	x29,x9,80002108	 x29:0x94c00000  x9:0xfffffcef
       66525000	      6651	800020ec	0163cc63	blt	x7,x22,80002104	  x7:0xf51a97a5 x22:0x00000000
       66535000	      6652	00000000	00000013	addi	x0,x0,0	  x0:0x00000000
       66545000	      6653	80002100	00000013	addi	x0,x0,0	  x0:0x00000000
       66555000	      6654	80002104	01e2de33	srl	x28,x5,x30	  x5:0x00000000 x30:0xfffff56a x28=0x00000000
       66565000	      6655	80002108	01361a33	sll	x20,x12,x19	 x12:0x00000000 x19:0x3232c000 x20=0x00000000
       66575000	      6656	8000210c	014d8e33	add	x28,x27,x20	 x27:0x80009efc x20:0x00000000 x28=0x80009efc
       66585000	      6657	80002110	4147dfb3	sra	x31,x15,x20	 x15:0x00000001 x20:0x00000000 x31=0x00000001
       66595000	      6658	80002114	a832f193	andi	x3,x5,-1405	  x5:0x00000000  x3=0x00000000
       66605000	      6659	80002118	00006f97	auipc	x31,0x6	 x31=0x80008114
       66615000	      6660	8000211c	08cf8f93	addi	x31,x31,140	 x31:0x80008114 x31=0x800081a0
       66625000	      6661	80002120	7d82ae93	slti	x29,x5,2008	  x5:0x00000000 x29=0x00000001
       66635000	      6662	80002124	41c402b3	sub	x5,x8,x28	  x8:0x333f8f4c x28:0x80009efc  x5=0xb33ef050
       66645000	      6663	80002128	00ef8c83	lb	x25,14(x31)	 x31:0x800081a0 x25=0xffffffc7 PA:0x800081ae
       66655000	      6664	8000212c	00000013	addi	x0,x0,0	  x0:0x00000000
       66665000	      6665	80002130	d57fbb13	sltiu	x22,x31,-681	 x31:0x800081a0 x22=0x00000001
       66675000	      6666	80002134	e5c4cc13	xori	x24,x9,-420	  x9:0xfffffcef x24=0x000002b3
       66685000	      6667	80002138	2ef91d37	lui	x26,0x2ef91	 x26=0x2ef91000
       66695000	      6668	8000213c	fedf9823	sh	x13,-16(x31)	 x31:0x800081a0 x13:0x0ae57081 PA:0x80008190
       66705000	      6669	80002140	e6e30213	addi	x4,x6,-402	  x6:0x00000000  x4=0xfffffe6e
       66715000	      6670	80002144	018fb1b3	sltu	x3,x31,x24	 x31:0x800081a0 x24:0x000002b3  x3=0x00000000
       66725000	      6671	80002148	00b37633	and	x12,x6,x11	  x6:0x00000000 x11:0xefc00000 x12=0x00000000
       66735000	      6672	8000214c	01bf9223	sh	x27,4(x31)	 x31:0x800081a0 x27:0x80009efc PA:0x800081a4
       66745000	      6673	80002150	0109a333	slt	x6,x19,x16	 x19:0x3232c000 x16:0x80009fc4  x6=0x00000000
       66755000	      6674	80002154	003f8483	lb	x9,3(x31)	 x31:0x800081a0  x9=0x0000007a PA:0x800081a3
       66765000	      6675	80002158	9123de97	auipc	x29,0x9123d	 x29=0x1123f154
       66775000	      6676	8000215c	00aa7f33	and	x30,x20,x10	 x20:0x00000000 x10:0xffffffff x30=0x00000000
       66785000	      6677	80002160	95fd5d37	lui	x26,0x95fd5	 x26=0x95fd5000
       66795000	      6678	80002164	ffff8183	lb	x3,-1(x31)	 x31:0x800081a0  x3=0x0000004b PA:0x8000819f
       66805000	      6679	80002168	fe0fac23	sw	x0,-8(x31)	 x31:0x800081a0  x0:0x00000000 PA:0x80008198
       66815000	      6680	8000216c	010e9633	sll	x12,x29,x16	 x29:0x1123f154 x16:0x80009fc4 x12=0x123f1540
       66825000	      6681	80002170	416cd233	sra	x4,x25,x22	 x25:0xffffffc7 x22:0x00000001  x4=0xffffffe3
       66835000	      6682	80002174	00dbb8b3	sltu	x17,x23,x13	 x23:0x80009efc x13:0x0ae57081 x17=0x00000000
       66845000	      6683	80002178	0061c7b3	xor	x15,x3,x6	  x3:0x0000004b  x6:0x00000000 x15=0x0000004b
       66855000	      6684	8000217c	fe8f8aa3	sb	x8,-11(x31)	 x31:0x800081a0  x8:0x333f8f4c PA:0x80008195
       66865000	      6685	80002180	00af8523	sb	x10,10(x31)	 x31:0x800081a0 x10:0xffffffff PA:0x800081aa
       66875000	      6686	80002184	150dfb93	andi	x23,x27,336	 x27:0x80009efc x23=0x00000050
       66885000	      6687	80002188	ff7fc903	lbu	x18,-9(x31)	 x31:0x800081a0 x18=0x00000013 PA:0x80008197
       66895000	      6688	8000218c	015017b3	sll	x15,x0,x21	  x0:0x00000000 x21:0x997bc000 x15=0x00000000
       66905000	      6689	80002190	40bd5bb3	sra	x23,x26,x11	 x26:0x95fd5000 x11:0xefc00000 x23=0x95fd5000
       66915000	      6690	80002194	ff7f8383	lb	x7,-9(x31)	 x31:0x800081a0  x7=0x00000013 PA:0x80008197
       66925000	      6691	80002198	00349493	slli	x9,x9,0x3	  x9:0x0000007a  x9=0x000003d0
       66935000	      6692	8000219c	0019a933	slt	x18,x19,x1	 x19:0x3232c000  x1:0x00000000 x18=0x00000000
       66945000	      6693	800021a0	ffbfc283	lbu	x5,-5(x31)	 x31:0x800081a0  x5=0x00000000 PA:0x8000819b
       66955000	      6694	800021a4	ff6f8923	sb	x22,-14(x31)	 x31:0x800081a0 x22:0x00000001 PA:0x80008192
       66965000	      6695	800021a8	5fb50fb7	lui	x31,0x5fb50	 x31=0x5fb50000
       66975000	      6696	800021ac	01862533	slt	x10,x12,x24	 x12:0x123f1540 x24:0x000002b3 x10=0x00000000
       66985000	      6697	800021b0	03615c63	bge	x2,x22,800021e8	  x2:0x00000001 x22:0x00000001
       66995000	      6698	00000000	00000013	addi	x0,x0,0	  x0:0x00000000
       67005000	      6699	800021e4	00000013	addi	x0,x0,0	  x0:0x00000000
       67015000	      6700	800021e8	084ef493	andi	x9,x29,132	 x29:0x1123f154  x9=0x00000004
       67025000	      6701	800021ec	01d13a33	sltu	x20,x2,x29	  x2:0x00000001 x29:0x1123f154 x20=0x00000001
       67035000	      6702	800021f0	01362fb3	slt	x31,x12,x19	 x12:0x123f1540 x19:0x3232c000 x31=0x00000001
       67045000	      6703	800021f4	011bd663	bge	x23,x17,80002200	 x23:0x95fd5000 x17:0x00000000
       67055000	      6704	800021f8	04155663	bge	x10,x1,80002244	 x10:0x00000000  x1:0x00000000
       67065000	      6705	00000000	00000013	addi	x0,x0,0	  x0:0x00000000
       67075000	      6706	80002240	00000013	addi	x0,x0,0	  x0:0x00000000
       67085000	      6707	80002244	00000013	addi	x0,x0,0	  x0:0x00000000
       67095000	      6708	80002248	fad12b93	slti	x23,x2,-83	  x2:0x00000001 x23=0x00000000
       67105000	      6709	8000224c	00bf55b3	srl	x11,x30,x11	 x30:0x00000000 x11:0xefc00000 x11=0x00000000
       67115000	      6710	80002250	409d0933	sub	x18,x26,x9	 x26:0x95fd5000  x9:0x00000004 x18=0x95fd4ffc
       67125000	      6711	80002254	015361b3	or	x3,x6,x21	  x6:0x00000000 x21:0x997bc000  x3=0x997bc000
       67135000	      6712	80002258	5043e937	lui	x18,0x5043e	 x18=0x5043e000
       67145000	      6713	8000225c	014bdbb3	srl	x23,x23,x20	 x23:0x00000000 x20:0x00000001 x23=0x00000000
       67155000	      6714	80002260	00aeca33	xor	x20,x29,x10	 x29:0x1123f154 x10:0x00000000 x20=0x1123f154
       67165000	      6715	80002264	40d7db33	sra	x22,x15,x13	 x15:0x00000000 x13:0x0ae57081 x22=0x00000000
       67175000	      6716	80002268	1f073737	lui	x14,0x1f073	 x14=0x1f073000
       67185000	      6717	8000226c	008a6a33	or	x20,x20,x8	 x20:0x1123f154  x8:0x333f8f4c x20=0x333fff5c
       67195000	      6718	80002270	004da903	lw	x18,4(x27)	 x27:0x80009efc x18=0x800050e4 PA:0x80009f00
       67205000	      6719	80002274	01beb2b3	sltu	x5,x29,x27	 x29:0x1123f154 x27:0x80009efc  x5=0x00000001
       67215000	      6720	80002278	038d8d93	addi	x27,x27,56	 x27:0x80009efc x27=0x80009f34
       67225000	      6721	8000227c	00a0e2b3	or	x5,x1,x10	  x1:0x00000000 x10:0x00000000  x5=0x00000000
       67235000	      6722	80002280	a5880b13	addi	x22,x16,-1448	 x16:0x80009fc4 x22=0x80009a1c
       67245000	      6723	80002284	af7b6313	ori	x6,x22,-1289	 x22:0x80009a1c  x6=0xfffffaff
       67255000	      6724	80002288	d9352037	lui	x0,0xd9352	
       67265000	      6725	8000228c	41375fb3	sra	x31,x14,x19	 x14:0x1f073000 x19:0x3232c000 x31=0x1f073000
       67275000	      6726	80002290	00092333	slt	x6,x18,x0	 x18:0x800050e4  x0:0x00000000  x6=0x00000001
       67285000	      6727	80002294	63894413	xori	x8,x18,1592	 x18:0x800050e4  x8=0x800056dc
       67295000	      6728	80002298	4108dfb3	sra	x31,x17,x16	 x17:0x00000000 x16:0x80009fc4 x31=0x00000000
       67305000	      6729	8000229c	00190393	addi	x7,x18,1	 x18:0x800050e4  x7=0x800050e5
       67315000	      6730	800022a0	000383e7	jalr	x7,x7,0	  x7:0x800050e5  x7=0x800022a0
       67325000	      6731	00000000	00000013	addi	x0,x0,0	  x0:0x00000000
       67335000	      6732	800050e4	00000013	addi	x0,x0,0	  x0:0x00000000
       67345000	      6733	800050e8	f0917717	auipc	x14,0xf0917	 x14=0x7091c0e4
       67355000	      6734	800050ec	01925863	bge	x4,x25,800050fc	  x4:0xffffffe3 x25:0xffffffc7
       67365000	      6735	00000000	00000013	addi	x0,x0,0	  x0:0x00000000
       67375000	      6736	800050f8	00000013	addi	x0,x0,0	  x0:0x00000000
       67385000	      6737	800050fc	879dc293	xori	x5,x27,-1927	 x27:0x80009f34  x5=0x7fff674d
       67395000	      6738	80005100	01701bb3	sll	x23,x0,x23	  x0:0x00000000 x23:0x00000000 x23=0x00000000
       67405000	      6739	80005104	73c2fb13	andi	x22,x5,1852	  x5:0x7fff674d x22=0x0000070c
       67415000	      6740	80005108	fbe80f37	lui	x30,0xfbe80	 x30=0xfbe80000
       67425000	      6741	8000510c	013f5c63	bge	x30,x19,80005124	 x30:0xfbe80000 x19:0x3232c000
       67435000	      6742	80005110	41c5de13	srai	x28,x11,0x1c	 x11:0x00000000 x28=0x00000000
       67445000	      6743	80005114	01a9e8b3	or	x17,x19,x26	 x19:0x3232c000 x26:0x95fd5000 x17=0xb7ffd000
       67455000	      6744	80005118	01fff8b3	and	x17,x31,x31	 x31:0x00000000 x31:0x00000000 x17=0x00000000
       67465000	      6745	8000511c	7fbd8193	addi	x3,x27,2043	 x27:0x80009f34  x3=0x8000a72f
       67475000	      6746	80005120	4572b393	sltiu	x7,x5,1111	  x5:0x7fff674d  x7=0x00000000
       67485000	      6747	80005124	01011733	sll	x14,x2,x16	  x2:0x00000001 x16:0x80009fc4 x14=0x00000010
       67495000	      6748	80005128	00c295b3	sll	x11,x5,x12	  x5:0x7fff674d x12:0x123f1540 x11=0x7fff674d
       67505000	      6749	8000512c	05830863	beq	x6,x24,8000517c	  x6:0x00000001 x24:0x000002b3
       67515000	      6750	80005130	04cc4463	blt	x24,x12,80005178	 x24:0x000002b3 x12:0x123f1540
       67525000	      6751	00000000	00000013	addi	x0,x0,0	  x0:0x00000000
       67535000	      6752	80005174	00000013	addi	x0,x0,0	  x0:0x00000000
       67545000	      6753	80005178	01a11133	sll	x2,x2,x26	  x2:0x00000001 x26:0x95fd5000  x2=0x00000001
       67555000	      6754	8000517c	f4b5a993	slti	x19,x11,-181	 x11:0x7fff674d x19=0x00000000
       67565000	      6755	80005180	00545a63	bge	x8,x5,80005194	  x8:0x800056dc  x5:0x7fff674d
       67575000	      6756	80005184	04f14463	blt	x2,x15,800051cc	  x2:0x00000001 x15:0x00000000
       67585000	      6757	80005188	01e30ab3	add	x21,x6,x30	  x6:0x00000001 x30:0xfbe80000 x21=0xfbe80001
       67595000	      6758	8000518c	029af463	bgeu	x21,x9,800051b4	 x21:0xfbe80001  x9:0x00000004
       67605000	      6759	00000000	00000013	addi	x0,x0,0	  x0:0x00000000
       67615000	      6760	800051b0	00000013	addi	x0,x0,0	  x0:0x00000000
       67625000	      6761	800051b4	3c1b3f13	sltiu	x30,x22,961	 x22:0x0000070c x30=0x00000000
       67635000	      6762	800051b8	00f31ab3	sll	x21,x6,x15	  x6:0x00000001 x15:0x00000000 x21=0x00000001
       67645000	      6763	800051bc	b91ee313	ori	x6,x29,-1135	 x29:0x1123f154  x6=0xfffffbd5
       67655000	      6764	800051c0	00afd933	srl	x18,x31,x10	 x31:0x00000000 x10:0x00000000 x18=0x00000000
       67665000	      6765	800051c4	c2c6b713	sltiu	x14,x13,-980	 x13:0x0ae57081 x14=0x00000001
       67675000	      6766	800051c8	00cd5993	srli	x19,x26,0xc	 x26:0x95fd5000 x19=0x00095fd5
       67685000	      6767	800051cc	408f52b3	sra	x5,x30,x8	 x30:0x00000000  x8:0x800056dc  x5=0x00000000
       67695000	      6768	800051d0	01c5dd13	srli	x26,x11,0x1c	 x11:0x7fff674d x26=0x00000007
       67705000	      6769	800051d4	c559d117	auipc	x2,0xc559d	  x2=0x455a21d0
       67715000	      6770	800051d8	012b9313	slli	x6,x23,0x12	 x23:0x00000000  x6=0x00000000
       67725000	      6771	800051dc	d3d64793	xori	x15,x12,-707	 x12:0x123f1540 x15=0xedc0e87d
       67735000	      6772	800051e0	0166dc63	bge	x13,x22,800051f8	 x13:0x0ae57081 x22:0x0000070c
       67745000	      6773	00000000	00000013	addi	x0,x0,0	  x0:0x00000000
       67755000	      6774	800051f4	00000013	addi	x0,x0,0	  x0:0x00000000
       67765000	      6775	800051f8	1e290a97	auipc	x21,0x1e290	 x21=0x9e2951f4
       67775000	      6776	800051fc	01535c63	bge	x6,x21,80005214	  x6:0x00000000 x21:0x9e2951f4
       67785000	      6777	00000000	00000013	addi	x0,x0,0	  x0:0x00000000
       67795000	      6778	80005210	00000013	addi	x0,x0,0	  x0:0x00000000
       67805000	      6779	80005214	00ebb1b3	sltu	x3,x23,x14	 x23:0x00000000 x14:0x00000001  x3=0x00000001
       67815000	      6780	80005218	09ee5063	bge	x28,x30,80005298	 x28:0x00000000 x30:0x00000000
       67825000	      6781	00000000	00000013	addi	x0,x0,0	  x0:0x00000000
       67835000	      6782	80005294	00000013	addi	x0,x0,0	  x0:0x00000000
       67845000	      6783	80005298	41978eb3	sub	x29,x15,x25	 x15:0xedc0e87d x25:0xffffffc7 x29=0xedc0e8b6
       67855000	      6784	8000529c	c4804793	xori	x15,x0,-952	  x0:0x00000000 x15=0xfffffc48
       67865000	      6785	800052a0	43ac8613	addi	x12,x25,1082	 x25:0xffffffc7 x12=0x00000401
       67875000	      6786	800052a4	004da903	lw	x18,4(x27)	 x27:0x80009f34 x18=0x80000e4c PA:0x80009f38
       67885000	      6787	800052a8	00000013	addi	x0,x0,0	  x0:0x00000000
       67895000	      6788	800052ac	018d8d93	addi	x27,x27,24	 x27:0x80009f34 x27=0x80009f4c
       67905000	      6789	800052b0	005a22b3	slt	x5,x20,x5	 x20:0x333fff5c  x5:0x00000000  x5=0x00000000
       67915000	      6790	800052b4	10f32b37	lui	x22,0x10f32	 x22=0x10f32000
       67925000	      6791	800052b8	00190293	addi	x5,x18,1	 x18:0x80000e4c  x5=0x80000e4d
       67935000	      6792	800052bc	000282e7	jalr	x5,x5,0	  x5:0x80000e4d  x5=0x800052bc
       67945000	      6793	00000000	00000013	addi	x0,x0,0	  x0:0x00000000
       67955000	      6794	80000e4c	00000013	addi	x0,x0,0	  x0:0x00000000
       67965000	      6795	80000e50	007544b3	xor	x9,x10,x7	 x10:0x00000000  x7:0x00000000  x9=0x00000000
       67975000	      6796	80000e54	00000013	addi	x0,x0,0	  x0:0x00000000
       67985000	      6797	80000e58	00dce8b3	or	x17,x25,x13	 x25:0xffffffc7 x13:0x0ae57081 x17=0xffffffc7
       67995000	      6798	80000e5c	4b22b593	sltiu	x11,x5,1202	  x5:0x800052bc x11=0x00000000
       68005000	      6799	80000e60	a048ad17	auipc	x26,0xa048a	 x26=0x2048ae5c
       68015000	      6800	80000e64	0071de63	bge	x3,x7,80000e80	  x3:0x00000001  x7:0x00000000
       68025000	      6801	00000000	00000013	addi	x0,x0,0	  x0:0x00000000
       68035000	      6802	80000e7c	00000013	addi	x0,x0,0	  x0:0x00000000
       68045000	      6803	80000e80	7ccf7917	auipc	x18,0x7ccf7	 x18=0xfccf7e7c
       68055000	      6804	80000e84	40acd713	srai	x14,x25,0xa	 x25:0xffffffc7 x14=0xffffffff
       68065000	      6805	80000e88	00c4fcb3	and	x25,x9,x12	  x9:0x00000000 x12:0x00000401 x25=0x00000000
       68075000	      6806	80000e8c	004da903	lw	x18,4(x27)	 x27:0x80009f4c x18=0x80003348 PA:0x80009f50
       68085000	      6807	80000e90	2782b013	sltiu	x0,x5,632	  x5:0x800052bc
       68095000	      6808	80000e94	29df8593	addi	x11,x31,669	 x31:0x00000000 x11=0x0000029d
       68105000	      6809	80000e98	00bf5693	srli	x13,x30,0xb	 x30:0x00000000 x13=0x00000000
       68115000	      6810	80000e9c	018d8d93	addi	x27,x27,24	 x27:0x80009f4c x27=0x80009f64
       68125000	      6811	80000ea0	0041de13	srli	x28,x3,0x4	  x3:0x00000001 x28=0x00000000
       68135000	      6812	80000ea4	0feab213	sltiu	x4,x21,254	 x21:0x9e2951f4  x4=0x00000000
       68145000	      6813	80000ea8	41af5d33	sra	x26,x30,x26	 x30:0x00000000 x26:0x2048ae5c x26=0x00000000
       68155000	      6814	80000eac	01e2cbb3	xor	x23,x5,x30	  x5:0x800052bc x30:0x00000000 x23=0x800052bc
       68165000	      6815	80000eb0	01e039b3	sltu	x19,x0,x30	  x0:0x00000000 x30:0x00000000 x19=0x00000000
       68175000	      6816	80000eb4	0047b8b3	sltu	x17,x15,x4	 x15:0xfffffc48  x4:0x00000000 x17=0x00000000
       68185000	      6817	80000eb8	00ab8333	add	x6,x23,x10	 x23:0x800052bc x10:0x00000000  x6=0x800052bc
       68195000	      6818	80000ebc	00190b93	addi	x23,x18,1	 x18:0x80003348 x23=0x80003349
       68205000	      6819	80000ec0	000b8be7	jalr	x23,x23,0	 x23:0x80003349 x23=0x80000ec0
       68215000	      6820	00000000	00000013	addi	x0,x0,0	  x0:0x00000000
       68225000	      6821	80003348	00000013	addi	x0,x0,0	  x0:0x00000000
       68235000	      6822	8000334c	0013afb3	slt	x31,x7,x1	  x7:0x00000000  x1:0x00000000 x31=0x00000000
       68245000	      6823	80003350	0b9c8913	addi	x18,x25,185	 x25:0x00000000 x18=0x000000b9
       68255000	      6824	80003354	00515663	bge	x2,x5,80003360	  x2:0x455a21d0  x5:0x800052bc
       68265000	      6825	00000000	00000013	addi	x0,x0,0	  x0:0x00000000
       68275000	      6826	8000335c	00000013	addi	x0,x0,0	  x0:0x00000000
       68285000	      6827	80003360	00000013	addi	x0,x0,0	  x0:0x00000000
       68295000	      6828	80003364	03c7dc63	bge	x15,x28,8000339c	 x15:0xfffffc48 x28:0x00000000
       68305000	      6829	80003368	05ecf463	bgeu	x25,x30,800033b0	 x25:0x00000000 x30:0x00000000
       68315000	      6830	00000000	00000013	addi	x0,x0,0	  x0:0x00000000
       68325000	      6831	800033ac	00000013	addi	x0,x0,0	  x0:0x00000000
       68335000	      6832	800033b0	403a54b3	sra	x9,x20,x3	 x20:0x333fff5c  x3:0x00000001  x9=0x199fffae
       68345000	      6833	800033b4	64d5f193	andi	x3,x11,1613	 x11:0x0000029d  x3=0x0000020d
       68355000	      6834	800033b8	4038a637	lui	x12,0x4038a	 x12=0x4038a000
       68365000	      6835	800033bc	0dc63313	sltiu	x6,x12,220	 x12:0x4038a000  x6=0x00000000
       68375000	      6836	800033c0	04e91463	bne	x18,x14,80003408	 x18:0x000000b9 x14:0xffffffff
       68385000	      6837	00000000	00000013	addi	x0,x0,0	  x0:0x00000000
       68395000	      6838	80003404	00000013	addi	x0,x0,0	  x0:0x00000000
       68405000	      6839	80003408	479b6293	ori	x5,x22,1145	 x22:0x10f32000  x5=0x10f32479
       68415000	      6840	8000340c	40d354b3	sra	x9,x6,x13	  x6:0x00000000 x13:0x00000000  x9=0x00000000
       68425000	      6841	80003410	4042da13	srai	x20,x5,0x4	  x5:0x10f32479 x20=0x010f3247
       68435000	      6842	80003414	41a20bb3	sub	x23,x4,x26	  x4:0x00000000 x26:0x00000000 x23=0x00000000
       68445000	      6843	80003418	00975313	srli	x6,x14,0x9	 x14:0xffffffff  x6=0x007fffff
       68455000	      6844	8000341c	84113593	sltiu	x11,x2,-1983	  x2:0x455a21d0 x11=0x00000001
       68465000	      6845	80003420	04e77263	bgeu	x14,x14,80003464	 x14:0xffffffff x14:0xffffffff
       68475000	      6846	00000000	00000013	addi	x0,x0,0	  x0:0x00000000
       68485000	      6847	80003460	00000013	addi	x0,x0,0	  x0:0x00000000
       68495000	      6848	80003464	017e2e33	slt	x28,x28,x23	 x28:0x00000000 x23:0x00000000 x28=0x00000000
       68505000	      6849	80003468	d1ed0c37	lui	x24,0xd1ed0	 x24=0xd1ed0000
       68515000	      6850	8000346c	1ab32613	slti	x12,x6,427	  x6:0x007fffff x12=0x00000000
       68525000	      6851	80003470	01070c63	beq	x14,x16,80003488	 x14:0xffffffff x16:0x80009fc4
       68535000	      6852	80003474	03838a63	beq	x7,x24,800034a8	  x7:0x00000000 x24:0xd1ed0000
       68545000	      6853	80003478	01014bb3	xor	x23,x2,x16	  x2:0x455a21d0 x16:0x80009fc4 x23=0xc55abe14
       68555000	      6854	8000347c	01cd5913	srli	x18,x26,0x1c	 x26:0x00000000 x18=0x00000000
       68565000	      6855	80003480	01fb9d13	slli	x26,x23,0x1f	 x23:0xc55abe14 x26=0x00000000
       68575000	      6856	80003484	044ed863	bge	x29,x4,800034d4	 x29:0xedc0e8b6  x4:0x00000000
       68585000	      6857	80003488	034cc663	blt	x25,x20,800034b4	 x25:0x00000000 x20:0x010f3247
       68595000	      6858	00000000	00000013	addi	x0,x0,0	  x0:0x00000000
       68605000	      6859	800034b0	00000013	addi	x0,x0,0	  x0:0x00000000
       68615000	      6860	800034b4	016064b3	or	x9,x0,x22	  x0:0x00000000 x22:0x10f32000  x9=0x10f32000
       68625000	      6861	800034b8	0107fe63	bgeu	x15,x16,800034d4	 x15:0xfffffc48 x16:0x80009fc4
       68635000	      6862	00000000	00000013	addi	x0,x0,0	  x0:0x00000000
       68645000	      6863	800034d0	00000013	addi	x0,x0,0	  x0:0x00000000
       68655000	      6864	800034d4	bfbca793	slti	x15,x25,-1029	 x25:0x00000000 x15=0x00000000
       68665000	      6865	800034d8	00000013	addi	x0,x0,0	  x0:0x00000000
       68675000	      6866	800034dc	41bc09b3	sub	x19,x24,x27	 x24:0xd1ed0000 x27:0x80009f64 x19=0x51ec609c
       68685000	      6867	800034e0	00000013	addi	x0,x0,0	  x0:0x00000000
       68695000	      6868	800034e4	82c0e193	ori	x3,x1,-2004	  x1:0x00000000  x3=0xfffff82c
       68705000	      6869	800034e8	7e46ca93	xori	x21,x13,2020	 x13:0x00000000 x21=0x000007e4
       68715000	      6870	800034ec	00fe1cb3	sll	x25,x28,x15	 x28:0x00000000 x15:0x00000000 x25=0x00000000
       68725000	      6871	800034f0	8904bd13	sltiu	x26,x9,-1904	  x9:0x10f32000 x26=0x00000001
       68735000	      6872	800034f4	8a71ea13	ori	x20,x3,-1881	  x3:0xfffff82c x20=0xfffff8af
       68745000	      6873	800034f8	41548a33	sub	x20,x9,x21	  x9:0x10f32000 x21:0x000007e4 x20=0x10f3181c
       68755000	      6874	800034fc	8343c113	xori	x2,x7,-1996	  x7:0x00000000  x2=0xfffff834
       68765000	      6875	80003500	03267263	bgeu	x12,x18,80003524	 x12:0x00000000 x18:0x00000000
       68775000	      6876	00000000	00000013	addi	x0,x0,0	  x0:0x00000000
       68785000	      6877	80003520	00000013	addi	x0,x0,0	  x0:0x00000000
       68795000	      6878	80003524	01279293	slli	x5,x15,0x12	 x15:0x00000000  x5=0x00000000
       68805000	      6879	80003528	dfca3e13	sltiu	x28,x20,-516	 x20:0x10f3181c x28=0x00000001
       68815000	      6880	8000352c	014c96b3	sll	x13,x25,x20	 x25:0x00000000 x20:0x10f3181c x13=0x00000000
       68825000	      6881	80003530	5c9b4ab7	lui	x21,0x5c9b4	 x21=0x5c9b4000
       68835000	      6882	80003534	019942b3	xor	x5,x18,x25	 x18:0x00000000 x25:0x00000000  x5=0x00000000
       68845000	      6883	80003538	005b5f93	srli	x31,x22,0x5	 x22:0x10f32000 x31=0x00879900
       68855000	      6884	8000353c	00051633	sll	x12,x10,x0	 x10:0x00000000  x0:0x00000000 x12=0x00000000
       68865000	      6885	80003540	015afc33	and	x24,x21,x21	 x21:0x5c9b4000 x21:0x5c9b4000 x24=0x5c9b4000
       68875000	      6886	80003544	43ca8413	addi	x8,x21,1084	 x21:0x5c9b4000  x8=0x5c9b443c
       68885000	      6887	80003548	00028463	beq	x5,x0,80003550	  x5:0x00000000  x0:0x00000000
       68895000	      6888	00000000	00000013	addi	x0,x0,0	  x0:0x00000000
       68905000	      6889	8000354c	00000013	addi	x0,x0,0	  x0:0x00000000
       68915000	      6890	80003550	000793b3	sll	x7,x15,x0	 x15:0x00000000  x0:0x00000000  x7=0x00000000
       68925000	      6891	80003554	40c55993	srai	x19,x10,0xc	 x10:0x00000000 x19=0x00000000
       68935000	      6892	80003558	010e4e33	xor	x28,x28,x16	 x28:0x00000001 x16:0x80009fc4 x28=0x80009fc5
       68945000	      6893	8000355c	f197ac17	auipc	x24,0xf197a	 x24=0x7197d558
       68955000	      6894	80003560	00e72b33	slt	x22,x14,x14	 x14:0xffffffff x14:0xffffffff x22=0x00000000
       68965000	      6895	80003564	018ff933	and	x18,x31,x24	 x31:0x00879900 x24:0x7197d558 x18=0x00879100
       68975000	      6896	80003568	d994e713	ori	x14,x9,-615	  x9:0x10f32000 x14=0xfffffd99
       68985000	      6897	8000356c	01029b13	slli	x22,x5,0x10	  x5:0x00000000 x22=0x00000000
       68995000	      6898	80003570	009e26b3	slt	x13,x28,x9	 x28:0x80009fc5  x9:0x10f32000 x13=0x00000001
       69005000	      6899	80003574	89ceb613	sltiu	x12,x29,-1892	 x29:0xedc0e8b6 x12=0x00000001
       69015000	      6900	80003578	178d4f13	xori	x30,x26,376	 x26:0x00000001 x30=0x00000179
       69025000	      6901	8000357c	4167de13	srai	x28,x15,0x16	 x15:0x00000000 x28=0x00000000
       69035000	      6902	80003580	03699e63	bne	x19,x22,800035bc	 x19:0x00000000 x22:0x00000000
       69045000	      6903	80003584	404adeb3	sra	x29,x21,x4	 x21:0x5c9b4000  x4:0x00000000 x29=0x5c9b4000
       69055000	      6904	80003588	01a2cc33	xor	x24,x5,x26	  x5:0x00000000 x26:0x00000001 x24=0x00000001
       69065000	      6905	8000358c	00b3e1b3	or	x3,x7,x11	  x7:0x00000000 x11:0x00000001  x3=0x00000001
       69075000	      6906	80003590	01711933	sll	x18,x2,x23	  x2:0xfffff834 x23:0xc55abe14 x18=0x83400000
       69085000	      6907	80003594	1bec2617	auipc	x12,0x1bec2	 x12=0x9bec5590
       69095000	      6908	80003598	01ad5e33	srl	x28,x26,x26	 x26:0x00000001 x26:0x00000001 x28=0x00000000
       69105000	      6909	8000359c	012d82b3	add	x5,x27,x18	 x27:0x80009f64 x18:0x83400000  x5=0x03409f64
       69115000	      6910	800035a0	012025b3	slt	x11,x0,x18	  x0:0x00000000 x18:0x83400000 x11=0x00000000
       69125000	      6911	800035a4	0559f463	bgeu	x19,x21,800035ec	 x19:0x00000000 x21:0x5c9b4000
       69135000	      6912	800035a8	05737e17	auipc	x28,0x5737	 x28=0x8573a5a4
       69145000	      6913	800035ac	022b6663	bltu	x22,x2,800035d8	 x22:0x00000000  x2:0xfffff834
       69155000	      6914	00000000	00000013	addi	x0,x0,0	  x0:0x00000000
       69165000	      6915	800035d4	00000013	addi	x0,x0,0	  x0:0x00000000
       69175000	      6916	800035d8	a2e6f113	andi	x2,x13,-1490	 x13:0x00000001  x2=0x00000000
       69185000	      6917	800035dc	0346da63	bge	x13,x20,80003610	 x13:0x00000001 x20:0x10f3181c
       69195000	      6918	800035e0	408ad913	srai	x18,x21,0x8	 x21:0x5c9b4000 x18=0x005c9b40
       69205000	      6919	800035e4	66b7f797	auipc	x15,0x66b7f	 x15=0xe6b825e0
       69215000	      6920	800035e8	001927b3	slt	x15,x18,x1	 x18:0x005c9b40  x1:0x00000000 x15=0x00000000
       69225000	      6921	800035ec	cf4eea13	ori	x20,x29,-780	 x29:0x5c9b4000 x20=0xfffffcf4
       69235000	      6922	800035f0	00204533	xor	x10,x0,x2	  x0:0x00000000  x2:0x00000000 x10=0x00000000
       69245000	      6923	800035f4	00000013	addi	x0,x0,0	  x0:0x00000000
       69255000	      6924	800035f8	04a9f463	bgeu	x19,x10,80003640	 x19:0x00000000 x10:0x00000000
       69265000	      6925	00000000	00000013	addi	x0,x0,0	  x0:0x00000000
       69275000	      6926	8000363c	00000013	addi	x0,x0,0	  x0:0x00000000
       69285000	      6927	80003640	00a79c93	slli	x25,x15,0xa	 x15:0x00000000 x25=0x00000000
       69295000	      6928	80003644	0508c463	blt	x17,x16,8000368c	 x17:0x00000000 x16:0x80009fc4
       69305000	      6929	80003648	0ad53293	sltiu	x5,x10,173	 x10:0x00000000  x5=0x00000001
       69315000	      6930	8000364c	00de99b3	sll	x19,x29,x13	 x29:0x5c9b4000 x13:0x00000001 x19=0xb9368000
       69325000	      6931	80003650	9b8d3193	sltiu	x3,x26,-1608	 x26:0x00000001  x3=0x00000001
       69335000	      6932	80003654	9c722517	auipc	x10,0x9c722	 x10=0x1c725650
       69345000	      6933	80003658	40de0733	sub	x14,x28,x13	 x28:0x8573a5a4 x13:0x00000001 x14=0x8573a5a3
       69355000	      6934	8000365c	40ded993	srai	x19,x29,0xd	 x29:0x5c9b4000 x19=0x0002e4da
       69365000	      6935	80003660	98680413	addi	x8,x16,-1658	 x16:0x80009fc4  x8=0x8000994a
       69375000	      6936	80003664	f9970713	addi	x14,x14,-103	 x14:0x8573a5a3 x14=0x8573a53c
       69385000	      6937	80003668	00d42033	slt	x0,x8,x13	  x8:0x8000994a x13:0x00000001
       69395000	      6938	8000366c	401bdb33	sra	x22,x23,x1	 x23:0xc55abe14  x1:0x00000000 x22=0xc55abe14
       69405000	      6939	80003670	7f008993	addi	x19,x1,2032	  x1:0x00000000 x19=0x000007f0
       69415000	      6940	80003674	01365663	bge	x12,x19,80003680	 x12:0x9bec5590 x19:0x000007f0
       69425000	      6941	80003678	02fe5663	bge	x28,x15,800036a4	 x28:0x8573a5a4 x15:0x00000000
       69435000	      6942	8000367c	4029de13	srai	x28,x19,0x2	 x19:0x000007f0 x28=0x000001fc
       69445000	      6943	80003680	02925863	bge	x4,x9,800036b0	  x4:0x00000000  x9:0x10f32000
       69455000	      6944	80003684	403805b3	sub	x11,x16,x3	 x16:0x80009fc4  x3:0x00000001 x11=0x80009fc3
       69465000	      6945	80003688	005c5513	srli	x10,x24,0x5	 x24:0x00000001 x10=0x00000000
       69475000	      6946	8000368c	9c847293	andi	x5,x8,-1592	  x8:0x8000994a  x5=0x80009948
       69485000	      6947	80003690	00000013	addi	x0,x0,0	  x0:0x00000000
       69495000	      6948	80003694	042dc263	blt	x27,x2,800036d8	 x27:0x80009f64  x2:0x00000000
       69505000	      6949	00000000	00000013	addi	x0,x0,0	  x0:0x00000000
       69515000	      6950	800036d4	00000013	addi	x0,x0,0	  x0:0x00000000
       69525000	      6951	800036d8	40b8d893	srai	x17,x17,0xb	 x17:0x00000000 x17=0x00000000
       69535000	      6952	800036dc	46c64e17	auipc	x28,0x46c64	 x28=0xc6c676d8
       69545000	      6953	800036e0	abb96c93	ori	x25,x18,-1349	 x18:0x005c9b40 x25=0xfffffbfb
       69555000	      6954	800036e4	00caac33	slt	x24,x21,x12	 x21:0x5c9b4000 x12:0x9bec5590 x24=0x00000000
       69565000	      6955	800036e8	02b2d663	bge	x5,x11,80003714	  x5:0x80009948 x11:0x80009fc3
       69575000	      6956	800036ec	01e864b3	or	x9,x16,x30	 x16:0x80009fc4 x30:0x00000179  x9=0x80009ffd
       69585000	      6957	800036f0	0090d213	srli	x4,x1,0x9	  x1:0x00000000  x4=0x00000000
       69595000	      6958	800036f4	01ae9613	slli	x12,x29,0x1a	 x29:0x5c9b4000 x12=0x00000000
       69605000	      6959	800036f8	012eecb3	or	x25,x29,x18	 x29:0x5c9b4000 x18:0x005c9b40 x25=0x5cdfdb40
       69615000	      6960	800036fc	00d89913	slli	x18,x17,0xd	 x17:0x00000000 x18=0x00000000
       69625000	      6961	80003700	01f5f5b3	and	x11,x11,x31	 x11:0x80009fc3 x31:0x00879900 x11=0x00009900
       69635000	      6962	80003704	00e76933	or	x18,x14,x14	 x14:0x8573a53c x14:0x8573a53c x18=0x8573a53c
       69645000	      6963	80003708	01afc4b3	xor	x9,x31,x26	 x31:0x00879900 x26:0x00000001  x9=0x00879901
       69655000	      6964	8000370c	00b4f1b3	and	x3,x9,x11	  x9:0x00879901 x11:0x00009900  x3=0x00009900
       69665000	      6965	80003710	006e7263	bgeu	x28,x6,80003714	 x28:0xc6c676d8  x6:0x007fffff
       69675000	      6966	00000000	00000013	addi	x0,x0,0	  x0:0x00000000
       69685000	      6967	80003710	00000013	addi	x0,x0,0	  x0:0x00000000
       69695000	      6968	80003714	f3462393	slti	x7,x12,-204	 x12:0x00000000  x7=0x00000000
       69705000	      6969	80003718	01e4fc63	bgeu	x9,x30,80003730	  x9:0x00879901 x30:0x00000179
       69715000	      6970	00000000	00000013	addi	x0,x0,0	  x0:0x00000000
       69725000	      6971	8000372c	00000013	addi	x0,x0,0	  x0:0x00000000
       69735000	      6972	80003730	98ab3b93	sltiu	x23,x22,-1654	 x22:0xc55abe14 x23=0x00000001
       69745000	      6973	80003734	05679863	bne	x15,x22,80003784	 x15:0x00000000 x22:0xc55abe14
       69755000	      6974	00000000	00000013	addi	x0,x0,0	  x0:0x00000000
       69765000	      6975	80003780	00000013	addi	x0,x0,0	  x0:0x00000000
       69775000	      6976	80003784	02378663	beq	x15,x3,800037b0	 x15:0x00000000  x3:0x00009900
       69785000	      6977	80003788	402a57b3	sra	x15,x20,x2	 x20:0xfffffcf4  x2:0x00000000 x15=0xfffffcf4
       69795000	      6978	8000378c	01f46eb3	or	x29,x8,x31	  x8:0x8000994a x31:0x00879900 x29=0x8087994a
       69805000	      6979	80003790	011fe9b3	or	x19,x31,x17	 x31:0x00879900 x17:0x00000000 x19=0x00879900
       69815000	      6980	80003794	fb570293	addi	x5,x14,-75	 x14:0x8573a53c  x5=0x8573a4f1
       69825000	      6981	80003798	052b7463	bgeu	x22,x18,800037e0	 x22:0xc55abe14 x18:0x8573a53c
       69835000	      6982	00000000	00000013	addi	x0,x0,0	  x0:0x00000000
       69845000	      6983	800037dc	00000013	addi	x0,x0,0	  x0:0x00000000
       69855000	      6984	800037e0	eefbea93	ori	x21,x23,-273	 x23:0x00000001 x21=0xfffffeef
       69865000	      6985	800037e4	01288eb3	add	x29,x17,x18	 x17:0x00000000 x18:0x8573a53c x29=0x8573a53c
       69875000	      6986	800037e8	005e8033	add	x0,x29,x5	 x29:0x8573a53c  x5:0x8573a4f1
       69885000	      6987	800037ec	001d8d33	add	x26,x27,x1	 x27:0x80009f64  x1:0x00000000 x26=0x80009f64
       69895000	      6988	800037f0	005d17b3	sll	x15,x26,x5	 x26:0x80009f64  x5:0x8573a4f1 x15=0x3ec80000
       69905000	      6989	800037f4	018e1133	sll	x2,x28,x24	 x28:0xc6c676d8 x24:0x00000000  x2=0xc6c676d8
       69915000	      6990	800037f8	001bc1b3	xor	x3,x23,x1	 x23:0x00000001  x1:0x00000000  x3=0x00000001
       69925000	      6991	800037fc	01a9d193	srli	x3,x19,0x1a	 x19:0x00879900  x3=0x00000000
       69935000	      6992	80003800	02b98863	beq	x19,x11,80003830	 x19:0x00879900 x11:0x00009900
       69945000	      6993	80003804	0321ce63	blt	x3,x18,80003840	  x3:0x00000000 x18:0x8573a53c
       69955000	      6994	80003808	03fa5a63	bge	x20,x31,8000383c	 x20:0xfffffcf4 x31:0x00879900
       69965000	      6995	8000380c	002351b3	srl	x3,x6,x2	  x6:0x007fffff  x2:0xc6c676d8  x3=0x00000000
       69975000	      6996	80003810	40398f33	sub	x30,x19,x3	 x19:0x00879900  x3:0x00000000 x30=0x00879900
       69985000	      6997	80003814	050bc263	blt	x23,x16,80003858	 x23:0x00000001 x16:0x80009fc4
       69995000	      6998	80003818	40f7d113	srai	x2,x15,0xf	 x15:0x3ec80000  x2=0x00007d90
       70005000	      6999	8000381c	01b26a33	or	x20,x4,x27	  x4:0x00000000 x27:0x80009f64 x20=0x80009f64
       70015000	      7000	80003820	01742cb3	slt	x25,x8,x23	  x8:0x8000994a x23:0x00000001 x25=0x00000001
       70025000	      7001	80003824	f9176197	auipc	x3,0xf9176	  x3=0x79179820
       70035000	      7002	80003828	009416b3	sll	x13,x8,x9	  x8:0x8000994a  x9:0x00879901 x13=0x00013294
       70045000	      7003	8000382c	038e4663	blt	x28,x24,80003858	 x28:0xc6c676d8 x24:0x00000000
       70055000	      7004	00000000	00000013	addi	x0,x0,0	  x0:0x00000000
       70065000	      7005	80003854	00000013	addi	x0,x0,0	  x0:0x00000000
       70075000	      7006	80003858	011ad333	srl	x6,x21,x17	 x21:0xfffffeef x17:0x00000000  x6=0xfffffeef
       70085000	      7007	8000385c	00979633	sll	x12,x15,x9	 x15:0x3ec80000  x9:0x00879901 x12=0x7d900000
       70095000	      7008	80003860	00872ab3	slt	x21,x14,x8	 x14:0x8573a53c  x8:0x8000994a x21=0x00000000
       70105000	      7009	80003864	00000013	addi	x0,x0,0	  x0:0x00000000
       70115000	      7010	80003868	015b98b3	sll	x17,x23,x21	 x23:0x00000001 x21:0x00000000 x17=0x00000001
       70125000	      7011	8000386c	0d53fe13	andi	x28,x7,213	  x7:0x00000000 x28=0x00000000
       70135000	      7012	80003870	00e4db93	srli	x23,x9,0xe	  x9:0x00879901 x23=0x0000021e
       70145000	      7013	80003874	403e5b33	sra	x22,x28,x3	 x28:0x00000000  x3:0x79179820 x22=0x00000000
       70155000	      7014	80003878	7dfe6e93	ori	x29,x28,2015	 x28:0x00000000 x29=0x000007df
       70165000	      7015	8000387c	23e2a993	slti	x19,x5,574	  x5:0x8573a4f1 x19=0x00000001
       70175000	      7016	80003880	0105b8b3	sltu	x17,x11,x16	 x11:0x00009900 x16:0x80009fc4 x17=0x00000001
       70185000	      7017	80003884	64211fb7	lui	x31,0x64211	 x31=0x64211000
       70195000	      7018	80003888	02f1fe63	bgeu	x3,x15,800038c4	  x3:0x79179820 x15:0x3ec80000
       70205000	      7019	00000000	00000013	addi	x0,x0,0	  x0:0x00000000
       70215000	      7020	800038c0	00000013	addi	x0,x0,0	  x0:0x00000000
       70225000	      7021	800038c4	29dd7393	andi	x7,x26,669	 x26:0x80009f64  x7=0x00000204
       70235000	      7022	800038c8	40dfdc93	srai	x25,x31,0xd	 x31:0x64211000 x25=0x00032108
       70245000	      7023	800038cc	0501e463	bltu	x3,x16,80003914	  x3:0x79179820 x16:0x80009fc4
       70255000	      7024	00000000	00000013	addi	x0,x0,0	  x0:0x00000000
       70265000	      7025	80003910	00000013	addi	x0,x0,0	  x0:0x00000000
       70275000	      7026	80003914	6cca4213	xori	x4,x20,1740	 x20:0x80009f64  x4=0x800099a8
       70285000	      7027	80003918	41ef0a33	sub	x20,x30,x30	 x30:0x00879900 x30:0x00879900 x20=0x00000000
       70295000	      7028	8000391c	0106f233	and	x4,x13,x16	 x13:0x00013294 x16:0x80009fc4  x4=0x00001284
       70305000	      7029	80003920	015a5633	srl	x12,x20,x21	 x20:0x00000000 x21:0x00000000 x12=0x00000000
       70315000	      7030	80003924	40100533	sub	x10,x0,x1	  x0:0x00000000  x1:0x00000000 x10=0x00000000
       70325000	      7031	80003928	0061a433	slt	x8,x3,x6	  x3:0x79179820  x6:0xfffffeef  x8=0x00000000
       70335000	      7032	8000392c	efa52593	slti	x11,x10,-262	 x10:0x00000000 x11=0x00000000
       70345000	      7033	80003930	00000013	addi	x0,x0,0	  x0:0x00000000
       70355000	      7034	80003934	00701993	slli	x19,x0,0x7	  x0:0x00000000 x19=0x00000000
       70365000	      7035	80003938	01278a33	add	x20,x15,x18	 x15:0x3ec80000 x18:0x8573a53c x20=0xc43ba53c
       70375000	      7036	8000393c	00492933	slt	x18,x18,x4	 x18:0x8573a53c  x4:0x00001284 x18=0x00000001
       70385000	      7037	80003940	66256d13	ori	x26,x10,1634	 x10:0x00000000 x26=0x00000662
       70395000	      7038	80003944	0082d663	bge	x5,x8,80003950	  x5:0x8573a4f1  x8:0x00000000
       70405000	      7039	80003948	03f30863	beq	x6,x31,80003978	  x6:0xfffffeef x31:0x64211000
       70415000	      7040	8000394c	0025d693	srli	x13,x11,0x2	 x11:0x00000000 x13=0x00000000
       70425000	      7041	80003950	03984e63	blt	x16,x25,8000398c	 x16:0x80009fc4 x25:0x00032108
       70435000	      7042	00000000	00000013	addi	x0,x0,0	  x0:0x00000000
       70445000	      7043	80003988	00000013	addi	x0,x0,0	  x0:0x00000000
       70455000	      7044	8000398c	f7226413	ori	x8,x4,-142	  x4:0x00001284  x8=0xfffffff6
       70465000	      7045	80003990	41428733	sub	x14,x5,x20	  x5:0x8573a4f1 x20:0xc43ba53c x14=0xc137ffb5
       70475000	      7046	80003994	4bb88597	auipc	x11,0x4bb88	 x11=0xcbb8b990
       70485000	      7047	80003998	01cbec33	or	x24,x23,x28	 x23:0x0000021e x28:0x00000000 x24=0x0000021e
       70495000	      7048	8000399c	967bbe13	sltiu	x28,x23,-1689	 x23:0x0000021e x28=0x00000001
       70505000	      7049	800039a0	409457b3	sra	x15,x8,x9	  x8:0xfffffff6  x9:0x00879901 x15=0xfffffffb
       70515000	      7050	800039a4	00432cb3	slt	x25,x6,x4	  x6:0xfffffeef  x4:0x00001284 x25=0x00000001
       70525000	      7051	800039a8	01755a93	srli	x21,x10,0x17	 x10:0x00000000 x21=0x00000000
       70535000	      7052	800039ac	1e6bde17	auipc	x28,0x1e6bd	 x28=0x9e6c09a8
       70545000	      7053	800039b0	ddc8ac93	slti	x25,x17,-548	 x17:0x00000001 x25=0x00000000
       70555000	      7054	800039b4	00c40a33	add	x20,x8,x12	  x8:0xfffffff6 x12:0x00000000 x20=0xfffffff6
       70565000	      7055	800039b8	59ccdf17	auipc	x30,0x59ccd	 x30=0xd9cd09b4
       70575000	      7056	800039bc	9b98b613	sltiu	x12,x17,-1607	 x17:0x00000001 x12=0x00000001
       70585000	      7057	800039c0	00e7f733	and	x14,x15,x14	 x15:0xfffffffb x14:0xc137ffb5 x14=0xc137ffb1
       70595000	      7058	800039c4	027cd263	bge	x25,x7,800039e8	 x25:0x00000000  x7:0x00000204
       70605000	      7059	800039c8	01e56663	bltu	x10,x30,800039d4	 x10:0x00000000 x30:0xd9cd09b4
       70615000	      7060	00000000	00000013	addi	x0,x0,0	  x0:0x00000000
       70625000	      7061	800039d0	00000013	addi	x0,x0,0	  x0:0x00000000
       70635000	      7062	800039d4	01915663	bge	x2,x25,800039e0	  x2:0x00007d90 x25:0x00000000
       70645000	      7063	00000000	00000013	addi	x0,x0,0	  x0:0x00000000
       70655000	      7064	800039dc	00000013	addi	x0,x0,0	  x0:0x00000000
       70665000	      7065	800039e0	e4f30b13	addi	x22,x6,-433	  x6:0xfffffeef x22=0xfffffd3e
       70675000	      7066	800039e4	071c0113	addi	x2,x24,113	 x24:0x0000021e  x2=0x0000028f
       70685000	      7067	800039e8	016a3733	sltu	x14,x20,x22	 x20:0xfffffff6 x22:0xfffffd3e x14=0x00000000
       70695000	      7068	800039ec	033cea63	bltu	x25,x19,80003a20	 x25:0x00000000 x19:0x00000000
       70705000	      7069	800039f0	00000013	addi	x0,x0,0	  x0:0x00000000
       70715000	      7070	800039f4	00d4c633	xor	x12,x9,x13	  x9:0x00879901 x13:0x00000000 x12=0x00879901
       70725000	      7071	800039f8	6c5e8a13	addi	x20,x29,1733	 x29:0x000007df x20=0x00000ea4
       70735000	      7072	800039fc	03c29263	bne	x5,x28,80003a20	  x5:0x8573a4f1 x28:0x9e6c09a8
       70745000	      7073	00000000	00000013	addi	x0,x0,0	  x0:0x00000000
       70755000	      7074	80003a1c	00000013	addi	x0,x0,0	  x0:0x00000000
       70765000	      7075	80003a20	05a91463	bne	x18,x26,80003a68	 x18:0x00000001 x26:0x00000662
       70775000	      7076	00000000	00000013	addi	x0,x0,0	  x0:0x00000000
       70785000	      7077	80003a64	00000013	addi	x0,x0,0	  x0:0x00000000
       70795000	      7078	80003a68	029b8863	beq	x23,x9,80003a98	 x23:0x0000021e  x9:0x00879901
       70805000	      7079	80003a6c	0151d593	srli	x11,x3,0x15	  x3:0x79179820 x11=0x000003c8
       70815000	      7080	80003a70	76e64b97	auipc	x23,0x76e64	 x23=0xf6e67a6c
       70825000	      7081	80003a74	0056d333	srl	x6,x13,x5	 x13:0x00000000  x5:0x8573a4f1  x6=0x00000000
       70835000	      7082	80003a78	00000013	addi	x0,x0,0	  x0:0x00000000
       70845000	      7083	80003a7c	b23fbe13	sltiu	x28,x31,-1245	 x31:0x64211000 x28=0x00000001
       70855000	      7084	80003a80	0074a3b3	slt	x7,x9,x7	  x9:0x00879901  x7:0x00000204  x7=0x00000000
       70865000	      7085	80003a84	81d48a93	addi	x21,x9,-2019	  x9:0x00879901 x21=0x0087911e
       70875000	      7086	80003a88	05ad8463	beq	x27,x26,80003ad0	 x27:0x80009f64 x26:0x00000662
       70885000	      7087	80003a8c	00133c33	sltu	x24,x6,x1	  x6:0x00000000  x1:0x00000000 x24=0x00000000
       70895000	      7088	80003a90	05c48463	beq	x9,x28,80003ad8	  x9:0x00879901 x28:0x00000001
       70905000	      7089	80003a94	df45b213	sltiu	x4,x11,-524	 x11:0x000003c8  x4=0x00000001
       70915000	      7090	80003a98	de9b3c93	sltiu	x25,x22,-535	 x22:0xfffffd3e x25=0x00000001
       70925000	      7091	80003a9c	02d27663	bgeu	x4,x13,80003ac8	  x4:0x00000001 x13:0x00000000
       70935000	      7092	00000000	00000013	addi	x0,x0,0	  x0:0x00000000
       70945000	      7093	80003ac4	00000013	addi	x0,x0,0	  x0:0x00000000
       70955000	      7094	80003ac8	71088a13	addi	x20,x17,1808	 x17:0x00000001 x20=0x00000711
       70965000	      7095	80003acc	873f4613	xori	x12,x30,-1933	 x30:0xd9cd09b4 x12=0x2632f1c7
       70975000	      7096	80003ad0	f95c0ab7	lui	x21,0xf95c0	 x21=0xf95c0000
       70985000	      7097	80003ad4	013286b3	add	x13,x5,x19	  x5:0x8573a4f1 x19:0x00000000 x13=0x8573a4f1
       70995000	      7098	80003ad8	419dd333	sra	x6,x27,x25	 x27:0x80009f64 x25:0x00000001  x6=0xc0004fb2
       71005000	      7099	80003adc	016ea7b3	slt	x15,x29,x22	 x29:0x000007df x22:0xfffffd3e x15=0x00000000
       71015000	      7100	80003ae0	003716b3	sll	x13,x14,x3	 x14:0x00000000  x3:0x79179820 x13=0x00000000
       71025000	      7101	80003ae4	40318c33	sub	x24,x3,x3	  x3:0x79179820  x3:0x79179820 x24=0x00000000
       71035000	      7102	80003ae8	016a5263	bge	x20,x22,80003aec	 x20:0x00000711 x22:0xfffffd3e
       71045000	      7103	00000000	00000013	addi	x0,x0,0	  x0:0x00000000
       71055000	      7104	80003ae8	00000013	addi	x0,x0,0	  x0:0x00000000
       71065000	      7105	80003aec	d8513913	sltiu	x18,x2,-635	  x2:0x0000028f x18=0x00000001
       71075000	      7106	80003af0	003808b3	add	x17,x16,x3	 x16:0x80009fc4  x3:0x79179820 x17=0xf91837e4
       71085000	      7107	80003af4	00c24233	xor	x4,x4,x12	  x4:0x00000001 x12:0x2632f1c7  x4=0x2632f1c6
       71095000	      7108	80003af8	0179fbb3	and	x23,x19,x23	 x19:0x00000000 x23:0xf6e67a6c x23=0x00000000
       71105000	      7109	80003afc	e64e0293	addi	x5,x28,-412	 x28:0x00000001  x5=0xfffffe65
       71115000	      7110	80003b00	0e4ee263	bltu	x29,x4,80003be4	 x29:0x000007df  x4:0x2632f1c6
       71125000	      7111	00000000	00000013	addi	x0,x0,0	  x0:0x00000000
       71135000	      7112	80003be0	00000013	addi	x0,x0,0	  x0:0x00000000
       71145000	      7113	80003be4	00b42c33	slt	x24,x8,x11	  x8:0xfffffff6 x11:0x000003c8 x24=0x00000001
       71155000	      7114	80003be8	d5416b13	ori	x22,x2,-684	  x2:0x0000028f x22=0xffffffdf
       71165000	      7115	80003bec	009304b3	add	x9,x6,x9	  x6:0xc0004fb2  x9:0x00879901  x9=0xc087e8b3
       71175000	      7116	80003bf0	e6156637	lui	x12,0xe6156	 x12=0xe6156000
       71185000	      7117	80003bf4	41e104b3	sub	x9,x2,x30	  x2:0x0000028f x30:0xd9cd09b4  x9=0x2632f8db
       71195000	      7118	80003bf8	403d07b3	sub	x15,x26,x3	 x26:0x00000662  x3:0x79179820 x15=0x86e86e42
       71205000	      7119	80003bfc	01a8ec33	or	x24,x17,x26	 x17:0xf91837e4 x26:0x00000662 x24=0xf91837e6
       71215000	      7120	80003c00	00d41533	sll	x10,x8,x13	  x8:0xfffffff6 x13:0x00000000 x10=0xfffffff6
       71225000	      7121	80003c04	c5a44237	lui	x4,0xc5a44	  x4=0xc5a44000
       71235000	      7122	80003c08	008bda13	srli	x20,x23,0x8	 x23:0x00000000 x20=0x00000000
       71245000	      7123	80003c0c	019e5e33	srl	x28,x28,x25	 x28:0x00000001 x25:0x00000001 x28=0x00000000
       71255000	      7124	80003c10	40e886b3	sub	x13,x17,x14	 x17:0xf91837e4 x14:0x00000000 x13=0xf91837e4
       71265000	      7125	80003c14	00b68463	beq	x13,x11,80003c1c	 x13:0xf91837e4 x11:0x000003c8
       71275000	      7126	80003c18	01d9ec33	or	x24,x19,x29	 x19:0x00000000 x29:0x000007df x24=0x000007df
       71285000	      7127	80003c1c	01b81493	slli	x9,x16,0x1b	 x16:0x80009fc4  x9=0x20000000
       71295000	      7128	80003c20	01309133	sll	x2,x1,x19	  x1:0x00000000 x19:0x00000000  x2=0x00000000
       71305000	      7129	80003c24	01954c63	blt	x10,x25,80003c3c	 x10:0xfffffff6 x25:0x00000001
       71315000	      7130	00000000	00000013	addi	x0,x0,0	  x0:0x00000000
       71325000	      7131	80003c38	00000013	addi	x0,x0,0	  x0:0x00000000
       71335000	      7132	80003c3c	0088c433	xor	x8,x17,x8	 x17:0xf91837e4  x8:0xfffffff6  x8=0x06e7c812
       71345000	      7133	80003c40	00310c63	beq	x2,x3,80003c58	  x2:0x00000000  x3:0x79179820
       71355000	      7134	80003c44	8c58bd13	sltiu	x26,x17,-1851	 x17:0xf91837e4 x26=0x00000001
       71365000	      7135	80003c48	77866f97	auipc	x31,0x77866	 x31=0xf7869c44
       71375000	      7136	80003c4c	403a0933	sub	x18,x20,x3	 x20:0x00000000  x3:0x79179820 x18=0x86e867e0
       71385000	      7137	80003c50	047fd863	bge	x31,x7,80003ca0	 x31:0xf7869c44  x7:0x00000000
       71395000	      7138	80003c54	21636c93	ori	x25,x6,534	  x6:0xc0004fb2 x25=0xc0004fb6
       71405000	      7139	80003c58	00d3b8b3	sltu	x17,x7,x13	  x7:0x00000000 x13:0xf91837e4 x17=0x00000001
       71415000	      7140	80003c5c	acf86393	ori	x7,x16,-1329	 x16:0x80009fc4  x7=0xffffffcf
       71425000	      7141	80003c60	02b74263	blt	x14,x11,80003c84	 x14:0x00000000 x11:0x000003c8
       71435000	      7142	00000000	00000013	addi	x0,x0,0	  x0:0x00000000
       71445000	      7143	80003c80	00000013	addi	x0,x0,0	  x0:0x00000000
       71455000	      7144	80003c84	02199c63	bne	x19,x1,80003cbc	 x19:0x00000000  x1:0x00000000
       71465000	      7145	80003c88	01976e33	or	x28,x14,x25	 x14:0x00000000 x25:0xc0004fb6 x28=0xc0004fb6
       71475000	      7146	80003c8c	00ba5313	srli	x6,x20,0xb	 x20:0x00000000  x6=0x00000000
       71485000	      7147	80003c90	00935893	srli	x17,x6,0x9	  x6:0x00000000 x17=0x00000000
       71495000	      7148	80003c94	019ede33	srl	x28,x29,x25	 x29:0x000007df x25:0xc0004fb6 x28=0x00000000
       71505000	      7149	80003c98	00000013	addi	x0,x0,0	  x0:0x00000000
       71515000	      7150	80003c9c	0096d613	srli	x12,x13,0x9	 x13:0xf91837e4 x12=0x007c8c1b
       71525000	      7151	80003ca0	0174dd33	srl	x26,x9,x23	  x9:0x20000000 x23:0x00000000 x26=0x20000000
       71535000	      7152	80003ca4	f497c793	xori	x15,x15,-183	 x15:0x86e86e42 x15=0x7917910b
       71545000	      7153	80003ca8	85cfcb93	xori	x23,x31,-1956	 x31:0xf7869c44 x23=0x08796418
       71555000	      7154	80003cac	05911863	bne	x2,x25,80003cfc	  x2:0x00000000 x25:0xc0004fb6
       71565000	      7155	00000000	00000013	addi	x0,x0,0	  x0:0x00000000
       71575000	      7156	80003cf8	00000013	addi	x0,x0,0	  x0:0x00000000
       71585000	      7157	80003cfc	009e9263	bne	x29,x9,80003d00	 x29:0x000007df  x9:0x20000000
       71595000	      7158	00000000	00000013	addi	x0,x0,0	  x0:0x00000000
       71605000	      7159	80003cfc	00000013	addi	x0,x0,0	  x0:0x00000000
       71615000	      7160	80003d00	034fe863	bltu	x31,x20,80003d30	 x31:0xf7869c44 x20:0x00000000
       71625000	      7161	80003d04	41c0d193	srai	x3,x1,0x1c	  x1:0x00000000  x3=0x00000000
       71635000	      7162	80003d08	9fdcea93	ori	x21,x25,-1539	 x25:0xc0004fb6 x21=0xffffffff
       71645000	      7163	80003d0c	00000013	addi	x0,x0,0	  x0:0x00000000
       71655000	      7164	80003d10	41d8db33	sra	x22,x17,x29	 x17:0x00000000 x29:0x000007df x22=0x00000000
       71665000	      7165	80003d14	011cba33	sltu	x20,x25,x17	 x25:0xc0004fb6 x17:0x00000000 x20=0x00000000
       71675000	      7166	80003d18	003abeb3	sltu	x29,x21,x3	 x21:0xffffffff  x3:0x00000000 x29=0x00000000
       71685000	      7167	80003d1c	00000013	addi	x0,x0,0	  x0:0x00000000
       71695000	      7168	80003d20	007fc1b7	lui	x3,0x7fc	  x3=0x007fc000
       71705000	      7169	80003d24	01678133	add	x2,x15,x22	 x15:0x7917910b x22:0x00000000  x2=0x7917910b
       71715000	      7170	80003d28	86f4b793	sltiu	x15,x9,-1937	  x9:0x20000000 x15=0x00000001
       71725000	      7171	80003d2c	02f18e63	beq	x3,x15,80003d68	  x3:0x007fc000 x15:0x00000001
       71735000	      7172	80003d30	03768a63	beq	x13,x23,80003d64	 x13:0xf91837e4 x23:0x08796418
       71745000	      7173	80003d34	00f4e8b3	or	x17,x9,x15	  x9:0x20000000 x15:0x00000001 x17=0x20000001
       71755000	      7174	80003d38	adf42ab7	lui	x21,0xadf42	 x21=0xadf42000
       71765000	      7175	80003d3c	6d81f113	andi	x2,x3,1752	  x3:0x007fc000  x2=0x00000000
       71775000	      7176	80003d40	05a30463	beq	x6,x26,80003d88	  x6:0x00000000 x26:0x20000000
       71785000	      7177	80003d44	00668ab3	add	x21,x13,x6	 x13:0xf91837e4  x6:0x00000000 x21=0xf91837e4
       71795000	      7178	80003d48	02447263	bgeu	x8,x4,80003d6c	  x8:0x06e7c812  x4:0xc5a44000
       71805000	      7179	80003d4c	01ce1433	sll	x8,x28,x28	 x28:0x00000000 x28:0x00000000  x8=0x00000000
       71815000	      7180	80003d50	00e1e333	or	x6,x3,x14	  x3:0x007fc000 x14:0x00000000  x6=0x007fc000
       71825000	      7181	80003d54	405d5cb3	sra	x25,x26,x5	 x26:0x20000000  x5:0xfffffe65 x25=0x01000000
       71835000	      7182	80003d58	009e3fb3	sltu	x31,x28,x9	 x28:0x00000000  x9:0x20000000 x31=0x00000001
       71845000	      7183	80003d5c	7c6f0713	addi	x14,x30,1990	 x30:0xd9cd09b4 x14=0xd9cd117a
       71855000	      7184	80003d60	00000013	addi	x0,x0,0	  x0:0x00000000
       71865000	      7185	80003d64	9c7f0c93	addi	x25,x30,-1593	 x30:0xd9cd09b4 x25=0xd9cd037b
       71875000	      7186	80003d68	41a0d3b3	sra	x7,x1,x26	  x1:0x00000000 x26:0x20000000  x7=0x00000000
       71885000	      7187	80003d6c	0085ecb3	or	x25,x11,x8	 x11:0x000003c8  x8:0x00000000 x25=0x000003c8
       71895000	      7188	80003d70	9e4ac113	xori	x2,x21,-1564	 x21:0xf91837e4  x2=0x06e7ce00
       71905000	      7189	80003d74	03e17863	bgeu	x2,x30,80003da4	  x2:0x06e7ce00 x30:0xd9cd09b4
       71915000	      7190	80003d78	00610463	beq	x2,x6,80003d80	  x2:0x06e7ce00  x6:0x007fc000
       71925000	      7191	80003d7c	4f993e13	sltiu	x28,x18,1273	 x18:0x86e867e0 x28=0x00000000
       71935000	      7192	80003d80	0050dd33	srl	x26,x1,x5	  x1:0x00000000  x5:0xfffffe65 x26=0x00000000
       71945000	      7193	80003d84	01319713	slli	x14,x3,0x13	  x3:0x007fc000 x14=0x00000000
       71955000	      7194	80003d88	41af7e93	andi	x29,x30,1050	 x30:0xd9cd09b4 x29=0x00000010
       71965000	      7195	80003d8c	ad146e13	ori	x28,x8,-1327	  x8:0x00000000 x28=0xfffffad1
       71975000	      7196	80003d90	004aea33	or	x20,x21,x4	 x21:0xf91837e4  x4:0xc5a44000 x20=0xfdbc77e4
       71985000	      7197	80003d94	3666f793	andi	x15,x13,870	 x13:0xf91837e4 x15=0x00000364
       71995000	      7198	80003d98	014d2133	slt	x2,x26,x20	 x26:0x00000000 x20:0xfdbc77e4  x2=0x00000000
       72005000	      7199	80003d9c	e9693713	sltiu	x14,x18,-362	 x18:0x86e867e0 x14=0x00000001
       72015000	      7200	80003da0	41abd713	srai	x14,x23,0x1a	 x23:0x08796418 x14=0x00000002
       72025000	      7201	80003da4	0141bfb3	sltu	x31,x3,x20	  x3:0x007fc000 x20:0xfdbc77e4 x31=0x00000001
       72035000	      7202	80003da8	e2851f37	lui	x30,0xe2851	 x30=0xe2851000
       72045000	      7203	80003dac	00515113	srli	x2,x2,0x5	  x2:0x00000000  x2=0x00000000
       72055000	      7204	80003db0	0163e533	or	x10,x7,x22	  x7:0x00000000 x22:0x00000000 x10=0x00000000
       72065000	      7205	80003db4	03647663	bgeu	x8,x22,80003de0	  x8:0x00000000 x22:0x00000000
       72075000	      7206	00000000	00000013	addi	x0,x0,0	  x0:0x00000000
       72085000	      7207	80003ddc	00000013	addi	x0,x0,0	  x0:0x00000000
       72095000	      7208	80003de0	41f15493	srai	x9,x2,0x1f	  x2:0x00000000  x9=0x00000000
       72105000	      7209	80003de4	00000013	addi	x0,x0,0	  x0:0x00000000
       72115000	      7210	80003de8	009e71b3	and	x3,x28,x9	 x28:0xfffffad1  x9:0x00000000  x3=0x00000000
       72125000	      7211	80003dec	01da5793	srli	x15,x20,0x1d	 x20:0xfdbc77e4 x15=0x00000007
       72135000	      7212	80003df0	fb27b713	sltiu	x14,x15,-78	 x15:0x00000007 x14=0x00000001
       72145000	      7213	80003df4	0181fd33	and	x26,x3,x24	  x3:0x00000000 x24:0x000007df x26=0x00000000
       72155000	      7214	80003df8	01615d13	srli	x26,x2,0x16	  x2:0x00000000 x26=0x00000000
       72165000	      7215	80003dfc	00e6deb3	srl	x29,x13,x14	 x13:0xf91837e4 x14:0x00000001 x29=0x7c8c1bf2
       72175000	      7216	80003e00	01457433	and	x8,x10,x20	 x10:0x00000000 x20:0xfdbc77e4  x8=0x00000000
       72185000	      7217	80003e04	b9594137	lui	x2,0xb9594	  x2=0xb9594000
       72195000	      7218	80003e08	0014e233	or	x4,x9,x1	  x9:0x00000000  x1:0x00000000  x4=0x00000000
       72205000	      7219	80003e0c	412802b3	sub	x5,x16,x18	 x16:0x80009fc4 x18:0x86e867e0  x5=0xf91837e4
       72215000	      7220	80003e10	012e9e33	sll	x28,x29,x18	 x29:0x7c8c1bf2 x18:0x86e867e0 x28=0x7c8c1bf2
       72225000	      7221	80003e14	0d9bc893	xori	x17,x23,217	 x23:0x08796418 x17=0x087964c1
       72235000	      7222	80003e18	00e70663	beq	x14,x14,80003e24	 x14:0x00000001 x14:0x00000001
       72245000	      7223	00000000	00000013	addi	x0,x0,0	  x0:0x00000000
       72255000	      7224	80003e20	00000013	addi	x0,x0,0	  x0:0x00000000
       72265000	      7225	80003e24	01f24c63	blt	x4,x31,80003e3c	  x4:0x00000000 x31:0x00000001
       72275000	      7226	00000000	00000013	addi	x0,x0,0	  x0:0x00000000
       72285000	      7227	80003e38	00000013	addi	x0,x0,0	  x0:0x00000000
       72295000	      7228	80003e3c	40bcdb93	srai	x23,x25,0xb	 x25:0x000003c8 x23=0x00000000
       72305000	      7229	80003e40	08a14697	auipc	x13,0x8a14	 x13=0x88a17e3c
       72315000	      7230	80003e44	01c95c93	srli	x25,x18,0x1c	 x18:0x86e867e0 x25=0x00000008
       72325000	      7231	80003e48	00000013	addi	x0,x0,0	  x0:0x00000000
       72335000	      7232	80003e4c	68002213	slti	x4,x0,1664	  x0:0x00000000  x4=0x00000001
       72345000	      7233	80003e50	bdbd41b7	lui	x3,0xbdbd4	  x3=0xbdbd4000
       72355000	      7234	80003e54	7577f893	andi	x17,x15,1879	 x15:0x00000007 x17=0x00000007
       72365000	      7235	80003e58	01dcdc93	srli	x25,x25,0x1d	 x25:0x00000008 x25=0x00000000
       72375000	      7236	80003e5c	05698063	beq	x19,x22,80003e9c	 x19:0x00000000 x22:0x00000000
       72385000	      7237	00000000	00000013	addi	x0,x0,0	  x0:0x00000000
       72395000	      7238	80003e98	00000013	addi	x0,x0,0	  x0:0x00000000
       72405000	      7239	80003e9c	a338a313	slti	x6,x17,-1485	 x17:0x00000007  x6=0x00000000
       72415000	      7240	80003ea0	00eb1313	slli	x6,x22,0xe	 x22:0x00000000  x6=0x00000000
       72425000	      7241	80003ea4	0039cc33	xor	x24,x19,x3	 x19:0x00000000  x3:0xbdbd4000 x24=0xbdbd4000
       72435000	      7242	80003ea8	00479d33	sll	x26,x15,x4	 x15:0x00000007  x4:0x00000001 x26=0x0000000e
       72445000	      7243	80003eac	0ef83493	sltiu	x9,x16,239	 x16:0x80009fc4  x9=0x00000000
       72455000	      7244	80003eb0	00c9d7b3	srl	x15,x19,x12	 x19:0x00000000 x12:0x007c8c1b x15=0x00000000
       72465000	      7245	80003eb4	03a64263	blt	x12,x26,80003ed8	 x12:0x007c8c1b x26:0x0000000e
       72475000	      7246	80003eb8	7accb9b7	lui	x19,0x7accb	 x19=0x7accb000
       72485000	      7247	80003ebc	01336233	or	x4,x6,x19	  x6:0x00000000 x19:0x7accb000  x4=0x7accb000
       72495000	      7248	80003ec0	41595733	sra	x14,x18,x21	 x18:0x86e867e0 x21:0xf91837e4 x14=0xf86e867e
       72505000	      7249	80003ec4	03ab9663	bne	x23,x26,80003ef0	 x23:0x00000000 x26:0x0000000e
       72515000	      7250	00000000	00000013	addi	x0,x0,0	  x0:0x00000000
       72525000	      7251	80003eec	00000013	addi	x0,x0,0	  x0:0x00000000
       72535000	      7252	80003ef0	79497193	andi	x3,x18,1940	 x18:0x86e867e0  x3=0x00000780
       72545000	      7253	80003ef4	01dfb533	sltu	x10,x31,x29	 x31:0x00000001 x29:0x7c8c1bf2 x10=0x00000001
       72555000	      7254	80003ef8	02580e63	beq	x16,x5,80003f34	 x16:0x80009fc4  x5:0xf91837e4
       72565000	      7255	80003efc	c94d3493	sltiu	x9,x26,-876	 x26:0x0000000e  x9=0x00000001
       72575000	      7256	80003f00	006a2eb3	slt	x29,x20,x6	 x20:0xfdbc77e4  x6:0x00000000 x29=0x00000001
       72585000	      7257	80003f04	050ee463	bltu	x29,x16,80003f4c	 x29:0x00000001 x16:0x80009fc4
       72595000	      7258	00000000	00000013	addi	x0,x0,0	  x0:0x00000000
       72605000	      7259	80003f48	00000013	addi	x0,x0,0	  x0:0x00000000
       72615000	      7260	80003f4c	0378d663	bge	x17,x23,80003f78	 x17:0x00000007 x23:0x00000000
       72625000	      7261	00000000	00000013	addi	x0,x0,0	  x0:0x00000000
       72635000	      7262	80003f74	00000013	addi	x0,x0,0	  x0:0x00000000
       72645000	      7263	80003f78	00516e33	or	x28,x2,x5	  x2:0xb9594000  x5:0xf91837e4 x28=0xf95977e4
       72655000	      7264	80003f7c	00041533	sll	x10,x8,x0	  x8:0x00000000  x0:0x00000000 x10=0x00000000
       72665000	      7265	80003f80	02b35663	bge	x6,x11,80003fac	  x6:0x00000000 x11:0x000003c8
       72675000	      7266	80003f84	015a7133	and	x2,x20,x21	 x20:0xfdbc77e4 x21:0xf91837e4  x2=0xf91837e4
       72685000	      7267	80003f88	f863f513	andi	x10,x7,-122	  x7:0x00000000 x10=0x00000000
       72695000	      7268	80003f8c	ef978d37	lui	x26,0xef978	 x26=0xef978000
       72705000	      7269	80003f90	057ef463	bgeu	x29,x23,80003fd8	 x29:0x00000001 x23:0x00000000
       72715000	      7270	00000000	00000013	addi	x0,x0,0	  x0:0x00000000
       72725000	      7271	80003fd4	00000013	addi	x0,x0,0	  x0:0x00000000
       72735000	      7272	80003fd8	6d4bae13	slti	x28,x23,1748	 x23:0x00000000 x28=0x00000001
       72745000	      7273	80003fdc	013b9713	slli	x14,x23,0x13	 x23:0x00000000 x14=0x00000000
       72755000	      7274	80003fe0	56c3eb13	ori	x22,x7,1388	  x7:0x00000000 x22=0x0000056c
       72765000	      7275	80003fe4	2345b613	sltiu	x12,x11,564	 x11:0x000003c8 x12=0x00000000
       72775000	      7276	80003fe8	3de9b393	sltiu	x7,x19,990	 x19:0x7accb000  x7=0x00000000
       72785000	      7277	80003fec	00cd0033	add	x0,x26,x12	 x26:0xef978000 x12:0x00000000
       72795000	      7278	80003ff0	01c292b3	sll	x5,x5,x28	  x5:0xf91837e4 x28:0x00000001  x5=0xf2306fc8
       72805000	      7279	80003ff4	01226eb3	or	x29,x4,x18	  x4:0x7accb000 x18:0x86e867e0 x29=0xfeecf7e0
       72815000	      7280	80003ff8	02c00a63	beq	x0,x12,8000402c	  x0:0x00000000 x12:0x00000000
       72825000	      7281	00000000	00000013	addi	x0,x0,0	  x0:0x00000000
       72835000	      7282	80004028	00000013	addi	x0,x0,0	  x0:0x00000000
       72845000	      7283	8000402c	0114a1b3	slt	x3,x9,x17	  x9:0x00000001 x17:0x00000007  x3=0x00000001
       72855000	      7284	80004030	007e4233	xor	x4,x28,x7	 x28:0x00000001  x7:0x00000000  x4=0x00000001
       72865000	      7285	80004034	005a0c63	beq	x20,x5,8000404c	 x20:0xfdbc77e4  x5:0xf2306fc8
       72875000	      7286	80004038	02a98263	beq	x19,x10,8000405c	 x19:0x7accb000 x10:0x00000000
       72885000	      7287	8000403c	7fd82513	slti	x10,x16,2045	 x16:0x80009fc4 x10=0x00000001
       72895000	      7288	80004040	16b84b93	xori	x23,x16,363	 x16:0x80009fc4 x23=0x80009eaf
       72905000	      7289	80004044	0f5afa93	andi	x21,x21,245	 x21:0xf91837e4 x21=0x000000e4
       72915000	      7290	80004048	01090263	beq	x18,x16,8000404c	 x18:0x86e867e0 x16:0x80009fc4
       72925000	      7291	8000404c	01ffaab3	slt	x21,x31,x31	 x31:0x00000001 x31:0x00000001 x21=0x00000000
       72935000	      7292	80004050	00d05293	srli	x5,x0,0xd	  x0:0x00000000  x5=0x00000000
       72945000	      7293	80004054	be712913	slti	x18,x2,-1049	  x2:0xf91837e4 x18=0x00000001
       72955000	      7294	80004058	0034e5b3	or	x11,x9,x3	  x9:0x00000001  x3:0x00000001 x11=0x00000001
       72965000	      7295	8000405c	0369f263	bgeu	x19,x22,80004080	 x19:0x7accb000 x22:0x0000056c
       72975000	      7296	00000000	00000013	addi	x0,x0,0	  x0:0x00000000
       72985000	      7297	8000407c	00000013	addi	x0,x0,0	  x0:0x00000000
       72995000	      7298	80004080	0133dfb3	srl	x31,x7,x19	  x7:0x00000000 x19:0x7accb000 x31=0x00000000
       73005000	      7299	80004084	001f51b3	srl	x3,x30,x1	 x30:0xe2851000  x1:0x00000000  x3=0xe2851000
       73015000	      7300	80004088	01e2a1b3	slt	x3,x5,x30	  x5:0x00000000 x30:0xe2851000  x3=0x00000000
       73025000	      7301	8000408c	41bb5013	srai	x0,x22,0x1b	 x22:0x0000056c
       73035000	      7302	80004090	41cc5293	srai	x5,x24,0x1c	 x24:0xbdbd4000  x5=0xfffffffb
       73045000	      7303	80004094	006d25b3	slt	x11,x26,x6	 x26:0xef978000  x6:0x00000000 x11=0x00000001
       73055000	      7304	80004098	0107dab3	srl	x21,x15,x16	 x15:0x00000000 x16:0x80009fc4 x21=0x00000000
       73065000	      7305	8000409c	01b67463	bgeu	x12,x27,800040a4	 x12:0x00000000 x27:0x80009f64
       73075000	      7306	800040a0	00000013	addi	x0,x0,0	  x0:0x00000000
       73085000	      7307	800040a4	0d41c863	blt	x3,x20,80004174	  x3:0x00000000 x20:0xfdbc77e4
       73095000	      7308	800040a8	91a3f737	lui	x14,0x91a3f	 x14=0x91a3f000
       73105000	      7309	800040ac	0e08dc63	bge	x17,x0,800041a4	 x17:0x00000007  x0:0x00000000
       73115000	      7310	00000000	00000013	addi	x0,x0,0	  x0:0x00000000
       73125000	      7311	800041a0	00000013	addi	x0,x0,0	  x0:0x00000000
       73135000	      7312	800041a4	40c85393	srai	x7,x16,0xc	 x16:0x80009fc4  x7=0xfff80009
       73145000	      7313	800041a8	01e069b3	or	x19,x0,x30	  x0:0x00000000 x30:0xe2851000 x19=0xe2851000
       73155000	      7314	800041ac	03288663	beq	x17,x18,800041d8	 x17:0x00000007 x18:0x00000001
       73165000	      7315	800041b0	00fdfc63	bgeu	x27,x15,800041c8	 x27:0x80009f64 x15:0x00000000
       73175000	      7316	00000000	00000013	addi	x0,x0,0	  x0:0x00000000
       73185000	      7317	800041c4	00000013	addi	x0,x0,0	  x0:0x00000000
       73195000	      7318	800041c8	40fb5993	srai	x19,x22,0xf	 x22:0x0000056c x19=0x00000000
       73205000	      7319	800041cc	00b6da93	srli	x21,x13,0xb	 x13:0x88a17e3c x21=0x0011142f
       73215000	      7320	800041d0	032ae263	bltu	x21,x18,800041f4	 x21:0x0011142f x18:0x00000001
       73225000	      7321	800041d4	002b8463	beq	x23,x2,800041dc	 x23:0x80009eaf  x2:0xf91837e4
       73235000	      7322	800041d8	01ff14b3	sll	x9,x30,x31	 x30:0xe2851000 x31:0x00000000  x9=0xe2851000
       73245000	      7323	800041dc	00c6e3b3	or	x7,x13,x12	 x13:0x88a17e3c x12:0x00000000  x7=0x88a17e3c
       73255000	      7324	800041e0	8125fe37	lui	x28,0x8125f	 x28=0x8125f000
       73265000	      7325	800041e4	401005b3	sub	x11,x0,x1	  x0:0x00000000  x1:0x00000000 x11=0x00000000
       73275000	      7326	800041e8	032c1663	bne	x24,x18,80004214	 x24:0xbdbd4000 x18:0x00000001
       73285000	      7327	00000000	00000013	addi	x0,x0,0	  x0:0x00000000
       73295000	      7328	80004210	00000013	addi	x0,x0,0	  x0:0x00000000
       73305000	      7329	80004214	00ae0663	beq	x28,x10,80004220	 x28:0x8125f000 x10:0x00000001
       73315000	      7330	80004218	00000013	addi	x0,x0,0	  x0:0x00000000
       73325000	      7331	8000421c	0e12b613	sltiu	x12,x5,225	  x5:0xfffffffb x12=0x00000000
       73335000	      7332	80004220	00e8deb3	srl	x29,x17,x14	 x17:0x00000007 x14:0x91a3f000 x29=0x00000007
       73345000	      7333	80004224	6ab99637	lui	x12,0x6ab99	 x12=0x6ab99000
       73355000	      7334	80004228	018de263	bltu	x27,x24,8000422c	 x27:0x80009f64 x24:0xbdbd4000
       73365000	      7335	00000000	00000013	addi	x0,x0,0	  x0:0x00000000
       73375000	      7336	80004228	00000013	addi	x0,x0,0	  x0:0x00000000
       73385000	      7337	8000422c	33233693	sltiu	x13,x6,818	  x6:0x00000000 x13=0x00000001
       73395000	      7338	80004230	04138463	beq	x7,x1,80004278	  x7:0x88a17e3c  x1:0x00000000
       73405000	      7339	80004234	04dd8463	beq	x27,x13,8000427c	 x27:0x80009f64 x13:0x00000001
       73415000	      7340	80004238	0576e463	bltu	x13,x23,80004280	 x13:0x00000001 x23:0x80009eaf
       73425000	      7341	00000000	00000013	addi	x0,x0,0	  x0:0x00000000
       73435000	      7342	8000427c	00000013	addi	x0,x0,0	  x0:0x00000000
       73445000	      7343	80004280	281d4ab7	lui	x21,0x281d4	 x21=0x281d4000
       73455000	      7344	80004284	04190063	beq	x18,x1,800042c4	 x18:0x00000001  x1:0x00000000
       73465000	      7345	80004288	9dfbe193	ori	x3,x23,-1569	 x23:0x80009eaf  x3=0xffffffff
       73475000	      7346	8000428c	41a38133	sub	x2,x7,x26	  x7:0x88a17e3c x26:0xef978000  x2=0x9909fe3c
       73485000	      7347	80004290	00000013	addi	x0,x0,0	  x0:0x00000000
       73495000	      7348	80004294	02cef663	bgeu	x29,x12,800042c0	 x29:0x00000007 x12:0x6ab99000
       73505000	      7349	80004298	4019dd33	sra	x26,x19,x1	 x19:0x00000000  x1:0x00000000 x26=0x00000000
       73515000	      7350	8000429c	40b35733	sra	x14,x6,x11	  x6:0x00000000 x11:0x00000000 x14=0x00000000
       73525000	      7351	800042a0	02d97263	bgeu	x18,x13,800042c4	 x18:0x00000001 x13:0x00000001
       73535000	      7352	00000000	00000013	addi	x0,x0,0	  x0:0x00000000
       73545000	      7353	800042c0	00000013	addi	x0,x0,0	  x0:0x00000000
       73555000	      7354	800042c4	402fdc13	srai	x24,x31,0x2	 x31:0x00000000 x24=0x00000000
       73565000	      7355	800042c8	05c0e863	bltu	x1,x28,80004318	  x1:0x00000000 x28:0x8125f000
       73575000	      7356	00000000	00000013	addi	x0,x0,0	  x0:0x00000000
       73585000	      7357	80004314	00000013	addi	x0,x0,0	  x0:0x00000000
       73595000	      7358	80004318	0117e633	or	x12,x15,x17	 x15:0x00000000 x17:0x00000007 x12=0x00000007
       73605000	      7359	8000431c	dd707a93	andi	x21,x0,-553	  x0:0x00000000 x21=0x00000000
       73615000	      7360	80004320	0151d633	srl	x12,x3,x21	  x3:0xffffffff x21:0x00000000 x12=0xffffffff
       73625000	      7361	80004324	004de7b3	or	x15,x27,x4	 x27:0x80009f64  x4:0x00000001 x15=0x80009f65
       73635000	      7362	80004328	00637c63	bgeu	x6,x6,80004340	  x6:0x00000000  x6:0x00000000
       73645000	      7363	00000000	00000013	addi	x0,x0,0	  x0:0x00000000
       73655000	      7364	8000433c	00000013	addi	x0,x0,0	  x0:0x00000000
       73665000	      7365	80004340	01fb05b3	add	x11,x22,x31	 x22:0x0000056c x31:0x00000000 x11=0x0000056c
       73675000	      7366	80004344	014e9fb3	sll	x31,x29,x20	 x29:0x00000007 x20:0xfdbc77e4 x31=0x00000070
       73685000	      7367	80004348	005a1513	slli	x10,x20,0x5	 x20:0xfdbc77e4 x10=0xb78efc80
       73695000	      7368	8000434c	03e5da63	bge	x11,x30,80004380	 x11:0x0000056c x30:0xe2851000
       73705000	      7369	00000000	00000013	addi	x0,x0,0	  x0:0x00000000
       73715000	      7370	8000437c	00000013	addi	x0,x0,0	  x0:0x00000000
       73725000	      7371	80004380	00a6d293	srli	x5,x13,0xa	 x13:0x00000001  x5=0x00000000
       73735000	      7372	80004384	a48b0013	addi	x0,x22,-1464	 x22:0x0000056c
       73745000	      7373	80004388	42b98113	addi	x2,x19,1067	 x19:0x00000000  x2=0x0000042b
       73755000	      7374	8000438c	0547e863	bltu	x15,x20,800043dc	 x15:0x80009f65 x20:0xfdbc77e4
       73765000	      7375	00000000	00000013	addi	x0,x0,0	  x0:0x00000000
       73775000	      7376	800043d8	00000013	addi	x0,x0,0	  x0:0x00000000
       73785000	      7377	800043dc	01667c63	bgeu	x12,x22,800043f4	 x12:0xffffffff x22:0x0000056c
       73795000	      7378	00000000	00000013	addi	x0,x0,0	  x0:0x00000000
       73805000	      7379	800043f0	00000013	addi	x0,x0,0	  x0:0x00000000
       73815000	      7380	800043f4	00a8db13	srli	x22,x17,0xa	 x17:0x00000007 x22=0x00000000
       73825000	      7381	800043f8	01468663	beq	x13,x20,80004404	 x13:0x00000001 x20:0xfdbc77e4
       73835000	      7382	800043fc	01ff8463	beq	x31,x31,80004404	 x31:0x00000070 x31:0x00000070
       73845000	      7383	00000000	00000013	addi	x0,x0,0	  x0:0x00000000
       73855000	      7384	80004400	00000013	addi	x0,x0,0	  x0:0x00000000
       73865000	      7385	80004404	46b3ad13	slti	x26,x7,1131	  x7:0x88a17e3c x26=0x00000001
       73875000	      7386	80004408	011be433	or	x8,x23,x17	 x23:0x80009eaf x17:0x00000007  x8=0x80009eaf
       73885000	      7387	8000440c	004da903	lw	x18,4(x27)	 x27:0x80009f64 x18=0x80000148 PA:0x80009f68
       73895000	      7388	80004410	c3b32b13	slti	x22,x6,-965	  x6:0x00000000 x22=0x00000000
       73905000	      7389	80004414	00665ab3	srl	x21,x12,x6	 x12:0xffffffff  x6:0x00000000 x21=0xffffffff
       73915000	      7390	80004418	020d8d93	addi	x27,x27,32	 x27:0x80009f64 x27=0x80009f84
       73925000	      7391	8000441c	41672113	slti	x2,x14,1046	 x14:0x00000000  x2=0x00000001
       73935000	      7392	80004420	00090b93	addi	x23,x18,0	 x18:0x80000148 x23=0x80000148
       73945000	      7393	80004424	000b8be7	jalr	x23,x23,0	 x23:0x80000148 x23=0x80004424
       73955000	      7394	00000000	00000013	addi	x0,x0,0	  x0:0x00000000
       73965000	      7395	80000148	00000013	addi	x0,x0,0	  x0:0x00000000
       73975000	      7396	8000014c	00008f97	auipc	x31,0x8	 x31=0x80008148
       73985000	      7397	80000150	0fef8f93	addi	x31,x31,254	 x31:0x80008148 x31=0x80008246
       73995000	      7398	80000154	00ff8683	lb	x13,15(x31)	 x31:0x80008246 x13=0xffffffba PA:0x80008255
       74005000	      7399	80000158	a48e7417	auipc	x8,0xa48e7	  x8=0x248e7154
       74015000	      7400	8000015c	f91afd17	auipc	x26,0xf91af	 x26=0x791af158
       74025000	      7401	80000160	fd6f8aa3	sb	x22,-43(x31)	 x31:0x80008246 x22:0x00000000 PA:0x8000821b
       74035000	      7402	80000164	956ebe13	sltiu	x28,x29,-1706	 x29:0x00000007 x28=0x00000001
       74045000	      7403	80000168	03cfd703	lhu	x14,60(x31)	 x31:0x80008246 x14=0x0000b06a PA:0x80008282
       74055000	      7404	8000016c	9e5d8a97	auipc	x21,0x9e5d8	 x21=0x1e5d8168
       74065000	      7405	80000170	4005dd13	srai	x26,x11,0x0	 x11:0x0000056c x26=0x0000056c
       74075000	      7406	80000174	e7672c13	slti	x24,x14,-394	 x14:0x0000b06a x24=0x00000000
       74085000	      7407	80000178	fcdf9223	sh	x13,-60(x31)	 x31:0x80008246 x13:0xffffffba PA:0x8000820a
       74095000	      7408	8000017c	fc2f8983	lb	x19,-62(x31)	 x31:0x80008246 x19=0x00000066 PA:0x80008208
       74105000	      7409	80000180	034f8903	lb	x18,52(x31)	 x31:0x80008246 x18=0xffffffc7 PA:0x8000827a
       74115000	      7410	80000184	00eb7f33	and	x30,x22,x14	 x22:0x00000000 x14:0x0000b06a x30=0x00000000
       74125000	      7411	80000188	b04e0b13	addi	x22,x28,-1276	 x28:0x00000001 x22=0xfffffb05
       74135000	      7412	8000018c	40148bb3	sub	x23,x9,x1	  x9:0xe2851000  x1:0x00000000 x23=0xe2851000
       74145000	      7413	80000190	01dcabb3	slt	x23,x25,x29	 x25:0x00000000 x29:0x00000007 x23=0x00000001
       74155000	      7414	80000194	01af8683	lb	x13,26(x31)	 x31:0x80008246 x13=0xffffffde PA:0x80008260
       74165000	      7415	80000198	017f9d23	sh	x23,26(x31)	 x31:0x80008246 x23:0x00000001 PA:0x80008260
       74175000	      7416	8000019c	63231737	lui	x14,0x63231	 x14=0x63231000
       74185000	      7417	800001a0	ff0f8c23	sb	x16,-8(x31)	 x31:0x80008246 x16:0x80009fc4 PA:0x8000823e
       74195000	      7418	800001a4	40485a93	srai	x21,x16,0x4	 x16:0x80009fc4 x21=0xf80009fc
       74205000	      7419	800001a8	ff2fd583	lhu	x11,-14(x31)	 x31:0x80008246 x11=0x0000eb13 PA:0x80008238
       74215000	      7420	800001ac	021f8483	lb	x9,33(x31)	 x31:0x80008246  x9=0xffffffa3 PA:0x80008267
       74225000	      7421	800001b0	02ef8503	lb	x10,46(x31)	 x31:0x80008246 x10=0xfffffffb PA:0x80008274
       74235000	      7422	800001b4	010e1893	slli	x17,x28,0x10	 x28:0x00000001 x17=0x00010000
       74245000	      7423	800001b8	00222233	slt	x4,x4,x2	  x4:0x00000001  x2:0x00000001  x4=0x00000000
       74255000	      7424	800001bc	002d8b33	add	x22,x27,x2	 x27:0x80009f84  x2:0x00000001 x22=0x80009f85
       74265000	      7425	800001c0	003fc333	xor	x6,x31,x3	 x31:0x80008246  x3:0xffffffff  x6=0x7fff7db9
       74275000	      7426	800001c4	fc0af613	andi	x12,x21,-64	 x21:0xf80009fc x12=0xf80009c0
       74285000	      7427	800001c8	004fc983	lbu	x19,4(x31)	 x31:0x80008246 x19=0x00000016 PA:0x8000824a
       74295000	      7428	800001cc	021f88a3	sb	x1,49(x31)	 x31:0x80008246  x1:0x00000000 PA:0x80008277
       74305000	      7429	800001d0	e98829b7	lui	x19,0xe9882	 x19=0xe9882000
       74315000	      7430	800001d4	010f8ca3	sb	x16,25(x31)	 x31:0x80008246 x16:0x80009fc4 PA:0x8000825f
       74325000	      7431	800001d8	008f8883	lb	x17,8(x31)	 x31:0x80008246 x17=0x0000003b PA:0x8000824e
       74335000	      7432	800001dc	02df8203	lb	x4,45(x31)	 x31:0x80008246  x4=0xffffffbe PA:0x80008273
       74345000	      7433	800001e0	a9afac17	auipc	x24,0xa9afa	 x24=0x29afa1dc
       74355000	      7434	800001e4	008f9903	lh	x18,8(x31)	 x31:0x80008246 x18=0xffffe43b PA:0x8000824e
       74365000	      7435	800001e8	9a23b693	sltiu	x13,x7,-1630	  x7:0x88a17e3c x13=0x00000001
       74375000	      7436	800001ec	dbce4313	xori	x6,x28,-580	 x28:0x00000001  x6=0xfffffdbd
       74385000	      7437	800001f0	02af9423	sh	x10,40(x31)	 x31:0x80008246 x10:0xfffffffb PA:0x8000826e
       74395000	      7438	800001f4	fd5fcd03	lbu	x26,-43(x31)	 x31:0x80008246 x26=0x00000000 PA:0x8000821b
       74405000	      7439	800001f8	025fc003	lbu	x0,37(x31)	 x31:0x80008246 PA:0x8000826b
       74415000	      7440	800001fc	a968b1b7	lui	x3,0xa968b	  x3=0xa968b000
       74425000	      7441	80000200	ff6fd383	lhu	x7,-10(x31)	 x31:0x80008246  x7=0x00004fa5 PA:0x8000823c
       74435000	      7442	80000204	032f81a3	sb	x18,35(x31)	 x31:0x80008246 x18:0xffffe43b PA:0x80008269
       74445000	      7443	80000208	07435063	bge	x6,x20,80000268	  x6:0xfffffdbd x20:0xfdbc77e4
       74455000	      7444	00000000	00000013	addi	x0,x0,0	  x0:0x00000000
       74465000	      7445	80000264	00000013	addi	x0,x0,0	  x0:0x00000000
       74475000	      7446	80000268	799b0e93	addi	x29,x22,1945	 x22:0x80009f85 x29=0x8000a71e
       74485000	      7447	8000026c	00000097	auipc	x1,0x0	  x1=0x80000268
       74495000	      7448	80000270	00c08093	addi	x1,x1,12	  x1:0x80000268  x1=0x80000274
       74505000	      7449	80000274	00008067	jalr	x0,x1,0	  x1:0x80000274
       74515000	      7450	00000000	00000013	addi	x0,x0,0	  x0:0x00000000
       74525000	      7451	80000274	00000013	addi	x0,x0,0	  x0:0x00000000
       74535000	      7452	80000278	00100193	addi	x3,x0,1	  x0:0x00000000  x3=0x00000001
       74545000	      7453	8000027c	00000073	ecall	
       74555000	      7454	80000280	013b9663	bne	x23,x19,8000028c	 x23:0x00000001 x19:0xe9882000
