		Time			Cycle	PC		Insn	Decoded instruction	Register and memory contents
          65000	         5	80000004	00000293	addi	x5,x0,0	  x0:0x00000000  x5=0x00000000
          75000	         6	80000008	00000313	addi	x6,x0,0	  x0:0x00000000  x6=0x00000000
          85000	         7	8000000c	00628263	beq	x5,x6,80000010	  x5:0x00000000  x6:0x00000000
          95000	         8	00000000	00000013	addi	x0,x0,0	  x0:0x00000000
         105000	         9	8000000c	00000013	addi	x0,x0,0	  x0:0x00000000
         115000	        10	80000010	00000f17	auipc	x30,0x0	 x30=0x8000000c
         125000	        11	80000014	00cf0f13	addi	x30,x30,12	 x30:0x8000000c x30=0x80000018
         135000	        12	80000018	000f0067	jalr	x0,x30,0	 x30:0x80000018
         145000	        13	00000000	00000013	addi	x0,x0,0	  x0:0x00000000
         155000	        14	80000018	00000013	addi	x0,x0,0	  x0:0x00000000
         165000	        15	8000001c	40000eb7	lui	x29,0x40000	 x29=0x40000000
         175000	        16	80000020	100e8e93	addi	x29,x29,256	 x29:0x40000000 x29=0x40000100
         185000	        17	80000024	00000013	addi	x0,x0,0	  x0:0x00000000
         195000	        18	80000028	0000a617	auipc	x12,0xa	 x12=0x8000a024
         205000	        19	8000002c	fa060613	addi	x12,x12,-96	 x12:0x8000a024 x12=0x80009fc4
         215000	        20	80000030	00007e97	auipc	x29,0x7	 x29=0x8000702c
         225000	        21	80000034	c64e8e93	addi	x29,x29,-924	 x29:0x8000702c x29=0x80006c90
         235000	        22	80000038	000eee93	ori	x29,x29,0	 x29:0x80006c90 x29=0x80006c90
         245000	        23	8000003c	00000013	addi	x0,x0,0	  x0:0x00000000
         255000	        24	80000040	00000e97	auipc	x29,0x0	 x29=0x8000003c
         265000	        25	80000044	020e8e93	addi	x29,x29,32	 x29:0x8000003c x29=0x8000005c
         275000	        26	80000048	00000013	addi	x0,x0,0	  x0:0x00000000
         285000	        27	8000004c	00000013	addi	x0,x0,0	  x0:0x00000000
         295000	        28	80000050	00002eb7	lui	x29,0x2	 x29=0x00002000
         305000	        29	80000054	800e8e93	addi	x29,x29,-2048	 x29:0x00002000 x29=0x00001800
         315000	        30	80000058	00000013	addi	x0,x0,0	  x0:0x00000000
         325000	        31	8000005c	00000013	addi	x0,x0,0	  x0:0x00000000
         335000	        32	80000060	faf91037	lui	x0,0xfaf91	
         345000	        33	80000064	5a500013	addi	x0,x0,1445	  x0:0x00000000
         355000	        34	80000068	667460b7	lui	x1,0x66746	  x1=0x66746000
         365000	        35	8000006c	59008093	addi	x1,x1,1424	  x1:0x66746000  x1=0x66746590
         375000	        36	80000070	00000113	addi	x2,x0,0	  x0:0x00000000  x2=0x00000000
         385000	        37	80000074	00000193	addi	x3,x0,0	  x0:0x00000000  x3=0x00000000
         395000	        38	80000078	800eb237	lui	x4,0x800eb	  x4=0x800eb000
         405000	        39	8000007c	e3320213	addi	x4,x4,-461	  x4:0x800eb000  x4=0x800eae33
         415000	        40	80000080	fb9fe2b7	lui	x5,0xfb9fe	  x5=0xfb9fe000
         425000	        41	80000084	d9e28293	addi	x5,x5,-610	  x5:0xfb9fe000  x5=0xfb9fdd9e
         435000	        42	80000088	80000337	lui	x6,0x80000	  x6=0x80000000
         445000	        43	8000008c	b420b3b7	lui	x7,0xb420b	  x7=0xb420b000
         455000	        44	80000090	42338393	addi	x7,x7,1059	  x7:0xb420b000  x7=0xb420b423
         465000	        45	80000094	65e30437	lui	x8,0x65e30	  x8=0x65e30000
         475000	        46	80000098	e7040413	addi	x8,x8,-400	  x8:0x65e30000  x8=0x65e2fe70
         485000	        47	8000009c	fbee24b7	lui	x9,0xfbee2	  x9=0xfbee2000
         495000	        48	800000a0	74148493	addi	x9,x9,1857	  x9:0xfbee2000  x9=0xfbee2741
         505000	        49	800000a4	80000537	lui	x10,0x80000	 x10=0x80000000
         515000	        50	800000a8	362145b7	lui	x11,0x36214	 x11=0x36214000
         525000	        51	800000ac	fd358593	addi	x11,x11,-45	 x11:0x36214000 x11=0x36213fd3
         535000	        52	800000b0	94f5a6b7	lui	x13,0x94f5a	 x13=0x94f5a000
         545000	        53	800000b4	1bf68693	addi	x13,x13,447	 x13:0x94f5a000 x13=0x94f5a1bf
         555000	        54	800000b8	00d00713	addi	x14,x0,13	  x0:0x00000000 x14=0x0000000d
         565000	        55	800000bc	00000793	addi	x15,x0,0	  x0:0x00000000 x15=0x00000000
         575000	        56	800000c0	00200813	addi	x16,x0,2	  x0:0x00000000 x16=0x00000002
         585000	        57	800000c4	00e00893	addi	x17,x0,14	  x0:0x00000000 x17=0x0000000e
         595000	        58	800000c8	00500993	addi	x19,x0,5	  x0:0x00000000 x19=0x00000005
         605000	        59	800000cc	fa970a37	lui	x20,0xfa970	 x20=0xfa970000
         615000	        60	800000d0	2d1a0a13	addi	x20,x20,721	 x20:0xfa970000 x20=0xfa9702d1
         625000	        61	800000d4	fd05cab7	lui	x21,0xfd05c	 x21=0xfd05c000
         635000	        62	800000d8	bc5a8a93	addi	x21,x21,-1083	 x21:0xfd05c000 x21=0xfd05bbc5
         645000	        63	800000dc	f081cb37	lui	x22,0xf081c	 x22=0xf081c000
         655000	        64	800000e0	a8bb0b13	addi	x22,x22,-1397	 x22:0xf081c000 x22=0xf081ba8b
         665000	        65	800000e4	83666bb7	lui	x23,0x83666	 x23=0x83666000
         675000	        66	800000e8	a40b8b93	addi	x23,x23,-1472	 x23:0x83666000 x23=0x83665a40
         685000	        67	800000ec	95f69c37	lui	x24,0x95f69	 x24=0x95f69000
         695000	        68	800000f0	0b1c0c13	addi	x24,x24,177	 x24:0x95f69000 x24=0x95f690b1
         705000	        69	800000f4	f3bd0cb7	lui	x25,0xf3bd0	 x25=0xf3bd0000
         715000	        70	800000f8	eadc8c93	addi	x25,x25,-339	 x25:0xf3bd0000 x25=0xf3bcfead
         725000	        71	800000fc	80000d37	lui	x26,0x80000	 x26=0x80000000
         735000	        72	80000100	ee737db7	lui	x27,0xee737	 x27=0xee737000
         745000	        73	80000104	8d8d8d93	addi	x27,x27,-1832	 x27:0xee737000 x27=0xee7368d8
         755000	        74	80000108	80000e37	lui	x28,0x80000	 x28=0x80000000
         765000	        75	8000010c	e91d6eb7	lui	x29,0xe91d6	 x29=0xe91d6000
         775000	        76	80000110	ef5e8e93	addi	x29,x29,-267	 x29:0xe91d6000 x29=0xe91d5ef5
         785000	        77	80000114	f2904f37	lui	x30,0xf2904	 x30=0xf2904000
         795000	        78	80000118	d81f0f13	addi	x30,x30,-639	 x30:0xf2904000 x30=0xf2903d81
         805000	        79	8000011c	00300f93	addi	x31,x0,3	  x0:0x00000000 x31=0x00000003
         815000	        80	80000120	0000a917	auipc	x18,0xa	 x18=0x8000a11c
         825000	        81	80000124	e6890913	addi	x18,x18,-408	 x18:0x8000a11c x18=0x80009f84
         835000	        82	80000128	918133b7	lui	x7,0x91813	  x7=0x91813000
         845000	        83	8000012c	00c49733	sll	x14,x9,x12	  x9:0xfbee2741 x12:0x80009fc4 x14=0xbee27410
         855000	        84	80000130	00895b33	srl	x22,x18,x8	 x18:0x80009f84  x8:0x65e2fe70 x22=0x00008000
         865000	        85	80000134	01218533	add	x10,x3,x18	  x3:0x00000000 x18:0x80009f84 x10=0x80009f84
         875000	        86	80000138	01a054b3	srl	x9,x0,x26	  x0:0x00000000 x26:0x80000000  x9=0x00000000
         885000	        87	8000013c	00000997	auipc	x19,0x0	 x19=0x80000138
         895000	        88	80000140	42c98993	addi	x19,x19,1068	 x19:0x80000138 x19=0x80000564
         905000	        89	80000144	09a98993	addi	x19,x19,154	 x19:0x80000564 x19=0x800005fe
         915000	        90	80000148	16653113	sltiu	x2,x10,358	 x10:0x80009f84  x2=0x00000000
         925000	        91	8000014c	0128db93	srli	x23,x17,0x12	 x17:0x0000000e x23=0x00000000
         935000	        92	80000150	f6698367	jalr	x6,x19,-154	 x19:0x800005fe  x6=0x80000150
         945000	        93	00000000	00000013	addi	x0,x0,0	  x0:0x00000000
         955000	        94	80000564	00000013	addi	x0,x0,0	  x0:0x00000000
         965000	        95	80000568	00000013	addi	x0,x0,0	  x0:0x00000000
         975000	        96	8000056c	0012c8b3	xor	x17,x5,x1	  x5:0xfb9fdd9e  x1:0x66746590 x17=0x9debb80e
         985000	        97	80000570	010b7033	and	x0,x22,x16	 x22:0x00008000 x16:0x00000002
         995000	        98	80000574	01c609b3	add	x19,x12,x28	 x12:0x80009fc4 x28:0x80000000 x19=0x00009fc4
        1005000	        99	80000578	fd490913	addi	x18,x18,-44	 x18:0x80009f84 x18=0x80009f58
        1015000	       100	8000057c	335fc097	auipc	x1,0x335fc	  x1=0xb35fc578
        1025000	       101	80000580	973fea13	ori	x20,x31,-1677	 x31:0x00000003 x20=0xfffff973
        1035000	       102	80000584	00692223	sw	x6,4(x18)	 x18:0x80009f58  x6:0x80000150 PA:0x80009f5c
        1045000	       103	80000588	003a00b3	add	x1,x20,x3	 x20:0xfffff973  x3:0x00000000  x1=0xfffff973
        1055000	       104	8000058c	00372ab3	slt	x21,x14,x3	 x14:0xbee27410  x3:0x00000000 x21=0x00000001
        1065000	       105	80000590	0329f463	bgeu	x19,x18,800005b8	 x19:0x00009fc4 x18:0x80009f58
        1075000	       106	80000594	41390e33	sub	x28,x18,x19	 x18:0x80009f58 x19:0x00009fc4 x28=0x7fffff94
        1085000	       107	80000598	00000013	addi	x0,x0,0	  x0:0x00000000
        1095000	       108	8000059c	00851513	slli	x10,x10,0x8	 x10:0x80009f84 x10=0x009f8400
        1105000	       109	800005a0	8193f593	andi	x11,x7,-2023	  x7:0x91813000 x11=0x91813000
        1115000	       110	800005a4	33a12213	slti	x4,x2,826	  x2:0x00000000  x4=0x00000001
        1125000	       111	800005a8	41c38333	sub	x6,x7,x28	  x7:0x91813000 x28:0x7fffff94  x6=0x1181306c
        1135000	       112	800005ac	405f0ab3	sub	x21,x30,x5	 x30:0xf2903d81  x5:0xfb9fdd9e x21=0xf6f05fe3
        1145000	       113	800005b0	cab32e13	slti	x28,x6,-853	  x6:0x1181306c x28=0x00000000
        1155000	       114	800005b4	41ef89b3	sub	x19,x31,x30	 x31:0x00000003 x30:0xf2903d81 x19=0x0d6fc282
        1165000	       115	800005b8	39c0036f	jal	x6,800005b8	  x6=0x800005b8
        1175000	       116	00000000	00000013	addi	x0,x0,0	  x0:0x00000000
        1185000	       117	80000950	00000013	addi	x0,x0,0	  x0:0x00000000
        1195000	       118	80000954	fe090913	addi	x18,x18,-32	 x18:0x80009f58 x18=0x80009f38
        1205000	       119	80000958	403b8133	sub	x2,x23,x3	 x23:0x00000000  x3:0x00000000  x2=0x00000000
        1215000	       120	8000095c	405c0bb3	sub	x23,x24,x5	 x24:0x95f690b1  x5:0xfb9fdd9e x23=0x9a56b313
        1225000	       121	80000960	01c1eab3	or	x21,x3,x28	  x3:0x00000000 x28:0x00000000 x21=0x00000000
        1235000	       122	80000964	00000013	addi	x0,x0,0	  x0:0x00000000
        1245000	       123	80000968	c55b4797	auipc	x15,0xc55b4	 x15=0x455b4964
        1255000	       124	8000096c	009c02b3	add	x5,x24,x9	 x24:0x95f690b1  x9:0x00000000  x5=0x95f690b1
        1265000	       125	80000970	41db0db3	sub	x27,x22,x29	 x22:0x00008000 x29:0xe91d5ef5 x27=0x16e3210b
        1275000	       126	80000974	00692223	sw	x6,4(x18)	 x18:0x80009f38  x6:0x800005b8 PA:0x80009f3c
        1285000	       127	80000978	00749093	slli	x1,x9,0x7	  x9:0x00000000  x1=0x00000000
        1295000	       128	8000097c	01b30fb3	add	x31,x6,x27	  x6:0x800005b8 x27:0x16e3210b x31=0x96e326c3
        1305000	       129	80000980	df840293	addi	x5,x8,-520	  x8:0x65e2fe70  x5=0x65e2fc68
        1315000	       130	80000984	00a99d13	slli	x26,x19,0xa	 x19:0x0d6fc282 x26=0xbf0a0800
        1325000	       131	80000988	40725133	sra	x2,x4,x7	  x4:0x00000001  x7:0x91813000  x2=0x00000001
        1335000	       132	8000098c	eba8b713	sltiu	x14,x17,-326	 x17:0x9debb80e x14=0x00000001
        1345000	       133	80000990	00d55463	bge	x10,x13,80000998	 x10:0x009f8400 x13:0x94f5a1bf
        1355000	       134	00000000	00000013	addi	x0,x0,0	  x0:0x00000000
        1365000	       135	80000994	00000013	addi	x0,x0,0	  x0:0x00000000
        1375000	       136	80000998	b15ff36f	jal	x6,80000998	  x6=0x80000998
        1385000	       137	00000000	00000013	addi	x0,x0,0	  x0:0x00000000
        1395000	       138	800004a8	00000013	addi	x0,x0,0	  x0:0x00000000
        1405000	       139	800004ac	00000013	addi	x0,x0,0	  x0:0x00000000
        1415000	       140	800004b0	40b65db3	sra	x27,x12,x11	 x12:0x80009fc4 x11:0x91813000 x27=0x80009fc4
        1425000	       141	800004b4	268de193	ori	x3,x27,616	 x27:0x80009fc4  x3=0x80009fec
        1435000	       142	800004b8	00b1ec33	or	x24,x3,x11	  x3:0x80009fec x11:0x91813000 x24=0x9181bfec
        1445000	       143	800004bc	01651113	slli	x2,x10,0x16	 x10:0x009f8400  x2=0x00000000
        1455000	       144	800004c0	01761093	slli	x1,x12,0x17	 x12:0x80009fc4  x1=0xe2000000
        1465000	       145	800004c4	fd490913	addi	x18,x18,-44	 x18:0x80009f38 x18=0x80009f0c
        1475000	       146	800004c8	4e1d3813	sltiu	x16,x26,1249	 x26:0xbf0a0800 x16=0x00000000
        1485000	       147	800004cc	27a26d13	ori	x26,x4,634	  x4:0x00000001 x26=0x0000027b
        1495000	       148	800004d0	00692223	sw	x6,4(x18)	 x18:0x80009f0c  x6:0x80000998 PA:0x80009f10
        1505000	       149	800004d4	407c53b3	sra	x7,x24,x7	 x24:0x9181bfec  x7:0x91813000  x7=0x9181bfec
        1515000	       150	800004d8	01123d33	sltu	x26,x4,x17	  x4:0x00000001 x17:0x9debb80e x26=0x00000001
        1525000	       151	800004dc	00b45033	srl	x0,x8,x11	  x8:0x65e2fe70 x11:0x91813000
        1535000	       152	800004e0	f867e193	ori	x3,x15,-122	 x15:0x455b4964  x3=0xffffffe6
        1545000	       153	800004e4	3bbffa13	andi	x20,x31,955	 x31:0x96e326c3 x20=0x00000283
        1555000	       154	800004e8	00006c17	auipc	x24,0x6	 x24=0x800064e4
        1565000	       155	800004ec	350c0c13	addi	x24,x24,848	 x24:0x800064e4 x24=0x80006834
        1575000	       156	800004f0	0155c4b3	xor	x9,x11,x21	 x11:0x91813000 x21:0x00000000  x9=0x91813000
        1585000	       157	800004f4	fcfc0c13	addi	x24,x24,-49	 x24:0x80006834 x24=0x80006803
        1595000	       158	800004f8	00000013	addi	x0,x0,0	  x0:0x00000000
        1605000	       159	800004fc	017b44b3	xor	x9,x22,x23	 x22:0x00008000 x23:0x9a56b313  x9=0x9a563313
        1615000	       160	80000500	032c0367	jalr	x6,x24,50	 x24:0x80006803  x6=0x80000500
        1625000	       161	00000000	00000013	addi	x0,x0,0	  x0:0x00000000
        1635000	       162	80006834	00000013	addi	x0,x0,0	  x0:0x00000000
        1645000	       163	80006838	00481693	slli	x13,x16,0x4	 x16:0x00000000 x13=0x00000000
        1655000	       164	8000683c	00dc3ab3	sltu	x21,x24,x13	 x24:0x80006803 x13:0x00000000 x21=0x00000000
        1665000	       165	80006840	00000013	addi	x0,x0,0	  x0:0x00000000
        1675000	       166	80006844	ff490913	addi	x18,x18,-12	 x18:0x80009f0c x18=0x80009f00
        1685000	       167	80006848	00692223	sw	x6,4(x18)	 x18:0x80009f00  x6:0x80000500 PA:0x80009f04
        1695000	       168	8000684c	01367db3	and	x27,x12,x19	 x12:0x80009fc4 x19:0x0d6fc282 x27=0x00008280
        1705000	       169	80006850	013e1333	sll	x6,x28,x19	 x28:0x00000000 x19:0x0d6fc282  x6=0x00000000
        1715000	       170	80006854	41380ab3	sub	x21,x16,x19	 x16:0x00000000 x19:0x0d6fc282 x21=0xf2903d7e
        1725000	       171	80006858	00e8abb3	slt	x23,x17,x14	 x17:0x9debb80e x14:0x00000001 x23=0x00000001
        1735000	       172	8000685c	fb9134b7	lui	x9,0xfb913	  x9=0xfb913000
        1745000	       173	80006860	00966eb3	or	x29,x12,x9	 x12:0x80009fc4  x9:0xfb913000 x29=0xfb91bfc4
        1755000	       174	80006864	0147cc63	blt	x15,x20,8000687c	 x15:0x455b4964 x20:0x00000283
        1765000	       175	80006868	0073a733	slt	x14,x7,x7	  x7:0x9181bfec  x7:0x9181bfec x14=0x00000000
        1775000	       176	8000686c	014523b3	slt	x7,x10,x20	 x10:0x009f8400 x20:0x00000283  x7=0x00000000
        1785000	       177	80006870	6519e493	ori	x9,x19,1617	 x19:0x0d6fc282  x9=0x0d6fc6d3
        1795000	       178	80006874	013f27b3	slt	x15,x30,x19	 x30:0xf2903d81 x19:0x0d6fc282 x15=0x00000001
        1805000	       179	80006878	0045d833	srl	x16,x11,x4	 x11:0x91813000  x4:0x00000001 x16=0x48c09800
        1815000	       180	8000687c	ed9ff36f	jal	x6,8000687c	  x6=0x8000687c
        1825000	       181	00000000	00000013	addi	x0,x0,0	  x0:0x00000000
        1835000	       182	80006750	00000013	addi	x0,x0,0	  x0:0x00000000
        1845000	       183	80006754	011d5463	bge	x26,x17,8000675c	 x26:0x00000001 x17:0x9debb80e
        1855000	       184	00000000	00000013	addi	x0,x0,0	  x0:0x00000000
        1865000	       185	80006758	00000013	addi	x0,x0,0	  x0:0x00000000
        1875000	       186	8000675c	fd890913	addi	x18,x18,-40	 x18:0x80009f00 x18=0x80009ed8
        1885000	       187	80006760	012a42b3	xor	x5,x20,x18	 x20:0x00000283 x18:0x80009ed8  x5=0x80009c5b
        1895000	       188	80006764	011f64b3	or	x9,x30,x17	 x30:0xf2903d81 x17:0x9debb80e  x9=0xfffbbd8f
        1905000	       189	80006768	00b272b3	and	x5,x4,x11	  x4:0x00000001 x11:0x91813000  x5=0x00000000
        1915000	       190	8000676c	3d616a93	ori	x21,x2,982	  x2:0x00000000 x21=0x000003d6
        1925000	       191	80006770	f7d52793	slti	x15,x10,-131	 x10:0x009f8400 x15=0x00000000
        1935000	       192	80006774	5273c113	xori	x2,x7,1319	  x7:0x00000000  x2=0x00000527
        1945000	       193	80006778	00692223	sw	x6,4(x18)	 x18:0x80009ed8  x6:0x8000687c PA:0x80009edc
        1955000	       194	8000677c	01bbccb3	xor	x25,x23,x27	 x23:0x00000001 x27:0x00008280 x25=0x00008281
        1965000	       195	80006780	00b542b3	xor	x5,x10,x11	 x10:0x009f8400 x11:0x91813000  x5=0x911eb400
        1975000	       196	80006784	00cc6833	or	x16,x24,x12	 x24:0x80006803 x12:0x80009fc4 x16=0x8000ffc7
        1985000	       197	80006788	0073d513	srli	x10,x7,0x7	  x7:0x00000000 x10=0x00000000
        1995000	       198	8000678c	00000417	auipc	x8,0x0	  x8=0x80006788
        2005000	       199	80006790	f0440413	addi	x8,x8,-252	  x8:0x80006788  x8=0x8000668c
        2015000	       200	80006794	00b01d93	slli	x27,x0,0xb	  x0:0x00000000 x27=0x00000000
        2025000	       201	80006798	00e87bb3	and	x23,x16,x14	 x16:0x8000ffc7 x14:0x00000000 x23=0x00000000
        2035000	       202	8000679c	c8240413	addi	x8,x8,-894	  x8:0x8000668c  x8=0x8000630e
        2045000	       203	800067a0	41a75313	srai	x6,x14,0x1a	 x14:0x00000000  x6=0x00000000
        2055000	       204	800067a4	37f40367	jalr	x6,x8,895	  x8:0x8000630e  x6=0x800067a4
        2065000	       205	00000000	00000013	addi	x0,x0,0	  x0:0x00000000
        2075000	       206	8000668c	00000013	addi	x0,x0,0	  x0:0x00000000
        2085000	       207	80006690	0a566197	auipc	x3,0xa566	  x3=0x8a56c68c
        2095000	       208	80006694	fe890913	addi	x18,x18,-24	 x18:0x80009ed8 x18=0x80009ec0
        2105000	       209	80006698	00a255b3	srl	x11,x4,x10	  x4:0x00000001 x10:0x00000000 x11=0x00000001
        2115000	       210	8000669c	4971a2b7	lui	x5,0x4971a	  x5=0x4971a000
        2125000	       211	800066a0	81eae393	ori	x7,x21,-2018	 x21:0x000003d6  x7=0xfffffbde
        2135000	       212	800066a4	00692223	sw	x6,4(x18)	 x18:0x80009ec0  x6:0x800067a4 PA:0x80009ec4
        2145000	       213	800066a8	c6a7ef93	ori	x31,x15,-918	 x15:0x00000000 x31=0xfffffc6a
        2155000	       214	800066ac	00aa11b3	sll	x3,x20,x10	 x20:0x00000283 x10:0x00000000  x3=0x00000283
        2165000	       215	800066b0	012e68b3	or	x17,x28,x18	 x28:0x00000000 x18:0x80009ec0 x17=0x80009ec0
        2175000	       216	800066b4	01180d33	add	x26,x16,x17	 x16:0x8000ffc7 x17:0x80009ec0 x26=0x00019e87
        2185000	       217	800066b8	413085b3	sub	x11,x1,x19	  x1:0xe2000000 x19:0x0d6fc282 x11=0xd4903d7e
        2195000	       218	800066bc	001a0463	beq	x20,x1,800066c4	 x20:0x00000283  x1:0xe2000000
        2205000	       219	800066c0	00bf0cb3	add	x25,x30,x11	 x30:0xf2903d81 x11:0xd4903d7e x25=0xc7207aff
        2215000	       220	800066c4	0389f863	bgeu	x19,x24,800066f4	 x19:0x0d6fc282 x24:0x80006803
        2225000	       221	800066c8	01735a33	srl	x20,x6,x23	  x6:0x800067a4 x23:0x00000000 x20=0x800067a4
        2235000	       222	800066cc	049e9463	bne	x29,x9,80006714	 x29:0xfb91bfc4  x9:0xfffbbd8f
        2245000	       223	00000000	00000013	addi	x0,x0,0	  x0:0x00000000
        2255000	       224	80006710	00000013	addi	x0,x0,0	  x0:0x00000000
        2265000	       225	80006714	0100fcb3	and	x25,x1,x16	  x1:0xe2000000 x16:0x8000ffc7 x25=0x80000000
        2275000	       226	80006718	b144ac13	slti	x24,x9,-1260	  x9:0xfffbbd8f x24=0x00000001
        2285000	       227	8000671c	002fc0b3	xor	x1,x31,x2	 x31:0xfffffc6a  x2:0x00000527  x1=0xfffff94d
        2295000	       228	80006720	cddf6b13	ori	x22,x30,-803	 x30:0xf2903d81 x22=0xfffffddd
        2305000	       229	80006724	00492303	lw	x6,4(x18)	 x18:0x80009ec0  x6=0x800067a4 PA:0x80009ec4
        2315000	       230	80006728	019c1e33	sll	x28,x24,x25	 x24:0x00000001 x25:0x80000000 x28=0x00000001
        2325000	       231	8000672c	400b5d13	srai	x26,x22,0x0	 x22:0xfffffddd x26=0xfffffddd
        2335000	       232	80006730	01890913	addi	x18,x18,24	 x18:0x80009ec0 x18=0x80009ed8
        2345000	       233	80006734	00cef1b3	and	x3,x29,x12	 x29:0xfb91bfc4 x12:0x80009fc4  x3=0x80009fc4
        2355000	       234	80006738	0035a6b3	slt	x13,x11,x3	 x11:0xd4903d7e  x3:0x80009fc4 x13=0x00000000
        2365000	       235	8000673c	8222e493	ori	x9,x5,-2014	  x5:0x4971a000  x9=0xfffff822
        2375000	       236	80006740	00b65c13	srli	x24,x12,0xb	 x12:0x80009fc4 x24=0x00100013
        2385000	       237	80006744	010457b3	srl	x15,x8,x16	  x8:0x8000630e x16:0x8000ffc7 x15=0x010000c6
        2395000	       238	80006748	01771ab3	sll	x21,x14,x23	 x14:0x00000000 x23:0x00000000 x21=0x00000000
        2405000	       239	8000674c	00030b93	addi	x23,x6,0	  x6:0x800067a4 x23=0x800067a4
        2415000	       240	80006750	000b8be7	jalr	x23,x23,0	 x23:0x800067a4 x23=0x80006750
        2425000	       241	00000000	00000013	addi	x0,x0,0	  x0:0x00000000
        2435000	       242	800067a4	00000013	addi	x0,x0,0	  x0:0x00000000
        2445000	       243	800067a8	000c7a63	bgeu	x24,x0,800067bc	 x24:0x00100013  x0:0x00000000
        2455000	       244	00000000	00000013	addi	x0,x0,0	  x0:0x00000000
        2465000	       245	800067b8	00000013	addi	x0,x0,0	  x0:0x00000000
        2475000	       246	800067bc	00239293	slli	x5,x7,0x2	  x7:0xfffffbde  x5=0xffffef78
        2485000	       247	800067c0	84f17a37	lui	x20,0x84f17	 x20=0x84f17000
        2495000	       248	800067c4	04ccc063	blt	x25,x12,80006804	 x25:0x80000000 x12:0x80009fc4
        2505000	       249	00000000	00000013	addi	x0,x0,0	  x0:0x00000000
        2515000	       250	80006800	00000013	addi	x0,x0,0	  x0:0x00000000
        2525000	       251	80006804	00b21293	slli	x5,x4,0xb	  x4:0x00000001  x5=0x00000800
        2535000	       252	80006808	00cd6a33	or	x20,x26,x12	 x26:0xfffffddd x12:0x80009fc4 x20=0xffffffdd
        2545000	       253	8000680c	470dfb37	lui	x22,0x470df	 x22=0x470df000
        2555000	       254	80006810	00b54233	xor	x4,x10,x11	 x10:0x00000000 x11:0xd4903d7e  x4=0xd4903d7e
        2565000	       255	80006814	00492303	lw	x6,4(x18)	 x18:0x80009ed8  x6=0x8000687c PA:0x80009edc
        2575000	       256	80006818	00000013	addi	x0,x0,0	  x0:0x00000000
        2585000	       257	8000681c	02890913	addi	x18,x18,40	 x18:0x80009ed8 x18=0x80009f00
        2595000	       258	80006820	010ba033	slt	x0,x23,x16	 x23:0x80006750 x16:0x8000ffc7
        2605000	       259	80006824	00551d93	slli	x27,x10,0x5	 x10:0x00000000 x27=0x00000000
        2615000	       260	80006828	f0ab0f93	addi	x31,x22,-246	 x22:0x470df000 x31=0x470def0a
        2625000	       261	8000682c	014c74b3	and	x9,x24,x20	 x24:0x00100013 x20:0xffffffdd  x9=0x00100011
        2635000	       262	80006830	00130193	addi	x3,x6,1	  x6:0x8000687c  x3=0x8000687d
        2645000	       263	80006834	000181e7	jalr	x3,x3,0	  x3:0x8000687d  x3=0x80006834
        2655000	       264	00000000	00000013	addi	x0,x0,0	  x0:0x00000000
        2665000	       265	8000687c	00000013	addi	x0,x0,0	  x0:0x00000000
        2675000	       266	80006880	01da4b33	xor	x22,x20,x29	 x20:0xffffffdd x29:0xfb91bfc4 x22=0x046e4019
        2685000	       267	80006884	00679693	slli	x13,x15,0x6	 x15:0x010000c6 x13=0x40003180
        2695000	       268	80006888	ffffaf97	auipc	x31,0xffffa	 x31=0x80000884
        2705000	       269	8000688c	b50f8f93	addi	x31,x31,-1200	 x31:0x80000884 x31=0x800003d4
        2715000	       270	80006890	e5674c13	xori	x24,x14,-426	 x14:0x00000000 x24=0xfffffe56
        2725000	       271	80006894	1407bb13	sltiu	x22,x15,320	 x15:0x010000c6 x22=0x00000000
        2735000	       272	80006898	e54f8f93	addi	x31,x31,-428	 x31:0x800003d4 x31=0x80000228
        2745000	       273	8000689c	018b86b3	add	x13,x23,x24	 x23:0x80006750 x24:0xfffffe56 x13=0x800065a6
        2755000	       274	800068a0	f6d6dc17	auipc	x24,0xf6d6d	 x24=0x76d7389c
        2765000	       275	800068a4	9cb58a93	addi	x21,x11,-1589	 x11:0xd4903d7e x21=0xd4903749
        2775000	       276	800068a8	ecb93c13	sltiu	x24,x18,-309	 x18:0x80009f00 x24=0x00000001
        2785000	       277	800068ac	1adf8367	jalr	x6,x31,429	 x31:0x80000228  x6=0x800068ac
        2795000	       278	00000000	00000013	addi	x0,x0,0	  x0:0x00000000
        2805000	       279	800003d4	00000013	addi	x0,x0,0	  x0:0x00000000
        2815000	       280	800003d8	fec90913	addi	x18,x18,-20	 x18:0x80009f00 x18=0x80009eec
        2825000	       281	800003dc	00a3b533	sltu	x10,x7,x10	  x7:0xfffffbde x10:0x00000000 x10=0x00000000
        2835000	       282	800003e0	40cb81b3	sub	x3,x23,x12	 x23:0x80006750 x12:0x80009fc4  x3=0xffffc78c
        2845000	       283	800003e4	41265c13	srai	x24,x12,0x12	 x12:0x80009fc4 x24=0xffffe000
        2855000	       284	800003e8	00692223	sw	x6,4(x18)	 x18:0x80009eec  x6:0x800068ac PA:0x80009ef0
        2865000	       285	800003ec	00ac0e33	add	x28,x24,x10	 x24:0xffffe000 x10:0x00000000 x28=0xffffe000
        2875000	       286	800003f0	40c35193	srai	x3,x6,0xc	  x6:0x800068ac  x3=0xfff80006
        2885000	       287	800003f4	4134de93	srai	x29,x9,0x13	  x9:0x00100011 x29=0x00000002
        2895000	       288	800003f8	3e5c8237	lui	x4,0x3e5c8	  x4=0x3e5c8000
        2905000	       289	800003fc	7ad52813	slti	x16,x10,1965	 x10:0x00000000 x16=0x00000001
        2915000	       290	80000400	014fd213	srli	x4,x31,0x14	 x31:0x80000228  x4=0x00000800
        2925000	       291	80000404	404780b3	sub	x1,x15,x4	 x15:0x010000c6  x4:0x00000800  x1=0x00fff8c6
        2935000	       292	80000408	401a81b3	sub	x3,x21,x1	 x21:0xd4903749  x1:0x00fff8c6  x3=0xd3903e83
        2945000	       293	8000040c	01b0cbb3	xor	x23,x1,x27	  x1:0x00fff8c6 x27:0x00000000 x23=0x00fff8c6
        2955000	       294	80000410	01c04ab3	xor	x21,x0,x28	  x0:0x00000000 x28:0xffffe000 x21=0xffffe000
        2965000	       295	80000414	008ad113	srli	x2,x21,0x8	 x21:0xffffe000  x2=0x00ffffe0
        2975000	       296	80000418	6d2faf93	slti	x31,x31,1746	 x31:0x80000228 x31=0x00000001
        2985000	       297	8000041c	00006517	auipc	x10,0x6	 x10=0x80006418
        2995000	       298	80000420	27450513	addi	x10,x10,628	 x10:0x80006418 x10=0x8000668c
        3005000	       299	80000424	24950513	addi	x10,x10,585	 x10:0x8000668c x10=0x800068d5
        3015000	       300	80000428	013b49b3	xor	x19,x22,x19	 x22:0x00000000 x19:0x0d6fc282 x19=0x0d6fc282
        3025000	       301	8000042c	db750367	jalr	x6,x10,-585	 x10:0x800068d5  x6=0x8000042c
        3035000	       302	00000000	00000013	addi	x0,x0,0	  x0:0x00000000
        3045000	       303	8000668c	00000013	addi	x0,x0,0	  x0:0x00000000
        3055000	       304	80006690	0a566197	auipc	x3,0xa566	  x3=0x8a56c68c
        3065000	       305	80006694	fe890913	addi	x18,x18,-24	 x18:0x80009eec x18=0x80009ed4
        3075000	       306	80006698	00a255b3	srl	x11,x4,x10	  x4:0x00000800 x10:0x800068d5 x11=0x00000000
        3085000	       307	8000669c	4971a2b7	lui	x5,0x4971a	  x5=0x4971a000
        3095000	       308	800066a0	81eae393	ori	x7,x21,-2018	 x21:0xffffe000  x7=0xfffff81e
        3105000	       309	800066a4	00692223	sw	x6,4(x18)	 x18:0x80009ed4  x6:0x8000042c PA:0x80009ed8
        3115000	       310	800066a8	c6a7ef93	ori	x31,x15,-918	 x15:0x010000c6 x31=0xfffffcee
        3125000	       311	800066ac	00aa11b3	sll	x3,x20,x10	 x20:0xffffffdd x10:0x800068d5  x3=0xfba00000
        3135000	       312	800066b0	012e68b3	or	x17,x28,x18	 x28:0xffffe000 x18:0x80009ed4 x17=0xfffffed4
        3145000	       313	800066b4	01180d33	add	x26,x16,x17	 x16:0x00000001 x17:0xfffffed4 x26=0xfffffed5
        3155000	       314	800066b8	413085b3	sub	x11,x1,x19	  x1:0x00fff8c6 x19:0x0d6fc282 x11=0xf3903644
        3165000	       315	800066bc	001a0463	beq	x20,x1,800066c4	 x20:0xffffffdd  x1:0x00fff8c6
        3175000	       316	800066c0	00bf0cb3	add	x25,x30,x11	 x30:0xf2903d81 x11:0xf3903644 x25=0xe62073c5
        3185000	       317	800066c4	0389f863	bgeu	x19,x24,800066f4	 x19:0x0d6fc282 x24:0xffffe000
        3195000	       318	800066c8	01735a33	srl	x20,x6,x23	  x6:0x8000042c x23:0x00fff8c6 x20=0x02000010
        3205000	       319	800066cc	049e9463	bne	x29,x9,80006714	 x29:0x00000002  x9:0x00100011
        3215000	       320	00000000	00000013	addi	x0,x0,0	  x0:0x00000000
        3225000	       321	80006710	00000013	addi	x0,x0,0	  x0:0x00000000
        3235000	       322	80006714	0100fcb3	and	x25,x1,x16	  x1:0x00fff8c6 x16:0x00000001 x25=0x00000000
        3245000	       323	80006718	b144ac13	slti	x24,x9,-1260	  x9:0x00100011 x24=0x00000000
        3255000	       324	8000671c	002fc0b3	xor	x1,x31,x2	 x31:0xfffffcee  x2:0x00ffffe0  x1=0xff00030e
        3265000	       325	80006720	cddf6b13	ori	x22,x30,-803	 x30:0xf2903d81 x22=0xfffffddd
        3275000	       326	80006724	00492303	lw	x6,4(x18)	 x18:0x80009ed4  x6=0x8000042c PA:0x80009ed8
        3285000	       327	80006728	019c1e33	sll	x28,x24,x25	 x24:0x00000000 x25:0x00000000 x28=0x00000000
        3295000	       328	8000672c	400b5d13	srai	x26,x22,0x0	 x22:0xfffffddd x26=0xfffffddd
        3305000	       329	80006730	01890913	addi	x18,x18,24	 x18:0x80009ed4 x18=0x80009eec
        3315000	       330	80006734	00cef1b3	and	x3,x29,x12	 x29:0x00000002 x12:0x80009fc4  x3=0x00000000
        3325000	       331	80006738	0035a6b3	slt	x13,x11,x3	 x11:0xf3903644  x3:0x00000000 x13=0x00000001
        3335000	       332	8000673c	8222e493	ori	x9,x5,-2014	  x5:0x4971a000  x9=0xfffff822
        3345000	       333	80006740	00b65c13	srli	x24,x12,0xb	 x12:0x80009fc4 x24=0x00100013
        3355000	       334	80006744	010457b3	srl	x15,x8,x16	  x8:0x8000630e x16:0x00000001 x15=0x40003187
        3365000	       335	80006748	01771ab3	sll	x21,x14,x23	 x14:0x00000000 x23:0x00fff8c6 x21=0x00000000
        3375000	       336	8000674c	00030b93	addi	x23,x6,0	  x6:0x8000042c x23=0x8000042c
        3385000	       337	80006750	000b8be7	jalr	x23,x23,0	 x23:0x8000042c x23=0x80006750
        3395000	       338	00000000	00000013	addi	x0,x0,0	  x0:0x00000000
        3405000	       339	8000042c	00000013	addi	x0,x0,0	  x0:0x00000000
        3415000	       340	80000430	921955b7	lui	x11,0x92195	 x11=0x92195000
        3425000	       341	80000434	01fc9e13	slli	x28,x25,0x1f	 x25:0x00000000 x28=0x00000000
        3435000	       342	80000438	6d49ee93	ori	x29,x19,1748	 x19:0x0d6fc282 x29=0x0d6fc6d6
        3445000	       343	8000043c	0145f6b3	and	x13,x11,x20	 x11:0x92195000 x20:0x02000010 x13=0x02000000
        3455000	       344	80000440	010f9733	sll	x14,x31,x16	 x31:0xfffffcee x16:0x00000001 x14=0xfffff9dc
        3465000	       345	80000444	418cd513	srai	x10,x25,0x18	 x25:0x00000000 x10=0x00000000
        3475000	       346	80000448	c467a313	slti	x6,x15,-954	 x15:0x40003187  x6=0x00000000
        3485000	       347	8000044c	41f3d513	srai	x10,x7,0x1f	  x7:0xfffff81e x10=0xffffffff
        3495000	       348	80000450	6fe8c797	auipc	x15,0x6fe8c	 x15=0xefe8c44c
        3505000	       349	80000454	8570a193	slti	x3,x1,-1961	  x1:0xff00030e  x3=0x00000001
        3515000	       350	80000458	02ed1263	bne	x26,x14,8000047c	 x26:0xfffffddd x14:0xfffff9dc
        3525000	       351	00000000	00000013	addi	x0,x0,0	  x0:0x00000000
        3535000	       352	80000478	00000013	addi	x0,x0,0	  x0:0x00000000
        3545000	       353	8000047c	6e526b17	auipc	x22,0x6e526	 x22=0xee526478
        3555000	       354	80000480	4174de93	srai	x29,x9,0x17	  x9:0xfffff822 x29=0xffffffff
        3565000	       355	80000484	0080e4b3	or	x9,x1,x8	  x1:0xff00030e  x8:0x8000630e  x9=0xff00630e
        3575000	       356	80000488	00492303	lw	x6,4(x18)	 x18:0x80009eec  x6=0x800068ac PA:0x80009ef0
        3585000	       357	8000048c	0055e4b3	or	x9,x11,x5	 x11:0x92195000  x5:0x4971a000  x9=0xdb79f000
        3595000	       358	80000490	01490913	addi	x18,x18,20	 x18:0x80009eec x18=0x80009f00
        3605000	       359	80000494	4182e517	auipc	x10,0x4182e	 x10=0xc182e490
        3615000	       360	80000498	00260433	add	x8,x12,x2	 x12:0x80009fc4  x2:0x00ffffe0  x8=0x81009fa4
        3625000	       361	8000049c	0118ee33	or	x28,x17,x17	 x17:0xfffffed4 x17:0xfffffed4 x28=0xfffffed4
        3635000	       362	800004a0	bb4ded13	ori	x26,x27,-1100	 x27:0x00000000 x26=0xfffffbb4
        3645000	       363	800004a4	00030413	addi	x8,x6,0	  x6:0x800068ac  x8=0x800068ac
        3655000	       364	800004a8	00040467	jalr	x8,x8,0	  x8:0x800068ac  x8=0x800004a8
        3665000	       365	00000000	00000013	addi	x0,x0,0	  x0:0x00000000
        3675000	       366	800068ac	00000013	addi	x0,x0,0	  x0:0x00000000
        3685000	       367	800068b0	c9160113	addi	x2,x12,-879	 x12:0x80009fc4  x2=0x80009c55
        3695000	       368	800068b4	40ed5a33	sra	x20,x26,x14	 x26:0xfffffbb4 x14:0xfffff9dc x20=0xffffffff
        3705000	       369	800068b8	c2b06a37	lui	x20,0xc2b06	 x20=0xc2b06000
        3715000	       370	800068bc	00206fb3	or	x31,x0,x2	  x0:0x00000000  x2:0x80009c55 x31=0x80009c55
        3725000	       371	800068c0	41200ab3	sub	x21,x0,x18	  x0:0x00000000 x18:0x80009f00 x21=0x7fff6100
        3735000	       372	800068c4	05090013	addi	x0,x18,80	 x18:0x80009f00
        3745000	       373	800068c8	0184c863	blt	x9,x24,800068d8	  x9:0xdb79f000 x24:0x00100013
        3755000	       374	00000000	00000013	addi	x0,x0,0	  x0:0x00000000
        3765000	       375	800068d4	00000013	addi	x0,x0,0	  x0:0x00000000
        3775000	       376	800068d8	b01f936f	jal	x6,800068d8	  x6=0x800068d8
        3785000	       377	00000000	00000013	addi	x0,x0,0	  x0:0x00000000
        3795000	       378	800003d4	00000013	addi	x0,x0,0	  x0:0x00000000
        3805000	       379	800003d8	fec90913	addi	x18,x18,-20	 x18:0x80009f00 x18=0x80009eec
        3815000	       380	800003dc	00a3b533	sltu	x10,x7,x10	  x7:0xfffff81e x10:0xc182e490 x10=0x00000000
        3825000	       381	800003e0	40cb81b3	sub	x3,x23,x12	 x23:0x80006750 x12:0x80009fc4  x3=0xffffc78c
        3835000	       382	800003e4	41265c13	srai	x24,x12,0x12	 x12:0x80009fc4 x24=0xffffe000
        3845000	       383	800003e8	00692223	sw	x6,4(x18)	 x18:0x80009eec  x6:0x800068d8 PA:0x80009ef0
        3855000	       384	800003ec	00ac0e33	add	x28,x24,x10	 x24:0xffffe000 x10:0x00000000 x28=0xffffe000
        3865000	       385	800003f0	40c35193	srai	x3,x6,0xc	  x6:0x800068d8  x3=0xfff80006
        3875000	       386	800003f4	4134de93	srai	x29,x9,0x13	  x9:0xdb79f000 x29=0xfffffb6f
        3885000	       387	800003f8	3e5c8237	lui	x4,0x3e5c8	  x4=0x3e5c8000
        3895000	       388	800003fc	7ad52813	slti	x16,x10,1965	 x10:0x00000000 x16=0x00000001
        3905000	       389	80000400	014fd213	srli	x4,x31,0x14	 x31:0x80009c55  x4=0x00000800
        3915000	       390	80000404	404780b3	sub	x1,x15,x4	 x15:0xefe8c44c  x4:0x00000800  x1=0xefe8bc4c
        3925000	       391	80000408	401a81b3	sub	x3,x21,x1	 x21:0x7fff6100  x1:0xefe8bc4c  x3=0x9016a4b4
        3935000	       392	8000040c	01b0cbb3	xor	x23,x1,x27	  x1:0xefe8bc4c x27:0x00000000 x23=0xefe8bc4c
        3945000	       393	80000410	01c04ab3	xor	x21,x0,x28	  x0:0x00000000 x28:0xffffe000 x21=0xffffe000
        3955000	       394	80000414	008ad113	srli	x2,x21,0x8	 x21:0xffffe000  x2=0x00ffffe0
        3965000	       395	80000418	6d2faf93	slti	x31,x31,1746	 x31:0x80009c55 x31=0x00000001
        3975000	       396	8000041c	00006517	auipc	x10,0x6	 x10=0x80006418
        3985000	       397	80000420	27450513	addi	x10,x10,628	 x10:0x80006418 x10=0x8000668c
        3995000	       398	80000424	24950513	addi	x10,x10,585	 x10:0x8000668c x10=0x800068d5
        4005000	       399	80000428	013b49b3	xor	x19,x22,x19	 x22:0xee526478 x19:0x0d6fc282 x19=0xe33da6fa
        4015000	       400	8000042c	db750367	jalr	x6,x10,-585	 x10:0x800068d5  x6=0x8000042c
        4025000	       401	00000000	00000013	addi	x0,x0,0	  x0:0x00000000
        4035000	       402	8000668c	00000013	addi	x0,x0,0	  x0:0x00000000
        4045000	       403	80006690	0a566197	auipc	x3,0xa566	  x3=0x8a56c68c
        4055000	       404	80006694	fe890913	addi	x18,x18,-24	 x18:0x80009eec x18=0x80009ed4
        4065000	       405	80006698	00a255b3	srl	x11,x4,x10	  x4:0x00000800 x10:0x800068d5 x11=0x00000000
        4075000	       406	8000669c	4971a2b7	lui	x5,0x4971a	  x5=0x4971a000
        4085000	       407	800066a0	81eae393	ori	x7,x21,-2018	 x21:0xffffe000  x7=0xfffff81e
        4095000	       408	800066a4	00692223	sw	x6,4(x18)	 x18:0x80009ed4  x6:0x8000042c PA:0x80009ed8
        4105000	       409	800066a8	c6a7ef93	ori	x31,x15,-918	 x15:0xefe8c44c x31=0xfffffc6e
        4115000	       410	800066ac	00aa11b3	sll	x3,x20,x10	 x20:0xc2b06000 x10:0x800068d5  x3=0x00000000
        4125000	       411	800066b0	012e68b3	or	x17,x28,x18	 x28:0xffffe000 x18:0x80009ed4 x17=0xfffffed4
        4135000	       412	800066b4	01180d33	add	x26,x16,x17	 x16:0x00000001 x17:0xfffffed4 x26=0xfffffed5
        4145000	       413	800066b8	413085b3	sub	x11,x1,x19	  x1:0xefe8bc4c x19:0xe33da6fa x11=0x0cab1552
        4155000	       414	800066bc	001a0463	beq	x20,x1,800066c4	 x20:0xc2b06000  x1:0xefe8bc4c
        4165000	       415	800066c0	00bf0cb3	add	x25,x30,x11	 x30:0xf2903d81 x11:0x0cab1552 x25=0xff3b52d3
        4175000	       416	800066c4	0389f863	bgeu	x19,x24,800066f4	 x19:0xe33da6fa x24:0xffffe000
        4185000	       417	800066c8	01735a33	srl	x20,x6,x23	  x6:0x8000042c x23:0xefe8bc4c x20=0x00080000
        4195000	       418	800066cc	049e9463	bne	x29,x9,80006714	 x29:0xfffffb6f  x9:0xdb79f000
        4205000	       419	00000000	00000013	addi	x0,x0,0	  x0:0x00000000
        4215000	       420	80006710	00000013	addi	x0,x0,0	  x0:0x00000000
        4225000	       421	80006714	0100fcb3	and	x25,x1,x16	  x1:0xefe8bc4c x16:0x00000001 x25=0x00000000
        4235000	       422	80006718	b144ac13	slti	x24,x9,-1260	  x9:0xdb79f000 x24=0x00000001
        4245000	       423	8000671c	002fc0b3	xor	x1,x31,x2	 x31:0xfffffc6e  x2:0x00ffffe0  x1=0xff00038e
        4255000	       424	80006720	cddf6b13	ori	x22,x30,-803	 x30:0xf2903d81 x22=0xfffffddd
        4265000	       425	80006724	00492303	lw	x6,4(x18)	 x18:0x80009ed4  x6=0x8000042c PA:0x80009ed8
        4275000	       426	80006728	019c1e33	sll	x28,x24,x25	 x24:0x00000001 x25:0x00000000 x28=0x00000001
        4285000	       427	8000672c	400b5d13	srai	x26,x22,0x0	 x22:0xfffffddd x26=0xfffffddd
        4295000	       428	80006730	01890913	addi	x18,x18,24	 x18:0x80009ed4 x18=0x80009eec
        4305000	       429	80006734	00cef1b3	and	x3,x29,x12	 x29:0xfffffb6f x12:0x80009fc4  x3=0x80009b44
        4315000	       430	80006738	0035a6b3	slt	x13,x11,x3	 x11:0x0cab1552  x3:0x80009b44 x13=0x00000000
        4325000	       431	8000673c	8222e493	ori	x9,x5,-2014	  x5:0x4971a000  x9=0xfffff822
        4335000	       432	80006740	00b65c13	srli	x24,x12,0xb	 x12:0x80009fc4 x24=0x00100013
        4345000	       433	80006744	010457b3	srl	x15,x8,x16	  x8:0x800004a8 x16:0x00000001 x15=0x40000254
        4355000	       434	80006748	01771ab3	sll	x21,x14,x23	 x14:0xfffff9dc x23:0xefe8bc4c x21=0xff9dc000
        4365000	       435	8000674c	00030b93	addi	x23,x6,0	  x6:0x8000042c x23=0x8000042c
        4375000	       436	80006750	000b8be7	jalr	x23,x23,0	 x23:0x8000042c x23=0x80006750
        4385000	       437	00000000	00000013	addi	x0,x0,0	  x0:0x00000000
        4395000	       438	8000042c	00000013	addi	x0,x0,0	  x0:0x00000000
        4405000	       439	80000430	921955b7	lui	x11,0x92195	 x11=0x92195000
        4415000	       440	80000434	01fc9e13	slli	x28,x25,0x1f	 x25:0x00000000 x28=0x00000000
        4425000	       441	80000438	6d49ee93	ori	x29,x19,1748	 x19:0xe33da6fa x29=0xe33da6fe
        4435000	       442	8000043c	0145f6b3	and	x13,x11,x20	 x11:0x92195000 x20:0x00080000 x13=0x00080000
        4445000	       443	80000440	010f9733	sll	x14,x31,x16	 x31:0xfffffc6e x16:0x00000001 x14=0xfffff8dc
        4455000	       444	80000444	418cd513	srai	x10,x25,0x18	 x25:0x00000000 x10=0x00000000
        4465000	       445	80000448	c467a313	slti	x6,x15,-954	 x15:0x40000254  x6=0x00000000
        4475000	       446	8000044c	41f3d513	srai	x10,x7,0x1f	  x7:0xfffff81e x10=0xffffffff
        4485000	       447	80000450	6fe8c797	auipc	x15,0x6fe8c	 x15=0xefe8c44c
        4495000	       448	80000454	8570a193	slti	x3,x1,-1961	  x1:0xff00038e  x3=0x00000001
        4505000	       449	80000458	02ed1263	bne	x26,x14,8000047c	 x26:0xfffffddd x14:0xfffff8dc
        4515000	       450	00000000	00000013	addi	x0,x0,0	  x0:0x00000000
        4525000	       451	80000478	00000013	addi	x0,x0,0	  x0:0x00000000
        4535000	       452	8000047c	6e526b17	auipc	x22,0x6e526	 x22=0xee526478
        4545000	       453	80000480	4174de93	srai	x29,x9,0x17	  x9:0xfffff822 x29=0xffffffff
        4555000	       454	80000484	0080e4b3	or	x9,x1,x8	  x1:0xff00038e  x8:0x800004a8  x9=0xff0007ae
        4565000	       455	80000488	00492303	lw	x6,4(x18)	 x18:0x80009eec  x6=0x800068d8 PA:0x80009ef0
        4575000	       456	8000048c	0055e4b3	or	x9,x11,x5	 x11:0x92195000  x5:0x4971a000  x9=0xdb79f000
        4585000	       457	80000490	01490913	addi	x18,x18,20	 x18:0x80009eec x18=0x80009f00
        4595000	       458	80000494	4182e517	auipc	x10,0x4182e	 x10=0xc182e490
        4605000	       459	80000498	00260433	add	x8,x12,x2	 x12:0x80009fc4  x2:0x00ffffe0  x8=0x81009fa4
        4615000	       460	8000049c	0118ee33	or	x28,x17,x17	 x17:0xfffffed4 x17:0xfffffed4 x28=0xfffffed4
        4625000	       461	800004a0	bb4ded13	ori	x26,x27,-1100	 x27:0x00000000 x26=0xfffffbb4
        4635000	       462	800004a4	00030413	addi	x8,x6,0	  x6:0x800068d8  x8=0x800068d8
        4645000	       463	800004a8	00040467	jalr	x8,x8,0	  x8:0x800068d8  x8=0x800004a8
        4655000	       464	00000000	00000013	addi	x0,x0,0	  x0:0x00000000
        4665000	       465	800068d8	00000013	addi	x0,x0,0	  x0:0x00000000
        4675000	       466	800068dc	00002117	auipc	x2,0x2	  x2=0x800088d8
        4685000	       467	800068e0	21a10113	addi	x2,x2,538	  x2:0x800088d8  x2=0x80008af2
        4695000	       468	800068e4	07d10703	lb	x14,125(x2)	  x2:0x80008af2 x14=0xffffff8d PA:0x80008b6f
        4705000	       469	800068e8	e22b4713	xori	x14,x22,-478	 x22:0xee526478 x14=0x11ad9a5a
        4715000	       470	800068ec	01fd1a13	slli	x20,x26,0x1f	 x26:0xfffffbb4 x20=0x00000000
        4725000	       471	800068f0	06811823	sh	x8,112(x2)	  x2:0x80008af2  x8:0x800004a8 PA:0x80008b62
        4735000	       472	800068f4	00a12d83	lw	x27,10(x2)	  x2:0x80008af2 x27=0x13ffd239 PA:0x80008afc
        4745000	       473	800068f8	6a336213	ori	x4,x6,1699	  x6:0x800068d8  x4=0x80006efb
        4755000	       474	800068fc	02612d23	sw	x6,58(x2)	  x2:0x80008af2  x6:0x800068d8 PA:0x80008b2c
        4765000	       475	80006900	fcd102a3	sb	x13,-59(x2)	  x2:0x80008af2 x13:0x00080000 PA:0x80008ab7
        4775000	       476	80006904	41eed593	srai	x11,x29,0x1e	 x29:0xffffffff x11=0xffffffff
        4785000	       477	80006908	fd015c03	lhu	x24,-48(x2)	  x2:0x80008af2 x24=0x0000d0f8 PA:0x80008ac2
        4795000	       478	8000690c	01d642b3	xor	x5,x12,x29	 x12:0x80009fc4 x29:0xffffffff  x5=0x7fff603b
        4805000	       479	80006910	00000013	addi	x0,x0,0	  x0:0x00000000
        4815000	       480	80006914	01910e83	lb	x29,25(x2)	  x2:0x80008af2 x29=0x00000013 PA:0x80008b0b
        4825000	       481	80006918	00212183	lw	x3,2(x2)	  x2:0x80008af2  x3=0x3c7e4f6c PA:0x80008af4
        4835000	       482	8000691c	9af0aa13	slti	x20,x1,-1617	  x1:0xff00038e x20=0x00000001
        4845000	       483	80006920	fd212003	lw	x0,-46(x2)	  x2:0x80008af2 PA:0x80008ac4
        4855000	       484	80006924	fd3108a3	sb	x19,-47(x2)	  x2:0x80008af2 x19:0xe33da6fa PA:0x80008ac3
        4865000	       485	80006928	41b7dab3	sra	x21,x15,x27	 x15:0xefe8c44c x27:0x13ffd239 x21=0xfffffff7
        4875000	       486	8000692c	0a710d83	lb	x27,167(x2)	  x2:0x80008af2 x27=0x0000005a PA:0x80008b99
        4885000	       487	80006930	419b5a93	srai	x21,x22,0x19	 x22:0xee526478 x21=0xfffffff7
        4895000	       488	80006934	065107a3	sb	x5,111(x2)	  x2:0x80008af2  x5:0x7fff603b PA:0x80008b61
        4905000	       489	80006938	413a5a33	sra	x20,x20,x19	 x20:0x00000001 x19:0xe33da6fa x20=0x00000000
        4915000	       490	8000693c	014ed3b3	srl	x7,x29,x20	 x29:0x00000013 x20:0x00000000  x7=0x00000013
        4925000	       491	80006940	bce80a13	addi	x20,x16,-1074	 x16:0x00000001 x20=0xfffffbcf
        4935000	       492	80006944	03711023	sh	x23,32(x2)	  x2:0x80008af2 x23:0x80006750 PA:0x80008b12
        4945000	       493	80006948	fea10683	lb	x13,-22(x2)	  x2:0x80008af2 x13=0xffffffea PA:0x80008adc
        4955000	       494	8000694c	01a10203	lb	x4,26(x2)	  x2:0x80008af2  x4=0xffffff97 PA:0x80008b0c
        4965000	       495	80006950	05312323	sw	x19,70(x2)	  x2:0x80008af2 x19:0xe33da6fa PA:0x80008b38
        4975000	       496	80006954	08110c03	lb	x24,129(x2)	  x2:0x80008af2 x24=0x00000040 PA:0x80008b73
        4985000	       497	80006958	00d01eb3	sll	x29,x0,x13	  x0:0x00000000 x13:0xffffffea x29=0x00000000
        4995000	       498	8000695c	018adfb3	srl	x31,x21,x24	 x21:0xfffffff7 x24:0x00000040 x31=0xfffffff7
        5005000	       499	80006960	6faad737	lui	x14,0x6faad	 x14=0x6faad000
        5015000	       500	80006964	016b8663	beq	x23,x22,80006970	 x23:0x80006750 x22:0xee526478
        5025000	       501	80006968	41f1ddb3	sra	x27,x3,x31	  x3:0x3c7e4f6c x31:0xfffffff7 x27=0x00000078
        5035000	       502	8000696c	0cf4c797	auipc	x15,0xcf4c	 x15=0x8cf52968
        5045000	       503	80006970	851baa93	slti	x21,x23,-1967	 x23:0x80006750 x21=0x00000001
        5055000	       504	80006974	01199433	sll	x8,x19,x17	 x19:0xe33da6fa x17:0xfffffed4  x8=0x6fa00000
        5065000	       505	80006978	00000013	addi	x0,x0,0	  x0:0x00000000
        5075000	       506	8000697c	00481033	sll	x0,x16,x4	 x16:0x00000001  x4:0xffffff97
        5085000	       507	80006980	004f5a93	srli	x21,x30,0x4	 x30:0xf2903d81 x21=0x0f2903d8
        5095000	       508	80006984	02a99263	bne	x19,x10,800069a8	 x19:0xe33da6fa x10:0xc182e490
        5105000	       509	00000000	00000013	addi	x0,x0,0	  x0:0x00000000
        5115000	       510	800069a4	00000013	addi	x0,x0,0	  x0:0x00000000
        5125000	       511	800069a8	0225f063	bgeu	x11,x2,800069c8	 x11:0xffffffff  x2:0x80008af2
        5135000	       512	00000000	00000013	addi	x0,x0,0	  x0:0x00000000
        5145000	       513	800069c4	00000013	addi	x0,x0,0	  x0:0x00000000
        5155000	       514	800069c8	0331f063	bgeu	x3,x19,800069e8	  x3:0x3c7e4f6c x19:0xe33da6fa
        5165000	       515	800069cc	eb00b513	sltiu	x10,x1,-336	  x1:0xff00038e x10=0x00000001
        5175000	       516	800069d0	b86ac093	xori	x1,x21,-1146	 x21:0x0f2903d8  x1=0xf0d6f85e
        5185000	       517	800069d4	b2e70113	addi	x2,x14,-1234	 x14:0x6faad000  x2=0x6faacb2e
        5195000	       518	800069d8	00602533	slt	x10,x0,x6	  x0:0x00000000  x6:0x800068d8 x10=0x00000000
        5205000	       519	800069dc	b0ab4693	xori	x13,x22,-1270	 x22:0xee526478 x13=0x11ad9f72
        5215000	       520	800069e0	69504d13	xori	x26,x0,1685	  x0:0x00000000 x26=0x00000695
        5225000	       521	800069e4	d030ca13	xori	x20,x1,-765	  x1:0xf0d6f85e x20=0x0f29055d
        5235000	       522	800069e8	7770b813	sltiu	x16,x1,1911	  x1:0xf0d6f85e x16=0x00000000
        5245000	       523	800069ec	00000013	addi	x0,x0,0	  x0:0x00000000
        5255000	       524	800069f0	00f99e13	slli	x28,x19,0xf	 x19:0xe33da6fa x28=0xd37d0000
        5265000	       525	800069f4	01518533	add	x10,x3,x21	  x3:0x3c7e4f6c x21:0x0f2903d8 x10=0x4ba75344
        5275000	       526	800069f8	00ef5c33	srl	x24,x30,x14	 x30:0xf2903d81 x14:0x6faad000 x24=0xf2903d81
        5285000	       527	800069fc	0e52fcb7	lui	x25,0xe52f	 x25=0x0e52f000
        5295000	       528	80006a00	b5601c97	auipc	x25,0xb5601	 x25=0x356079fc
        5305000	       529	80006a04	01755d33	srl	x26,x10,x23	 x10:0x4ba75344 x23:0x80006750 x26=0x00004ba7
        5315000	       530	80006a08	01809533	sll	x10,x1,x24	  x1:0xf0d6f85e x24:0xf2903d81 x10=0xe1adf0bc
        5325000	       531	80006a0c	095cec93	ori	x25,x25,149	 x25:0x356079fc x25=0x356079fd
        5335000	       532	80006a10	f6ff6b13	ori	x22,x30,-145	 x30:0xf2903d81 x22=0xffffffef
        5345000	       533	80006a14	012d6ab3	or	x21,x26,x18	 x26:0x00004ba7 x18:0x80009f00 x21=0x8000dfa7
        5355000	       534	80006a18	00e8fc63	bgeu	x17,x14,80006a30	 x17:0xfffffed4 x14:0x6faad000
        5365000	       535	00000000	00000013	addi	x0,x0,0	  x0:0x00000000
        5375000	       536	80006a2c	00000013	addi	x0,x0,0	  x0:0x00000000
        5385000	       537	80006a30	81e7ae13	slti	x28,x15,-2018	 x15:0x8cf52968 x28=0x00000001
        5395000	       538	80006a34	a0e16a93	ori	x21,x2,-1522	  x2:0x6faacb2e x21=0xfffffb2e
        5405000	       539	80006a38	03ea6063	bltu	x20,x30,80006a58	 x20:0x0f29055d x30:0xf2903d81
        5415000	       540	00000000	00000013	addi	x0,x0,0	  x0:0x00000000
        5425000	       541	80006a54	00000013	addi	x0,x0,0	  x0:0x00000000
        5435000	       542	80006a58	c7102793	slti	x15,x0,-911	  x0:0x00000000 x15=0x00000000
        5445000	       543	80006a5c	40905593	srai	x11,x0,0x9	  x0:0x00000000 x11=0x00000000
        5455000	       544	80006a60	01349863	bne	x9,x19,80006a70	  x9:0xdb79f000 x19:0xe33da6fa
        5465000	       545	00000000	00000013	addi	x0,x0,0	  x0:0x00000000
        5475000	       546	80006a6c	00000013	addi	x0,x0,0	  x0:0x00000000
        5485000	       547	80006a70	01403cb3	sltu	x25,x0,x20	  x0:0x00000000 x20:0x0f29055d x25=0x00000001
        5495000	       548	80006a74	4097dbb3	sra	x23,x15,x9	 x15:0x00000000  x9:0xdb79f000 x23=0x00000000
        5505000	       549	80006a78	013f6833	or	x16,x30,x19	 x30:0xf2903d81 x19:0xe33da6fa x16=0xf3bdbffb
        5515000	       550	80006a7c	f8740693	addi	x13,x8,-121	  x8:0x6fa00000 x13=0x6f9fff87
        5525000	       551	80006a80	00cfd8b3	srl	x17,x31,x12	 x31:0xfffffff7 x12:0x80009fc4 x17=0x0fffffff
        5535000	       552	80006a84	0349e263	bltu	x19,x20,80006aa8	 x19:0xe33da6fa x20:0x0f29055d
        5545000	       553	80006a88	048d1863	bne	x26,x8,80006ad8	 x26:0x00004ba7  x8:0x6fa00000
        5555000	       554	00000000	00000013	addi	x0,x0,0	  x0:0x00000000
        5565000	       555	80006ad4	00000013	addi	x0,x0,0	  x0:0x00000000
        5575000	       556	80006ad8	014b4733	xor	x14,x22,x20	 x22:0xffffffef x20:0x0f29055d x14=0xf0d6fab2
        5585000	       557	80006adc	01a15713	srli	x14,x2,0x1a	  x2:0x6faacb2e x14=0x0000001b
        5595000	       558	80006ae0	05c37263	bgeu	x6,x28,80006b24	  x6:0x800068d8 x28:0x00000001
        5605000	       559	00000000	00000013	addi	x0,x0,0	  x0:0x00000000
        5615000	       560	80006b20	00000013	addi	x0,x0,0	  x0:0x00000000
        5625000	       561	80006b24	1c13f837	lui	x16,0x1c13f	 x16=0x1c13f000
        5635000	       562	80006b28	01b04863	blt	x0,x27,80006b38	  x0:0x00000000 x27:0x00000078
        5645000	       563	00000000	00000013	addi	x0,x0,0	  x0:0x00000000
        5655000	       564	80006b34	00000013	addi	x0,x0,0	  x0:0x00000000
        5665000	       565	80006b38	0cb12c93	slti	x25,x2,203	  x2:0x6faacb2e x25=0x00000000
        5675000	       566	80006b3c	0058bab3	sltu	x21,x17,x5	 x17:0x0fffffff  x5:0x7fff603b x21=0x00000001
        5685000	       567	80006b40	00191e33	sll	x28,x18,x1	 x18:0x80009f00  x1:0xf0d6f85e x28=0x00000000
        5695000	       568	80006b44	037cc063	blt	x25,x23,80006b64	 x25:0x00000000 x23:0x00000000
        5705000	       569	80006b48	6013cd93	xori	x27,x7,1537	  x7:0x00000013 x27=0x00000612
        5715000	       570	80006b4c	01c58333	add	x6,x11,x28	 x11:0x00000000 x28:0x00000000  x6=0x00000000
        5725000	       571	80006b50	001c1513	slli	x10,x24,0x1	 x24:0xf2903d81 x10=0xe5207b02
        5735000	       572	80006b54	02f8d263	bge	x17,x15,80006b78	 x17:0x0fffffff x15:0x00000000
        5745000	       573	00000000	00000013	addi	x0,x0,0	  x0:0x00000000
        5755000	       574	80006b74	00000013	addi	x0,x0,0	  x0:0x00000000
        5765000	       575	80006b78	01c3b5b3	sltu	x11,x7,x28	  x7:0x00000013 x28:0x00000000 x11=0x00000000
        5775000	       576	80006b7c	29697c93	andi	x25,x18,662	 x18:0x80009f00 x25=0x00000200
        5785000	       577	80006b80	00f35eb3	srl	x29,x6,x15	  x6:0x00000000 x15:0x00000000 x29=0x00000000
        5795000	       578	80006b84	05c31063	bne	x6,x28,80006bc4	  x6:0x00000000 x28:0x00000000
        5805000	       579	80006b88	0012c6b3	xor	x13,x5,x1	  x5:0x7fff603b  x1:0xf0d6f85e x13=0x8f299865
        5815000	       580	80006b8c	00000013	addi	x0,x0,0	  x0:0x00000000
        5825000	       581	80006b90	00b72d33	slt	x26,x14,x11	 x14:0x0000001b x11:0x00000000 x26=0x00000000
        5835000	       582	80006b94	0057c263	blt	x15,x5,80006b98	 x15:0x00000000  x5:0x7fff603b
        5845000	       583	00000000	00000013	addi	x0,x0,0	  x0:0x00000000
        5855000	       584	80006b94	00000013	addi	x0,x0,0	  x0:0x00000000
        5865000	       585	80006b98	1e76ba93	sltiu	x21,x13,487	 x13:0x8f299865 x21=0x00000000
        5875000	       586	80006b9c	01cd5133	srl	x2,x26,x28	 x26:0x00000000 x28:0x00000000  x2=0x00000000
        5885000	       587	80006ba0	00221793	slli	x15,x4,0x2	  x4:0xffffff97 x15=0xfffffe5c
        5895000	       588	80006ba4	9ffb6b13	ori	x22,x22,-1537	 x22:0xffffffef x22=0xffffffff
        5905000	       589	80006ba8	62d18b93	addi	x23,x3,1581	  x3:0x3c7e4f6c x23=0x3c7e5599
        5915000	       590	80006bac	94d26993	ori	x19,x4,-1715	  x4:0xffffff97 x19=0xffffffdf
        5925000	       591	80006bb0	011e5263	bge	x28,x17,80006bb4	 x28:0x00000000 x17:0x0fffffff
        5935000	       592	80006bb4	04010663	beq	x2,x0,80006c00	  x2:0x00000000  x0:0x00000000
        5945000	       593	00000000	00000013	addi	x0,x0,0	  x0:0x00000000
        5955000	       594	80006bfc	00000013	addi	x0,x0,0	  x0:0x00000000
        5965000	       595	80006c00	016161b3	or	x3,x2,x22	  x2:0x00000000 x22:0xffffffff  x3=0xffffffff
        5975000	       596	80006c04	40e85ab3	sra	x21,x16,x14	 x16:0x1c13f000 x14:0x0000001b x21=0x00000003
        5985000	       597	80006c08	01600e63	beq	x0,x22,80006c24	  x0:0x00000000 x22:0xffffffff
        5995000	       598	80006c0c	a0dad097	auipc	x1,0xa0dad	  x1=0x20db3c08
        6005000	       599	80006c10	01a51e63	bne	x10,x26,80006c2c	 x10:0xe5207b02 x26:0x00000000
        6015000	       600	00000000	00000013	addi	x0,x0,0	  x0:0x00000000
        6025000	       601	80006c28	00000013	addi	x0,x0,0	  x0:0x00000000
        6035000	       602	80006c2c	01d573b3	and	x7,x10,x29	 x10:0xe5207b02 x29:0x00000000  x7=0x00000000
        6045000	       603	80006c30	01694863	blt	x18,x22,80006c40	 x18:0x80009f00 x22:0xffffffff
        6055000	       604	00000000	00000013	addi	x0,x0,0	  x0:0x00000000
        6065000	       605	80006c3c	00000013	addi	x0,x0,0	  x0:0x00000000
        6075000	       606	80006c40	ec292313	slti	x6,x18,-318	 x18:0x80009f00  x6=0x00000001
        6085000	       607	80006c44	00e61093	slli	x1,x12,0xe	 x12:0x80009fc4  x1=0x27f10000
        6095000	       608	80006c48	003f7db3	and	x27,x30,x3	 x30:0xf2903d81  x3:0xffffffff x27=0xf2903d81
        6105000	       609	80006c4c	ffb46b37	lui	x22,0xffb46	 x22=0xffb46000
        6115000	       610	80006c50	3a922313	slti	x6,x4,937	  x4:0xffffff97  x6=0x00000001
        6125000	       611	80006c54	002ecab3	xor	x21,x29,x2	 x29:0x00000000  x2:0x00000000 x21=0x00000000
        6135000	       612	80006c58	5e91fe93	andi	x29,x3,1513	  x3:0xffffffff x29=0x000005e9
        6145000	       613	80006c5c	00492303	lw	x6,4(x18)	 x18:0x80009f00  x6=0x80000500 PA:0x80009f04
        6155000	       614	80006c60	a52e4593	xori	x11,x28,-1454	 x28:0x00000000 x11=0xfffffa52
        6165000	       615	80006c64	008e6bb3	or	x23,x28,x8	 x28:0x00000000  x8:0x6fa00000 x23=0x6fa00000
        6175000	       616	80006c68	01143eb3	sltu	x29,x8,x17	  x8:0x6fa00000 x17:0x0fffffff x29=0x00000000
        6185000	       617	80006c6c	00b8da33	srl	x20,x17,x11	 x17:0x0fffffff x11:0xfffffa52 x20=0x000003ff
        6195000	       618	80006c70	00c90913	addi	x18,x18,12	 x18:0x80009f00 x18=0x80009f0c
        6205000	       619	80006c74	01969b13	slli	x22,x13,0x19	 x13:0x8f299865 x22=0xca000000
        6215000	       620	80006c78	42486013	ori	x0,x16,1060	 x16:0x1c13f000
        6225000	       621	80006c7c	00030793	addi	x15,x6,0	  x6:0x80000500 x15=0x80000500
        6235000	       622	80006c80	000787e7	jalr	x15,x15,0	 x15:0x80000500 x15=0x80006c80
        6245000	       623	00000000	00000013	addi	x0,x0,0	  x0:0x00000000
        6255000	       624	80000500	00000013	addi	x0,x0,0	  x0:0x00000000
        6265000	       625	80000504	41c90533	sub	x10,x18,x28	 x18:0x80009f0c x28:0x00000000 x10=0x80009f0c
        6275000	       626	80000508	ed272593	slti	x11,x14,-302	 x14:0x0000001b x11=0x00000000
        6285000	       627	8000050c	41acd233	sra	x4,x25,x26	 x25:0x00000200 x26:0x00000000  x4=0x00000200
        6295000	       628	80000510	009c1db3	sll	x27,x24,x9	 x24:0xf2903d81  x9:0xdb79f000 x27=0xf2903d81
        6305000	       629	80000514	00c77263	bgeu	x14,x12,80000518	 x14:0x0000001b x12:0x80009fc4
        6315000	       630	80000518	01b634b3	sltu	x9,x12,x27	 x12:0x80009fc4 x27:0xf2903d81  x9=0x00000001
        6325000	       631	8000051c	08cfc537	lui	x10,0x8cfc	 x10=0x08cfc000
        6335000	       632	80000520	0122ecb3	or	x25,x5,x18	  x5:0x7fff603b x18:0x80009f0c x25=0xffffff3f
        6345000	       633	80000524	01826e33	or	x28,x4,x24	  x4:0x00000200 x24:0xf2903d81 x28=0xf2903f81
        6355000	       634	80000528	002cdc33	srl	x24,x25,x2	 x25:0xffffff3f  x2:0x00000000 x24=0xffffff3f
        6365000	       635	8000052c	7578a537	lui	x10,0x7578a	 x10=0x7578a000
        6375000	       636	80000530	00489733	sll	x14,x17,x4	 x17:0x0fffffff  x4:0x00000200 x14=0x0fffffff
        6385000	       637	80000534	007fc463	blt	x31,x7,8000053c	 x31:0xfffffff7  x7:0x00000000
        6395000	       638	00000000	00000013	addi	x0,x0,0	  x0:0x00000000
        6405000	       639	80000538	00000013	addi	x0,x0,0	  x0:0x00000000
        6415000	       640	8000053c	41795d93	srai	x27,x18,0x17	 x18:0x80009f0c x27=0xffffff00
        6425000	       641	80000540	010861b3	or	x3,x16,x16	 x16:0x1c13f000 x16:0x1c13f000  x3=0x1c13f000
        6435000	       642	80000544	01fdd0b3	srl	x1,x27,x31	 x27:0xffffff00 x31:0xfffffff7  x1=0x000001ff
        6445000	       643	80000548	00492303	lw	x6,4(x18)	 x18:0x80009f0c  x6=0x80000998 PA:0x80009f10
        6455000	       644	8000054c	01cf6033	or	x0,x30,x28	 x30:0xf2903d81 x28:0xf2903f81
        6465000	       645	80000550	02c90913	addi	x18,x18,44	 x18:0x80009f0c x18=0x80009f38
        6475000	       646	80000554	a1054b93	xori	x23,x10,-1520	 x10:0x7578a000 x23=0x8a875a10
        6485000	       647	80000558	00d072b3	and	x5,x0,x13	  x0:0x00000000 x13:0x8f299865  x5=0x00000000
        6495000	       648	8000055c	278bb813	sltiu	x16,x23,632	 x23:0x8a875a10 x16=0x00000000
        6505000	       649	80000560	00130d13	addi	x26,x6,1	  x6:0x80000998 x26=0x80000999
        6515000	       650	80000564	000d0d67	jalr	x26,x26,0	 x26:0x80000999 x26=0x80000564
        6525000	       651	00000000	00000013	addi	x0,x0,0	  x0:0x00000000
        6535000	       652	80000998	00000013	addi	x0,x0,0	  x0:0x00000000
        6545000	       653	8000099c	00000717	auipc	x14,0x0	 x14=0x80000998
        6555000	       654	800009a0	e3070713	addi	x14,x14,-464	 x14:0x80000998 x14=0x800007c8
        6565000	       655	800009a4	40c1d213	srai	x4,x3,0xc	  x3:0x1c13f000  x4=0x0001c13f
        6575000	       656	800009a8	019c36b3	sltu	x13,x24,x25	 x24:0xffffff3f x25:0xffffff3f x13=0x00000000
        6585000	       657	800009ac	00ec2533	slt	x10,x24,x14	 x24:0xffffff3f x14:0x800007c8 x10=0x00000000
        6595000	       658	800009b0	d1370713	addi	x14,x14,-749	 x14:0x800007c8 x14=0x800004db
        6605000	       659	800009b4	01f76233	or	x4,x14,x31	 x14:0x800004db x31:0xfffffff7  x4=0xffffffff
        6615000	       660	800009b8	008d3333	sltu	x6,x26,x8	 x26:0x80000564  x8:0x6fa00000  x6=0x00000000
        6625000	       661	800009bc	ad7bca93	xori	x21,x23,-1321	 x23:0x8a875a10 x21=0x7578a0c7
        6635000	       662	800009c0	2ee70367	jalr	x6,x14,750	 x14:0x800004db  x6=0x800009c0
        6645000	       663	00000000	00000013	addi	x0,x0,0	  x0:0x00000000
        6655000	       664	800007c8	00000013	addi	x0,x0,0	  x0:0x00000000
        6665000	       665	800007cc	012ef6b3	and	x13,x29,x18	 x29:0x00000000 x18:0x80009f38 x13=0x00000000
        6675000	       666	800007d0	fdc90913	addi	x18,x18,-36	 x18:0x80009f38 x18=0x80009f14
        6685000	       667	800007d4	008b6033	or	x0,x22,x8	 x22:0xca000000  x8:0x6fa00000
        6695000	       668	800007d8	003a4ab3	xor	x21,x20,x3	 x20:0x000003ff  x3:0x1c13f000 x21=0x1c13f3ff
        6705000	       669	800007dc	00b76eb3	or	x29,x14,x11	 x14:0x800004db x11:0x00000000 x29=0x800004db
        6715000	       670	800007e0	f4f46c13	ori	x24,x8,-177	  x8:0x6fa00000 x24=0xffffff4f
        6725000	       671	800007e4	00692223	sw	x6,4(x18)	 x18:0x80009f14  x6:0x800009c0 PA:0x80009f18
        6735000	       672	800007e8	bce13f93	sltiu	x31,x2,-1074	  x2:0x00000000 x31=0x00000001
        6745000	       673	800007ec	40d254b3	sra	x9,x4,x13	  x4:0xffffffff x13:0x00000000  x9=0xffffffff
        6755000	       674	800007f0	40735cb3	sra	x25,x6,x7	  x6:0x800009c0  x7:0x00000000 x25=0x800009c0
        6765000	       675	800007f4	409b06b3	sub	x13,x22,x9	 x22:0xca000000  x9:0xffffffff x13=0xca000001
        6775000	       676	800007f8	01e5de63	bge	x11,x30,80000814	 x11:0x00000000 x30:0xf2903d81
        6785000	       677	00000000	00000013	addi	x0,x0,0	  x0:0x00000000
        6795000	       678	80000810	00000013	addi	x0,x0,0	  x0:0x00000000
        6805000	       679	80000814	b181c293	xori	x5,x3,-1256	  x3:0x1c13f000  x5=0xe3ec0b18
        6815000	       680	80000818	0133e133	or	x2,x7,x19	  x7:0x00000000 x19:0xffffffdf  x2=0xffffffdf
        6825000	       681	8000081c	05b94263	blt	x18,x27,80000860	 x18:0x80009f14 x27:0xffffff00
        6835000	       682	00000000	00000013	addi	x0,x0,0	  x0:0x00000000
        6845000	       683	8000085c	00000013	addi	x0,x0,0	  x0:0x00000000
        6855000	       684	80000860	010f7c33	and	x24,x30,x16	 x30:0xf2903d81 x16:0x00000000 x24=0x00000000
        6865000	       685	80000864	01c33433	sltu	x8,x6,x28	  x6:0x800009c0 x28:0xf2903f81  x8=0x00000001
        6875000	       686	80000868	00537db3	and	x27,x6,x5	  x6:0x800009c0  x5:0xe3ec0b18 x27=0x80000900
        6885000	       687	8000086c	01959013	slli	x0,x11,0x19	 x11:0x00000000
        6895000	       688	80000870	000f29b3	slt	x19,x30,x0	 x30:0xf2903d81  x0:0x00000000 x19=0x00000001
        6905000	       689	80000874	b8252d93	slti	x27,x10,-1150	 x10:0x00000000 x27=0x00000000
        6915000	       690	80000878	b7beeb93	ori	x23,x29,-1157	 x29:0x800004db x23=0xfffffffb
        6925000	       691	8000087c	400a5e33	sra	x28,x20,x0	 x20:0x000003ff  x0:0x00000000 x28=0x000003ff
        6935000	       692	80000880	53063993	sltiu	x19,x12,1328	 x12:0x80009fc4 x19=0x00000000
        6945000	       693	80000884	41978333	sub	x6,x15,x25	 x15:0x80006c80 x25:0x800009c0  x6=0x000062c0
        6955000	       694	80000888	65a3ef93	ori	x31,x7,1626	  x7:0x00000000 x31=0x0000065a
        6965000	       695	8000088c	b58fb793	sltiu	x15,x31,-1192	 x31:0x0000065a x15=0x00000001
        6975000	       696	80000890	7a90536f	jal	x6,80000890	  x6=0x80000890
        6985000	       697	00000000	00000013	addi	x0,x0,0	  x0:0x00000000
        6995000	       698	80006834	00000013	addi	x0,x0,0	  x0:0x00000000
        7005000	       699	80006838	00481693	slli	x13,x16,0x4	 x16:0x00000000 x13=0x00000000
        7015000	       700	8000683c	00dc3ab3	sltu	x21,x24,x13	 x24:0x00000000 x13:0x00000000 x21=0x00000000
        7025000	       701	80006840	00000013	addi	x0,x0,0	  x0:0x00000000
        7035000	       702	80006844	ff490913	addi	x18,x18,-12	 x18:0x80009f14 x18=0x80009f08
        7045000	       703	80006848	00692223	sw	x6,4(x18)	 x18:0x80009f08  x6:0x80000890 PA:0x80009f0c
        7055000	       704	8000684c	01367db3	and	x27,x12,x19	 x12:0x80009fc4 x19:0x00000000 x27=0x00000000
        7065000	       705	80006850	013e1333	sll	x6,x28,x19	 x28:0x000003ff x19:0x00000000  x6=0x000003ff
        7075000	       706	80006854	41380ab3	sub	x21,x16,x19	 x16:0x00000000 x19:0x00000000 x21=0x00000000
        7085000	       707	80006858	00e8abb3	slt	x23,x17,x14	 x17:0x0fffffff x14:0x800004db x23=0x00000000
        7095000	       708	8000685c	fb9134b7	lui	x9,0xfb913	  x9=0xfb913000
        7105000	       709	80006860	00966eb3	or	x29,x12,x9	 x12:0x80009fc4  x9:0xfb913000 x29=0xfb91bfc4
        7115000	       710	80006864	0147cc63	blt	x15,x20,8000687c	 x15:0x00000001 x20:0x000003ff
        7125000	       711	00000000	00000013	addi	x0,x0,0	  x0:0x00000000
        7135000	       712	80006878	00000013	addi	x0,x0,0	  x0:0x00000000
        7145000	       713	8000687c	ed9ff36f	jal	x6,8000687c	  x6=0x8000687c
        7155000	       714	00000000	00000013	addi	x0,x0,0	  x0:0x00000000
        7165000	       715	80006750	00000013	addi	x0,x0,0	  x0:0x00000000
        7175000	       716	80006754	011d5463	bge	x26,x17,8000675c	 x26:0x80000564 x17:0x0fffffff
        7185000	       717	80006758	00e50ab3	add	x21,x10,x14	 x10:0x00000000 x14:0x800004db x21=0x800004db
        7195000	       718	8000675c	fd890913	addi	x18,x18,-40	 x18:0x80009f08 x18=0x80009ee0
        7205000	       719	80006760	012a42b3	xor	x5,x20,x18	 x20:0x000003ff x18:0x80009ee0  x5=0x80009d1f
        7215000	       720	80006764	011f64b3	or	x9,x30,x17	 x30:0xf2903d81 x17:0x0fffffff  x9=0xffffffff
        7225000	       721	80006768	00b272b3	and	x5,x4,x11	  x4:0xffffffff x11:0x00000000  x5=0x00000000
        7235000	       722	8000676c	3d616a93	ori	x21,x2,982	  x2:0xffffffdf x21=0xffffffdf
        7245000	       723	80006770	f7d52793	slti	x15,x10,-131	 x10:0x00000000 x15=0x00000000
        7255000	       724	80006774	5273c113	xori	x2,x7,1319	  x7:0x00000000  x2=0x00000527
        7265000	       725	80006778	00692223	sw	x6,4(x18)	 x18:0x80009ee0  x6:0x8000687c PA:0x80009ee4
        7275000	       726	8000677c	01bbccb3	xor	x25,x23,x27	 x23:0x00000000 x27:0x00000000 x25=0x00000000
        7285000	       727	80006780	00b542b3	xor	x5,x10,x11	 x10:0x00000000 x11:0x00000000  x5=0x00000000
        7295000	       728	80006784	00cc6833	or	x16,x24,x12	 x24:0x00000000 x12:0x80009fc4 x16=0x80009fc4
        7305000	       729	80006788	0073d513	srli	x10,x7,0x7	  x7:0x00000000 x10=0x00000000
        7315000	       730	8000678c	00000417	auipc	x8,0x0	  x8=0x80006788
        7325000	       731	80006790	f0440413	addi	x8,x8,-252	  x8:0x80006788  x8=0x8000668c
        7335000	       732	80006794	00b01d93	slli	x27,x0,0xb	  x0:0x00000000 x27=0x00000000
        7345000	       733	80006798	00e87bb3	and	x23,x16,x14	 x16:0x80009fc4 x14:0x800004db x23=0x800004c0
        7355000	       734	8000679c	c8240413	addi	x8,x8,-894	  x8:0x8000668c  x8=0x8000630e
        7365000	       735	800067a0	41a75313	srai	x6,x14,0x1a	 x14:0x800004db  x6=0xffffffe0
        7375000	       736	800067a4	37f40367	jalr	x6,x8,895	  x8:0x8000630e  x6=0x800067a4
        7385000	       737	00000000	00000013	addi	x0,x0,0	  x0:0x00000000
        7395000	       738	8000668c	00000013	addi	x0,x0,0	  x0:0x00000000
        7405000	       739	80006690	0a566197	auipc	x3,0xa566	  x3=0x8a56c68c
        7415000	       740	80006694	fe890913	addi	x18,x18,-24	 x18:0x80009ee0 x18=0x80009ec8
        7425000	       741	80006698	00a255b3	srl	x11,x4,x10	  x4:0xffffffff x10:0x00000000 x11=0xffffffff
        7435000	       742	8000669c	4971a2b7	lui	x5,0x4971a	  x5=0x4971a000
        7445000	       743	800066a0	81eae393	ori	x7,x21,-2018	 x21:0xffffffdf  x7=0xffffffdf
        7455000	       744	800066a4	00692223	sw	x6,4(x18)	 x18:0x80009ec8  x6:0x800067a4 PA:0x80009ecc
        7465000	       745	800066a8	c6a7ef93	ori	x31,x15,-918	 x15:0x00000000 x31=0xfffffc6a
        7475000	       746	800066ac	00aa11b3	sll	x3,x20,x10	 x20:0x000003ff x10:0x00000000  x3=0x000003ff
        7485000	       747	800066b0	012e68b3	or	x17,x28,x18	 x28:0x000003ff x18:0x80009ec8 x17=0x80009fff
        7495000	       748	800066b4	01180d33	add	x26,x16,x17	 x16:0x80009fc4 x17:0x80009fff x26=0x00013fc3
        7505000	       749	800066b8	413085b3	sub	x11,x1,x19	  x1:0x000001ff x19:0x00000000 x11=0x000001ff
        7515000	       750	800066bc	001a0463	beq	x20,x1,800066c4	 x20:0x000003ff  x1:0x000001ff
        7525000	       751	800066c0	00bf0cb3	add	x25,x30,x11	 x30:0xf2903d81 x11:0x000001ff x25=0xf2903f80
        7535000	       752	800066c4	0389f863	bgeu	x19,x24,800066f4	 x19:0x00000000 x24:0x00000000
        7545000	       753	00000000	00000013	addi	x0,x0,0	  x0:0x00000000
        7555000	       754	800066f0	00000013	addi	x0,x0,0	  x0:0x00000000
        7565000	       755	800066f4	2e172193	slti	x3,x14,737	 x14:0x800004db  x3=0x00000001
        7575000	       756	800066f8	02f17463	bgeu	x2,x15,80006720	  x2:0x00000527 x15:0x00000000
        7585000	       757	00000000	00000013	addi	x0,x0,0	  x0:0x00000000
        7595000	       758	8000671c	00000013	addi	x0,x0,0	  x0:0x00000000
        7605000	       759	80006720	cddf6b13	ori	x22,x30,-803	 x30:0xf2903d81 x22=0xfffffddd
        7615000	       760	80006724	00492303	lw	x6,4(x18)	 x18:0x80009ec8  x6=0x800067a4 PA:0x80009ecc
        7625000	       761	80006728	019c1e33	sll	x28,x24,x25	 x24:0x00000000 x25:0xf2903f80 x28=0x00000000
        7635000	       762	8000672c	400b5d13	srai	x26,x22,0x0	 x22:0xfffffddd x26=0xfffffddd
        7645000	       763	80006730	01890913	addi	x18,x18,24	 x18:0x80009ec8 x18=0x80009ee0
        7655000	       764	80006734	00cef1b3	and	x3,x29,x12	 x29:0xfb91bfc4 x12:0x80009fc4  x3=0x80009fc4
        7665000	       765	80006738	0035a6b3	slt	x13,x11,x3	 x11:0x000001ff  x3:0x80009fc4 x13=0x00000000
        7675000	       766	8000673c	8222e493	ori	x9,x5,-2014	  x5:0x4971a000  x9=0xfffff822
        7685000	       767	80006740	00b65c13	srli	x24,x12,0xb	 x12:0x80009fc4 x24=0x00100013
        7695000	       768	80006744	010457b3	srl	x15,x8,x16	  x8:0x8000630e x16:0x80009fc4 x15=0x08000630
        7705000	       769	80006748	01771ab3	sll	x21,x14,x23	 x14:0x800004db x23:0x800004c0 x21=0x800004db
        7715000	       770	8000674c	00030b93	addi	x23,x6,0	  x6:0x800067a4 x23=0x800067a4
        7725000	       771	80006750	000b8be7	jalr	x23,x23,0	 x23:0x800067a4 x23=0x80006750
        7735000	       772	00000000	00000013	addi	x0,x0,0	  x0:0x00000000
        7745000	       773	800067a4	00000013	addi	x0,x0,0	  x0:0x00000000
        7755000	       774	800067a8	000c7a63	bgeu	x24,x0,800067bc	 x24:0x00100013  x0:0x00000000
        7765000	       775	00000000	00000013	addi	x0,x0,0	  x0:0x00000000
        7775000	       776	800067b8	00000013	addi	x0,x0,0	  x0:0x00000000
        7785000	       777	800067bc	00239293	slli	x5,x7,0x2	  x7:0xffffffdf  x5=0xffffff7c
        7795000	       778	800067c0	84f17a37	lui	x20,0x84f17	 x20=0x84f17000
        7805000	       779	800067c4	04ccc063	blt	x25,x12,80006804	 x25:0xf2903f80 x12:0x80009fc4
        7815000	       780	800067c8	0535f893	andi	x17,x11,83	 x11:0x000001ff x17=0x00000053
        7825000	       781	800067cc	d093cc93	xori	x25,x7,-759	  x7:0xffffffdf x25=0x000002d6
        7835000	       782	800067d0	0598e063	bltu	x17,x25,80006810	 x17:0x00000053 x25:0x000002d6
        7845000	       783	00000000	00000013	addi	x0,x0,0	  x0:0x00000000
        7855000	       784	8000680c	00000013	addi	x0,x0,0	  x0:0x00000000
        7865000	       785	80006810	00b54233	xor	x4,x10,x11	 x10:0x00000000 x11:0x000001ff  x4=0x000001ff
        7875000	       786	80006814	00492303	lw	x6,4(x18)	 x18:0x80009ee0  x6=0x8000687c PA:0x80009ee4
        7885000	       787	80006818	00000013	addi	x0,x0,0	  x0:0x00000000
        7895000	       788	8000681c	02890913	addi	x18,x18,40	 x18:0x80009ee0 x18=0x80009f08
        7905000	       789	80006820	010ba033	slt	x0,x23,x16	 x23:0x80006750 x16:0x80009fc4
        7915000	       790	80006824	00551d93	slli	x27,x10,0x5	 x10:0x00000000 x27=0x00000000
        7925000	       791	80006828	f0ab0f93	addi	x31,x22,-246	 x22:0xfffffddd x31=0xfffffce7
        7935000	       792	8000682c	014c74b3	and	x9,x24,x20	 x24:0x00100013 x20:0x84f17000  x9=0x00100000
        7945000	       793	80006830	00130193	addi	x3,x6,1	  x6:0x8000687c  x3=0x8000687d
        7955000	       794	80006834	000181e7	jalr	x3,x3,0	  x3:0x8000687d  x3=0x80006834
        7965000	       795	00000000	00000013	addi	x0,x0,0	  x0:0x00000000
        7975000	       796	8000687c	00000013	addi	x0,x0,0	  x0:0x00000000
        7985000	       797	80006880	01da4b33	xor	x22,x20,x29	 x20:0x84f17000 x29:0xfb91bfc4 x22=0x7f60cfc4
        7995000	       798	80006884	00679693	slli	x13,x15,0x6	 x15:0x08000630 x13=0x00018c00
        8005000	       799	80006888	ffffaf97	auipc	x31,0xffffa	 x31=0x80000884
        8015000	       800	8000688c	b50f8f93	addi	x31,x31,-1200	 x31:0x80000884 x31=0x800003d4
        8025000	       801	80006890	e5674c13	xori	x24,x14,-426	 x14:0x800004db x24=0x7ffffa8d
        8035000	       802	80006894	1407bb13	sltiu	x22,x15,320	 x15:0x08000630 x22=0x00000000
        8045000	       803	80006898	e54f8f93	addi	x31,x31,-428	 x31:0x800003d4 x31=0x80000228
        8055000	       804	8000689c	018b86b3	add	x13,x23,x24	 x23:0x80006750 x24:0x7ffffa8d x13=0x000061dd
        8065000	       805	800068a0	f6d6dc17	auipc	x24,0xf6d6d	 x24=0x76d7389c
        8075000	       806	800068a4	9cb58a93	addi	x21,x11,-1589	 x11:0x000001ff x21=0xfffffbca
        8085000	       807	800068a8	ecb93c13	sltiu	x24,x18,-309	 x18:0x80009f08 x24=0x00000001
        8095000	       808	800068ac	1adf8367	jalr	x6,x31,429	 x31:0x80000228  x6=0x800068ac
        8105000	       809	00000000	00000013	addi	x0,x0,0	  x0:0x00000000
        8115000	       810	800003d4	00000013	addi	x0,x0,0	  x0:0x00000000
        8125000	       811	800003d8	fec90913	addi	x18,x18,-20	 x18:0x80009f08 x18=0x80009ef4
        8135000	       812	800003dc	00a3b533	sltu	x10,x7,x10	  x7:0xffffffdf x10:0x00000000 x10=0x00000000
        8145000	       813	800003e0	40cb81b3	sub	x3,x23,x12	 x23:0x80006750 x12:0x80009fc4  x3=0xffffc78c
        8155000	       814	800003e4	41265c13	srai	x24,x12,0x12	 x12:0x80009fc4 x24=0xffffe000
        8165000	       815	800003e8	00692223	sw	x6,4(x18)	 x18:0x80009ef4  x6:0x800068ac PA:0x80009ef8
        8175000	       816	800003ec	00ac0e33	add	x28,x24,x10	 x24:0xffffe000 x10:0x00000000 x28=0xffffe000
        8185000	       817	800003f0	40c35193	srai	x3,x6,0xc	  x6:0x800068ac  x3=0xfff80006
        8195000	       818	800003f4	4134de93	srai	x29,x9,0x13	  x9:0x00100000 x29=0x00000002
        8205000	       819	800003f8	3e5c8237	lui	x4,0x3e5c8	  x4=0x3e5c8000
        8215000	       820	800003fc	7ad52813	slti	x16,x10,1965	 x10:0x00000000 x16=0x00000001
        8225000	       821	80000400	014fd213	srli	x4,x31,0x14	 x31:0x80000228  x4=0x00000800
        8235000	       822	80000404	404780b3	sub	x1,x15,x4	 x15:0x08000630  x4:0x00000800  x1=0x07fffe30
        8245000	       823	80000408	401a81b3	sub	x3,x21,x1	 x21:0xfffffbca  x1:0x07fffe30  x3=0xf7fffd9a
        8255000	       824	8000040c	01b0cbb3	xor	x23,x1,x27	  x1:0x07fffe30 x27:0x00000000 x23=0x07fffe30
        8265000	       825	80000410	01c04ab3	xor	x21,x0,x28	  x0:0x00000000 x28:0xffffe000 x21=0xffffe000
        8275000	       826	80000414	008ad113	srli	x2,x21,0x8	 x21:0xffffe000  x2=0x00ffffe0
        8285000	       827	80000418	6d2faf93	slti	x31,x31,1746	 x31:0x80000228 x31=0x00000001
        8295000	       828	8000041c	00006517	auipc	x10,0x6	 x10=0x80006418
        8305000	       829	80000420	27450513	addi	x10,x10,628	 x10:0x80006418 x10=0x8000668c
        8315000	       830	80000424	24950513	addi	x10,x10,585	 x10:0x8000668c x10=0x800068d5
        8325000	       831	80000428	013b49b3	xor	x19,x22,x19	 x22:0x00000000 x19:0x00000000 x19=0x00000000
        8335000	       832	8000042c	db750367	jalr	x6,x10,-585	 x10:0x800068d5  x6=0x8000042c
        8345000	       833	00000000	00000013	addi	x0,x0,0	  x0:0x00000000
        8355000	       834	8000668c	00000013	addi	x0,x0,0	  x0:0x00000000
        8365000	       835	80006690	0a566197	auipc	x3,0xa566	  x3=0x8a56c68c
        8375000	       836	80006694	fe890913	addi	x18,x18,-24	 x18:0x80009ef4 x18=0x80009edc
        8385000	       837	80006698	00a255b3	srl	x11,x4,x10	  x4:0x00000800 x10:0x800068d5 x11=0x00000000
        8395000	       838	8000669c	4971a2b7	lui	x5,0x4971a	  x5=0x4971a000
        8405000	       839	800066a0	81eae393	ori	x7,x21,-2018	 x21:0xffffe000  x7=0xfffff81e
        8415000	       840	800066a4	00692223	sw	x6,4(x18)	 x18:0x80009edc  x6:0x8000042c PA:0x80009ee0
        8425000	       841	800066a8	c6a7ef93	ori	x31,x15,-918	 x15:0x08000630 x31=0xfffffe7a
        8435000	       842	800066ac	00aa11b3	sll	x3,x20,x10	 x20:0x84f17000 x10:0x800068d5  x3=0x00000000
        8445000	       843	800066b0	012e68b3	or	x17,x28,x18	 x28:0xffffe000 x18:0x80009edc x17=0xfffffedc
        8455000	       844	800066b4	01180d33	add	x26,x16,x17	 x16:0x00000001 x17:0xfffffedc x26=0xfffffedd
        8465000	       845	800066b8	413085b3	sub	x11,x1,x19	  x1:0x07fffe30 x19:0x00000000 x11=0x07fffe30
        8475000	       846	800066bc	001a0463	beq	x20,x1,800066c4	 x20:0x84f17000  x1:0x07fffe30
        8485000	       847	800066c0	00bf0cb3	add	x25,x30,x11	 x30:0xf2903d81 x11:0x07fffe30 x25=0xfa903bb1
        8495000	       848	800066c4	0389f863	bgeu	x19,x24,800066f4	 x19:0x00000000 x24:0xffffe000
        8505000	       849	800066c8	01735a33	srl	x20,x6,x23	  x6:0x8000042c x23:0x07fffe30 x20=0x00008000
        8515000	       850	800066cc	049e9463	bne	x29,x9,80006714	 x29:0x00000002  x9:0x00100000
        8525000	       851	00000000	00000013	addi	x0,x0,0	  x0:0x00000000
        8535000	       852	80006710	00000013	addi	x0,x0,0	  x0:0x00000000
        8545000	       853	80006714	0100fcb3	and	x25,x1,x16	  x1:0x07fffe30 x16:0x00000001 x25=0x00000000
        8555000	       854	80006718	b144ac13	slti	x24,x9,-1260	  x9:0x00100000 x24=0x00000000
        8565000	       855	8000671c	002fc0b3	xor	x1,x31,x2	 x31:0xfffffe7a  x2:0x00ffffe0  x1=0xff00019a
        8575000	       856	80006720	cddf6b13	ori	x22,x30,-803	 x30:0xf2903d81 x22=0xfffffddd
        8585000	       857	80006724	00492303	lw	x6,4(x18)	 x18:0x80009edc  x6=0x8000042c PA:0x80009ee0
        8595000	       858	80006728	019c1e33	sll	x28,x24,x25	 x24:0x00000000 x25:0x00000000 x28=0x00000000
        8605000	       859	8000672c	400b5d13	srai	x26,x22,0x0	 x22:0xfffffddd x26=0xfffffddd
        8615000	       860	80006730	01890913	addi	x18,x18,24	 x18:0x80009edc x18=0x80009ef4
        8625000	       861	80006734	00cef1b3	and	x3,x29,x12	 x29:0x00000002 x12:0x80009fc4  x3=0x00000000
        8635000	       862	80006738	0035a6b3	slt	x13,x11,x3	 x11:0x07fffe30  x3:0x00000000 x13=0x00000000
        8645000	       863	8000673c	8222e493	ori	x9,x5,-2014	  x5:0x4971a000  x9=0xfffff822
        8655000	       864	80006740	00b65c13	srli	x24,x12,0xb	 x12:0x80009fc4 x24=0x00100013
        8665000	       865	80006744	010457b3	srl	x15,x8,x16	  x8:0x8000630e x16:0x00000001 x15=0x40003187
        8675000	       866	80006748	01771ab3	sll	x21,x14,x23	 x14:0x800004db x23:0x07fffe30 x21=0x04db0000
        8685000	       867	8000674c	00030b93	addi	x23,x6,0	  x6:0x8000042c x23=0x8000042c
        8695000	       868	80006750	000b8be7	jalr	x23,x23,0	 x23:0x8000042c x23=0x80006750
        8705000	       869	00000000	00000013	addi	x0,x0,0	  x0:0x00000000
        8715000	       870	8000042c	00000013	addi	x0,x0,0	  x0:0x00000000
        8725000	       871	80000430	921955b7	lui	x11,0x92195	 x11=0x92195000
        8735000	       872	80000434	01fc9e13	slli	x28,x25,0x1f	 x25:0x00000000 x28=0x00000000
        8745000	       873	80000438	6d49ee93	ori	x29,x19,1748	 x19:0x00000000 x29=0x000006d4
        8755000	       874	8000043c	0145f6b3	and	x13,x11,x20	 x11:0x92195000 x20:0x00008000 x13=0x00000000
        8765000	       875	80000440	010f9733	sll	x14,x31,x16	 x31:0xfffffe7a x16:0x00000001 x14=0xfffffcf4
        8775000	       876	80000444	418cd513	srai	x10,x25,0x18	 x25:0x00000000 x10=0x00000000
        8785000	       877	80000448	c467a313	slti	x6,x15,-954	 x15:0x40003187  x6=0x00000000
        8795000	       878	8000044c	41f3d513	srai	x10,x7,0x1f	  x7:0xfffff81e x10=0xffffffff
        8805000	       879	80000450	6fe8c797	auipc	x15,0x6fe8c	 x15=0xefe8c44c
        8815000	       880	80000454	8570a193	slti	x3,x1,-1961	  x1:0xff00019a  x3=0x00000001
        8825000	       881	80000458	02ed1263	bne	x26,x14,8000047c	 x26:0xfffffddd x14:0xfffffcf4
        8835000	       882	00000000	00000013	addi	x0,x0,0	  x0:0x00000000
        8845000	       883	80000478	00000013	addi	x0,x0,0	  x0:0x00000000
        8855000	       884	8000047c	6e526b17	auipc	x22,0x6e526	 x22=0xee526478
        8865000	       885	80000480	4174de93	srai	x29,x9,0x17	  x9:0xfffff822 x29=0xffffffff
        8875000	       886	80000484	0080e4b3	or	x9,x1,x8	  x1:0xff00019a  x8:0x8000630e  x9=0xff00639e
        8885000	       887	80000488	00492303	lw	x6,4(x18)	 x18:0x80009ef4  x6=0x800068ac PA:0x80009ef8
        8895000	       888	8000048c	0055e4b3	or	x9,x11,x5	 x11:0x92195000  x5:0x4971a000  x9=0xdb79f000
        8905000	       889	80000490	01490913	addi	x18,x18,20	 x18:0x80009ef4 x18=0x80009f08
        8915000	       890	80000494	4182e517	auipc	x10,0x4182e	 x10=0xc182e490
        8925000	       891	80000498	00260433	add	x8,x12,x2	 x12:0x80009fc4  x2:0x00ffffe0  x8=0x81009fa4
        8935000	       892	8000049c	0118ee33	or	x28,x17,x17	 x17:0xfffffedc x17:0xfffffedc x28=0xfffffedc
        8945000	       893	800004a0	bb4ded13	ori	x26,x27,-1100	 x27:0x00000000 x26=0xfffffbb4
        8955000	       894	800004a4	00030413	addi	x8,x6,0	  x6:0x800068ac  x8=0x800068ac
        8965000	       895	800004a8	00040467	jalr	x8,x8,0	  x8:0x800068ac  x8=0x800004a8
        8975000	       896	00000000	00000013	addi	x0,x0,0	  x0:0x00000000
        8985000	       897	800068ac	00000013	addi	x0,x0,0	  x0:0x00000000
        8995000	       898	800068b0	c9160113	addi	x2,x12,-879	 x12:0x80009fc4  x2=0x80009c55
        9005000	       899	800068b4	40ed5a33	sra	x20,x26,x14	 x26:0xfffffbb4 x14:0xfffffcf4 x20=0xffffffff
        9015000	       900	800068b8	c2b06a37	lui	x20,0xc2b06	 x20=0xc2b06000
        9025000	       901	800068bc	00206fb3	or	x31,x0,x2	  x0:0x00000000  x2:0x80009c55 x31=0x80009c55
        9035000	       902	800068c0	41200ab3	sub	x21,x0,x18	  x0:0x00000000 x18:0x80009f08 x21=0x7fff60f8
        9045000	       903	800068c4	05090013	addi	x0,x18,80	 x18:0x80009f08
        9055000	       904	800068c8	0184c863	blt	x9,x24,800068d8	  x9:0xdb79f000 x24:0x00100013
        9065000	       905	00000000	00000013	addi	x0,x0,0	  x0:0x00000000
        9075000	       906	800068d4	00000013	addi	x0,x0,0	  x0:0x00000000
        9085000	       907	800068d8	b01f936f	jal	x6,800068d8	  x6=0x800068d8
        9095000	       908	00000000	00000013	addi	x0,x0,0	  x0:0x00000000
        9105000	       909	800003d4	00000013	addi	x0,x0,0	  x0:0x00000000
        9115000	       910	800003d8	fec90913	addi	x18,x18,-20	 x18:0x80009f08 x18=0x80009ef4
        9125000	       911	800003dc	00a3b533	sltu	x10,x7,x10	  x7:0xfffff81e x10:0xc182e490 x10=0x00000000
        9135000	       912	800003e0	40cb81b3	sub	x3,x23,x12	 x23:0x80006750 x12:0x80009fc4  x3=0xffffc78c
        9145000	       913	800003e4	41265c13	srai	x24,x12,0x12	 x12:0x80009fc4 x24=0xffffe000
        9155000	       914	800003e8	00692223	sw	x6,4(x18)	 x18:0x80009ef4  x6:0x800068d8 PA:0x80009ef8
        9165000	       915	800003ec	00ac0e33	add	x28,x24,x10	 x24:0xffffe000 x10:0x00000000 x28=0xffffe000
        9175000	       916	800003f0	40c35193	srai	x3,x6,0xc	  x6:0x800068d8  x3=0xfff80006
        9185000	       917	800003f4	4134de93	srai	x29,x9,0x13	  x9:0xdb79f000 x29=0xfffffb6f
        9195000	       918	800003f8	3e5c8237	lui	x4,0x3e5c8	  x4=0x3e5c8000
        9205000	       919	800003fc	7ad52813	slti	x16,x10,1965	 x10:0x00000000 x16=0x00000001
        9215000	       920	80000400	014fd213	srli	x4,x31,0x14	 x31:0x80009c55  x4=0x00000800
        9225000	       921	80000404	404780b3	sub	x1,x15,x4	 x15:0xefe8c44c  x4:0x00000800  x1=0xefe8bc4c
        9235000	       922	80000408	401a81b3	sub	x3,x21,x1	 x21:0x7fff60f8  x1:0xefe8bc4c  x3=0x9016a4ac
        9245000	       923	8000040c	01b0cbb3	xor	x23,x1,x27	  x1:0xefe8bc4c x27:0x00000000 x23=0xefe8bc4c
        9255000	       924	80000410	01c04ab3	xor	x21,x0,x28	  x0:0x00000000 x28:0xffffe000 x21=0xffffe000
        9265000	       925	80000414	008ad113	srli	x2,x21,0x8	 x21:0xffffe000  x2=0x00ffffe0
        9275000	       926	80000418	6d2faf93	slti	x31,x31,1746	 x31:0x80009c55 x31=0x00000001
        9285000	       927	8000041c	00006517	auipc	x10,0x6	 x10=0x80006418
        9295000	       928	80000420	27450513	addi	x10,x10,628	 x10:0x80006418 x10=0x8000668c
        9305000	       929	80000424	24950513	addi	x10,x10,585	 x10:0x8000668c x10=0x800068d5
        9315000	       930	80000428	013b49b3	xor	x19,x22,x19	 x22:0xee526478 x19:0x00000000 x19=0xee526478
        9325000	       931	8000042c	db750367	jalr	x6,x10,-585	 x10:0x800068d5  x6=0x8000042c
        9335000	       932	00000000	00000013	addi	x0,x0,0	  x0:0x00000000
        9345000	       933	8000668c	00000013	addi	x0,x0,0	  x0:0x00000000
        9355000	       934	80006690	0a566197	auipc	x3,0xa566	  x3=0x8a56c68c
        9365000	       935	80006694	fe890913	addi	x18,x18,-24	 x18:0x80009ef4 x18=0x80009edc
        9375000	       936	80006698	00a255b3	srl	x11,x4,x10	  x4:0x00000800 x10:0x800068d5 x11=0x00000000
        9385000	       937	8000669c	4971a2b7	lui	x5,0x4971a	  x5=0x4971a000
        9395000	       938	800066a0	81eae393	ori	x7,x21,-2018	 x21:0xffffe000  x7=0xfffff81e
        9405000	       939	800066a4	00692223	sw	x6,4(x18)	 x18:0x80009edc  x6:0x8000042c PA:0x80009ee0
        9415000	       940	800066a8	c6a7ef93	ori	x31,x15,-918	 x15:0xefe8c44c x31=0xfffffc6e
        9425000	       941	800066ac	00aa11b3	sll	x3,x20,x10	 x20:0xc2b06000 x10:0x800068d5  x3=0x00000000
        9435000	       942	800066b0	012e68b3	or	x17,x28,x18	 x28:0xffffe000 x18:0x80009edc x17=0xfffffedc
        9445000	       943	800066b4	01180d33	add	x26,x16,x17	 x16:0x00000001 x17:0xfffffedc x26=0xfffffedd
        9455000	       944	800066b8	413085b3	sub	x11,x1,x19	  x1:0xefe8bc4c x19:0xee526478 x11=0x019657d4
        9465000	       945	800066bc	001a0463	beq	x20,x1,800066c4	 x20:0xc2b06000  x1:0xefe8bc4c
        9475000	       946	800066c0	00bf0cb3	add	x25,x30,x11	 x30:0xf2903d81 x11:0x019657d4 x25=0xf4269555
        9485000	       947	800066c4	0389f863	bgeu	x19,x24,800066f4	 x19:0xee526478 x24:0xffffe000
        9495000	       948	800066c8	01735a33	srl	x20,x6,x23	  x6:0x8000042c x23:0xefe8bc4c x20=0x00080000
        9505000	       949	800066cc	049e9463	bne	x29,x9,80006714	 x29:0xfffffb6f  x9:0xdb79f000
        9515000	       950	00000000	00000013	addi	x0,x0,0	  x0:0x00000000
        9525000	       951	80006710	00000013	addi	x0,x0,0	  x0:0x00000000
        9535000	       952	80006714	0100fcb3	and	x25,x1,x16	  x1:0xefe8bc4c x16:0x00000001 x25=0x00000000
        9545000	       953	80006718	b144ac13	slti	x24,x9,-1260	  x9:0xdb79f000 x24=0x00000001
        9555000	       954	8000671c	002fc0b3	xor	x1,x31,x2	 x31:0xfffffc6e  x2:0x00ffffe0  x1=0xff00038e
        9565000	       955	80006720	cddf6b13	ori	x22,x30,-803	 x30:0xf2903d81 x22=0xfffffddd
        9575000	       956	80006724	00492303	lw	x6,4(x18)	 x18:0x80009edc  x6=0x8000042c PA:0x80009ee0
        9585000	       957	80006728	019c1e33	sll	x28,x24,x25	 x24:0x00000001 x25:0x00000000 x28=0x00000001
        9595000	       958	8000672c	400b5d13	srai	x26,x22,0x0	 x22:0xfffffddd x26=0xfffffddd
        9605000	       959	80006730	01890913	addi	x18,x18,24	 x18:0x80009edc x18=0x80009ef4
        9615000	       960	80006734	00cef1b3	and	x3,x29,x12	 x29:0xfffffb6f x12:0x80009fc4  x3=0x80009b44
        9625000	       961	80006738	0035a6b3	slt	x13,x11,x3	 x11:0x019657d4  x3:0x80009b44 x13=0x00000000
        9635000	       962	8000673c	8222e493	ori	x9,x5,-2014	  x5:0x4971a000  x9=0xfffff822
        9645000	       963	80006740	00b65c13	srli	x24,x12,0xb	 x12:0x80009fc4 x24=0x00100013
        9655000	       964	80006744	010457b3	srl	x15,x8,x16	  x8:0x800004a8 x16:0x00000001 x15=0x40000254
        9665000	       965	80006748	01771ab3	sll	x21,x14,x23	 x14:0xfffffcf4 x23:0xefe8bc4c x21=0xffcf4000
        9675000	       966	8000674c	00030b93	addi	x23,x6,0	  x6:0x8000042c x23=0x8000042c
        9685000	       967	80006750	000b8be7	jalr	x23,x23,0	 x23:0x8000042c x23=0x80006750
        9695000	       968	00000000	00000013	addi	x0,x0,0	  x0:0x00000000
        9705000	       969	8000042c	00000013	addi	x0,x0,0	  x0:0x00000000
        9715000	       970	80000430	921955b7	lui	x11,0x92195	 x11=0x92195000
        9725000	       971	80000434	01fc9e13	slli	x28,x25,0x1f	 x25:0x00000000 x28=0x00000000
        9735000	       972	80000438	6d49ee93	ori	x29,x19,1748	 x19:0xee526478 x29=0xee5266fc
        9745000	       973	8000043c	0145f6b3	and	x13,x11,x20	 x11:0x92195000 x20:0x00080000 x13=0x00080000
        9755000	       974	80000440	010f9733	sll	x14,x31,x16	 x31:0xfffffc6e x16:0x00000001 x14=0xfffff8dc
        9765000	       975	80000444	418cd513	srai	x10,x25,0x18	 x25:0x00000000 x10=0x00000000
        9775000	       976	80000448	c467a313	slti	x6,x15,-954	 x15:0x40000254  x6=0x00000000
        9785000	       977	8000044c	41f3d513	srai	x10,x7,0x1f	  x7:0xfffff81e x10=0xffffffff
        9795000	       978	80000450	6fe8c797	auipc	x15,0x6fe8c	 x15=0xefe8c44c
        9805000	       979	80000454	8570a193	slti	x3,x1,-1961	  x1:0xff00038e  x3=0x00000001
        9815000	       980	80000458	02ed1263	bne	x26,x14,8000047c	 x26:0xfffffddd x14:0xfffff8dc
        9825000	       981	00000000	00000013	addi	x0,x0,0	  x0:0x00000000
        9835000	       982	80000478	00000013	addi	x0,x0,0	  x0:0x00000000
        9845000	       983	8000047c	6e526b17	auipc	x22,0x6e526	 x22=0xee526478
        9855000	       984	80000480	4174de93	srai	x29,x9,0x17	  x9:0xfffff822 x29=0xffffffff
        9865000	       985	80000484	0080e4b3	or	x9,x1,x8	  x1:0xff00038e  x8:0x800004a8  x9=0xff0007ae
        9875000	       986	80000488	00492303	lw	x6,4(x18)	 x18:0x80009ef4  x6=0x800068d8 PA:0x80009ef8
        9885000	       987	8000048c	0055e4b3	or	x9,x11,x5	 x11:0x92195000  x5:0x4971a000  x9=0xdb79f000
        9895000	       988	80000490	01490913	addi	x18,x18,20	 x18:0x80009ef4 x18=0x80009f08
        9905000	       989	80000494	4182e517	auipc	x10,0x4182e	 x10=0xc182e490
        9915000	       990	80000498	00260433	add	x8,x12,x2	 x12:0x80009fc4  x2:0x00ffffe0  x8=0x81009fa4
        9925000	       991	8000049c	0118ee33	or	x28,x17,x17	 x17:0xfffffedc x17:0xfffffedc x28=0xfffffedc
        9935000	       992	800004a0	bb4ded13	ori	x26,x27,-1100	 x27:0x00000000 x26=0xfffffbb4
        9945000	       993	800004a4	00030413	addi	x8,x6,0	  x6:0x800068d8  x8=0x800068d8
        9955000	       994	800004a8	00040467	jalr	x8,x8,0	  x8:0x800068d8  x8=0x800004a8
        9965000	       995	00000000	00000013	addi	x0,x0,0	  x0:0x00000000
        9975000	       996	800068d8	00000013	addi	x0,x0,0	  x0:0x00000000
        9985000	       997	800068dc	00002117	auipc	x2,0x2	  x2=0x800088d8
        9995000	       998	800068e0	21a10113	addi	x2,x2,538	  x2:0x800088d8  x2=0x80008af2
       10005000	       999	800068e4	07d10703	lb	x14,125(x2)	  x2:0x80008af2 x14=0xffffff8d PA:0x80008b6f
       10015000	      1000	800068e8	e22b4713	xori	x14,x22,-478	 x22:0xee526478 x14=0x11ad9a5a
       10025000	      1001	800068ec	01fd1a13	slli	x20,x26,0x1f	 x26:0xfffffbb4 x20=0x00000000
       10035000	      1002	800068f0	06811823	sh	x8,112(x2)	  x2:0x80008af2  x8:0x800004a8 PA:0x80008b62
       10045000	      1003	800068f4	00a12d83	lw	x27,10(x2)	  x2:0x80008af2 x27=0x13ffd239 PA:0x80008afc
       10055000	      1004	800068f8	6a336213	ori	x4,x6,1699	  x6:0x800068d8  x4=0x80006efb
       10065000	      1005	800068fc	02612d23	sw	x6,58(x2)	  x2:0x80008af2  x6:0x800068d8 PA:0x80008b2c
       10075000	      1006	80006900	fcd102a3	sb	x13,-59(x2)	  x2:0x80008af2 x13:0x00080000 PA:0x80008ab7
       10085000	      1007	80006904	41eed593	srai	x11,x29,0x1e	 x29:0xffffffff x11=0xffffffff
       10095000	      1008	80006908	fd015c03	lhu	x24,-48(x2)	  x2:0x80008af2 x24=0x0000faf8 PA:0x80008ac2
       10105000	      1009	8000690c	01d642b3	xor	x5,x12,x29	 x12:0x80009fc4 x29:0xffffffff  x5=0x7fff603b
       10115000	      1010	80006910	00000013	addi	x0,x0,0	  x0:0x00000000
       10125000	      1011	80006914	01910e83	lb	x29,25(x2)	  x2:0x80008af2 x29=0x00000013 PA:0x80008b0b
       10135000	      1012	80006918	00212183	lw	x3,2(x2)	  x2:0x80008af2  x3=0x3c7e4f6c PA:0x80008af4
       10145000	      1013	8000691c	9af0aa13	slti	x20,x1,-1617	  x1:0xff00038e x20=0x00000001
       10155000	      1014	80006920	fd212003	lw	x0,-46(x2)	  x2:0x80008af2 PA:0x80008ac4
       10165000	      1015	80006924	fd3108a3	sb	x19,-47(x2)	  x2:0x80008af2 x19:0xee526478 PA:0x80008ac3
       10175000	      1016	80006928	41b7dab3	sra	x21,x15,x27	 x15:0xefe8c44c x27:0x13ffd239 x21=0xfffffff7
       10185000	      1017	8000692c	0a710d83	lb	x27,167(x2)	  x2:0x80008af2 x27=0x0000005a PA:0x80008b99
       10195000	      1018	80006930	419b5a93	srai	x21,x22,0x19	 x22:0xee526478 x21=0xfffffff7
       10205000	      1019	80006934	065107a3	sb	x5,111(x2)	  x2:0x80008af2  x5:0x7fff603b PA:0x80008b61
       10215000	      1020	80006938	413a5a33	sra	x20,x20,x19	 x20:0x00000001 x19:0xee526478 x20=0x00000000
       10225000	      1021	8000693c	014ed3b3	srl	x7,x29,x20	 x29:0x00000013 x20:0x00000000  x7=0x00000013
       10235000	      1022	80006940	bce80a13	addi	x20,x16,-1074	 x16:0x00000001 x20=0xfffffbcf
       10245000	      1023	80006944	03711023	sh	x23,32(x2)	  x2:0x80008af2 x23:0x80006750 PA:0x80008b12
       10255000	      1024	80006948	fea10683	lb	x13,-22(x2)	  x2:0x80008af2 x13=0xffffffea PA:0x80008adc
       10265000	      1025	8000694c	01a10203	lb	x4,26(x2)	  x2:0x80008af2  x4=0xffffff97 PA:0x80008b0c
       10275000	      1026	80006950	05312323	sw	x19,70(x2)	  x2:0x80008af2 x19:0xee526478 PA:0x80008b38
       10285000	      1027	80006954	08110c03	lb	x24,129(x2)	  x2:0x80008af2 x24=0x00000040 PA:0x80008b73
       10295000	      1028	80006958	00d01eb3	sll	x29,x0,x13	  x0:0x00000000 x13:0xffffffea x29=0x00000000
       10305000	      1029	8000695c	018adfb3	srl	x31,x21,x24	 x21:0xfffffff7 x24:0x00000040 x31=0xfffffff7
       10315000	      1030	80006960	6faad737	lui	x14,0x6faad	 x14=0x6faad000
       10325000	      1031	80006964	016b8663	beq	x23,x22,80006970	 x23:0x80006750 x22:0xee526478
       10335000	      1032	80006968	41f1ddb3	sra	x27,x3,x31	  x3:0x3c7e4f6c x31:0xfffffff7 x27=0x00000078
       10345000	      1033	8000696c	0cf4c797	auipc	x15,0xcf4c	 x15=0x8cf52968
       10355000	      1034	80006970	851baa93	slti	x21,x23,-1967	 x23:0x80006750 x21=0x00000001
       10365000	      1035	80006974	01199433	sll	x8,x19,x17	 x19:0xee526478 x17:0xfffffedc  x8=0x80000000
       10375000	      1036	80006978	00000013	addi	x0,x0,0	  x0:0x00000000
       10385000	      1037	8000697c	00481033	sll	x0,x16,x4	 x16:0x00000001  x4:0xffffff97
       10395000	      1038	80006980	004f5a93	srli	x21,x30,0x4	 x30:0xf2903d81 x21=0x0f2903d8
       10405000	      1039	80006984	02a99263	bne	x19,x10,800069a8	 x19:0xee526478 x10:0xc182e490
       10415000	      1040	00000000	00000013	addi	x0,x0,0	  x0:0x00000000
       10425000	      1041	800069a4	00000013	addi	x0,x0,0	  x0:0x00000000
       10435000	      1042	800069a8	0225f063	bgeu	x11,x2,800069c8	 x11:0xffffffff  x2:0x80008af2
       10445000	      1043	00000000	00000013	addi	x0,x0,0	  x0:0x00000000
       10455000	      1044	800069c4	00000013	addi	x0,x0,0	  x0:0x00000000
       10465000	      1045	800069c8	0331f063	bgeu	x3,x19,800069e8	  x3:0x3c7e4f6c x19:0xee526478
       10475000	      1046	800069cc	eb00b513	sltiu	x10,x1,-336	  x1:0xff00038e x10=0x00000001
       10485000	      1047	800069d0	b86ac093	xori	x1,x21,-1146	 x21:0x0f2903d8  x1=0xf0d6f85e
       10495000	      1048	800069d4	b2e70113	addi	x2,x14,-1234	 x14:0x6faad000  x2=0x6faacb2e
       10505000	      1049	800069d8	00602533	slt	x10,x0,x6	  x0:0x00000000  x6:0x800068d8 x10=0x00000000
       10515000	      1050	800069dc	b0ab4693	xori	x13,x22,-1270	 x22:0xee526478 x13=0x11ad9f72
       10525000	      1051	800069e0	69504d13	xori	x26,x0,1685	  x0:0x00000000 x26=0x00000695
       10535000	      1052	800069e4	d030ca13	xori	x20,x1,-765	  x1:0xf0d6f85e x20=0x0f29055d
       10545000	      1053	800069e8	7770b813	sltiu	x16,x1,1911	  x1:0xf0d6f85e x16=0x00000000
       10555000	      1054	800069ec	00000013	addi	x0,x0,0	  x0:0x00000000
       10565000	      1055	800069f0	00f99e13	slli	x28,x19,0xf	 x19:0xee526478 x28=0x323c0000
       10575000	      1056	800069f4	01518533	add	x10,x3,x21	  x3:0x3c7e4f6c x21:0x0f2903d8 x10=0x4ba75344
       10585000	      1057	800069f8	00ef5c33	srl	x24,x30,x14	 x30:0xf2903d81 x14:0x6faad000 x24=0xf2903d81
       10595000	      1058	800069fc	0e52fcb7	lui	x25,0xe52f	 x25=0x0e52f000
       10605000	      1059	80006a00	b5601c97	auipc	x25,0xb5601	 x25=0x356079fc
       10615000	      1060	80006a04	01755d33	srl	x26,x10,x23	 x10:0x4ba75344 x23:0x80006750 x26=0x00004ba7
       10625000	      1061	80006a08	01809533	sll	x10,x1,x24	  x1:0xf0d6f85e x24:0xf2903d81 x10=0xe1adf0bc
       10635000	      1062	80006a0c	095cec93	ori	x25,x25,149	 x25:0x356079fc x25=0x356079fd
       10645000	      1063	80006a10	f6ff6b13	ori	x22,x30,-145	 x30:0xf2903d81 x22=0xffffffef
       10655000	      1064	80006a14	012d6ab3	or	x21,x26,x18	 x26:0x00004ba7 x18:0x80009f08 x21=0x8000dfaf
       10665000	      1065	80006a18	00e8fc63	bgeu	x17,x14,80006a30	 x17:0xfffffedc x14:0x6faad000
       10675000	      1066	00000000	00000013	addi	x0,x0,0	  x0:0x00000000
       10685000	      1067	80006a2c	00000013	addi	x0,x0,0	  x0:0x00000000
       10695000	      1068	80006a30	81e7ae13	slti	x28,x15,-2018	 x15:0x8cf52968 x28=0x00000001
       10705000	      1069	80006a34	a0e16a93	ori	x21,x2,-1522	  x2:0x6faacb2e x21=0xfffffb2e
       10715000	      1070	80006a38	03ea6063	bltu	x20,x30,80006a58	 x20:0x0f29055d x30:0xf2903d81
       10725000	      1071	00000000	00000013	addi	x0,x0,0	  x0:0x00000000
       10735000	      1072	80006a54	00000013	addi	x0,x0,0	  x0:0x00000000
       10745000	      1073	80006a58	c7102793	slti	x15,x0,-911	  x0:0x00000000 x15=0x00000000
       10755000	      1074	80006a5c	40905593	srai	x11,x0,0x9	  x0:0x00000000 x11=0x00000000
       10765000	      1075	80006a60	01349863	bne	x9,x19,80006a70	  x9:0xdb79f000 x19:0xee526478
       10775000	      1076	00000000	00000013	addi	x0,x0,0	  x0:0x00000000
       10785000	      1077	80006a6c	00000013	addi	x0,x0,0	  x0:0x00000000
       10795000	      1078	80006a70	01403cb3	sltu	x25,x0,x20	  x0:0x00000000 x20:0x0f29055d x25=0x00000001
       10805000	      1079	80006a74	4097dbb3	sra	x23,x15,x9	 x15:0x00000000  x9:0xdb79f000 x23=0x00000000
       10815000	      1080	80006a78	013f6833	or	x16,x30,x19	 x30:0xf2903d81 x19:0xee526478 x16=0xfed27df9
       10825000	      1081	80006a7c	f8740693	addi	x13,x8,-121	  x8:0x80000000 x13=0x7fffff87
       10835000	      1082	80006a80	00cfd8b3	srl	x17,x31,x12	 x31:0xfffffff7 x12:0x80009fc4 x17=0x0fffffff
       10845000	      1083	80006a84	0349e263	bltu	x19,x20,80006aa8	 x19:0xee526478 x20:0x0f29055d
       10855000	      1084	80006a88	048d1863	bne	x26,x8,80006ad8	 x26:0x00004ba7  x8:0x80000000
       10865000	      1085	00000000	00000013	addi	x0,x0,0	  x0:0x00000000
       10875000	      1086	80006ad4	00000013	addi	x0,x0,0	  x0:0x00000000
       10885000	      1087	80006ad8	014b4733	xor	x14,x22,x20	 x22:0xffffffef x20:0x0f29055d x14=0xf0d6fab2
       10895000	      1088	80006adc	01a15713	srli	x14,x2,0x1a	  x2:0x6faacb2e x14=0x0000001b
       10905000	      1089	80006ae0	05c37263	bgeu	x6,x28,80006b24	  x6:0x800068d8 x28:0x00000001
       10915000	      1090	00000000	00000013	addi	x0,x0,0	  x0:0x00000000
       10925000	      1091	80006b20	00000013	addi	x0,x0,0	  x0:0x00000000
       10935000	      1092	80006b24	1c13f837	lui	x16,0x1c13f	 x16=0x1c13f000
       10945000	      1093	80006b28	01b04863	blt	x0,x27,80006b38	  x0:0x00000000 x27:0x00000078
       10955000	      1094	00000000	00000013	addi	x0,x0,0	  x0:0x00000000
       10965000	      1095	80006b34	00000013	addi	x0,x0,0	  x0:0x00000000
       10975000	      1096	80006b38	0cb12c93	slti	x25,x2,203	  x2:0x6faacb2e x25=0x00000000
       10985000	      1097	80006b3c	0058bab3	sltu	x21,x17,x5	 x17:0x0fffffff  x5:0x7fff603b x21=0x00000001
       10995000	      1098	80006b40	00191e33	sll	x28,x18,x1	 x18:0x80009f08  x1:0xf0d6f85e x28=0x00000000
       11005000	      1099	80006b44	037cc063	blt	x25,x23,80006b64	 x25:0x00000000 x23:0x00000000
       11015000	      1100	80006b48	6013cd93	xori	x27,x7,1537	  x7:0x00000013 x27=0x00000612
       11025000	      1101	80006b4c	01c58333	add	x6,x11,x28	 x11:0x00000000 x28:0x00000000  x6=0x00000000
       11035000	      1102	80006b50	001c1513	slli	x10,x24,0x1	 x24:0xf2903d81 x10=0xe5207b02
       11045000	      1103	80006b54	02f8d263	bge	x17,x15,80006b78	 x17:0x0fffffff x15:0x00000000
       11055000	      1104	00000000	00000013	addi	x0,x0,0	  x0:0x00000000
       11065000	      1105	80006b74	00000013	addi	x0,x0,0	  x0:0x00000000
       11075000	      1106	80006b78	01c3b5b3	sltu	x11,x7,x28	  x7:0x00000013 x28:0x00000000 x11=0x00000000
       11085000	      1107	80006b7c	29697c93	andi	x25,x18,662	 x18:0x80009f08 x25=0x00000200
       11095000	      1108	80006b80	00f35eb3	srl	x29,x6,x15	  x6:0x00000000 x15:0x00000000 x29=0x00000000
       11105000	      1109	80006b84	05c31063	bne	x6,x28,80006bc4	  x6:0x00000000 x28:0x00000000
       11115000	      1110	80006b88	0012c6b3	xor	x13,x5,x1	  x5:0x7fff603b  x1:0xf0d6f85e x13=0x8f299865
       11125000	      1111	80006b8c	00000013	addi	x0,x0,0	  x0:0x00000000
       11135000	      1112	80006b90	00b72d33	slt	x26,x14,x11	 x14:0x0000001b x11:0x00000000 x26=0x00000000
       11145000	      1113	80006b94	0057c263	blt	x15,x5,80006b98	 x15:0x00000000  x5:0x7fff603b
       11155000	      1114	00000000	00000013	addi	x0,x0,0	  x0:0x00000000
       11165000	      1115	80006b94	00000013	addi	x0,x0,0	  x0:0x00000000
       11175000	      1116	80006b98	1e76ba93	sltiu	x21,x13,487	 x13:0x8f299865 x21=0x00000000
       11185000	      1117	80006b9c	01cd5133	srl	x2,x26,x28	 x26:0x00000000 x28:0x00000000  x2=0x00000000
       11195000	      1118	80006ba0	00221793	slli	x15,x4,0x2	  x4:0xffffff97 x15=0xfffffe5c
       11205000	      1119	80006ba4	9ffb6b13	ori	x22,x22,-1537	 x22:0xffffffef x22=0xffffffff
       11215000	      1120	80006ba8	62d18b93	addi	x23,x3,1581	  x3:0x3c7e4f6c x23=0x3c7e5599
       11225000	      1121	80006bac	94d26993	ori	x19,x4,-1715	  x4:0xffffff97 x19=0xffffffdf
       11235000	      1122	80006bb0	011e5263	bge	x28,x17,80006bb4	 x28:0x00000000 x17:0x0fffffff
       11245000	      1123	80006bb4	04010663	beq	x2,x0,80006c00	  x2:0x00000000  x0:0x00000000
       11255000	      1124	00000000	00000013	addi	x0,x0,0	  x0:0x00000000
       11265000	      1125	80006bfc	00000013	addi	x0,x0,0	  x0:0x00000000
       11275000	      1126	80006c00	016161b3	or	x3,x2,x22	  x2:0x00000000 x22:0xffffffff  x3=0xffffffff
       11285000	      1127	80006c04	40e85ab3	sra	x21,x16,x14	 x16:0x1c13f000 x14:0x0000001b x21=0x00000003
       11295000	      1128	80006c08	01600e63	beq	x0,x22,80006c24	  x0:0x00000000 x22:0xffffffff
       11305000	      1129	80006c0c	a0dad097	auipc	x1,0xa0dad	  x1=0x20db3c08
       11315000	      1130	80006c10	01a51e63	bne	x10,x26,80006c2c	 x10:0xe5207b02 x26:0x00000000
       11325000	      1131	00000000	00000013	addi	x0,x0,0	  x0:0x00000000
       11335000	      1132	80006c28	00000013	addi	x0,x0,0	  x0:0x00000000
       11345000	      1133	80006c2c	01d573b3	and	x7,x10,x29	 x10:0xe5207b02 x29:0x00000000  x7=0x00000000
       11355000	      1134	80006c30	01694863	blt	x18,x22,80006c40	 x18:0x80009f08 x22:0xffffffff
       11365000	      1135	00000000	00000013	addi	x0,x0,0	  x0:0x00000000
       11375000	      1136	80006c3c	00000013	addi	x0,x0,0	  x0:0x00000000
       11385000	      1137	80006c40	ec292313	slti	x6,x18,-318	 x18:0x80009f08  x6=0x00000001
       11395000	      1138	80006c44	00e61093	slli	x1,x12,0xe	 x12:0x80009fc4  x1=0x27f10000
       11405000	      1139	80006c48	003f7db3	and	x27,x30,x3	 x30:0xf2903d81  x3:0xffffffff x27=0xf2903d81
       11415000	      1140	80006c4c	ffb46b37	lui	x22,0xffb46	 x22=0xffb46000
       11425000	      1141	80006c50	3a922313	slti	x6,x4,937	  x4:0xffffff97  x6=0x00000001
       11435000	      1142	80006c54	002ecab3	xor	x21,x29,x2	 x29:0x00000000  x2:0x00000000 x21=0x00000000
       11445000	      1143	80006c58	5e91fe93	andi	x29,x3,1513	  x3:0xffffffff x29=0x000005e9
       11455000	      1144	80006c5c	00492303	lw	x6,4(x18)	 x18:0x80009f08  x6=0x80000890 PA:0x80009f0c
       11465000	      1145	80006c60	a52e4593	xori	x11,x28,-1454	 x28:0x00000000 x11=0xfffffa52
       11475000	      1146	80006c64	008e6bb3	or	x23,x28,x8	 x28:0x00000000  x8:0x80000000 x23=0x80000000
       11485000	      1147	80006c68	01143eb3	sltu	x29,x8,x17	  x8:0x80000000 x17:0x0fffffff x29=0x00000000
       11495000	      1148	80006c6c	00b8da33	srl	x20,x17,x11	 x17:0x0fffffff x11:0xfffffa52 x20=0x000003ff
       11505000	      1149	80006c70	00c90913	addi	x18,x18,12	 x18:0x80009f08 x18=0x80009f14
       11515000	      1150	80006c74	01969b13	slli	x22,x13,0x19	 x13:0x8f299865 x22=0xca000000
       11525000	      1151	80006c78	42486013	ori	x0,x16,1060	 x16:0x1c13f000
       11535000	      1152	80006c7c	00030793	addi	x15,x6,0	  x6:0x80000890 x15=0x80000890
       11545000	      1153	80006c80	000787e7	jalr	x15,x15,0	 x15:0x80000890 x15=0x80006c80
       11555000	      1154	00000000	00000013	addi	x0,x0,0	  x0:0x00000000
       11565000	      1155	80000890	00000013	addi	x0,x0,0	  x0:0x00000000
       11575000	      1156	80000894	0099d4b3	srl	x9,x19,x9	 x19:0xffffffdf  x9:0xdb79f000  x9=0xffffffdf
       11585000	      1157	80000898	00c4a133	slt	x2,x9,x12	  x9:0xffffffdf x12:0x80009fc4  x2=0x00000000
       11595000	      1158	8000089c	00d0f5b3	and	x11,x1,x13	  x1:0x27f10000 x13:0x8f299865 x11=0x07210000
       11605000	      1159	800008a0	ef1fc513	xori	x10,x31,-271	 x31:0xfffffff7 x10=0x00000106
       11615000	      1160	800008a4	0158d113	srli	x2,x17,0x15	 x17:0x0fffffff  x2=0x0000007f
       11625000	      1161	800008a8	0014abb3	slt	x23,x9,x1	  x9:0xffffffdf  x1:0x27f10000 x23=0x00000001
       11635000	      1162	800008ac	9c67f293	andi	x5,x15,-1594	 x15:0x80006c80  x5=0x80006880
       11645000	      1163	800008b0	04886463	bltu	x16,x8,800008f8	 x16:0x1c13f000  x8:0x80000000
       11655000	      1164	00000000	00000013	addi	x0,x0,0	  x0:0x00000000
       11665000	      1165	800008f4	00000013	addi	x0,x0,0	  x0:0x00000000
       11675000	      1166	800008f8	014086b3	add	x13,x1,x20	  x1:0x27f10000 x20:0x000003ff x13=0x27f103ff
       11685000	      1167	800008fc	010463b3	or	x7,x8,x16	  x8:0x80000000 x16:0x1c13f000  x7=0x9c13f000
       11695000	      1168	80000900	40c253b3	sra	x7,x4,x12	  x4:0xffffff97 x12:0x80009fc4  x7=0xfffffff9
       11705000	      1169	80000904	00d9d033	srl	x0,x19,x13	 x19:0xffffffdf x13:0x27f103ff
       11715000	      1170	80000908	0003c233	xor	x4,x7,x0	  x7:0xfffffff9  x0:0x00000000  x4=0xfffffff9
       11725000	      1171	8000090c	01adc233	xor	x4,x27,x26	 x27:0xf2903d81 x26:0x00000000  x4=0xf2903d81
       11735000	      1172	80000910	00649c63	bne	x9,x6,80000928	  x9:0xffffffdf  x6:0x80000890
       11745000	      1173	00000000	00000013	addi	x0,x0,0	  x0:0x00000000
       11755000	      1174	80000924	00000013	addi	x0,x0,0	  x0:0x00000000
       11765000	      1175	80000928	0107e233	or	x4,x15,x16	 x15:0x80006c80 x16:0x1c13f000  x4=0x9c13fc80
       11775000	      1176	8000092c	00492303	lw	x6,4(x18)	 x18:0x80009f14  x6=0x800009c0 PA:0x80009f18
       11785000	      1177	80000930	4652c393	xori	x7,x5,1125	  x5:0x80006880  x7=0x80006ce5
       11795000	      1178	80000934	013777b3	and	x15,x14,x19	 x14:0x0000001b x19:0xffffffdf x15=0x0000001b
       11805000	      1179	80000938	2efb8837	lui	x16,0x2efb8	 x16=0x2efb8000
       11815000	      1180	8000093c	013c5c93	srli	x25,x24,0x13	 x24:0xf2903d81 x25=0x00001e52
       11825000	      1181	80000940	02490913	addi	x18,x18,36	 x18:0x80009f14 x18=0x80009f38
       11835000	      1182	80000944	000503b3	add	x7,x10,x0	 x10:0x00000106  x0:0x00000000  x7=0x00000106
       11845000	      1183	80000948	415a8c33	sub	x24,x21,x21	 x21:0x00000000 x21:0x00000000 x24=0x00000000
       11855000	      1184	8000094c	00130693	addi	x13,x6,1	  x6:0x800009c0 x13=0x800009c1
       11865000	      1185	80000950	000686e7	jalr	x13,x13,0	 x13:0x800009c1 x13=0x80000950
       11875000	      1186	00000000	00000013	addi	x0,x0,0	  x0:0x00000000
       11885000	      1187	800009c0	00000013	addi	x0,x0,0	  x0:0x00000000
       11895000	      1188	800009c4	011762b3	or	x5,x14,x17	 x14:0x0000001b x17:0x0fffffff  x5=0x0fffffff
       11905000	      1189	800009c8	00000d97	auipc	x27,0x0	 x27=0x800009c4
       11915000	      1190	800009cc	0ecd8d93	addi	x27,x27,236	 x27:0x800009c4 x27=0x80000ab0
       11925000	      1191	800009d0	70b3be13	sltiu	x28,x7,1803	  x7:0x00000106 x28=0x00000001
       11935000	      1192	800009d4	cdb68c93	addi	x25,x13,-805	 x13:0x80000950 x25=0x8000062b
       11945000	      1193	800009d8	26ad8d93	addi	x27,x27,618	 x27:0x80000ab0 x27=0x80000d1a
       11955000	      1194	800009dc	c9fc2a17	auipc	x20,0xc9fc2	 x20=0x49fc29d8
       11965000	      1195	800009e0	d2d78317	auipc	x6,0xd2d78	  x6=0x52d789dc
       11975000	      1196	800009e4	6b6cc297	auipc	x5,0x6b6cc	  x5=0xeb6cc9e0
       11985000	      1197	800009e8	0167cc33	xor	x24,x15,x22	 x15:0x0000001b x22:0xca000000 x24=0xca00001b
       11995000	      1198	800009ec	00259663	bne	x11,x2,800009f8	 x11:0x07210000  x2:0x0000007f
       12005000	      1199	00000000	00000013	addi	x0,x0,0	  x0:0x00000000
       12015000	      1200	800009f4	00000013	addi	x0,x0,0	  x0:0x00000000
       12025000	      1201	800009f8	d97d8367	jalr	x6,x27,-617	 x27:0x80000d1a  x6=0x800009f8
       12035000	      1202	00000000	00000013	addi	x0,x0,0	  x0:0x00000000
       12045000	      1203	80000ab0	00000013	addi	x0,x0,0	  x0:0x00000000
       12055000	      1204	80000ab4	844dbd13	sltiu	x26,x27,-1980	 x27:0x80000d1a x26=0x00000001
       12065000	      1205	80000ab8	be66f293	andi	x5,x13,-1050	 x13:0x80000950  x5=0x80000940
       12075000	      1206	80000abc	92414097	auipc	x1,0x92414	  x1=0x12414ab8
       12085000	      1207	80000ac0	fd890913	addi	x18,x18,-40	 x18:0x80009f38 x18=0x80009f10
       12095000	      1208	80000ac4	01ddb433	sltu	x8,x27,x29	 x27:0x80000d1a x29:0x00000000  x8=0x00000000
       12105000	      1209	80000ac8	00692223	sw	x6,4(x18)	 x18:0x80009f10  x6:0x800009f8 PA:0x80009f14
       12115000	      1210	80000acc	40d68d33	sub	x26,x13,x13	 x13:0x80000950 x13:0x80000950 x26=0x00000000
       12125000	      1211	80000ad0	1bcfcb13	xori	x22,x31,444	 x31:0xfffffff7 x22=0xfffffe4b
       12135000	      1212	80000ad4	00000013	addi	x0,x0,0	  x0:0x00000000
       12145000	      1213	80000ad8	49f26d93	ori	x27,x4,1183	  x4:0x9c13fc80 x27=0x9c13fc9f
       12155000	      1214	80000adc	00008117	auipc	x2,0x8	  x2=0x80008ad8
       12165000	      1215	80000ae0	4b410113	addi	x2,x2,1204	  x2:0x80008ad8  x2=0x80008f8c
       12175000	      1216	80000ae4	000bdeb3	srl	x29,x23,x0	 x23:0x00000001  x0:0x00000000 x29=0x00000001
       12185000	      1217	80000ae8	c2914d83	lbu	x27,-983(x2)	  x2:0x80008f8c x27=0x00000022 PA:0x80008bb5
       12195000	      1218	80000aec	002f83b3	add	x7,x31,x2	 x31:0xfffffff7  x2:0x80008f8c  x7=0x80008f83
       12205000	      1219	80000af0	01f312b3	sll	x5,x6,x31	  x6:0x800009f8 x31:0xfffffff7  x5=0xfc000000
       12215000	      1220	80000af4	9ce14183	lbu	x3,-1586(x2)	  x2:0x80008f8c  x3=0x000000e6 PA:0x8000895a
       12225000	      1221	80000af8	c3010a83	lb	x21,-976(x2)	  x2:0x80008f8c x21=0xffffffa1 PA:0x80008bbc
       12235000	      1222	80000afc	008e4c33	xor	x24,x28,x8	 x28:0x00000001  x8:0x00000000 x24=0x00000001
       12245000	      1223	80000b00	01214383	lbu	x7,18(x2)	  x2:0x80008f8c  x7=0x00000072 PA:0x80008f9e
       12255000	      1224	00000000	00000013	addi	x0,x0,0	  x0:0x00000000
       12265000	      1225	80000b04	be714483	lbu	x9,-1049(x2)	  x2:0x80008f8c  x9=0x00000040 PA:0x80008b73
       12275000	      1226	80000b08	001c6eb3	or	x29,x24,x1	 x24:0x00000001  x1:0x12414ab8 x29=0x12414ab9
       12285000	      1227	80000b0c	4037d6b3	sra	x13,x15,x3	 x15:0x0000001b  x3:0x000000e6 x13=0x00000000
       12295000	      1228	80000b10	e3611423	sh	x22,-472(x2)	  x2:0x80008f8c x22:0xfffffe4b PA:0x80008db4
       12305000	      1229	80000b14	016123b3	slt	x7,x2,x22	  x2:0x80008f8c x22:0xfffffe4b  x7=0x00000001
       12315000	      1230	80000b18	98b11e23	sh	x11,-1636(x2)	  x2:0x80008f8c x11:0x07210000 PA:0x80008928
       12325000	      1231	80000b1c	c8a15b83	lhu	x23,-886(x2)	  x2:0x80008f8c x23=0x0000affc PA:0x80008c16
       12335000	      1232	80000b20	4051dc93	srai	x25,x3,0x5	  x3:0x000000e6 x25=0x00000007
       12345000	      1233	80000b24	ace6b993	sltiu	x19,x13,-1330	 x13:0x00000000 x19=0x00000001
       12355000	      1234	80000b28	dc615383	lhu	x7,-570(x2)	  x2:0x80008f8c  x7=0x0000c5df PA:0x80008d52
       12365000	      1235	80000b2c	012f8db3	add	x27,x31,x18	 x31:0xfffffff7 x18:0x80009f10 x27=0x80009f07
       12375000	      1236	80000b30	d8010883	lb	x17,-640(x2)	  x2:0x80008f8c x17=0x0000005c PA:0x80008d0c
       12385000	      1237	80000b34	91914183	lbu	x3,-1767(x2)	  x2:0x80008f8c  x3=0x000000ab PA:0x800088a5
       12395000	      1238	80000b38	9f8102a3	sb	x24,-1563(x2)	  x2:0x80008f8c x24:0x00000001 PA:0x80008971
       12405000	      1239	80000b3c	dd615383	lhu	x7,-554(x2)	  x2:0x80008f8c  x7=0x000087c7 PA:0x80008d62
       12415000	      1240	80000b40	fde15503	lhu	x10,-34(x2)	  x2:0x80008f8c x10=0x0000a197 PA:0x80008f6a
       12425000	      1241	80000b44	b7d14403	lbu	x8,-1155(x2)	  x2:0x80008f8c  x8=0x000000f3 PA:0x80008b09
       12435000	      1242	80000b48	a5411a83	lh	x21,-1452(x2)	  x2:0x80008f8c x21=0xffffe659 PA:0x800089e0
       12445000	      1243	80000b4c	c56104a3	sb	x22,-951(x2)	  x2:0x80008f8c x22:0xfffffe4b PA:0x80008bd5
       12455000	      1244	80000b50	e7114203	lbu	x4,-399(x2)	  x2:0x80008f8c  x4=0x00000048 PA:0x80008dfd
       12465000	      1245	80000b54	d58107a3	sb	x24,-689(x2)	  x2:0x80008f8c x24:0x00000001 PA:0x80008cdb
       12475000	      1246	80000b58	02d10f83	lb	x31,45(x2)	  x2:0x80008f8c x31=0xffffffc5 PA:0x80008fb9
       12485000	      1247	00000000	00000013	addi	x0,x0,0	  x0:0x00000000
       12495000	      1248	80000b5c	bdf10783	lb	x15,-1057(x2)	  x2:0x80008f8c x15=0xffffffb2 PA:0x80008b6b
       12505000	      1249	80000b60	01997cb3	and	x25,x18,x25	 x18:0x80009f10 x25:0x00000007 x25=0x00000000
       12515000	      1250	80000b64	ae800413	addi	x8,x0,-1304	  x0:0x00000000  x8=0xfffffae8
       12525000	      1251	80000b68	fc011e03	lh	x28,-64(x2)	  x2:0x80008f8c x28=0x0000069a PA:0x80008f4c
       12535000	      1252	80000b6c	01e4de93	srli	x29,x9,0x1e	  x9:0x00000040 x29=0x00000000
       12545000	      1253	80000b70	fcd14203	lbu	x4,-51(x2)	  x2:0x80008f8c  x4=0x0000004a PA:0x80008f59
       12555000	      1254	80000b74	00008697	auipc	x13,0x8	 x13=0x80008b70
       12565000	      1255	80000b78	91d68693	addi	x13,x13,-1763	 x13:0x80008b70 x13=0x8000848d
       12575000	      1256	80000b7c	008dadb3	slt	x27,x27,x8	 x27:0x80009f07  x8:0xfffffae8 x27=0x00000001
       12585000	      1257	80000b80	4081dcb3	sra	x25,x3,x8	  x3:0x000000ab  x8:0xfffffae8 x25=0x00000000
       12595000	      1258	80000b84	ff068a23	sb	x16,-12(x13)	 x13:0x8000848d x16:0x2efb8000 PA:0x80008481
       12605000	      1259	80000b88	00068103	lb	x2,0(x13)	 x13:0x8000848d  x2=0x00000018 PA:0x8000848d
       12615000	      1260	80000b8c	fef68b23	sb	x15,-10(x13)	 x13:0x8000848d x15:0xffffffb2 PA:0x80008483
       12625000	      1261	80000b90	fee68f23	sb	x14,-2(x13)	 x13:0x8000848d x14:0x0000001b PA:0x8000848b
       12635000	      1262	80000b94	ad63ef93	ori	x31,x7,-1322	  x7:0x000087c7 x31=0xffffffd7
       12645000	      1263	80000b98	ff268083	lb	x1,-14(x13)	 x13:0x8000848d  x1=0xffffff8b PA:0x8000847f
       12655000	      1264	80000b9c	643da593	slti	x11,x27,1603	 x27:0x00000001 x11=0x00000001
       12665000	      1265	80000ba0	0186a3a3	sw	x24,7(x13)	 x13:0x8000848d x24:0x00000001 PA:0x80008494
       12675000	      1266	80000ba4	0106ae33	slt	x28,x13,x16	 x13:0x8000848d x16:0x2efb8000 x28=0x00000001
       12685000	      1267	80000ba8	0187ea33	or	x20,x15,x24	 x15:0xffffffb2 x24:0x00000001 x20=0xffffffb3
       12695000	      1268	80000bac	fed69aa3	sh	x13,-11(x13)	 x13:0x8000848d x13:0x8000848d PA:0x80008482
       12705000	      1269	80000bb0	01015e33	srl	x28,x2,x16	  x2:0x00000018 x16:0x2efb8000 x28=0x00000018
       12715000	      1270	80000bb4	412252b3	sra	x5,x4,x18	  x4:0x0000004a x18:0x80009f10  x5=0x00000000
       12725000	      1271	80000bb8	106aba93	sltiu	x21,x21,262	 x21:0xffffe659 x21=0x00000000
       12735000	      1272	80000bbc	01068c83	lb	x25,16(x13)	 x13:0x8000848d x25=0xfffffffd PA:0x8000849d
       12745000	      1273	80000bc0	ffe68483	lb	x9,-2(x13)	 x13:0x8000848d  x9=0x0000001b PA:0x8000848b
       12755000	      1274	80000bc4	ffe68e03	lb	x28,-2(x13)	 x13:0x8000848d x28=0x0000001b PA:0x8000848b
       12765000	      1275	80000bc8	01568323	sb	x21,6(x13)	 x13:0x8000848d x21:0x00000000 PA:0x80008493
       12775000	      1276	80000bcc	01e35a93	srli	x21,x6,0x1e	  x6:0x800009f8 x21=0x00000002
       12785000	      1277	80000bd0	86502393	slti	x7,x0,-1947	  x0:0x00000000  x7=0x00000000
       12795000	      1278	80000bd4	ff56c783	lbu	x15,-11(x13)	 x13:0x8000848d x15=0x0000008d PA:0x80008482
       12805000	      1279	80000bd8	01de2bb3	slt	x23,x28,x29	 x28:0x0000001b x29:0x00000000 x23=0x00000000
       12815000	      1280	80000bdc	e8b0b393	sltiu	x7,x1,-373	  x1:0xffffff8b  x7=0x00000000
       12825000	      1281	80000be0	ff16d783	lhu	x15,-15(x13)	 x13:0x8000848d x15=0x00008be5 PA:0x8000847e
       12835000	      1282	80000be4	15df4393	xori	x7,x30,349	 x30:0xf2903d81  x7=0xf2903cdc
       12845000	      1283	80000be8	40c40eb3	sub	x29,x8,x12	  x8:0xfffffae8 x12:0x80009fc4 x29=0x7fff5b24
       12855000	      1284	80000bec	6280c893	xori	x17,x1,1576	  x1:0xffffff8b x17=0xfffff9a3
       12865000	      1285	80000bf0	00468d03	lb	x26,4(x13)	 x13:0x8000848d x26=0x0000007b PA:0x80008491
       12875000	      1286	80000bf4	001e8fb3	add	x31,x29,x1	 x29:0x7fff5b24  x1:0xffffff8b x31=0x7fff5aaf
       12885000	      1287	80000bf8	23cba893	slti	x17,x23,572	 x23:0x00000000 x17=0x00000001
       12895000	      1288	80000bfc	01d2e1b3	or	x3,x5,x29	  x5:0x00000000 x29:0x7fff5b24  x3=0x7fff5b24
       12905000	      1289	80000c00	9f80b2b7	lui	x5,0x9f80b	  x5=0x9f80b000
       12915000	      1290	80000c04	00c421b3	slt	x3,x8,x12	  x8:0xfffffae8 x12:0x80009fc4  x3=0x00000000
       12925000	      1291	80000c08	34d19317	auipc	x6,0x34d19	  x6=0xb4d19c04
       12935000	      1292	80000c0c	01868423	sb	x24,8(x13)	 x13:0x8000848d x24:0x00000001 PA:0x80008495
       12945000	      1293	80000c10	e975e097	auipc	x1,0xe975e	  x1=0x6975ec0c
       12955000	      1294	80000c14	00000013	addi	x0,x0,0	  x0:0x00000000
       12965000	      1295	80000c18	00568f83	lb	x31,5(x13)	 x13:0x8000848d x31=0x00000076 PA:0x80008492
       12975000	      1296	80000c1c	00008217	auipc	x4,0x8	  x4=0x80008c18
       12985000	      1297	80000c20	14220213	addi	x4,x4,322	  x4:0x80008c18  x4=0x80008d5a
       12995000	      1298	80000c24	6f07e013	ori	x0,x15,1776	 x15:0x00008be5
       13005000	      1299	80000c28	0c41ce13	xori	x28,x3,196	  x3:0x00000000 x28=0x000000c4
       13015000	      1300	80000c2c	ac024c83	lbu	x25,-1344(x4)	  x4:0x80008d5a x25=0x00000044 PA:0x8000881a
       13025000	      1301	80000c30	01581193	slli	x3,x16,0x15	 x16:0x2efb8000  x3=0x00000000
       13035000	      1302	80000c34	e39201a3	sb	x25,-477(x4)	  x4:0x80008d5a x25:0x00000044 PA:0x80008b7d
       13045000	      1303	80000c38	07421803	lh	x16,116(x4)	  x4:0x80008d5a x16=0x0000424a PA:0x80008dce
       13055000	      1304	80000c3c	c63c4493	xori	x9,x24,-925	 x24:0x00000001  x9=0xfffffc62
       13065000	      1305	80000c40	3e57bb93	sltiu	x23,x15,997	 x15:0x00008be5 x23=0x00000000
       13075000	      1306	80000c44	0053a2b3	slt	x5,x7,x5	  x7:0xf2903cdc  x5:0x9f80b000  x5=0x00000000
       13085000	      1307	80000c48	01f51793	slli	x15,x10,0x1f	 x10:0x0000a197 x15=0x80000000
       13095000	      1308	80000c4c	bda3ea13	ori	x20,x7,-1062	  x7:0xf2903cdc x20=0xffffffde
       13105000	      1309	80000c50	e6af2313	slti	x6,x30,-406	 x30:0xf2903d81  x6=0x00000001
       13115000	      1310	80000c54	c3522123	sw	x21,-990(x4)	  x4:0x80008d5a x21:0x00000002 PA:0x8000897c
       13125000	      1311	80000c58	c6707fb7	lui	x31,0xc6707	 x31=0xc6707000
       13135000	      1312	80000c5c	404d59b3	sra	x19,x26,x4	 x26:0x0000007b  x4:0x80008d5a x19=0x00000000
       13145000	      1313	80000c60	00000013	addi	x0,x0,0	  x0:0x00000000
       13155000	      1314	80000c64	00cd2e33	slt	x28,x26,x12	 x26:0x0000007b x12:0x80009fc4 x28=0x00000000
       13165000	      1315	80000c68	412525b7	lui	x11,0x41252	 x11=0x41252000
       13175000	      1316	80000c6c	00fc03b3	add	x7,x24,x15	 x24:0x00000001 x15:0x80000000  x7=0x80000001
       13185000	      1317	80000c70	01020a83	lb	x21,16(x4)	  x4:0x80008d5a x21=0x00000008 PA:0x80008d6a
       13195000	      1318	80000c74	8fa02a13	slti	x20,x0,-1798	  x0:0x00000000 x20=0x00000000
       13205000	      1319	80000c78	007d9433	sll	x8,x27,x7	 x27:0x00000001  x7:0x80000001  x8=0x00000002
       13215000	      1320	80000c7c	364ea393	slti	x7,x29,868	 x29:0x7fff5b24  x7=0x00000000
       13225000	      1321	80000c80	b5424183	lbu	x3,-1196(x4)	  x4:0x80008d5a  x3=0x000000a1 PA:0x800088ae
       13235000	      1322	80000c84	5116c593	xori	x11,x13,1297	 x13:0x8000848d x11=0x8000819c
       13245000	      1323	80000c88	89e1ed13	ori	x26,x3,-1890	  x3:0x000000a1 x26=0xfffff8bf
       13255000	      1324	80000c8c	1a622b03	lw	x22,422(x4)	  x4:0x80008d5a x22=0x45459c14 PA:0x80008f00
       13265000	      1325	80000c90	dc924c03	lbu	x24,-567(x4)	  x4:0x80008d5a x24=0x00000044 PA:0x80008b23
       13275000	      1326	80000c94	00a704b3	add	x9,x14,x10	 x14:0x0000001b x10:0x0000a197  x9=0x0000a1b2
       13285000	      1327	80000c98	d4921e23	sh	x9,-676(x4)	  x4:0x80008d5a  x9:0x0000a1b2 PA:0x80008ab6
       13295000	      1328	80000c9c	4017d393	srai	x7,x15,0x1	 x15:0x80000000  x7=0xc0000000
       13305000	      1329	80000ca0	0117feb3	and	x29,x15,x17	 x15:0x80000000 x17:0x00000001 x29=0x00000000
       13315000	      1330	80000ca4	cda204a3	sb	x26,-823(x4)	  x4:0x80008d5a x26:0xfffff8bf PA:0x80008a23
       13325000	      1331	80000ca8	00000013	addi	x0,x0,0	  x0:0x00000000
       13335000	      1332	80000cac	187d6413	ori	x8,x26,391	 x26:0xfffff8bf  x8=0xfffff9bf
       13345000	      1333	80000cb0	00b89793	slli	x15,x17,0xb	 x17:0x00000001 x15=0x00000800
       13355000	      1334	80000cb4	e4222983	lw	x19,-446(x4)	  x4:0x80008d5a x19=0x1ff4bcd3 PA:0x80008b9c
       13365000	      1335	80000cb8	01bda833	slt	x16,x27,x27	 x27:0x00000001 x27:0x00000001 x16=0x00000000
       13375000	      1336	80000cbc	25a20ca3	sb	x26,601(x4)	  x4:0x80008d5a x26:0xfffff8bf PA:0x80008fb3
       13385000	      1337	80000cc0	01c61a33	sll	x20,x12,x28	 x12:0x80009fc4 x28:0x00000000 x20=0x80009fc4
       13395000	      1338	80000cc4	d6b24c03	lbu	x24,-661(x4)	  x4:0x80008d5a x24=0x000000f8 PA:0x80008ac5
       13405000	      1339	80000cc8	b5320483	lb	x9,-1197(x4)	  x4:0x80008d5a  x9=0xffffffa8 PA:0x800088ad
       13415000	      1340	80000ccc	c4121123	sh	x1,-958(x4)	  x4:0x80008d5a  x1:0x6975ec0c PA:0x8000899c
       13425000	      1341	80000cd0	07084193	xori	x3,x16,112	 x16:0x00000000  x3=0x00000070
       13435000	      1342	80000cd4	01774cb3	xor	x25,x14,x23	 x14:0x0000001b x23:0x00000000 x25=0x0000001b
       13445000	      1343	80000cd8	ed921d23	sh	x25,-294(x4)	  x4:0x80008d5a x25:0x0000001b PA:0x80008c34
       13455000	      1344	80000cdc	00007897	auipc	x17,0x7	 x17=0x80007cd8
       13465000	      1345	80000ce0	46888893	addi	x17,x17,1128	 x17:0x80007cd8 x17=0x80008140
       13475000	      1346	80000ce4	019c84b3	add	x9,x25,x25	 x25:0x0000001b x25:0x0000001b  x9=0x00000036
       13485000	      1347	80000ce8	41ee8eb3	sub	x29,x29,x30	 x29:0x00000000 x30:0xf2903d81 x29=0x0d6fc27f
       13495000	      1348	80000cec	50107f93	andi	x31,x0,1281	  x0:0x00000000 x31=0x00000000
       13505000	      1349	80000cf0	0218c103	lbu	x2,33(x17)	 x17:0x80008140  x2=0x0000006c PA:0x80008161
       13515000	      1350	80000cf4	41690733	sub	x14,x18,x22	 x18:0x80009f10 x22:0x45459c14 x14=0x3abb02fc
       13525000	      1351	80000cf8	0ef88d03	lb	x26,239(x17)	 x17:0x80008140 x26=0x0000000a PA:0x8000822f
       13535000	      1352	80000cfc	0808cc83	lbu	x25,128(x17)	 x17:0x80008140 x25=0x0000004c PA:0x800081c0
       13545000	      1353	80000d00	e60c6413	ori	x8,x24,-416	 x24:0x000000f8  x8=0xfffffef8
       13555000	      1354	80000d04	019b14b3	sll	x9,x22,x25	 x22:0x45459c14 x25:0x0000004c  x9=0x59c14000
       13565000	      1355	80000d08	f7888983	lb	x19,-136(x17)	 x17:0x80008140 x19=0xffffffce PA:0x800080b8
       13575000	      1356	80000d0c	f5188e03	lb	x28,-175(x17)	 x17:0x80008140 x28=0xffffffbd PA:0x80008091
       13585000	      1357	80000d10	00b04eb3	xor	x29,x0,x11	  x0:0x00000000 x11:0x8000819c x29=0x8000819c
       13595000	      1358	80000d14	4111db33	sra	x22,x3,x17	  x3:0x00000070 x17:0x80008140 x22=0x00000070
       13605000	      1359	80000d18	f3188d03	lb	x26,-207(x17)	 x17:0x80008140 x26=0x00000034 PA:0x80008071
       13615000	      1360	80000d1c	0021e433	or	x8,x3,x2	  x3:0x00000070  x2:0x0000006c  x8=0x0000007c
       13625000	      1361	80000d20	003a9493	slli	x9,x21,0x3	 x21:0x00000008  x9=0x00000040
       13635000	      1362	80000d24	0f788d83	lb	x27,247(x17)	 x17:0x80008140 x27=0x0000007c PA:0x80008237
       13645000	      1363	80000d28	01f959b3	srl	x19,x18,x31	 x18:0x80009f10 x31:0x00000000 x19=0x80009f10
       13655000	      1364	80000d2c	116ee293	ori	x5,x29,278	 x29:0x8000819c  x5=0x8000819e
       13665000	      1365	80000d30	f6388f83	lb	x31,-157(x17)	 x17:0x80008140 x31=0xffffff80 PA:0x800080a3
       13675000	      1366	80000d34	fdd8ce03	lbu	x28,-35(x17)	 x17:0x80008140 x28=0x00000041 PA:0x8000811d
       13685000	      1367	80000d38	0378cb83	lbu	x23,55(x17)	 x17:0x80008140 x23=0x000000f2 PA:0x80008177
       13695000	      1368	80000d3c	005efbb3	and	x23,x29,x5	 x29:0x8000819c  x5:0x8000819e x23=0x8000819c
       13705000	      1369	80000d40	f81886a3	sb	x1,-115(x17)	 x17:0x80008140  x1:0x6975ec0c PA:0x800080cd
       13715000	      1370	80000d44	01c027b3	slt	x15,x0,x28	  x0:0x00000000 x28:0x00000041 x15=0x00000001
       13725000	      1371	80000d48	016583b3	add	x7,x11,x22	 x11:0x8000819c x22:0x00000070  x7=0x8000820c
       13735000	      1372	80000d4c	00f7a033	slt	x0,x15,x15	 x15:0x00000001 x15:0x00000001
       13745000	      1373	80000d50	f0988483	lb	x9,-247(x17)	 x17:0x80008140  x9=0xffffffc7 PA:0x80008049
       13755000	      1374	80000d54	fd38bf93	sltiu	x31,x17,-45	 x17:0x80008140 x31=0x00000001
       13765000	      1375	80000d58	00000013	addi	x0,x0,0	  x0:0x00000000
       13775000	      1376	80000d5c	0b888283	lb	x5,184(x17)	 x17:0x80008140  x5=0x0000002e PA:0x800081f8
       13785000	      1377	80000d60	40ae8eb3	sub	x29,x29,x10	 x29:0x8000819c x10:0x0000a197 x29=0x7fffe005
       13795000	      1378	80000d64	f8288003	lb	x0,-126(x17)	 x17:0x80008140 PA:0x800080c2
       13805000	      1379	80000d68	01988003	lb	x0,25(x17)	 x17:0x80008140 PA:0x80008159
       13815000	      1380	80000d6c	413686b3	sub	x13,x13,x19	 x13:0x8000848d x19:0x80009f10 x13=0xffffe57d
       13825000	      1381	80000d70	0078ae23	sw	x7,28(x17)	 x17:0x80008140  x7:0x8000820c PA:0x8000815c
       13835000	      1382	80000d74	f1f8c583	lbu	x11,-225(x17)	 x17:0x80008140 x11=0x0000004a PA:0x8000805f
       13845000	      1383	80000d78	008f1113	slli	x2,x30,0x8	 x30:0xf2903d81  x2=0x903d8100
       13855000	      1384	80000d7c	0ac89403	lh	x8,172(x17)	 x17:0x80008140  x8=0x00001bdd PA:0x800081ec
       13865000	      1385	80000d80	00baf5b3	and	x11,x21,x11	 x21:0x00000008 x11:0x0000004a x11=0x00000008
       13875000	      1386	80000d84	00fe73b3	and	x7,x28,x15	 x28:0x00000041 x15:0x00000001  x7=0x00000001
       13885000	      1387	80000d88	011725b3	slt	x11,x14,x17	 x14:0x3abb02fc x17:0x80008140 x11=0x00000000
       13895000	      1388	80000d8c	011fa733	slt	x14,x31,x17	 x31:0x00000001 x17:0x80008140 x14=0x00000000
       13905000	      1389	80000d90	45ca8c13	addi	x24,x21,1116	 x21:0x00000008 x24=0x00000464
       13915000	      1390	80000d94	b3df3693	sltiu	x13,x30,-1219	 x30:0xf2903d81 x13=0x00000001
       13925000	      1391	80000d98	f9b89323	sh	x27,-122(x17)	 x17:0x80008140 x27:0x0000007c PA:0x800080c6
       13935000	      1392	80000d9c	7cd0e413	ori	x8,x1,1997	  x1:0x6975ec0c  x8=0x6975efcd
       13945000	      1393	80000da0	0172e3b3	or	x7,x5,x23	  x5:0x0000002e x23:0x8000819c  x7=0x800081be
       13955000	      1394	80000da4	f0a88d83	lb	x27,-246(x17)	 x17:0x80008140 x27=0xffffffae PA:0x8000804a
       13965000	      1395	80000da8	fa689403	lh	x8,-90(x17)	 x17:0x80008140  x8=0xffffdb1f PA:0x800080e6
       13975000	      1396	80000dac	01a89193	slli	x3,x17,0x1a	 x17:0x80008140  x3=0x00000000
       13985000	      1397	80000db0	0d788a83	lb	x21,215(x17)	 x17:0x80008140 x21=0xffffff82 PA:0x80008217
       13995000	      1398	80000db4	00008797	auipc	x15,0x8	 x15=0x80008db0
       14005000	      1399	80000db8	1e478793	addi	x15,x15,484	 x15:0x80008db0 x15=0x80008f94
       14015000	      1400	80000dbc	01c7a623	sw	x28,12(x15)	 x15:0x80008f94 x28:0x00000041 PA:0x80008fa0
       14025000	      1401	80000dc0	a9a82bb7	lui	x23,0xa9a82	 x23=0xa9a82000
       14035000	      1402	80000dc4	40cddf93	srai	x31,x27,0xc	 x27:0xffffffae x31=0xffffffff
       14045000	      1403	80000dc8	01d7c003	lbu	x0,29(x15)	 x15:0x80008f94 PA:0x80008fb1
       14055000	      1404	80000dcc	fc678883	lb	x17,-58(x15)	 x15:0x80008f94 x17=0x00000035 PA:0x80008f5a
       14065000	      1405	80000dd0	fce7ca83	lbu	x21,-50(x15)	 x15:0x80008f94 x21=0x0000003d PA:0x80008f62
       14075000	      1406	80000dd4	41315e13	srai	x28,x2,0x13	  x2:0x903d8100 x28=0xfffff207
       14085000	      1407	80000dd8	00f78003	lb	x0,15(x15)	 x15:0x80008f94 PA:0x80008fa3
       14095000	      1408	80000ddc	01378983	lb	x19,19(x15)	 x15:0x80008f94 x19=0x00000069 PA:0x80008fa7
       14105000	      1409	80000de0	0127c483	lbu	x9,18(x15)	 x15:0x80008f94  x9=0x0000007d PA:0x80008fa6
       14115000	      1410	80000de4	412b59b3	sra	x19,x22,x18	 x22:0x00000070 x18:0x80009f10 x19=0x00000000
       14125000	      1411	80000de8	015962b3	or	x5,x18,x21	 x18:0x80009f10 x21:0x0000003d  x5=0x80009f3d
       14135000	      1412	80000dec	ffb78203	lb	x4,-5(x15)	 x15:0x80008f94  x4=0xffffffb3 PA:0x80008f8f
       14145000	      1413	80000df0	fd678c03	lb	x24,-42(x15)	 x15:0x80008f94 x24=0xffffff97 PA:0x80008f6a
       14155000	      1414	80000df4	25c9ca93	xori	x21,x19,604	 x19:0x00000000 x21=0x0000025c
       14165000	      1415	80000df8	010f11b3	sll	x3,x30,x16	 x30:0xf2903d81 x16:0x00000000  x3=0xf2903d81
       14175000	      1416	80000dfc	fee78623	sb	x14,-20(x15)	 x15:0x80008f94 x14:0x00000000 PA:0x80008f80
       14185000	      1417	80000e00	02c7cc03	lbu	x24,44(x15)	 x15:0x80008f94 x24=0x00000037 PA:0x80008fc0
       14195000	      1418	80000e04	fd178f83	lb	x31,-47(x15)	 x15:0x80008f94 x31=0xffffffbc PA:0x80008f65
       14205000	      1419	80000e08	fed7c583	lbu	x11,-19(x15)	 x15:0x80008f94 x11=0x00000051 PA:0x80008f81
       14215000	      1420	80000e0c	fe479123	sh	x4,-30(x15)	 x15:0x80008f94  x4:0xffffffb3 PA:0x80008f76
       14225000	      1421	80000e10	41070233	sub	x4,x14,x16	 x14:0x00000000 x16:0x00000000  x4=0x00000000
       14235000	      1422	80000e14	ffb78383	lb	x7,-5(x15)	 x15:0x80008f94  x7=0xffffffb3 PA:0x80008f8f
       14245000	      1423	80000e18	00f6ccb3	xor	x25,x13,x15	 x13:0x00000001 x15:0x80008f94 x25=0x80008f95
       14255000	      1424	80000e1c	fe67c083	lbu	x1,-26(x15)	 x15:0x80008f94  x1=0x0000008f PA:0x80008f7a
       14265000	      1425	80000e20	fe37ce83	lbu	x29,-29(x15)	 x15:0x80008f94 x29=0x000000ff PA:0x80008f77
       14275000	      1426	80000e24	02b7ce83	lbu	x29,43(x15)	 x15:0x80008f94 x29=0x00000031 PA:0x80008fbf
       14285000	      1427	80000e28	00b41a33	sll	x20,x8,x11	  x8:0xffffdb1f x11:0x00000051 x20=0xb63e0000
       14295000	      1428	80000e2c	0017c583	lbu	x11,1(x15)	 x15:0x80008f94 x11=0x000000c3 PA:0x80008f95
       14305000	      1429	80000e30	fd178d03	lb	x26,-47(x15)	 x15:0x80008f94 x26=0xffffffbc PA:0x80008f65
       14315000	      1430	80000e34	ff278483	lb	x9,-14(x15)	 x15:0x80008f94  x9=0x00000036 PA:0x80008f86
       14325000	      1431	80000e38	01ed54b3	srl	x9,x26,x30	 x26:0xffffffbc x30:0xf2903d81  x9=0x7fffffde
       14335000	      1432	80000e3c	01f304b3	add	x9,x6,x31	  x6:0x00000001 x31:0xffffffbc  x9=0xffffffbd
       14345000	      1433	80000e40	40ab5213	srai	x4,x22,0xa	 x22:0x00000070  x4=0x00000000
       14355000	      1434	80000e44	00000013	addi	x0,x0,0	  x0:0x00000000
       14365000	      1435	80000e48	01078823	sb	x16,16(x15)	 x15:0x80008f94 x16:0x00000000 PA:0x80008fa4
       14375000	      1436	80000e4c	d4ed4713	xori	x14,x26,-690	 x26:0xffffffbc x14=0x000002f2
       14385000	      1437	80000e50	00000013	addi	x0,x0,0	  x0:0x00000000
       14395000	      1438	80000e54	0f66e893	ori	x17,x13,246	 x13:0x00000001 x17=0x000000f7
       14405000	      1439	80000e58	01a78183	lb	x3,26(x15)	 x15:0x80008f94  x3=0x00000063 PA:0x80008fae
       14415000	      1440	80000e5c	fd178003	lb	x0,-47(x15)	 x15:0x80008f94 PA:0x80008f65
       14425000	      1441	80000e60	02878c03	lb	x24,40(x15)	 x15:0x80008f94 x24=0xffffffe6 PA:0x80008fbc
       14435000	      1442	80000e64	02879e03	lh	x28,40(x15)	 x15:0x80008f94 x28=0x00005be6 PA:0x80008fbc
       14445000	      1443	80000e68	0057cc83	lbu	x25,5(x15)	 x15:0x80008f94 x25=0x0000000c PA:0x80008f99
       14455000	      1444	80000e6c	00007397	auipc	x7,0x7	  x7=0x80007e68
       14465000	      1445	80000e70	31738393	addi	x7,x7,791	  x7:0x80007e68  x7=0x8000817f
       14475000	      1446	80000e74	0148e7b3	or	x15,x17,x20	 x17:0x000000f7 x20:0xb63e0000 x15=0xb63e00f7
       14485000	      1447	80000e78	4ec50713	addi	x14,x10,1260	 x10:0x0000a197 x14=0x0000a683
       14495000	      1448	80000e7c	066caa93	slti	x21,x25,102	 x25:0x0000000c x21=0x00000001
       14505000	      1449	80000e80	40fa86b3	sub	x13,x21,x15	 x21:0x00000001 x15:0xb63e00f7 x13=0x49c1ff0a
       14515000	      1450	80000e84	0c838c23	sb	x8,216(x7)	  x7:0x8000817f  x8:0xffffdb1f PA:0x80008257
       14525000	      1451	80000e88	f5f39e83	lh	x29,-161(x7)	  x7:0x8000817f x29=0xffffec7c PA:0x800080de
       14535000	      1452	80000e8c	05c38703	lb	x14,92(x7)	  x7:0x8000817f x14=0xffffffb4 PA:0x800081db
       14545000	      1453	80000e90	59d98813	addi	x16,x19,1437	 x19:0x00000000 x16=0x0000059d
       14555000	      1454	80000e94	fe53ab03	lw	x22,-27(x7)	  x7:0x8000817f x22=0x47bec59b PA:0x80008164
       14565000	      1455	80000e98	09d3dd03	lhu	x26,157(x7)	  x7:0x8000817f x26=0x00000fac PA:0x8000821c
       14575000	      1456	80000e9c	fcb38083	lb	x1,-53(x7)	  x7:0x8000817f  x1=0x0000005c PA:0x8000814a
       14585000	      1457	80000ea0	40988033	sub	x0,x17,x9	 x17:0x000000f7  x9:0xffffffbd
       14595000	      1458	80000ea4	bd4b7037	lui	x0,0xbd4b7	
       14605000	      1459	80000ea8	344b2413	slti	x8,x22,836	 x22:0x47bec59b  x8=0x00000000
       14615000	      1460	80000eac	01e750b3	srl	x1,x14,x30	 x14:0xffffffb4 x30:0xf2903d81  x1=0x7fffffda
       14625000	      1461	80000eb0	f4c38283	lb	x5,-180(x7)	  x7:0x8000817f  x5=0xffffffb9 PA:0x800080cb
       14635000	      1462	80000eb4	01e76833	or	x16,x14,x30	 x14:0xffffffb4 x30:0xf2903d81 x16=0xffffffb5
       14645000	      1463	80000eb8	00c6beb3	sltu	x29,x13,x12	 x13:0x49c1ff0a x12:0x80009fc4 x29=0x00000001
       14655000	      1464	80000ebc	55161ab7	lui	x21,0x55161	 x21=0x55161000
       14665000	      1465	80000ec0	00f1db33	srl	x22,x3,x15	  x3:0x00000063 x15:0xb63e00f7 x22=0x00000000
       14675000	      1466	80000ec4	40868fb3	sub	x31,x13,x8	 x13:0x49c1ff0a  x8:0x00000000 x31=0x49c1ff0a
       14685000	      1467	80000ec8	0c638f23	sb	x6,222(x7)	  x7:0x8000817f  x6:0x00000001 PA:0x8000825d
       14695000	      1468	80000ecc	00ab10b3	sll	x1,x22,x10	 x22:0x00000000 x10:0x0000a197  x1=0x00000000
       14705000	      1469	80000ed0	a9010013	addi	x0,x2,-1392	  x2:0x903d8100
       14715000	      1470	80000ed4	40a25b13	srai	x22,x4,0xa	  x4:0x00000000 x22=0x00000000
       14725000	      1471	80000ed8	012e7433	and	x8,x28,x18	 x28:0x00005be6 x18:0x80009f10  x8=0x00001b00
       14735000	      1472	80000edc	443f2493	slti	x9,x30,1091	 x30:0xf2903d81  x9=0x00000001
       14745000	      1473	80000ee0	01945b33	srl	x22,x8,x25	  x8:0x00001b00 x25:0x0000000c x22=0x00000001
       14755000	      1474	80000ee4	e7362db7	lui	x27,0xe7362	 x27=0xe7362000
       14765000	      1475	80000ee8	0115beb3	sltu	x29,x11,x17	 x11:0x000000c3 x17:0x000000f7 x29=0x00000001
       14775000	      1476	80000eec	09638823	sb	x22,144(x7)	  x7:0x8000817f x22:0x00000001 PA:0x8000820f
       14785000	      1477	80000ef0	f1d39d83	lh	x27,-227(x7)	  x7:0x8000817f x27=0xffffc83c PA:0x8000809c
       14795000	      1478	80000ef4	00008297	auipc	x5,0x8	  x5=0x80008ef0
       14805000	      1479	80000ef8	ee428293	addi	x5,x5,-284	  x5:0x80008ef0  x5=0x80008dd4
       14815000	      1480	80000efc	17c2ab83	lw	x23,380(x5)	  x5:0x80008dd4 x23=0xb106f55f PA:0x80008f50
       14825000	      1481	80000f00	670e6313	ori	x6,x28,1648	 x28:0x00005be6  x6=0x00005ff6
       14835000	      1482	80000f04	01fe5e13	srli	x28,x28,0x1f	 x28:0x00005be6 x28=0x00000000
       14845000	      1483	80000f08	019d5533	srl	x10,x26,x25	 x26:0x00000fac x25:0x0000000c x10=0x00000000
       14855000	      1484	80000f0c	5a679497	auipc	x9,0x5a679	  x9=0xda679f08
       14865000	      1485	80000f10	01fd3b33	sltu	x22,x26,x31	 x26:0x00000fac x31:0x49c1ff0a x22=0x00000001
       14875000	      1486	80000f14	0b96e193	ori	x3,x13,185	 x13:0x49c1ff0a  x3=0x49c1ffbb
       14885000	      1487	80000f18	cec2cb03	lbu	x22,-788(x5)	  x5:0x80008dd4 x22=0x0000006e PA:0x80008ac0
       14895000	      1488	80000f1c	01121413	slli	x8,x4,0x11	  x4:0x00000000  x8=0x00000000
       14905000	      1489	80000f20	01161c33	sll	x24,x12,x17	 x12:0x80009fc4 x17:0x000000f7 x24=0xe2000000
       14915000	      1490	80000f24	01b10cb3	add	x25,x2,x27	  x2:0x903d8100 x27:0xffffc83c x25=0x903d493c
       14925000	      1491	80000f28	64d8f813	andi	x16,x17,1613	 x17:0x000000f7 x16=0x00000045
       14935000	      1492	80000f2c	4141dc13	srai	x24,x3,0x14	  x3:0x49c1ffbb x24=0x0000049c
       14945000	      1493	80000f30	014eb6b3	sltu	x13,x29,x20	 x29:0x00000001 x20:0xb63e0000 x13=0x00000001
       14955000	      1494	80000f34	1ba2d483	lhu	x9,442(x5)	  x5:0x80008dd4  x9=0x0000b33c PA:0x80008f8e
       14965000	      1495	80000f38	c2dccd93	xori	x27,x25,-979	 x25:0x903d493c x27=0x6fc2b511
       14975000	      1496	80000f3c	92124b37	lui	x22,0x92124	 x22=0x92124000
       14985000	      1497	80000f40	40d7d093	srai	x1,x15,0xd	 x15:0xb63e00f7  x1=0xfffdb1f0
       14995000	      1498	80000f44	0ab28123	sb	x11,162(x5)	  x5:0x80008dd4 x11:0x000000c3 PA:0x80008e76
       15005000	      1499	80000f48	00951b33	sll	x22,x10,x9	 x10:0x00000000  x9:0x0000b33c x22=0x00000000
       15015000	      1500	80000f4c	5ee04b93	xori	x23,x0,1518	  x0:0x00000000 x23=0x000005ee
       15025000	      1501	80000f50	c5029223	sh	x16,-956(x5)	  x5:0x80008dd4 x16:0x00000045 PA:0x80008a18
       15035000	      1502	80000f54	0622cb83	lbu	x23,98(x5)	  x5:0x80008dd4 x23=0x00000070 PA:0x80008e36
       15045000	      1503	80000f58	23e88793	addi	x15,x17,574	 x17:0x000000f7 x15=0x00000335
       15055000	      1504	80000f5c	007a5e13	srli	x28,x20,0x7	 x20:0xb63e0000 x28=0x016c7c00
       15065000	      1505	80000f60	18a28703	lb	x14,394(x5)	  x5:0x80008dd4 x14=0x0000004d PA:0x80008f5e
       15075000	      1506	80000f64	8bc96713	ori	x14,x18,-1860	 x18:0x80009f10 x14=0xffffffbc
       15085000	      1507	80000f68	d2d28d83	lb	x27,-723(x5)	  x5:0x80008dd4 x27=0xffffffa7 PA:0x80008b01
       15095000	      1508	80000f6c	7a538b37	lui	x22,0x7a538	 x22=0x7a538000
       15105000	      1509	80000f70	bf8283a3	sb	x24,-1049(x5)	  x5:0x80008dd4 x24:0x0000049c PA:0x800089bb
       15115000	      1510	80000f74	01f3e9b3	or	x19,x7,x31	  x7:0x8000817f x31:0x49c1ff0a x19=0xc9c1ff7f
       15125000	      1511	80000f78	1a02c883	lbu	x17,416(x5)	  x5:0x80008dd4 x17=0x000000fc PA:0x80008f74
       15135000	      1512	80000f7c	00000013	addi	x0,x0,0	  x0:0x00000000
       15145000	      1513	80000f80	f36eae37	lui	x28,0xf36ea	 x28=0xf36ea000
       15155000	      1514	80000f84	00d20bb3	add	x23,x4,x13	  x4:0x00000000 x13:0x00000001 x23=0x00000001
       15165000	      1515	80000f88	aa128ca3	sb	x1,-1351(x5)	  x5:0x80008dd4  x1:0xfffdb1f0 PA:0x8000888d
       15175000	      1516	80000f8c	00e60333	add	x6,x12,x14	 x12:0x80009fc4 x14:0xffffffbc  x6=0x80009f80
       15185000	      1517	80000f90	00795e93	srli	x29,x18,0x7	 x18:0x80009f10 x29=0x0100013e
       15195000	      1518	80000f94	abf2cd03	lbu	x26,-1345(x5)	  x5:0x80008dd4 x26=0x000000a0 PA:0x80008893
       15205000	      1519	80000f98	334f4e37	lui	x28,0x334f4	 x28=0x334f4000
       15215000	      1520	80000f9c	ae128083	lb	x1,-1311(x5)	  x5:0x80008dd4  x1=0xfffffff4 PA:0x800088b5
       15225000	      1521	80000fa0	e7b1b713	sltiu	x14,x3,-389	  x3:0x49c1ffbb x14=0x00000001
       15235000	      1522	80000fa4	ff0bca13	xori	x20,x23,-16	 x23:0x00000001 x20=0xfffffff1
       15245000	      1523	80000fa8	b9929123	sh	x25,-1150(x5)	  x5:0x80008dd4 x25:0x903d493c PA:0x80008956
       15255000	      1524	80000fac	00007197	auipc	x3,0x7	  x3=0x80007fa8
       15265000	      1525	80000fb0	22018193	addi	x3,x3,544	  x3:0x80007fa8  x3=0x800081c8
       15275000	      1526	80000fb4	ff11ca83	lbu	x21,-15(x3)	  x3:0x800081c8 x21=0x000000e6 PA:0x800081b9
       15285000	      1527	80000fb8	b30b9d37	lui	x26,0xb30b9	 x26=0xb30b9000
       15295000	      1528	80000fbc	02818e03	lb	x28,40(x3)	  x3:0x800081c8 x28=0x00000054 PA:0x800081f0
       15305000	      1529	80000fc0	00119523	sh	x1,10(x3)	  x3:0x800081c8  x1:0xfffffff4 PA:0x800081d2
       15315000	      1530	80000fc4	017a75b3	and	x11,x20,x23	 x20:0xfffffff1 x23:0x00000001 x11=0x00000001
       15325000	      1531	80000fc8	fd6182a3	sb	x22,-59(x3)	  x3:0x800081c8 x22:0x7a538000 PA:0x8000818d
       15335000	      1532	80000fcc	ff918303	lb	x6,-7(x3)	  x3:0x800081c8  x6=0x00000027 PA:0x800081c1
       15345000	      1533	80000fd0	012107b3	add	x15,x2,x18	  x2:0x903d8100 x18:0x80009f10 x15=0x103e2010
       15355000	      1534	80000fd4	0084f133	and	x2,x9,x8	  x9:0x0000b33c  x8:0x00000000  x2=0x00000000
       15365000	      1535	80000fd8	03518503	lb	x10,53(x3)	  x3:0x800081c8 x10=0xfffffff1 PA:0x800081fd
       15375000	      1536	80000fdc	002843b3	xor	x7,x16,x2	 x16:0x00000045  x2:0x00000000  x7=0x00000045
       15385000	      1537	80000fe0	fee18783	lb	x15,-18(x3)	  x3:0x800081c8 x15=0x0000000f PA:0x800081b6
       15395000	      1538	80000fe4	00ada6b3	slt	x13,x27,x10	 x27:0xffffffa7 x10:0xfffffff1 x13=0x00000001
       15405000	      1539	80000fe8	038186a3	sb	x24,45(x3)	  x3:0x800081c8 x24:0x0000049c PA:0x800081f5
       15415000	      1540	80000fec	00118483	lb	x9,1(x3)	  x3:0x800081c8  x9=0x0000003b PA:0x800081c9
       15425000	      1541	80000ff0	41b25c33	sra	x24,x4,x27	  x4:0x00000000 x27:0xffffffa7 x24=0x00000000
       15435000	      1542	80000ff4	7b6db313	sltiu	x6,x27,1974	 x27:0xffffffa7  x6=0x00000000
       15445000	      1543	80000ff8	e4d80813	addi	x16,x16,-435	 x16:0x00000045 x16=0xfffffe92
       15455000	      1544	80000ffc	00a818b3	sll	x17,x16,x10	 x16:0xfffffe92 x10:0xfffffff1 x17=0xfd240000
       15465000	      1545	80001000	591eef93	ori	x31,x29,1425	 x29:0x0100013e x31=0x010005bf
       15475000	      1546	80001004	013df033	and	x0,x27,x19	 x27:0xffffffa7 x19:0xc9c1ff7f
       15485000	      1547	80001008	281ec893	xori	x17,x29,641	 x29:0x0100013e x17=0x010003bf
       15495000	      1548	8000100c	0271c203	lbu	x4,39(x3)	  x3:0x800081c8  x4=0x000000fa PA:0x800081ef
       15505000	      1549	80001010	003e4e33	xor	x28,x28,x3	 x28:0x00000054  x3:0x800081c8 x28=0x8000819c
       15515000	      1550	80001014	81bba793	slti	x15,x23,-2021	 x23:0x00000001 x15=0x00000000
       15525000	      1551	80001018	1804fb93	andi	x23,x9,384	  x9:0x0000003b x23=0x00000000
       15535000	      1552	8000101c	39b5c993	xori	x19,x11,923	 x11:0x00000001 x19=0x0000039a
       15545000	      1553	80001020	fe71c483	lbu	x9,-25(x3)	  x3:0x800081c8  x9=0x000000b3 PA:0x800081af
       15555000	      1554	80001024	71597c17	auipc	x24,0x71597	 x24=0xf1598020
       15565000	      1555	80001028	010ff333	and	x6,x31,x16	 x31:0x010005bf x16:0xfffffe92  x6=0x01000492
       15575000	      1556	8000102c	11347db7	lui	x27,0x11347	 x27=0x11347000
       15585000	      1557	80001030	0371ce03	lbu	x28,55(x3)	  x3:0x800081c8 x28=0x000000b1 PA:0x800081ff
       15595000	      1558	80001034	fc718083	lb	x1,-57(x3)	  x3:0x800081c8  x1=0x00000000 PA:0x8000818f
       15605000	      1559	80001038	01e7d9b3	srl	x19,x15,x30	 x15:0x00000000 x30:0xf2903d81 x19=0x00000000
       15615000	      1560	8000103c	02b1a623	sw	x11,44(x3)	  x3:0x800081c8 x11:0x00000001 PA:0x800081f4
       15625000	      1561	80001040	02a18c03	lb	x24,42(x3)	  x3:0x800081c8 x24=0xffffff97 PA:0x800081f2
       15635000	      1562	80001044	0d1e7393	andi	x7,x28,209	 x28:0x000000b1  x7=0x00000091
       15645000	      1563	80001048	0111ce03	lbu	x28,17(x3)	  x3:0x800081c8 x28=0x0000002b PA:0x800081d9
       15655000	      1564	8000104c	01e68033	add	x0,x13,x30	 x13:0x00000001 x30:0xf2903d81
       15665000	      1565	80001050	d24b4d13	xori	x26,x22,-732	 x22:0x7a538000 x26=0x85ac7d24
       15675000	      1566	80001054	fc318a03	lb	x20,-61(x3)	  x3:0x800081c8 x20=0x0000005f PA:0x8000818b
       15685000	      1567	80001058	00008897	auipc	x17,0x8	 x17=0x80009054
       15695000	      1568	8000105c	eb788893	addi	x17,x17,-329	 x17:0x80009054 x17=0x80008f0b
       15705000	      1569	80001060	0229aa97	auipc	x21,0x229a	 x21=0x8229b05c
       15715000	      1570	80001064	9c48c183	lbu	x3,-1596(x17)	 x17:0x80008f0b  x3=0x00000052 PA:0x800088cf
       15725000	      1571	80001068	00688b03	lb	x22,6(x17)	 x17:0x80008f0b x22=0xffffff81 PA:0x80008f11
       15735000	      1572	8000106c	f648c083	lbu	x1,-156(x17)	 x17:0x80008f0b  x1=0x00000058 PA:0x80008e6f
       15745000	      1573	80001070	41b482b3	sub	x5,x9,x27	  x9:0x000000b3 x27:0x11347000  x5=0xeecb90b3
       15755000	      1574	80001074	01c99f93	slli	x31,x19,0x1c	 x19:0x00000000 x31=0x00000000
       15765000	      1575	80001078	f5788023	sb	x23,-192(x17)	 x17:0x80008f0b x23:0x00000000 PA:0x80008e4b
       15775000	      1576	8000107c	cf3de093	ori	x1,x27,-781	 x27:0x11347000  x1=0xfffffcf3
       15785000	      1577	80001080	01ed1a93	slli	x21,x26,0x1e	 x26:0x85ac7d24 x21=0x00000000
       15795000	      1578	80001084	d2714513	xori	x10,x2,-729	  x2:0x00000000 x10=0xfffffd27
       15805000	      1579	80001088	a1288623	sb	x18,-1524(x17)	 x17:0x80008f0b x18:0x80009f10 PA:0x80008917
       15815000	      1580	8000108c	3084e813	ori	x16,x9,776	  x9:0x000000b3 x16=0x000003bb
       15825000	      1581	80001090	4015d493	srai	x9,x11,0x1	 x11:0x00000001  x9=0x00000000
       15835000	      1582	80001094	01cc5c33	srl	x24,x24,x28	 x24:0xffffff97 x28:0x0000002b x24=0x001fffff
       15845000	      1583	80001098	3f33ad13	slti	x26,x7,1011	  x7:0x00000091 x26=0x00000001
       15855000	      1584	8000109c	b6b89203	lh	x4,-1173(x17)	 x17:0x80008f0b  x4=0x00007813 PA:0x80008a76
       15865000	      1585	800010a0	0dc88483	lb	x9,220(x17)	 x17:0x80008f0b  x9=0x00000009 PA:0x80008fe7
       15875000	      1586	800010a4	a318c503	lbu	x10,-1487(x17)	 x17:0x80008f0b x10=0x00000022 PA:0x8000893c
       15885000	      1587	800010a8	af074fb7	lui	x31,0xaf074	 x31=0xaf074000
       15895000	      1588	800010ac	00d8a703	lw	x14,13(x17)	 x17:0x80008f0b x14=0xb0809b4d PA:0x80008f18
       15905000	      1589	800010b0	010ca7b3	slt	x15,x25,x16	 x25:0x903d493c x16:0x000003bb x15=0x00000001
       15915000	      1590	800010b4	0468c383	lbu	x7,70(x17)	 x17:0x80008f0b  x7=0x000000f5 PA:0x80008f51
       15925000	      1591	800010b8	ccd8d503	lhu	x10,-819(x17)	 x17:0x80008f0b x10=0x00007dc7 PA:0x80008bd8
       15935000	      1592	800010bc	8495c713	xori	x14,x11,-1975	 x11:0x00000001 x14=0xfffff848
       15945000	      1593	800010c0	9ca82513	slti	x10,x16,-1590	 x16:0x000003bb x10=0x00000000
       15955000	      1594	800010c4	403c5eb3	sra	x29,x24,x3	 x24:0x001fffff  x3:0x00000052 x29=0x00000007
       15965000	      1595	800010c8	a108c483	lbu	x9,-1520(x17)	 x17:0x80008f0b  x9=0x000000cd PA:0x8000891b
       15975000	      1596	800010cc	008db033	sltu	x0,x27,x8	 x27:0x11347000  x8:0x00000000
       15985000	      1597	800010d0	00b7ecb3	or	x25,x15,x11	 x15:0x00000001 x11:0x00000001 x25=0x00000001
       15995000	      1598	800010d4	41375713	srai	x14,x14,0x13	 x14:0xfffff848 x14=0xffffffff
       16005000	      1599	800010d8	bc088b23	sb	x0,-1066(x17)	 x17:0x80008f0b  x0:0x00000000 PA:0x80008ae1
       16015000	      1600	800010dc	00007f97	auipc	x31,0x7	 x31=0x800080d8
       16025000	      1601	800010e0	63cf8f93	addi	x31,x31,1596	 x31:0x800080d8 x31=0x80008714
       16035000	      1602	800010e4	ff0f9a23	sh	x16,-12(x31)	 x31:0x80008714 x16:0x000003bb PA:0x80008708
       16045000	      1603	800010e8	003fc483	lbu	x9,3(x31)	 x31:0x80008714  x9=0x0000006e PA:0x80008717
       16055000	      1604	800010ec	fe0f8ba3	sb	x0,-9(x31)	 x31:0x80008714  x0:0x00000000 PA:0x8000870b
       16065000	      1605	800010f0	febf9a23	sh	x11,-12(x31)	 x31:0x80008714 x11:0x00000001 PA:0x80008708
       16075000	      1606	800010f4	ffff8583	lb	x11,-1(x31)	 x31:0x80008714 x11=0xffffff8d PA:0x80008713
       16085000	      1607	800010f8	fe1fa823	sw	x1,-16(x31)	 x31:0x80008714  x1:0xfffffcf3 PA:0x80008704
       16095000	      1608	800010fc	ff5f8e83	lb	x29,-11(x31)	 x31:0x80008714 x29=0x00000000 PA:0x80008709
       16105000	      1609	80001100	fb18b417	auipc	x8,0xfb18b	  x8=0x7b18c0fc
       16115000	      1610	80001104	011c6733	or	x14,x24,x17	 x24:0x001fffff x17:0x80008f0b x14=0x801fffff
       16125000	      1611	80001108	00cf8823	sb	x12,16(x31)	 x31:0x80008714 x12:0x80009fc4 PA:0x80008724
       16135000	      1612	8000110c	011f80a3	sb	x17,1(x31)	 x31:0x80008714 x17:0x80008f0b PA:0x80008715
       16145000	      1613	80001110	0fd0c293	xori	x5,x1,253	  x1:0xfffffcf3  x5=0xfffffc0e
       16155000	      1614	80001114	00079313	slli	x6,x15,0x0	 x15:0x00000001  x6=0x00000001
       16165000	      1615	80001118	ff7f8503	lb	x10,-9(x31)	 x31:0x80008714 x10=0x00000000 PA:0x8000870b
       16175000	      1616	8000111c	99832593	slti	x11,x6,-1640	  x6:0x00000001 x11=0x00000000
       16185000	      1617	80001120	ff1fc983	lbu	x19,-15(x31)	 x31:0x80008714 x19=0x000000fc PA:0x80008705
       16195000	      1618	80001124	00659113	slli	x2,x11,0x6	 x11:0x00000000  x2=0x00000000
       16205000	      1619	80001128	003f8083	lb	x1,3(x31)	 x31:0x80008714  x1=0x0000006e PA:0x80008717
       16215000	      1620	8000112c	41ae5993	srai	x19,x28,0x1a	 x28:0x0000002b x19=0x00000000
       16225000	      1621	80001130	c6a9c393	xori	x7,x19,-918	 x19:0x00000000  x7=0xfffffc6a
       16235000	      1622	80001134	00ae90b3	sll	x1,x29,x10	 x29:0x00000000 x10:0x00000000  x1=0x00000000
       16245000	      1623	80001138	00ef8b83	lb	x23,14(x31)	 x31:0x80008714 x23=0x0000000a PA:0x80008722
       16255000	      1624	8000113c	48c42193	slti	x3,x8,1164	  x8:0x7b18c0fc  x3=0x00000000
       16265000	      1625	80001140	5b290413	addi	x8,x18,1458	 x18:0x80009f10  x8=0x8000a4c2
       16275000	      1626	80001144	00b808b3	add	x17,x16,x11	 x16:0x000003bb x11:0x00000000 x17=0x000003bb
       16285000	      1627	80001148	01a87e33	and	x28,x16,x26	 x16:0x000003bb x26:0x00000001 x28=0x00000001
       16295000	      1628	8000114c	cae75717	auipc	x14,0xcae75	 x14=0x4ae76148
       16305000	      1629	80001150	40325b13	srai	x22,x4,0x3	  x4:0x00007813 x22=0x00000f02
       16315000	      1630	80001154	8e9fa893	slti	x17,x31,-1815	 x31:0x80008714 x17=0x00000001
       16325000	      1631	80001158	210d2817	auipc	x16,0x210d2	 x16=0xa10d3154
       16335000	      1632	8000115c	01d376b3	and	x13,x6,x29	  x6:0x00000001 x29:0x00000000 x13=0x00000000
       16345000	      1633	80001160	ff3fc983	lbu	x19,-13(x31)	 x31:0x80008714 x19=0x000000ff PA:0x80008707
       16355000	      1634	80001164	dc2ee893	ori	x17,x29,-574	 x29:0x00000000 x17=0xfffffdc2
       16365000	      1635	80001168	000a48b3	xor	x17,x20,x0	 x20:0x0000005f  x0:0x00000000 x17=0x0000005f
       16375000	      1636	8000116c	000fa003	lw	x0,0(x31)	 x31:0x80008714 PA:0x80008714
       16385000	      1637	80001170	918b0313	addi	x6,x22,-1768	 x22:0x00000f02  x6=0x0000081a
       16395000	      1638	80001174	01f86c33	or	x24,x16,x31	 x16:0xa10d3154 x31:0x80008714 x24=0xa10db754
       16405000	      1639	80001178	014f83a3	sb	x20,7(x31)	 x31:0x80008714 x20:0x0000005f PA:0x8000871b
       16415000	      1640	8000117c	ffdf9823	sh	x29,-16(x31)	 x31:0x80008714 x29:0x00000000 PA:0x80008704
       16425000	      1641	80001180	00353333	sltu	x6,x10,x3	 x10:0x00000000  x3:0x00000000  x6=0x00000000
       16435000	      1642	80001184	00000013	addi	x0,x0,0	  x0:0x00000000
       16445000	      1643	80001188	ff0f8803	lb	x16,-16(x31)	 x31:0x80008714 x16=0x00000000 PA:0x80008704
       16455000	      1644	8000118c	b0e0ca13	xori	x20,x1,-1266	  x1:0x00000000 x20=0xfffffb0e
       16465000	      1645	80001190	ff2f9383	lh	x7,-14(x31)	 x31:0x80008714  x7=0xffffffff PA:0x80008706
       16475000	      1646	80001194	ff4f8ea3	sb	x20,-3(x31)	 x31:0x80008714 x20:0xfffffb0e PA:0x80008711
       16485000	      1647	80001198	01b7b333	sltu	x6,x15,x27	 x15:0x00000001 x27:0x11347000  x6=0x00000001
       16495000	      1648	8000119c	ff2f9283	lh	x5,-14(x31)	 x31:0x80008714  x5=0xffffffff PA:0x80008706
       16505000	      1649	800011a0	409c0ab3	sub	x21,x24,x9	 x24:0xa10db754  x9:0x0000006e x21=0xa10db6e6
       16515000	      1650	800011a4	ffffca03	lbu	x20,-1(x31)	 x31:0x80008714 x20=0x0000008d PA:0x80008713
       16525000	      1651	800011a8	3f943c97	auipc	x25,0x3f943	 x25=0xbf9441a4
       16535000	      1652	800011ac	01a0beb3	sltu	x29,x1,x26	  x1:0x00000000 x26:0x00000001 x29=0x00000001
       16545000	      1653	800011b0	0086d893	srli	x17,x13,0x8	 x13:0x00000000 x17=0x00000000
       16555000	      1654	800011b4	00ef8e03	lb	x28,14(x31)	 x31:0x80008714 x28=0x0000000a PA:0x80008722
       16565000	      1655	800011b8	00007817	auipc	x16,0x7	 x16=0x800081b4
       16575000	      1656	800011bc	53880813	addi	x16,x16,1336	 x16:0x800081b4 x16=0x800086ec
       16585000	      1657	800011c0	00380b83	lb	x23,3(x16)	 x16:0x800086ec x23=0x00000001 PA:0x800086ef
       16595000	      1658	800011c4	00480e03	lb	x28,4(x16)	 x16:0x800086ec x28=0x00000010 PA:0x800086f0
       16605000	      1659	800011c8	00284d03	lbu	x26,2(x16)	 x16:0x800086ec x26=0x00000008 PA:0x800086ee
       16615000	      1660	800011cc	60e22513	slti	x10,x4,1550	  x4:0x00007813 x10=0x00000000
       16625000	      1661	800011d0	0a72f013	andi	x0,x5,167	  x5:0xffffffff
       16635000	      1662	800011d4	014e5093	srli	x1,x28,0x14	 x28:0x00000010  x1=0x00000000
       16645000	      1663	800011d8	00f80503	lb	x10,15(x16)	 x16:0x800086ec x10=0xfffffffe PA:0x800086fb
       16655000	      1664	800011dc	1d767f93	andi	x31,x12,471	 x12:0x80009fc4 x31=0x000001c4
       16665000	      1665	800011e0	41d38433	sub	x8,x7,x29	  x7:0xffffffff x29:0x00000001  x8=0xfffffffe
       16675000	      1666	800011e4	00984983	lbu	x19,9(x16)	 x16:0x800086ec x19=0x00000040 PA:0x800086f5
       16685000	      1667	800011e8	ff080823	sb	x16,-16(x16)	 x16:0x800086ec x16:0x800086ec PA:0x800086dc
       16695000	      1668	800011ec	00281983	lh	x19,2(x16)	 x16:0x800086ec x19=0x00000108 PA:0x800086ee
       16705000	      1669	800011f0	01080203	lb	x4,16(x16)	 x16:0x800086ec  x4=0x00000060 PA:0x800086fc
       16715000	      1670	800011f4	00f0f1b3	and	x3,x1,x15	  x1:0x00000000 x15:0x00000001  x3=0x00000000
       16725000	      1671	800011f8	00b84b03	lbu	x22,11(x16)	 x16:0x800086ec x22=0x00000013 PA:0x800086f7
       16735000	      1672	800011fc	8a7f4793	xori	x15,x30,-1881	 x30:0xf2903d81 x15=0x0d6fc526
       16745000	      1673	80001200	00c84303	lbu	x6,12(x16)	 x16:0x800086ec  x6=0x00000084 PA:0x800086f8
       16755000	      1674	80001204	4120ddb3	sra	x27,x1,x18	  x1:0x00000000 x18:0x80009f10 x27=0x00000000
       16765000	      1675	80001208	00e805a3	sb	x14,11(x16)	 x16:0x800086ec x14:0x4ae76148 PA:0x800086f7
       16775000	      1676	8000120c	00e9d113	srli	x2,x19,0xe	 x19:0x00000108  x2=0x00000000
       16785000	      1677	80001210	012a7533	and	x10,x20,x18	 x20:0x0000008d x18:0x80009f10 x10=0x00000000
       16795000	      1678	80001214	00c1fe33	and	x28,x3,x12	  x3:0x00000000 x12:0x80009fc4 x28=0x00000000
       16805000	      1679	80001218	fee82c23	sw	x14,-8(x16)	 x16:0x800086ec x14:0x4ae76148 PA:0x800086e4
       16815000	      1680	8000121c	ffd84a83	lbu	x21,-3(x16)	 x16:0x800086ec x21=0x00000014 PA:0x800086e9
       16825000	      1681	80001220	cf9a3b37	lui	x22,0xcf9a3	 x22=0xcf9a3000
       16835000	      1682	80001224	01cc82b3	add	x5,x25,x28	 x25:0xbf9441a4 x28:0x00000000  x5=0xbf9441a4
       16845000	      1683	80001228	ffa81283	lh	x5,-6(x16)	 x16:0x800086ec  x5=0x00004ae7 PA:0x800086e6
       16855000	      1684	8000122c	db5b4d93	xori	x27,x22,-587	 x22:0xcf9a3000 x27=0x3065cdb5
       16865000	      1685	80001230	ff281183	lh	x3,-14(x16)	 x16:0x800086ec  x3=0x000069c7 PA:0x800086de
       16875000	      1686	80001234	01280023	sb	x18,0(x16)	 x16:0x800086ec x18:0x80009f10 PA:0x800086ec
       16885000	      1687	80001238	00b80303	lb	x6,11(x16)	 x16:0x800086ec  x6=0x00000048 PA:0x800086f7
       16895000	      1688	8000123c	01780523	sb	x23,10(x16)	 x16:0x800086ec x23:0x00000001 PA:0x800086f6
       16905000	      1689	80001240	ff080883	lb	x17,-16(x16)	 x16:0x800086ec x17=0xffffffec PA:0x800086dc
       16915000	      1690	80001244	00007097	auipc	x1,0x7	  x1=0x80008240
       16925000	      1691	80001248	15508093	addi	x1,x1,341	  x1:0x80008240  x1=0x80008395
       16935000	      1692	8000124c	41db57b3	sra	x15,x22,x29	 x22:0xcf9a3000 x29:0x00000001 x15=0xe7cd1800
       16945000	      1693	80001250	15a08aa3	sb	x26,341(x1)	  x1:0x80008395 x26:0x00000008 PA:0x800084ea
       16955000	      1694	80001254	2f70ce03	lbu	x28,759(x1)	  x1:0x80008395 x28=0x00000071 PA:0x8000868c
       16965000	      1695	80001258	622f0593	addi	x11,x30,1570	 x30:0xf2903d81 x11=0xf29043a3
       16975000	      1696	8000125c	00408923	sb	x4,18(x1)	  x1:0x80008395  x4:0x00000060 PA:0x800083a7
       16985000	      1697	80001260	3dc0cd03	lbu	x26,988(x1)	  x1:0x80008395 x26=0x000000ce PA:0x80008771
       16995000	      1698	80001264	003082a3	sb	x3,5(x1)	  x1:0x80008395  x3:0x000069c7 PA:0x8000839a
       17005000	      1699	80001268	d6608103	lb	x2,-666(x1)	  x1:0x80008395  x2=0xffffff98 PA:0x800080fb
       17015000	      1700	8000126c	1504ba13	sltiu	x20,x9,336	  x9:0x0000006e x20=0x00000001
       17025000	      1701	80001270	f0b0dc83	lhu	x25,-245(x1)	  x1:0x80008395 x25=0x00000ffa PA:0x800082a0
       17035000	      1702	80001274	01f241b3	xor	x3,x4,x31	  x4:0x00000060 x31:0x000001c4  x3=0x000001a4
       17045000	      1703	80001278	384dba93	sltiu	x21,x27,900	 x27:0x3065cdb5 x21=0x00000000
       17055000	      1704	8000127c	040097a3	sh	x0,79(x1)	  x1:0x80008395  x0:0x00000000 PA:0x800083e4
       17065000	      1705	80001280	d880c103	lbu	x2,-632(x1)	  x1:0x80008395  x2=0x00000041 PA:0x8000811d
       17075000	      1706	80001284	419d5b93	srai	x23,x26,0x19	 x26:0x000000ce x23=0x00000000
       17085000	      1707	80001288	c1b48993	addi	x19,x9,-997	  x9:0x0000006e x19=0xfffffc89
       17095000	      1708	8000128c	0118b233	sltu	x4,x17,x17	 x17:0xffffffec x17:0xffffffec  x4=0x00000000
       17105000	      1709	80001290	431088a3	sb	x17,1073(x1)	  x1:0x80008395 x17:0xffffffec PA:0x800087c6
       17115000	      1710	80001294	013ed433	srl	x8,x29,x19	 x29:0x00000001 x19:0xfffffc89  x8=0x00000000
       17125000	      1711	80001298	01edd893	srli	x17,x27,0x1e	 x27:0x3065cdb5 x17=0x00000000
       17135000	      1712	8000129c	3ea08323	sb	x10,998(x1)	  x1:0x80008395 x10:0x00000000 PA:0x8000877b
       17145000	      1713	800012a0	00000013	addi	x0,x0,0	  x0:0x00000000
       17155000	      1714	800012a4	cec08b23	sb	x12,-778(x1)	  x1:0x80008395 x12:0x80009fc4 PA:0x8000808b
       17165000	      1715	800012a8	00241333	sll	x6,x8,x2	  x8:0x00000000  x2:0x00000041  x6=0x00000000
       17175000	      1716	800012ac	1790c303	lbu	x6,377(x1)	  x1:0x80008395  x6=0x000000a0 PA:0x8000850e
       17185000	      1717	800012b0	00f18133	add	x2,x3,x15	  x3:0x000001a4 x15:0xe7cd1800  x2=0xe7cd19a4
       17195000	      1718	800012b4	f2a092a3	sh	x10,-219(x1)	  x1:0x80008395 x10:0x00000000 PA:0x800082ba
       17205000	      1719	800012b8	1dc0c003	lbu	x0,476(x1)	  x1:0x80008395 PA:0x80008571
       17215000	      1720	800012bc	00007117	auipc	x2,0x7	  x2=0x800082b8
       17225000	      1721	800012c0	2cc10113	addi	x2,x2,716	  x2:0x800082b8  x2=0x80008584
       17235000	      1722	800012c4	402a50b3	sra	x1,x20,x2	 x20:0x00000001  x2:0x80008584  x1=0x00000000
       17245000	      1723	800012c8	f6914b03	lbu	x22,-151(x2)	  x2:0x80008584 x22=0x000000bc PA:0x800084ed
       17255000	      1724	800012cc	44554b13	xori	x22,x10,1093	 x10:0x00000000 x22=0x00000445
       17265000	      1725	800012d0	af4e4293	xori	x5,x28,-1292	 x28:0x00000071  x5=0xfffffa85
       17275000	      1726	800012d4	40e05833	sra	x16,x0,x14	  x0:0x00000000 x14:0x4ae76148 x16=0x00000000
       17285000	      1727	800012d8	5d424e93	xori	x29,x4,1492	  x4:0x00000000 x29=0x000005d4
       17295000	      1728	800012dc	f7412823	sw	x20,-144(x2)	  x2:0x80008584 x20:0x00000001 PA:0x800084f4
       17305000	      1729	800012e0	815b2e13	slti	x28,x22,-2027	 x22:0x00000445 x28=0x00000000
       17315000	      1730	800012e4	01f3acb3	slt	x25,x7,x31	  x7:0xffffffff x31:0x000001c4 x25=0x00000001
       17325000	      1731	800012e8	00914c83	lbu	x25,9(x2)	  x2:0x80008584 x25=0x000000d6 PA:0x8000858d
       17335000	      1732	800012ec	008fc833	xor	x16,x31,x8	 x31:0x000001c4  x8:0x00000000 x16=0x000001c4
       17345000	      1733	800012f0	f5f10003	lb	x0,-161(x2)	  x2:0x80008584 PA:0x800084e3
       17355000	      1734	800012f4	002bc033	xor	x0,x23,x2	 x23:0x00000000  x2:0x80008584
       17365000	      1735	800012f8	00499093	slli	x1,x19,0x4	 x19:0xfffffc89  x1=0xffffc890
       17375000	      1736	800012fc	003107b3	add	x15,x2,x3	  x2:0x80008584  x3:0x000001a4 x15=0x80008728
       17385000	      1737	80001300	01fb5c93	srli	x25,x22,0x1f	 x22:0x00000445 x25=0x00000000
       17395000	      1738	80001304	00df9db3	sll	x27,x31,x13	 x31:0x000001c4 x13:0x00000000 x27=0x000001c4
       17405000	      1739	80001308	f8114e03	lbu	x28,-127(x2)	  x2:0x80008584 x28=0x00000012 PA:0x80008505
       17415000	      1740	8000130c	0147cab3	xor	x21,x15,x20	 x15:0x80008728 x20:0x00000001 x21=0x80008729
       17425000	      1741	80001310	01670533	add	x10,x14,x22	 x14:0x4ae76148 x22:0x00000445 x10=0x4ae7658d
       17435000	      1742	80001314	f6615d03	lhu	x26,-154(x2)	  x2:0x80008584 x26=0x00003e08 PA:0x800084ea
       17445000	      1743	80001318	41ced293	srai	x5,x29,0x1c	 x29:0x000005d4  x5=0x00000000
       17455000	      1744	8000131c	00ee5b13	srli	x22,x28,0xe	 x28:0x00000012 x22=0x00000000
       17465000	      1745	80001320	f3d10703	lb	x14,-195(x2)	  x2:0x80008584 x14=0x0000000d PA:0x800084c1
       17475000	      1746	80001324	f7610883	lb	x17,-138(x2)	  x2:0x80008584 x17=0x00000048 PA:0x800084fa
       17485000	      1747	80001328	0b212023	sw	x18,160(x2)	  x2:0x80008584 x18:0x80009f10 PA:0x80008624
       17495000	      1748	8000132c	00ec4033	xor	x0,x24,x14	 x24:0xa10db754 x14:0x0000000d
       17505000	      1749	80001330	0056de13	srli	x28,x13,0x5	 x13:0x00000000 x28=0x00000000
       17515000	      1750	80001334	01e32e33	slt	x28,x6,x30	  x6:0x000000a0 x30:0xf2903d81 x28=0x00000000
       17525000	      1751	80001338	f7d14b03	lbu	x22,-131(x2)	  x2:0x80008584 x22=0x000000b4 PA:0x80008501
       17535000	      1752	8000133c	f5011d83	lh	x27,-176(x2)	  x2:0x80008584 x27=0xffffc882 PA:0x800084d4
       17545000	      1753	80001340	001519b3	sll	x19,x10,x1	 x10:0x4ae7658d  x1:0xffffc890 x19=0x658d0000
       17555000	      1754	80001344	39164a13	xori	x20,x12,913	 x12:0x80009fc4 x20=0x80009c55
       17565000	      1755	80001348	00c34ab3	xor	x21,x6,x12	  x6:0x000000a0 x12:0x80009fc4 x21=0x80009f64
       17575000	      1756	8000134c	0132d033	srl	x0,x5,x19	  x5:0x00000000 x19:0x658d0000
       17585000	      1757	80001350	0020dc13	srli	x24,x1,0x2	  x1:0xffffc890 x24=0x3ffff224
       17595000	      1758	80001354	fda14b03	lbu	x22,-38(x2)	  x2:0x80008584 x22=0x0000002c PA:0x8000855e
       17605000	      1759	80001358	0140a9b3	slt	x19,x1,x20	  x1:0xffffc890 x20:0x80009c55 x19=0x00000000
       17615000	      1760	8000135c	fb110183	lb	x3,-79(x2)	  x2:0x80008584  x3=0x0000001e PA:0x80008535
       17625000	      1761	80001360	fbb10ea3	sb	x27,-67(x2)	  x2:0x80008584 x27:0xffffc882 PA:0x80008541
       17635000	      1762	80001364	0d2100a3	sb	x18,193(x2)	  x2:0x80008584 x18:0x80009f10 PA:0x80008645
       17645000	      1763	80001368	00007097	auipc	x1,0x7	  x1=0x80008364
       17655000	      1764	8000136c	fb908093	addi	x1,x1,-71	  x1:0x80008364  x1=0x8000831d
       17665000	      1765	80001370	ff409ea3	sh	x20,-3(x1)	  x1:0x8000831d x20:0x80009c55 PA:0x8000831a
       17675000	      1766	80001374	0055c4b3	xor	x9,x11,x5	 x11:0xf29043a3  x5:0x00000000  x9=0xf29043a3
       17685000	      1767	80001378	007dce33	xor	x28,x27,x7	 x27:0xffffc882  x7:0xffffffff x28=0x0000377d
       17695000	      1768	8000137c	ffc08d03	lb	x26,-4(x1)	  x1:0x8000831d x26=0x00000069 PA:0x80008319
       17705000	      1769	80001380	01e74eb3	xor	x29,x14,x30	 x14:0x0000000d x30:0xf2903d81 x29=0xf2903d8c
       17715000	      1770	80001384	010c8bb3	add	x23,x25,x16	 x25:0x00000000 x16:0x000001c4 x23=0x000001c4
       17725000	      1771	80001388	5fa3e717	auipc	x14,0x5fa3e	 x14=0xdfa3f384
       17735000	      1772	8000138c	014572b3	and	x5,x10,x20	 x10:0x4ae7658d x20:0x80009c55  x5=0x00000405
       17745000	      1773	80001390	38c17c17	auipc	x24,0x38c17	 x24=0xb8c1838c
       17755000	      1774	80001394	00eca833	slt	x16,x25,x14	 x25:0x00000000 x14:0xdfa3f384 x16=0x00000000
       17765000	      1775	80001398	0090da83	lhu	x21,9(x1)	  x1:0x8000831d x21=0x00002a1f PA:0x80008326
       17775000	      1776	8000139c	ff309803	lh	x16,-13(x1)	  x1:0x8000831d x16=0xffffa768 PA:0x80008310
       17785000	      1777	800013a0	ff108e83	lb	x29,-15(x1)	  x1:0x8000831d x29=0x0000000f PA:0x8000830e
       17795000	      1778	800013a4	ff609ca3	sh	x22,-7(x1)	  x1:0x8000831d x22:0x0000002c PA:0x80008316
       17805000	      1779	800013a8	01111d33	sll	x26,x2,x17	  x2:0x80008584 x17:0x00000048 x26=0x00858400
       17815000	      1780	800013ac	0070cd03	lbu	x26,7(x1)	  x1:0x8000831d x26=0x00000082 PA:0x80008324
       17825000	      1781	800013b0	62b97393	andi	x7,x18,1579	 x18:0x80009f10  x7=0x00000600
       17835000	      1782	800013b4	0090cf83	lbu	x31,9(x1)	  x1:0x8000831d x31=0x0000001f PA:0x80008326
       17845000	      1783	800013b8	0088fc33	and	x24,x17,x8	 x17:0x00000048  x8:0x00000000 x24=0x00000000
       17855000	      1784	800013bc	ff90d303	lhu	x6,-7(x1)	  x1:0x8000831d  x6=0x0000002c PA:0x80008316
       17865000	      1785	800013c0	01ba9793	slli	x15,x21,0x1b	 x21:0x00002a1f x15=0xf8000000
       17875000	      1786	800013c4	0080c503	lbu	x10,8(x1)	  x1:0x8000831d x10=0x000000c3 PA:0x80008325
       17885000	      1787	800013c8	0025a333	slt	x6,x11,x2	 x11:0xf29043a3  x2:0x80008584  x6=0x00000000
       17895000	      1788	800013cc	ff408583	lb	x11,-12(x1)	  x1:0x8000831d x11=0xffffffa7 PA:0x80008311
       17905000	      1789	800013d0	00a38233	add	x4,x7,x10	  x7:0x00000600 x10:0x000000c3  x4=0x000006c3
       17915000	      1790	800013d4	ff80c403	lbu	x8,-8(x1)	  x1:0x8000831d  x8=0x0000000b PA:0x80008315
       17925000	      1791	800013d8	97eeb193	sltiu	x3,x29,-1666	 x29:0x0000000f  x3=0x00000001
       17935000	      1792	800013dc	01008303	lb	x6,16(x1)	  x1:0x8000831d  x6=0xffffffc2 PA:0x8000832d
       17945000	      1793	800013e0	ffd08583	lb	x11,-3(x1)	  x1:0x8000831d x11=0x00000055 PA:0x8000831a
       17955000	      1794	800013e4	ff30d203	lhu	x4,-13(x1)	  x1:0x8000831d  x4=0x0000a768 PA:0x80008310
       17965000	      1795	800013e8	9f08e013	ori	x0,x17,-1552	 x17:0x00000048
       17975000	      1796	800013ec	00c0c433	xor	x8,x1,x12	  x1:0x8000831d x12:0x80009fc4  x8=0x00001cd9
       17985000	      1797	800013f0	006080a3	sb	x6,1(x1)	  x1:0x8000831d  x6:0xffffffc2 PA:0x8000831e
       17995000	      1798	800013f4	26648b93	addi	x23,x9,614	  x9:0xf29043a3 x23=0xf2904609
       18005000	      1799	800013f8	00f0ac83	lw	x25,15(x1)	  x1:0x8000831d x25=0x2dd7c215 PA:0x8000832c
       18015000	      1800	800013fc	00007117	auipc	x2,0x7	  x2=0x800083f8
       18025000	      1801	80001400	30410113	addi	x2,x2,772	  x2:0x800083f8  x2=0x800086fc
       18035000	      1802	80001404	00cfe533	or	x10,x31,x12	 x31:0x0000001f x12:0x80009fc4 x10=0x80009fdf
       18045000	      1803	80001408	41148c33	sub	x24,x9,x17	  x9:0xf29043a3 x17:0x00000048 x24=0xf290435b
       18055000	      1804	8000140c	00514203	lbu	x4,5(x2)	  x2:0x800086fc  x4=0x000000c7 PA:0x80008701
       18065000	      1805	80001410	bbfda037	lui	x0,0xbbfda	
       18075000	      1806	80001414	fed10823	sb	x13,-16(x2)	  x2:0x800086fc x13:0x00000000 PA:0x800086ec
       18085000	      1807	80001418	00f105a3	sb	x15,11(x2)	  x2:0x800086fc x15:0xf8000000 PA:0x80008707
       18095000	      1808	8000141c	017857b3	srl	x15,x16,x23	 x16:0xffffa768 x23:0xf2904609 x15=0x007fffd3
       18105000	      1809	80001420	977bac93	slti	x25,x23,-1673	 x23:0xf2904609 x25=0x00000001
       18115000	      1810	80001424	00714d83	lbu	x27,7(x2)	  x2:0x800086fc x27=0x00000023 PA:0x80008703
       18125000	      1811	80001428	ff815783	lhu	x15,-8(x2)	  x2:0x800086fc x15=0x00004005 PA:0x800086f4
       18135000	      1812	00000000	00000013	addi	x0,x0,0	  x0:0x00000000
       18145000	      1813	8000142c	3d57d797	auipc	x15,0x3d57d	 x15=0xbd57e428
       18155000	      1814	80001430	5159a093	slti	x1,x19,1301	 x19:0x00000000  x1=0x00000001
       18165000	      1815	80001434	104a8c93	addi	x25,x21,260	 x21:0x00002a1f x25=0x00002b23
       18175000	      1816	80001438	01d106a3	sb	x29,13(x2)	  x2:0x800086fc x29:0x0000000f PA:0x80008709
       18185000	      1817	8000143c	00314703	lbu	x14,3(x2)	  x2:0x800086fc x14=0x00000034 PA:0x800086ff
       18195000	      1818	80001440	63f53c13	sltiu	x24,x10,1599	 x10:0x80009fdf x24=0x00000000
       18205000	      1819	80001444	419d5193	srai	x3,x26,0x19	 x26:0x00000082  x3=0x00000000
       18215000	      1820	80001448	ff710c03	lb	x24,-9(x2)	  x2:0x800086fc x24=0xffffffa3 PA:0x800086f3
       18225000	      1821	8000144c	005ceeb3	or	x29,x25,x5	 x25:0x00002b23  x5:0x00000405 x29=0x00002f27
       18235000	      1822	80001450	00412183	lw	x3,4(x2)	  x2:0x800086fc  x3=0x237cc7b5 PA:0x80008700
       18245000	      1823	80001454	00000013	addi	x0,x0,0	  x0:0x00000000
       18255000	      1824	80001458	ff610d03	lb	x26,-10(x2)	  x2:0x800086fc x26=0x00000057 PA:0x800086f2
       18265000	      1825	8000145c	00314303	lbu	x6,3(x2)	  x2:0x800086fc  x6=0x00000034 PA:0x800086ff
       18275000	      1826	80001460	00729033	sll	x0,x5,x7	  x5:0x00000405  x7:0x00000600
       18285000	      1827	80001464	00714a03	lbu	x20,7(x2)	  x2:0x800086fc x20=0x00000023 PA:0x80008703
       18295000	      1828	80001468	8aa1be93	sltiu	x29,x3,-1878	  x3:0x237cc7b5 x29=0x00000001
       18305000	      1829	8000146c	00f14383	lbu	x7,15(x2)	  x2:0x800086fc  x7=0x00000000 PA:0x8000870b
       18315000	      1830	80001470	ffe10383	lb	x7,-2(x2)	  x2:0x800086fc  x7=0xffffff83 PA:0x800086fa
       18325000	      1831	80001474	a45b6d93	ori	x27,x22,-1467	 x22:0x0000002c x27=0xfffffa6d
       18335000	      1832	80001478	184a4493	xori	x9,x20,388	 x20:0x00000023  x9=0x000001a7
       18345000	      1833	8000147c	e1bf4593	xori	x11,x30,-485	 x30:0xf2903d81 x11=0x0d6fc39a
       18355000	      1834	80001480	00114683	lbu	x13,1(x2)	  x2:0x800086fc x13=0x000000a1 PA:0x800086fd
       18365000	      1835	80001484	01911123	sh	x25,2(x2)	  x2:0x800086fc x25:0x00002b23 PA:0x800086fe
       18375000	      1836	80001488	01010e83	lb	x29,16(x2)	  x2:0x800086fc x29=0x00000047 PA:0x8000870c
       18385000	      1837	00000000	00000013	addi	x0,x0,0	  x0:0x00000000
       18395000	      1838	8000148c	37d43b13	sltiu	x22,x8,893	  x8:0x00001cd9 x22=0x00000000
       18405000	      1839	80001490	00110983	lb	x19,1(x2)	  x2:0x800086fc x19=0xffffffa1 PA:0x800086fd
       18415000	      1840	80001494	01010723	sb	x16,14(x2)	  x2:0x800086fc x16:0xffffa768 PA:0x8000870a
       18425000	      1841	80001498	01c0d313	srli	x6,x1,0x1c	  x1:0x00000001  x6=0x00000000
       18435000	      1842	8000149c	00f14303	lbu	x6,15(x2)	  x2:0x800086fc  x6=0x00000000 PA:0x8000870b
       18445000	      1843	800014a0	00e14283	lbu	x5,14(x2)	  x2:0x800086fc  x5=0x00000068 PA:0x8000870a
       18455000	      1844	800014a4	01d107a3	sb	x29,15(x2)	  x2:0x800086fc x29:0x00000047 PA:0x8000870b
       18465000	      1845	800014a8	00bd1233	sll	x4,x26,x11	 x26:0x00000057 x11:0x0d6fc39a  x4=0x5c000000
       18475000	      1846	800014ac	421b4293	xori	x5,x22,1057	 x22:0x00000000  x5=0x00000421
       18485000	      1847	800014b0	006dcd33	xor	x26,x27,x6	 x27:0xfffffa6d  x6:0x00000000 x26=0xfffffa6d
       18495000	      1848	800014b4	0f9e6593	ori	x11,x28,249	 x28:0x0000377d x11=0x000037fd
       18505000	      1849	800014b8	00e11583	lh	x11,14(x2)	  x2:0x800086fc x11=0x00004768 PA:0x8000870a
       18515000	      1850	800014bc	01989333	sll	x6,x17,x25	 x17:0x00000048 x25:0x00002b23  x6=0x00000240
       18525000	      1851	800014c0	017dd433	srl	x8,x27,x23	 x27:0xfffffa6d x23:0xf2904609  x8=0x007ffffd
       18535000	      1852	800014c4	00f9dc93	srli	x25,x19,0xf	 x19:0xffffffa1 x25=0x0001ffff
       18545000	      1853	800014c8	32d2ab13	slti	x22,x5,813	  x5:0x00000421 x22=0x00000000
       18555000	      1854	800014cc	01f2a533	slt	x10,x5,x31	  x5:0x00000421 x31:0x0000001f x10=0x00000000
       18565000	      1855	800014d0	00215a03	lhu	x20,2(x2)	  x2:0x800086fc x20=0x00002b23 PA:0x800086fe
       18575000	      1856	800014d4	00110883	lb	x17,1(x2)	  x2:0x800086fc x17=0xffffffa1 PA:0x800086fd
       18585000	      1857	800014d8	00007c17	auipc	x24,0x7	 x24=0x800084d4
       18595000	      1858	800014dc	ef0c0c13	addi	x24,x24,-272	 x24:0x800084d4 x24=0x800083c4
       18605000	      1859	800014e0	01f0c1b3	xor	x3,x1,x31	  x1:0x00000001 x31:0x0000001f  x3=0x0000001e
       18615000	      1860	800014e4	03cc4e83	lbu	x29,60(x24)	 x24:0x800083c4 x29=0x0000004f PA:0x80008400
       18625000	      1861	800014e8	01815713	srli	x14,x2,0x18	  x2:0x800086fc x14=0x00000080
       18635000	      1862	800014ec	fddc4983	lbu	x19,-35(x24)	 x24:0x800083c4 x19=0x00000049 PA:0x800083a1
       18645000	      1863	800014f0	fd5c1f23	sh	x21,-34(x24)	 x24:0x800083c4 x21:0x00002a1f PA:0x800083a2
       18655000	      1864	800014f4	014ed693	srli	x13,x29,0x14	 x29:0x0000004f x13=0x00000000
       18665000	      1865	800014f8	015a1d93	slli	x27,x20,0x15	 x20:0x00002b23 x27=0x64600000
       18675000	      1866	800014fc	0055c133	xor	x2,x11,x5	 x11:0x00004768  x5:0x00000421  x2=0x00004349
       18685000	      1867	80001500	033c0483	lb	x9,51(x24)	 x24:0x800083c4  x9=0xffffffde PA:0x800083f7
       18695000	      1868	80001504	0a0a4f93	xori	x31,x20,160	 x20:0x00002b23 x31=0x00002b83
       18705000	      1869	80001508	03cc0203	lb	x4,60(x24)	 x24:0x800083c4  x4=0x0000004f PA:0x80008400
       18715000	      1870	8000150c	00000013	addi	x0,x0,0	  x0:0x00000000
       18725000	      1871	80001510	01193db3	sltu	x27,x18,x17	 x18:0x80009f10 x17:0xffffffa1 x27=0x00000001
       18735000	      1872	80001514	1def3193	sltiu	x3,x30,478	 x30:0xf2903d81  x3=0x00000000
       18745000	      1873	80001518	fb042493	slti	x9,x8,-80	  x8:0x007ffffd  x9=0x00000000
       18755000	      1874	8000151c	019c4403	lbu	x8,25(x24)	 x24:0x800083c4  x8=0x000000d1 PA:0x800083dd
       18765000	      1875	80001520	01de9833	sll	x16,x29,x29	 x29:0x0000004f x29:0x0000004f x16=0x00278000
       18775000	      1876	80001524	6d976993	ori	x19,x14,1753	 x14:0x00000080 x19=0x000006d9
       18785000	      1877	80001528	fe0c1883	lh	x17,-32(x24)	 x24:0x800083c4 x17=0xffffa7ed PA:0x800083a4
       18795000	      1878	8000152c	52d2f797	auipc	x15,0x52d2f	 x15=0xd2d30528
       18805000	      1879	80001530	01a9d833	srl	x16,x19,x26	 x19:0x000006d9 x26:0xfffffa6d x16=0x00000000
       18815000	      1880	80001534	fcfc07a3	sb	x15,-49(x24)	 x24:0x800083c4 x15:0xd2d30528 PA:0x80008393
       18825000	      1881	80001538	039c4e83	lbu	x29,57(x24)	 x24:0x800083c4 x29=0x000000ab PA:0x800083fd
       18835000	      1882	8000153c	01c8b0b3	sltu	x1,x17,x28	 x17:0xffffa7ed x28:0x0000377d  x1=0x00000000
       18845000	      1883	80001540	ff2c1123	sh	x18,-30(x24)	 x24:0x800083c4 x18:0x80009f10 PA:0x800083a6
       18855000	      1884	80001544	006c0e23	sb	x6,28(x24)	 x24:0x800083c4  x6:0x00000240 PA:0x800083e0
       18865000	      1885	80001548	00007117	auipc	x2,0x7	  x2=0x80008544
       18875000	      1886	8000154c	dc610113	addi	x2,x2,-570	  x2:0x80008544  x2=0x8000830a
       18885000	      1887	80001550	038a2b93	slti	x23,x20,56	 x20:0x00002b23 x23=0x00000000
       18895000	      1888	80001554	fe810083	lb	x1,-24(x2)	  x2:0x8000830a  x1=0xffffffa5 PA:0x800082f2
       18905000	      1889	80001558	b8deae13	slti	x28,x29,-1139	 x29:0x000000ab x28=0x00000000
       18915000	      1890	8000155c	ec8afd93	andi	x27,x21,-312	 x21:0x00002a1f x27=0x00002a08
       18925000	      1891	80001560	fc7106a3	sb	x7,-51(x2)	  x2:0x8000830a  x7:0xffffff83 PA:0x800082d7
       18935000	      1892	80001564	fce15e03	lhu	x28,-50(x2)	  x2:0x8000830a x28=0x00008b41 PA:0x800082d8
       18945000	      1893	80001568	03710da3	sb	x23,59(x2)	  x2:0x8000830a x23:0x00000000 PA:0x80008345
       18955000	      1894	8000156c	019346b3	xor	x13,x6,x25	  x6:0x00000240 x25:0x0001ffff x13=0x0001fdbf
       18965000	      1895	80001570	41f1db93	srai	x23,x3,0x1f	  x3:0x00000000 x23=0x00000000
       18975000	      1896	80001574	fd011203	lh	x4,-48(x2)	  x2:0x8000830a  x4=0xffffad19 PA:0x800082da
       18985000	      1897	80001578	40fe5e13	srai	x28,x28,0xf	 x28:0x00008b41 x28=0x00000001
       18995000	      1898	8000157c	fd210d83	lb	x27,-46(x2)	  x2:0x8000830a x27=0x00000079 PA:0x800082dc
       19005000	      1899	80001580	018ab2b3	sltu	x5,x21,x24	 x21:0x00002a1f x24:0x800083c4  x5=0x00000001
       19015000	      1900	80001584	4073da13	srai	x20,x7,0x7	  x7:0xffffff83 x20=0xffffffff
       19025000	      1901	80001588	3f61feb7	lui	x29,0x3f61f	 x29=0x3f61f000
       19035000	      1902	8000158c	ade06593	ori	x11,x0,-1314	  x0:0x00000000 x11=0xfffffade
       19045000	      1903	80001590	fea10fa3	sb	x10,-1(x2)	  x2:0x8000830a x10:0x00000000 PA:0x80008309
       19055000	      1904	80001594	fd015183	lhu	x3,-48(x2)	  x2:0x8000830a  x3=0x0000ad19 PA:0x800082da
       19065000	      1905	80001598	fd5101a3	sb	x21,-61(x2)	  x2:0x8000830a x21:0x00002a1f PA:0x800082cd
       19075000	      1906	8000159c	0d55b6b7	lui	x13,0xd55b	 x13=0x0d55b000
       19085000	      1907	800015a0	b5080317	auipc	x6,0xb5080	  x6=0x3508159c
       19095000	      1908	800015a4	fcf10783	lb	x15,-49(x2)	  x2:0x8000830a x15=0xffffff8b PA:0x800082d9
       19105000	      1909	800015a8	ff910383	lb	x7,-7(x2)	  x2:0x8000830a  x7=0xffffff9e PA:0x80008303
       19115000	      1910	800015ac	001105a3	sb	x1,11(x2)	  x2:0x8000830a  x1:0xffffffa5 PA:0x80008315
       19125000	      1911	800015b0	fe212483	lw	x9,-30(x2)	  x2:0x8000830a  x9=0x51b48421 PA:0x800082ec
       19135000	      1912	800015b4	feb10e03	lb	x28,-21(x2)	  x2:0x8000830a x28=0x0000001f PA:0x800082f5
       19145000	      1913	800015b8	00000013	addi	x0,x0,0	  x0:0x00000000
       19155000	      1914	800015bc	01915b93	srli	x23,x2,0x19	  x2:0x8000830a x23=0x00000040
       19165000	      1915	800015c0	0140d793	srli	x15,x1,0x14	  x1:0xffffffa5 x15=0x00000fff
       19175000	      1916	800015c4	01f3bfb3	sltu	x31,x7,x31	  x7:0xffffff9e x31:0x00002b83 x31=0x00000000
       19185000	      1917	800015c8	00c3d3b3	srl	x7,x7,x12	  x7:0xffffff9e x12:0x80009fc4  x7=0x0ffffff9
       19195000	      1918	800015cc	631de293	ori	x5,x27,1585	 x27:0x00000079  x5=0x00000679
       19205000	      1919	800015d0	be840813	addi	x16,x8,-1048	  x8:0x000000d1 x16=0xfffffcb9
       19215000	      1920	800015d4	fea10da3	sb	x10,-5(x2)	  x2:0x8000830a x10:0x00000000 PA:0x80008305
       19225000	      1921	800015d8	0d9fbf93	sltiu	x31,x31,217	 x31:0x00000000 x31=0x00000001
       19235000	      1922	800015dc	41708e33	sub	x28,x1,x23	  x1:0xffffffa5 x23:0x00000040 x28=0xffffff65
       19245000	      1923	800015e0	03e10ca3	sb	x30,57(x2)	  x2:0x8000830a x30:0xf2903d81 PA:0x80008343
       19255000	      1924	800015e4	00b10da3	sb	x11,27(x2)	  x2:0x8000830a x11:0xfffffade PA:0x80008325
       19265000	      1925	800015e8	114e8c93	addi	x25,x29,276	 x29:0x3f61f000 x25=0x3f61f114
       19275000	      1926	800015ec	0088c7b3	xor	x15,x17,x8	 x17:0xffffa7ed  x8:0x000000d1 x15=0xffffa73c
       19285000	      1927	800015f0	02710283	lb	x5,39(x2)	  x2:0x8000830a  x5=0xffffffdf PA:0x80008331
       19295000	      1928	800015f4	00152233	slt	x4,x10,x1	 x10:0x00000000  x1:0xffffffa5  x4=0x00000000
       19305000	      1929	800015f8	00cb6db3	or	x27,x22,x12	 x22:0x00000000 x12:0x80009fc4 x27=0x80009fc4
       19315000	      1930	800015fc	03a15583	lhu	x11,58(x2)	  x2:0x8000830a x11=0x00000037 PA:0x80008344
       19325000	      1931	80001600	00000013	addi	x0,x0,0	  x0:0x00000000
       19335000	      1932	80001604	5cb6f693	andi	x13,x13,1483	 x13:0x0d55b000 x13=0x00000000
       19345000	      1933	80001608	03610483	lb	x9,54(x2)	  x2:0x8000830a  x9=0xffffffdc PA:0x80008340
       19355000	      1934	8000160c	fe410c83	lb	x25,-28(x2)	  x2:0x8000830a x25=0xffffffb4 PA:0x800082ee
       19365000	      1935	80001610	fd110fa3	sb	x17,-33(x2)	  x2:0x8000830a x17:0xffffa7ed PA:0x800082e9
       19375000	      1936	80001614	009e0fb3	add	x31,x28,x9	 x28:0xffffff65  x9:0xffffffdc x31=0xffffff41
       19385000	      1937	80001618	01911023	sh	x25,0(x2)	  x2:0x8000830a x25:0xffffffb4 PA:0x8000830a
       19395000	      1938	8000161c	85792737	lui	x14,0x85792	 x14=0x85792000
       19405000	      1939	80001620	02b10983	lb	x19,43(x2)	  x2:0x8000830a x19=0xffffff96 PA:0x80008335
       19415000	      1940	80001624	00007117	auipc	x2,0x7	  x2=0x80008620
       19425000	      1941	80001628	c9410113	addi	x2,x2,-876	  x2:0x80008620  x2=0x800082b4
       19435000	      1942	8000162c	e364a817	auipc	x16,0xe364a	 x16=0x6364b628
       19445000	      1943	80001630	ffb14a03	lbu	x20,-5(x2)	  x2:0x800082b4 x20=0x0000005d PA:0x800082af
       19455000	      1944	80001634	d10e4f93	xori	x31,x28,-752	 x28:0xffffff65 x31=0x00000275
       19465000	      1945	80001638	013040b3	xor	x1,x0,x19	  x0:0x00000000 x19:0xffffff96  x1=0xffffff96
       19475000	      1946	8000163c	ffe14683	lbu	x13,-2(x2)	  x2:0x800082b4 x13=0x0000004f PA:0x800082b2
       19485000	      1947	80001640	00615c83	lhu	x25,6(x2)	  x2:0x800082b4 x25=0x00000000 PA:0x800082ba
       19495000	      1948	80001644	92dc4097	auipc	x1,0x92dc4	  x1=0x12dc5640
       19505000	      1949	80001648	016642b3	xor	x5,x12,x22	 x12:0x80009fc4 x22:0x00000000  x5=0x80009fc4
       19515000	      1950	8000164c	01f9c533	xor	x10,x19,x31	 x19:0xffffff96 x31:0x00000275 x10=0xfffffde3
       19525000	      1951	80001650	b5447893	andi	x17,x8,-1196	  x8:0x000000d1 x17=0x00000050
       19535000	      1952	80001654	00c1de13	srli	x28,x3,0xc	  x3:0x0000ad19 x28=0x0000000a
       19545000	      1953	80001658	4c862693	slti	x13,x12,1224	 x12:0x80009fc4 x13=0x00000001
       19555000	      1954	8000165c	ff910d23	sb	x25,-6(x2)	  x2:0x800082b4 x25:0x00000000 PA:0x800082ae
       19565000	      1955	80001660	00f14883	lbu	x17,15(x2)	  x2:0x800082b4 x17=0x0000007f PA:0x800082c3
       19575000	      1956	80001664	007f00b3	add	x1,x30,x7	 x30:0xf2903d81  x7:0x0ffffff9  x1=0x02903d7a
       19585000	      1957	80001668	ff510b03	lb	x22,-11(x2)	  x2:0x800082b4 x22=0xffffff81 PA:0x800082a9
       19595000	      1958	8000166c	0171a333	slt	x6,x3,x23	  x3:0x0000ad19 x23:0x00000040  x6=0x00000000
       19605000	      1959	80001670	910aa597	auipc	x11,0x910aa	 x11=0x110ab66c
       19615000	      1960	80001674	ff914183	lbu	x3,-7(x2)	  x2:0x800082b4  x3=0x00000045 PA:0x800082ad
       19625000	      1961	80001678	01868d33	add	x26,x13,x24	 x13:0x00000001 x24:0x800083c4 x26=0x800083c5
       19635000	      1962	8000167c	80c54a93	xori	x21,x10,-2036	 x10:0xfffffde3 x21=0x000005ef
       19645000	      1963	80001680	00da1b93	slli	x23,x20,0xd	 x20:0x0000005d x23=0x000ba000
       19655000	      1964	80001684	00901013	slli	x0,x0,0x9	  x0:0x00000000
       19665000	      1965	80001688	00000013	addi	x0,x0,0	  x0:0x00000000
       19675000	      1966	8000168c	41478bb3	sub	x23,x15,x20	 x15:0xffffa73c x20:0x0000005d x23=0xffffa6df
       19685000	      1967	80001690	013de033	or	x0,x27,x19	 x27:0x80009fc4 x19:0xffffff96
       19695000	      1968	80001694	00295fb3	srl	x31,x18,x2	 x18:0x80009f10  x2:0x800082b4 x31=0x00000800
       19705000	      1969	80001698	00ce3db3	sltu	x27,x28,x12	 x28:0x0000000a x12:0x80009fc4 x27=0x00000001
       19715000	      1970	8000169c	ff810c23	sb	x24,-8(x2)	  x2:0x800082b4 x24:0x800083c4 PA:0x800082ac
       19725000	      1971	800016a0	007f9a13	slli	x20,x31,0x7	 x31:0x00000800 x20=0x00040000
       19735000	      1972	800016a4	fec108a3	sb	x12,-15(x2)	  x2:0x800082b4 x12:0x80009fc4 PA:0x800082a5
       19745000	      1973	800016a8	00000013	addi	x0,x0,0	  x0:0x00000000
       19755000	      1974	800016ac	00d61733	sll	x14,x12,x13	 x12:0x80009fc4 x13:0x00000001 x14=0x00013f88
       19765000	      1975	800016b0	cb41e413	ori	x8,x3,-844	  x3:0x00000045  x8=0xfffffcf5
       19775000	      1976	800016b4	00c11183	lh	x3,12(x2)	  x2:0x800082b4  x3=0x000064a9 PA:0x800082c0
       19785000	      1977	800016b8	40aedc33	sra	x24,x29,x10	 x29:0x3f61f000 x10:0xfffffde3 x24=0x07ec3e00
       19795000	      1978	800016bc	fe510ea3	sb	x5,-3(x2)	  x2:0x800082b4  x5:0x80009fc4 PA:0x800082b1
       19805000	      1979	800016c0	01e12823	sw	x30,16(x2)	  x2:0x800082b4 x30:0xf2903d81 PA:0x800082c4
       19815000	      1980	800016c4	40a05e93	srai	x29,x0,0xa	  x0:0x00000000 x29=0x00000000
       19825000	      1981	800016c8	5e98c293	xori	x5,x17,1513	 x17:0x0000007f  x5=0x00000596
       19835000	      1982	800016cc	8d2e0a13	addi	x20,x28,-1838	 x28:0x0000000a x20=0xfffff8dc
       19845000	      1983	800016d0	01cd6a33	or	x20,x26,x28	 x26:0x800083c5 x28:0x0000000a x20=0x800083cf
       19855000	      1984	800016d4	ff010c23	sb	x16,-8(x2)	  x2:0x800082b4 x16:0x6364b628 PA:0x800082ac
       19865000	      1985	800016d8	ff410b83	lb	x23,-12(x2)	  x2:0x800082b4 x23=0xfffffffc PA:0x800082a8
       19875000	      1986	800016dc	00007397	auipc	x7,0x7	  x7=0x800086d8
       19885000	      1987	800016e0	1af38393	addi	x7,x7,431	  x7:0x800086d8  x7=0x80008887
       19895000	      1988	800016e4	09238b23	sb	x18,150(x7)	  x7:0x80008887 x18:0x80009f10 PA:0x8000891d
       19905000	      1989	800016e8	8a546d93	ori	x27,x8,-1883	  x8:0xfffffcf5 x27=0xfffffcf5
       19915000	      1990	800016ec	2fc386a3	sb	x28,749(x7)	  x7:0x80008887 x28:0x0000000a PA:0x80008b74
       19925000	      1991	800016f0	3f538b83	lb	x23,1013(x7)	  x7:0x80008887 x23=0xffffffc2 PA:0x80008c7c
       19935000	      1992	800016f4	71a3ce83	lbu	x29,1818(x7)	  x7:0x80008887 x29=0x00000000 PA:0x80008fa1
       19945000	      1993	800016f8	6333c403	lbu	x8,1587(x7)	  x7:0x80008887  x8=0x00000098 PA:0x80008eba
       19955000	      1994	800016fc	4af3dd83	lhu	x27,1199(x7)	  x7:0x80008887 x27=0x00002433 PA:0x80008d36
       19965000	      1995	80001700	dce8aa93	slti	x21,x17,-562	 x17:0x0000007f x21=0x00000000
       19975000	      1996	80001704	64d39883	lh	x17,1613(x7)	  x7:0x80008887 x17=0xffff8f6a PA:0x80008ed4
       19985000	      1997	80001708	1633c883	lbu	x17,355(x7)	  x7:0x80008887 x17=0x000000f8 PA:0x800089ea
       19995000	      1998	8000170c	59e3cb03	lbu	x22,1438(x7)	  x7:0x80008887 x22=0x00000014 PA:0x80008e25
       20005000	      1999	80001710	00595093	srli	x1,x18,0x5	 x18:0x80009f10  x1=0x040004f8
       20015000	      2000	80001714	0dc3cb83	lbu	x23,220(x7)	  x7:0x80008887 x23=0x00000049 PA:0x80008963
       20025000	      2001	80001718	df227a97	auipc	x21,0xdf227	 x21=0x5f228714
       20035000	      2002	8000171c	3c038203	lb	x4,960(x7)	  x7:0x80008887  x4=0xffffff83 PA:0x80008c47
       20045000	      2003	80001720	74838f23	sb	x8,1886(x7)	  x7:0x80008887  x8:0x00000098 PA:0x80008fe5
       20055000	      2004	80001724	05838e03	lb	x28,88(x7)	  x7:0x80008887 x28=0x0000006b PA:0x800088df
       20065000	      2005	80001728	1263cb83	lbu	x23,294(x7)	  x7:0x80008887 x23=0x00000088 PA:0x800089ad
       20075000	      2006	8000172c	6413ac03	lw	x24,1601(x7)	  x7:0x80008887 x24=0xa697f2fc PA:0x80008ec8
       20085000	      2007	80001730	005f1a93	slli	x21,x30,0x5	 x30:0xf2903d81 x21=0x5207b020
       20095000	      2008	80001734	71d38f23	sb	x29,1822(x7)	  x7:0x80008887 x29:0x00000000 PA:0x80008fa5
       20105000	      2009	80001738	4b7385a3	sb	x23,1195(x7)	  x7:0x80008887 x23:0x00000088 PA:0x80008d32
       20115000	      2010	8000173c	403cd4b3	sra	x9,x25,x3	 x25:0x00000000  x3:0x000064a9  x9=0x00000000
       20125000	      2011	80001740	c0034a93	xori	x21,x6,-1024	  x6:0x00000000 x21=0xfffffc00
       20135000	      2012	80001744	2da38523	sb	x26,714(x7)	  x7:0x80008887 x26:0x800083c5 PA:0x80008b51
       20145000	      2013	80001748	3618de97	auipc	x29,0x3618d	 x29=0xb618e744
       20155000	      2014	8000174c	32d39fa3	sh	x13,831(x7)	  x7:0x80008887 x13:0x00000001 PA:0x80008bc6
       20165000	      2015	80001750	8848f813	andi	x16,x17,-1916	 x17:0x000000f8 x16=0x00000080
       20175000	      2016	80001754	23a3cc83	lbu	x25,570(x7)	  x7:0x80008887 x25=0x0000005c PA:0x80008ac1
       20185000	      2017	80001758	0c738183	lb	x3,199(x7)	  x7:0x80008887  x3=0xfffffff2 PA:0x8000894e
       20195000	      2018	8000175c	1f238723	sb	x18,494(x7)	  x7:0x80008887 x18:0x80009f10 PA:0x80008a75
       20205000	      2019	80001760	00549d13	slli	x26,x9,0x5	  x9:0x00000000 x26=0x00000000
       20215000	      2020	80001764	14138c03	lb	x24,321(x7)	  x7:0x80008887 x24=0x00000043 PA:0x800089c8
       20225000	      2021	80001768	3243aea3	sw	x4,829(x7)	  x7:0x80008887  x4:0xffffff83 PA:0x80008bc4
       20235000	      2022	8000176c	0e838423	sb	x8,232(x7)	  x7:0x80008887  x8:0x00000098 PA:0x8000896f
       20245000	      2023	80001770	efcc3c93	sltiu	x25,x24,-260	 x24:0x00000043 x25=0x00000001
       20255000	      2024	80001774	27b3cc83	lbu	x25,635(x7)	  x7:0x80008887 x25=0x000000e6 PA:0x80008b02
       20265000	      2025	80001778	0d338e23	sb	x19,220(x7)	  x7:0x80008887 x19:0xffffff96 PA:0x80008963
       20275000	      2026	8000177c	3fc3c783	lbu	x15,1020(x7)	  x7:0x80008887 x15=0x000000d0 PA:0x80008c83
       20285000	      2027	80001780	007462b3	or	x5,x8,x7	  x8:0x00000098  x7:0x80008887  x5=0x8000889f
       20295000	      2028	80001784	54c38c83	lb	x25,1356(x7)	  x7:0x80008887 x25=0x00000044 PA:0x80008dd3
       20305000	      2029	80001788	00007b17	auipc	x22,0x7	 x22=0x80008784
       20315000	      2030	8000178c	71fb0b13	addi	x22,x22,1823	 x22:0x80008784 x22=0x80008ea3
       20325000	      2031	80001790	01660233	add	x4,x12,x22	 x12:0x80009fc4 x22:0x80008ea3  x4=0x00012e67
       20335000	      2032	80001794	40f58a33	sub	x20,x11,x15	 x11:0x110ab66c x15:0x000000d0 x20=0x110ab59c
       20345000	      2033	80001798	ffab0503	lb	x10,-6(x22)	 x22:0x80008ea3 x10=0xffffff8f PA:0x80008e9d
       20355000	      2034	8000179c	74d47013	andi	x0,x8,1869	  x8:0x00000098
       20365000	      2035	800017a0	41d8de93	srai	x29,x17,0x1d	 x17:0x000000f8 x29=0x00000000
       20375000	      2036	800017a4	002b4d83	lbu	x27,2(x22)	 x22:0x80008ea3 x27=0x0000006f PA:0x80008ea5
       20385000	      2037	800017a8	4186da93	srai	x21,x13,0x18	 x13:0x00000001 x21=0x00000000
       20395000	      2038	800017ac	92b26113	ori	x2,x4,-1749	  x4:0x00012e67  x2=0xffffff6f
       20405000	      2039	800017b0	01b65a93	srli	x21,x12,0x1b	 x12:0x80009fc4 x21=0x00000010
       20415000	      2040	800017b4	ffab4883	lbu	x17,-6(x22)	 x22:0x80008ea3 x17=0x0000008f PA:0x80008e9d
       20425000	      2041	800017b8	ff7b1e03	lh	x28,-9(x22)	 x22:0x80008ea3 x28=0x00000944 PA:0x80008e9a
       20435000	      2042	800017bc	01f9beb3	sltu	x29,x19,x31	 x19:0xffffff96 x31:0x00000800 x29=0x00000000
       20445000	      2043	800017c0	ff0b4e03	lbu	x28,-16(x22)	 x22:0x80008ea3 x28=0x00000011 PA:0x80008e93
       20455000	      2044	800017c4	00cb0323	sb	x12,6(x22)	 x22:0x80008ea3 x12:0x80009fc4 PA:0x80008ea9
       20465000	      2045	800017c8	ff7b1783	lh	x15,-9(x22)	 x22:0x80008ea3 x15=0x00000944 PA:0x80008e9a
       20475000	      2046	800017cc	80d5a217	auipc	x4,0x80d5a	  x4=0x00d5b7c8
       20485000	      2047	800017d0	13565097	auipc	x1,0x13565	  x1=0x935667cc
       20495000	      2048	800017d4	00905733	srl	x14,x0,x9	  x0:0x00000000  x9:0x00000000 x14=0x00000000
       20505000	      2049	800017d8	ffeb4103	lbu	x2,-2(x22)	 x22:0x80008ea3  x2=0x000000c4 PA:0x80008ea1
       20515000	      2050	800017dc	404b5f93	srai	x31,x22,0x4	 x22:0x80008ea3 x31=0xf80008ea
       20525000	      2051	800017e0	fffb1c83	lh	x25,-1(x22)	 x22:0x80008ea3 x25=0x0000686a PA:0x80008ea2
       20535000	      2052	800017e4	ffeb0c23	sb	x30,-8(x22)	 x22:0x80008ea3 x30:0xf2903d81 PA:0x80008e9b
       20545000	      2053	800017e8	9ce3a713	slti	x14,x7,-1586	  x7:0x80008887 x14=0x00000001
       20555000	      2054	800017ec	14b9bb93	sltiu	x23,x19,331	 x19:0xffffff96 x23=0x00000000
       20565000	      2055	800017f0	2f57cf93	xori	x31,x15,757	 x15:0x00000944 x31=0x00000bb1
       20575000	      2056	800017f4	7f243193	sltiu	x3,x8,2034	  x8:0x00000098  x3=0x00000001
       20585000	      2057	800017f8	ffab0503	lb	x10,-6(x22)	 x22:0x80008ea3 x10=0xffffff8f PA:0x80008e9d
       20595000	      2058	800017fc	ff5b2403	lw	x8,-11(x22)	 x22:0x80008ea3  x8=0x81447c8b PA:0x80008e98
       20605000	      2059	80001800	00007117	auipc	x2,0x7	  x2=0x800087fc
       20615000	      2060	80001804	c8610113	addi	x2,x2,-890	  x2:0x800087fc  x2=0x80008482
       20625000	      2061	80001808	40676b13	ori	x22,x14,1030	 x14:0x00000001 x22=0x00000407
       20635000	      2062	8000180c	d89a0193	addi	x3,x20,-631	 x20:0x110ab59c  x3=0x110ab325
       20645000	      2063	80001810	41f7d0b3	sra	x1,x15,x31	 x15:0x00000944 x31:0x00000bb1  x1=0x00000000
       20655000	      2064	80001814	0e011583	lh	x11,224(x2)	  x2:0x80008482 x11=0xffffa99f PA:0x80008562
       20665000	      2065	80001818	00dfd5b3	srl	x11,x31,x13	 x31:0x00000bb1 x13:0x00000001 x11=0x000005d8
       20675000	      2066	8000181c	01521513	slli	x10,x4,0x15	  x4:0x00d5b7c8 x10=0xf9000000
       20685000	      2067	80001820	f5e12203	lw	x4,-162(x2)	  x2:0x80008482  x4=0xe3400f40 PA:0x800083e0
       20695000	      2068	80001824	0a611083	lh	x1,166(x2)	  x2:0x80008482  x1=0x000049bc PA:0x80008528
       20705000	      2069	80001828	00060db3	add	x27,x12,x0	 x12:0x80009fc4  x0:0x00000000 x27=0x80009fc4
       20715000	      2070	8000182c	07b14703	lbu	x14,123(x2)	  x2:0x80008482 x14=0x000000c7 PA:0x800084fd
       20725000	      2071	80001830	1b558213	addi	x4,x11,437	 x11:0x000005d8  x4=0x0000078d
       20735000	      2072	80001834	019b7ab3	and	x21,x22,x25	 x22:0x00000407 x25:0x0000686a x21=0x00000002
       20745000	      2073	80001838	00e90db3	add	x27,x18,x14	 x18:0x80009f10 x14:0x000000c7 x27=0x80009fd7
       20755000	      2074	8000183c	14f62513	slti	x10,x12,335	 x12:0x80009fc4 x10=0x00000001
       20765000	      2075	80001840	f8a14a03	lbu	x20,-118(x2)	  x2:0x80008482 x20=0x000000a0 PA:0x8000840c
       20775000	      2076	80001844	0e010b23	sb	x0,246(x2)	  x2:0x80008482  x0:0x00000000 PA:0x80008578
       20785000	      2077	80001848	012d0db3	add	x27,x26,x18	 x26:0x00000000 x18:0x80009f10 x27=0x80009f10
       20795000	      2078	8000184c	f1014e83	lbu	x29,-240(x2)	  x2:0x80008482 x29=0x000000b0 PA:0x80008392
       20805000	      2079	80001850	0b514403	lbu	x8,181(x2)	  x2:0x80008482  x8=0x00000025 PA:0x80008537
       20815000	      2080	80001854	fd210783	lb	x15,-46(x2)	  x2:0x80008482 x15=0x0000004c PA:0x80008454
       20825000	      2081	80001858	17af4313	xori	x6,x30,378	 x30:0xf2903d81  x6=0xf2903cfb
       20835000	      2082	8000185c	0147c433	xor	x8,x15,x20	 x15:0x0000004c x20:0x000000a0  x8=0x000000ec
       20845000	      2083	80001860	017624b3	slt	x9,x12,x23	 x12:0x80009fc4 x23:0x00000000  x9=0x00000001
       20855000	      2084	80001864	00d26033	or	x0,x4,x13	  x4:0x0000078d x13:0x00000001
       20865000	      2085	80001868	f5310f83	lb	x31,-173(x2)	  x2:0x80008482 x31=0xffffff85 PA:0x800083d5
       20875000	      2086	8000186c	b9e9cd93	xori	x27,x19,-1122	 x19:0xffffff96 x27=0x00000408
       20885000	      2087	80001870	015d1313	slli	x6,x26,0x15	 x26:0x00000000  x6=0x00000000
       20895000	      2088	80001874	01b9de13	srli	x28,x19,0x1b	 x19:0xffffff96 x28=0x0000001f
       20905000	      2089	80001878	419882b3	sub	x5,x17,x25	 x17:0x0000008f x25:0x0000686a  x5=0xffff9825
       20915000	      2090	8000187c	f9610ba3	sb	x22,-105(x2)	  x2:0x80008482 x22:0x00000407 PA:0x80008419
       20925000	      2091	80001880	01645f93	srli	x31,x8,0x16	  x8:0x000000ec x31=0x00000000
       20935000	      2092	80001884	ff011a03	lh	x20,-16(x2)	  x2:0x80008482 x20=0x00001ed7 PA:0x80008472
       20945000	      2093	80001888	58d13f93	sltiu	x31,x2,1421	  x2:0x80008482 x31=0x00000000
       20955000	      2094	8000188c	018c33b3	sltu	x7,x24,x24	 x24:0x00000043 x24:0x00000043  x7=0x00000000
       20965000	      2095	80001890	6fef67b7	lui	x15,0x6fef6	 x15=0x6fef6000
       20975000	      2096	80001894	c5072b93	slti	x23,x14,-944	 x14:0x000000c7 x23=0x00000000
       20985000	      2097	80001898	0d910e03	lb	x28,217(x2)	  x2:0x80008482 x28=0x00000018 PA:0x8000855b
       20995000	      2098	8000189c	feb10483	lb	x9,-21(x2)	  x2:0x80008482  x9=0xffffff9b PA:0x8000846d
       21005000	      2099	800018a0	0cc15c83	lhu	x25,204(x2)	  x2:0x80008482 x25=0x00004ee0 PA:0x8000854e
       21015000	      2100	800018a4	f4a12d03	lw	x26,-182(x2)	  x2:0x80008482 x26=0xe8b3002d PA:0x800083cc
       21025000	      2101	800018a8	4025d433	sra	x8,x11,x2	 x11:0x000005d8  x2:0x80008482  x8=0x00000176
       21035000	      2102	800018ac	f9f11c23	sh	x31,-104(x2)	  x2:0x80008482 x31:0x00000000 PA:0x8000841a
       21045000	      2103	800018b0	90ebbd13	sltiu	x26,x23,-1778	 x23:0x00000000 x26=0x00000001
       21055000	      2104	800018b4	836630b7	lui	x1,0x83663	  x1=0x83663000
       21065000	      2105	800018b8	9d302517	auipc	x10,0x9d302	 x10=0x1d3038b4
       21075000	      2106	800018bc	ff910fa3	sb	x25,-1(x2)	  x2:0x80008482 x25:0x00004ee0 PA:0x80008481
       21085000	      2107	800018c0	00007117	auipc	x2,0x7	  x2=0x800088bc
       21095000	      2108	800018c4	d0f10113	addi	x2,x2,-753	  x2:0x800088bc  x2=0x800085cb
       21105000	      2109	800018c8	f0610f83	lb	x31,-250(x2)	  x2:0x800085cb x31=0xffffffae PA:0x800084d1
       21115000	      2110	00000000	00000013	addi	x0,x0,0	  x0:0x00000000
       21125000	      2111	800018cc	01f32433	slt	x8,x6,x31	  x6:0x00000000 x31:0xffffffae  x8=0x00000000
       21135000	      2112	800018d0	6a548193	addi	x3,x9,1701	  x9:0xffffff9b  x3=0x00000640
       21145000	      2113	800018d4	fb111b83	lh	x23,-79(x2)	  x2:0x800085cb x23=0xffffd918 PA:0x8000857c
       21155000	      2114	800018d8	01da0533	add	x10,x20,x29	 x20:0x00001ed7 x29:0x000000b0 x10=0x00001f87
       21165000	      2115	800018dc	011c0733	add	x14,x24,x17	 x24:0x00000043 x17:0x0000008f x14=0x000000d2
       21175000	      2116	800018e0	f6b10403	lb	x8,-149(x2)	  x2:0x800085cb  x8=0x0000000a PA:0x80008536
       21185000	      2117	800018e4	ff311483	lh	x9,-13(x2)	  x2:0x800085cb  x9=0xffffac79 PA:0x800085be
       21195000	      2118	800018e8	f2f15483	lhu	x9,-209(x2)	  x2:0x800085cb  x9=0x00007848 PA:0x800084fa
       21205000	      2119	800018ec	77a311b7	lui	x3,0x77a31	  x3=0x77a31000
       21215000	      2120	800018f0	1f01c413	xori	x8,x3,496	  x3:0x77a31000  x8=0x77a311f0
       21225000	      2121	800018f4	cc584813	xori	x16,x16,-827	 x16:0x00000080 x16=0xfffffc45
       21235000	      2122	800018f8	079a5fb7	lui	x31,0x79a5	 x31=0x079a5000
       21245000	      2123	800018fc	f1214e03	lbu	x28,-238(x2)	  x2:0x800085cb x28=0x000000e0 PA:0x800084dd
       21255000	      2124	80001900	c2607693	andi	x13,x0,-986	  x0:0x00000000 x13=0x00000000
       21265000	      2125	80001904	19740a37	lui	x20,0x19740	 x20=0x19740000
       21275000	      2126	80001908	fb515183	lhu	x3,-75(x2)	  x2:0x800085cb  x3=0x000049bb PA:0x80008580
       21285000	      2127	8000190c	0df113a3	sh	x31,199(x2)	  x2:0x800085cb x31:0x079a5000 PA:0x80008692
       21295000	      2128	80001910	03010c03	lb	x24,48(x2)	  x2:0x800085cb x24=0x00000044 PA:0x800085fb
       21305000	      2129	80001914	09510223	sb	x21,132(x2)	  x2:0x800085cb x21:0x00000002 PA:0x8000864f
       21315000	      2130	80001918	03b108a3	sb	x27,49(x2)	  x2:0x800085cb x27:0x00000408 PA:0x800085fc
       21325000	      2131	8000191c	fb810ea3	sb	x24,-67(x2)	  x2:0x800085cb x24:0x00000044 PA:0x80008588
       21335000	      2132	80001920	a95deb93	ori	x23,x27,-1387	 x27:0x00000408 x23=0xfffffe9d
       21345000	      2133	80001924	f3510123	sb	x21,-222(x2)	  x2:0x800085cb x21:0x00000002 PA:0x800084ed
       21355000	      2134	80001928	004dd2b3	srl	x5,x27,x4	 x27:0x00000408  x4:0x0000078d  x5=0x00000000
       21365000	      2135	8000192c	00023333	sltu	x6,x4,x0	  x4:0x0000078d  x0:0x00000000  x6=0x00000000
       21375000	      2136	80001930	b942c493	xori	x9,x5,-1132	  x5:0x00000000  x9=0xfffffb94
       21385000	      2137	80001934	05710d23	sb	x23,90(x2)	  x2:0x800085cb x23:0xfffffe9d PA:0x80008625
       21395000	      2138	80001938	007aeb33	or	x22,x21,x7	 x21:0x00000002  x7:0x00000000 x22=0x00000002
       21405000	      2139	8000193c	00910a23	sb	x9,20(x2)	  x2:0x800085cb  x9:0xfffffb94 PA:0x800085df
       21415000	      2140	80001940	01715b83	lhu	x23,23(x2)	  x2:0x800085cb x23=0x00004375 PA:0x800085e2
       21425000	      2141	80001944	00007a97	auipc	x21,0x7	 x21=0x80008940
       21435000	      2142	80001948	edda8a93	addi	x21,x21,-291	 x21:0x80008940 x21=0x8000881d
       21445000	      2143	8000194c	bed72e93	slti	x29,x14,-1043	 x14:0x000000d2 x29=0x00000000
       21455000	      2144	80001950	2efa0293	addi	x5,x20,751	 x20:0x19740000  x5=0x197402ef
       21465000	      2145	80001954	00d1cd33	xor	x26,x3,x13	  x3:0x000049bb x13:0x00000000 x26=0x000049bb
       21475000	      2146	80001958	090a8f23	sb	x16,158(x21)	 x21:0x8000881d x16:0xfffffc45 PA:0x800088bb
       21485000	      2147	8000195c	0fea86a3	sb	x30,237(x21)	 x21:0x8000881d x30:0xf2903d81 PA:0x8000890a
       21495000	      2148	80001960	002ace83	lbu	x29,2(x21)	 x21:0x8000881d x29=0x000000a3 PA:0x8000881f
       21505000	      2149	80001964	00d3e1b3	or	x3,x7,x13	  x7:0x00000000 x13:0x00000000  x3=0x00000000
       21515000	      2150	80001968	09da8f83	lb	x31,157(x21)	 x21:0x8000881d x31=0xffffffe5 PA:0x800088ba
       21525000	      2151	8000196c	077aad83	lw	x27,119(x21)	 x21:0x8000881d x27=0x4daad0bf PA:0x80008894
       21535000	      2152	80001970	01e6d713	srli	x14,x13,0x1e	 x13:0x00000000 x14=0x00000000
       21545000	      2153	80001974	08ea88a3	sb	x14,145(x21)	 x21:0x8000881d x14:0x00000000 PA:0x800088ae
       21555000	      2154	80001978	005ebb33	sltu	x22,x29,x5	 x29:0x000000a3  x5:0x197402ef x22=0x00000001
       21565000	      2155	8000197c	046a8723	sb	x6,78(x21)	 x21:0x8000881d  x6:0x00000000 PA:0x8000886b
       21575000	      2156	80001980	006a8883	lb	x17,6(x21)	 x21:0x8000881d x17=0x0000001c PA:0x80008823
       21585000	      2157	80001984	8fdcbd93	sltiu	x27,x25,-1795	 x25:0x00004ee0 x27=0x00000001
       21595000	      2158	80001988	00232533	slt	x10,x6,x2	  x6:0x00000000  x2:0x800085cb x10=0x00000000
       21605000	      2159	8000198c	ffca8a03	lb	x20,-4(x21)	 x21:0x8000881d x20=0x0000006d PA:0x80008819
       21615000	      2160	80001990	0c3a9da3	sh	x3,219(x21)	 x21:0x8000881d  x3:0x00000000 PA:0x800088f8
       21625000	      2161	80001994	016003b3	add	x7,x0,x22	  x0:0x00000000 x22:0x00000001  x7=0x00000001
       21635000	      2162	80001998	416dd1b3	sra	x3,x27,x22	 x27:0x00000001 x22:0x00000001  x3=0x00000000
       21645000	      2163	8000199c	00fd00b3	add	x1,x26,x15	 x26:0x000049bb x15:0x6fef6000  x1=0x6fefa9bb
       21655000	      2164	800019a0	001ad103	lhu	x2,1(x21)	 x21:0x8000881d  x2=0x0000a37b PA:0x8000881e
       21665000	      2165	800019a4	01faa5a3	sw	x31,11(x21)	 x21:0x8000881d x31:0xffffffe5 PA:0x80008828
       21675000	      2166	800019a8	014ad593	srli	x11,x21,0x14	 x21:0x8000881d x11=0x00000800
       21685000	      2167	800019ac	06fa8023	sb	x15,96(x21)	 x21:0x8000881d x15:0x6fef6000 PA:0x8000887d
       21695000	      2168	800019b0	0a0a8583	lb	x11,160(x21)	 x21:0x8000881d x11=0x0000001e PA:0x800088bd
       21705000	      2169	800019b4	0caa8223	sb	x10,196(x21)	 x21:0x8000881d x10:0x00000000 PA:0x800088e1
       21715000	      2170	800019b8	e3dd0693	addi	x13,x26,-451	 x26:0x000049bb x13=0x000047f8
       21725000	      2171	800019bc	01fb1813	slli	x16,x22,0x1f	 x22:0x00000001 x16=0x80000000
       21735000	      2172	800019c0	00876db3	or	x27,x14,x8	 x14:0x00000000  x8:0x77a311f0 x27=0x77a311f0
       21745000	      2173	800019c4	4061da13	srai	x20,x3,0x6	  x3:0x00000000 x20=0x00000000
       21755000	      2174	800019c8	00dd4c33	xor	x24,x26,x13	 x26:0x000049bb x13:0x000047f8 x24=0x00000e43
       21765000	      2175	800019cc	0b3aca03	lbu	x20,179(x21)	 x21:0x8000881d x20=0x0000006a PA:0x800088d0
       21775000	      2176	800019d0	00000013	addi	x0,x0,0	  x0:0x00000000
       21785000	      2177	800019d4	014d70b3	and	x1,x26,x20	 x26:0x000049bb x20:0x0000006a  x1=0x0000002a
       21795000	      2178	800019d8	05ca8ca3	sb	x28,89(x21)	 x21:0x8000881d x28:0x000000e0 PA:0x80008876
       21805000	      2179	800019dc	0c8a88a3	sb	x8,209(x21)	 x21:0x8000881d  x8:0x77a311f0 PA:0x800088ee
       21815000	      2180	800019e0	e060e237	lui	x4,0xe060e	  x4=0xe060e000
       21825000	      2181	800019e4	01238fb3	add	x31,x7,x18	  x7:0x00000001 x18:0x80009f10 x31=0x80009f11
       21835000	      2182	800019e8	e782fa13	andi	x20,x5,-392	  x5:0x197402ef x20=0x19740268
       21845000	      2183	800019ec	00000013	addi	x0,x0,0	  x0:0x00000000
       21855000	      2184	800019f0	072acc83	lbu	x25,114(x21)	 x21:0x8000881d x25=0x00000019 PA:0x8000888f
       21865000	      2185	800019f4	bc81be97	auipc	x29,0xbc81b	 x29=0x3c81c9f0
       21875000	      2186	800019f8	00b92b33	slt	x22,x18,x11	 x18:0x80009f10 x11:0x0000001e x22=0x00000001
       21885000	      2187	800019fc	06cac483	lbu	x9,108(x21)	 x21:0x8000881d  x9=0x0000003a PA:0x80008889
       21895000	      2188	80001a00	00007d97	auipc	x27,0x7	 x27=0x800089fc
       21905000	      2189	80001a04	e79d8d93	addi	x27,x27,-391	 x27:0x800089fc x27=0x80008875
       21915000	      2190	80001a08	01e731b3	sltu	x3,x14,x30	 x14:0x00000000 x30:0xf2903d81  x3=0x00000001
       21925000	      2191	80001a0c	4153d9b3	sra	x19,x7,x21	  x7:0x00000001 x21:0x8000881d x19=0x00000000
       21935000	      2192	80001a10	ff1dd183	lhu	x3,-15(x27)	 x27:0x80008875  x3=0x0000c980 PA:0x80008866
       21945000	      2193	80001a14	006dca83	lbu	x21,6(x27)	 x27:0x80008875 x21=0x0000005c PA:0x8000887b
       21955000	      2194	80001a18	41825a13	srai	x20,x4,0x18	  x4:0xe060e000 x20=0xffffffe0
       21965000	      2195	80001a1c	00a71133	sll	x2,x14,x10	 x14:0x00000000 x10:0x00000000  x2=0x00000000
       21975000	      2196	80001a20	00cd80a3	sb	x12,1(x27)	 x27:0x80008875 x12:0x80009fc4 PA:0x80008876
       21985000	      2197	80001a24	fe4d8c23	sb	x4,-8(x27)	 x27:0x80008875  x4:0xe060e000 PA:0x8000886d
       21995000	      2198	80001a28	00c10313	addi	x6,x2,12	  x2:0x00000000  x6=0x0000000c
       22005000	      2199	80001a2c	ff4d8783	lb	x15,-12(x27)	 x27:0x80008875 x15=0x00000050 PA:0x80008869
       22015000	      2200	80001a30	01d3bcb3	sltu	x25,x7,x29	  x7:0x00000001 x29:0x3c81c9f0 x25=0x00000001
       22025000	      2201	80001a34	40f40e33	sub	x28,x8,x15	  x8:0x77a311f0 x15:0x00000050 x28=0x77a311a0
       22035000	      2202	80001a38	014bd293	srli	x5,x23,0x14	 x23:0x00004375  x5=0x00000000
       22045000	      2203	80001a3c	ff0d8003	lb	x0,-16(x27)	 x27:0x80008875 PA:0x80008865
       22055000	      2204	80001a40	01c9b1b3	sltu	x3,x19,x28	 x19:0x00000000 x28:0x77a311a0  x3=0x00000001
       22065000	      2205	80001a44	40ac5193	srai	x3,x24,0xa	 x24:0x00000e43  x3=0x00000003
       22075000	      2206	80001a48	fffd8e23	sb	x31,-4(x27)	 x27:0x80008875 x31:0x80009f11 PA:0x80008871
       22085000	      2207	80001a4c	007dce83	lbu	x29,7(x27)	 x27:0x80008875 x29=0x00000033 PA:0x8000887c
       22095000	      2208	80001a50	00000013	addi	x0,x0,0	  x0:0x00000000
       22105000	      2209	80001a54	400607b3	sub	x15,x12,x0	 x12:0x80009fc4  x0:0x00000000 x15=0x80009fc4
       22115000	      2210	80001a58	01ed8523	sb	x30,10(x27)	 x27:0x80008875 x30:0xf2903d81 PA:0x8000887f
       22125000	      2211	80001a5c	018da1a3	sw	x24,3(x27)	 x27:0x80008875 x24:0x00000e43 PA:0x80008878
       22135000	      2212	80001a60	00cdc803	lbu	x16,12(x27)	 x27:0x80008875 x16=0x00000060 PA:0x80008881
       22145000	      2213	00000000	00000013	addi	x0,x0,0	  x0:0x00000000
       22155000	      2214	80001a64	010a1033	sll	x0,x20,x16	 x20:0xffffffe0 x16:0x00000060
       22165000	      2215	80001a68	4d03a497	auipc	x9,0x4d03a	  x9=0xcd03ba64
       22175000	      2216	80001a6c	ff7dda83	lhu	x21,-9(x27)	 x27:0x80008875 x21=0x00000081 PA:0x8000886c
       22185000	      2217	80001a70	fe1d88a3	sb	x1,-15(x27)	 x27:0x80008875  x1:0x0000002a PA:0x80008866
       22195000	      2218	80001a74	015d87a3	sb	x21,15(x27)	 x27:0x80008875 x21:0x00000081 PA:0x80008884
       22205000	      2219	80001a78	006d8723	sb	x6,14(x27)	 x27:0x80008875  x6:0x0000000c PA:0x80008883
       22215000	      2220	80001a7c	ff2dcd03	lbu	x26,-14(x27)	 x27:0x80008875 x26=0x000000c9 PA:0x80008867
       22225000	      2221	80001a80	2196bf97	auipc	x31,0x2196b	 x31=0xa196ca7c
       22235000	      2222	80001a84	ff8d8983	lb	x19,-8(x27)	 x27:0x80008875 x19=0x00000000 PA:0x8000886d
       22245000	      2223	80001a88	00007197	auipc	x3,0x7	  x3=0x80008a84
       22255000	      2224	80001a8c	dd818193	addi	x3,x3,-552	  x3:0x80008a84  x3=0x8000885c
       22265000	      2225	80001a90	00aa4b33	xor	x22,x20,x10	 x20:0xffffffe0 x10:0x00000000 x22=0xffffffe0
       22275000	      2226	80001a94	015187a3	sb	x21,15(x3)	  x3:0x8000885c x21:0x00000081 PA:0x8000886b
       22285000	      2227	80001a98	00319123	sh	x3,2(x3)	  x3:0x8000885c  x3:0x8000885c PA:0x8000885e
       22295000	      2228	80001a9c	01005d33	srl	x26,x0,x16	  x0:0x00000000 x16:0x00000060 x26=0x00000000
       22305000	      2229	80001aa0	ffc1c483	lbu	x9,-4(x3)	  x3:0x8000885c  x9=0x00000043 PA:0x80008858
       22315000	      2230	80001aa4	fe718ba3	sb	x7,-9(x3)	  x3:0x8000885c  x7:0x00000001 PA:0x80008853
       22325000	      2231	80001aa8	0071ce03	lbu	x28,7(x3)	  x3:0x8000885c x28=0x00000058 PA:0x80008863
       22335000	      2232	80001aac	01989e13	slli	x28,x17,0x19	 x17:0x0000001c x28=0x38000000
       22345000	      2233	80001ab0	5c806813	ori	x16,x0,1480	  x0:0x00000000 x16=0x000005c8
       22355000	      2234	80001ab4	0811b893	sltiu	x17,x3,129	  x3:0x8000885c x17=0x00000000
       22365000	      2235	80001ab8	00919423	sh	x9,8(x3)	  x3:0x8000885c  x9:0x00000043 PA:0x80008864
       22375000	      2236	80001abc	00a1c703	lbu	x14,10(x3)	  x3:0x8000885c x14=0x0000002a PA:0x80008866
       22385000	      2237	00000000	00000013	addi	x0,x0,0	  x0:0x00000000
       22395000	      2238	80001ac0	1ee28013	addi	x0,x5,494	  x5:0x00000000
       22405000	      2239	80001ac4	ffe18803	lb	x16,-2(x3)	  x3:0x8000885c x16=0xffffffcd PA:0x8000885a
       22415000	      2240	80001ac8	00f1c283	lbu	x5,15(x3)	  x3:0x8000885c  x5=0x00000081 PA:0x8000886b
       22425000	      2241	80001acc	7dafc313	xori	x6,x31,2010	 x31:0xa196ca7c  x6=0xa196cda6
       22435000	      2242	80001ad0	ffb18283	lb	x5,-5(x3)	  x3:0x8000885c  x5=0x0000001d PA:0x80008857
       22445000	      2243	80001ad4	ff51cf83	lbu	x31,-11(x3)	  x3:0x8000885c x31=0x00000002 PA:0x80008851
       22455000	      2244	80001ad8	00e1d403	lhu	x8,14(x3)	  x3:0x8000885c  x8=0x00008163 PA:0x8000886a
       22465000	      2245	80001adc	fe918a23	sb	x9,-12(x3)	  x3:0x8000885c  x9:0x00000043 PA:0x80008850
       22475000	      2246	80001ae0	0011c983	lbu	x19,1(x3)	  x3:0x8000885c x19=0x0000008e PA:0x8000885d
       22485000	      2247	80001ae4	00e1d583	lhu	x11,14(x3)	  x3:0x8000885c x11=0x00008163 PA:0x8000886a
       22495000	      2248	80001ae8	00c186a3	sb	x12,13(x3)	  x3:0x8000885c x12:0x80009fc4 PA:0x80008869
       22505000	      2249	80001aec	40ae0a33	sub	x20,x28,x10	 x28:0x38000000 x10:0x00000000 x20=0x38000000
       22515000	      2250	80001af0	009dfb33	and	x22,x27,x9	 x27:0x80008875  x9:0x00000043 x22=0x00000041
       22525000	      2251	80001af4	00f18403	lb	x8,15(x3)	  x3:0x8000885c  x8=0xffffff81 PA:0x8000886b
       22535000	      2252	80001af8	ff419d23	sh	x20,-6(x3)	  x3:0x8000885c x20:0x38000000 PA:0x80008856
       22545000	      2253	80001afc	00a1d283	lhu	x5,10(x3)	  x3:0x8000885c  x5=0x0000c92a PA:0x80008866
       22555000	      2254	80001b00	ff81c983	lbu	x19,-8(x3)	  x3:0x8000885c x19=0x000000f3 PA:0x80008854
       22565000	      2255	80001b04	ff118d03	lb	x26,-15(x3)	  x3:0x8000885c x26=0x0000006f PA:0x8000884d
       22575000	      2256	80001b08	fe219c23	sh	x2,-8(x3)	  x3:0x8000885c  x2:0x00000000 PA:0x80008854
       22585000	      2257	80001b0c	41f05593	srai	x11,x0,0x1f	  x0:0x00000000 x11=0x00000000
       22595000	      2258	80001b10	0051c383	lbu	x7,5(x3)	  x3:0x8000885c  x7=0x000000f0 PA:0x80008861
       22605000	      2259	00000000	00000013	addi	x0,x0,0	  x0:0x00000000
       22615000	      2260	80001b14	487b7113	andi	x2,x22,1159	 x22:0x00000041  x2=0x00000001
       22625000	      2261	80001b18	fef18da3	sb	x15,-5(x3)	  x3:0x8000885c x15:0x80009fc4 PA:0x80008857
       22635000	      2262	80001b1c	00919023	sh	x9,0(x3)	  x3:0x8000885c  x9:0x00000043 PA:0x8000885c
       22645000	      2263	80001b20	00839713	slli	x14,x7,0x8	  x7:0x000000f0 x14=0x0000f000
       22655000	      2264	80001b24	00f9d3b3	srl	x7,x19,x15	 x19:0x000000f3 x15:0x80009fc4  x7=0x0000000f
       22665000	      2265	80001b28	ff118e23	sb	x17,-4(x3)	  x3:0x8000885c x17:0x00000000 PA:0x80008858
       22675000	      2266	80001b2c	ff0188a3	sb	x16,-15(x3)	  x3:0x8000885c x16:0xffffffcd PA:0x8000884d
       22685000	      2267	80001b30	00c19883	lh	x17,12(x3)	  x3:0x8000885c x17=0xffffc4b2 PA:0x80008868
       22695000	      2268	80001b34	040cf863	bgeu	x25,x0,80001b84	 x25:0x00000001  x0:0x00000000
       22705000	      2269	00000000	00000013	addi	x0,x0,0	  x0:0x00000000
       22715000	      2270	80001b80	00000013	addi	x0,x0,0	  x0:0x00000000
       22725000	      2271	80001b84	418cdd13	srai	x26,x25,0x18	 x25:0x00000001 x26=0x00000000
       22735000	      2272	80001b88	01141313	slli	x6,x8,0x11	  x8:0xffffff81  x6=0xff020000
       22745000	      2273	80001b8c	40a509b3	sub	x19,x10,x10	 x10:0x00000000 x10:0x00000000 x19=0x00000000
       22755000	      2274	80001b90	545ef337	lui	x6,0x545ef	  x6=0x545ef000
       22765000	      2275	80001b94	028fc263	blt	x31,x8,80001bb8	 x31:0x00000002  x8:0xffffff81
       22775000	      2276	80001b98	00919233	sll	x4,x3,x9	  x3:0x8000885c  x9:0x00000043  x4=0x000442e0
       22785000	      2277	80001b9c	05ffd663	bge	x31,x31,80001be8	 x31:0x00000002 x31:0x00000002
       22795000	      2278	00000000	00000013	addi	x0,x0,0	  x0:0x00000000
       22805000	      2279	80001be4	00000013	addi	x0,x0,0	  x0:0x00000000
       22815000	      2280	80001be8	01509f93	slli	x31,x1,0x15	  x1:0x0000002a x31=0x05400000
       22825000	      2281	80001bec	023d9863	bne	x27,x3,80001c1c	 x27:0x80008875  x3:0x8000885c
       22835000	      2282	00000000	00000013	addi	x0,x0,0	  x0:0x00000000
       22845000	      2283	80001c18	00000013	addi	x0,x0,0	  x0:0x00000000
       22855000	      2284	80001c1c	02279063	bne	x15,x2,80001c3c	 x15:0x80009fc4  x2:0x00000001
       22865000	      2285	00000000	00000013	addi	x0,x0,0	  x0:0x00000000
       22875000	      2286	80001c38	00000013	addi	x0,x0,0	  x0:0x00000000
       22885000	      2287	80001c3c	709fcd93	xori	x27,x31,1801	 x31:0x05400000 x27=0x05400709
       22895000	      2288	80001c40	02561663	bne	x12,x5,80001c6c	 x12:0x80009fc4  x5:0x0000c92a
       22905000	      2289	00000000	00000013	addi	x0,x0,0	  x0:0x00000000
       22915000	      2290	80001c68	00000013	addi	x0,x0,0	  x0:0x00000000
       22925000	      2291	80001c6c	01271113	slli	x2,x14,0x12	 x14:0x0000f000  x2=0xc0000000
       22935000	      2292	80001c70	01c7f0b3	and	x1,x15,x28	 x15:0x80009fc4 x28:0x38000000  x1=0x00000000
       22945000	      2293	80001c74	01a00b33	add	x22,x0,x26	  x0:0x00000000 x26:0x00000000 x22=0x00000000
       22955000	      2294	80001c78	00ba6733	or	x14,x20,x11	 x20:0x38000000 x11:0x00000000 x14=0x38000000
       22965000	      2295	80001c7c	00000013	addi	x0,x0,0	  x0:0x00000000
       22975000	      2296	80001c80	00de75b3	and	x11,x28,x13	 x28:0x38000000 x13:0x000047f8 x11=0x00000000
       22985000	      2297	80001c84	0387e663	bltu	x15,x24,80001cb0	 x15:0x80009fc4 x24:0x00000e43
       22995000	      2298	80001c88	9038b113	sltiu	x2,x17,-1789	 x17:0xffffc4b2  x2=0x00000001
       23005000	      2299	80001c8c	004019b3	sll	x19,x0,x4	  x0:0x00000000  x4:0x000442e0 x19=0x00000000
       23015000	      2300	80001c90	4181de93	srai	x29,x3,0x18	  x3:0x8000885c x29=0xffffff80
       23025000	      2301	80001c94	004303b3	add	x7,x6,x4	  x6:0x545ef000  x4:0x000442e0  x7=0x546332e0
       23035000	      2302	80001c98	fd70af93	slti	x31,x1,-41	  x1:0x00000000 x31=0x00000000
       23045000	      2303	80001c9c	0013deb3	srl	x29,x7,x1	  x7:0x546332e0  x1:0x00000000 x29=0x546332e0
       23055000	      2304	80001ca0	017e1b13	slli	x22,x28,0x17	 x28:0x38000000 x22=0x00000000
       23065000	      2305	80001ca4	209e8a13	addi	x20,x29,521	 x29:0x546332e0 x20=0x546334e9
       23075000	      2306	80001ca8	00734e33	xor	x28,x6,x7	  x6:0x545ef000  x7:0x546332e0 x28=0x003dc2e0
       23085000	      2307	80001cac	02628863	beq	x5,x6,80001cdc	  x5:0x0000c92a  x6:0x545ef000
       23095000	      2308	80001cb0	0125d663	bge	x11,x18,80001cbc	 x11:0x00000000 x18:0x80009f10
       23105000	      2309	00000000	00000013	addi	x0,x0,0	  x0:0x00000000
       23115000	      2310	80001cb8	00000013	addi	x0,x0,0	  x0:0x00000000
       23125000	      2311	80001cbc	02de4e63	blt	x28,x13,80001cf8	 x28:0x003dc2e0 x13:0x000047f8
       23135000	      2312	80001cc0	014303b3	add	x7,x6,x20	  x6:0x545ef000 x20:0x546334e9  x7=0xa8c224e9
       23145000	      2313	80001cc4	00000013	addi	x0,x0,0	  x0:0x00000000
       23155000	      2314	80001cc8	00000013	addi	x0,x0,0	  x0:0x00000000
       23165000	      2315	80001ccc	bdb52a13	slti	x20,x10,-1061	 x10:0x00000000 x20=0x00000000
       23175000	      2316	80001cd0	015e5c63	bge	x28,x21,80001ce8	 x28:0x003dc2e0 x21:0x00000081
       23185000	      2317	00000000	00000013	addi	x0,x0,0	  x0:0x00000000
       23195000	      2318	80001ce4	00000013	addi	x0,x0,0	  x0:0x00000000
       23205000	      2319	80001ce8	01804833	xor	x16,x0,x24	  x0:0x00000000 x24:0x00000e43 x16=0x00000e43
       23215000	      2320	80001cec	00ee1663	bne	x28,x14,80001cf8	 x28:0x003dc2e0 x14:0x38000000
       23225000	      2321	00000000	00000013	addi	x0,x0,0	  x0:0x00000000
       23235000	      2322	80001cf4	00000013	addi	x0,x0,0	  x0:0x00000000
       23245000	      2323	80001cf8	00f15993	srli	x19,x2,0xf	  x2:0x00000001 x19=0x00000000
       23255000	      2324	80001cfc	fc0c5a17	auipc	x20,0xfc0c5	 x20=0x7c0c6cf8
       23265000	      2325	80001d00	00c228b3	slt	x17,x4,x12	  x4:0x000442e0 x12:0x80009fc4 x17=0x00000000
       23275000	      2326	80001d04	586eaf93	slti	x31,x29,1414	 x29:0x546332e0 x31=0x00000000
       23285000	      2327	80001d08	08466c97	auipc	x25,0x8466	 x25=0x88467d04
       23295000	      2328	80001d0c	0070d113	srli	x2,x1,0x7	  x1:0x00000000  x2=0x00000000
       23305000	      2329	80001d10	033a9063	bne	x21,x19,80001d30	 x21:0x00000081 x19:0x00000000
       23315000	      2330	00000000	00000013	addi	x0,x0,0	  x0:0x00000000
       23325000	      2331	80001d2c	00000013	addi	x0,x0,0	  x0:0x00000000
       23335000	      2332	80001d30	c3424d13	xori	x26,x4,-972	  x4:0x000442e0 x26=0xfffbbed4
       23345000	      2333	80001d34	236d8893	addi	x17,x27,566	 x27:0x05400709 x17=0x0540093f
       23355000	      2334	80001d38	40d950b3	sra	x1,x18,x13	 x18:0x80009f10 x13:0x000047f8  x1=0xffffff80
       23365000	      2335	80001d3c	00000013	addi	x0,x0,0	  x0:0x00000000
       23375000	      2336	80001d40	0238c063	blt	x17,x3,80001d60	 x17:0x0540093f  x3:0x8000885c
       23385000	      2337	80001d44	013c9293	slli	x5,x25,0x13	 x25:0x88467d04  x5=0xe8200000
       23395000	      2338	80001d48	013dd033	srl	x0,x27,x19	 x27:0x05400709 x19:0x00000000
       23405000	      2339	80001d4c	005fcab3	xor	x21,x31,x5	 x31:0x00000000  x5:0xe8200000 x21=0xe8200000
       23415000	      2340	80001d50	4139d113	srai	x2,x19,0x13	 x19:0x00000000  x2=0x00000000
       23425000	      2341	80001d54	019c6a63	bltu	x24,x25,80001d68	 x24:0x00000e43 x25:0x88467d04
       23435000	      2342	00000000	00000013	addi	x0,x0,0	  x0:0x00000000
       23445000	      2343	80001d64	00000013	addi	x0,x0,0	  x0:0x00000000
       23455000	      2344	80001d68	00f33ab3	sltu	x21,x6,x15	  x6:0x545ef000 x15:0x80009fc4 x21=0x00000001
       23465000	      2345	80001d6c	40568d33	sub	x26,x13,x5	 x13:0x000047f8  x5:0xe8200000 x26=0x17e047f8
       23475000	      2346	80001d70	acff0537	lui	x10,0xacff0	 x10=0xacff0000
       23485000	      2347	80001d74	00a20233	add	x4,x4,x10	  x4:0x000442e0 x10:0xacff0000  x4=0xad0342e0
       23495000	      2348	80001d78	4154da13	srai	x20,x9,0x15	  x9:0x00000043 x20=0x00000000
       23505000	      2349	80001d7c	00129ab3	sll	x21,x5,x1	  x5:0xe8200000  x1:0xffffff80 x21=0xe8200000
       23515000	      2350	80001d80	0112ab33	slt	x22,x5,x17	  x5:0xe8200000 x17:0x0540093f x22=0x00000001
       23525000	      2351	80001d84	003c3ab3	sltu	x21,x24,x3	 x24:0x00000e43  x3:0x8000885c x21=0x00000001
       23535000	      2352	80001d88	00000013	addi	x0,x0,0	  x0:0x00000000
       23545000	      2353	80001d8c	0101d1b3	srl	x3,x3,x16	  x3:0x8000885c x16:0x00000e43  x3=0x1000110b
       23555000	      2354	80001d90	d3cb4e13	xori	x28,x22,-708	 x22:0x00000001 x28=0xfffffd3d
       23565000	      2355	80001d94	01f11813	slli	x16,x2,0x1f	  x2:0x00000000 x16=0x00000000
       23575000	      2356	80001d98	0007cc63	blt	x15,x0,80001db0	 x15:0x80009fc4  x0:0x00000000
       23585000	      2357	00000000	00000013	addi	x0,x0,0	  x0:0x00000000
       23595000	      2358	80001dac	00000013	addi	x0,x0,0	  x0:0x00000000
       23605000	      2359	80001db0	41fe5793	srai	x15,x28,0x1f	 x28:0xfffffd3d x15=0xffffffff
       23615000	      2360	80001db4	00bf7663	bgeu	x30,x11,80001dc0	 x30:0xf2903d81 x11:0x00000000
       23625000	      2361	00000000	00000013	addi	x0,x0,0	  x0:0x00000000
       23635000	      2362	80001dbc	00000013	addi	x0,x0,0	  x0:0x00000000
       23645000	      2363	80001dc0	0022cd33	xor	x26,x5,x2	  x5:0xe8200000  x2:0x00000000 x26=0xe8200000
       23655000	      2364	80001dc4	418981b3	sub	x3,x19,x24	 x19:0x00000000 x24:0x00000e43  x3=0xfffff1bd
       23665000	      2365	80001dc8	016d8033	add	x0,x27,x22	 x27:0x05400709 x22:0x00000001
       23675000	      2366	80001dcc	40228833	sub	x16,x5,x2	  x5:0xe8200000  x2:0x00000000 x16=0xe8200000
       23685000	      2367	80001dd0	0175ca63	blt	x11,x23,80001de4	 x11:0x00000000 x23:0x00004375
       23695000	      2368	00000000	00000013	addi	x0,x0,0	  x0:0x00000000
       23705000	      2369	80001de0	00000013	addi	x0,x0,0	  x0:0x00000000
       23715000	      2370	80001de4	40ba8133	sub	x2,x21,x11	 x21:0x00000001 x11:0x00000000  x2=0x00000001
       23725000	      2371	80001de8	03354a63	blt	x10,x19,80001e1c	 x10:0xacff0000 x19:0x00000000
       23735000	      2372	00000000	00000013	addi	x0,x0,0	  x0:0x00000000
       23745000	      2373	80001e18	00000013	addi	x0,x0,0	  x0:0x00000000
       23755000	      2374	80001e1c	41ad0033	sub	x0,x26,x26	 x26:0xe8200000 x26:0xe8200000
       23765000	      2375	80001e20	0413d663	bge	x7,x1,80001e6c	  x7:0xa8c224e9  x1:0xffffff80
       23775000	      2376	80001e24	c02ae017	auipc	x0,0xc02ae	
       23785000	      2377	80001e28	0122f4b3	and	x9,x5,x18	  x5:0xe8200000 x18:0x80009f10  x9=0x80000000
       23795000	      2378	80001e2c	00476333	or	x6,x14,x4	 x14:0x38000000  x4:0xad0342e0  x6=0xbd0342e0
       23805000	      2379	80001e30	00b95e93	srli	x29,x18,0xb	 x18:0x80009f10 x29=0x00100013
       23815000	      2380	80001e34	01e874b3	and	x9,x16,x30	 x16:0xe8200000 x30:0xf2903d81  x9=0xe0000000
       23825000	      2381	80001e38	410cdfb3	sra	x31,x25,x16	 x25:0x88467d04 x16:0xe8200000 x31=0x88467d04
       23835000	      2382	80001e3c	013c26b3	slt	x13,x24,x19	 x24:0x00000e43 x19:0x00000000 x13=0x00000000
       23845000	      2383	80001e40	3e50b713	sltiu	x14,x1,997	  x1:0xffffff80 x14=0x00000000
       23855000	      2384	80001e44	aac37b13	andi	x22,x6,-1364	  x6:0xbd0342e0 x22=0xbd0342a0
       23865000	      2385	80001e48	25ba0517	auipc	x10,0x25ba0	 x10=0xa5ba1e44
       23875000	      2386	80001e4c	00000013	addi	x0,x0,0	  x0:0x00000000
       23885000	      2387	80001e50	4b5dfe93	andi	x29,x27,1205	 x27:0x05400709 x29=0x00000401
       23895000	      2388	80001e54	254ba993	slti	x19,x23,596	 x23:0x00004375 x19=0x00000000
       23905000	      2389	80001e58	65ea6a93	ori	x21,x20,1630	 x20:0x00000000 x21=0x0000065e
       23915000	      2390	80001e5c	01fdf4b3	and	x9,x27,x31	 x27:0x05400709 x31:0x88467d04  x9=0x00400500
       23925000	      2391	80001e60	00956d33	or	x26,x10,x9	 x10:0xa5ba1e44  x9:0x00400500 x26=0xa5fa1f44
       23935000	      2392	80001e64	00146a63	bltu	x8,x1,80001e78	  x8:0xffffff81  x1:0xffffff80
       23945000	      2393	80001e68	d3d06c13	ori	x24,x0,-707	  x0:0x00000000 x24=0xfffffd3d
       23955000	      2394	80001e6c	038f0263	beq	x30,x24,80001e90	 x30:0xf2903d81 x24:0xfffffd3d
       23965000	      2395	80001e70	013d28b3	slt	x17,x26,x19	 x26:0xa5fa1f44 x19:0x00000000 x17=0x00000001
       23975000	      2396	80001e74	2fbb0213	addi	x4,x22,763	 x22:0xbd0342a0  x4=0xbd03459b
       23985000	      2397	80001e78	62993b13	sltiu	x22,x18,1577	 x18:0x80009f10 x22=0x00000000
       23995000	      2398	80001e7c	4eaa5697	auipc	x13,0x4eaa5	 x13=0xceaa6e78
       24005000	      2399	80001e80	00000013	addi	x0,x0,0	  x0:0x00000000
       24015000	      2400	80001e84	01856e33	or	x28,x10,x24	 x10:0xa5ba1e44 x24:0xfffffd3d x28=0xffffff7d
       24025000	      2401	80001e88	6ba16b97	auipc	x23,0x6ba16	 x23=0xeba17e84
       24035000	      2402	80001e8c	b7763a37	lui	x20,0xb7763	 x20=0xb7763000
       24045000	      2403	80001e90	00c3f2b3	and	x5,x7,x12	  x7:0xa8c224e9 x12:0x80009fc4  x5=0x800004c0
       24055000	      2404	80001e94	40d0d893	srai	x17,x1,0xd	  x1:0xffffff80 x17=0xffffffff
       24065000	      2405	80001e98	ce658813	addi	x16,x11,-794	 x11:0x00000000 x16=0xfffffce6
       24075000	      2406	80001e9c	43fe8cb7	lui	x25,0x43fe8	 x25=0x43fe8000
       24085000	      2407	80001ea0	00601bb3	sll	x23,x0,x6	  x0:0x00000000  x6:0xbd0342e0 x23=0x00000000
       24095000	      2408	80001ea4	005590b3	sll	x1,x11,x5	 x11:0x00000000  x5:0x800004c0  x1=0x00000000
       24105000	      2409	80001ea8	0899be37	lui	x28,0x899b	 x28=0x0899b000
       24115000	      2410	80001eac	008056b3	srl	x13,x0,x8	  x0:0x00000000  x8:0xffffff81 x13=0x00000000
       24125000	      2411	80001eb0	004a2bb3	slt	x23,x20,x4	 x20:0xb7763000  x4:0xbd03459b x23=0x00000001
       24135000	      2412	80001eb4	01b9d0b3	srl	x1,x19,x27	 x19:0x00000000 x27:0x05400709  x1=0x00000000
       24145000	      2413	80001eb8	00397033	and	x0,x18,x3	 x18:0x80009f10  x3:0xfffff1bd
       24155000	      2414	80001ebc	45f73e93	sltiu	x29,x14,1119	 x14:0x00000000 x29=0x00000001
       24165000	      2415	80001ec0	004a23b3	slt	x7,x20,x4	 x20:0xb7763000  x4:0xbd03459b  x7=0x00000001
       24175000	      2416	80001ec4	02cbd063	bge	x23,x12,80001ee4	 x23:0x00000001 x12:0x80009fc4
       24185000	      2417	00000000	00000013	addi	x0,x0,0	  x0:0x00000000
       24195000	      2418	80001ee0	00000013	addi	x0,x0,0	  x0:0x00000000
       24205000	      2419	80001ee4	4ddc0197	auipc	x3,0x4ddc0	  x3=0xcddc1ee0
       24215000	      2420	80001ee8	0073ddb3	srl	x27,x7,x7	  x7:0x00000001  x7:0x00000001 x27=0x00000000
       24225000	      2421	80001eec	00d79133	sll	x2,x15,x13	 x15:0xffffffff x13:0x00000000  x2=0xffffffff
       24235000	      2422	80001ef0	0451c663	blt	x3,x5,80001f3c	  x3:0xcddc1ee0  x5:0x800004c0
       24245000	      2423	80001ef4	01ea4e33	xor	x28,x20,x30	 x20:0xb7763000 x30:0xf2903d81 x28=0x45e60d81
       24255000	      2424	80001ef8	01a417b3	sll	x15,x8,x26	  x8:0xffffff81 x26:0xa5fa1f44 x15=0xfffff810
       24265000	      2425	80001efc	000fa2b3	slt	x5,x31,x0	 x31:0x88467d04  x0:0x00000000  x5=0x00000001
       24275000	      2426	80001f00	31fa0d93	addi	x27,x20,799	 x20:0xb7763000 x27=0xb776331f
       24285000	      2427	80001f04	01945733	srl	x14,x8,x25	  x8:0xffffff81 x25:0x43fe8000 x14=0xffffff81
       24295000	      2428	80001f08	ce9d6593	ori	x11,x26,-791	 x26:0xa5fa1f44 x11=0xffffffed
       24305000	      2429	80001f0c	1e033597	auipc	x11,0x1e033	 x11=0x9e034f08
       24315000	      2430	80001f10	691a0697	auipc	x13,0x691a0	 x13=0xe91a1f0c
       24325000	      2431	80001f14	41c78bb3	sub	x23,x15,x28	 x15:0xfffff810 x28:0x45e60d81 x23=0xba19ea8f
       24335000	      2432	80001f18	45427893	andi	x17,x4,1108	  x4:0xbd03459b x17=0x00000410
       24345000	      2433	80001f1c	0896d837	lui	x16,0x896d	 x16=0x0896d000
       24355000	      2434	80001f20	012d5233	srl	x4,x26,x18	 x26:0xa5fa1f44 x18:0x80009f10  x4=0x0000a5fa
       24365000	      2435	80001f24	01ca41b3	xor	x3,x20,x28	 x20:0xb7763000 x28:0x45e60d81  x3=0xf2903d81
       24375000	      2436	80001f28	d6932f93	slti	x31,x6,-663	  x6:0xbd0342e0 x31=0x00000001
       24385000	      2437	80001f2c	006b28b3	slt	x17,x22,x6	 x22:0x00000000  x6:0xbd0342e0 x17=0x00000000
       24395000	      2438	80001f30	00c4cab3	xor	x21,x9,x12	  x9:0x00400500 x12:0x80009fc4 x21=0x80409ac4
       24405000	      2439	80001f34	00f96133	or	x2,x18,x15	 x18:0x80009f10 x15:0xfffff810  x2=0xffffff10
       24415000	      2440	80001f38	0008a033	slt	x0,x17,x0	 x17:0x00000000  x0:0x00000000
       24425000	      2441	80001f3c	41cad5b3	sra	x11,x21,x28	 x21:0x80409ac4 x28:0x45e60d81 x11=0xc0204d62
       24435000	      2442	80001f40	82ce8a93	addi	x21,x29,-2004	 x29:0x00000001 x21=0xfffff82d
       24445000	      2443	80001f44	314a1cb7	lui	x25,0x314a1	 x25=0x314a1000
       24455000	      2444	80001f48	0171ae33	slt	x28,x3,x23	  x3:0xf2903d81 x23:0xba19ea8f x28=0x00000000
       24465000	      2445	80001f4c	694c3d93	sltiu	x27,x24,1684	 x24:0xfffffd3d x27=0x00000000
       24475000	      2446	80001f50	03f3de63	bge	x7,x31,80001f8c	  x7:0x00000001 x31:0x00000001
       24485000	      2447	00000000	00000013	addi	x0,x0,0	  x0:0x00000000
       24495000	      2448	80001f88	00000013	addi	x0,x0,0	  x0:0x00000000
       24505000	      2449	80001f8c	00521333	sll	x6,x4,x5	  x4:0x0000a5fa  x5:0x00000001  x6=0x00014bf4
       24515000	      2450	80001f90	00000013	addi	x0,x0,0	  x0:0x00000000
       24525000	      2451	80001f94	0349ce63	blt	x19,x20,80001fd0	 x19:0x00000000 x20:0xb7763000
       24535000	      2452	80001f98	da0b5517	auipc	x10,0xda0b5	 x10=0x5a0b6f94
       24545000	      2453	80001f9c	002a64b3	or	x9,x20,x2	 x20:0xb7763000  x2:0xffffff10  x9=0xffffff10
       24555000	      2454	80001fa0	010c9f93	slli	x31,x25,0x10	 x25:0x314a1000 x31=0x10000000
       24565000	      2455	80001fa4	337adfb7	lui	x31,0x337ad	 x31=0x337ad000
       24575000	      2456	80001fa8	01387a33	and	x20,x16,x19	 x16:0x0896d000 x19:0x00000000 x20=0x00000000
       24585000	      2457	80001fac	01aa5213	srli	x4,x20,0x1a	 x20:0x00000000  x4=0x00000000
       24595000	      2458	80001fb0	01b08bb3	add	x23,x1,x27	  x1:0x00000000 x27:0x00000000 x23=0x00000000
       24605000	      2459	80001fb4	01197eb3	and	x29,x18,x17	 x18:0x80009f10 x17:0x00000000 x29=0x00000000
       24615000	      2460	80001fb8	013c9e93	slli	x29,x25,0x13	 x25:0x314a1000 x29=0x80000000
       24625000	      2461	80001fbc	02afc863	blt	x31,x10,80001fec	 x31:0x337ad000 x10:0x5a0b6f94
       24635000	      2462	00000000	00000013	addi	x0,x0,0	  x0:0x00000000
       24645000	      2463	80001fe8	00000013	addi	x0,x0,0	  x0:0x00000000
       24655000	      2464	80001fec	00ee0bb3	add	x23,x28,x14	 x28:0x00000000 x14:0xffffff81 x23=0xffffff81
       24665000	      2465	80001ff0	41c15893	srai	x17,x2,0x1c	  x2:0xffffff10 x17=0xffffffff
       24675000	      2466	80001ff4	8b10c213	xori	x4,x1,-1871	  x1:0x00000000  x4=0xfffff8b1
       24685000	      2467	80001ff8	010ba4b3	slt	x9,x23,x16	 x23:0xffffff81 x16:0x0896d000  x9=0x00000001
       24695000	      2468	80001ffc	8f772693	slti	x13,x14,-1801	 x14:0xffffff81 x13=0x00000000
       24705000	      2469	80002000	00eea7b3	slt	x15,x29,x14	 x29:0x80000000 x14:0xffffff81 x15=0x00000001
       24715000	      2470	80002004	002501b3	add	x3,x10,x2	 x10:0x5a0b6f94  x2:0xffffff10  x3=0x5a0b6ea4
       24725000	      2471	80002008	02a97263	bgeu	x18,x10,8000202c	 x18:0x80009f10 x10:0x5a0b6f94
       24735000	      2472	00000000	00000013	addi	x0,x0,0	  x0:0x00000000
       24745000	      2473	80002028	00000013	addi	x0,x0,0	  x0:0x00000000
       24755000	      2474	8000202c	65288193	addi	x3,x17,1618	 x17:0xffffffff  x3=0x00000651
       24765000	      2475	80002030	016774b3	and	x9,x14,x22	 x14:0xffffff81 x22:0x00000000  x9=0x00000000
       24775000	      2476	80002034	03e7e263	bltu	x15,x30,80002058	 x15:0x00000001 x30:0xf2903d81
       24785000	      2477	00000000	00000013	addi	x0,x0,0	  x0:0x00000000
       24795000	      2478	80002054	00000013	addi	x0,x0,0	  x0:0x00000000
       24805000	      2479	80002058	01a77333	and	x6,x14,x26	 x14:0xffffff81 x26:0xa5fa1f44  x6=0xa5fa1f00
       24815000	      2480	8000205c	419281b3	sub	x3,x5,x25	  x5:0x00000001 x25:0x314a1000  x3=0xceb5f001
       24825000	      2481	80002060	6521c813	xori	x16,x3,1618	  x3:0xceb5f001 x16=0xceb5f653
       24835000	      2482	80002064	00798663	beq	x19,x7,80002070	 x19:0x00000000  x7:0x00000001
       24845000	      2483	80002068	cd6c6a93	ori	x21,x24,-810	 x24:0xfffffd3d x21=0xfffffdff
       24855000	      2484	8000206c	00ec5213	srli	x4,x24,0xe	 x24:0xfffffd3d  x4=0x0003ffff
       24865000	      2485	80002070	036d8a63	beq	x27,x22,800020a4	 x27:0x00000000 x22:0x00000000
       24875000	      2486	00000000	00000013	addi	x0,x0,0	  x0:0x00000000
       24885000	      2487	800020a0	00000013	addi	x0,x0,0	  x0:0x00000000
       24895000	      2488	800020a4	40b80bb3	sub	x23,x16,x11	 x16:0xceb5f653 x11:0xc0204d62 x23=0x0e95a8f1
       24905000	      2489	800020a8	00d07fb3	and	x31,x0,x13	  x0:0x00000000 x13:0x00000000 x31=0x00000000
       24915000	      2490	800020ac	004d7333	and	x6,x26,x4	 x26:0xa5fa1f44  x4:0x0003ffff  x6=0x00021f44
       24925000	      2491	800020b0	7fe18d93	addi	x27,x3,2046	  x3:0xceb5f001 x27=0xceb5f7ff
       24935000	      2492	800020b4	01ac5f93	srli	x31,x24,0x1a	 x24:0xfffffd3d x31=0x0000003f
       24945000	      2493	800020b8	d62fba13	sltiu	x20,x31,-670	 x31:0x0000003f x20=0x00000001
       24955000	      2494	800020bc	01d044b3	xor	x9,x0,x29	  x0:0x00000000 x29:0x80000000  x9=0x80000000
       24965000	      2495	800020c0	008097b3	sll	x15,x1,x8	  x1:0x00000000  x8:0xffffff81 x15=0x00000000
       24975000	      2496	800020c4	009b6333	or	x6,x22,x9	 x22:0x00000000  x9:0x80000000  x6=0x80000000
       24985000	      2497	800020c8	02575263	bge	x14,x5,800020ec	 x14:0xffffff81  x5:0x00000001
       24995000	      2498	800020cc	01424a63	blt	x4,x20,800020e0	  x4:0x0003ffff x20:0x00000001
       25005000	      2499	800020d0	411d0233	sub	x4,x26,x17	 x26:0xa5fa1f44 x17:0xffffffff  x4=0xa5fa1f45
       25015000	      2500	800020d4	00ebdc93	srli	x25,x23,0xe	 x23:0x0e95a8f1 x25=0x00003a56
       25025000	      2501	800020d8	cf2e0d93	addi	x27,x28,-782	 x28:0x00000000 x27=0xfffffcf2
       25035000	      2502	800020dc	9abf6993	ori	x19,x30,-1621	 x30:0xf2903d81 x19=0xfffffdab
       25045000	      2503	800020e0	41a85793	srai	x15,x16,0x1a	 x16:0xceb5f653 x15=0xfffffff3
       25055000	      2504	800020e4	fd324093	xori	x1,x4,-45	  x4:0xa5fa1f45  x1=0x5a05e096
       25065000	      2505	800020e8	03e24e63	blt	x4,x30,80002124	  x4:0xa5fa1f45 x30:0xf2903d81
       25075000	      2506	00000000	00000013	addi	x0,x0,0	  x0:0x00000000
       25085000	      2507	80002120	00000013	addi	x0,x0,0	  x0:0x00000000
       25095000	      2508	80002124	0072ebb3	or	x23,x5,x7	  x5:0x00000001  x7:0x00000001 x23=0x00000001
       25105000	      2509	80002128	035d8663	beq	x27,x21,80002154	 x27:0xfffffcf2 x21:0xfffffdff
       25115000	      2510	8000212c	02c19063	bne	x3,x12,8000214c	  x3:0xceb5f001 x12:0x80009fc4
       25125000	      2511	00000000	00000013	addi	x0,x0,0	  x0:0x00000000
       25135000	      2512	80002148	00000013	addi	x0,x0,0	  x0:0x00000000
       25145000	      2513	8000214c	41675693	srai	x13,x14,0x16	 x14:0xffffff81 x13=0xffffffff
       25155000	      2514	80002150	0052ad33	slt	x26,x5,x5	  x5:0x00000001  x5:0x00000001 x26=0x00000000
       25165000	      2515	80002154	02311663	bne	x2,x3,80002180	  x2:0xffffff10  x3:0xceb5f001
       25175000	      2516	00000000	00000013	addi	x0,x0,0	  x0:0x00000000
       25185000	      2517	8000217c	00000013	addi	x0,x0,0	  x0:0x00000000
       25195000	      2518	80002180	41acd993	srai	x19,x25,0x1a	 x25:0x00003a56 x19=0x00000000
       25205000	      2519	80002184	a184d017	auipc	x0,0xa184d	
       25215000	      2520	80002188	41915213	srai	x4,x2,0x19	  x2:0xffffff10  x4=0xffffffff
       25225000	      2521	8000218c	0124d413	srli	x8,x9,0x12	  x9:0x80000000  x8=0x00002000
       25235000	      2522	80002190	40f55d93	srai	x27,x10,0xf	 x10:0x5a0b6f94 x27=0x0000b416
       25245000	      2523	80002194	0083f4b3	and	x9,x7,x8	  x7:0x00000001  x8:0x00002000  x9=0x00000000
       25255000	      2524	80002198	00f80e33	add	x28,x16,x15	 x16:0xceb5f653 x15:0xfffffff3 x28=0xceb5f646
       25265000	      2525	8000219c	41c85293	srai	x5,x16,0x1c	 x16:0xceb5f653  x5=0xfffffffc
       25275000	      2526	800021a0	013ca8b3	slt	x17,x25,x19	 x25:0x00003a56 x19:0x00000000 x17=0x00000000
       25285000	      2527	800021a4	00656663	bltu	x10,x6,800021b0	 x10:0x5a0b6f94  x6:0x80000000
       25295000	      2528	00000000	00000013	addi	x0,x0,0	  x0:0x00000000
       25305000	      2529	800021ac	00000013	addi	x0,x0,0	  x0:0x00000000
       25315000	      2530	800021b0	73113093	sltiu	x1,x2,1841	  x2:0xffffff10  x1=0x00000000
       25325000	      2531	800021b4	bb34e137	lui	x2,0xbb34e	  x2=0xbb34e000
       25335000	      2532	800021b8	007dffb3	and	x31,x27,x7	 x27:0x0000b416  x7:0x00000001 x31=0x00000000
       25345000	      2533	800021bc	009bd313	srli	x6,x23,0x9	 x23:0x00000001  x6=0x00000000
       25355000	      2534	800021c0	de4f9a17	auipc	x20,0xde4f9	 x20=0x5e4fb1bc
       25365000	      2535	800021c4	20a8b013	sltiu	x0,x17,522	 x17:0x00000000
       25375000	      2536	800021c8	4558f837	lui	x16,0x4558f	 x16=0x4558f000
       25385000	      2537	800021cc	98e34c93	xori	x25,x6,-1650	  x6:0x00000000 x25=0xfffff98e
       25395000	      2538	800021d0	007c88b3	add	x17,x25,x7	 x25:0xfffff98e  x7:0x00000001 x17=0xfffff98f
       25405000	      2539	800021d4	00629db3	sll	x27,x5,x6	  x5:0xfffffffc  x6:0x00000000 x27=0xfffffffc
       25415000	      2540	800021d8	01427b33	and	x22,x4,x20	  x4:0xffffffff x20:0x5e4fb1bc x22=0x5e4fb1bc
       25425000	      2541	800021dc	017785b3	add	x11,x15,x23	 x15:0xfffffff3 x23:0x00000001 x11=0xfffffff4
       25435000	      2542	800021e0	417a8133	sub	x2,x21,x23	 x21:0xfffffdff x23:0x00000001  x2=0xfffffdfe
       25445000	      2543	800021e4	00cbdb33	srl	x22,x23,x12	 x23:0x00000001 x12:0x80009fc4 x22=0x00000000
       25455000	      2544	800021e8	00000013	addi	x0,x0,0	  x0:0x00000000
       25465000	      2545	800021ec	00abe463	bltu	x23,x10,800021f4	 x23:0x00000001 x10:0x5a0b6f94
       25475000	      2546	00000000	00000013	addi	x0,x0,0	  x0:0x00000000
       25485000	      2547	800021f0	00000013	addi	x0,x0,0	  x0:0x00000000
       25495000	      2548	800021f4	40ecd833	sra	x16,x25,x14	 x25:0xfffff98e x14:0xffffff81 x16=0xfffffcc7
       25505000	      2549	800021f8	a6c72a93	slti	x21,x14,-1428	 x14:0xffffff81 x21=0x00000000
       25515000	      2550	800021fc	00f3b333	sltu	x6,x7,x15	  x7:0x00000001 x15:0xfffffff3  x6=0x00000001
       25525000	      2551	80002200	03ea0063	beq	x20,x30,80002220	 x20:0x5e4fb1bc x30:0xf2903d81
       25535000	      2552	80002204	60cbf993	andi	x19,x23,1548	 x23:0x00000001 x19=0x00000000
       25545000	      2553	80002208	0011ddb3	srl	x27,x3,x1	  x3:0xceb5f001  x1:0x00000000 x27=0xceb5f001
       25555000	      2554	8000220c	01976c33	or	x24,x14,x25	 x14:0xffffff81 x25:0xfffff98e x24=0xffffff8f
       25565000	      2555	80002210	000943b3	xor	x7,x18,x0	 x18:0x80009f10  x0:0x00000000  x7=0x80009f10
       25575000	      2556	80002214	a5edfa13	andi	x20,x27,-1442	 x27:0xceb5f001 x20=0xceb5f000
       25585000	      2557	80002218	95362e93	slti	x29,x12,-1709	 x12:0x80009fc4 x29=0x00000001
       25595000	      2558	8000221c	4152df93	srai	x31,x5,0x15	  x5:0xfffffffc x31=0xffffffff
       25605000	      2559	80002220	00000013	addi	x0,x0,0	  x0:0x00000000
       25615000	      2560	80002224	01a557b3	srl	x15,x10,x26	 x10:0x5a0b6f94 x26:0x00000000 x15=0x5a0b6f94
       25625000	      2561	80002228	413f0cb3	sub	x25,x30,x19	 x30:0xf2903d81 x19:0x00000000 x25=0xf2903d81
       25635000	      2562	8000222c	766c2793	slti	x15,x24,1894	 x24:0xffffff8f x15=0x00000001
       25645000	      2563	80002230	01b63cb3	sltu	x25,x12,x27	 x12:0x80009fc4 x27:0xceb5f001 x25=0x00000001
       25655000	      2564	80002234	001472b3	and	x5,x8,x1	  x8:0x00002000  x1:0x00000000  x5=0x00000000
       25665000	      2565	80002238	e6fa6d13	ori	x26,x20,-401	 x20:0xceb5f000 x26=0xfffffe6f
       25675000	      2566	8000223c	014b8a63	beq	x23,x20,80002250	 x23:0x00000001 x20:0xceb5f000
       25685000	      2567	80002240	236c92b7	lui	x5,0x236c9	  x5=0x236c9000
       25695000	      2568	80002244	00000013	addi	x0,x0,0	  x0:0x00000000
       25705000	      2569	80002248	00000013	addi	x0,x0,0	  x0:0x00000000
       25715000	      2570	8000224c	1582ad93	slti	x27,x5,344	  x5:0x236c9000 x27=0x00000000
       25725000	      2571	80002250	416d07b3	sub	x15,x26,x22	 x26:0xfffffe6f x22:0x00000000 x15=0xfffffe6f
       25735000	      2572	80002254	40e85513	srai	x10,x16,0xe	 x16:0xfffffcc7 x10=0xffffffff
       25745000	      2573	80002258	00fed233	srl	x4,x29,x15	 x29:0x00000001 x15:0xfffffe6f  x4=0x00000000
       25755000	      2574	8000225c	01e9f433	and	x8,x19,x30	 x19:0x00000000 x30:0xf2903d81  x8=0x00000000
       25765000	      2575	80002260	00000013	addi	x0,x0,0	  x0:0x00000000
       25775000	      2576	80002264	04d2e663	bltu	x5,x13,800022b0	  x5:0x236c9000 x13:0xffffffff
       25785000	      2577	00000000	00000013	addi	x0,x0,0	  x0:0x00000000
       25795000	      2578	800022ac	00000013	addi	x0,x0,0	  x0:0x00000000
       25805000	      2579	800022b0	03a31863	bne	x6,x26,800022e0	  x6:0x00000001 x26:0xfffffe6f
       25815000	      2580	00000000	00000013	addi	x0,x0,0	  x0:0x00000000
       25825000	      2581	800022dc	00000013	addi	x0,x0,0	  x0:0x00000000
       25835000	      2582	800022e0	91220193	addi	x3,x4,-1774	  x4:0x00000000  x3=0xfffff912
       25845000	      2583	800022e4	0004da63	bge	x9,x0,800022f8	  x9:0x00000000  x0:0x00000000
       25855000	      2584	00000000	00000013	addi	x0,x0,0	  x0:0x00000000
       25865000	      2585	800022f4	00000013	addi	x0,x0,0	  x0:0x00000000
       25875000	      2586	800022f8	01d25833	srl	x16,x4,x29	  x4:0x00000000 x29:0x00000001 x16=0x00000000
       25885000	      2587	800022fc	50466093	ori	x1,x12,1284	 x12:0x80009fc4  x1=0x80009fc4
       25895000	      2588	80002300	00000013	addi	x0,x0,0	  x0:0x00000000
       25905000	      2589	80002304	b5c4e093	ori	x1,x9,-1188	  x9:0x00000000  x1=0xfffffb5c
       25915000	      2590	80002308	03040413	addi	x8,x8,48	  x8:0x00000000  x8=0x00000030
       25925000	      2591	8000230c	0039bdb3	sltu	x27,x19,x3	 x19:0x00000000  x3:0xfffff912 x27=0x00000001
       25935000	      2592	80002310	00000013	addi	x0,x0,0	  x0:0x00000000
       25945000	      2593	80002314	00006117	auipc	x2,0x6	  x2=0x80008310
       25955000	      2594	80002318	21d10113	addi	x2,x2,541	  x2:0x80008310  x2=0x8000852d
       25965000	      2595	8000231c	ca115383	lhu	x7,-863(x2)	  x2:0x8000852d  x7=0x000000b1 PA:0x800081ce
       25975000	      2596	80002320	fed14083	lbu	x1,-19(x2)	  x2:0x8000852d  x1=0x000000b9 PA:0x8000851a
       25985000	      2597	80002324	018bf333	and	x6,x23,x24	 x23:0x00000001 x24:0xffffff8f  x6=0x00000001
       25995000	      2598	80002328	ff1100a3	sb	x17,-31(x2)	  x2:0x8000852d x17:0xfffff98f PA:0x8000850e
       26005000	      2599	8000232c	20911183	lh	x3,521(x2)	  x2:0x8000852d  x3=0x0000562e PA:0x80008736
       26015000	      2600	00000000	00000013	addi	x0,x0,0	  x0:0x00000000
       26025000	      2601	80002330	bc310183	lb	x3,-1085(x2)	  x2:0x8000852d  x3=0x00000059 PA:0x800080f0
       26035000	      2602	80002334	f3be3737	lui	x14,0xf3be3	 x14=0xf3be3000
       26045000	      2603	80002338	0d58c293	xori	x5,x17,213	 x17:0xfffff98f  x5=0xfffff95a
       26055000	      2604	8000233c	0bbaa013	slti	x0,x21,187	 x21:0x00000000
       26065000	      2605	80002340	09214783	lbu	x15,146(x2)	  x2:0x8000852d x15=0x000000ac PA:0x800085bf
       26075000	      2606	80002344	ff114983	lbu	x19,-15(x2)	  x2:0x8000852d x19=0x00000004 PA:0x8000851e
       26085000	      2607	80002348	009f2a33	slt	x20,x30,x9	 x30:0xf2903d81  x9:0x00000000 x20=0x00000001
       26095000	      2608	8000234c	ff110d03	lb	x26,-15(x2)	  x2:0x8000852d x26=0x00000004 PA:0x8000851e
       26105000	      2609	80002350	e5414d83	lbu	x27,-428(x2)	  x2:0x8000852d x27=0x000000d2 PA:0x80008381
       26115000	      2610	80002354	00ecdd13	srli	x26,x25,0xe	 x25:0x00000001 x26=0x00000000
       26125000	      2611	80002358	00afbc33	sltu	x24,x31,x10	 x31:0xffffffff x10:0xffffffff x24=0x00000000
       26135000	      2612	8000235c	f6010003	lb	x0,-160(x2)	  x2:0x8000852d PA:0x8000848d
       26145000	      2613	80002360	f3010e83	lb	x29,-208(x2)	  x2:0x8000852d x29=0x0000007c PA:0x8000845d
       26155000	      2614	80002364	cc1104a3	sb	x1,-823(x2)	  x2:0x8000852d  x1:0x000000b9 PA:0x800081f6
       26165000	      2615	80002368	2370ad93	slti	x27,x1,567	  x1:0x000000b9 x27=0x00000001
       26175000	      2616	8000236c	b5274893	xori	x17,x14,-1198	 x14:0xf3be3000 x17=0x0c41cb52
       26185000	      2617	80002370	b6f10d83	lb	x27,-1169(x2)	  x2:0x8000852d x27=0x0000003c PA:0x8000809c
       26195000	      2618	80002374	00e2bd33	sltu	x26,x5,x14	  x5:0xfffff95a x14:0xf3be3000 x26=0x00000000
       26205000	      2619	80002378	6e985097	auipc	x1,0x6e985	  x1=0xee987374
       26215000	      2620	8000237c	e7a14c03	lbu	x24,-390(x2)	  x2:0x8000852d x24=0x0000009f PA:0x800083a7
       26225000	      2621	80002380	dee10283	lb	x5,-530(x2)	  x2:0x8000852d  x5=0xffffff9c PA:0x8000831b
       26235000	      2622	80002384	10610f83	lb	x31,262(x2)	  x2:0x8000852d x31=0xffffffb3 PA:0x80008633
       26245000	      2623	80002388	b1e14b83	lbu	x23,-1250(x2)	  x2:0x8000852d x23=0x000000a2 PA:0x8000804b
       26255000	      2624	8000238c	ea614303	lbu	x6,-346(x2)	  x2:0x8000852d  x6=0x0000007e PA:0x800083d3
       26265000	      2625	80002390	ff110223	sb	x17,-28(x2)	  x2:0x8000852d x17:0x0c41cb52 PA:0x80008511
       26275000	      2626	80002394	1d911483	lh	x9,473(x2)	  x2:0x8000852d  x9=0x000000ff PA:0x80008706
       26285000	      2627	80002398	2b010023	sb	x16,672(x2)	  x2:0x8000852d x16:0x00000000 PA:0x800087cd
       26295000	      2628	8000239c	cbe129a3	sw	x30,-845(x2)	  x2:0x8000852d x30:0xf2903d81 PA:0x800081e0
       26305000	      2629	800023a0	0ce2f663	bgeu	x5,x14,8000246c	  x5:0xffffff9c x14:0xf3be3000
       26315000	      2630	00000000	00000013	addi	x0,x0,0	  x0:0x00000000
       26325000	      2631	80002468	00000013	addi	x0,x0,0	  x0:0x00000000
       26335000	      2632	8000246c	01cdb3b3	sltu	x7,x27,x28	 x27:0x0000003c x28:0xceb5f646  x7=0x00000001
       26345000	      2633	80002470	00d6d7b3	srl	x15,x13,x13	 x13:0xffffffff x13:0xffffffff x15=0x00000001
       26355000	      2634	80002474	2d4dce13	xori	x28,x27,724	 x27:0x0000003c x28=0x000002e8
       26365000	      2635	80002478	05244663	blt	x8,x18,800024c4	  x8:0x00000030 x18:0x80009f10
       26375000	      2636	8000247c	d6588013	addi	x0,x17,-667	 x17:0x0c41cb52
       26385000	      2637	80002480	00692733	slt	x14,x18,x6	 x18:0x80009f10  x6:0x0000007e x14=0x00000001
       26395000	      2638	80002484	cddd2317	auipc	x6,0xcddd2	  x6=0x4ddd4480
       26405000	      2639	80002488	00c994b3	sll	x9,x19,x12	 x19:0x00000004 x12:0x80009fc4  x9=0x00000040
       26415000	      2640	8000248c	01c09e93	slli	x29,x1,0x1c	  x1:0xee987374 x29=0x40000000
       26425000	      2641	80002490	0374c263	blt	x9,x23,800024b4	  x9:0x00000040 x23:0x000000a2
       26435000	      2642	00000000	00000013	addi	x0,x0,0	  x0:0x00000000
       26445000	      2643	800024b0	00000013	addi	x0,x0,0	  x0:0x00000000
       26455000	      2644	800024b4	010157b3	srl	x15,x2,x16	  x2:0x8000852d x16:0x00000000 x15=0x8000852d
       26465000	      2645	800024b8	0197a4b3	slt	x9,x15,x25	 x15:0x8000852d x25:0x00000001  x9=0x00000001
       26475000	      2646	800024bc	0391d863	bge	x3,x25,800024ec	  x3:0x00000059 x25:0x00000001
       26485000	      2647	00000000	00000013	addi	x0,x0,0	  x0:0x00000000
       26495000	      2648	800024e8	00000013	addi	x0,x0,0	  x0:0x00000000
       26505000	      2649	800024ec	019b0463	beq	x22,x25,800024f4	 x22:0x00000000 x25:0x00000001
       26515000	      2650	800024f0	8241fb93	andi	x23,x3,-2012	  x3:0x00000059 x23=0x00000000
       26525000	      2651	800024f4	001a45b3	xor	x11,x20,x1	 x20:0x00000001  x1:0xee987374 x11=0xee987375
       26535000	      2652	800024f8	4e7d2e93	slti	x29,x26,1255	 x26:0x00000000 x29=0x00000001
       26545000	      2653	800024fc	1894f393	andi	x7,x9,393	  x9:0x00000001  x7=0x00000001
       26555000	      2654	80002500	00fd0cb3	add	x25,x26,x15	 x26:0x00000000 x15:0x8000852d x25=0x8000852d
       26565000	      2655	80002504	00aa9013	slli	x0,x21,0xa	 x21:0x00000000
       26575000	      2656	80002508	00000013	addi	x0,x0,0	  x0:0x00000000
       26585000	      2657	8000250c	01f93eb3	sltu	x29,x18,x31	 x18:0x80009f10 x31:0xffffffb3 x29=0x00000001
       26595000	      2658	80002510	00000013	addi	x0,x0,0	  x0:0x00000000
       26605000	      2659	80002514	02f29863	bne	x5,x15,80002544	  x5:0xffffff9c x15:0x8000852d
       26615000	      2660	00000000	00000013	addi	x0,x0,0	  x0:0x00000000
       26625000	      2661	80002540	00000013	addi	x0,x0,0	  x0:0x00000000
       26635000	      2662	80002544	53f63a13	sltiu	x20,x12,1343	 x12:0x80009fc4 x20=0x00000000
       26645000	      2663	80002548	00000013	addi	x0,x0,0	  x0:0x00000000
       26655000	      2664	8000254c	0056dc93	srli	x25,x13,0x5	 x13:0xffffffff x25=0x07ffffff
       26665000	      2665	80002550	c30ee213	ori	x4,x29,-976	 x29:0x00000001  x4=0xfffffc31
       26675000	      2666	80002554	01036533	or	x10,x6,x16	  x6:0x4ddd4480 x16:0x00000000 x10=0x4ddd4480
       26685000	      2667	80002558	003b66b3	or	x13,x22,x3	 x22:0x00000000  x3:0x00000059 x13=0x00000059
       26695000	      2668	8000255c	00d42033	slt	x0,x8,x13	  x8:0x00000030 x13:0x00000059
       26705000	      2669	80002560	829f7313	andi	x6,x30,-2007	 x30:0xf2903d81  x6=0xf2903801
       26715000	      2670	80002564	00ae5fb3	srl	x31,x28,x10	 x28:0x000002e8 x10:0x4ddd4480 x31=0x000002e8
       26725000	      2671	80002568	9e737713	andi	x14,x6,-1561	  x6:0xf2903801 x14=0xf2903801
       26735000	      2672	8000256c	c55f4c13	xori	x24,x30,-939	 x30:0xf2903d81 x24=0x0d6fc1d4
       26745000	      2673	80002570	010b5293	srli	x5,x22,0x10	 x22:0x00000000  x5=0x00000000
       26755000	      2674	80002574	38702393	slti	x7,x0,903	  x0:0x00000000  x7=0x00000001
       26765000	      2675	80002578	3f002a13	slti	x20,x0,1008	  x0:0x00000000 x20=0x00000001
       26775000	      2676	8000257c	005b9c33	sll	x24,x23,x5	 x23:0x00000000  x5:0x00000000 x24=0x00000000
       26785000	      2677	80002580	00dff8b3	and	x17,x31,x13	 x31:0x000002e8 x13:0x00000059 x17=0x00000048
       26795000	      2678	80002584	d7176593	ori	x11,x14,-655	 x14:0xf2903801 x11=0xfffffd71
       26805000	      2679	80002588	81e56113	ori	x2,x10,-2018	 x10:0x4ddd4480  x2=0xfffffc9e
       26815000	      2680	8000258c	002a83b3	add	x7,x21,x2	 x21:0x00000000  x2:0xfffffc9e  x7=0xfffffc9e
       26825000	      2681	80002590	01759d13	slli	x26,x11,0x17	 x11:0xfffffd71 x26=0xb8800000
       26835000	      2682	80002594	ead46893	ori	x17,x8,-339	  x8:0x00000030 x17=0xfffffebd
       26845000	      2683	80002598	00006117	auipc	x2,0x6	  x2=0x80008594
       26855000	      2684	8000259c	bcd10113	addi	x2,x2,-1075	  x2:0x80008594  x2=0x80008161
       26865000	      2685	800025a0	0e114283	lbu	x5,225(x2)	  x2:0x80008161  x5=0x000000d6 PA:0x80008242
       26875000	      2686	800025a4	66b0e293	ori	x5,x1,1643	  x1:0xee987374  x5=0xee98777f
       26885000	      2687	800025a8	40d9d1b3	sra	x3,x19,x13	 x19:0x00000004 x13:0x00000059  x3=0x00000000
       26895000	      2688	800025ac	0062b033	sltu	x0,x5,x6	  x5:0xee98777f  x6:0xf2903801
       26905000	      2689	800025b0	3ad11283	lh	x5,941(x2)	  x2:0x80008161  x5=0xfffff08f PA:0x8000850e
       26915000	      2690	800025b4	14214a83	lbu	x21,322(x2)	  x2:0x80008161 x21=0x0000006d PA:0x800082a3
       26925000	      2691	800025b8	017b5993	srli	x19,x22,0x17	 x22:0x00000000 x19=0x00000000
       26935000	      2692	800025bc	58410383	lb	x7,1412(x2)	  x2:0x80008161  x7=0x00000061 PA:0x800086e5
       26945000	      2693	800025c0	30d15e83	lhu	x29,781(x2)	  x2:0x80008161 x29=0x000070a9 PA:0x8000846e
       26955000	      2694	800025c4	21a14c03	lbu	x24,538(x2)	  x2:0x80008161 x24=0x00000008 PA:0x8000837b
       26965000	      2695	800025c8	43712e03	lw	x28,1079(x2)	  x2:0x80008161 x28=0x81fda37b PA:0x80008598
       26975000	      2696	800025cc	55f11c83	lh	x25,1375(x2)	  x2:0x80008161 x25=0xffffc721 PA:0x800086c0
       26985000	      2697	800025d0	be1dd837	lui	x16,0xbe1dd	 x16=0xbe1dd000
       26995000	      2698	800025d4	0b110aa3	sb	x17,181(x2)	  x2:0x80008161 x17:0xfffffebd PA:0x80008216
       27005000	      2699	800025d8	016fa8b3	slt	x17,x31,x22	 x31:0x000002e8 x22:0x00000000 x17=0x00000000
       27015000	      2700	800025dc	28010203	lb	x4,640(x2)	  x2:0x80008161  x4=0x0000000f PA:0x800083e1
       27025000	      2701	800025e0	36210323	sb	x2,870(x2)	  x2:0x80008161  x2:0x80008161 PA:0x800084c7
       27035000	      2702	800025e4	00888c33	add	x24,x17,x8	 x17:0x00000000  x8:0x00000030 x24=0x00000030
       27045000	      2703	800025e8	f0610b23	sb	x6,-234(x2)	  x2:0x80008161  x6:0xf2903801 PA:0x80008077
       27055000	      2704	800025ec	31d11683	lh	x13,797(x2)	  x2:0x80008161 x13=0xffff8be5 PA:0x8000847e
       27065000	      2705	800025f0	eef10b23	sb	x15,-266(x2)	  x2:0x80008161 x15:0x8000852d PA:0x80008057
       27075000	      2706	800025f4	009b9033	sll	x0,x23,x9	 x23:0x00000000  x9:0x00000001
       27085000	      2707	800025f8	beeeed13	ori	x26,x29,-1042	 x29:0x000070a9 x26=0xfffffbef
       27095000	      2708	800025fc	26315683	lhu	x13,611(x2)	  x2:0x80008161 x13=0x00009d58 PA:0x800083c4
       27105000	      2709	80002600	fb110023	sb	x17,-96(x2)	  x2:0x80008161 x17:0x00000000 PA:0x80008101
       27115000	      2710	80002604	9e6be593	ori	x11,x23,-1562	 x23:0x00000000 x11=0xfffff9e6
       27125000	      2711	80002608	190113a3	sh	x16,391(x2)	  x2:0x80008161 x16:0xbe1dd000 PA:0x800082e8
       27135000	      2712	8000260c	08711ba3	sh	x7,151(x2)	  x2:0x80008161  x7:0x00000061 PA:0x800081f8
       27145000	      2713	80002610	01736c33	or	x24,x6,x23	  x6:0xf2903801 x23:0x00000000 x24=0xf2903801
       27155000	      2714	80002614	011c7833	and	x16,x24,x17	 x24:0xf2903801 x17:0x00000000 x16=0x00000000
       27165000	      2715	80002618	007c2533	slt	x10,x24,x7	 x24:0xf2903801  x7:0x00000061 x10=0x00000001
       27175000	      2716	8000261c	04ce12b7	lui	x5,0x4ce1	  x5=0x04ce1000
       27185000	      2717	80002620	01e05013	srli	x0,x0,0x1e	  x0:0x00000000
       27195000	      2718	80002624	c187c893	xori	x17,x15,-1000	 x15:0x8000852d x17=0x7fff7935
       27205000	      2719	80002628	01acd033	srl	x0,x25,x26	 x25:0xffffc721 x26:0xfffffbef
       27215000	      2720	8000262c	e622b513	sltiu	x10,x5,-414	  x5:0x04ce1000 x10=0x00000001
       27225000	      2721	80002630	b64ac393	xori	x7,x21,-1180	 x21:0x0000006d  x7=0xfffffb09
       27235000	      2722	80002634	0090ea63	bltu	x1,x9,80002648	  x1:0xee987374  x9:0x00000001
       27245000	      2723	80002638	69e4a513	slti	x10,x9,1694	  x9:0x00000001 x10=0x00000001
       27255000	      2724	8000263c	033e7263	bgeu	x28,x19,80002660	 x28:0x81fda37b x19:0x00000000
       27265000	      2725	00000000	00000013	addi	x0,x0,0	  x0:0x00000000
       27275000	      2726	8000265c	00000013	addi	x0,x0,0	  x0:0x00000000
       27285000	      2727	80002660	02edaf93	slti	x31,x27,46	 x27:0x0000003c x31=0x00000000
       27295000	      2728	80002664	8a8e2313	slti	x6,x28,-1880	 x28:0x81fda37b  x6=0x00000001
       27305000	      2729	80002668	16a1bd13	sltiu	x26,x3,362	  x3:0x00000000 x26=0x00000001
       27315000	      2730	8000266c	060f2117	auipc	x2,0x60f2	  x2=0x860f4668
       27325000	      2731	80002670	b925c293	xori	x5,x11,-1134	 x11:0xfffff9e6  x5=0x00000274
       27335000	      2732	80002674	2cbbf193	andi	x3,x23,715	 x23:0x00000000  x3=0x00000000
       27345000	      2733	80002678	40200fb3	sub	x31,x0,x2	  x0:0x00000000  x2:0x860f4668 x31=0x79f0b998
       27355000	      2734	8000267c	001e5663	bge	x28,x1,80002688	 x28:0x81fda37b  x1:0xee987374
       27365000	      2735	80002680	ac20c113	xori	x2,x1,-1342	  x1:0xee987374  x2=0x116789b6
       27375000	      2736	80002684	86768593	addi	x11,x13,-1945	 x13:0x00009d58 x11=0x000095bf
       27385000	      2737	80002688	05596663	bltu	x18,x21,800026d4	 x18:0x80009f10 x21:0x0000006d
       27395000	      2738	8000268c	00957c33	and	x24,x10,x9	 x10:0x00000001  x9:0x00000001 x24=0x00000001
       27405000	      2739	80002690	03164663	blt	x12,x17,800026bc	 x12:0x80009fc4 x17:0x7fff7935
       27415000	      2740	00000000	00000013	addi	x0,x0,0	  x0:0x00000000
       27425000	      2741	800026b8	00000013	addi	x0,x0,0	  x0:0x00000000
       27435000	      2742	800026bc	002720b3	slt	x1,x14,x2	 x14:0xf2903801  x2:0x116789b6  x1=0x00000001
       27445000	      2743	800026c0	00086c33	or	x24,x16,x0	 x16:0x00000000  x0:0x00000000 x24=0x00000000
       27455000	      2744	800026c4	004193b3	sll	x7,x3,x4	  x3:0x00000000  x4:0x0000000f  x7=0x00000000
       27465000	      2745	800026c8	41e85d13	srai	x26,x16,0x1e	 x16:0x00000000 x26=0x00000000
       27475000	      2746	800026cc	bddef137	lui	x2,0xbddef	  x2=0xbddef000
       27485000	      2747	800026d0	f523a113	slti	x2,x7,-174	  x7:0x00000000  x2=0x00000000
       27495000	      2748	800026d4	01ff9c93	slli	x25,x31,0x1f	 x31:0x79f0b998 x25=0x00000000
       27505000	      2749	800026d8	40f38433	sub	x8,x7,x15	  x7:0x00000000 x15:0x8000852d  x8=0x7fff7ad3
       27515000	      2750	800026dc	02c1d063	bge	x3,x12,800026fc	  x3:0x00000000 x12:0x80009fc4
       27525000	      2751	00000000	00000013	addi	x0,x0,0	  x0:0x00000000
       27535000	      2752	800026f8	00000013	addi	x0,x0,0	  x0:0x00000000
       27545000	      2753	800026fc	03986263	bltu	x16,x25,80002720	 x16:0x00000000 x25:0x00000000
       27555000	      2754	80002700	00657433	and	x8,x10,x6	 x10:0x00000001  x6:0x00000001  x8=0x00000001
       27565000	      2755	80002704	ec19c893	xori	x17,x19,-319	 x19:0x00000000 x17=0xfffffec1
       27575000	      2756	80002708	01734533	xor	x10,x6,x23	  x6:0x00000001 x23:0x00000000 x10=0x00000001
       27585000	      2757	8000270c	00d06663	bltu	x0,x13,80002718	  x0:0x00000000 x13:0x00009d58
       27595000	      2758	00000000	00000013	addi	x0,x0,0	  x0:0x00000000
       27605000	      2759	80002714	00000013	addi	x0,x0,0	  x0:0x00000000
       27615000	      2760	80002718	00b9bd33	sltu	x26,x19,x11	 x19:0x00000000 x11:0x000095bf x26=0x00000001
       27625000	      2761	8000271c	016c9eb3	sll	x29,x25,x22	 x25:0x00000000 x22:0x00000000 x29=0x00000000
       27635000	      2762	80002720	011dbcb3	sltu	x25,x27,x17	 x27:0x0000003c x17:0xfffffec1 x25=0x00000001
       27645000	      2763	80002724	2fb08413	addi	x8,x1,763	  x1:0x00000001  x8=0x000002fc
       27655000	      2764	80002728	001ba433	slt	x8,x23,x1	 x23:0x00000000  x1:0x00000001  x8=0x00000001
       27665000	      2765	8000272c	41680b33	sub	x22,x16,x22	 x16:0x00000000 x22:0x00000000 x22=0x00000000
       27675000	      2766	80002730	00000013	addi	x0,x0,0	  x0:0x00000000
       27685000	      2767	80002734	f093c537	lui	x10,0xf093c	 x10=0xf093c000
       27695000	      2768	80002738	05089863	bne	x17,x16,80002788	 x17:0xfffffec1 x16:0x00000000
       27705000	      2769	00000000	00000013	addi	x0,x0,0	  x0:0x00000000
       27715000	      2770	80002784	00000013	addi	x0,x0,0	  x0:0x00000000
       27725000	      2771	80002788	41c8d033	sra	x0,x17,x28	 x17:0xfffffec1 x28:0x81fda37b
       27735000	      2772	8000278c	b99ac793	xori	x15,x21,-1127	 x21:0x0000006d x15=0xfffffbf4
       27745000	      2773	80002790	01662b33	slt	x22,x12,x22	 x12:0x80009fc4 x22:0x00000000 x22=0x00000001
       27755000	      2774	80002794	70f0cf97	auipc	x31,0x70f0c	 x31=0xf0f0e790
       27765000	      2775	80002798	40fad7b3	sra	x15,x21,x15	 x21:0x0000006d x15:0xfffffbf4 x15=0x00000000
       27775000	      2776	8000279c	01102133	slt	x2,x0,x17	  x0:0x00000000 x17:0xfffffec1  x2=0x00000000
       27785000	      2777	800027a0	59700bb7	lui	x23,0x59700	 x23=0x59700000
       27795000	      2778	800027a4	0217fe63	bgeu	x15,x1,800027e0	 x15:0x00000000  x1:0x00000001
       27805000	      2779	800027a8	0130dc13	srli	x24,x1,0x13	  x1:0x00000001 x24=0x00000000
       27815000	      2780	800027ac	59deb593	sltiu	x11,x29,1437	 x29:0x00000000 x11=0x00000001
       27825000	      2781	800027b0	01a07033	and	x0,x0,x26	  x0:0x00000000 x26:0x00000001
       27835000	      2782	800027b4	40a9deb3	sra	x29,x19,x10	 x19:0x00000000 x10:0xf093c000 x29=0x00000000
       27845000	      2783	800027b8	00b6ccb3	xor	x25,x13,x11	 x13:0x00009d58 x11:0x00000001 x25=0x00009d59
       27855000	      2784	800027bc	029e7e63	bgeu	x28,x9,800027f8	 x28:0x81fda37b  x9:0x00000001
       27865000	      2785	00000000	00000013	addi	x0,x0,0	  x0:0x00000000
       27875000	      2786	800027f4	00000013	addi	x0,x0,0	  x0:0x00000000
       27885000	      2787	800027f8	010e9233	sll	x4,x29,x16	 x29:0x00000000 x16:0x00000000  x4=0x00000000
       27895000	      2788	800027fc	0024dd13	srli	x26,x9,0x2	  x9:0x00000001 x26=0x00000000
       27905000	      2789	80002800	0120acb3	slt	x25,x1,x18	  x1:0x00000001 x18:0x80009f10 x25=0x00000000
       27915000	      2790	80002804	880b7e13	andi	x28,x22,-1920	 x22:0x00000001 x28=0x00000000
       27925000	      2791	80002808	03109e63	bne	x1,x17,80002844	  x1:0x00000001 x17:0xfffffec1
       27935000	      2792	00000000	00000013	addi	x0,x0,0	  x0:0x00000000
       27945000	      2793	80002840	00000013	addi	x0,x0,0	  x0:0x00000000
       27955000	      2794	80002844	032a8263	beq	x21,x18,80002868	 x21:0x0000006d x18:0x80009f10
       27965000	      2795	80002848	0089ca63	blt	x19,x8,8000285c	 x19:0x00000000  x8:0x00000001
       27975000	      2796	00000000	00000013	addi	x0,x0,0	  x0:0x00000000
       27985000	      2797	80002858	00000013	addi	x0,x0,0	  x0:0x00000000
       27995000	      2798	8000285c	0301d263	bge	x3,x16,80002880	  x3:0x00000000 x16:0x00000000
       28005000	      2799	00000000	00000013	addi	x0,x0,0	  x0:0x00000000
       28015000	      2800	8000287c	00000013	addi	x0,x0,0	  x0:0x00000000
       28025000	      2801	80002880	031d6863	bltu	x26,x17,800028b0	 x26:0x00000000 x17:0xfffffec1
       28035000	      2802	00000000	00000013	addi	x0,x0,0	  x0:0x00000000
       28045000	      2803	800028ac	00000013	addi	x0,x0,0	  x0:0x00000000
       28055000	      2804	800028b0	026f1a63	bne	x30,x6,800028e4	 x30:0xf2903d81  x6:0x00000001
       28065000	      2805	00000000	00000013	addi	x0,x0,0	  x0:0x00000000
       28075000	      2806	800028e0	00000013	addi	x0,x0,0	  x0:0x00000000
       28085000	      2807	800028e4	01a37e33	and	x28,x6,x26	  x6:0x00000001 x26:0x00000000 x28=0x00000000
       28095000	      2808	800028e8	04e61663	bne	x12,x14,80002934	 x12:0x80009fc4 x14:0xf2903801
       28105000	      2809	00000000	00000013	addi	x0,x0,0	  x0:0x00000000
       28115000	      2810	80002930	00000013	addi	x0,x0,0	  x0:0x00000000
       28125000	      2811	80002934	c4b87393	andi	x7,x16,-949	 x16:0x00000000  x7=0x00000000
       28135000	      2812	80002938	035e8e63	beq	x29,x21,80002974	 x29:0x00000000 x21:0x0000006d
       28145000	      2813	8000293c	db3b3b13	sltiu	x22,x22,-589	 x22:0x00000001 x22=0x00000001
       28155000	      2814	80002940	00cf71b3	and	x3,x30,x12	 x30:0xf2903d81 x12:0x80009fc4  x3=0x80001d80
       28165000	      2815	80002944	01708433	add	x8,x1,x23	  x1:0x00000001 x23:0x59700000  x8=0x59700001
       28175000	      2816	80002948	bc2c8993	addi	x19,x25,-1086	 x25:0x00000000 x19=0xfffffbc2
       28185000	      2817	8000294c	010d7733	and	x14,x26,x16	 x26:0x00000000 x16:0x00000000 x14=0x00000000
       28195000	      2818	80002950	0335c663	blt	x11,x19,8000297c	 x11:0x00000001 x19:0xfffffbc2
       28205000	      2819	80002954	01abe2b3	or	x5,x23,x26	 x23:0x59700000 x26:0x00000000  x5=0x59700000
       28215000	      2820	80002958	93404a37	lui	x20,0x93404	 x20=0x93404000
       28225000	      2821	8000295c	00021fb3	sll	x31,x4,x0	  x4:0x00000000  x0:0x00000000 x31=0x00000000
       28235000	      2822	80002960	002dc663	blt	x27,x2,8000296c	 x27:0x0000003c  x2:0x00000000
       28245000	      2823	80002964	cf4a8b13	addi	x22,x21,-780	 x21:0x0000006d x22=0xfffffd61
       28255000	      2824	80002968	19ae7197	auipc	x3,0x19ae7	  x3=0x99ae9964
       28265000	      2825	8000296c	418807b3	sub	x15,x16,x24	 x16:0x00000000 x24:0x00000000 x15=0x00000000
       28275000	      2826	80002970	01b7c833	xor	x16,x15,x27	 x15:0x00000000 x27:0x0000003c x16=0x0000003c
       28285000	      2827	80002974	48c28b93	addi	x23,x5,1164	  x5:0x59700000 x23=0x5970048c
       28295000	      2828	80002978	029bc063	blt	x23,x9,80002998	 x23:0x5970048c  x9:0x00000001
       28305000	      2829	8000297c	00a1de13	srli	x28,x3,0xa	  x3:0x99ae9964 x28=0x00266ba6
       28315000	      2830	80002980	007e38b3	sltu	x17,x28,x7	 x28:0x00266ba6  x7:0x00000000 x17=0x00000000
       28325000	      2831	80002984	0008c663	blt	x17,x0,80002990	 x17:0x00000000  x0:0x00000000
       28335000	      2832	80002988	01b53fb3	sltu	x31,x10,x27	 x10:0xf093c000 x27:0x0000003c x31=0x00000000
       28345000	      2833	8000298c	0349d663	bge	x19,x20,800029b8	 x19:0xfffffbc2 x20:0x93404000
       28355000	      2834	00000000	00000013	addi	x0,x0,0	  x0:0x00000000
       28365000	      2835	800029b4	00000013	addi	x0,x0,0	  x0:0x00000000
       28375000	      2836	800029b8	03cd0a63	beq	x26,x28,800029ec	 x26:0x00000000 x28:0x00266ba6
       28385000	      2837	800029bc	0c4c7213	andi	x4,x24,196	 x24:0x00000000  x4=0x00000000
       28395000	      2838	800029c0	2a4fa197	auipc	x3,0x2a4fa	  x3=0xaa4fc9bc
       28405000	      2839	800029c4	2b6acd13	xori	x26,x21,694	 x21:0x0000006d x26=0x000002db
       28415000	      2840	800029c8	412f0833	sub	x16,x30,x18	 x30:0xf2903d81 x18:0x80009f10 x16=0x728f9e71
       28425000	      2841	800029cc	03ee0e63	beq	x28,x30,80002a08	 x28:0x00266ba6 x30:0xf2903d81
       28435000	      2842	800029d0	d48a3993	sltiu	x19,x20,-696	 x20:0x93404000 x19=0x00000001
       28445000	      2843	800029d4	00a56db3	or	x27,x10,x10	 x10:0xf093c000 x10:0xf093c000 x27=0xf093c000
       28455000	      2844	800029d8	cb2ff797	auipc	x15,0xcb2ff	 x15=0x4b3019d4
       28465000	      2845	800029dc	e72f0717	auipc	x14,0xe72f0	 x14=0x672f29d8
       28475000	      2846	800029e0	01649213	slli	x4,x9,0x16	  x9:0x00000001  x4=0x00400000
       28485000	      2847	800029e4	4c5fb793	sltiu	x15,x31,1221	 x31:0x00000000 x15=0x00000001
       28495000	      2848	800029e8	a66ef313	andi	x6,x29,-1434	 x29:0x00000000  x6=0x00000000
       28505000	      2849	800029ec	00000013	addi	x0,x0,0	  x0:0x00000000
       28515000	      2850	800029f0	017466b3	or	x13,x8,x23	  x8:0x59700001 x23:0x5970048c x13=0x5970048d
       28525000	      2851	800029f4	40405093	srai	x1,x0,0x4	  x0:0x00000000  x1=0x00000000
       28535000	      2852	800029f8	02f08063	beq	x1,x15,80002a18	  x1:0x00000000 x15:0x00000001
       28545000	      2853	800029fc	003ee4b3	or	x9,x29,x3	 x29:0x00000000  x3:0xaa4fc9bc  x9=0xaa4fc9bc
       28555000	      2854	80002a00	00000013	addi	x0,x0,0	  x0:0x00000000
       28565000	      2855	80002a04	1cbc8797	auipc	x15,0x1cbc8	 x15=0x9cbcaa00
       28575000	      2856	80002a08	035a4063	blt	x20,x21,80002a28	 x20:0x93404000 x21:0x0000006d
       28585000	      2857	00000000	00000013	addi	x0,x0,0	  x0:0x00000000
       28595000	      2858	80002a24	00000013	addi	x0,x0,0	  x0:0x00000000
       28605000	      2859	80002a28	0096e663	bltu	x13,x9,80002a34	 x13:0x5970048d  x9:0xaa4fc9bc
       28615000	      2860	00000000	00000013	addi	x0,x0,0	  x0:0x00000000
       28625000	      2861	80002a30	00000013	addi	x0,x0,0	  x0:0x00000000
       28635000	      2862	80002a34	0360cc63	blt	x1,x22,80002a6c	  x1:0x00000000 x22:0xfffffd61
       28645000	      2863	80002a38	04039863	bne	x7,x0,80002a88	  x7:0x00000000  x0:0x00000000
       28655000	      2864	80002a3c	00ee6263	bltu	x28,x14,80002a40	 x28:0x00266ba6 x14:0x672f29d8
       28665000	      2865	00000000	00000013	addi	x0,x0,0	  x0:0x00000000
       28675000	      2866	80002a3c	00000013	addi	x0,x0,0	  x0:0x00000000
       28685000	      2867	80002a40	019e6c63	bltu	x28,x25,80002a58	 x28:0x00266ba6 x25:0x00000000
       28695000	      2868	80002a44	45e8f813	andi	x16,x17,1118	 x17:0x00000000 x16=0x00000000
       28705000	      2869	80002a48	007e7a33	and	x20,x28,x7	 x28:0x00266ba6  x7:0x00000000 x20=0x00000000
       28715000	      2870	80002a4c	00cc5113	srli	x2,x24,0xc	 x24:0x00000000  x2=0x00000000
       28725000	      2871	80002a50	00000013	addi	x0,x0,0	  x0:0x00000000
       28735000	      2872	80002a54	0132a9b3	slt	x19,x5,x19	  x5:0x59700000 x19:0x00000001 x19=0x00000000
       28745000	      2873	80002a58	410c50b3	sra	x1,x24,x16	 x24:0x00000000 x16:0x00000000  x1=0x00000000
       28755000	      2874	80002a5c	01b80433	add	x8,x16,x27	 x16:0x00000000 x27:0xf093c000  x8=0xf093c000
       28765000	      2875	80002a60	00c5a3b3	slt	x7,x11,x12	 x11:0x00000001 x12:0x80009fc4  x7=0x00000000
       28775000	      2876	80002a64	03406263	bltu	x0,x20,80002a88	  x0:0x00000000 x20:0x00000000
       28785000	      2877	80002a68	03c57663	bgeu	x10,x28,80002a94	 x10:0xf093c000 x28:0x00266ba6
       28795000	      2878	00000000	00000013	addi	x0,x0,0	  x0:0x00000000
       28805000	      2879	80002a90	00000013	addi	x0,x0,0	  x0:0x00000000
       28815000	      2880	80002a94	004cf133	and	x2,x25,x4	 x25:0x00000000  x4:0x00400000  x2=0x00000000
       28825000	      2881	80002a98	03861263	bne	x12,x24,80002abc	 x12:0x80009fc4 x24:0x00000000
       28835000	      2882	00000000	00000013	addi	x0,x0,0	  x0:0x00000000
       28845000	      2883	80002ab8	00000013	addi	x0,x0,0	  x0:0x00000000
       28855000	      2884	80002abc	01eb49b3	xor	x19,x22,x30	 x22:0xfffffd61 x30:0xf2903d81 x19=0x0d6fc0e0
       28865000	      2885	80002ac0	6d4c8c13	addi	x24,x25,1748	 x25:0x00000000 x24=0x000006d4
       28875000	      2886	80002ac4	01538a63	beq	x7,x21,80002ad8	  x7:0x00000000 x21:0x0000006d
       28885000	      2887	80002ac8	008aea63	bltu	x21,x8,80002adc	 x21:0x0000006d  x8:0xf093c000
       28895000	      2888	00000000	00000013	addi	x0,x0,0	  x0:0x00000000
       28905000	      2889	80002ad8	00000013	addi	x0,x0,0	  x0:0x00000000
       28915000	      2890	80002adc	01908a33	add	x20,x1,x25	  x1:0x00000000 x25:0x00000000 x20=0x00000000
       28925000	      2891	80002ae0	00df9733	sll	x14,x31,x13	 x31:0x00000000 x13:0x5970048d x14=0x00000000
       28935000	      2892	80002ae4	01e19893	slli	x17,x3,0x1e	  x3:0xaa4fc9bc x17=0x00000000
       28945000	      2893	80002ae8	5a4af6b7	lui	x13,0x5a4af	 x13=0x5a4af000
       28955000	      2894	80002aec	00d63fb3	sltu	x31,x12,x13	 x12:0x80009fc4 x13:0x5a4af000 x31=0x00000000
       28965000	      2895	80002af0	03fe8063	beq	x29,x31,80002b10	 x29:0x00000000 x31:0x00000000
       28975000	      2896	00000000	00000013	addi	x0,x0,0	  x0:0x00000000
       28985000	      2897	80002b0c	00000013	addi	x0,x0,0	  x0:0x00000000
       28995000	      2898	80002b10	0196c133	xor	x2,x13,x25	 x13:0x5a4af000 x25:0x00000000  x2=0x5a4af000
       29005000	      2899	80002b14	4074d5b3	sra	x11,x9,x7	  x9:0xaa4fc9bc  x7:0x00000000 x11=0xaa4fc9bc
       29015000	      2900	80002b18	001e9313	slli	x6,x29,0x1	 x29:0x00000000  x6=0x00000000
       29025000	      2901	80002b1c	83f17d13	andi	x26,x2,-1985	  x2:0x5a4af000 x26=0x5a4af000
       29035000	      2902	80002b20	00af0833	add	x16,x30,x10	 x30:0xf2903d81 x10:0xf093c000 x16=0xe323fd81
       29045000	      2903	80002b24	030b0263	beq	x22,x16,80002b48	 x22:0xfffffd61 x16:0xe323fd81
       29055000	      2904	80002b28	8883b213	sltiu	x4,x7,-1912	  x7:0x00000000  x4=0x00000001
       29065000	      2905	80002b2c	01016333	or	x6,x2,x16	  x2:0x5a4af000 x16:0xe323fd81  x6=0xfb6bfd81
       29075000	      2906	80002b30	9204c813	xori	x16,x9,-1760	  x9:0xaa4fc9bc x16=0x55b0309c
       29085000	      2907	80002b34	01791cb3	sll	x25,x18,x23	 x18:0x80009f10 x23:0x5970048c x25=0x09f10000
       29095000	      2908	80002b38	015d4463	blt	x26,x21,80002b40	 x26:0x5a4af000 x21:0x0000006d
       29105000	      2909	80002b3c	010707b3	add	x15,x14,x16	 x14:0x00000000 x16:0x55b0309c x15=0x55b0309c
       29115000	      2910	80002b40	00026fb3	or	x31,x4,x0	  x4:0x00000001  x0:0x00000000 x31=0x00000001
       29125000	      2911	80002b44	01f5bd33	sltu	x26,x11,x31	 x11:0xaa4fc9bc x31:0x00000001 x26=0x00000000
       29135000	      2912	80002b48	eb818393	addi	x7,x3,-328	  x3:0xaa4fc9bc  x7=0xaa4fc874
       29145000	      2913	80002b4c	41c75133	sra	x2,x14,x28	 x14:0x00000000 x28:0x00266ba6  x2=0x00000000
       29155000	      2914	80002b50	e3134f93	xori	x31,x6,-463	  x6:0xfb6bfd81 x31=0x049403b0
       29165000	      2915	80002b54	00d088b3	add	x17,x1,x13	  x1:0x00000000 x13:0x5a4af000 x17=0x5a4af000
       29175000	      2916	80002b58	404258b3	sra	x17,x4,x4	  x4:0x00000001  x4:0x00000001 x17=0x00000000
       29185000	      2917	80002b5c	01fa1013	slli	x0,x20,0x1f	 x20:0x00000000
       29195000	      2918	80002b60	41d25293	srai	x5,x4,0x1d	  x4:0x00000001  x5=0x00000000
       29205000	      2919	80002b64	4086d133	sra	x2,x13,x8	 x13:0x5a4af000  x8:0xf093c000  x2=0x5a4af000
       29215000	      2920	80002b68	011a1b33	sll	x22,x20,x17	 x20:0x00000000 x17:0x00000000 x22=0x00000000
       29225000	      2921	80002b6c	7a7baf93	slti	x31,x23,1959	 x23:0x5970048c x31=0x00000000
       29235000	      2922	80002b70	75b0e713	ori	x14,x1,1883	  x1:0x00000000 x14=0x0000075b
       29245000	      2923	80002b74	00391233	sll	x4,x18,x3	 x18:0x80009f10  x3:0xaa4fc9bc  x4=0x00000000
       29255000	      2924	80002b78	03d3ee63	bltu	x7,x29,80002bb4	  x7:0xaa4fc874 x29:0x00000000
       29265000	      2925	80002b7c	b5a3c513	xori	x10,x7,-1190	  x7:0xaa4fc874 x10=0x55b0332e
       29275000	      2926	80002b80	003d7a63	bgeu	x26,x3,80002b94	 x26:0x00000000  x3:0xaa4fc9bc
       29285000	      2927	80002b84	00000013	addi	x0,x0,0	  x0:0x00000000
       29295000	      2928	80002b88	0182c8b3	xor	x17,x5,x24	  x5:0x00000000 x24:0x000006d4 x17=0x000006d4
       29305000	      2929	80002b8c	02ef4863	blt	x30,x14,80002bbc	 x30:0xf2903d81 x14:0x0000075b
       29315000	      2930	00000000	00000013	addi	x0,x0,0	  x0:0x00000000
       29325000	      2931	80002bb8	00000013	addi	x0,x0,0	  x0:0x00000000
       29335000	      2932	80002bbc	910a9737	lui	x14,0x910a9	 x14=0x910a9000
       29345000	      2933	80002bc0	00000013	addi	x0,x0,0	  x0:0x00000000
       29355000	      2934	80002bc4	0171bbb3	sltu	x23,x3,x23	  x3:0xaa4fc9bc x23:0x5970048c x23=0x00000000
       29365000	      2935	80002bc8	015129b3	slt	x19,x2,x21	  x2:0x5a4af000 x21:0x0000006d x19=0x00000000
       29375000	      2936	80002bcc	40c35c33	sra	x24,x6,x12	  x6:0xfb6bfd81 x12:0x80009fc4 x24=0xffb6bfd8
       29385000	      2937	80002bd0	43fff693	andi	x13,x31,1087	 x31:0x00000000 x13=0x00000000
       29395000	      2938	80002bd4	0111b9b3	sltu	x19,x3,x17	  x3:0xaa4fc9bc x17:0x000006d4 x19=0x00000000
       29405000	      2939	80002bd8	00000013	addi	x0,x0,0	  x0:0x00000000
       29415000	      2940	80002bdc	00a77233	and	x4,x14,x10	 x14:0x910a9000 x10:0x55b0332e  x4=0x11001000
       29425000	      2941	80002be0	dfddb293	sltiu	x5,x27,-515	 x27:0xf093c000  x5=0x00000001
       29435000	      2942	80002be4	bc027113	andi	x2,x4,-1088	  x4:0x11001000  x2=0x11001000
       29445000	      2943	80002be8	01f79cb3	sll	x25,x15,x31	 x15:0x55b0309c x31:0x00000000 x25=0x55b0309c
       29455000	      2944	80002bec	00e7e0b3	or	x1,x15,x14	 x15:0x55b0309c x14:0x910a9000  x1=0xd5bab09c
       29465000	      2945	80002bf0	d0774813	xori	x16,x14,-761	 x14:0x910a9000 x16=0x6ef56d07
       29475000	      2946	80002bf4	032e6e63	bltu	x28,x18,80002c30	 x28:0x00266ba6 x18:0x80009f10
       29485000	      2947	00000000	00000013	addi	x0,x0,0	  x0:0x00000000
       29495000	      2948	80002c2c	00000013	addi	x0,x0,0	  x0:0x00000000
       29505000	      2949	80002c30	1c4ff213	andi	x4,x31,452	 x31:0x00000000  x4=0x00000000
       29515000	      2950	80002c34	a6bf0117	auipc	x2,0xa6bf0	  x2=0x26bf2c30
       29525000	      2951	80002c38	20a4b593	sltiu	x11,x9,522	  x9:0xaa4fc9bc x11=0x00000000
       29535000	      2952	80002c3c	02128e63	beq	x5,x1,80002c78	  x5:0x00000001  x1:0xd5bab09c
       29545000	      2953	80002c40	de9feb13	ori	x22,x31,-535	 x31:0x00000000 x22=0xfffffde9
       29555000	      2954	80002c44	413408b3	sub	x17,x8,x19	  x8:0xf093c000 x19:0x00000000 x17=0xf093c000
       29565000	      2955	80002c48	407780b3	sub	x1,x15,x7	 x15:0x55b0309c  x7:0xaa4fc874  x1=0xab606828
       29575000	      2956	80002c4c	01d27663	bgeu	x4,x29,80002c58	  x4:0x00000000 x29:0x00000000
       29585000	      2957	00000000	00000013	addi	x0,x0,0	  x0:0x00000000
       29595000	      2958	80002c54	00000013	addi	x0,x0,0	  x0:0x00000000
       29605000	      2959	80002c58	d2a62e93	slti	x29,x12,-726	 x12:0x80009fc4 x29=0x00000001
       29615000	      2960	80002c5c	01aa71b3	and	x3,x20,x26	 x20:0x00000000 x26:0x00000000  x3=0x00000000
       29625000	      2961	80002c60	015d9233	sll	x4,x27,x21	 x27:0xf093c000 x21:0x0000006d  x4=0x78000000
       29635000	      2962	80002c64	01ceba33	sltu	x20,x29,x28	 x29:0x00000001 x28:0x00266ba6 x20=0x00000001
       29645000	      2963	80002c68	01af1493	slli	x9,x30,0x1a	 x30:0xf2903d81  x9=0x04000000
       29655000	      2964	80002c6c	00c37b33	and	x22,x6,x12	  x6:0xfb6bfd81 x12:0x80009fc4 x22=0x80009d80
       29665000	      2965	80002c70	01861693	slli	x13,x12,0x18	 x12:0x80009fc4 x13=0xc4000000
       29675000	      2966	80002c74	c9b7ca93	xori	x21,x15,-869	 x15:0x55b0309c x21=0xaa4fcc07
       29685000	      2967	80002c78	0134a233	slt	x4,x9,x19	  x9:0x04000000 x19:0x00000000  x4=0x00000000
       29695000	      2968	80002c7c	cea30797	auipc	x15,0xcea30	 x15=0x4ea32c78
       29705000	      2969	80002c80	011044b3	xor	x9,x0,x17	  x0:0x00000000 x17:0xf093c000  x9=0xf093c000
       29715000	      2970	80002c84	00e8b433	sltu	x8,x17,x14	 x17:0xf093c000 x14:0x910a9000  x8=0x00000000
       29725000	      2971	80002c88	967de713	ori	x14,x27,-1689	 x27:0xf093c000 x14=0xfffff967
       29735000	      2972	80002c8c	40c05313	srai	x6,x0,0xc	  x0:0x00000000  x6=0x00000000
       29745000	      2973	80002c90	0194e663	bltu	x9,x25,80002c9c	  x9:0xf093c000 x25:0x55b0309c
       29755000	      2974	80002c94	01461133	sll	x2,x12,x20	 x12:0x80009fc4 x20:0x00000001  x2=0x00013f88
       29765000	      2975	80002c98	008ef0b3	and	x1,x29,x8	 x29:0x00000001  x8:0x00000000  x1=0x00000000
       29775000	      2976	80002c9c	00175e33	srl	x28,x14,x1	 x14:0xfffff967  x1:0x00000000 x28=0xfffff967
       29785000	      2977	80002ca0	efd47413	andi	x8,x8,-259	  x8:0x00000000  x8=0x00000000
       29795000	      2978	80002ca4	03478063	beq	x15,x20,80002cc4	 x15:0x4ea32c78 x20:0x00000001
       29805000	      2979	80002ca8	006a1263	bne	x20,x6,80002cac	 x20:0x00000001  x6:0x00000000
       29815000	      2980	00000000	00000013	addi	x0,x0,0	  x0:0x00000000
       29825000	      2981	80002ca8	00000013	addi	x0,x0,0	  x0:0x00000000
       29835000	      2982	80002cac	00050a63	beq	x10,x0,80002cc0	 x10:0x55b0332e  x0:0x00000000
       29845000	      2983	80002cb0	97046313	ori	x6,x8,-1680	  x8:0x00000000  x6=0xfffff970
       29855000	      2984	80002cb4	01f61113	slli	x2,x12,0x1f	 x12:0x80009fc4  x2=0x00000000
       29865000	      2985	80002cb8	03934e63	blt	x6,x25,80002cf4	  x6:0xfffff970 x25:0x55b0309c
       29875000	      2986	00000000	00000013	addi	x0,x0,0	  x0:0x00000000
       29885000	      2987	80002cf0	00000013	addi	x0,x0,0	  x0:0x00000000
       29895000	      2988	80002cf4	00b39eb3	sll	x29,x7,x11	  x7:0xaa4fc874 x11:0x00000000 x29=0xaa4fc874
       29905000	      2989	80002cf8	0ed6cd97	auipc	x27,0xed6c	 x27=0x8ed6ecf4
       29915000	      2990	80002cfc	40b6d2b3	sra	x5,x13,x11	 x13:0xc4000000 x11:0x00000000  x5=0xc4000000
       29925000	      2991	80002d00	033be063	bltu	x23,x19,80002d20	 x23:0x00000000 x19:0x00000000
       29935000	      2992	80002d04	0148bb33	sltu	x22,x17,x20	 x17:0xf093c000 x20:0x00000001 x22=0x00000000
       29945000	      2993	80002d08	00180db3	add	x27,x16,x1	 x16:0x6ef56d07  x1:0x00000000 x27=0x6ef56d07
       29955000	      2994	80002d0c	026cf263	bgeu	x25,x6,80002d30	 x25:0x55b0309c  x6:0xfffff970
       29965000	      2995	80002d10	408e5e93	srai	x29,x28,0x8	 x28:0xfffff967 x29=0xfffffff9
       29975000	      2996	80002d14	055c9663	bne	x25,x21,80002d60	 x25:0x55b0309c x21:0xaa4fcc07
       29985000	      2997	00000000	00000013	addi	x0,x0,0	  x0:0x00000000
       29995000	      2998	80002d5c	00000013	addi	x0,x0,0	  x0:0x00000000
       30005000	      2999	80002d60	40915813	srai	x16,x2,0x9	  x2:0x00000000 x16=0x00000000
       30015000	      3000	80002d64	41c88a33	sub	x20,x17,x28	 x17:0xf093c000 x28:0xfffff967 x20=0xf093c699
       30025000	      3001	80002d68	f32eae13	slti	x28,x29,-206	 x29:0xfffffff9 x28=0x00000000
       30035000	      3002	80002d6c	3485a493	slti	x9,x11,840	 x11:0x00000000  x9=0x00000001
       30045000	      3003	80002d70	017e5a63	bge	x28,x23,80002d84	 x28:0x00000000 x23:0x00000000
       30055000	      3004	00000000	00000013	addi	x0,x0,0	  x0:0x00000000
       30065000	      3005	80002d80	00000013	addi	x0,x0,0	  x0:0x00000000
       30075000	      3006	80002d84	4106de33	sra	x28,x13,x16	 x13:0xc4000000 x16:0x00000000 x28=0xc4000000
       30085000	      3007	80002d88	c5d7ef93	ori	x31,x15,-931	 x15:0x4ea32c78 x31=0xfffffc7d
       30095000	      3008	80002d8c	dd1eca13	xori	x20,x29,-559	 x29:0xfffffff9 x20=0x00000228
       30105000	      3009	80002d90	044f4863	blt	x30,x4,80002de0	 x30:0xf2903d81  x4:0x00000000
       30115000	      3010	00000000	00000013	addi	x0,x0,0	  x0:0x00000000
       30125000	      3011	80002ddc	00000013	addi	x0,x0,0	  x0:0x00000000
       30135000	      3012	80002de0	01835c93	srli	x25,x6,0x18	  x6:0xfffff970 x25=0x000000ff
       30145000	      3013	80002de4	001cb833	sltu	x16,x25,x1	 x25:0x000000ff  x1:0x00000000 x16=0x00000000
       30155000	      3014	80002de8	98f9cb93	xori	x23,x19,-1649	 x19:0x00000000 x23=0xfffff98f
       30165000	      3015	80002dec	018c9a63	bne	x25,x24,80002e00	 x25:0x000000ff x24:0xffb6bfd8
       30175000	      3016	00000000	00000013	addi	x0,x0,0	  x0:0x00000000
       30185000	      3017	80002dfc	00000013	addi	x0,x0,0	  x0:0x00000000
       30195000	      3018	80002e00	01430a63	beq	x6,x20,80002e14	  x6:0xfffff970 x20:0x00000228
       30205000	      3019	80002e04	01828cb3	add	x25,x5,x24	  x5:0xc4000000 x24:0xffb6bfd8 x25=0xc3b6bfd8
       30215000	      3020	80002e08	07226117	auipc	x2,0x7226	  x2=0x87228e04
       30225000	      3021	80002e0c	26d3ca93	xori	x21,x7,621	  x7:0xaa4fc874 x21=0xaa4fca19
       30235000	      3022	80002e10	004aec63	bltu	x21,x4,80002e28	 x21:0xaa4fca19  x4:0x00000000
       30245000	      3023	80002e14	5a5a3597	auipc	x11,0x5a5a3	 x11=0xda5a5e10
       30255000	      3024	80002e18	4d4a6493	ori	x9,x20,1236	 x20:0x00000228  x9=0x000006fc
       30265000	      3025	80002e1c	26368393	addi	x7,x13,611	 x13:0xc4000000  x7=0xc4000263
       30275000	      3026	80002e20	8e416017	auipc	x0,0x8e416	
       30285000	      3027	80002e24	00000013	addi	x0,x0,0	  x0:0x00000000
       30295000	      3028	80002e28	00e43e33	sltu	x28,x8,x14	  x8:0x00000000 x14:0xfffff967 x28=0x00000001
       30305000	      3029	80002e2c	75b8b293	sltiu	x5,x17,1883	 x17:0xf093c000  x5=0x00000000
       30315000	      3030	80002e30	0252f063	bgeu	x5,x5,80002e50	  x5:0x00000000  x5:0x00000000
       30325000	      3031	00000000	00000013	addi	x0,x0,0	  x0:0x00000000
       30335000	      3032	80002e4c	00000013	addi	x0,x0,0	  x0:0x00000000
       30345000	      3033	80002e50	410a0db3	sub	x27,x20,x16	 x20:0x00000228 x16:0x00000000 x27=0x00000228
       30355000	      3034	80002e54	014faa33	slt	x20,x31,x20	 x31:0xfffffc7d x20:0x00000228 x20=0x00000001
       30365000	      3035	80002e58	418be293	ori	x5,x23,1048	 x23:0xfffff98f  x5=0xfffffd9f
       30375000	      3036	80002e5c	01a81a63	bne	x16,x26,80002e70	 x16:0x00000000 x26:0x00000000
       30385000	      3037	80002e60	02a9f863	bgeu	x19,x10,80002e90	 x19:0x00000000 x10:0x55b0332e
       30395000	      3038	80002e64	ed8b3a93	sltiu	x21,x22,-296	 x22:0x00000000 x21=0x00000001
       30405000	      3039	80002e68	009445b3	xor	x11,x8,x9	  x8:0x00000000  x9:0x000006fc x11=0x000006fc
       30415000	      3040	80002e6c	2a360f93	addi	x31,x12,675	 x12:0x80009fc4 x31=0x8000a267
       30425000	      3041	80002e70	0a3fe193	ori	x3,x31,163	 x31:0x8000a267  x3=0x8000a2e7
       30435000	      3042	80002e74	41778733	sub	x14,x15,x23	 x15:0x4ea32c78 x23:0xfffff98f x14=0x4ea332e9
       30445000	      3043	80002e78	57c3e813	ori	x16,x7,1404	  x7:0xc4000263 x16=0xc400077f
       30455000	      3044	80002e7c	86beb397	auipc	x7,0x86beb	  x7=0x06bede78
       30465000	      3045	80002e80	189b7993	andi	x19,x22,393	 x22:0x00000000 x19=0x00000000
       30475000	      3046	80002e84	5355ec17	auipc	x24,0x5355e	 x24=0xd3560e80
       30485000	      3047	80002e88	a721c337	lui	x6,0xa721c	  x6=0xa721c000
       30495000	      3048	80002e8c	014643b3	xor	x7,x12,x20	 x12:0x80009fc4 x20:0x00000001  x7=0x80009fc5
       30505000	      3049	80002e90	03e01063	bne	x0,x30,80002eb0	  x0:0x00000000 x30:0xf2903d81
       30515000	      3050	00000000	00000013	addi	x0,x0,0	  x0:0x00000000
       30525000	      3051	80002eac	00000013	addi	x0,x0,0	  x0:0x00000000
       30535000	      3052	80002eb0	00028cb3	add	x25,x5,x0	  x5:0xfffffd9f  x0:0x00000000 x25=0xfffffd9f
       30545000	      3053	80002eb4	042c0663	beq	x24,x2,80002f00	 x24:0xd3560e80  x2:0x87228e04
       30555000	      3054	80002eb8	d40ab813	sltiu	x16,x21,-704	 x21:0x00000001 x16=0x00000001
       30565000	      3055	80002ebc	d659e313	ori	x6,x19,-667	 x19:0x00000000  x6=0xfffffd65
       30575000	      3056	80002ec0	00dbc733	xor	x14,x23,x13	 x23:0xfffff98f x13:0xc4000000 x14=0x3bfff98f
       30585000	      3057	80002ec4	a0d7cbb7	lui	x23,0xa0d7c	 x23=0xa0d7c000
       30595000	      3058	80002ec8	41578733	sub	x14,x15,x21	 x15:0x4ea32c78 x21:0x00000001 x14=0x4ea32c77
       30605000	      3059	80002ecc	017412b3	sll	x5,x8,x23	  x8:0x00000000 x23:0xa0d7c000  x5=0x00000000
       30615000	      3060	80002ed0	806ba713	slti	x14,x23,-2042	 x23:0xa0d7c000 x14=0x00000001
       30625000	      3061	80002ed4	02c25e63	bge	x4,x12,80002f10	  x4:0x00000000 x12:0x80009fc4
       30635000	      3062	00000000	00000013	addi	x0,x0,0	  x0:0x00000000
       30645000	      3063	80002f0c	00000013	addi	x0,x0,0	  x0:0x00000000
       30655000	      3064	80002f10	00000013	addi	x0,x0,0	  x0:0x00000000
       30665000	      3065	80002f14	00f51c63	bne	x10,x15,80002f2c	 x10:0x55b0332e x15:0x4ea32c78
       30675000	      3066	00000000	00000013	addi	x0,x0,0	  x0:0x00000000
       30685000	      3067	80002f28	00000013	addi	x0,x0,0	  x0:0x00000000
       30695000	      3068	80002f2c	41ded9b3	sra	x19,x29,x29	 x29:0xfffffff9 x29:0xfffffff9 x19=0xffffffff
       30705000	      3069	80002f30	01480463	beq	x16,x20,80002f38	 x16:0x00000001 x20:0x00000001
       30715000	      3070	00000000	00000013	addi	x0,x0,0	  x0:0x00000000
       30725000	      3071	80002f34	00000013	addi	x0,x0,0	  x0:0x00000000
       30735000	      3072	80002f38	00b9e7b3	or	x15,x19,x11	 x19:0xffffffff x11:0x000006fc x15=0xffffffff
       30745000	      3073	80002f3c	00000013	addi	x0,x0,0	  x0:0x00000000
       30755000	      3074	80002f40	2f332213	slti	x4,x6,755	  x6:0xfffffd65  x4=0x00000001
       30765000	      3075	80002f44	00ddd3b3	srl	x7,x27,x13	 x27:0x00000228 x13:0xc4000000  x7=0x00000228
       30775000	      3076	80002f48	00e8d233	srl	x4,x17,x14	 x17:0xf093c000 x14:0x00000001  x4=0x7849e000
       30785000	      3077	80002f4c	40a85833	sra	x16,x16,x10	 x16:0x00000001 x10:0x55b0332e x16=0x00000000
       30795000	      3078	80002f50	a3caf193	andi	x3,x21,-1476	 x21:0x00000001  x3=0x00000000
       30805000	      3079	80002f54	03fb5263	bge	x22,x31,80002f78	 x22:0x00000000 x31:0x8000a267
       30815000	      3080	00000000	00000013	addi	x0,x0,0	  x0:0x00000000
       30825000	      3081	80002f74	00000013	addi	x0,x0,0	  x0:0x00000000
       30835000	      3082	80002f78	004e88b3	add	x17,x29,x4	 x29:0xfffffff9  x4:0x7849e000 x17=0x7849dff9
       30845000	      3083	80002f7c	a11c8513	addi	x10,x25,-1519	 x25:0xfffffd9f x10=0xfffff7b0
       30855000	      3084	80002f80	039ed063	bge	x29,x25,80002fa0	 x29:0xfffffff9 x25:0xfffffd9f
       30865000	      3085	00000000	00000013	addi	x0,x0,0	  x0:0x00000000
       30875000	      3086	80002f9c	00000013	addi	x0,x0,0	  x0:0x00000000
       30885000	      3087	80002fa0	217b2e13	slti	x28,x22,535	 x22:0x00000000 x28=0x00000001
       30895000	      3088	80002fa4	0476d863	bge	x13,x7,80002ff4	 x13:0xc4000000  x7:0x00000228
       30905000	      3089	80002fa8	03db9663	bne	x23,x29,80002fd4	 x23:0xa0d7c000 x29:0xfffffff9
       30915000	      3090	00000000	00000013	addi	x0,x0,0	  x0:0x00000000
       30925000	      3091	80002fd0	00000013	addi	x0,x0,0	  x0:0x00000000
       30935000	      3092	80002fd4	01484bb3	xor	x23,x16,x20	 x16:0x00000000 x20:0x00000001 x23=0x00000001
       30945000	      3093	80002fd8	41d15233	sra	x4,x2,x29	  x2:0x87228e04 x29:0xfffffff9  x4=0xffffffc3
       30955000	      3094	80002fdc	01b72133	slt	x2,x14,x27	 x14:0x00000001 x27:0x00000228  x2=0x00000001
       30965000	      3095	80002fe0	00a60233	add	x4,x12,x10	 x12:0x80009fc4 x10:0xfffff7b0  x4=0x80009774
       30975000	      3096	80002fe4	005893b3	sll	x7,x17,x5	 x17:0x7849dff9  x5:0x00000000  x7=0x7849dff9
       30985000	      3097	80002fe8	00e6e733	or	x14,x13,x14	 x13:0xc4000000 x14:0x00000001 x14=0xc4000001
       30995000	      3098	80002fec	0e52b3b7	lui	x7,0xe52b	  x7=0x0e52b000
       31005000	      3099	80002ff0	0279c663	blt	x19,x7,8000301c	 x19:0xffffffff  x7:0x0e52b000
       31015000	      3100	00000000	00000013	addi	x0,x0,0	  x0:0x00000000
       31025000	      3101	80003018	00000013	addi	x0,x0,0	  x0:0x00000000
       31035000	      3102	8000301c	02610263	beq	x2,x6,80003040	  x2:0x00000001  x6:0xfffffd65
       31045000	      3103	80003020	0162a0b3	slt	x1,x5,x22	  x5:0x00000000 x22:0x00000000  x1=0x00000000
       31055000	      3104	80003024	00000013	addi	x0,x0,0	  x0:0x00000000
       31065000	      3105	80003028	7288ae93	slti	x29,x17,1832	 x17:0x7849dff9 x29=0x00000000
       31075000	      3106	8000302c	013494b3	sll	x9,x9,x19	  x9:0x000006fc x19:0xffffffff  x9=0x00000000
       31085000	      3107	80003030	7499e193	ori	x3,x19,1865	 x19:0xffffffff  x3=0xffffffff
       31095000	      3108	80003034	406b5093	srai	x1,x22,0x6	 x22:0x00000000  x1=0x00000000
       31105000	      3109	80003038	03706a63	bltu	x0,x23,8000306c	  x0:0x00000000 x23:0x00000001
       31115000	      3110	00000000	00000013	addi	x0,x0,0	  x0:0x00000000
       31125000	      3111	80003068	00000013	addi	x0,x0,0	  x0:0x00000000
       31135000	      3112	8000306c	57e89b17	auipc	x22,0x57e89	 x22=0xd7e8c068
       31145000	      3113	80003070	00725713	srli	x14,x4,0x7	  x4:0x80009774 x14=0x0100012e
       31155000	      3114	80003074	aefb6e93	ori	x29,x22,-1297	 x22:0xd7e8c068 x29=0xfffffaef
       31165000	      3115	80003078	00000013	addi	x0,x0,0	  x0:0x00000000
       31175000	      3116	8000307c	01841663	bne	x8,x24,80003088	  x8:0x00000000 x24:0xd3560e80
       31185000	      3117	00000000	00000013	addi	x0,x0,0	  x0:0x00000000
       31195000	      3118	80003084	00000013	addi	x0,x0,0	  x0:0x00000000
       31205000	      3119	80003088	0053c133	xor	x2,x7,x5	  x7:0x0e52b000  x5:0x00000000  x2=0x0e52b000
       31215000	      3120	8000308c	0018b6b3	sltu	x13,x17,x1	 x17:0x7849dff9  x1:0x00000000 x13=0x00000000
       31225000	      3121	80003090	b31f7713	andi	x14,x30,-1231	 x30:0xf2903d81 x14=0xf2903901
       31235000	      3122	80003094	1fff2213	slti	x4,x30,511	 x30:0xf2903d81  x4=0x00000001
       31245000	      3123	80003098	469d4237	lui	x4,0x469d4	  x4=0x469d4000
       31255000	      3124	8000309c	8d7a7693	andi	x13,x20,-1833	 x20:0x00000001 x13=0x00000001
       31265000	      3125	800030a0	02adf063	bgeu	x27,x10,800030c0	 x27:0x00000228 x10:0xfffff7b0
       31275000	      3126	800030a4	e5f3b997	auipc	x19,0xe5f3b	 x19=0x65f3e0a0
       31285000	      3127	800030a8	40ea5b93	srai	x23,x20,0xe	 x20:0x00000001 x23=0x00000000
       31295000	      3128	800030ac	7ab5ed93	ori	x27,x11,1963	 x11:0x000006fc x27=0x000007ff
       31305000	      3129	800030b0	00bf4c33	xor	x24,x30,x11	 x30:0xf2903d81 x11:0x000006fc x24=0xf2903b7d
       31315000	      3130	800030b4	01f66663	bltu	x12,x31,800030c0	 x12:0x80009fc4 x31:0x8000a267
       31325000	      3131	00000000	00000013	addi	x0,x0,0	  x0:0x00000000
       31335000	      3132	800030bc	00000013	addi	x0,x0,0	  x0:0x00000000
       31345000	      3133	800030c0	01689513	slli	x10,x17,0x16	 x17:0x7849dff9 x10=0xfe400000
       31355000	      3134	800030c4	55976e13	ori	x28,x14,1369	 x14:0xf2903901 x28=0xf2903d59
       31365000	      3135	800030c8	01e3d2b3	srl	x5,x7,x30	  x7:0x0e52b000 x30:0xf2903d81  x5=0x07295800
       31375000	      3136	800030cc	04238663	beq	x7,x2,80003118	  x7:0x0e52b000  x2:0x0e52b000
       31385000	      3137	00000000	00000013	addi	x0,x0,0	  x0:0x00000000
       31395000	      3138	80003114	00000013	addi	x0,x0,0	  x0:0x00000000
       31405000	      3139	80003118	cd91be13	sltiu	x28,x3,-807	  x3:0xffffffff x28=0x00000000
       31415000	      3140	8000311c	011a1a63	bne	x20,x17,80003130	 x20:0x00000001 x17:0x7849dff9
       31425000	      3141	00000000	00000013	addi	x0,x0,0	  x0:0x00000000
       31435000	      3142	8000312c	00000013	addi	x0,x0,0	  x0:0x00000000
       31445000	      3143	80003130	bccf3113	sltiu	x2,x30,-1076	 x30:0xf2903d81  x2=0x00000001
       31455000	      3144	80003134	05238863	beq	x7,x18,80003184	  x7:0x0e52b000 x18:0x80009f10
       31465000	      3145	80003138	0138fc33	and	x24,x17,x19	 x17:0x7849dff9 x19:0x65f3e0a0 x24=0x6041c0a0
       31475000	      3146	8000313c	011a43b3	xor	x7,x20,x17	 x20:0x00000001 x17:0x7849dff9  x7=0x7849dff8
       31485000	      3147	80003140	009c1cb3	sll	x25,x24,x9	 x24:0x6041c0a0  x9:0x00000000 x25=0x6041c0a0
       31495000	      3148	80003144	03d79063	bne	x15,x29,80003164	 x15:0xffffffff x29:0xfffffaef
       31505000	      3149	00000000	00000013	addi	x0,x0,0	  x0:0x00000000
       31515000	      3150	80003160	00000013	addi	x0,x0,0	  x0:0x00000000
       31525000	      3151	80003164	40745893	srai	x17,x8,0x7	  x8:0x00000000 x17=0x00000000
       31535000	      3152	80003168	0095d013	srli	x0,x11,0x9	 x11:0x000006fc
       31545000	      3153	8000316c	c4bd3137	lui	x2,0xc4bd3	  x2=0xc4bd3000
       31555000	      3154	80003170	00983733	sltu	x14,x16,x9	 x16:0x00000000  x9:0x00000000 x14=0x00000000
       31565000	      3155	80003174	01279c13	slli	x24,x15,0x12	 x15:0xffffffff x24=0xfffc0000
       31575000	      3156	80003178	ba5867b7	lui	x15,0xba586	 x15=0xba586000
       31585000	      3157	8000317c	404e8733	sub	x14,x29,x4	 x29:0xfffffaef  x4:0x469d4000 x14=0xb962baef
       31595000	      3158	80003180	40fc5293	srai	x5,x24,0xf	 x24:0xfffc0000  x5=0xfffffff8
       31605000	      3159	80003184	41fd5113	srai	x2,x26,0x1f	 x26:0x00000000  x2=0x00000000
       31615000	      3160	80003188	410d5513	srai	x10,x26,0x10	 x26:0x00000000 x10=0x00000000
       31625000	      3161	8000318c	00000013	addi	x0,x0,0	  x0:0x00000000
       31635000	      3162	80003190	00b5fd33	and	x26,x11,x11	 x11:0x000006fc x11:0x000006fc x26=0x000006fc
       31645000	      3163	80003194	01ae5d13	srli	x26,x28,0x1a	 x28:0x00000000 x26=0x00000000
       31655000	      3164	80003198	0e72c813	xori	x16,x5,231	  x5:0xfffffff8 x16=0xffffff1f
       31665000	      3165	8000319c	013e1d33	sll	x26,x28,x19	 x28:0x00000000 x19:0x65f3e0a0 x26=0x00000000
       31675000	      3166	800031a0	00b1ea63	bltu	x3,x11,800031b4	  x3:0xffffffff x11:0x000006fc
       31685000	      3167	800031a4	01eeb233	sltu	x4,x29,x30	 x29:0xfffffaef x30:0xf2903d81  x4=0x00000000
       31695000	      3168	800031a8	98cf8593	addi	x11,x31,-1652	 x31:0x8000a267 x11=0x80009bf3
       31705000	      3169	800031ac	0072d663	bge	x5,x7,800031b8	  x5:0xfffffff8  x7:0x7849dff8
       31715000	      3170	800031b0	39a74093	xori	x1,x14,922	 x14:0xb962baef  x1=0xb962b975
       31725000	      3171	800031b4	227e3b13	sltiu	x22,x28,551	 x28:0x00000000 x22=0x00000001
       31735000	      3172	800031b8	04f36663	bltu	x6,x15,80003204	  x6:0xfffffd65 x15:0xba586000
       31745000	      3173	800031bc	d627f513	andi	x10,x15,-670	 x15:0xba586000 x10=0xba586000
       31755000	      3174	800031c0	00fb1e93	slli	x29,x22,0xf	 x22:0x00000001 x29=0x00008000
       31765000	      3175	800031c4	40cf0133	sub	x2,x30,x12	 x30:0xf2903d81 x12:0x80009fc4  x2=0x728f9dbd
       31775000	      3176	800031c8	b7b2f293	andi	x5,x5,-1157	  x5:0xfffffff8  x5=0xfffffb78
       31785000	      3177	800031cc	0263d663	bge	x7,x6,800031f8	  x7:0x7849dff8  x6:0xfffffd65
       31795000	      3178	00000000	00000013	addi	x0,x0,0	  x0:0x00000000
       31805000	      3179	800031f4	00000013	addi	x0,x0,0	  x0:0x00000000
       31815000	      3180	800031f8	03686063	bltu	x16,x22,80003218	 x16:0xffffff1f x22:0x00000001
       31825000	      3181	800031fc	03357863	bgeu	x10,x19,8000322c	 x10:0xba586000 x19:0x65f3e0a0
       31835000	      3182	00000000	00000013	addi	x0,x0,0	  x0:0x00000000
       31845000	      3183	80003228	00000013	addi	x0,x0,0	  x0:0x00000000
       31855000	      3184	8000322c	00d0e8b3	or	x17,x1,x13	  x1:0xb962b975 x13:0x00000001 x17=0xb962b975
       31865000	      3185	80003230	4153d733	sra	x14,x7,x21	  x7:0x7849dff8 x21:0x00000001 x14=0x3c24effc
       31875000	      3186	80003234	01908a63	beq	x1,x25,80003248	  x1:0xb962b975 x25:0x6041c0a0
       31885000	      3187	80003238	11f744b7	lui	x9,0x11f74	  x9=0x11f74000
       31895000	      3188	8000323c	417888b3	sub	x17,x17,x23	 x17:0xb962b975 x23:0x00000000 x17=0xb962b975
       31905000	      3189	80003240	fc710e93	addi	x29,x2,-57	  x2:0x728f9dbd x29=0x728f9d84
       31915000	      3190	80003244	f4933713	sltiu	x14,x6,-183	  x6:0xfffffd65 x14=0x00000001
       31925000	      3191	80003248	01483513	sltiu	x10,x16,20	 x16:0xffffff1f x10=0x00000000
       31935000	      3192	8000324c	10a0ee93	ori	x29,x1,266	  x1:0xb962b975 x29=0xb962b97f
       31945000	      3193	80003250	40f2d213	srai	x4,x5,0xf	  x5:0xfffffb78  x4=0xffffffff
       31955000	      3194	80003254	0cfc6e63	bltu	x24,x15,80003330	 x24:0xfffc0000 x15:0xba586000
       31965000	      3195	80003258	0cf38c63	beq	x7,x15,80003330	  x7:0x7849dff8 x15:0xba586000
       31975000	      3196	8000325c	0083b0b3	sltu	x1,x7,x8	  x7:0x7849dff8  x8:0x00000000  x1=0x00000000
       31985000	      3197	80003260	402c0033	sub	x0,x24,x2	 x24:0xfffc0000  x2:0x728f9dbd
       31995000	      3198	80003264	002e3a33	sltu	x20,x28,x2	 x28:0x00000000  x2:0x728f9dbd x20=0x00000001
       32005000	      3199	80003268	0fb8c063	blt	x17,x27,80003348	 x17:0xb962b975 x27:0x000007ff
       32015000	      3200	00000000	00000013	addi	x0,x0,0	  x0:0x00000000
       32025000	      3201	80003344	00000013	addi	x0,x0,0	  x0:0x00000000
       32035000	      3202	80003348	009bda33	srl	x20,x23,x9	 x23:0x00000000  x9:0x11f74000 x20=0x00000000
       32045000	      3203	8000334c	00000013	addi	x0,x0,0	  x0:0x00000000
       32055000	      3204	80003350	3559c293	xori	x5,x19,853	 x19:0x65f3e0a0  x5=0x65f3e3f5
       32065000	      3205	80003354	036c6263	bltu	x24,x22,80003378	 x24:0xfffc0000 x22:0x00000001
       32075000	      3206	80003358	012ab233	sltu	x4,x21,x18	 x21:0x00000001 x18:0x80009f10  x4=0x00000001
       32085000	      3207	8000335c	01ba9fb3	sll	x31,x21,x27	 x21:0x00000001 x27:0x000007ff x31=0x80000000
       32095000	      3208	80003360	03334063	blt	x6,x19,80003380	  x6:0xfffffd65 x19:0x65f3e0a0
       32105000	      3209	00000000	00000013	addi	x0,x0,0	  x0:0x00000000
       32115000	      3210	8000337c	00000013	addi	x0,x0,0	  x0:0x00000000
       32125000	      3211	80003380	0163f1b3	and	x3,x7,x22	  x7:0x7849dff8 x22:0x00000001  x3=0x00000000
       32135000	      3212	80003384	01279693	slli	x13,x15,0x12	 x15:0xba586000 x13=0x80000000
       32145000	      3213	80003388	40935db3	sra	x27,x6,x9	  x6:0xfffffd65  x9:0x11f74000 x27=0xfffffd65
       32155000	      3214	8000338c	41168bb3	sub	x23,x13,x17	 x13:0x80000000 x17:0xb962b975 x23=0xc69d468b
       32165000	      3215	80003390	01116a63	bltu	x2,x17,800033a4	  x2:0x728f9dbd x17:0xb962b975
       32175000	      3216	00000000	00000013	addi	x0,x0,0	  x0:0x00000000
       32185000	      3217	800033a0	00000013	addi	x0,x0,0	  x0:0x00000000
       32195000	      3218	800033a4	00000013	addi	x0,x0,0	  x0:0x00000000
       32205000	      3219	800033a8	e6f5f393	andi	x7,x11,-401	 x11:0x80009bf3  x7=0x80009a63
       32215000	      3220	800033ac	002e1213	slli	x4,x28,0x2	 x28:0x00000000  x4=0x00000000
       32225000	      3221	800033b0	01395463	bge	x18,x19,800033b8	 x18:0x80009f10 x19:0x65f3e0a0
       32235000	      3222	800033b4	41ae6c93	ori	x25,x28,1050	 x28:0x00000000 x25=0x0000041a
       32245000	      3223	800033b8	d2560293	addi	x5,x12,-731	 x12:0x80009fc4  x5=0x80009ce9
       32255000	      3224	800033bc	6d3bed93	ori	x27,x23,1747	 x23:0xc69d468b x27=0xc69d46db
       32265000	      3225	800033c0	01b628b3	slt	x17,x12,x27	 x12:0x80009fc4 x27:0xc69d46db x17=0x00000001
       32275000	      3226	800033c4	03ef8e63	beq	x31,x30,80003400	 x31:0x80000000 x30:0xf2903d81
       32285000	      3227	800033c8	018af1b3	and	x3,x21,x24	 x21:0x00000001 x24:0xfffc0000  x3=0x00000000
       32295000	      3228	800033cc	a4c2fb13	andi	x22,x5,-1460	  x5:0x80009ce9 x22=0x80009848
       32305000	      3229	800033d0	24534d13	xori	x26,x6,581	  x6:0xfffffd65 x26=0xffffff20
       32315000	      3230	800033d4	02bb1063	bne	x22,x11,800033f4	 x22:0x80009848 x11:0x80009bf3
       32325000	      3231	00000000	00000013	addi	x0,x0,0	  x0:0x00000000
       32335000	      3232	800033f0	00000013	addi	x0,x0,0	  x0:0x00000000
       32345000	      3233	800033f4	013fc663	blt	x31,x19,80003400	 x31:0x80000000 x19:0x65f3e0a0
       32355000	      3234	00000000	00000013	addi	x0,x0,0	  x0:0x00000000
       32365000	      3235	800033fc	00000013	addi	x0,x0,0	  x0:0x00000000
       32375000	      3236	80003400	01a8bb33	sltu	x22,x17,x26	 x17:0x00000001 x26:0xffffff20 x22=0x00000001
       32385000	      3237	80003404	209da697	auipc	x13,0x209da	 x13=0xa09dd400
       32395000	      3238	80003408	d2aaf293	andi	x5,x21,-726	 x21:0x00000001  x5=0x00000000
       32405000	      3239	8000340c	fe14e293	ori	x5,x9,-31	  x9:0x11f74000  x5=0xffffffe1
       32415000	      3240	80003410	5e44c513	xori	x10,x9,1508	  x9:0x11f74000 x10=0x11f745e4
       32425000	      3241	80003414	8db82413	slti	x8,x16,-1829	 x16:0xffffff1f  x8=0x00000000
       32435000	      3242	80003418	01cf6333	or	x6,x30,x28	 x30:0xf2903d81 x28:0x00000000  x6=0xf2903d81
       32445000	      3243	8000341c	00fc7fb3	and	x31,x24,x15	 x24:0xfffc0000 x15:0xba586000 x31=0xba580000
       32455000	      3244	80003420	45c2b113	sltiu	x2,x5,1116	  x5:0xffffffe1  x2=0x00000000
       32465000	      3245	80003424	2e12f813	andi	x16,x5,737	  x5:0xffffffe1 x16=0x000002e1
       32475000	      3246	80003428	7e727737	lui	x14,0x7e727	 x14=0x7e727000
       32485000	      3247	8000342c	002cd9b3	srl	x19,x25,x2	 x25:0x0000041a  x2:0x00000000 x19=0x0000041a
       32495000	      3248	80003430	47083193	sltiu	x3,x16,1136	 x16:0x000002e1  x3=0x00000001
       32505000	      3249	80003434	02f6ee63	bltu	x13,x15,80003470	 x13:0xa09dd400 x15:0xba586000
       32515000	      3250	00000000	00000013	addi	x0,x0,0	  x0:0x00000000
       32525000	      3251	8000346c	00000013	addi	x0,x0,0	  x0:0x00000000
       32535000	      3252	80003470	40a4d393	srai	x7,x9,0xa	  x9:0x11f74000  x7=0x00047dd0
       32545000	      3253	80003474	4029d493	srai	x9,x19,0x2	 x19:0x0000041a  x9=0x00000106
       32555000	      3254	80003478	1cc92693	slti	x13,x18,460	 x18:0x80009f10 x13=0x00000001
       32565000	      3255	8000347c	00c414b3	sll	x9,x8,x12	  x8:0x00000000 x12:0x80009fc4  x9=0x00000000
       32575000	      3256	80003480	01d85d33	srl	x26,x16,x29	 x16:0x000002e1 x29:0xb962b97f x26=0x00000000
       32585000	      3257	80003484	0190c333	xor	x6,x1,x25	  x1:0x00000000 x25:0x0000041a  x6=0x0000041a
       32595000	      3258	80003488	01089263	bne	x17,x16,8000348c	 x17:0x00000001 x16:0x000002e1
       32605000	      3259	00000000	00000013	addi	x0,x0,0	  x0:0x00000000
       32615000	      3260	80003488	00000013	addi	x0,x0,0	  x0:0x00000000
       32625000	      3261	8000348c	00dec533	xor	x10,x29,x13	 x29:0xb962b97f x13:0x00000001 x10=0xb962b97e
       32635000	      3262	80003490	41795297	auipc	x5,0x41795	  x5=0xc179848c
       32645000	      3263	80003494	40575833	sra	x16,x14,x5	 x14:0x7e727000  x5:0xc179848c x16=0x0007e727
       32655000	      3264	80003498	00d1e6b3	or	x13,x3,x13	  x3:0x00000001 x13:0x00000001 x13=0x00000001
       32665000	      3265	8000349c	54e67093	andi	x1,x12,1358	 x12:0x80009fc4  x1=0x00000544
       32675000	      3266	800034a0	00969793	slli	x15,x13,0x9	 x13:0x00000001 x15=0x00000200
       32685000	      3267	800034a4	ea52ae13	slti	x28,x5,-347	  x5:0xc179848c x28=0x00000001
       32695000	      3268	800034a8	01d7f833	and	x16,x15,x29	 x15:0x00000200 x29:0xb962b97f x16=0x00000000
       32705000	      3269	800034ac	019e0333	add	x6,x28,x25	 x28:0x00000001 x25:0x0000041a  x6=0x0000041b
       32715000	      3270	800034b0	010796b3	sll	x13,x15,x16	 x15:0x00000200 x16:0x00000000 x13=0x00000200
       32725000	      3271	800034b4	05770663	beq	x14,x23,80003500	 x14:0x7e727000 x23:0xc69d468b
       32735000	      3272	800034b8	402b0ab3	sub	x21,x22,x2	 x22:0x00000001  x2:0x00000000 x21=0x00000001
       32745000	      3273	800034bc	02796263	bltu	x18,x7,800034e0	 x18:0x80009f10  x7:0x00047dd0
       32755000	      3274	800034c0	408ed833	sra	x16,x29,x8	 x29:0xb962b97f  x8:0x00000000 x16=0xb962b97f
       32765000	      3275	800034c4	00655793	srli	x15,x10,0x6	 x10:0xb962b97e x15=0x02e58ae5
       32775000	      3276	800034c8	01bea4b3	slt	x9,x29,x27	 x29:0xb962b97f x27:0xc69d46db  x9=0x00000001
       32785000	      3277	800034cc	416ed0b3	sra	x1,x29,x22	 x29:0xb962b97f x22:0x00000001  x1=0xdcb15cbf
       32795000	      3278	800034d0	84ec3c93	sltiu	x25,x24,-1970	 x24:0xfffc0000 x25=0x00000001
       32805000	      3279	800034d4	014618b3	sll	x17,x12,x20	 x12:0x80009fc4 x20:0x00000000 x17=0x80009fc4
       32815000	      3280	800034d8	01c2c2b3	xor	x5,x5,x28	  x5:0xc179848c x28:0x00000001  x5=0xc179848d
       32825000	      3281	800034dc	029bd863	bge	x23,x9,8000350c	 x23:0xc69d468b  x9:0x00000001
       32835000	      3282	800034e0	11577713	andi	x14,x14,277	 x14:0x7e727000 x14=0x00000000
       32845000	      3283	800034e4	012a11b3	sll	x3,x20,x18	 x20:0x00000000 x18:0x80009f10  x3=0x00000000
       32855000	      3284	800034e8	eeaae193	ori	x3,x21,-278	 x21:0x00000001  x3=0xfffffeeb
       32865000	      3285	800034ec	bd36bf93	sltiu	x31,x13,-1069	 x13:0x00000200 x31=0x00000001
       32875000	      3286	800034f0	3a133193	sltiu	x3,x6,929	  x6:0x0000041b  x3=0x00000000
       32885000	      3287	800034f4	45e466b7	lui	x13,0x45e46	 x13=0x45e46000
       32895000	      3288	800034f8	40275d93	srai	x27,x14,0x2	 x14:0x00000000 x27=0x00000000
       32905000	      3289	800034fc	9e8a4b93	xori	x23,x20,-1560	 x20:0x00000000 x23=0xfffff9e8
       32915000	      3290	80003500	009f0b33	add	x22,x30,x9	 x30:0xf2903d81  x9:0x00000001 x22=0xf2903d82
       32925000	      3291	80003504	0199c9b3	xor	x19,x19,x25	 x19:0x0000041a x25:0x00000001 x19=0x0000041b
       32935000	      3292	80003508	506474b7	lui	x9,0x50647	  x9=0x50647000
       32945000	      3293	8000350c	a1ea1517	auipc	x10,0xa1ea1	 x10=0x21ea4508
       32955000	      3294	80003510	2556a093	slti	x1,x13,597	 x13:0x45e46000  x1=0x00000000
       32965000	      3295	80003514	01f65113	srli	x2,x12,0x1f	 x12:0x80009fc4  x2=0x00000001
       32975000	      3296	80003518	02bd1663	bne	x26,x11,80003544	 x26:0x00000000 x11:0x80009bf3
       32985000	      3297	00000000	00000013	addi	x0,x0,0	  x0:0x00000000
       32995000	      3298	80003540	00000013	addi	x0,x0,0	  x0:0x00000000
       33005000	      3299	80003544	037de263	bltu	x27,x23,80003568	 x27:0x00000000 x23:0xfffff9e8
       33015000	      3300	00000000	00000013	addi	x0,x0,0	  x0:0x00000000
       33025000	      3301	80003564	00000013	addi	x0,x0,0	  x0:0x00000000
       33035000	      3302	80003568	47adc117	auipc	x2,0x47adc	  x2=0xc7adf564
       33045000	      3303	8000356c	00000013	addi	x0,x0,0	  x0:0x00000000
       33055000	      3304	80003570	02124c63	blt	x4,x1,800035a8	  x4:0x00000000  x1:0x00000000
       33065000	      3305	80003574	ca986813	ori	x16,x16,-855	 x16:0xb962b97f x16=0xfffffdff
       33075000	      3306	80003578	00baa4b3	slt	x9,x21,x11	 x21:0x00000001 x11:0x80009bf3  x9=0x00000000
       33085000	      3307	8000357c	1d622a93	slti	x21,x4,470	  x4:0x00000000 x21=0x00000001
       33095000	      3308	80003580	00db70b3	and	x1,x22,x13	 x22:0xf2903d82 x13:0x45e46000  x1=0x40802000
       33105000	      3309	80003584	40190cb3	sub	x25,x18,x1	 x18:0x80009f10  x1:0x40802000 x25=0x3f807f10
       33115000	      3310	80003588	01085c63	bge	x16,x16,800035a0	 x16:0xfffffdff x16:0xfffffdff
       33125000	      3311	00000000	00000013	addi	x0,x0,0	  x0:0x00000000
       33135000	      3312	8000359c	00000013	addi	x0,x0,0	  x0:0x00000000
       33145000	      3313	800035a0	7b69cc13	xori	x24,x19,1974	 x19:0x0000041b x24=0x000003ad
       33155000	      3314	800035a4	016b6ab3	or	x21,x22,x22	 x22:0xf2903d82 x22:0xf2903d82 x21=0xf2903d82
       33165000	      3315	800035a8	00731193	slli	x3,x6,0x7	  x6:0x0000041b  x3=0x00020d80
       33175000	      3316	800035ac	f61e2f93	slti	x31,x28,-159	 x28:0x00000001 x31=0x00000000
       33185000	      3317	800035b0	00000013	addi	x0,x0,0	  x0:0x00000000
       33195000	      3318	800035b4	7e804a13	xori	x20,x0,2024	  x0:0x00000000 x20=0x000007e8
       33205000	      3319	800035b8	0328c263	blt	x17,x18,800035dc	 x17:0x80009fc4 x18:0x80009f10
       33215000	      3320	800035bc	00bfa033	slt	x0,x31,x11	 x31:0x00000000 x11:0x80009bf3
       33225000	      3321	800035c0	00445693	srli	x13,x8,0x4	  x8:0x00000000 x13=0x00000000
       33235000	      3322	800035c4	402b54b3	sra	x9,x22,x2	 x22:0xf2903d82  x2:0xc7adf564  x9=0xff2903d8
       33245000	      3323	800035c8	000778b3	and	x17,x14,x0	 x14:0x00000000  x0:0x00000000 x17=0x00000000
       33255000	      3324	800035cc	03086e63	bltu	x16,x16,80003608	 x16:0xfffffdff x16:0xfffffdff
       33265000	      3325	800035d0	00ed9693	slli	x13,x27,0xe	 x27:0x00000000 x13=0x00000000
       33275000	      3326	800035d4	479ea837	lui	x16,0x479ea	 x16=0x479ea000
       33285000	      3327	800035d8	022dee63	bltu	x27,x2,80003614	 x27:0x00000000  x2:0xc7adf564
       33295000	      3328	00000000	00000013	addi	x0,x0,0	  x0:0x00000000
       33305000	      3329	80003610	00000013	addi	x0,x0,0	  x0:0x00000000
       33315000	      3330	80003614	02745663	bge	x8,x7,80003640	  x8:0x00000000  x7:0x00047dd0
       33325000	      3331	80003618	406708b3	sub	x17,x14,x6	 x14:0x00000000  x6:0x0000041b x17=0xfffffbe5
       33335000	      3332	8000361c	03ac4263	blt	x24,x26,80003640	 x24:0x000003ad x26:0x00000000
       33345000	      3333	80003620	4163d713	srai	x14,x7,0x16	  x7:0x00047dd0 x14=0x00000000
       33355000	      3334	80003624	407d5513	srai	x10,x26,0x7	 x26:0x00000000 x10=0x00000000
       33365000	      3335	80003628	77a66113	ori	x2,x12,1914	 x12:0x80009fc4  x2=0x80009ffe
       33375000	      3336	8000362c	0038f733	and	x14,x17,x3	 x17:0xfffffbe5  x3:0x00020d80 x14=0x00020980
       33385000	      3337	80003630	01c6deb3	srl	x29,x13,x28	 x13:0x00000000 x28:0x00000001 x29=0x00000000
       33395000	      3338	80003634	00000013	addi	x0,x0,0	  x0:0x00000000
       33405000	      3339	80003638	00e0d693	srli	x13,x1,0xe	  x1:0x40802000 x13=0x00010200
       33415000	      3340	8000363c	0070cc33	xor	x24,x1,x7	  x1:0x40802000  x7:0x00047dd0 x24=0x40845dd0
       33425000	      3341	80003640	00c49c93	slli	x25,x9,0xc	  x9:0xff2903d8 x25=0x903d8000
       33435000	      3342	80003644	01477233	and	x4,x14,x20	 x14:0x00020980 x20:0x000007e8  x4=0x00000180
       33445000	      3343	80003648	03b10863	beq	x2,x27,80003678	  x2:0x80009ffe x27:0x00000000
       33455000	      3344	8000364c	004f5cb3	srl	x25,x30,x4	 x30:0xf2903d81  x4:0x00000180 x25=0xf2903d81
       33465000	      3345	80003650	02f29063	bne	x5,x15,80003670	  x5:0xc179848d x15:0x02e58ae5
       33475000	      3346	00000000	00000013	addi	x0,x0,0	  x0:0x00000000
       33485000	      3347	8000366c	00000013	addi	x0,x0,0	  x0:0x00000000
       33495000	      3348	80003670	04b29663	bne	x5,x11,800036bc	  x5:0xc179848d x11:0x80009bf3
       33505000	      3349	00000000	00000013	addi	x0,x0,0	  x0:0x00000000
       33515000	      3350	800036b8	00000013	addi	x0,x0,0	  x0:0x00000000
       33525000	      3351	800036bc	00cfd233	srl	x4,x31,x12	 x31:0x00000000 x12:0x80009fc4  x4=0x00000000
       33535000	      3352	800036c0	00eb25b3	slt	x11,x22,x14	 x22:0xf2903d82 x14:0x00020980 x11=0x00000001
       33545000	      3353	800036c4	3446a013	slti	x0,x13,836	 x13:0x00010200
       33555000	      3354	800036c8	02c67063	bgeu	x12,x12,800036e8	 x12:0x80009fc4 x12:0x80009fc4
       33565000	      3355	00000000	00000013	addi	x0,x0,0	  x0:0x00000000
       33575000	      3356	800036e4	00000013	addi	x0,x0,0	  x0:0x00000000
       33585000	      3357	800036e8	0129aa33	slt	x20,x19,x18	 x19:0x0000041b x18:0x80009f10 x20=0x00000000
       33595000	      3358	800036ec	000806b3	add	x13,x16,x0	 x16:0x479ea000  x0:0x00000000 x13=0x479ea000
       33605000	      3359	800036f0	018b8cb3	add	x25,x23,x24	 x23:0xfffff9e8 x24:0x40845dd0 x25=0x408457b8
       33615000	      3360	800036f4	01e42fb3	slt	x31,x8,x30	  x8:0x00000000 x30:0xf2903d81 x31=0x00000000
       33625000	      3361	800036f8	004deb33	or	x22,x27,x4	 x27:0x00000000  x4:0x00000000 x22=0x00000000
       33635000	      3362	800036fc	417d08b3	sub	x17,x26,x23	 x26:0x00000000 x23:0xfffff9e8 x17=0x00000618
       33645000	      3363	80003700	00655813	srli	x16,x10,0x6	 x10:0x00000000 x16=0x00000000
       33655000	      3364	80003704	f0f56c37	lui	x24,0xf0f56	 x24=0xf0f56000
       33665000	      3365	80003708	01b7a7b3	slt	x15,x15,x27	 x15:0x02e58ae5 x27:0x00000000 x15=0x00000000
       33675000	      3366	8000370c	2e83aa93	slti	x21,x7,744	  x7:0x00047dd0 x21=0x00000000
       33685000	      3367	80003710	b1268b13	addi	x22,x13,-1262	 x13:0x479ea000 x22=0x479e9b12
       33695000	      3368	80003714	00000013	addi	x0,x0,0	  x0:0x00000000
       33705000	      3369	80003718	0021f6b3	and	x13,x3,x2	  x3:0x00020d80  x2:0x80009ffe x13=0x00000d80
       33715000	      3370	8000371c	31830a13	addi	x20,x6,792	  x6:0x0000041b x20=0x00000733
       33725000	      3371	80003720	2644e293	ori	x5,x9,612	  x9:0xff2903d8  x5=0xff2903fc
       33735000	      3372	80003724	73dc3893	sltiu	x17,x24,1853	 x24:0xf0f56000 x17=0x00000000
       33745000	      3373	80003728	05b76863	bltu	x14,x27,80003778	 x14:0x00020980 x27:0x00000000
       33755000	      3374	8000372c	01579e93	slli	x29,x15,0x15	 x15:0x00000000 x29=0x00000000
       33765000	      3375	80003730	11541517	auipc	x10,0x11541	 x10=0x9154472c
       33775000	      3376	80003734	016181b3	add	x3,x3,x22	  x3:0x00020d80 x22:0x479e9b12  x3=0x47a0a892
       33785000	      3377	80003738	05565663	bge	x12,x21,80003784	 x12:0x80009fc4 x21:0x00000000
       33795000	      3378	8000373c	00df6663	bltu	x30,x13,80003748	 x30:0xf2903d81 x13:0x00000d80
       33805000	      3379	80003740	036a6063	bltu	x20,x22,80003760	 x20:0x00000733 x22:0x479e9b12
       33815000	      3380	00000000	00000013	addi	x0,x0,0	  x0:0x00000000
       33825000	      3381	8000375c	00000013	addi	x0,x0,0	  x0:0x00000000
       33835000	      3382	80003760	41385db3	sra	x27,x16,x19	 x16:0x00000000 x19:0x0000041b x27=0x00000000
       33845000	      3383	80003764	f75e2893	slti	x17,x28,-139	 x28:0x00000001 x17=0x00000000
       33855000	      3384	80003768	009b53b3	srl	x7,x22,x9	 x22:0x479e9b12  x9:0xff2903d8  x7=0x00000047
       33865000	      3385	8000376c	005e0fb3	add	x31,x28,x5	 x28:0x00000001  x5:0xff2903fc x31=0xff2903fd
       33875000	      3386	80003770	413958b3	sra	x17,x18,x19	 x18:0x80009f10 x19:0x0000041b x17=0xfffffff0
       33885000	      3387	80003774	fea62193	slti	x3,x12,-22	 x12:0x80009fc4  x3=0x00000001
       33895000	      3388	80003778	005b5663	bge	x22,x5,80003784	 x22:0x479e9b12  x5:0xff2903fc
       33905000	      3389	00000000	00000013	addi	x0,x0,0	  x0:0x00000000
       33915000	      3390	80003780	00000013	addi	x0,x0,0	  x0:0x00000000
       33925000	      3391	80003784	237e55b7	lui	x11,0x237e5	 x11=0x237e5000
       33935000	      3392	80003788	0168d8b3	srl	x17,x17,x22	 x17:0xfffffff0 x22:0x479e9b12 x17=0x00003fff
       33945000	      3393	8000378c	01ea0a63	beq	x20,x30,800037a0	 x20:0x00000733 x30:0xf2903d81
       33955000	      3394	80003790	01136663	bltu	x6,x17,8000379c	  x6:0x0000041b x17:0x00003fff
       33965000	      3395	00000000	00000013	addi	x0,x0,0	  x0:0x00000000
       33975000	      3396	80003798	00000013	addi	x0,x0,0	  x0:0x00000000
       33985000	      3397	8000379c	00a74463	blt	x14,x10,800037a4	 x14:0x00020980 x10:0x9154472c
       33995000	      3398	800037a0	00575533	srl	x10,x14,x5	 x14:0x00020980  x5:0xff2903fc x10=0x00000000
       34005000	      3399	800037a4	a0470513	addi	x10,x14,-1532	 x14:0x00020980 x10=0x00020384
       34015000	      3400	800037a8	01daa3b3	slt	x7,x21,x29	 x21:0x00000000 x29:0x00000000  x7=0x00000000
       34025000	      3401	800037ac	d7cc8a17	auipc	x20,0xd7cc8	 x20=0x57ccb7a8
       34035000	      3402	800037b0	01649713	slli	x14,x9,0x16	  x9:0xff2903d8 x14=0xf6000000
       34045000	      3403	800037b4	4036d813	srai	x16,x13,0x3	 x13:0x00000d80 x16=0x000001b0
       34055000	      3404	800037b8	2593fe13	andi	x28,x7,601	  x7:0x00000000 x28=0x00000000
       34065000	      3405	800037bc	0236e263	bltu	x13,x3,800037e0	 x13:0x00000d80  x3:0x00000001
       34075000	      3406	800037c0	028f4863	blt	x30,x8,800037f0	 x30:0xf2903d81  x8:0x00000000
       34085000	      3407	00000000	00000013	addi	x0,x0,0	  x0:0x00000000
       34095000	      3408	800037ec	00000013	addi	x0,x0,0	  x0:0x00000000
       34105000	      3409	800037f0	40088eb3	sub	x29,x17,x0	 x17:0x00003fff  x0:0x00000000 x29=0x00003fff
       34115000	      3410	800037f4	00c881b3	add	x3,x17,x12	 x17:0x00003fff x12:0x80009fc4  x3=0x8000dfc3
       34125000	      3411	800037f8	28e82393	slti	x7,x16,654	 x16:0x000001b0  x7=0x00000001
       34135000	      3412	800037fc	41315e13	srai	x28,x2,0x13	  x2:0x80009ffe x28=0xfffff000
       34145000	      3413	80003800	ec9bb593	sltiu	x11,x23,-311	 x23:0xfffff9e8 x11=0x00000001
       34155000	      3414	80003804	00405d93	srli	x27,x0,0x4	  x0:0x00000000 x27=0x00000000
       34165000	      3415	80003808	004f7c63	bgeu	x30,x4,80003820	 x30:0xf2903d81  x4:0x00000000
       34175000	      3416	00000000	00000013	addi	x0,x0,0	  x0:0x00000000
       34185000	      3417	8000381c	00000013	addi	x0,x0,0	  x0:0x00000000
       34195000	      3418	80003820	406c89b3	sub	x19,x25,x6	 x25:0x408457b8  x6:0x0000041b x19=0x4084539d
       34205000	      3419	80003824	01cad2b3	srl	x5,x21,x28	 x21:0x00000000 x28:0xfffff000  x5=0x00000000
       34215000	      3420	80003828	00005d17	auipc	x26,0x5	 x26=0x80008824
       34225000	      3421	8000382c	4b7d0d13	addi	x26,x26,1207	 x26:0x80008824 x26=0x80008cdb
       34235000	      3422	80003830	f04d0123	sb	x4,-254(x26)	 x26:0x80008cdb  x4:0x00000000 PA:0x80008bdd
       34245000	      3423	80003834	01f051b3	srl	x3,x0,x31	  x0:0x00000000 x31:0xff2903fd  x3=0x00000000
       34255000	      3424	80003838	084d0f23	sb	x4,158(x26)	 x26:0x80008cdb  x4:0x00000000 PA:0x80008d79
       34265000	      3425	8000383c	00143233	sltu	x4,x8,x1	  x8:0x00000000  x1:0x40802000  x4=0x00000001
       34275000	      3426	80003840	0d7d0c83	lb	x25,215(x26)	 x26:0x80008cdb x25=0x00000018 PA:0x80008db2
       34285000	      3427	80003844	f20d0483	lb	x9,-224(x26)	 x26:0x80008cdb  x9=0x0000001a PA:0x80008bfb
       34295000	      3428	00000000	00000013	addi	x0,x0,0	  x0:0x00000000
       34305000	      3429	80003848	06936113	ori	x2,x6,105	  x6:0x0000041b  x2=0x0000047b
       34315000	      3430	8000384c	01826833	or	x16,x4,x24	  x4:0x00000001 x24:0xf0f56000 x16=0xf0f56001
       34325000	      3431	80003850	01545833	srl	x16,x8,x21	  x8:0x00000000 x21:0x00000000 x16=0x00000000
       34335000	      3432	80003854	f20d0303	lb	x6,-224(x26)	 x26:0x80008cdb  x6=0x0000001a PA:0x80008bfb
       34345000	      3433	80003858	41ac06b3	sub	x13,x24,x26	 x24:0xf0f56000 x26:0x80008cdb x13=0x70f4d325
       34355000	      3434	8000385c	00295eb3	srl	x29,x18,x2	 x18:0x80009f10  x2:0x0000047b x29=0x00000010
       34365000	      3435	80003860	00151213	slli	x4,x10,0x1	 x10:0x00020384  x4=0x00040708
       34375000	      3436	80003864	f2fd0da3	sb	x15,-197(x26)	 x26:0x80008cdb x15:0x00000000 PA:0x80008c16
       34385000	      3437	80003868	00a7a533	slt	x10,x15,x10	 x15:0x00000000 x10:0x00020384 x10=0x00000001
       34395000	      3438	8000386c	01a83cb3	sltu	x25,x16,x26	 x16:0x00000000 x26:0x80008cdb x25=0x00000001
       34405000	      3439	80003870	fc7d0503	lb	x10,-57(x26)	 x26:0x80008cdb x10=0xffffffb6 PA:0x80008ca2
       34415000	      3440	80003874	04cd0d83	lb	x27,76(x26)	 x26:0x80008cdb x27=0xffffffe7 PA:0x80008d27
       34425000	      3441	80003878	01d1e2b3	or	x5,x3,x29	  x3:0x00000000 x29:0x00000010  x5=0x00000010
       34435000	      3442	8000387c	fdfd0d83	lb	x27,-33(x26)	 x26:0x80008cdb x27=0x00000018 PA:0x80008cba
       34445000	      3443	00000000	00000013	addi	x0,x0,0	  x0:0x00000000
       34455000	      3444	80003880	b7bd0193	addi	x3,x26,-1157	 x26:0x80008cdb  x3=0x80008856
       34465000	      3445	80003884	00992533	slt	x10,x18,x9	 x18:0x80009f10  x9:0x0000001a x10=0x00000001
       34475000	      3446	80003888	0cfd5483	lhu	x9,207(x26)	 x26:0x80008cdb  x9=0x0000ec1c PA:0x80008daa
       34485000	      3447	8000388c	008fc1b3	xor	x3,x31,x8	 x31:0xff2903fd  x8:0x00000000  x3=0xff2903fd
       34495000	      3448	80003890	f7ed0503	lb	x10,-130(x26)	 x26:0x80008cdb x10=0xffffffc7 PA:0x80008c59
       34505000	      3449	80003894	4a147e13	andi	x28,x8,1185	  x8:0x00000000 x28=0x00000000
       34515000	      3450	80003898	01a1b533	sltu	x10,x3,x26	  x3:0xff2903fd x26:0x80008cdb x10=0x00000000
       34525000	      3451	8000389c	00c13fb3	sltu	x31,x2,x12	  x2:0x0000047b x12:0x80009fc4 x31=0x00000001
       34535000	      3452	800038a0	00949133	sll	x2,x9,x9	  x9:0x0000ec1c  x9:0x0000ec1c  x2=0xc0000000
       34545000	      3453	800038a4	f0dd0a23	sb	x13,-236(x26)	 x26:0x80008cdb x13:0x70f4d325 PA:0x80008bef
       34555000	      3454	800038a8	ab314013	xori	x0,x2,-1357	  x2:0xc0000000
       34565000	      3455	800038ac	f29d1303	lh	x6,-215(x26)	 x26:0x80008cdb  x6=0x00006c3d PA:0x80008c04
       34575000	      3456	800038b0	070d0983	lb	x19,112(x26)	 x26:0x80008cdb x19=0xffffffc2 PA:0x80008d4b
       34585000	      3457	800038b4	f9bd5183	lhu	x3,-101(x26)	 x26:0x80008cdb  x3=0x0000dd59 PA:0x80008c76
       34595000	      3458	800038b8	fd3d5d83	lhu	x27,-45(x26)	 x26:0x80008cdb x27=0x000088a8 PA:0x80008cae
       34605000	      3459	800038bc	0159a6b3	slt	x13,x19,x21	 x19:0xffffffc2 x21:0x00000000 x13=0x00000001
       34615000	      3460	800038c0	0a2d0123	sb	x2,162(x26)	 x26:0x80008cdb  x2:0xc0000000 PA:0x80008d7d
       34625000	      3461	800038c4	fa4d4e03	lbu	x28,-92(x26)	 x26:0x80008cdb x28=0x00000049 PA:0x80008c7f
       34635000	      3462	00000000	00000013	addi	x0,x0,0	  x0:0x00000000
       34645000	      3463	800038c8	01cae3b3	or	x7,x21,x28	 x21:0x00000000 x28:0x00000049  x7=0x00000049
       34655000	      3464	800038cc	0bfd1683	lh	x13,191(x26)	 x26:0x80008cdb x13=0xffff8371 PA:0x80008d9a
       34665000	      3465	800038d0	010d01a3	sb	x16,3(x26)	 x26:0x80008cdb x16:0x00000000 PA:0x80008cde
       34675000	      3466	800038d4	00000013	addi	x0,x0,0	  x0:0x00000000
       34685000	      3467	800038d8	f86d0703	lb	x14,-122(x26)	 x26:0x80008cdb x14=0x00000026 PA:0x80008c61
       34695000	      3468	800038dc	0d6d4383	lbu	x7,214(x26)	 x26:0x80008cdb  x7=0x0000004f PA:0x80008db1
       34705000	      3469	00000000	00000013	addi	x0,x0,0	  x0:0x00000000
       34715000	      3470	800038e0	8b339437	lui	x8,0x8b339	  x8=0x8b339000
       34725000	      3471	800038e4	7d422b13	slti	x22,x4,2004	  x4:0x00040708 x22=0x00000000
       34735000	      3472	800038e8	00e786b3	add	x13,x15,x14	 x15:0x00000000 x14:0x00000026 x13=0x00000026
       34745000	      3473	800038ec	00462833	slt	x16,x12,x4	 x12:0x80009fc4  x4:0x00040708 x16=0x00000001
       34755000	      3474	800038f0	25e94e13	xori	x28,x18,606	 x18:0x80009f10 x28=0x80009d4e
       34765000	      3475	800038f4	036d0583	lb	x11,54(x26)	 x26:0x80008cdb x11=0xffffffd8 PA:0x80008d11
       34775000	      3476	800038f8	03dd0523	sb	x29,42(x26)	 x26:0x80008cdb x29:0x00000010 PA:0x80008d05
       34785000	      3477	800038fc	05ef6863	bltu	x30,x30,8000394c	 x30:0xf2903d81 x30:0xf2903d81
       34795000	      3478	80003900	03109063	bne	x1,x17,80003920	  x1:0x40802000 x17:0x00003fff
       34805000	      3479	00000000	00000013	addi	x0,x0,0	  x0:0x00000000
       34815000	      3480	8000391c	00000013	addi	x0,x0,0	  x0:0x00000000
       34825000	      3481	80003920	01385b93	srli	x23,x16,0x13	 x16:0x00000001 x23=0x00000000
       34835000	      3482	80003924	400cd413	srai	x8,x25,0x0	 x25:0x00000001  x8=0x00000001
       34845000	      3483	80003928	40a15593	srai	x11,x2,0xa	  x2:0xc0000000 x11=0xfff00000
       34855000	      3484	8000392c	0022dd13	srli	x26,x5,0x2	  x5:0x00000010 x26=0x00000004
       34865000	      3485	80003930	40560ab3	sub	x21,x12,x5	 x12:0x80009fc4  x5:0x00000010 x21=0x80009fb4
       34875000	      3486	80003934	015d8663	beq	x27,x21,80003940	 x27:0x000088a8 x21:0x80009fb4
       34885000	      3487	80003938	01145393	srli	x7,x8,0x11	  x8:0x00000001  x7=0x00000000
       34895000	      3488	8000393c	48d49217	auipc	x4,0x48d49	  x4=0xc8d4c938
       34905000	      3489	80003940	00000013	addi	x0,x0,0	  x0:0x00000000
       34915000	      3490	80003944	00385b33	srl	x22,x16,x3	 x16:0x00000001  x3:0x0000dd59 x22=0x00000000
       34925000	      3491	80003948	01664db3	xor	x27,x12,x22	 x12:0x80009fc4 x22:0x00000000 x27=0x80009fc4
       34935000	      3492	8000394c	01e24a63	blt	x4,x30,80003960	  x4:0xc8d4c938 x30:0xf2903d81
       34945000	      3493	00000000	00000013	addi	x0,x0,0	  x0:0x00000000
       34955000	      3494	8000395c	00000013	addi	x0,x0,0	  x0:0x00000000
       34965000	      3495	80003960	03094c63	blt	x18,x16,80003998	 x18:0x80009f10 x16:0x00000001
       34975000	      3496	00000000	00000013	addi	x0,x0,0	  x0:0x00000000
       34985000	      3497	80003994	00000013	addi	x0,x0,0	  x0:0x00000000
       34995000	      3498	80003998	01b1fa63	bgeu	x3,x27,800039ac	  x3:0x0000dd59 x27:0x80009fc4
       35005000	      3499	8000399c	425e6993	ori	x19,x28,1061	 x28:0x80009d4e x19=0x80009d6f
       35015000	      3500	800039a0	40eedf93	srai	x31,x29,0xe	 x29:0x00000010 x31=0x00000000
       35025000	      3501	800039a4	c07ab317	auipc	x6,0xc07ab	  x6=0x407ae9a0
       35035000	      3502	800039a8	00006833	or	x16,x0,x0	  x0:0x00000000  x0:0x00000000 x16=0x00000000
       35045000	      3503	800039ac	00000013	addi	x0,x0,0	  x0:0x00000000
       35055000	      3504	800039b0	41e48fb3	sub	x31,x9,x30	  x9:0x0000ec1c x30:0xf2903d81 x31=0x0d70ae9b
       35065000	      3505	800039b4	40af85b3	sub	x11,x31,x10	 x31:0x0d70ae9b x10:0x00000000 x11=0x0d70ae9b
       35075000	      3506	800039b8	1038af97	auipc	x31,0x1038a	 x31=0x9038d9b4
       35085000	      3507	800039bc	01294133	xor	x2,x18,x18	 x18:0x80009f10 x18:0x80009f10  x2=0x00000000
       35095000	      3508	800039c0	03e24063	blt	x4,x30,800039e0	  x4:0xc8d4c938 x30:0xf2903d81
       35105000	      3509	00000000	00000013	addi	x0,x0,0	  x0:0x00000000
       35115000	      3510	800039dc	00000013	addi	x0,x0,0	  x0:0x00000000
       35125000	      3511	800039e0	408c53b3	sra	x7,x24,x8	 x24:0xf0f56000  x8:0x00000001  x7=0xf87ab000
       35135000	      3512	800039e4	02c9f663	bgeu	x19,x12,80003a10	 x19:0x80009d6f x12:0x80009fc4
       35145000	      3513	800039e8	00165cb3	srl	x25,x12,x1	 x12:0x80009fc4  x1:0x40802000 x25=0x80009fc4
       35155000	      3514	800039ec	016097b3	sll	x15,x1,x22	  x1:0x40802000 x22:0x00000000 x15=0x40802000
       35165000	      3515	800039f0	01813eb3	sltu	x29,x2,x24	  x2:0x00000000 x24:0xf0f56000 x29=0x00000001
       35175000	      3516	800039f4	010ef7b3	and	x15,x29,x16	 x29:0x00000001 x16:0x00000000 x15=0x00000000
       35185000	      3517	800039f8	8e188b13	addi	x22,x17,-1823	 x17:0x00003fff x22=0x000038e0
       35195000	      3518	800039fc	41308b33	sub	x22,x1,x19	  x1:0x40802000 x19:0x80009d6f x22=0xc07f8291
       35205000	      3519	80003a00	00000013	addi	x0,x0,0	  x0:0x00000000
       35215000	      3520	80003a04	03a0fe63	bgeu	x1,x26,80003a40	  x1:0x40802000 x26:0x00000004
       35225000	      3521	00000000	00000013	addi	x0,x0,0	  x0:0x00000000
       35235000	      3522	80003a3c	00000013	addi	x0,x0,0	  x0:0x00000000
       35245000	      3523	80003a40	415057b3	sra	x15,x0,x21	  x0:0x00000000 x21:0x80009fb4 x15=0x00000000
       35255000	      3524	80003a44	03611063	bne	x2,x22,80003a64	  x2:0x00000000 x22:0xc07f8291
       35265000	      3525	00000000	00000013	addi	x0,x0,0	  x0:0x00000000
       35275000	      3526	80003a60	00000013	addi	x0,x0,0	  x0:0x00000000
       35285000	      3527	80003a64	40ea8e33	sub	x28,x21,x14	 x21:0x80009fb4 x14:0x00000026 x28=0x80009f8e
       35295000	      3528	80003a68	7163c593	xori	x11,x7,1814	  x7:0xf87ab000 x11=0xf87ab716
       35305000	      3529	80003a6c	01cfc9b3	xor	x19,x31,x28	 x31:0x9038d9b4 x28:0x80009f8e x19=0x1038463a
       35315000	      3530	80003a70	0023a1b3	slt	x3,x7,x2	  x7:0xf87ab000  x2:0x00000000  x3=0x00000001
       35325000	      3531	80003a74	02b31263	bne	x6,x11,80003a98	  x6:0x407ae9a0 x11:0xf87ab716
       35335000	      3532	00000000	00000013	addi	x0,x0,0	  x0:0x00000000
       35345000	      3533	80003a94	00000013	addi	x0,x0,0	  x0:0x00000000
       35355000	      3534	80003a98	cd14be13	sltiu	x28,x9,-815	  x9:0x0000ec1c x28=0x00000001
       35365000	      3535	80003a9c	026d1663	bne	x26,x6,80003ac8	 x26:0x00000004  x6:0x407ae9a0
       35375000	      3536	00000000	00000013	addi	x0,x0,0	  x0:0x00000000
       35385000	      3537	80003ac4	00000013	addi	x0,x0,0	  x0:0x00000000
       35395000	      3538	80003ac8	41b85093	srai	x1,x16,0x1b	 x16:0x00000000  x1=0x00000000
       35405000	      3539	80003acc	a16c2b93	slti	x23,x24,-1514	 x24:0xf0f56000 x23=0x00000001
       35415000	      3540	80003ad0	4156dd33	sra	x26,x13,x21	 x13:0x00000026 x21:0x80009fb4 x26=0x00000000
       35425000	      3541	80003ad4	00420193	addi	x3,x4,4	  x4:0xc8d4c938  x3=0xc8d4c93c
       35435000	      3542	80003ad8	41f20ab3	sub	x21,x4,x31	  x4:0xc8d4c938 x31:0x9038d9b4 x21=0x389bef84
       35445000	      3543	80003adc	404bd893	srai	x17,x23,0x4	 x23:0x00000001 x17=0x00000000
       35455000	      3544	80003ae0	31204a13	xori	x20,x0,786	  x0:0x00000000 x20=0x00000312
       35465000	      3545	80003ae4	66ab8a93	addi	x21,x23,1642	 x23:0x00000001 x21=0x0000066b
       35475000	      3546	80003ae8	25db0c93	addi	x25,x22,605	 x22:0xc07f8291 x25=0xc07f84ee
       35485000	      3547	80003aec	a5dcf513	andi	x10,x25,-1443	 x25:0xc07f84ee x10=0xc07f804c
       35495000	      3548	80003af0	01c8e9b3	or	x19,x17,x28	 x17:0x00000000 x28:0x00000001 x19=0x00000001
       35505000	      3549	80003af4	008bac33	slt	x24,x23,x8	 x23:0x00000001  x8:0x00000001 x24=0x00000000
       35515000	      3550	80003af8	00bb66b3	or	x13,x22,x11	 x22:0xc07f8291 x11:0xf87ab716 x13=0xf87fb797
       35525000	      3551	80003afc	01be2533	slt	x10,x28,x27	 x28:0x00000001 x27:0x80009fc4 x10=0x00000000
       35535000	      3552	80003b00	415ddd33	sra	x26,x27,x21	 x27:0x80009fc4 x21:0x0000066b x26=0xfff00013
       35545000	      3553	80003b04	41c55db3	sra	x27,x10,x28	 x10:0x00000000 x28:0x00000001 x27=0x00000000
       35555000	      3554	80003b08	01c467b3	or	x15,x8,x28	  x8:0x00000001 x28:0x00000001 x15=0x00000001
       35565000	      3555	80003b0c	01c05d33	srl	x26,x0,x28	  x0:0x00000000 x28:0x00000001 x26=0x00000000
       35575000	      3556	80003b10	019446b3	xor	x13,x8,x25	  x8:0x00000001 x25:0xc07f84ee x13=0xc07f84ef
       35585000	      3557	80003b14	415ad413	srai	x8,x21,0x15	 x21:0x0000066b  x8=0x00000000
       35595000	      3558	80003b18	01b55313	srli	x6,x10,0x1b	 x10:0x00000000  x6=0x00000000
       35605000	      3559	80003b1c	40210833	sub	x16,x2,x2	  x2:0x00000000  x2:0x00000000 x16=0x00000000
       35615000	      3560	80003b20	a600b513	sltiu	x10,x1,-1440	  x1:0x00000000 x10=0x00000001
       35625000	      3561	80003b24	00000013	addi	x0,x0,0	  x0:0x00000000
       35635000	      3562	80003b28	865fb013	sltiu	x0,x31,-1947	 x31:0x9038d9b4
       35645000	      3563	80003b2c	6d44b497	auipc	x9,0x6d44b	  x9=0xed44eb28
       35655000	      3564	80003b30	01ce9ab3	sll	x21,x29,x28	 x29:0x00000001 x28:0x00000001 x21=0x00000002
       35665000	      3565	80003b34	017a9793	slli	x15,x21,0x17	 x21:0x00000002 x15=0x01000000
       35675000	      3566	80003b38	016defb3	or	x31,x27,x22	 x27:0x00000000 x22:0xc07f8291 x31=0xc07f8291
       35685000	      3567	80003b3c	6f247b93	andi	x23,x8,1778	  x8:0x00000000 x23=0x00000000
       35695000	      3568	80003b40	013bec63	bltu	x23,x19,80003b58	 x23:0x00000000 x19:0x00000001
       35705000	      3569	00000000	00000013	addi	x0,x0,0	  x0:0x00000000
       35715000	      3570	80003b54	00000013	addi	x0,x0,0	  x0:0x00000000
       35725000	      3571	80003b58	02b5f263	bgeu	x11,x11,80003b7c	 x11:0xf87ab716 x11:0xf87ab716
       35735000	      3572	00000000	00000013	addi	x0,x0,0	  x0:0x00000000
       35745000	      3573	80003b78	00000013	addi	x0,x0,0	  x0:0x00000000
       35755000	      3574	80003b7c	4dcb7417	auipc	x8,0x4dcb7	  x8=0xcdcbab78
       35765000	      3575	80003b80	404ad1b3	sra	x3,x21,x4	 x21:0x00000002  x4:0xc8d4c938  x3=0x00000000
       35775000	      3576	80003b84	00bda033	slt	x0,x27,x11	 x27:0x00000000 x11:0xf87ab716
       35785000	      3577	80003b88	b741a393	slti	x7,x3,-1164	  x3:0x00000000  x7=0x00000000
       35795000	      3578	80003b8c	0202c263	blt	x5,x0,80003bb0	  x5:0x00000010  x0:0x00000000
       35805000	      3579	80003b90	00155d13	srli	x26,x10,0x1	 x10:0x00000001 x26=0x00000000
       35815000	      3580	80003b94	0327c063	blt	x15,x18,80003bb4	 x15:0x01000000 x18:0x80009f10
       35825000	      3581	80003b98	40c0d693	srai	x13,x1,0xc	  x1:0x00000000 x13=0x00000000
       35835000	      3582	80003b9c	00319013	slli	x0,x3,0x3	  x3:0x00000000
       35845000	      3583	80003ba0	291af313	andi	x6,x21,657	 x21:0x00000002  x6=0x00000000
       35855000	      3584	80003ba4	02ef1e63	bne	x30,x14,80003be0	 x30:0xf2903d81 x14:0x00000026
       35865000	      3585	00000000	00000013	addi	x0,x0,0	  x0:0x00000000
       35875000	      3586	80003bdc	00000013	addi	x0,x0,0	  x0:0x00000000
       35885000	      3587	80003be0	01c99113	slli	x2,x19,0x1c	 x19:0x00000001  x2=0x10000000
       35895000	      3588	80003be4	011a6d33	or	x26,x20,x17	 x20:0x00000312 x17:0x00000000 x26=0x00000312
       35905000	      3589	80003be8	03411263	bne	x2,x20,80003c0c	  x2:0x10000000 x20:0x00000312
       35915000	      3590	00000000	00000013	addi	x0,x0,0	  x0:0x00000000
       35925000	      3591	80003c08	00000013	addi	x0,x0,0	  x0:0x00000000
       35935000	      3592	80003c0c	03901063	bne	x0,x25,80003c2c	  x0:0x00000000 x25:0xc07f84ee
       35945000	      3593	00000000	00000013	addi	x0,x0,0	  x0:0x00000000
       35955000	      3594	80003c28	00000013	addi	x0,x0,0	  x0:0x00000000
       35965000	      3595	80003c2c	012b1ab3	sll	x21,x22,x18	 x22:0xc07f8291 x18:0x80009f10 x21=0x82910000
       35975000	      3596	80003c30	1ca42213	slti	x4,x8,458	  x8:0xcdcbab78  x4=0x00000001
       35985000	      3597	80003c34	41a68a33	sub	x20,x13,x26	 x13:0x00000000 x26:0x00000312 x20=0xfffffcee
       35995000	      3598	80003c38	41f6d2b3	sra	x5,x13,x31	 x13:0x00000000 x31:0xc07f8291  x5=0x00000000
       36005000	      3599	80003c3c	005deeb3	or	x29,x27,x5	 x27:0x00000000  x5:0x00000000 x29=0x00000000
       36015000	      3600	80003c40	00721b93	slli	x23,x4,0x7	  x4:0x00000001 x23=0x00000080
       36025000	      3601	80003c44	01eb0433	add	x8,x22,x30	 x22:0xc07f8291 x30:0xf2903d81  x8=0xb30fc012
       36035000	      3602	80003c48	00fdc463	blt	x27,x15,80003c50	 x27:0x00000000 x15:0x01000000
       36045000	      3603	00000000	00000013	addi	x0,x0,0	  x0:0x00000000
       36055000	      3604	80003c4c	00000013	addi	x0,x0,0	  x0:0x00000000
       36065000	      3605	80003c50	04b68663	beq	x13,x11,80003c9c	 x13:0x00000000 x11:0xf87ab716
       36075000	      3606	80003c54	ee5a8193	addi	x3,x21,-283	 x21:0x82910000  x3=0x8290fee5
       36085000	      3607	80003c58	40240bb3	sub	x23,x8,x2	  x8:0xb30fc012  x2:0x10000000 x23=0xa30fc012
       36095000	      3608	80003c5c	01c56a33	or	x20,x10,x28	 x10:0x00000001 x28:0x00000001 x20=0x00000001
       36105000	      3609	80003c60	ab6fc713	xori	x14,x31,-1354	 x31:0xc07f8291 x14=0x3f807827
       36115000	      3610	80003c64	3e4c4793	xori	x15,x24,996	 x24:0x00000000 x15=0x000003e4
       36125000	      3611	80003c68	b31b3c93	sltiu	x25,x22,-1231	 x22:0xc07f8291 x25=0x00000001
       36135000	      3612	80003c6c	01ab4033	xor	x0,x22,x26	 x22:0xc07f8291 x26:0x00000312
       36145000	      3613	80003c70	00c899b3	sll	x19,x17,x12	 x17:0x00000000 x12:0x80009fc4 x19=0x00000000
       36155000	      3614	80003c74	c0a8f513	andi	x10,x17,-1014	 x17:0x00000000 x10=0x00000000
       36165000	      3615	80003c78	001cb733	sltu	x14,x25,x1	 x25:0x00000001  x1:0x00000000 x14=0x00000000
       36175000	      3616	80003c7c	04d3f663	bgeu	x7,x13,80003cc8	  x7:0x00000000 x13:0x00000000
       36185000	      3617	00000000	00000013	addi	x0,x0,0	  x0:0x00000000
       36195000	      3618	80003cc4	00000013	addi	x0,x0,0	  x0:0x00000000
       36205000	      3619	80003cc8	0150f263	bgeu	x1,x21,80003ccc	  x1:0x00000000 x21:0x82910000
       36215000	      3620	80003ccc	01b447b3	xor	x15,x8,x27	  x8:0xb30fc012 x27:0x00000000 x15=0xb30fc012
       36225000	      3621	80003cd0	00b16833	or	x16,x2,x11	  x2:0x10000000 x11:0xf87ab716 x16=0xf87ab716
       36235000	      3622	80003cd4	00000013	addi	x0,x0,0	  x0:0x00000000
       36245000	      3623	80003cd8	019431b3	sltu	x3,x8,x25	  x8:0xb30fc012 x25:0x00000001  x3=0x00000000
       36255000	      3624	80003cdc	75cb8b17	auipc	x22,0x75cb8	 x22=0xf5cbbcd8
       36265000	      3625	80003ce0	01876d33	or	x26,x14,x24	 x14:0x00000000 x24:0x00000000 x26=0x00000000
       36275000	      3626	80003ce4	861c8ab7	lui	x21,0x861c8	 x21=0x861c8000
       36285000	      3627	80003ce8	2973ef93	ori	x31,x7,663	  x7:0x00000000 x31=0x00000297
       36295000	      3628	80003cec	03aa0263	beq	x20,x26,80003d10	 x20:0x00000001 x26:0x00000000
       36305000	      3629	80003cf0	01b431b3	sltu	x3,x8,x27	  x8:0xb30fc012 x27:0x00000000  x3=0x00000000
       36315000	      3630	80003cf4	73f88e93	addi	x29,x17,1855	 x17:0x00000000 x29=0x0000073f
       36325000	      3631	80003cf8	009d3bb3	sltu	x23,x26,x9	 x26:0x00000000  x9:0xed44eb28 x23=0x00000001
       36335000	      3632	80003cfc	00550663	beq	x10,x5,80003d08	 x10:0x00000000  x5:0x00000000
       36345000	      3633	00000000	00000013	addi	x0,x0,0	  x0:0x00000000
       36355000	      3634	80003d04	00000013	addi	x0,x0,0	  x0:0x00000000
       36365000	      3635	80003d08	0044e7b3	or	x15,x9,x4	  x9:0xed44eb28  x4:0x00000001 x15=0xed44eb29
       36375000	      3636	80003d0c	23344013	xori	x0,x8,563	  x8:0xb30fc012
       36385000	      3637	80003d10	01d6ea63	bltu	x13,x29,80003d24	 x13:0x00000000 x29:0x0000073f
       36395000	      3638	00000000	00000013	addi	x0,x0,0	  x0:0x00000000
       36405000	      3639	80003d20	00000013	addi	x0,x0,0	  x0:0x00000000
       36415000	      3640	80003d24	02979063	bne	x15,x9,80003d44	 x15:0xed44eb29  x9:0xed44eb28
       36425000	      3641	00000000	00000013	addi	x0,x0,0	  x0:0x00000000
       36435000	      3642	80003d40	00000013	addi	x0,x0,0	  x0:0x00000000
       36445000	      3643	80003d44	01398db3	add	x27,x19,x19	 x19:0x00000000 x19:0x00000000 x27=0x00000000
       36455000	      3644	80003d48	015b06b3	add	x13,x22,x21	 x22:0xf5cbbcd8 x21:0x861c8000 x13=0x7be83cd8
       36465000	      3645	80003d4c	2c4aa813	slti	x16,x21,708	 x21:0x861c8000 x16=0x00000001
       36475000	      3646	80003d50	00df88b3	add	x17,x31,x13	 x31:0x00000297 x13:0x7be83cd8 x17=0x7be83f6f
       36485000	      3647	80003d54	41605b33	sra	x22,x0,x22	  x0:0x00000000 x22:0xf5cbbcd8 x22=0x00000000
       36495000	      3648	80003d58	539f3b13	sltiu	x22,x30,1337	 x30:0xf2903d81 x22=0x00000000
       36505000	      3649	80003d5c	00000013	addi	x0,x0,0	  x0:0x00000000
       36515000	      3650	80003d60	1ee5f213	andi	x4,x11,494	 x11:0xf87ab716  x4=0x00000106
       36525000	      3651	80003d64	024d5863	bge	x26,x4,80003d94	 x26:0x00000000  x4:0x00000106
       36535000	      3652	80003d68	00e2b1b3	sltu	x3,x5,x14	  x5:0x00000000 x14:0x00000000  x3=0x00000000
       36545000	      3653	80003d6c	41b45a33	sra	x20,x8,x27	  x8:0xb30fc012 x27:0x00000000 x20=0xb30fc012
       36555000	      3654	80003d70	c41b0c93	addi	x25,x22,-959	 x22:0x00000000 x25=0xfffffc41
       36565000	      3655	80003d74	02af7663	bgeu	x30,x10,80003da0	 x30:0xf2903d81 x10:0x00000000
       36575000	      3656	00000000	00000013	addi	x0,x0,0	  x0:0x00000000
       36585000	      3657	80003d9c	00000013	addi	x0,x0,0	  x0:0x00000000
       36595000	      3658	80003da0	01246663	bltu	x8,x18,80003dac	  x8:0xb30fc012 x18:0x80009f10
       36605000	      3659	80003da4	000734b3	sltu	x9,x14,x0	 x14:0x00000000  x0:0x00000000  x9=0x00000000
       36615000	      3660	80003da8	a9ec7513	andi	x10,x24,-1378	 x24:0x00000000 x10=0x00000000
       36625000	      3661	80003dac	b3be8993	addi	x19,x29,-1221	 x29:0x0000073f x19=0x0000027a
       36635000	      3662	80003db0	41435a93	srai	x21,x6,0x14	  x6:0x00000000 x21=0x00000000
       36645000	      3663	80003db4	01b90663	beq	x18,x27,80003dc0	 x18:0x80009f10 x27:0x00000000
       36655000	      3664	80003db8	1233f513	andi	x10,x7,291	  x7:0x00000000 x10=0x00000000
       36665000	      3665	80003dbc	01b25033	srl	x0,x4,x27	  x4:0x00000106 x27:0x00000000
       36675000	      3666	80003dc0	016d18b3	sll	x17,x26,x22	 x26:0x00000000 x22:0x00000000 x17=0x00000000
       36685000	      3667	80003dc4	01773033	sltu	x0,x14,x23	 x14:0x00000000 x23:0x00000001
       36695000	      3668	80003dc8	386c7b13	andi	x22,x24,902	 x24:0x00000000 x22=0x00000000
       36705000	      3669	80003dcc	4b6cc897	auipc	x17,0x4b6cc	 x17=0xcb6cfdc8
       36715000	      3670	80003dd0	019e5a63	bge	x28,x25,80003de4	 x28:0x00000001 x25:0xfffffc41
       36725000	      3671	00000000	00000013	addi	x0,x0,0	  x0:0x00000000
       36735000	      3672	80003de0	00000013	addi	x0,x0,0	  x0:0x00000000
       36745000	      3673	80003de4	016404b3	add	x9,x8,x22	  x8:0xb30fc012 x22:0x00000000  x9=0xb30fc012
       36755000	      3674	80003de8	ad0a8313	addi	x6,x21,-1328	 x21:0x00000000  x6=0xfffffad0
       36765000	      3675	80003dec	01d93a33	sltu	x20,x18,x29	 x18:0x80009f10 x29:0x0000073f x20=0x00000000
       36775000	      3676	80003df0	410309b3	sub	x19,x6,x16	  x6:0xfffffad0 x16:0x00000001 x19=0xfffffacf
       36785000	      3677	80003df4	9ce40213	addi	x4,x8,-1586	  x8:0xb30fc012  x4=0xb30fb9e0
       36795000	      3678	80003df8	873c2b13	slti	x22,x24,-1933	 x24:0x00000000 x22=0x00000000
       36805000	      3679	80003dfc	41280433	sub	x8,x16,x18	 x16:0x00000001 x18:0x80009f10  x8=0x7fff60f1
       36815000	      3680	80003e00	01a00333	add	x6,x0,x26	  x0:0x00000000 x26:0x00000000  x6=0x00000000
       36825000	      3681	80003e04	01b836b3	sltu	x13,x16,x27	 x16:0x00000001 x27:0x00000000 x13=0x00000000
       36835000	      3682	80003e08	5b0ff217	auipc	x4,0x5b0ff	  x4=0xdb102e04
       36845000	      3683	80003e0c	a6a33db7	lui	x27,0xa6a33	 x27=0xa6a33000
       36855000	      3684	80003e10	0109d663	bge	x19,x16,80003e1c	 x19:0xfffffacf x16:0x00000001
       36865000	      3685	80003e14	01053b33	sltu	x22,x10,x16	 x10:0x00000000 x16:0x00000001 x22=0x00000001
       36875000	      3686	80003e18	013d91b3	sll	x3,x27,x19	 x27:0xa6a33000 x19:0xfffffacf  x3=0x98000000
       36885000	      3687	80003e1c	02ec8263	beq	x25,x14,80003e40	 x25:0xfffffc41 x14:0x00000000
       36895000	      3688	80003e20	1102cf93	xori	x31,x5,272	  x5:0x00000000 x31=0x00000110
       36905000	      3689	80003e24	406bdeb3	sra	x29,x23,x6	 x23:0x00000001  x6:0x00000000 x29=0x00000001
       36915000	      3690	80003e28	01a91fb3	sll	x31,x18,x26	 x18:0x80009f10 x26:0x00000000 x31=0x80009f10
       36925000	      3691	80003e2c	02169e63	bne	x13,x1,80003e68	 x13:0x00000000  x1:0x00000000
       36935000	      3692	80003e30	018982b3	add	x5,x19,x24	 x19:0xfffffacf x24:0x00000000  x5=0xfffffacf
       36945000	      3693	80003e34	4106dab3	sra	x21,x13,x16	 x13:0x00000000 x16:0x00000001 x21=0x00000000
       36955000	      3694	80003e38	01eb9663	bne	x23,x30,80003e44	 x23:0x00000001 x30:0xf2903d81
       36965000	      3695	00000000	00000013	addi	x0,x0,0	  x0:0x00000000
       36975000	      3696	80003e40	00000013	addi	x0,x0,0	  x0:0x00000000
       36985000	      3697	80003e44	03dc9063	bne	x25,x29,80003e64	 x25:0xfffffc41 x29:0x00000001
       36995000	      3698	00000000	00000013	addi	x0,x0,0	  x0:0x00000000
       37005000	      3699	80003e60	00000013	addi	x0,x0,0	  x0:0x00000000
       37015000	      3700	80003e64	007b30b3	sltu	x1,x22,x7	 x22:0x00000001  x7:0x00000000  x1=0x00000000
       37025000	      3701	80003e68	01445a13	srli	x20,x8,0x14	  x8:0x7fff60f1 x20=0x000007ff
       37035000	      3702	80003e6c	33c07f93	andi	x31,x0,828	  x0:0x00000000 x31=0x00000000
       37045000	      3703	80003e70	78d707b7	lui	x15,0x78d70	 x15=0x78d70000
       37055000	      3704	80003e74	ccd40fb7	lui	x31,0xccd40	 x31=0xccd40000
       37065000	      3705	80003e78	4118dfb3	sra	x31,x17,x17	 x17:0xcb6cfdc8 x17:0xcb6cfdc8 x31=0xffcb6cfd
       37075000	      3706	80003e7c	002f5c13	srli	x24,x30,0x2	 x30:0xf2903d81 x24=0x3ca40f60
       37085000	      3707	80003e80	00a01c63	bne	x0,x10,80003e98	  x0:0x00000000 x10:0x00000000
       37095000	      3708	80003e84	03d99c63	bne	x19,x29,80003ebc	 x19:0xfffffacf x29:0x00000001
       37105000	      3709	00000000	00000013	addi	x0,x0,0	  x0:0x00000000
       37115000	      3710	80003eb8	00000013	addi	x0,x0,0	  x0:0x00000000
       37125000	      3711	80003ebc	05e6f663	bgeu	x13,x30,80003f08	 x13:0x00000000 x30:0xf2903d81
       37135000	      3712	80003ec0	00000013	addi	x0,x0,0	  x0:0x00000000
       37145000	      3713	80003ec4	0016b9b3	sltu	x19,x13,x1	 x13:0x00000000  x1:0x00000000 x19=0x00000000
       37155000	      3714	80003ec8	bc1c7d93	andi	x27,x24,-1087	 x24:0x3ca40f60 x27=0x3ca40b40
       37165000	      3715	80003ecc	001bf033	and	x0,x23,x1	 x23:0x00000001  x1:0x00000000
       37175000	      3716	80003ed0	01d3e463	bltu	x7,x29,80003ed8	  x7:0x00000000 x29:0x00000001
       37185000	      3717	00000000	00000013	addi	x0,x0,0	  x0:0x00000000
       37195000	      3718	80003ed4	00000013	addi	x0,x0,0	  x0:0x00000000
       37205000	      3719	80003ed8	1c74d837	lui	x16,0x1c74d	 x16=0x1c74d000
       37215000	      3720	80003edc	e7d60a17	auipc	x20,0xe7d60	 x20=0x67d63ed8
       37225000	      3721	80003ee0	411f5bb3	sra	x23,x30,x17	 x30:0xf2903d81 x17:0xcb6cfdc8 x23=0xfff2903d
       37235000	      3722	80003ee4	02496263	bltu	x18,x4,80003f08	 x18:0x80009f10  x4:0xdb102e04
       37245000	      3723	00000000	00000013	addi	x0,x0,0	  x0:0x00000000
       37255000	      3724	80003f04	00000013	addi	x0,x0,0	  x0:0x00000000
       37265000	      3725	80003f08	00b4e833	or	x16,x9,x11	  x9:0xb30fc012 x11:0xf87ab716 x16=0xfb7ff716
       37275000	      3726	80003f0c	008856b3	srl	x13,x16,x8	 x16:0xfb7ff716  x8:0x7fff60f1 x13=0x00007dbf
       37285000	      3727	80003f10	e81b9db7	lui	x27,0xe81b9	 x27=0xe81b9000
       37295000	      3728	80003f14	02ed9863	bne	x27,x14,80003f44	 x27:0xe81b9000 x14:0x00000000
       37305000	      3729	00000000	00000013	addi	x0,x0,0	  x0:0x00000000
       37315000	      3730	80003f40	00000013	addi	x0,x0,0	  x0:0x00000000
       37325000	      3731	80003f44	9e2cf713	andi	x14,x25,-1566	 x25:0xfffffc41 x14=0xfffff840
       37335000	      3732	80003f48	675fb113	sltiu	x2,x31,1653	 x31:0xffcb6cfd  x2=0x00000000
       37345000	      3733	80003f4c	0151f1b3	and	x3,x3,x21	  x3:0x98000000 x21:0x00000000  x3=0x00000000
       37355000	      3734	80003f50	00438ab3	add	x21,x7,x4	  x7:0x00000000  x4:0xdb102e04 x21=0xdb102e04
       37365000	      3735	80003f54	0062fa63	bgeu	x5,x6,80003f68	  x5:0xfffffacf  x6:0x00000000
       37375000	      3736	00000000	00000013	addi	x0,x0,0	  x0:0x00000000
       37385000	      3737	80003f64	00000013	addi	x0,x0,0	  x0:0x00000000
       37395000	      3738	80003f68	0167d513	srli	x10,x15,0x16	 x15:0x78d70000 x10=0x000001e3
       37405000	      3739	80003f6c	03c38663	beq	x7,x28,80003f98	  x7:0x00000000 x28:0x00000001
       37415000	      3740	80003f70	00000013	addi	x0,x0,0	  x0:0x00000000
       37425000	      3741	80003f74	40d95413	srai	x8,x18,0xd	 x18:0x80009f10  x8=0xfffc0004
       37435000	      3742	80003f78	00000013	addi	x0,x0,0	  x0:0x00000000
       37445000	      3743	80003f7c	03c67063	bgeu	x12,x28,80003f9c	 x12:0x80009fc4 x28:0x00000001
       37455000	      3744	00000000	00000013	addi	x0,x0,0	  x0:0x00000000
       37465000	      3745	80003f98	00000013	addi	x0,x0,0	  x0:0x00000000
       37475000	      3746	80003f9c	003ca7b7	lui	x15,0x3ca	 x15=0x003ca000
       37485000	      3747	80003fa0	02430e63	beq	x6,x4,80003fdc	  x6:0x00000000  x4:0xdb102e04
       37495000	      3748	80003fa4	46a13293	sltiu	x5,x2,1130	  x2:0x00000000  x5=0x00000001
       37505000	      3749	80003fa8	47904b93	xori	x23,x0,1145	  x0:0x00000000 x23=0x00000479
       37515000	      3750	80003fac	01ed6033	or	x0,x26,x30	 x26:0x00000000 x30:0xf2903d81
       37525000	      3751	80003fb0	1c252213	slti	x4,x10,450	 x10:0x000001e3  x4=0x00000000
       37535000	      3752	80003fb4	00805bb3	srl	x23,x0,x8	  x0:0x00000000  x8:0xfffc0004 x23=0x00000000
       37545000	      3753	80003fb8	52aa4eb7	lui	x29,0x52aa4	 x29=0x52aa4000
       37555000	      3754	80003fbc	401b5413	srai	x8,x22,0x1	 x22:0x00000001  x8=0x00000000
       37565000	      3755	80003fc0	00c8c233	xor	x4,x17,x12	 x17:0xcb6cfdc8 x12:0x80009fc4  x4=0x4b6c620c
       37575000	      3756	80003fc4	01362cb3	slt	x25,x12,x19	 x12:0x80009fc4 x19:0x00000000 x25=0x00000001
       37585000	      3757	80003fc8	03194063	blt	x18,x17,80003fe8	 x18:0x80009f10 x17:0xcb6cfdc8
       37595000	      3758	00000000	00000013	addi	x0,x0,0	  x0:0x00000000
       37605000	      3759	80003fe4	00000013	addi	x0,x0,0	  x0:0x00000000
       37615000	      3760	80003fe8	0000f663	bgeu	x1,x0,80003ff4	  x1:0x00000000  x0:0x00000000
       37625000	      3761	00000000	00000013	addi	x0,x0,0	  x0:0x00000000
       37635000	      3762	80003ff0	00000013	addi	x0,x0,0	  x0:0x00000000
       37645000	      3763	80003ff4	77805697	auipc	x13,0x77805	 x13=0xf7808ff0
       37655000	      3764	80003ff8	4155d293	srai	x5,x11,0x15	 x11:0xf87ab716  x5=0xffffffc3
       37665000	      3765	80003ffc	f0680d37	lui	x26,0xf0680	 x26=0xf0680000
       37675000	      3766	80004000	01ec0c63	beq	x24,x30,80004018	 x24:0x3ca40f60 x30:0xf2903d81
       37685000	      3767	80004004	e7674993	xori	x19,x14,-394	 x14:0xfffff840 x19=0x00000636
       37695000	      3768	80004008	4aef3193	sltiu	x3,x30,1198	 x30:0xf2903d81  x3=0x00000000
       37705000	      3769	8000400c	002d2d33	slt	x26,x26,x2	 x26:0xf0680000  x2:0x00000000 x26=0x00000001
       37715000	      3770	80004010	f2405d17	auipc	x26,0xf2405	 x26=0x7240900c
       37725000	      3771	80004014	46700213	addi	x4,x0,1127	  x0:0x00000000  x4=0x00000467
       37735000	      3772	80004018	00a39e93	slli	x29,x7,0xa	  x7:0x00000000 x29=0x00000000
       37745000	      3773	8000401c	b4de4713	xori	x14,x28,-1203	 x28:0x00000001 x14=0xfffffb4c
       37755000	      3774	80004020	00f91313	slli	x6,x18,0xf	 x18:0x80009f10  x6=0x4f880000
       37765000	      3775	80004024	00eaca63	blt	x21,x14,80004038	 x21:0xdb102e04 x14:0xfffffb4c
       37775000	      3776	00000000	00000013	addi	x0,x0,0	  x0:0x00000000
       37785000	      3777	80004034	00000013	addi	x0,x0,0	  x0:0x00000000
       37795000	      3778	80004038	8745a313	slti	x6,x11,-1932	 x11:0xf87ab716  x6=0x00000001
       37805000	      3779	8000403c	40885593	srai	x11,x16,0x8	 x16:0xfb7ff716 x11=0xfffb7ff7
       37815000	      3780	80004040	00a49133	sll	x2,x9,x10	  x9:0xb30fc012 x10:0x000001e3  x2=0x987e0090
       37825000	      3781	80004044	3b2bb493	sltiu	x9,x23,946	 x23:0x00000000  x9=0x00000001
       37835000	      3782	80004048	00000013	addi	x0,x0,0	  x0:0x00000000
       37845000	      3783	8000404c	00000013	addi	x0,x0,0	  x0:0x00000000
       37855000	      3784	80004050	03e58263	beq	x11,x30,80004074	 x11:0xfffb7ff7 x30:0xf2903d81
       37865000	      3785	80004054	be0f2e13	slti	x28,x30,-1056	 x30:0xf2903d81 x28=0x00000001
       37875000	      3786	80004058	009f47b3	xor	x15,x30,x9	 x30:0xf2903d81  x9:0x00000001 x15=0xf2903d80
       37885000	      3787	8000405c	41310433	sub	x8,x2,x19	  x2:0x987e0090 x19:0x00000636  x8=0x987dfa5a
       37895000	      3788	80004060	40d685b3	sub	x11,x13,x13	 x13:0xf7808ff0 x13:0xf7808ff0 x11=0x00000000
       37905000	      3789	80004064	0376fe63	bgeu	x13,x23,800040a0	 x13:0xf7808ff0 x23:0x00000000
       37915000	      3790	00000000	00000013	addi	x0,x0,0	  x0:0x00000000
       37925000	      3791	8000409c	00000013	addi	x0,x0,0	  x0:0x00000000
       37935000	      3792	800040a0	830dcd93	xori	x27,x27,-2000	 x27:0xe81b9000 x27=0x17e46830
       37945000	      3793	800040a4	013c9393	slli	x7,x25,0x13	 x25:0x00000001  x7=0x00080000
       37955000	      3794	800040a8	01a4d893	srli	x17,x9,0x1a	  x9:0x00000001 x17=0x00000000
       37965000	      3795	800040ac	004fec33	or	x24,x31,x4	 x31:0xffcb6cfd  x4:0x00000467 x24=0xffcb6cff
       37975000	      3796	800040b0	ad2aaf93	slti	x31,x21,-1326	 x21:0xdb102e04 x31=0x00000001
       37985000	      3797	800040b4	01e06733	or	x14,x0,x30	  x0:0x00000000 x30:0xf2903d81 x14=0xf2903d81
       37995000	      3798	800040b8	013bbfb3	sltu	x31,x23,x19	 x23:0x00000000 x19:0x00000636 x31=0x00000001
       38005000	      3799	800040bc	007b8433	add	x8,x23,x7	 x23:0x00000000  x7:0x00080000  x8=0x00080000
       38015000	      3800	800040c0	41f35033	sra	x0,x6,x31	  x6:0x00000001 x31:0x00000001
       38025000	      3801	800040c4	0077db33	srl	x22,x15,x7	 x15:0xf2903d80  x7:0x00080000 x22=0xf2903d80
       38035000	      3802	800040c8	bfafc017	auipc	x0,0xbfafc	
       38045000	      3803	800040cc	e638e593	ori	x11,x17,-413	 x17:0x00000000 x11=0xfffffe63
       38055000	      3804	800040d0	01050c33	add	x24,x10,x16	 x10:0x000001e3 x16:0xfb7ff716 x24=0xfb7ff8f9
       38065000	      3805	800040d4	00000013	addi	x0,x0,0	  x0:0x00000000
       38075000	      3806	800040d8	01845733	srl	x14,x8,x24	  x8:0x00080000 x24:0xfb7ff8f9 x14=0x00000000
       38085000	      3807	800040dc	013b0ab3	add	x21,x22,x19	 x22:0xf2903d80 x19:0x00000636 x21=0xf29043b6
       38095000	      3808	800040e0	00444463	blt	x8,x4,800040e8	  x8:0x00080000  x4:0x00000467
       38105000	      3809	800040e4	0391f263	bgeu	x3,x25,80004108	  x3:0x00000000 x25:0x00000001
       38115000	      3810	800040e8	404885b3	sub	x11,x17,x4	 x17:0x00000000  x4:0x00000467 x11=0xfffffb99
       38125000	      3811	800040ec	01ba8263	beq	x21,x27,800040f0	 x21:0xf29043b6 x27:0x17e46830
       38135000	      3812	800040f0	014ebb33	sltu	x22,x29,x20	 x29:0x00000000 x20:0x67d63ed8 x22=0x00000001
       38145000	      3813	800040f4	4088d9b3	sra	x19,x17,x8	 x17:0x00000000  x8:0x00080000 x19=0x00000000
       38155000	      3814	800040f8	be276437	lui	x8,0xbe276	  x8=0xbe276000
       38165000	      3815	800040fc	01c15b93	srli	x23,x2,0x1c	  x2:0x987e0090 x23=0x00000009
       38175000	      3816	80004100	015c8533	add	x10,x25,x21	 x25:0x00000001 x21:0xf29043b6 x10=0xf29043b7
       38185000	      3817	80004104	01dee1b3	or	x3,x29,x29	 x29:0x00000000 x29:0x00000000  x3=0x00000000
       38195000	      3818	80004108	01406033	or	x0,x0,x20	  x0:0x00000000 x20:0x67d63ed8
       38205000	      3819	8000410c	abf1b893	sltiu	x17,x3,-1345	  x3:0x00000000 x17=0x00000001
       38215000	      3820	80004110	ea1db793	sltiu	x15,x27,-351	 x27:0x17e46830 x15=0x00000001
       38225000	      3821	80004114	03d08e63	beq	x1,x29,80004150	  x1:0x00000000 x29:0x00000000
       38235000	      3822	00000000	00000013	addi	x0,x0,0	  x0:0x00000000
       38245000	      3823	8000414c	00000013	addi	x0,x0,0	  x0:0x00000000
       38255000	      3824	80004150	002e1d33	sll	x26,x28,x2	 x28:0x00000001  x2:0x987e0090 x26=0x00010000
       38265000	      3825	80004154	01743cb3	sltu	x25,x8,x23	  x8:0xbe276000 x23:0x00000009 x25=0x00000000
       38275000	      3826	80004158	98f3b697	auipc	x13,0x98f3b	 x13=0x18f3f154
       38285000	      3827	8000415c	01e0e033	or	x0,x1,x30	  x1:0x00000000 x30:0xf2903d81
       38295000	      3828	80004160	00000013	addi	x0,x0,0	  x0:0x00000000
       38305000	      3829	80004164	6c66c737	lui	x14,0x6c66c	 x14=0x6c66c000
       38315000	      3830	80004168	40658233	sub	x4,x11,x6	 x11:0xfffffb99  x6:0x00000001  x4=0xfffffb98
       38325000	      3831	8000416c	0070d333	srl	x6,x1,x7	  x1:0x00000000  x7:0x00080000  x6=0x00000000
       38335000	      3832	80004170	418f5e13	srai	x28,x30,0x18	 x30:0xf2903d81 x28=0xfffffff2
       38345000	      3833	80004174	00004797	auipc	x15,0x4	 x15=0x80008170
       38355000	      3834	80004178	61e78793	addi	x15,x15,1566	 x15:0x80008170 x15=0x8000878e
       38365000	      3835	8000417c	01d780a3	sb	x29,1(x15)	 x15:0x8000878e x29:0x00000000 PA:0x8000878f
       38375000	      3836	80004180	ff07a923	sw	x16,-14(x15)	 x15:0x8000878e x16:0xfb7ff716 PA:0x80008780
       38385000	      3837	80004184	005decb3	or	x25,x27,x5	 x27:0x17e46830  x5:0xffffffc3 x25=0xfffffff3
       38395000	      3838	80004188	00000013	addi	x0,x0,0	  x0:0x00000000
       38405000	      3839	8000418c	010ed413	srli	x8,x29,0x10	 x29:0x00000000  x8=0x00000000
       38415000	      3840	80004190	ff17ca83	lbu	x21,-15(x15)	 x15:0x8000878e x21=0x0000009f PA:0x8000877f
       38425000	      3841	80004194	0087d283	lhu	x5,8(x15)	 x15:0x8000878e  x5=0x00004349 PA:0x80008796
       38435000	      3842	80004198	00b655b3	srl	x11,x12,x11	 x12:0x80009fc4 x11:0xfffffb99 x11=0x00000040
       38445000	      3843	8000419c	00f718b3	sll	x17,x14,x15	 x14:0x6c66c000 x15:0x8000878e x17=0xb0000000
       38455000	      3844	800041a0	00f7c683	lbu	x13,15(x15)	 x15:0x8000878e x13=0x00000096 PA:0x8000879d
       38465000	      3845	800041a4	408e5533	sra	x10,x28,x8	 x28:0xfffffff2  x8:0x00000000 x10=0xfffffff2
       38475000	      3846	800041a8	b35a0013	addi	x0,x20,-1227	 x20:0x67d63ed8
       38485000	      3847	800041ac	01f796b3	sll	x13,x15,x31	 x15:0x8000878e x31:0x00000001 x13=0x00010f1c
       38495000	      3848	800041b0	c33aa537	lui	x10,0xc33aa	 x10=0xc33aa000
       38505000	      3849	800041b4	fe778923	sb	x7,-14(x15)	 x15:0x8000878e  x7:0x00080000 PA:0x80008780
       38515000	      3850	800041b8	1bb4c493	xori	x9,x9,443	  x9:0x00000001  x9=0x000001ba
       38525000	      3851	800041bc	ff779923	sh	x23,-14(x15)	 x15:0x8000878e x23:0x00000009 PA:0x80008780
       38535000	      3852	800041c0	4165de33	sra	x28,x11,x22	 x11:0x00000040 x22:0x00000001 x28=0x00000020
       38545000	      3853	800041c4	01ea95b3	sll	x11,x21,x30	 x21:0x0000009f x30:0xf2903d81 x11=0x0000013e
       38555000	      3854	800041c8	0057c803	lbu	x16,5(x15)	 x15:0x8000878e x16=0x00000009 PA:0x80008793
       38565000	      3855	800041cc	ff27ad03	lw	x26,-14(x15)	 x15:0x8000878e x26=0xfb7f0009 PA:0x80008780
       38575000	      3856	800041d0	686e2b13	slti	x22,x28,1670	 x28:0x00000020 x22=0x00000001
       38585000	      3857	800041d4	cdb7aa13	slti	x20,x15,-805	 x15:0x8000878e x20=0x00000001
       38595000	      3858	800041d8	00235333	srl	x6,x6,x2	  x6:0x00000000  x2:0x987e0090  x6=0x00000000
       38605000	      3859	800041dc	c1fbb693	sltiu	x13,x23,-993	 x23:0x00000009 x13=0x00000001
       38615000	      3860	800041e0	ffc79083	lh	x1,-4(x15)	 x15:0x8000878e  x1=0xffff8b86 PA:0x8000878a
       38625000	      3861	800041e4	40585893	srai	x17,x16,0x5	 x16:0x00000009 x17=0x00000000
       38635000	      3862	800041e8	ff878803	lb	x16,-8(x15)	 x15:0x8000878e x16=0x00000073 PA:0x80008786
       38645000	      3863	800041ec	ff57ca03	lbu	x20,-11(x15)	 x15:0x8000878e x20=0x000000fb PA:0x80008783
       38655000	      3864	800041f0	00769e93	slli	x29,x13,0x7	 x13:0x00000001 x29=0x00000080
       38665000	      3865	800041f4	d23fb013	sltiu	x0,x31,-733	 x31:0x00000001
       38675000	      3866	800041f8	001ae533	or	x10,x21,x1	 x21:0x0000009f  x1:0xffff8b86 x10=0xffff8b9f
       38685000	      3867	800041fc	007530b3	sltu	x1,x10,x7	 x10:0xffff8b9f  x7:0x00080000  x1=0x00000000
       38695000	      3868	80004200	00778f83	lb	x31,7(x15)	 x15:0x8000878e x31=0x0000005a PA:0x80008795
       38705000	      3869	80004204	00279383	lh	x7,2(x15)	 x15:0x8000878e  x7=0x00002949 PA:0x80008790
       38715000	      3870	80004208	eb5c7c93	andi	x25,x24,-331	 x24:0xfb7ff8f9 x25=0xfb7ff8b1
       38725000	      3871	8000420c	01129113	slli	x2,x5,0x11	  x5:0x00004349  x2=0x86920000
       38735000	      3872	80004210	0052e333	or	x6,x5,x5	  x5:0x00004349  x5:0x00004349  x6=0x00004349
       38745000	      3873	80004214	415cd393	srai	x7,x25,0x15	 x25:0xfb7ff8b1  x7=0xffffffdb
       38755000	      3874	80004218	00649113	slli	x2,x9,0x6	  x9:0x000001ba  x2=0x00006e80
       38765000	      3875	8000421c	0017c703	lbu	x14,1(x15)	 x15:0x8000878e x14=0x00000000 PA:0x8000878f
       38775000	      3876	80004220	54b0ca13	xori	x20,x1,1355	  x1:0x00000000 x20=0x0000054b
       38785000	      3877	80004224	ff97cb83	lbu	x23,-7(x15)	 x15:0x8000878e x23=0x0000000c PA:0x80008787
       38795000	      3878	80004228	01e97733	and	x14,x18,x30	 x18:0x80009f10 x30:0xf2903d81 x14=0x80001d00
       38805000	      3879	8000422c	ffb78203	lb	x4,-5(x15)	 x15:0x8000878e  x4=0x00000002 PA:0x80008789
       38815000	      3880	80004230	ff87d983	lhu	x19,-8(x15)	 x15:0x8000878e x19=0x00000c73 PA:0x80008786
       38825000	      3881	80004234	01f782a3	sb	x31,5(x15)	 x15:0x8000878e x31:0x0000005a PA:0x80008793
       38835000	      3882	80004238	0027ca03	lbu	x20,2(x15)	 x15:0x8000878e x20=0x00000049 PA:0x80008790
       38845000	      3883	8000423c	00ed5833	srl	x16,x26,x14	 x26:0xfb7f0009 x14:0x80001d00 x16=0xfb7f0009
       38855000	      3884	80004240	00f1e5b3	or	x11,x3,x15	  x3:0x00000000 x15:0x8000878e x11=0x8000878e
       38865000	      3885	80004244	40d68533	sub	x10,x13,x13	 x13:0x00000001 x13:0x00000001 x10=0x00000000
       38875000	      3886	80004248	00600733	add	x14,x0,x6	  x0:0x00000000  x6:0x00004349 x14=0x00004349
       38885000	      3887	8000424c	40f3da13	srai	x20,x7,0xf	  x7:0xffffffdb x20=0xffffffff
       38895000	      3888	80004250	0115beb3	sltu	x29,x11,x17	 x11:0x8000878e x17:0x00000000 x29=0x00000000
       38905000	      3889	80004254	0353f863	bgeu	x7,x21,80004284	  x7:0xffffffdb x21:0x0000009f
       38915000	      3890	00000000	00000013	addi	x0,x0,0	  x0:0x00000000
       38925000	      3891	80004280	00000013	addi	x0,x0,0	  x0:0x00000000
       38935000	      3892	80004284	0419c663	blt	x19,x1,800042d0	 x19:0x00000c73  x1:0x00000000
       38945000	      3893	80004288	00dd3b33	sltu	x22,x26,x13	 x26:0xfb7f0009 x13:0x00000001 x22=0x00000000
       38955000	      3894	8000428c	40ccd333	sra	x6,x25,x12	 x25:0xfb7ff8b1 x12:0x80009fc4  x6=0xffb7ff8b
       38965000	      3895	80004290	01515733	srl	x14,x2,x21	  x2:0x00006e80 x21:0x0000009f x14=0x00000000
       38975000	      3896	80004294	00e0d693	srli	x13,x1,0xe	  x1:0x00000000 x13=0x00000000
       38985000	      3897	80004298	00fc92b3	sll	x5,x25,x15	 x25:0xfb7ff8b1 x15:0x8000878e  x5=0xfe2c4000
       38995000	      3898	8000429c	012cda63	bge	x25,x18,800042b0	 x25:0xfb7ff8b1 x18:0x80009f10
       39005000	      3899	00000000	00000013	addi	x0,x0,0	  x0:0x00000000
       39015000	      3900	800042ac	00000013	addi	x0,x0,0	  x0:0x00000000
       39025000	      3901	800042b0	01ab9433	sll	x8,x23,x26	 x23:0x0000000c x26:0xfb7f0009  x8=0x00001800
       39035000	      3902	800042b4	020fd263	bge	x31,x0,800042d8	 x31:0x0000005a  x0:0x00000000
       39045000	      3903	00000000	00000013	addi	x0,x0,0	  x0:0x00000000
       39055000	      3904	800042d4	00000013	addi	x0,x0,0	  x0:0x00000000
       39065000	      3905	800042d8	91344693	xori	x13,x8,-1773	  x8:0x00001800 x13=0xffffe113
       39075000	      3906	800042dc	408f0b33	sub	x22,x30,x8	 x30:0xf2903d81  x8:0x00001800 x22=0xf2902581
       39085000	      3907	800042e0	8b8b4893	xori	x17,x22,-1864	 x22:0xf2902581 x17=0x0d6fdd39
       39095000	      3908	800042e4	024c5263	bge	x24,x4,80004308	 x24:0xfb7ff8f9  x4:0x00000002
       39105000	      3909	800042e8	46aa0f97	auipc	x31,0x46aa0	 x31=0xc6aa42e4
       39115000	      3910	800042ec	00e6b433	sltu	x8,x13,x14	 x13:0xffffe113 x14:0x00000000  x8=0x00000000
       39125000	      3911	800042f0	001c7c33	and	x24,x24,x1	 x24:0xfb7ff8f9  x1:0x00000000 x24=0x00000000
       39135000	      3912	800042f4	03350c63	beq	x10,x19,8000432c	 x10:0x00000000 x19:0x00000c73
       39145000	      3913	800042f8	015b4663	blt	x22,x21,80004304	 x22:0xf2902581 x21:0x0000009f
       39155000	      3914	00000000	00000013	addi	x0,x0,0	  x0:0x00000000
       39165000	      3915	80004300	00000013	addi	x0,x0,0	  x0:0x00000000
       39175000	      3916	80004304	b25f7d13	andi	x26,x30,-1243	 x30:0xf2903d81 x26=0xf2903901
       39185000	      3917	80004308	853fccb7	lui	x25,0x853fc	 x25=0x853fc000
       39195000	      3918	8000430c	7035a693	slti	x13,x11,1795	 x11:0x8000878e x13=0x00000001
       39205000	      3919	80004310	00da1593	slli	x11,x20,0xd	 x20:0xffffffff x11=0xffffe000
       39215000	      3920	80004314	33d07413	andi	x8,x0,829	  x0:0x00000000  x8=0x00000000
       39225000	      3921	80004318	01a95e33	srl	x28,x18,x26	 x18:0x80009f10 x26:0xf2903901 x28=0x40004f88
       39235000	      3922	8000431c	41c08cb3	sub	x25,x1,x28	  x1:0x00000000 x28:0x40004f88 x25=0xbfffb078
       39245000	      3923	80004320	01103cb3	sltu	x25,x0,x17	  x0:0x00000000 x17:0x0d6fdd39 x25=0x00000001
       39255000	      3924	80004324	03688063	beq	x17,x22,80004344	 x17:0x0d6fdd39 x22:0xf2902581
       39265000	      3925	80004328	05845863	bge	x8,x24,80004378	  x8:0x00000000 x24:0x00000000
       39275000	      3926	00000000	00000013	addi	x0,x0,0	  x0:0x00000000
       39285000	      3927	80004374	00000013	addi	x0,x0,0	  x0:0x00000000
       39295000	      3928	80004378	2cb3fc93	andi	x25,x7,715	  x7:0xffffffdb x25=0x000002cb
       39305000	      3929	8000437c	00e61463	bne	x12,x14,80004384	 x12:0x80009fc4 x14:0x00000000
       39315000	      3930	00000000	00000013	addi	x0,x0,0	  x0:0x00000000
       39325000	      3931	80004380	00000013	addi	x0,x0,0	  x0:0x00000000
       39335000	      3932	80004384	0179d0b3	srl	x1,x19,x23	 x19:0x00000c73 x23:0x0000000c  x1=0x00000000
       39345000	      3933	80004388	051c1663	bne	x24,x17,800043d4	 x24:0x00000000 x17:0x0d6fdd39
       39355000	      3934	00000000	00000013	addi	x0,x0,0	  x0:0x00000000
       39365000	      3935	800043d0	00000013	addi	x0,x0,0	  x0:0x00000000
       39375000	      3936	800043d4	001b5db3	srl	x27,x22,x1	 x22:0xf2902581  x1:0x00000000 x27=0xf2902581
       39385000	      3937	800043d8	03dae063	bltu	x21,x29,800043f8	 x21:0x0000009f x29:0x00000000
       39395000	      3938	800043dc	f2e80313	addi	x6,x16,-210	 x16:0xfb7f0009  x6=0xfb7eff37
       39405000	      3939	800043e0	02007263	bgeu	x0,x0,80004404	  x0:0x00000000  x0:0x00000000
       39415000	      3940	00000000	00000013	addi	x0,x0,0	  x0:0x00000000
       39425000	      3941	80004400	00000013	addi	x0,x0,0	  x0:0x00000000
       39435000	      3942	80004404	40ea8bb3	sub	x23,x21,x14	 x21:0x0000009f x14:0x00000000 x23=0x0000009f
       39445000	      3943	80004408	01bb4c63	blt	x22,x27,80004420	 x22:0xf2902581 x27:0xf2902581
       39455000	      3944	8000440c	0035fa63	bgeu	x11,x3,80004420	 x11:0xffffe000  x3:0x00000000
       39465000	      3945	00000000	00000013	addi	x0,x0,0	  x0:0x00000000
       39475000	      3946	8000441c	00000013	addi	x0,x0,0	  x0:0x00000000
       39485000	      3947	80004420	412202b3	sub	x5,x4,x18	  x4:0x00000002 x18:0x80009f10  x5=0x7fff60f2
       39495000	      3948	80004424	00c2ac33	slt	x24,x5,x12	  x5:0x7fff60f2 x12:0x80009fc4 x24=0x00000000
       39505000	      3949	80004428	e6416093	ori	x1,x2,-412	  x2:0x00006e80  x1=0xfffffee4
       39515000	      3950	8000442c	25673093	sltiu	x1,x14,598	 x14:0x00000000  x1=0x00000001
       39525000	      3951	80004430	7ba6fc13	andi	x24,x13,1978	 x13:0x00000001 x24=0x00000000
       39535000	      3952	80004434	012bddb3	srl	x27,x23,x18	 x23:0x0000009f x18:0x80009f10 x27=0x00000000
       39545000	      3953	80004438	a6636993	ori	x19,x6,-1434	  x6:0xfb7eff37 x19=0xffffff77
       39555000	      3954	8000443c	01765313	srli	x6,x12,0x17	 x12:0x80009fc4  x6=0x00000100
       39565000	      3955	80004440	c3989997	auipc	x19,0xc3989	 x19=0x4398d43c
       39575000	      3956	80004444	01bd4663	blt	x26,x27,80004450	 x26:0xf2903901 x27:0x00000000
       39585000	      3957	00000000	00000013	addi	x0,x0,0	  x0:0x00000000
       39595000	      3958	8000444c	00000013	addi	x0,x0,0	  x0:0x00000000
       39605000	      3959	80004450	02371063	bne	x14,x3,80004470	 x14:0x00000000  x3:0x00000000
       39615000	      3960	80004454	00b75463	bge	x14,x11,8000445c	 x14:0x00000000 x11:0xffffe000
       39625000	      3961	00000000	00000013	addi	x0,x0,0	  x0:0x00000000
       39635000	      3962	80004458	00000013	addi	x0,x0,0	  x0:0x00000000
       39645000	      3963	8000445c	01ae0db3	add	x27,x28,x26	 x28:0x40004f88 x26:0xf2903901 x27=0x32908889
       39655000	      3964	80004460	01635233	srl	x4,x6,x22	  x6:0x00000100 x22:0xf2902581  x4=0x00000080
       39665000	      3965	80004464	0375c063	blt	x11,x23,80004484	 x11:0xffffe000 x23:0x0000009f
       39675000	      3966	00000000	00000013	addi	x0,x0,0	  x0:0x00000000
       39685000	      3967	80004480	00000013	addi	x0,x0,0	  x0:0x00000000
       39695000	      3968	80004484	412ed433	sra	x8,x29,x18	 x29:0x00000000 x18:0x80009f10  x8=0x00000000
       39705000	      3969	80004488	01605cb3	srl	x25,x0,x22	  x0:0x00000000 x22:0xf2902581 x25=0x00000000
       39715000	      3970	8000448c	40d55e33	sra	x28,x10,x13	 x10:0x00000000 x13:0x00000001 x28=0x00000000
       39725000	      3971	80004490	006566b3	or	x13,x10,x6	 x10:0x00000000  x6:0x00000100 x13=0x00000100
       39735000	      3972	80004494	031d0263	beq	x26,x17,800044b8	 x26:0xf2903901 x17:0x0d6fdd39
       39745000	      3973	80004498	400f0db3	sub	x27,x30,x0	 x30:0xf2903d81  x0:0x00000000 x27=0xf2903d81
       39755000	      3974	8000449c	0172fc33	and	x24,x5,x23	  x5:0x7fff60f2 x23:0x0000009f x24=0x00000092
       39765000	      3975	800044a0	cf3aad93	slti	x27,x21,-781	 x21:0x0000009f x27=0x00000000
       39775000	      3976	800044a4	01ff0533	add	x10,x30,x31	 x30:0xf2903d81 x31:0xc6aa42e4 x10=0xb93a8065
       39785000	      3977	800044a8	41a1d033	sra	x0,x3,x26	  x3:0x00000000 x26:0xf2903901
       39795000	      3978	800044ac	fa8bfd93	andi	x27,x23,-88	 x23:0x0000009f x27=0x00000088
       39805000	      3979	800044b0	00004033	xor	x0,x0,x0	  x0:0x00000000  x0:0x00000000
       39815000	      3980	800044b4	01391c63	bne	x18,x19,800044cc	 x18:0x80009f10 x19:0x4398d43c
       39825000	      3981	00000000	00000013	addi	x0,x0,0	  x0:0x00000000
       39835000	      3982	800044c8	00000013	addi	x0,x0,0	  x0:0x00000000
       39845000	      3983	800044cc	03590063	beq	x18,x21,800044ec	 x18:0x80009f10 x21:0x0000009f
       39855000	      3984	800044d0	010ec263	blt	x29,x16,800044d4	 x29:0x00000000 x16:0xfb7f0009
       39865000	      3985	800044d4	03a6f863	bgeu	x13,x26,80004504	 x13:0x00000100 x26:0xf2903901
       39875000	      3986	800044d8	011f1a63	bne	x30,x17,800044ec	 x30:0xf2903d81 x17:0x0d6fdd39
       39885000	      3987	00000000	00000013	addi	x0,x0,0	  x0:0x00000000
       39895000	      3988	800044e8	00000013	addi	x0,x0,0	  x0:0x00000000
       39905000	      3989	800044ec	c8eeb297	auipc	x5,0xc8eeb	  x5=0x48eef4e8
       39915000	      3990	800044f0	41e75213	srai	x4,x14,0x1e	 x14:0x00000000  x4=0x00000000
       39925000	      3991	800044f4	00ed5e93	srli	x29,x26,0xe	 x26:0xf2903901 x29=0x0003ca40
       39935000	      3992	800044f8	d08f7293	andi	x5,x30,-760	 x30:0xf2903d81  x5=0xf2903d00
       39945000	      3993	800044fc	0188de93	srli	x29,x17,0x18	 x17:0x0d6fdd39 x29=0x0000000d
       39955000	      3994	80004500	00220fb3	add	x31,x4,x2	  x4:0x00000000  x2:0x00006e80 x31=0x00006e80
       39965000	      3995	80004504	00ec5a63	bge	x24,x14,80004518	 x24:0x00000092 x14:0x00000000
       39975000	      3996	00000000	00000013	addi	x0,x0,0	  x0:0x00000000
       39985000	      3997	80004514	00000013	addi	x0,x0,0	  x0:0x00000000
       39995000	      3998	80004518	00000013	addi	x0,x0,0	  x0:0x00000000
       40005000	      3999	8000451c	00000013	addi	x0,x0,0	  x0:0x00000000
       40015000	      4000	80004520	ea17be37	lui	x28,0xea17b	 x28=0xea17b000
       40025000	      4001	80004524	baa9ca13	xori	x20,x19,-1110	 x19:0x4398d43c x20=0xbc672f96
       40035000	      4002	80004528	01225a63	bge	x4,x18,8000453c	  x4:0x00000000 x18:0x80009f10
       40045000	      4003	00000000	00000013	addi	x0,x0,0	  x0:0x00000000
       40055000	      4004	80004538	00000013	addi	x0,x0,0	  x0:0x00000000
       40065000	      4005	8000453c	368bd017	auipc	x0,0x368bd	
       40075000	      4006	80004540	0288de63	bge	x17,x8,8000457c	 x17:0x0d6fdd39  x8:0x00000000
       40085000	      4007	00000000	00000013	addi	x0,x0,0	  x0:0x00000000
       40095000	      4008	80004578	00000013	addi	x0,x0,0	  x0:0x00000000
       40105000	      4009	8000457c	0062e333	or	x6,x5,x6	  x5:0xf2903d00  x6:0x00000100  x6=0xf2903d00
       40115000	      4010	80004580	01e15d33	srl	x26,x2,x30	  x2:0x00006e80 x30:0xf2903d81 x26=0x00003740
       40125000	      4011	80004584	028a4e63	blt	x20,x8,800045c0	 x20:0xbc672f96  x8:0x00000000
       40135000	      4012	00000000	00000013	addi	x0,x0,0	  x0:0x00000000
       40145000	      4013	800045bc	00000013	addi	x0,x0,0	  x0:0x00000000
       40155000	      4014	800045c0	03367063	bgeu	x12,x19,800045e0	 x12:0x80009fc4 x19:0x4398d43c
       40165000	      4015	00000000	00000013	addi	x0,x0,0	  x0:0x00000000
       40175000	      4016	800045dc	00000013	addi	x0,x0,0	  x0:0x00000000
       40185000	      4017	800045e0	023d1663	bne	x26,x3,8000460c	 x26:0x00003740  x3:0x00000000
       40195000	      4018	00000000	00000013	addi	x0,x0,0	  x0:0x00000000
       40205000	      4019	80004608	00000013	addi	x0,x0,0	  x0:0x00000000
       40215000	      4020	8000460c	01ef3233	sltu	x4,x30,x30	 x30:0xf2903d81 x30:0xf2903d81  x4=0x00000000
       40225000	      4021	80004610	00d99463	bne	x19,x13,80004618	 x19:0x4398d43c x13:0x00000100
       40235000	      4022	00000000	00000013	addi	x0,x0,0	  x0:0x00000000
       40245000	      4023	80004614	00000013	addi	x0,x0,0	  x0:0x00000000
       40255000	      4024	80004618	0358f063	bgeu	x17,x21,80004638	 x17:0x0d6fdd39 x21:0x0000009f
       40265000	      4025	00000000	00000013	addi	x0,x0,0	  x0:0x00000000
       40275000	      4026	80004634	00000013	addi	x0,x0,0	  x0:0x00000000
       40285000	      4027	80004638	99e9d037	lui	x0,0x99e9d	
       40295000	      4028	8000463c	00587ab3	and	x21,x16,x5	 x16:0xfb7f0009  x5:0xf2903d00 x21=0xf2100000
       40305000	      4029	80004640	00000013	addi	x0,x0,0	  x0:0x00000000
       40315000	      4030	80004644	01093433	sltu	x8,x18,x16	 x18:0x80009f10 x16:0xfb7f0009  x8=0x00000001
       40325000	      4031	80004648	013e81b3	add	x3,x29,x19	 x29:0x0000000d x19:0x4398d43c  x3=0x4398d449
       40335000	      4032	8000464c	0342e263	bltu	x5,x20,80004670	  x5:0xf2903d00 x20:0xbc672f96
       40345000	      4033	80004650	012c38b3	sltu	x17,x24,x18	 x24:0x00000092 x18:0x80009f10 x17=0x00000001
       40355000	      4034	80004654	41295a13	srai	x20,x18,0x12	 x18:0x80009f10 x20=0xffffe000
       40365000	      4035	80004658	b5027c97	auipc	x25,0xb5027	 x25=0x3502b654
       40375000	      4036	8000465c	019257b3	srl	x15,x4,x25	  x4:0x00000000 x25:0x3502b654 x15=0x00000000
       40385000	      4037	80004660	008e11b3	sll	x3,x28,x8	 x28:0xea17b000  x8:0x00000001  x3=0xd42f6000
       40395000	      4038	80004664	8795ec13	ori	x24,x11,-1927	 x11:0xffffe000 x24=0xfffff879
       40405000	      4039	80004668	00fd57b3	srl	x15,x26,x15	 x26:0x00003740 x15:0x00000000 x15=0x00003740
       40415000	      4040	8000466c	f0967837	lui	x16,0xf0967	 x16=0xf0967000
       40425000	      4041	80004670	026c7e63	bgeu	x24,x6,800046ac	 x24:0xfffff879  x6:0xf2903d00
       40435000	      4042	00000000	00000013	addi	x0,x0,0	  x0:0x00000000
       40445000	      4043	800046a8	00000013	addi	x0,x0,0	  x0:0x00000000
       40455000	      4044	800046ac	00e312b3	sll	x5,x6,x14	  x6:0xf2903d00 x14:0x00000000  x5=0xf2903d00
       40465000	      4045	800046b0	0070cfb3	xor	x31,x1,x7	  x1:0x00000001  x7:0xffffffdb x31=0xffffffda
       40475000	      4046	800046b4	01504733	xor	x14,x0,x21	  x0:0x00000000 x21:0xf2100000 x14=0xf2100000
       40485000	      4047	800046b8	017f5e93	srli	x29,x30,0x17	 x30:0xf2903d81 x29=0x000001e5
       40495000	      4048	800046bc	02a21063	bne	x4,x10,800046dc	  x4:0x00000000 x10:0xb93a8065
       40505000	      4049	00000000	00000013	addi	x0,x0,0	  x0:0x00000000
       40515000	      4050	800046d8	00000013	addi	x0,x0,0	  x0:0x00000000
       40525000	      4051	800046dc	19e5ae93	slti	x29,x11,414	 x11:0xffffe000 x29=0x00000001
       40535000	      4052	800046e0	5df3e517	auipc	x10,0x5df3e	 x10=0xddf426dc
       40545000	      4053	800046e4	51d50b97	auipc	x23,0x51d50	 x23=0xd1d546e0
       40555000	      4054	800046e8	72762b93	slti	x23,x12,1831	 x12:0x80009fc4 x23=0x00000001
       40565000	      4055	800046ec	d0d62bb7	lui	x23,0xd0d62	 x23=0xd0d62000
       40575000	      4056	800046f0	e6f03b13	sltiu	x22,x0,-401	  x0:0x00000000 x22=0x00000001
       40585000	      4057	800046f4	97962f93	slti	x31,x12,-1671	 x12:0x80009fc4 x31=0x00000001
       40595000	      4058	800046f8	1dfe0013	addi	x0,x28,479	 x28:0xea17b000
       40605000	      4059	800046fc	017cdd33	srl	x26,x25,x23	 x25:0x3502b654 x23:0xd0d62000 x26=0x3502b654
       40615000	      4060	80004700	00aa0e33	add	x28,x20,x10	 x20:0xffffe000 x10:0xddf426dc x28=0xddf406dc
       40625000	      4061	80004704	015f5eb3	srl	x29,x30,x21	 x30:0xf2903d81 x21:0xf2100000 x29=0xf2903d81
       40635000	      4062	80004708	adfff717	auipc	x14,0xadfff	 x14=0x2e003704
       40645000	      4063	8000470c	00641533	sll	x10,x8,x6	  x8:0x00000001  x6:0xf2903d00 x10=0x00000001
       40655000	      4064	80004710	abd6fe93	andi	x29,x13,-1347	 x13:0x00000100 x29=0x00000000
       40665000	      4065	80004714	00c616b3	sll	x13,x12,x12	 x12:0x80009fc4 x12:0x80009fc4 x13=0x0009fc40
       40675000	      4066	80004718	41ab5893	srai	x17,x22,0x1a	 x22:0x00000001 x17=0x00000000
       40685000	      4067	8000471c	0078ca63	blt	x17,x7,80004730	 x17:0x00000000  x7:0xffffffdb
       40695000	      4068	80004720	02526063	bltu	x4,x5,80004740	  x4:0x00000000  x5:0xf2903d00
       40705000	      4069	00000000	00000013	addi	x0,x0,0	  x0:0x00000000
       40715000	      4070	8000473c	00000013	addi	x0,x0,0	  x0:0x00000000
       40725000	      4071	80004740	01e0db93	srli	x23,x1,0x1e	  x1:0x00000001 x23=0x00000000
       40735000	      4072	80004744	01bf7cb3	and	x25,x30,x27	 x30:0xf2903d81 x27:0x00000088 x25=0x00000080
       40745000	      4073	80004748	012c02b3	add	x5,x24,x18	 x24:0xfffff879 x18:0x80009f10  x5=0x80009789
       40755000	      4074	8000474c	01f71d33	sll	x26,x14,x31	 x14:0x2e003704 x31:0x00000001 x26=0x5c006e08
       40765000	      4075	80004750	0d7b7513	andi	x10,x22,215	 x22:0x00000001 x10=0x00000001
       40775000	      4076	80004754	128a0e13	addi	x28,x20,296	 x20:0xffffe000 x28=0xffffe128
       40785000	      4077	80004758	026d0263	beq	x26,x6,8000477c	 x26:0x5c006e08  x6:0xf2903d00
       40795000	      4078	8000475c	40985133	sra	x2,x16,x9	 x16:0xf0967000  x9:0x000001ba  x2=0xfffffffc
       40805000	      4079	80004760	00e44717	auipc	x14,0xe44	 x14=0x80e4875c
       40815000	      4080	80004764	01d71433	sll	x8,x14,x29	 x14:0x80e4875c x29:0x00000000  x8=0x80e4875c
       40825000	      4081	80004768	29bc8513	addi	x10,x25,667	 x25:0x00000080 x10=0x0000031b
       40835000	      4082	8000476c	fce48fb7	lui	x31,0xfce48	 x31=0xfce48000
       40845000	      4083	80004770	0153b9b3	sltu	x19,x7,x21	  x7:0xffffffdb x21:0xf2100000 x19=0x00000000
       40855000	      4084	80004774	0107f3b3	and	x7,x15,x16	 x15:0x00003740 x16:0xf0967000  x7=0x00003000
       40865000	      4085	80004778	01a783b3	add	x7,x15,x26	 x15:0x00003740 x26:0x5c006e08  x7=0x5c00a548
       40875000	      4086	8000477c	02d2c663	blt	x5,x13,800047a8	  x5:0x80009789 x13:0x0009fc40
       40885000	      4087	00000000	00000013	addi	x0,x0,0	  x0:0x00000000
       40895000	      4088	800047a4	00000013	addi	x0,x0,0	  x0:0x00000000
       40905000	      4089	800047a8	009bb333	sltu	x6,x23,x9	 x23:0x00000000  x9:0x000001ba  x6=0x00000001
       40915000	      4090	800047ac	498ef493	andi	x9,x29,1176	 x29:0x00000000  x9=0x00000000
       40925000	      4091	800047b0	0028d9b3	srl	x19,x17,x2	 x17:0x00000000  x2:0xfffffffc x19=0x00000000
       40935000	      4092	800047b4	00f5ecb3	or	x25,x11,x15	 x11:0xffffe000 x15:0x00003740 x25=0xfffff740
       40945000	      4093	800047b8	016a5493	srli	x9,x20,0x16	 x20:0xffffe000  x9=0x000003ff
       40955000	      4094	800047bc	00000013	addi	x0,x0,0	  x0:0x00000000
       40965000	      4095	800047c0	01737233	and	x4,x6,x23	  x6:0x00000001 x23:0x00000000  x4=0x00000000
       40975000	      4096	800047c4	a5110993	addi	x19,x2,-1455	  x2:0xfffffffc x19=0xfffffa4d
       40985000	      4097	800047c8	01d6c133	xor	x2,x13,x29	 x13:0x0009fc40 x29:0x00000000  x2=0x0009fc40
       40995000	      4098	800047cc	02364863	blt	x12,x3,800047fc	 x12:0x80009fc4  x3:0xd42f6000
       41005000	      4099	00000000	00000013	addi	x0,x0,0	  x0:0x00000000
       41015000	      4100	800047f8	00000013	addi	x0,x0,0	  x0:0x00000000
       41025000	      4101	800047fc	02198e63	beq	x19,x1,80004838	 x19:0xfffffa4d  x1:0x00000001
       41035000	      4102	80004800	004b29b3	slt	x19,x22,x4	 x22:0x00000001  x4:0x00000000 x19=0x00000000
       41045000	      4103	80004804	008cb533	sltu	x10,x25,x8	 x25:0xfffff740  x8:0x80e4875c x10=0x00000000
       41055000	      4104	80004808	c0b03793	sltiu	x15,x0,-1013	  x0:0x00000000 x15=0x00000001
       41065000	      4105	8000480c	016e1f93	slli	x31,x28,0x16	 x28:0xffffe128 x31=0x4a000000
       41075000	      4106	80004810	00671b13	slli	x22,x14,0x6	 x14:0x80e4875c x22=0x3921d700
       41085000	      4107	80004814	013cbe33	sltu	x28,x25,x19	 x25:0xfffff740 x19:0x00000000 x28=0x00000000
       41095000	      4108	80004818	00ac6533	or	x10,x24,x10	 x24:0xfffff879 x10:0x00000000 x10=0xfffff879
       41105000	      4109	8000481c	40e50a33	sub	x20,x10,x14	 x10:0xfffff879 x14:0x80e4875c x20=0x7f1b711d
       41115000	      4110	80004820	000bc263	blt	x23,x0,80004824	 x23:0x00000000  x0:0x00000000
       41125000	      4111	80004824	00a7dcb3	srl	x25,x15,x10	 x15:0x00000001 x10:0xfffff879 x25=0x00000000
       41135000	      4112	80004828	5240f7b7	lui	x15,0x5240f	 x15=0x5240f000
       41145000	      4113	8000482c	80726097	auipc	x1,0x80726	  x1=0x0072a828
       41155000	      4114	80004830	00401db3	sll	x27,x0,x4	  x0:0x00000000  x4:0x00000000 x27=0x00000000
       41165000	      4115	80004834	00254533	xor	x10,x10,x2	 x10:0xfffff879  x2:0x0009fc40 x10=0xfff60439
       41175000	      4116	80004838	413d0ab3	sub	x21,x26,x19	 x26:0x5c006e08 x19:0x00000000 x21=0x5c006e08
       41185000	      4117	8000483c	03eaea63	bltu	x21,x30,80004870	 x21:0x5c006e08 x30:0xf2903d81
       41195000	      4118	00000000	00000013	addi	x0,x0,0	  x0:0x00000000
       41205000	      4119	8000486c	00000013	addi	x0,x0,0	  x0:0x00000000
       41215000	      4120	80004870	01391713	slli	x14,x18,0x13	 x18:0x80009f10 x14=0xf8800000
       41225000	      4121	80004874	023cf863	bgeu	x25,x3,800048a4	 x25:0x00000000  x3:0xd42f6000
       41235000	      4122	80004878	00ce87b3	add	x15,x29,x12	 x29:0x00000000 x12:0x80009fc4 x15=0x80009fc4
       41245000	      4123	8000487c	00773bb3	sltu	x23,x14,x7	 x14:0xf8800000  x7:0x5c00a548 x23=0x00000000
       41255000	      4124	80004880	00d31a63	bne	x6,x13,80004894	  x6:0x00000001 x13:0x0009fc40
       41265000	      4125	00000000	00000013	addi	x0,x0,0	  x0:0x00000000
       41275000	      4126	80004890	00000013	addi	x0,x0,0	  x0:0x00000000
       41285000	      4127	80004894	01554bb3	xor	x23,x10,x21	 x10:0xfff60439 x21:0x5c006e08 x23=0xa3f66a31
       41295000	      4128	80004898	01ea9a63	bne	x21,x30,800048ac	 x21:0x5c006e08 x30:0xf2903d81
       41305000	      4129	00000000	00000013	addi	x0,x0,0	  x0:0x00000000
       41315000	      4130	800048a8	00000013	addi	x0,x0,0	  x0:0x00000000
       41325000	      4131	800048ac	004a43b3	xor	x7,x20,x4	 x20:0x7f1b711d  x4:0x00000000  x7=0x7f1b711d
       41335000	      4132	800048b0	014bf433	and	x8,x23,x20	 x23:0xa3f66a31 x20:0x7f1b711d  x8=0x23126011
       41345000	      4133	800048b4	b960c597	auipc	x11,0xb960c	 x11=0x396108b0
       41355000	      4134	800048b8	00000013	addi	x0,x0,0	  x0:0x00000000
       41365000	      4135	800048bc	01792a33	slt	x20,x18,x23	 x18:0x80009f10 x23:0xa3f66a31 x20=0x00000001
       41375000	      4136	800048c0	01c77233	and	x4,x14,x28	 x14:0xf8800000 x28:0x00000000  x4=0x00000000
       41385000	      4137	800048c4	01ced313	srli	x6,x29,0x1c	 x29:0x00000000  x6=0x00000000
       41395000	      4138	800048c8	40aa0db3	sub	x27,x20,x10	 x20:0x00000001 x10:0xfff60439 x27=0x0009fbc8
       41405000	      4139	800048cc	6e510293	addi	x5,x2,1765	  x2:0x0009fc40  x5=0x000a0325
       41415000	      4140	800048d0	c9cf2c13	slti	x24,x30,-868	 x30:0xf2903d81 x24=0x00000001
       41425000	      4141	800048d4	01abdc63	bge	x23,x26,800048ec	 x23:0xa3f66a31 x26:0x5c006e08
       41435000	      4142	800048d8	018f21b3	slt	x3,x30,x24	 x30:0xf2903d81 x24:0x00000001  x3=0x00000001
       41445000	      4143	800048dc	b29fb113	sltiu	x2,x31,-1239	 x31:0x4a000000  x2=0x00000001
       41455000	      4144	800048e0	38e20593	addi	x11,x4,910	  x4:0x00000000 x11=0x0000038e
       41465000	      4145	800048e4	03917e63	bgeu	x2,x25,80004920	  x2:0x00000001 x25:0x00000000
       41475000	      4146	00000000	00000013	addi	x0,x0,0	  x0:0x00000000
       41485000	      4147	8000491c	00000013	addi	x0,x0,0	  x0:0x00000000
       41495000	      4148	80004920	75a88b93	addi	x23,x17,1882	 x17:0x00000000 x23=0x0000075a
       41505000	      4149	80004924	eedb4e93	xori	x29,x22,-275	 x22:0x3921d700 x29=0xc6de29ed
       41515000	      4150	80004928	fbbd3693	sltiu	x13,x26,-69	 x26:0x5c006e08 x13=0x00000001
       41525000	      4151	8000492c	04e48663	beq	x9,x14,80004978	  x9:0x000003ff x14:0xf8800000
       41535000	      4152	80004930	00741533	sll	x10,x8,x7	  x8:0x23126011  x7:0x7f1b711d x10=0x20000000
       41545000	      4153	80004934	00d55593	srli	x11,x10,0xd	 x10:0x20000000 x11=0x00010000
       41555000	      4154	80004938	0165c5b3	xor	x11,x11,x22	 x11:0x00010000 x22:0x3921d700 x11=0x3920d700
       41565000	      4155	8000493c	00c03b33	sltu	x22,x0,x12	  x0:0x00000000 x12:0x80009fc4 x22=0x00000001
       41575000	      4156	80004940	413f5113	srai	x2,x30,0x13	 x30:0xf2903d81  x2=0xfffffe52
       41585000	      4157	80004944	016de7b3	or	x15,x27,x22	 x27:0x0009fbc8 x22:0x00000001 x15=0x0009fbc9
       41595000	      4158	80004948	01fbf033	and	x0,x23,x31	 x23:0x0000075a x31:0x4a000000
       41605000	      4159	8000494c	f021cc93	xori	x25,x3,-254	  x3:0x00000001 x25=0xffffff03
       41615000	      4160	80004950	011ab733	sltu	x14,x21,x17	 x21:0x5c006e08 x17:0x00000000 x14=0x00000000
       41625000	      4161	80004954	403253b3	sra	x7,x4,x3	  x4:0x00000000  x3:0x00000001  x7=0x00000000
       41635000	      4162	80004958	0186fcb3	and	x25,x13,x24	 x13:0x00000001 x24:0x00000001 x25=0x00000001
       41645000	      4163	8000495c	00000013	addi	x0,x0,0	  x0:0x00000000
       41655000	      4164	80004960	0315c263	blt	x11,x17,80004984	 x11:0x3920d700 x17:0x00000000
       41665000	      4165	80004964	00d41013	slli	x0,x8,0xd	  x8:0x23126011
       41675000	      4166	80004968	00d7e2b3	or	x5,x15,x13	 x15:0x0009fbc9 x13:0x00000001  x5=0x0009fbc9
       41685000	      4167	8000496c	40d8d233	sra	x4,x17,x13	 x17:0x00000000 x13:0x00000001  x4=0x00000000
       41695000	      4168	80004970	c4967e97	auipc	x29,0xc4967	 x29=0x4496b96c
       41705000	      4169	80004974	e1b1c537	lui	x10,0xe1b1c	 x10=0xe1b1c000
       41715000	      4170	80004978	01d32133	slt	x2,x6,x29	  x6:0x00000000 x29:0x4496b96c  x2=0x00000001
       41725000	      4171	8000497c	02c8c863	blt	x17,x12,800049ac	 x17:0x00000000 x12:0x80009fc4
       41735000	      4172	80004980	9162ca93	xori	x21,x5,-1770	  x5:0x0009fbc9 x21=0xfff602df
       41745000	      4173	80004984	6934c193	xori	x3,x9,1683	  x9:0x000003ff  x3=0x0000056c
       41755000	      4174	80004988	013ed263	bge	x29,x19,8000498c	 x29:0x4496b96c x19:0x00000000
       41765000	      4175	00000000	00000013	addi	x0,x0,0	  x0:0x00000000
       41775000	      4176	80004988	00000013	addi	x0,x0,0	  x0:0x00000000
       41785000	      4177	8000498c	0532d663	bge	x5,x19,800049d8	  x5:0x0009fbc9 x19:0x00000000
       41795000	      4178	00000000	00000013	addi	x0,x0,0	  x0:0x00000000
       41805000	      4179	800049d4	00000013	addi	x0,x0,0	  x0:0x00000000
       41815000	      4180	800049d8	d71fe9b7	lui	x19,0xd71fe	 x19=0xd71fe000
       41825000	      4181	800049dc	41e78133	sub	x2,x15,x30	 x15:0x0009fbc9 x30:0xf2903d81  x2=0x0d79be48
       41835000	      4182	800049e0	01ff9793	slli	x15,x31,0x1f	 x31:0x4a000000 x15=0x00000000
       41845000	      4183	800049e4	a5777c13	andi	x24,x14,-1449	 x14:0x00000000 x24=0x00000000
       41855000	      4184	800049e8	018302b3	add	x5,x6,x24	  x6:0x00000000 x24:0x00000000  x5=0x00000000
       41865000	      4185	800049ec	40275313	srai	x6,x14,0x2	 x14:0x00000000  x6=0x00000000
       41875000	      4186	800049f0	af1f3793	sltiu	x15,x30,-1295	 x30:0xf2903d81 x15=0x00000001
       41885000	      4187	800049f4	82f56413	ori	x8,x10,-2001	 x10:0xe1b1c000  x8=0xfffff82f
       41895000	      4188	800049f8	16ebb013	sltiu	x0,x23,366	 x23:0x0000075a
       41905000	      4189	800049fc	413c58b3	sra	x17,x24,x19	 x24:0x00000000 x19:0xd71fe000 x17=0x00000000
       41915000	      4190	80004a00	9b4a3113	sltiu	x2,x20,-1612	 x20:0x00000001  x2=0x00000001
       41925000	      4191	80004a04	00b0d593	srli	x11,x1,0xb	  x1:0x0072a828 x11=0x00000e55
       41935000	      4192	80004a08	01d7ab33	slt	x22,x15,x29	 x15:0x00000001 x29:0x4496b96c x22=0x00000001
       41945000	      4193	80004a0c	03249663	bne	x9,x18,80004a38	  x9:0x000003ff x18:0x80009f10
       41955000	      4194	00000000	00000013	addi	x0,x0,0	  x0:0x00000000
       41965000	      4195	80004a34	00000013	addi	x0,x0,0	  x0:0x00000000
       41975000	      4196	80004a38	03c49263	bne	x9,x28,80004a5c	  x9:0x000003ff x28:0x00000000
       41985000	      4197	00000000	00000013	addi	x0,x0,0	  x0:0x00000000
       41995000	      4198	80004a58	00000013	addi	x0,x0,0	  x0:0x00000000
       42005000	      4199	80004a5c	36b3c493	xori	x9,x7,875	  x7:0x00000000  x9=0x0000036b
       42015000	      4200	80004a60	41d05493	srai	x9,x0,0x1d	  x0:0x00000000  x9=0x00000000
       42025000	      4201	80004a64	0031d833	srl	x16,x3,x3	  x3:0x0000056c  x3:0x0000056c x16=0x00000000
       42035000	      4202	80004a68	01251693	slli	x13,x10,0x12	 x10:0xe1b1c000 x13=0x00000000
       42045000	      4203	80004a6c	6a41f513	andi	x10,x3,1700	  x3:0x0000056c x10=0x00000424
       42055000	      4204	80004a70	01ab9ab3	sll	x21,x23,x26	 x23:0x0000075a x26:0x5c006e08 x21=0x00075a00
       42065000	      4205	80004a74	015ccc33	xor	x24,x25,x21	 x25:0x00000001 x21:0x00075a00 x24=0x00075a01
       42075000	      4206	80004a78	007a9233	sll	x4,x21,x7	 x21:0x00075a00  x7:0x00000000  x4=0x00075a00
       42085000	      4207	80004a7c	015e1313	slli	x6,x28,0x15	 x28:0x00000000  x6=0x00000000
       42095000	      4208	80004a80	03680063	beq	x16,x22,80004aa0	 x16:0x00000000 x22:0x00000001
       42105000	      4209	80004a84	01090a63	beq	x18,x16,80004a98	 x18:0x80009f10 x16:0x00000000
       42115000	      4210	80004a88	0094f9b3	and	x19,x9,x9	  x9:0x00000000  x9:0x00000000 x19=0x00000000
       42125000	      4211	80004a8c	350f3017	auipc	x0,0x350f3	
       42135000	      4212	80004a90	5e1aee13	ori	x28,x21,1505	 x21:0x00075a00 x28=0x00075fe1
       42145000	      4213	80004a94	01a23d33	sltu	x26,x4,x26	  x4:0x00075a00 x26:0x5c006e08 x26=0x00000001
       42155000	      4214	80004a98	43a5ad93	slti	x27,x11,1082	 x11:0x00000e55 x27=0x00000000
       42165000	      4215	80004a9c	02030863	beq	x6,x0,80004acc	  x6:0x00000000  x0:0x00000000
       42175000	      4216	00000000	00000013	addi	x0,x0,0	  x0:0x00000000
       42185000	      4217	80004ac8	00000013	addi	x0,x0,0	  x0:0x00000000
       42195000	      4218	80004acc	01528663	beq	x5,x21,80004ad8	  x5:0x00000000 x21:0x00075a00
       42205000	      4219	80004ad0	01bd5e13	srli	x28,x26,0x1b	 x26:0x00000001 x28=0x00000000
       42215000	      4220	80004ad4	00000013	addi	x0,x0,0	  x0:0x00000000
       42225000	      4221	80004ad8	fc1e4c17	auipc	x24,0xfc1e4	 x24=0x7c1e8ad4
       42235000	      4222	80004adc	02735263	bge	x6,x7,80004b00	  x6:0x00000000  x7:0x00000000
       42245000	      4223	00000000	00000013	addi	x0,x0,0	  x0:0x00000000
       42255000	      4224	80004afc	00000013	addi	x0,x0,0	  x0:0x00000000
       42265000	      4225	80004b00	41d28133	sub	x2,x5,x29	  x5:0x00000000 x29:0x4496b96c  x2=0xbb694694
       42275000	      4226	80004b04	03bcd063	bge	x25,x27,80004b24	 x25:0x00000001 x27:0x00000000
       42285000	      4227	00000000	00000013	addi	x0,x0,0	  x0:0x00000000
       42295000	      4228	80004b20	00000013	addi	x0,x0,0	  x0:0x00000000
       42305000	      4229	80004b24	00934c33	xor	x24,x6,x9	  x6:0x00000000  x9:0x00000000 x24=0x00000000
       42315000	      4230	80004b28	d6adc793	xori	x15,x27,-662	 x27:0x00000000 x15=0xfffffd6a
       42325000	      4231	80004b2c	01d3fa33	and	x20,x7,x29	  x7:0x00000000 x29:0x4496b96c x20=0x00000000
       42335000	      4232	80004b30	30cca3b7	lui	x7,0x30cca	  x7=0x30cca000
       42345000	      4233	80004b34	00000013	addi	x0,x0,0	  x0:0x00000000
       42355000	      4234	80004b38	01dcfc33	and	x24,x25,x29	 x25:0x00000001 x29:0x4496b96c x24=0x00000000
       42365000	      4235	80004b3c	00305d33	srl	x26,x0,x3	  x0:0x00000000  x3:0x0000056c x26=0x00000000
       42375000	      4236	80004b40	8932d8b7	lui	x17,0x8932d	 x17=0x8932d000
       42385000	      4237	80004b44	03187063	bgeu	x16,x17,80004b64	 x16:0x00000000 x17:0x8932d000
       42395000	      4238	80004b48	c133c593	xori	x11,x7,-1005	  x7:0x30cca000 x11=0xcf335c13
       42405000	      4239	80004b4c	02469863	bne	x13,x4,80004b7c	 x13:0x00000000  x4:0x00075a00
       42415000	      4240	00000000	00000013	addi	x0,x0,0	  x0:0x00000000
       42425000	      4241	80004b78	00000013	addi	x0,x0,0	  x0:0x00000000
       42435000	      4242	80004b7c	b34eb3b7	lui	x7,0xb34eb	  x7=0xb34eb000
       42445000	      4243	80004b80	034b0e63	beq	x22,x20,80004bbc	 x22:0x00000001 x20:0x00000000
       42455000	      4244	80004b84	eaf02213	slti	x4,x0,-337	  x0:0x00000000  x4=0x00000000
       42465000	      4245	80004b88	40d582b3	sub	x5,x11,x13	 x11:0xcf335c13 x13:0x00000000  x5=0xcf335c13
       42475000	      4246	80004b8c	048a0663	beq	x20,x8,80004bd8	 x20:0x00000000  x8:0xfffff82f
       42485000	      4247	80004b90	02175663	bge	x14,x1,80004bbc	 x14:0x00000000  x1:0x0072a828
       42495000	      4248	80004b94	000f5393	srli	x7,x30,0x0	 x30:0xf2903d81  x7=0xf2903d81
       42505000	      4249	80004b98	0083dfb3	srl	x31,x7,x8	  x7:0xf2903d81  x8:0xfffff82f x31=0x0001e520
       42515000	      4250	80004b9c	01597833	and	x16,x18,x21	 x18:0x80009f10 x21:0x00075a00 x16=0x00001a00
       42525000	      4251	80004ba0	00000013	addi	x0,x0,0	  x0:0x00000000
       42535000	      4252	80004ba4	c5e24413	xori	x8,x4,-930	  x4:0x00000000  x8=0xfffffc5e
       42545000	      4253	80004ba8	01a3e7b3	or	x15,x7,x26	  x7:0xf2903d81 x26:0x00000000 x15=0xf2903d81
       42555000	      4254	80004bac	01579fb3	sll	x31,x15,x21	 x15:0xf2903d81 x21:0x00075a00 x31=0xf2903d81
       42565000	      4255	80004bb0	00000013	addi	x0,x0,0	  x0:0x00000000
       42575000	      4256	80004bb4	0163d413	srli	x8,x7,0x16	  x7:0xf2903d81  x8=0x000003ca
       42585000	      4257	80004bb8	00000013	addi	x0,x0,0	  x0:0x00000000
       42595000	      4258	80004bbc	00dc4a63	blt	x24,x13,80004bd0	 x24:0x00000000 x13:0x00000000
       42605000	      4259	80004bc0	030f9e63	bne	x31,x16,80004bfc	 x31:0xf2903d81 x16:0x00001a00
       42615000	      4260	00000000	00000013	addi	x0,x0,0	  x0:0x00000000
       42625000	      4261	80004bf8	00000013	addi	x0,x0,0	  x0:0x00000000
       42635000	      4262	80004bfc	00220cb3	add	x25,x4,x2	  x4:0x00000000  x2:0xbb694694 x25=0xbb694694
       42645000	      4263	80004c00	03cb4c63	blt	x22,x28,80004c38	 x22:0x00000001 x28:0x00000000
       42655000	      4264	80004c04	00000013	addi	x0,x0,0	  x0:0x00000000
       42665000	      4265	80004c08	0b488213	addi	x4,x17,180	 x17:0x8932d000  x4=0x8932d0b4
       42675000	      4266	80004c0c	0372d263	bge	x5,x23,80004c30	  x5:0xcf335c13 x23:0x0000075a
       42685000	      4267	80004c10	1923c5b7	lui	x11,0x1923c	 x11=0x1923c000
       42695000	      4268	80004c14	029c4263	blt	x24,x9,80004c38	 x24:0x00000000  x9:0x00000000
       42705000	      4269	80004c18	684b0db7	lui	x27,0x684b0	 x27=0x684b0000
       42715000	      4270	80004c1c	00119c63	bne	x3,x1,80004c34	  x3:0x0000056c  x1:0x0072a828
       42725000	      4271	00000000	00000013	addi	x0,x0,0	  x0:0x00000000
       42735000	      4272	80004c30	00000013	addi	x0,x0,0	  x0:0x00000000
       42745000	      4273	80004c34	71316593	ori	x11,x2,1811	  x2:0xbb694694 x11=0xbb694797
       42755000	      4274	80004c38	4c90bd93	sltiu	x27,x1,1225	  x1:0x0072a828 x27=0x00000000
       42765000	      4275	80004c3c	03ad7063	bgeu	x26,x26,80004c5c	 x26:0x00000000 x26:0x00000000
       42775000	      4276	00000000	00000013	addi	x0,x0,0	  x0:0x00000000
       42785000	      4277	80004c58	00000013	addi	x0,x0,0	  x0:0x00000000
       42795000	      4278	80004c5c	5a2aa213	slti	x4,x21,1442	 x21:0x00075a00  x4=0x00000000
       42805000	      4279	80004c60	414bdb13	srai	x22,x23,0x14	 x23:0x0000075a x22=0x00000000
       42815000	      4280	80004c64	03ac9a63	bne	x25,x26,80004c98	 x25:0xbb694694 x26:0x00000000
       42825000	      4281	00000000	00000013	addi	x0,x0,0	  x0:0x00000000
       42835000	      4282	80004c94	00000013	addi	x0,x0,0	  x0:0x00000000
       42845000	      4283	80004c98	a6f1fc13	andi	x24,x3,-1425	  x3:0x0000056c x24=0x0000006c
       42855000	      4284	80004c9c	00000013	addi	x0,x0,0	  x0:0x00000000
       42865000	      4285	80004ca0	14befb93	andi	x23,x29,331	 x29:0x4496b96c x23=0x00000148
       42875000	      4286	80004ca4	41600bb3	sub	x23,x0,x22	  x0:0x00000000 x22:0x00000000 x23=0x00000000
       42885000	      4287	80004ca8	010e08b3	add	x17,x28,x16	 x28:0x00000000 x16:0x00001a00 x17=0x00001a00
       42895000	      4288	80004cac	00000013	addi	x0,x0,0	  x0:0x00000000
       42905000	      4289	80004cb0	6430f093	andi	x1,x1,1603	  x1:0x0072a828  x1=0x00000000
       42915000	      4290	80004cb4	008b6663	bltu	x22,x8,80004cc0	 x22:0x00000000  x8:0x000003ca
       42925000	      4291	00000000	00000013	addi	x0,x0,0	  x0:0x00000000
       42935000	      4292	80004cbc	00000013	addi	x0,x0,0	  x0:0x00000000
       42945000	      4293	80004cc0	00799ab3	sll	x21,x19,x7	 x19:0x00000000  x7:0xf2903d81 x21=0x00000000
       42955000	      4294	80004cc4	2664c517	auipc	x10,0x2664c	 x10=0xa6650cc0
       42965000	      4295	80004cc8	bcd06793	ori	x15,x0,-1075	  x0:0x00000000 x15=0xfffffbcd
       42975000	      4296	80004ccc	0130f3b3	and	x7,x1,x19	  x1:0x00000000 x19:0x00000000  x7=0x00000000
       42985000	      4297	80004cd0	8bf50693	addi	x13,x10,-1857	 x10:0xa6650cc0 x13=0xa665057f
       42995000	      4298	80004cd4	68073213	sltiu	x4,x14,1664	 x14:0x00000000  x4=0x00000001
       43005000	      4299	80004cd8	f757b7b7	lui	x15,0xf757b	 x15=0xf757b000
       43015000	      4300	80004cdc	a05ca693	slti	x13,x25,-1531	 x25:0xbb694694 x13=0x00000001
       43025000	      4301	80004ce0	013b4733	xor	x14,x22,x19	 x22:0x00000000 x19:0x00000000 x14=0x00000000
       43035000	      4302	80004ce4	6ae3c693	xori	x13,x7,1710	  x7:0x00000000 x13=0x000006ae
       43045000	      4303	80004ce8	408dd493	srai	x9,x27,0x8	 x27:0x00000000  x9=0x00000000
       43055000	      4304	80004cec	a85dc993	xori	x19,x27,-1403	 x27:0x00000000 x19=0xfffffa85
       43065000	      4305	80004cf0	4175dd93	srai	x27,x11,0x17	 x11:0xbb694797 x27=0xffffff76
       43075000	      4306	80004cf4	00d6b4b3	sltu	x9,x13,x13	 x13:0x000006ae x13:0x000006ae  x9=0x00000000
       43085000	      4307	80004cf8	c3ca0db7	lui	x27,0xc3ca0	 x27=0xc3ca0000
       43095000	      4308	80004cfc	0003bd33	sltu	x26,x7,x0	  x7:0x00000000  x0:0x00000000 x26=0x00000000
       43105000	      4309	80004d00	01d79413	slli	x8,x15,0x1d	 x15:0xf757b000  x8=0x00000000
       43115000	      4310	80004d04	00e0b133	sltu	x2,x1,x14	  x1:0x00000000 x14:0x00000000  x2=0x00000000
       43125000	      4311	80004d08	009ae233	or	x4,x21,x9	 x21:0x00000000  x9:0x00000000  x4=0x00000000
       43135000	      4312	80004d0c	c0e68113	addi	x2,x13,-1010	 x13:0x000006ae  x2=0x000002bc
       43145000	      4313	80004d10	022fd263	bge	x31,x2,80004d34	 x31:0xf2903d81  x2:0x000002bc
       43155000	      4314	80004d14	d63ae813	ori	x16,x21,-669	 x21:0x00000000 x16=0xfffffd63
       43165000	      4315	80004d18	03917263	bgeu	x2,x25,80004d3c	  x2:0x000002bc x25:0xbb694694
       43175000	      4316	80004d1c	40308333	sub	x6,x1,x3	  x1:0x00000000  x3:0x0000056c  x6=0xfffffa94
       43185000	      4317	80004d20	00dadfb3	srl	x31,x21,x13	 x21:0x00000000 x13:0x000006ae x31=0x00000000
       43195000	      4318	80004d24	410e5493	srai	x9,x28,0x10	 x28:0x00000000  x9=0x00000000
       43205000	      4319	80004d28	406a8fb3	sub	x31,x21,x6	 x21:0x00000000  x6:0xfffffa94 x31=0x0000056c
       43215000	      4320	80004d2c	00f43033	sltu	x0,x8,x15	  x8:0x00000000 x15:0xf757b000
       43225000	      4321	80004d30	01bc8833	add	x16,x25,x27	 x25:0xbb694694 x27:0xc3ca0000 x16=0x7f334694
       43235000	      4322	80004d34	b3a10d13	addi	x26,x2,-1222	  x2:0x000002bc x26=0xfffffdf6
       43245000	      4323	80004d38	d50d3c13	sltiu	x24,x26,-688	 x26:0xfffffdf6 x24=0x00000000
       43255000	      4324	80004d3c	03b07e63	bgeu	x0,x27,80004d78	  x0:0x00000000 x27:0xc3ca0000
       43265000	      4325	80004d40	02248263	beq	x9,x2,80004d64	  x9:0x00000000  x2:0x000002bc
       43275000	      4326	80004d44	0a28ee13	ori	x28,x17,162	 x17:0x00001a00 x28=0x00001aa2
       43285000	      4327	80004d48	401653b3	sra	x7,x12,x1	 x12:0x80009fc4  x1:0x00000000  x7=0x80009fc4
       43295000	      4328	80004d4c	01bf4c33	xor	x24,x30,x27	 x30:0xf2903d81 x27:0xc3ca0000 x24=0x315a3d81
       43305000	      4329	80004d50	021a4663	blt	x20,x1,80004d7c	 x20:0x00000000  x1:0x00000000
       43315000	      4330	80004d54	01c832b3	sltu	x5,x16,x28	 x16:0x7f334694 x28:0x00001aa2  x5=0x00000000
       43325000	      4331	80004d58	3988c693	xori	x13,x17,920	 x17:0x00001a00 x13=0x00001998
       43335000	      4332	80004d5c	00000013	addi	x0,x0,0	  x0:0x00000000
       43345000	      4333	80004d60	1124b013	sltiu	x0,x9,274	  x9:0x00000000
       43355000	      4334	80004d64	34778e93	addi	x29,x15,839	 x15:0xf757b000 x29=0xf757b347
       43365000	      4335	80004d68	008806b3	add	x13,x16,x8	 x16:0x7f334694  x8:0x00000000 x13=0x7f334694
       43375000	      4336	80004d6c	0046ca63	blt	x13,x4,80004d80	 x13:0x7f334694  x4:0x00000000
       43385000	      4337	80004d70	3ca14593	xori	x11,x2,970	  x2:0x000002bc x11=0x00000176
       43395000	      4338	80004d74	00b34bb3	xor	x23,x6,x11	  x6:0xfffffa94 x11:0x00000176 x23=0xfffffbe2
       43405000	      4339	80004d78	03b15063	bge	x2,x27,80004d98	  x2:0x000002bc x27:0xc3ca0000
       43415000	      4340	00000000	00000013	addi	x0,x0,0	  x0:0x00000000
       43425000	      4341	80004d94	00000013	addi	x0,x0,0	  x0:0x00000000
       43435000	      4342	80004d98	018c58b3	srl	x17,x24,x24	 x24:0x315a3d81 x24:0x315a3d81 x17=0x18ad1ec0
       43445000	      4343	80004d9c	00e7fa33	and	x20,x15,x14	 x15:0xf757b000 x14:0x00000000 x20=0x00000000
       43455000	      4344	80004da0	598e2593	slti	x11,x28,1432	 x28:0x00001aa2 x11=0x00000000
       43465000	      4345	80004da4	40205313	srai	x6,x0,0x2	  x0:0x00000000  x6=0x00000000
       43475000	      4346	80004da8	040bc663	blt	x23,x0,80004df4	 x23:0xfffffbe2  x0:0x00000000
       43485000	      4347	00000000	00000013	addi	x0,x0,0	  x0:0x00000000
       43495000	      4348	80004df0	00000013	addi	x0,x0,0	  x0:0x00000000
       43505000	      4349	80004df4	01725c13	srli	x24,x4,0x17	  x4:0x00000000 x24=0x00000000
       43515000	      4350	80004df8	03c39263	bne	x7,x28,80004e1c	  x7:0x80009fc4 x28:0x00001aa2
       43525000	      4351	00000000	00000013	addi	x0,x0,0	  x0:0x00000000
       43535000	      4352	80004e18	00000013	addi	x0,x0,0	  x0:0x00000000
       43545000	      4353	80004e1c	91ca8393	addi	x7,x21,-1764	 x21:0x00000000  x7=0xfffff91c
       43555000	      4354	80004e20	058fd663	bge	x31,x24,80004e6c	 x31:0x0000056c x24:0x00000000
       43565000	      4355	00000000	00000013	addi	x0,x0,0	  x0:0x00000000
       43575000	      4356	80004e68	00000013	addi	x0,x0,0	  x0:0x00000000
       43585000	      4357	80004e6c	22cdd417	auipc	x8,0x22cdd	  x8=0xa2ce1e68
       43595000	      4358	80004e70	58ed1197	auipc	x3,0x58ed1	  x3=0xd8ed5e6c
       43605000	      4359	80004e74	02410a63	beq	x2,x4,80004ea8	  x2:0x000002bc  x4:0x00000000
       43615000	      4360	80004e78	6d29e593	ori	x11,x19,1746	 x19:0xfffffa85 x11=0xfffffed7
       43625000	      4361	80004e7c	0314fe63	bgeu	x9,x17,80004eb8	  x9:0x00000000 x17:0x18ad1ec0
       43635000	      4362	80004e80	015c3133	sltu	x2,x24,x21	 x24:0x00000000 x21:0x00000000  x2=0x00000000
       43645000	      4363	80004e84	01cab7b3	sltu	x15,x21,x28	 x21:0x00000000 x28:0x00001aa2 x15=0x00000001
       43655000	      4364	80004e88	012ba533	slt	x10,x23,x18	 x23:0xfffffbe2 x18:0x80009f10 x10=0x00000000
       43665000	      4365	80004e8c	6683b893	sltiu	x17,x7,1640	  x7:0xfffff91c x17=0x00000000
       43675000	      4366	80004e90	0069f663	bgeu	x19,x6,80004e9c	 x19:0xfffffa85  x6:0x00000000
       43685000	      4367	00000000	00000013	addi	x0,x0,0	  x0:0x00000000
       43695000	      4368	80004e98	00000013	addi	x0,x0,0	  x0:0x00000000
       43705000	      4369	80004e9c	9e817113	andi	x2,x2,-1560	  x2:0x00000000  x2=0x00000000
       43715000	      4370	80004ea0	006e7fb3	and	x31,x28,x6	 x28:0x00001aa2  x6:0x00000000 x31=0x00000000
       43725000	      4371	80004ea4	00a076b3	and	x13,x0,x10	  x0:0x00000000 x10:0x00000000 x13=0x00000000
       43735000	      4372	80004ea8	41d0d493	srai	x9,x1,0x1d	  x1:0x00000000  x9=0x00000000
       43745000	      4373	80004eac	4fcc8b93	addi	x23,x25,1276	 x25:0xbb694694 x23=0xbb694b90
       43755000	      4374	80004eb0	89e72a93	slti	x21,x14,-1890	 x14:0x00000000 x21=0x00000000
       43765000	      4375	80004eb4	00000013	addi	x0,x0,0	  x0:0x00000000
       43775000	      4376	80004eb8	00f5dd93	srli	x27,x11,0xf	 x11:0xfffffed7 x27=0x0001ffff
       43785000	      4377	80004ebc	01d8adb3	slt	x27,x17,x29	 x17:0x00000000 x29:0xf757b347 x27=0x00000000
       43795000	      4378	80004ec0	411cd793	srai	x15,x25,0x11	 x25:0xbb694694 x15=0xffffddb4
       43805000	      4379	80004ec4	00487a63	bgeu	x16,x4,80004ed8	 x16:0x7f334694  x4:0x00000000
       43815000	      4380	00000000	00000013	addi	x0,x0,0	  x0:0x00000000
       43825000	      4381	80004ed4	00000013	addi	x0,x0,0	  x0:0x00000000
       43835000	      4382	80004ed8	01a796b3	sll	x13,x15,x26	 x15:0xffffddb4 x26:0xfffffdf6 x13=0x6d000000
       43845000	      4383	80004edc	76dde113	ori	x2,x27,1901	 x27:0x00000000  x2=0x0000076d
       43855000	      4384	80004ee0	99953593	sltiu	x11,x10,-1639	 x10:0x00000000 x11=0x00000001
       43865000	      4385	80004ee4	03f88863	beq	x17,x31,80004f14	 x17:0x00000000 x31:0x00000000
       43875000	      4386	00000000	00000013	addi	x0,x0,0	  x0:0x00000000
       43885000	      4387	80004f10	00000013	addi	x0,x0,0	  x0:0x00000000
       43895000	      4388	80004f14	00135c93	srli	x25,x6,0x1	  x6:0x00000000 x25=0x00000000
       43905000	      4389	80004f18	01f34c33	xor	x24,x6,x31	  x6:0x00000000 x31:0x00000000 x24=0x00000000
       43915000	      4390	80004f1c	90cd5e17	auipc	x28,0x90cd5	 x28=0x10cd9f18
       43925000	      4391	80004f20	f161b193	sltiu	x3,x3,-234	  x3:0xd8ed5e6c  x3=0x00000001
       43935000	      4392	80004f24	02b46063	bltu	x8,x11,80004f44	  x8:0xa2ce1e68 x11:0x00000001
       43945000	      4393	80004f28	00948c63	beq	x9,x9,80004f40	  x9:0x00000000  x9:0x00000000
       43955000	      4394	00000000	00000013	addi	x0,x0,0	  x0:0x00000000
       43965000	      4395	80004f3c	00000013	addi	x0,x0,0	  x0:0x00000000
       43975000	      4396	80004f40	00000013	addi	x0,x0,0	  x0:0x00000000
       43985000	      4397	80004f44	01ba1313	slli	x6,x20,0x1b	 x20:0x00000000  x6=0x00000000
       43995000	      4398	80004f48	bf63ee13	ori	x28,x7,-1034	  x7:0xfffff91c x28=0xfffffbfe
       44005000	      4399	80004f4c	0224e863	bltu	x9,x2,80004f7c	  x9:0x00000000  x2:0x0000076d
       44015000	      4400	00000000	00000013	addi	x0,x0,0	  x0:0x00000000
       44025000	      4401	80004f78	00000013	addi	x0,x0,0	  x0:0x00000000
       44035000	      4402	80004f7c	01e69713	slli	x14,x13,0x1e	 x13:0x6d000000 x14=0x00000000
       44045000	      4403	80004f80	6adc2593	slti	x11,x24,1709	 x24:0x00000000 x11=0x00000001
       44055000	      4404	80004f84	0491c863	blt	x3,x9,80004fd4	  x3:0x00000001  x9:0x00000000
       44065000	      4405	80004f88	070e3193	sltiu	x3,x28,112	 x28:0xfffffbfe  x3=0x00000000
       44075000	      4406	80004f8c	90158693	addi	x13,x11,-1791	 x11:0x00000001 x13=0xfffff902
       44085000	      4407	80004f90	3f550db7	lui	x27,0x3f550	 x27=0x3f550000
       44095000	      4408	80004f94	41220db3	sub	x27,x4,x18	  x4:0x00000000 x18:0x80009f10 x27=0x7fff60f0
       44105000	      4409	80004f98	03e78263	beq	x15,x30,80004fbc	 x15:0xffffddb4 x30:0xf2903d81
       44115000	      4410	80004f9c	007347b3	xor	x15,x6,x7	  x6:0x00000000  x7:0xfffff91c x15=0xfffff91c
       44125000	      4411	80004fa0	015022b3	slt	x5,x0,x21	  x0:0x00000000 x21:0x00000000  x5=0x00000000
       44135000	      4412	80004fa4	b6ddcb37	lui	x22,0xb6ddc	 x22=0xb6ddc000
       44145000	      4413	80004fa8	be7fab97	auipc	x23,0xbe7fa	 x23=0x3e7fefa4
       44155000	      4414	80004fac	02fbf063	bgeu	x23,x15,80004fcc	 x23:0x3e7fefa4 x15:0xfffff91c
       44165000	      4415	80004fb0	019dc3b3	xor	x7,x27,x25	 x27:0x7fff60f0 x25:0x00000000  x7=0x7fff60f0
       44175000	      4416	80004fb4	013f9f93	slli	x31,x31,0x13	 x31:0x00000000 x31=0x00000000
       44185000	      4417	80004fb8	01201793	slli	x15,x0,0x12	  x0:0x00000000 x15=0x00000000
       44195000	      4418	80004fbc	00df5a63	bge	x30,x13,80004fd0	 x30:0xf2903d81 x13:0xfffff902
       44205000	      4419	80004fc0	01419993	slli	x19,x3,0x14	  x3:0x00000000 x19=0x00000000
       44215000	      4420	80004fc4	01fc9893	slli	x17,x25,0x1f	 x25:0x00000000 x17=0x00000000
       44225000	      4421	80004fc8	00e5d193	srli	x3,x11,0xe	 x11:0x00000001  x3=0x00000000
       44235000	      4422	80004fcc	01879db3	sll	x27,x15,x24	 x15:0x00000000 x24:0x00000000 x27=0x00000000
       44245000	      4423	80004fd0	03345a63	bge	x8,x19,80005004	  x8:0xa2ce1e68 x19:0x00000000
       44255000	      4424	80004fd4	00000013	addi	x0,x0,0	  x0:0x00000000
       44265000	      4425	80004fd8	01af5a63	bge	x30,x26,80004fec	 x30:0xf2903d81 x26:0xfffffdf6
       44275000	      4426	80004fdc	01873fb3	sltu	x31,x14,x24	 x14:0x00000000 x24:0x00000000 x31=0x00000000
       44285000	      4427	80004fe0	0107f533	and	x10,x15,x16	 x15:0x00000000 x16:0x7f334694 x10=0x00000000
       44295000	      4428	80004fe4	012394b3	sll	x9,x7,x18	  x7:0x7fff60f0 x18:0x80009f10  x9=0x60f00000
       44305000	      4429	80004fe8	00509513	slli	x10,x1,0x5	  x1:0x00000000 x10=0x00000000
       44315000	      4430	80004fec	6dac2c93	slti	x25,x24,1754	 x24:0x00000000 x25=0x00000001
       44325000	      4431	80004ff0	61988893	addi	x17,x17,1561	 x17:0x00000000 x17=0x00000619
       44335000	      4432	80004ff4	01fadb33	srl	x22,x21,x31	 x21:0x00000000 x31:0x00000000 x22=0x00000000
       44345000	      4433	80004ff8	02017663	bgeu	x2,x0,80005024	  x2:0x0000076d  x0:0x00000000
       44355000	      4434	00000000	00000013	addi	x0,x0,0	  x0:0x00000000
       44365000	      4435	80005020	00000013	addi	x0,x0,0	  x0:0x00000000
       44375000	      4436	80005024	fc6c6b93	ori	x23,x24,-58	 x24:0x00000000 x23=0xffffffc6
       44385000	      4437	80005028	00a1fab3	and	x21,x3,x10	  x3:0x00000000 x10:0x00000000 x21=0x00000000
       44395000	      4438	8000502c	00bca433	slt	x8,x25,x11	 x25:0x00000001 x11:0x00000001  x8=0x00000000
       44405000	      4439	80005030	019443b3	xor	x7,x8,x25	  x8:0x00000000 x25:0x00000001  x7=0x00000001
       44415000	      4440	80005034	7fae6e13	ori	x28,x28,2042	 x28:0xfffffbfe x28=0xfffffffe
       44425000	      4441	80005038	005a38b3	sltu	x17,x20,x5	 x20:0x00000000  x5:0x00000000 x17=0x00000000
       44435000	      4442	8000503c	5c96f297	auipc	x5,0x5c96f	  x5=0xdc974038
       44445000	      4443	80005040	41258d33	sub	x26,x11,x18	 x11:0x00000001 x18:0x80009f10 x26=0x7fff60f1
       44455000	      4444	80005044	662ce793	ori	x15,x25,1634	 x25:0x00000001 x15=0x00000663
       44465000	      4445	80005048	413bd593	srai	x11,x23,0x13	 x23:0xffffffc6 x11=0xffffffff
       44475000	      4446	8000504c	01c716b3	sll	x13,x14,x28	 x14:0x00000000 x28:0xfffffffe x13=0x00000000
       44485000	      4447	80005050	40015833	sra	x16,x2,x0	  x2:0x0000076d  x0:0x00000000 x16=0x0000076d
       44495000	      4448	80005054	fa372413	slti	x8,x14,-93	 x14:0x00000000  x8=0x00000000
       44505000	      4449	80005058	afa5f593	andi	x11,x11,-1286	 x11:0xffffffff x11=0xfffffafa
       44515000	      4450	8000505c	02735263	bge	x6,x7,80005080	  x6:0x00000000  x7:0x00000001
       44525000	      4451	80005060	01744663	blt	x8,x23,8000506c	  x8:0x00000000 x23:0xffffffc6
       44535000	      4452	80005064	01f0a733	slt	x14,x1,x31	  x1:0x00000000 x31:0x00000000 x14=0x00000000
       44545000	      4453	80005068	00795413	srli	x8,x18,0x7	 x18:0x80009f10  x8=0x0100013e
       44555000	      4454	8000506c	03acee63	bltu	x25,x26,800050a8	 x25:0x00000001 x26:0x7fff60f1
       44565000	      4455	00000000	00000013	addi	x0,x0,0	  x0:0x00000000
       44575000	      4456	800050a4	00000013	addi	x0,x0,0	  x0:0x00000000
       44585000	      4457	800050a8	1ed37413	andi	x8,x6,493	  x6:0x00000000  x8=0x00000000
       44595000	      4458	800050ac	00487833	and	x16,x16,x4	 x16:0x0000076d  x4:0x00000000 x16=0x00000000
       44605000	      4459	800050b0	0170ea63	bltu	x1,x23,800050c4	  x1:0x00000000 x23:0xffffffc6
       44615000	      4460	00000000	00000013	addi	x0,x0,0	  x0:0x00000000
       44625000	      4461	800050c0	00000013	addi	x0,x0,0	  x0:0x00000000
       44635000	      4462	800050c4	00566b33	or	x22,x12,x5	 x12:0x80009fc4  x5:0xdc974038 x22=0xdc97dffc
       44645000	      4463	800050c8	02b11e63	bne	x2,x11,80005104	  x2:0x0000076d x11:0xfffffafa
       44655000	      4464	00000000	00000013	addi	x0,x0,0	  x0:0x00000000
       44665000	      4465	80005100	00000013	addi	x0,x0,0	  x0:0x00000000
       44675000	      4466	80005104	41e486b3	sub	x13,x9,x30	  x9:0x60f00000 x30:0xf2903d81 x13=0x6e5fc27f
       44685000	      4467	80005108	010c8233	add	x4,x25,x16	 x25:0x00000001 x16:0x00000000  x4=0x00000001
       44695000	      4468	8000510c	03a0dc63	bge	x1,x26,80005144	  x1:0x00000000 x26:0x7fff60f1
       44705000	      4469	80005110	0021c433	xor	x8,x3,x2	  x3:0x00000000  x2:0x0000076d  x8=0x0000076d
       44715000	      4470	80005114	00d0d533	srl	x10,x1,x13	  x1:0x00000000 x13:0x6e5fc27f x10=0x00000000
       44725000	      4471	80005118	400d5b33	sra	x22,x26,x0	 x26:0x7fff60f1  x0:0x00000000 x22=0x7fff60f1
       44735000	      4472	8000511c	c09cf313	andi	x6,x25,-1015	 x25:0x00000001  x6=0x00000001
       44745000	      4473	80005120	00034ab3	xor	x21,x6,x0	  x6:0x00000001  x0:0x00000000 x21=0x00000001
       44755000	      4474	80005124	41db5533	sra	x10,x22,x29	 x22:0x7fff60f1 x29:0xf757b347 x10=0x00fffec1
       44765000	      4475	80005128	40f6df93	srai	x31,x13,0xf	 x13:0x6e5fc27f x31=0x0000dcbf
       44775000	      4476	8000512c	00ed2e33	slt	x28,x26,x14	 x26:0x7fff60f1 x14:0x00000000 x28=0x00000000
       44785000	      4477	80005130	00475eb3	srl	x29,x14,x4	 x14:0x00000000  x4:0x00000001 x29=0x00000000
       44795000	      4478	80005134	008e86b3	add	x13,x29,x8	 x29:0x00000000  x8:0x0000076d x13=0x0000076d
       44805000	      4479	80005138	00f60a63	beq	x12,x15,8000514c	 x12:0x80009fc4 x15:0x00000663
       44815000	      4480	8000513c	00739813	slli	x16,x7,0x7	  x7:0x00000001 x16=0x00000080
       44825000	      4481	80005140	03b54663	blt	x10,x27,8000516c	 x10:0x00fffec1 x27:0x00000000
       44835000	      4482	80005144	566fe817	auipc	x16,0x566fe	 x16=0xd6703140
       44845000	      4483	80005148	0ec21663	bne	x4,x12,80005234	  x4:0x00000001 x12:0x80009fc4
       44855000	      4484	00000000	00000013	addi	x0,x0,0	  x0:0x00000000
       44865000	      4485	80005230	00000013	addi	x0,x0,0	  x0:0x00000000
       44875000	      4486	80005234	40625493	srai	x9,x4,0x6	  x4:0x00000001  x9=0x00000000
       44885000	      4487	80005238	f546e393	ori	x7,x13,-172	 x13:0x0000076d  x7=0xffffff7d
       44895000	      4488	8000523c	01da5a33	srl	x20,x20,x29	 x20:0x00000000 x29:0x00000000 x20=0x00000000
       44905000	      4489	80005240	2a3f8d13	addi	x26,x31,675	 x31:0x0000dcbf x26=0x0000df62
       44915000	      4490	80005244	dfcbe293	ori	x5,x23,-516	 x23:0xffffffc6  x5=0xfffffffe
       44925000	      4491	80005248	ca746593	ori	x11,x8,-857	  x8:0x0000076d x11=0xffffffef
       44935000	      4492	8000524c	00abd7b3	srl	x15,x23,x10	 x23:0xffffffc6 x10:0x00fffec1 x15=0x7fffffe3
       44945000	      4493	80005250	03698063	beq	x19,x22,80005270	 x19:0x00000000 x22:0x7fff60f1
       44955000	      4494	80005254	bcc4d137	lui	x2,0xbcc4d	  x2=0xbcc4d000
       44965000	      4495	80005258	008db333	sltu	x6,x27,x8	 x27:0x00000000  x8:0x0000076d  x6=0x00000001
       44975000	      4496	8000525c	448dcd13	xori	x26,x27,1096	 x27:0x00000000 x26=0x00000448
       44985000	      4497	80005260	01b7abb3	slt	x23,x15,x27	 x15:0x7fffffe3 x27:0x00000000 x23=0x00000000
       44995000	      4498	80005264	02a5fe63	bgeu	x11,x10,800052a0	 x11:0xffffffef x10:0x00fffec1
       45005000	      4499	00000000	00000013	addi	x0,x0,0	  x0:0x00000000
       45015000	      4500	8000529c	00000013	addi	x0,x0,0	  x0:0x00000000
       45025000	      4501	800052a0	4120d1b3	sra	x3,x1,x18	  x1:0x00000000 x18:0x80009f10  x3=0x00000000
       45035000	      4502	800052a4	053c6663	bltu	x24,x19,800052f0	 x24:0x00000000 x19:0x00000000
       45045000	      4503	800052a8	32cf6297	auipc	x5,0x32cf6	  x5=0xb2cfb2a4
       45055000	      4504	800052ac	8fbbf113	andi	x2,x23,-1797	 x23:0x00000000  x2=0x00000000
       45065000	      4505	800052b0	059b1863	bne	x22,x25,80005300	 x22:0x7fff60f1 x25:0x00000001
       45075000	      4506	00000000	00000013	addi	x0,x0,0	  x0:0x00000000
       45085000	      4507	800052fc	00000013	addi	x0,x0,0	  x0:0x00000000
       45095000	      4508	80005300	000e5d33	srl	x26,x28,x0	 x28:0x00000000  x0:0x00000000 x26=0x00000000
       45105000	      4509	80005304	00dc0a63	beq	x24,x13,80005318	 x24:0x00000000 x13:0x0000076d
       45115000	      4510	80005308	58231397	auipc	x7,0x58231	  x7=0xd8236304
       45125000	      4511	8000530c	8b3a4793	xori	x15,x20,-1869	 x20:0x00000000 x15=0xfffff8b3
       45135000	      4512	80005310	e29cb437	lui	x8,0xe29cb	  x8=0xe29cb000
       45145000	      4513	80005314	9d4e8f93	addi	x31,x29,-1580	 x29:0x00000000 x31=0xfffff9d4
       45155000	      4514	80005318	01769093	slli	x1,x13,0x17	 x13:0x0000076d  x1=0xb6800000
       45165000	      4515	8000531c	22f64013	xori	x0,x12,559	 x12:0x80009fc4
       45175000	      4516	80005320	01899593	slli	x11,x19,0x18	 x19:0x00000000 x11=0x00000000
       45185000	      4517	80005324	019a75b3	and	x11,x20,x25	 x20:0x00000000 x25:0x00000001 x11=0x00000000
       45195000	      4518	80005328	02da9863	bne	x21,x13,80005358	 x21:0x00000001 x13:0x0000076d
       45205000	      4519	00000000	00000013	addi	x0,x0,0	  x0:0x00000000
       45215000	      4520	80005354	00000013	addi	x0,x0,0	  x0:0x00000000
       45225000	      4521	80005358	e891bf93	sltiu	x31,x3,-375	  x3:0x00000000 x31=0x00000001
       45235000	      4522	8000535c	03b31663	bne	x6,x27,80005388	  x6:0x00000001 x27:0x00000000
       45245000	      4523	00000000	00000013	addi	x0,x0,0	  x0:0x00000000
       45255000	      4524	80005384	00000013	addi	x0,x0,0	  x0:0x00000000
       45265000	      4525	80005388	009fdab3	srl	x21,x31,x9	 x31:0x00000001  x9:0x00000000 x21=0x00000001
       45275000	      4526	8000538c	00070433	add	x8,x14,x0	 x14:0x00000000  x0:0x00000000  x8=0x00000000
       45285000	      4527	80005390	00f610b3	sll	x1,x12,x15	 x12:0x80009fc4 x15:0xfffff8b3  x1=0xfe200000
       45295000	      4528	80005394	03bfd263	bge	x31,x27,800053b8	 x31:0x00000001 x27:0x00000000
       45305000	      4529	00000000	00000013	addi	x0,x0,0	  x0:0x00000000
       45315000	      4530	800053b4	00000013	addi	x0,x0,0	  x0:0x00000000
       45325000	      4531	800053b8	002dd893	srli	x17,x27,0x2	 x27:0x00000000 x17=0x00000000
       45335000	      4532	800053bc	41098033	sub	x0,x19,x16	 x19:0x00000000 x16:0xd6703140
       45345000	      4533	800053c0	fda50cb7	lui	x25,0xfda50	 x25=0xfda50000
       45355000	      4534	800053c4	40920ab3	sub	x21,x4,x9	  x4:0x00000001  x9:0x00000000 x21=0x00000001
       45365000	      4535	800053c8	40585c93	srai	x25,x16,0x5	 x16:0xd6703140 x25=0xfeb3818a
       45375000	      4536	800053cc	002f5e93	srli	x29,x30,0x2	 x30:0xf2903d81 x29=0x3ca40f60
       45385000	      4537	800053d0	005138b3	sltu	x17,x2,x5	  x2:0x00000000  x5:0xb2cfb2a4 x17=0x00000001
       45395000	      4538	800053d4	00000013	addi	x0,x0,0	  x0:0x00000000
       45405000	      4539	800053d8	40a4deb3	sra	x29,x9,x10	  x9:0x00000000 x10:0x00fffec1 x29=0x00000000
       45415000	      4540	800053dc	003b6cb3	or	x25,x22,x3	 x22:0x7fff60f1  x3:0x00000000 x25=0x7fff60f1
       45425000	      4541	800053e0	00e59d13	slli	x26,x11,0xe	 x11:0x00000000 x26=0x00000000
       45435000	      4542	800053e4	7f60c593	xori	x11,x1,2038	  x1:0xfe200000 x11=0xfe2007f6
       45445000	      4543	800053e8	01a36333	or	x6,x6,x26	  x6:0x00000001 x26:0x00000000  x6=0x00000001
       45455000	      4544	800053ec	4165de33	sra	x28,x11,x22	 x11:0xfe2007f6 x22:0x7fff60f1 x28=0xffffff10
       45465000	      4545	800053f0	01c24463	blt	x4,x28,800053f8	  x4:0x00000001 x28:0xffffff10
       45475000	      4546	800053f4	00e345b3	xor	x11,x6,x14	  x6:0x00000001 x14:0x00000000 x11=0x00000001
       45485000	      4547	800053f8	03d1e863	bltu	x3,x29,80005428	  x3:0x00000000 x29:0x00000000
       45495000	      4548	800053fc	15acb493	sltiu	x9,x25,346	 x25:0x7fff60f1  x9=0x00000000
       45505000	      4549	80005400	02399a63	bne	x19,x3,80005434	 x19:0x00000000  x3:0x00000000
       45515000	      4550	80005404	007858b3	srl	x17,x16,x7	 x16:0xd6703140  x7:0xd8236304 x17=0x0d670314
       45525000	      4551	80005408	01fbd4b3	srl	x9,x23,x31	 x23:0x00000000 x31:0x00000001  x9=0x00000000
       45535000	      4552	8000540c	2936e013	ori	x0,x13,659	 x13:0x0000076d
       45545000	      4553	80005410	00977a63	bgeu	x14,x9,80005424	 x14:0x00000000  x9:0x00000000
       45555000	      4554	00000000	00000013	addi	x0,x0,0	  x0:0x00000000
       45565000	      4555	80005420	00000013	addi	x0,x0,0	  x0:0x00000000
       45575000	      4556	80005424	01771a93	slli	x21,x14,0x17	 x14:0x00000000 x21=0x00000000
       45585000	      4557	80005428	009a2c33	slt	x24,x20,x9	 x20:0x00000000  x9:0x00000000 x24=0x00000000
       45595000	      4558	8000542c	01298a63	beq	x19,x18,80005440	 x19:0x00000000 x18:0x80009f10
       45605000	      4559	80005430	75fcc197	auipc	x3,0x75fcc	  x3=0xf5fd142c
       45615000	      4560	80005434	001751b3	srl	x3,x14,x1	 x14:0x00000000  x1:0xfe200000  x3=0x00000000
       45625000	      4561	80005438	00dfd663	bge	x31,x13,80005444	 x31:0x00000001 x13:0x0000076d
       45635000	      4562	8000543c	014f9993	slli	x19,x31,0x14	 x31:0x00000001 x19=0x00100000
       45645000	      4563	80005440	00392433	slt	x8,x18,x3	 x18:0x80009f10  x3:0x00000000  x8=0x00000001
       45655000	      4564	80005444	0125a233	slt	x4,x11,x18	 x11:0x00000001 x18:0x80009f10  x4=0x00000000
       45665000	      4565	80005448	417ada13	srai	x20,x21,0x17	 x21:0x00000000 x20=0x00000000
       45675000	      4566	8000544c	b773ae93	slti	x29,x7,-1161	  x7:0xd8236304 x29=0x00000001
       45685000	      4567	80005450	01129db3	sll	x27,x5,x17	  x5:0xb2cfb2a4 x17:0x0d670314 x27=0x2a400000
       45695000	      4568	80005454	7609bf93	sltiu	x31,x19,1888	 x19:0x00100000 x31=0x00000000
       45705000	      4569	80005458	74a73697	auipc	x13,0x74a73	 x13=0xf4a78454
       45715000	      4570	8000545c	0146ea63	bltu	x13,x20,80005470	 x13:0xf4a78454 x20:0x00000000
       45725000	      4571	80005460	447d7093	andi	x1,x26,1095	 x26:0x00000000  x1=0x00000000
       45735000	      4572	80005464	1804c793	xori	x15,x9,384	  x9:0x00000000 x15=0x00000180
       45745000	      4573	80005468	00904a63	blt	x0,x9,8000547c	  x0:0x00000000  x9:0x00000000
       45755000	      4574	8000546c	0048f4b3	and	x9,x17,x4	 x17:0x0d670314  x4:0x00000000  x9=0x00000000
       45765000	      4575	80005470	0ab26b97	auipc	x23,0xab26	 x23=0x8ab2b46c
       45775000	      4576	80005474	0058f8b3	and	x17,x17,x5	 x17:0x0d670314  x5:0xb2cfb2a4 x17=0x00470204
       45785000	      4577	80005478	00000013	addi	x0,x0,0	  x0:0x00000000
       45795000	      4578	8000547c	00c19e33	sll	x28,x3,x12	  x3:0x00000000 x12:0x80009fc4 x28=0x00000000
       45805000	      4579	80005480	97f9b813	sltiu	x16,x19,-1665	 x19:0x00100000 x16=0x00000001
       45815000	      4580	80005484	3b024eb7	lui	x29,0x3b024	 x29=0x3b024000
       45825000	      4581	80005488	01b21413	slli	x8,x4,0x1b	  x4:0x00000000  x8=0x00000000
       45835000	      4582	8000548c	010397b3	sll	x15,x7,x16	  x7:0xd8236304 x16:0x00000001 x15=0xb046c608
       45845000	      4583	80005490	03376263	bltu	x14,x19,800054b4	 x14:0x00000000 x19:0x00100000
       45855000	      4584	00000000	00000013	addi	x0,x0,0	  x0:0x00000000
       45865000	      4585	800054b0	00000013	addi	x0,x0,0	  x0:0x00000000
       45875000	      4586	800054b4	74bc7d37	lui	x26,0x74bc7	 x26=0x74bc7000
       45885000	      4587	800054b8	013a7e33	and	x28,x20,x19	 x20:0x00000000 x19:0x00100000 x28=0x00000000
       45895000	      4588	800054bc	40275333	sra	x6,x14,x2	 x14:0x00000000  x2:0x00000000  x6=0x00000000
       45905000	      4589	800054c0	410553b3	sra	x7,x10,x16	 x10:0x00fffec1 x16:0x00000001  x7=0x007fff60
       45915000	      4590	800054c4	00056233	or	x4,x10,x0	 x10:0x00fffec1  x0:0x00000000  x4=0x00fffec1
       45925000	      4591	800054c8	402d5a93	srai	x21,x26,0x2	 x26:0x74bc7000 x21=0x1d2f1c00
       45935000	      4592	800054cc	002d5233	srl	x4,x26,x2	 x26:0x74bc7000  x2:0x00000000  x4=0x74bc7000
       45945000	      4593	800054d0	01eab1b3	sltu	x3,x21,x30	 x21:0x1d2f1c00 x30:0xf2903d81  x3=0x00000001
       45955000	      4594	800054d4	ed9a7037	lui	x0,0xed9a7	
       45965000	      4595	800054d8	03f8c663	blt	x17,x31,80005504	 x17:0x00470204 x31:0x00000000
       45975000	      4596	800054dc	00000013	addi	x0,x0,0	  x0:0x00000000
       45985000	      4597	800054e0	400fd233	sra	x4,x31,x0	 x31:0x00000000  x0:0x00000000  x4=0x00000000
       45995000	      4598	800054e4	00b89d13	slli	x26,x17,0xb	 x17:0x00470204 x26=0x38102000
       46005000	      4599	800054e8	00e2d663	bge	x5,x14,800054f4	  x5:0xb2cfb2a4 x14:0x00000000
       46015000	      4600	800054ec	006ea9b3	slt	x19,x29,x6	 x29:0x3b024000  x6:0x00000000 x19=0x00000000
       46025000	      4601	800054f0	40c400b3	sub	x1,x8,x12	  x8:0x00000000 x12:0x80009fc4  x1=0x7fff603c
       46035000	      4602	800054f4	0025cc33	xor	x24,x11,x2	 x11:0x00000001  x2:0x00000000 x24=0x00000001
       46045000	      4603	800054f8	4039d113	srai	x2,x19,0x3	 x19:0x00000000  x2=0x00000000
       46055000	      4604	800054fc	01b0ee33	or	x28,x1,x27	  x1:0x7fff603c x27:0x2a400000 x28=0x7fff603c
       46065000	      4605	80005500	0079cab3	xor	x21,x19,x7	 x19:0x00000000  x7:0x007fff60 x21=0x007fff60
       46075000	      4606	80005504	f0a4a693	slti	x13,x9,-246	  x9:0x00000000 x13=0x00000000
       46085000	      4607	80005508	03a50863	beq	x10,x26,80005538	 x10:0x00fffec1 x26:0x38102000
       46095000	      4608	8000550c	b3f7e793	ori	x15,x15,-1217	 x15:0xb046c608 x15=0xffffff3f
       46105000	      4609	80005510	00d193b3	sll	x7,x3,x13	  x3:0x00000001 x13:0x00000000  x7=0x00000001
       46115000	      4610	80005514	00000013	addi	x0,x0,0	  x0:0x00000000
       46125000	      4611	80005518	03211a63	bne	x2,x18,8000554c	  x2:0x00000000 x18:0x80009f10
       46135000	      4612	00000000	00000013	addi	x0,x0,0	  x0:0x00000000
       46145000	      4613	80005548	00000013	addi	x0,x0,0	  x0:0x00000000
       46155000	      4614	8000554c	ec080413	addi	x8,x16,-320	 x16:0x00000001  x8=0xfffffec1
       46165000	      4615	80005550	bfbaca93	xori	x21,x21,-1029	 x21:0x007fff60 x21=0xff80049b
       46175000	      4616	80005554	00e23ab3	sltu	x21,x4,x14	  x4:0x00000000 x14:0x00000000 x21=0x00000000
       46185000	      4617	80005558	01ac58b3	srl	x17,x24,x26	 x24:0x00000001 x26:0x38102000 x17=0x00000001
       46195000	      4618	8000555c	1bcb6793	ori	x15,x22,444	 x22:0x7fff60f1 x15=0x7fff61fd
       46205000	      4619	80005560	01591313	slli	x6,x18,0x15	 x18:0x80009f10  x6=0xe2000000
       46215000	      4620	80005564	66f710b7	lui	x1,0x66f71	  x1=0x66f71000
       46225000	      4621	80005568	02384c63	blt	x16,x3,800055a0	 x16:0x00000001  x3:0x00000001
       46235000	      4622	8000556c	00172db3	slt	x27,x14,x1	 x14:0x00000000  x1:0x66f71000 x27=0x00000001
       46245000	      4623	80005570	00acfcb3	and	x25,x25,x10	 x25:0x7fff60f1 x10:0x00fffec1 x25=0x00ff60c1
       46255000	      4624	80005574	03ce7d13	andi	x26,x28,60	 x28:0x7fff603c x26=0x0000003c
       46265000	      4625	80005578	0172ddb3	srl	x27,x5,x23	  x5:0xb2cfb2a4 x23:0x8ab2b46c x27=0x000b2cfb
       46275000	      4626	8000557c	40e752b3	sra	x5,x14,x14	 x14:0x00000000 x14:0x00000000  x5=0x00000000
       46285000	      4627	80005580	03b98263	beq	x19,x27,800055a4	 x19:0x00000000 x27:0x000b2cfb
       46295000	      4628	80005584	8f554117	auipc	x2,0x8f554	  x2=0x0f559580
       46305000	      4629	80005588	00a127b3	slt	x15,x2,x10	  x2:0x0f559580 x10:0x00fffec1 x15=0x00000000
       46315000	      4630	8000558c	03d5c063	blt	x11,x29,800055ac	 x11:0x00000001 x29:0x3b024000
       46325000	      4631	00000000	00000013	addi	x0,x0,0	  x0:0x00000000
       46335000	      4632	800055a8	00000013	addi	x0,x0,0	  x0:0x00000000
       46345000	      4633	800055ac	40afd013	srai	x0,x31,0xa	 x31:0x00000000
       46355000	      4634	800055b0	017d5693	srli	x13,x26,0x17	 x26:0x0000003c x13=0x00000000
       46365000	      4635	800055b4	03776063	bltu	x14,x23,800055d4	 x14:0x00000000 x23:0x8ab2b46c
       46375000	      4636	00000000	00000013	addi	x0,x0,0	  x0:0x00000000
       46385000	      4637	800055d0	00000013	addi	x0,x0,0	  x0:0x00000000
       46395000	      4638	800055d4	0296e663	bltu	x13,x9,80005600	 x13:0x00000000  x9:0x00000000
       46405000	      4639	800055d8	4135d713	srai	x14,x11,0x13	 x11:0x00000001 x14=0x00000000
       46415000	      4640	800055dc	fc449c37	lui	x24,0xfc449	 x24=0xfc449000
       46425000	      4641	800055e0	414c5893	srai	x17,x24,0x14	 x24:0xfc449000 x17=0xffffffc4
       46435000	      4642	800055e4	04d25863	bge	x4,x13,80005634	  x4:0x00000000 x13:0x00000000
       46445000	      4643	00000000	00000013	addi	x0,x0,0	  x0:0x00000000
       46455000	      4644	80005630	00000013	addi	x0,x0,0	  x0:0x00000000
       46465000	      4645	80005634	210c2113	slti	x2,x24,528	 x24:0xfc449000  x2=0x00000001
       46475000	      4646	80005638	5a896d13	ori	x26,x18,1448	 x18:0x80009f10 x26=0x80009fb8
       46485000	      4647	8000563c	05720663	beq	x4,x23,80005688	  x4:0x00000000 x23:0x8ab2b46c
       46495000	      4648	80005640	004ad133	srl	x2,x21,x4	 x21:0x00000000  x4:0x00000000  x2=0x00000000
       46505000	      4649	80005644	f269f217	auipc	x4,0xf269f	  x4=0x726a4640
       46515000	      4650	80005648	0018eeb3	or	x29,x17,x1	 x17:0xffffffc4  x1:0x66f71000 x29=0xffffffc4
       46525000	      4651	8000564c	0004d593	srli	x11,x9,0x0	  x9:0x00000000 x11=0x00000000
       46535000	      4652	80005650	41f05893	srai	x17,x0,0x1f	  x0:0x00000000 x17=0x00000000
       46545000	      4653	80005654	01b76c63	bltu	x14,x27,8000566c	 x14:0x00000000 x27:0x000b2cfb
       46555000	      4654	00000000	00000013	addi	x0,x0,0	  x0:0x00000000
       46565000	      4655	80005668	00000013	addi	x0,x0,0	  x0:0x00000000
       46575000	      4656	8000566c	02ed0863	beq	x26,x14,8000569c	 x26:0x80009fb8 x14:0x00000000
       46585000	      4657	80005670	0128d313	srli	x6,x17,0x12	 x17:0x00000000  x6=0x00000000
       46595000	      4658	80005674	00eb0a63	beq	x22,x14,80005688	 x22:0x7fff60f1 x14:0x00000000
       46605000	      4659	80005678	01a69d93	slli	x27,x13,0x1a	 x13:0x00000000 x27=0x00000000
       46615000	      4660	8000567c	85aba013	slti	x0,x23,-1958	 x23:0x8ab2b46c
       46625000	      4661	80005680	001ad663	bge	x21,x1,8000568c	 x21:0x00000000  x1:0x66f71000
       46635000	      4662	80005684	04e98663	beq	x19,x14,800056d0	 x19:0x00000000 x14:0x00000000
       46645000	      4663	00000000	00000013	addi	x0,x0,0	  x0:0x00000000
       46655000	      4664	800056cc	00000013	addi	x0,x0,0	  x0:0x00000000
       46665000	      4665	800056d0	02a38e63	beq	x7,x10,8000570c	  x7:0x00000001 x10:0x00fffec1
       46675000	      4666	800056d4	0012a8b3	slt	x17,x5,x1	  x5:0x00000000  x1:0x66f71000 x17=0x00000001
       46685000	      4667	800056d8	114ca113	slti	x2,x25,276	 x25:0x00ff60c1  x2=0x00000000
       46695000	      4668	800056dc	fe754293	xori	x5,x10,-25	 x10:0x00fffec1  x5=0xff000126
       46705000	      4669	800056e0	010e5ab3	srl	x21,x28,x16	 x28:0x7fff603c x16:0x00000001 x21=0x3fffb01e
       46715000	      4670	800056e4	0154edb3	or	x27,x9,x21	  x9:0x00000000 x21:0x3fffb01e x27=0x3fffb01e
       46725000	      4671	800056e8	c2dcfd13	andi	x26,x25,-979	 x25:0x00ff60c1 x26=0x00ff6001
       46735000	      4672	800056ec	01656463	bltu	x10,x22,800056f4	 x10:0x00fffec1 x22:0x7fff60f1
       46745000	      4673	00000000	00000013	addi	x0,x0,0	  x0:0x00000000
       46755000	      4674	800056f0	00000013	addi	x0,x0,0	  x0:0x00000000
       46765000	      4675	800056f4	2180b213	sltiu	x4,x1,536	  x1:0x66f71000  x4=0x00000000
       46775000	      4676	800056f8	6b024c13	xori	x24,x4,1712	  x4:0x00000000 x24=0x000006b0
       46785000	      4677	800056fc	c60fc293	xori	x5,x31,-928	 x31:0x00000000  x5=0xfffffc60
       46795000	      4678	80005700	51057d93	andi	x27,x10,1296	 x10:0x00fffec1 x27=0x00000400
       46805000	      4679	80005704	005f1bb3	sll	x23,x30,x5	 x30:0xf2903d81  x5:0xfffffc60 x23=0xf2903d81
       46815000	      4680	80005708	40d158b3	sra	x17,x2,x13	  x2:0x00000000 x13:0x00000000 x17=0x00000000
       46825000	      4681	8000570c	53864493	xori	x9,x12,1336	 x12:0x80009fc4  x9=0x80009afc
       46835000	      4682	80005710	0268d863	bge	x17,x6,80005740	 x17:0x00000000  x6:0x00000000
       46845000	      4683	00000000	00000013	addi	x0,x0,0	  x0:0x00000000
       46855000	      4684	8000573c	00000013	addi	x0,x0,0	  x0:0x00000000
       46865000	      4685	80005740	0049ca63	blt	x19,x4,80005754	 x19:0x00000000  x4:0x00000000
       46875000	      4686	80005744	01100a63	beq	x0,x17,80005758	  x0:0x00000000 x17:0x00000000
       46885000	      4687	00000000	00000013	addi	x0,x0,0	  x0:0x00000000
       46895000	      4688	80005754	00000013	addi	x0,x0,0	  x0:0x00000000
       46905000	      4689	80005758	be537b13	andi	x22,x6,-1051	  x6:0x00000000 x22=0x00000000
       46915000	      4690	8000575c	0152c833	xor	x16,x5,x21	  x5:0xfffffc60 x21:0x3fffb01e x16=0xc0004c7e
       46925000	      4691	80005760	02b49a63	bne	x9,x11,80005794	  x9:0x80009afc x11:0x00000000
       46935000	      4692	00000000	00000013	addi	x0,x0,0	  x0:0x00000000
       46945000	      4693	80005790	00000013	addi	x0,x0,0	  x0:0x00000000
       46955000	      4694	80005794	01a4b233	sltu	x4,x9,x26	  x9:0x80009afc x26:0x00ff6001  x4=0x00000000
       46965000	      4695	80005798	03310063	beq	x2,x19,800057b8	  x2:0x00000000 x19:0x00000000
       46975000	      4696	00000000	00000013	addi	x0,x0,0	  x0:0x00000000
       46985000	      4697	800057b4	00000013	addi	x0,x0,0	  x0:0x00000000
       46995000	      4698	800057b8	40fc5b93	srai	x23,x24,0xf	 x24:0x000006b0 x23=0x00000000
       47005000	      4699	800057bc	41bf5193	srai	x3,x30,0x1b	 x30:0xf2903d81  x3=0xfffffffe
       47015000	      4700	800057c0	0044dc13	srli	x24,x9,0x4	  x9:0x80009afc x24=0x080009af
       47025000	      4701	800057c4	0081bab3	sltu	x21,x3,x8	  x3:0xfffffffe  x8:0xfffffec1 x21=0x00000000
       47035000	      4702	800057c8	c330b693	sltiu	x13,x1,-973	  x1:0x66f71000 x13=0x00000001
       47045000	      4703	800057cc	4045de93	srai	x29,x11,0x4	 x11:0x00000000 x29=0x00000000
       47055000	      4704	800057d0	02899063	bne	x19,x8,800057f0	 x19:0x00000000  x8:0xfffffec1
       47065000	      4705	00000000	00000013	addi	x0,x0,0	  x0:0x00000000
       47075000	      4706	800057ec	00000013	addi	x0,x0,0	  x0:0x00000000
       47085000	      4707	800057f0	a73f0593	addi	x11,x30,-1421	 x30:0xf2903d81 x11=0xf29037f4
       47095000	      4708	800057f4	028a1263	bne	x20,x8,80005818	 x20:0x00000000  x8:0xfffffec1
       47105000	      4709	00000000	00000013	addi	x0,x0,0	  x0:0x00000000
       47115000	      4710	80005814	00000013	addi	x0,x0,0	  x0:0x00000000
       47125000	      4711	80005818	008c5013	srli	x0,x24,0x8	 x24:0x080009af
       47135000	      4712	8000581c	00fd1c63	bne	x26,x15,80005834	 x26:0x00ff6001 x15:0x00000000
       47145000	      4713	00000000	00000013	addi	x0,x0,0	  x0:0x00000000
       47155000	      4714	80005830	00000013	addi	x0,x0,0	  x0:0x00000000
       47165000	      4715	80005834	03ea1e63	bne	x20,x30,80005870	 x20:0x00000000 x30:0xf2903d81
       47175000	      4716	00000000	00000013	addi	x0,x0,0	  x0:0x00000000
       47185000	      4717	8000586c	00000013	addi	x0,x0,0	  x0:0x00000000
       47195000	      4718	80005870	03328063	beq	x5,x19,80005890	  x5:0xfffffc60 x19:0x00000000
       47205000	      4719	80005874	016b1213	slli	x4,x22,0x16	 x22:0x00000000  x4=0x00000000
       47215000	      4720	80005878	01cf5393	srli	x7,x30,0x1c	 x30:0xf2903d81  x7=0x0000000f
       47225000	      4721	8000587c	017a1eb3	sll	x29,x20,x23	 x20:0x00000000 x23:0x00000000 x29=0x00000000
       47235000	      4722	80005880	005ac4b3	xor	x9,x21,x5	 x21:0x00000000  x5:0xfffffc60  x9=0xfffffc60
       47245000	      4723	80005884	0043d293	srli	x5,x7,0x4	  x7:0x0000000f  x5=0x00000000
       47255000	      4724	80005888	f98bec93	ori	x25,x23,-104	 x23:0x00000000 x25=0xffffff98
       47265000	      4725	8000588c	021d0663	beq	x26,x1,800058b8	 x26:0x00ff6001  x1:0x66f71000
       47275000	      4726	80005890	018a9133	sll	x2,x21,x24	 x21:0x00000000 x24:0x080009af  x2=0x00000000
       47285000	      4727	80005894	fb882693	slti	x13,x16,-72	 x16:0xc0004c7e x13=0x00000001
       47295000	      4728	80005898	0138a733	slt	x14,x17,x19	 x17:0x00000000 x19:0x00000000 x14=0x00000000
       47305000	      4729	8000589c	07b8e213	ori	x4,x17,123	 x17:0x00000000  x4=0x0000007b
       47315000	      4730	800058a0	01ef7a63	bgeu	x30,x30,800058b4	 x30:0xf2903d81 x30:0xf2903d81
       47325000	      4731	00000000	00000013	addi	x0,x0,0	  x0:0x00000000
       47335000	      4732	800058b0	00000013	addi	x0,x0,0	  x0:0x00000000
       47345000	      4733	800058b4	07836293	ori	x5,x6,120	  x6:0x00000000  x5=0x00000078
       47355000	      4734	800058b8	0179c7b3	xor	x15,x19,x23	 x19:0x00000000 x23:0x00000000 x15=0x00000000
       47365000	      4735	800058bc	008f5d33	srl	x26,x30,x8	 x30:0xf2903d81  x8:0xfffffec1 x26=0x79481ec0
       47375000	      4736	800058c0	009b7c33	and	x24,x22,x9	 x22:0x00000000  x9:0xfffffc60 x24=0x00000000
       47385000	      4737	800058c4	00000013	addi	x0,x0,0	  x0:0x00000000
       47395000	      4738	800058c8	6a3fe197	auipc	x3,0x6a3fe	  x3=0xea4038c4
       47405000	      4739	800058cc	00000013	addi	x0,x0,0	  x0:0x00000000
       47415000	      4740	800058d0	03ffd063	bge	x31,x31,800058f0	 x31:0x00000000 x31:0x00000000
       47425000	      4741	00000000	00000013	addi	x0,x0,0	  x0:0x00000000
       47435000	      4742	800058ec	00000013	addi	x0,x0,0	  x0:0x00000000
       47445000	      4743	800058f0	00a5a133	slt	x2,x11,x10	 x11:0xf29037f4 x10:0x00fffec1  x2=0x00000001
       47455000	      4744	800058f4	03c96e63	bltu	x18,x28,80005930	 x18:0x80009f10 x28:0x7fff603c
       47465000	      4745	800058f8	0089fa63	bgeu	x19,x8,8000590c	 x19:0x00000000  x8:0xfffffec1
       47475000	      4746	800058fc	006d0cb3	add	x25,x26,x6	 x26:0x79481ec0  x6:0x00000000 x25=0x79481ec0
       47485000	      4747	80005900	00000013	addi	x0,x0,0	  x0:0x00000000
       47495000	      4748	80005904	01445ab3	srl	x21,x8,x20	  x8:0xfffffec1 x20:0x00000000 x21=0xfffffec1
       47505000	      4749	80005908	b7736013	ori	x0,x6,-1161	  x6:0x00000000
       47515000	      4750	8000590c	a6a16513	ori	x10,x2,-1430	  x2:0x00000001 x10=0xfffffa6b
       47525000	      4751	80005910	016a3733	sltu	x14,x20,x22	 x20:0x00000000 x22:0x00000000 x14=0x00000000
       47535000	      4752	80005914	02001263	bne	x0,x0,80005938	  x0:0x00000000  x0:0x00000000
       47545000	      4753	80005918	00956ab3	or	x21,x10,x9	 x10:0xfffffa6b  x9:0xfffffc60 x21=0xfffffe6b
       47555000	      4754	8000591c	6ad5f793	andi	x15,x11,1709	 x11:0xf29037f4 x15=0x000006a4
       47565000	      4755	80005920	4007d493	srai	x9,x15,0x0	 x15:0x000006a4  x9=0x000006a4
       47575000	      4756	80005924	d1c39817	auipc	x16,0xd1c39	 x16=0x51c3e920
       47585000	      4757	80005928	017178b3	and	x17,x2,x23	  x2:0x00000001 x23:0x00000000 x17=0x00000000
       47595000	      4758	8000592c	6723c513	xori	x10,x7,1650	  x7:0x0000000f x10=0x0000067d
       47605000	      4759	80005930	411380b3	sub	x1,x7,x17	  x7:0x0000000f x17:0x00000000  x1=0x0000000f
       47615000	      4760	80005934	13c97a97	auipc	x21,0x13c97	 x21=0x93c9c930
       47625000	      4761	80005938	41a583b3	sub	x7,x11,x26	 x11:0xf29037f4 x26:0x79481ec0  x7=0x79481934
       47635000	      4762	8000593c	01f7b1b3	sltu	x3,x15,x31	 x15:0x000006a4 x31:0x00000000  x3=0x00000000
       47645000	      4763	80005940	8c6f1e37	lui	x28,0x8c6f1	 x28=0x8c6f1000
       47655000	      4764	80005944	ac0d7113	andi	x2,x26,-1344	 x26:0x79481ec0  x2=0x79481ac0
       47665000	      4765	80005948	01ebd0b3	srl	x1,x23,x30	 x23:0x00000000 x30:0xf2903d81  x1=0x00000000
       47675000	      4766	8000594c	006a5293	srli	x5,x20,0x6	 x20:0x00000000  x5=0x00000000
       47685000	      4767	80005950	52944513	xori	x10,x8,1321	  x8:0xfffffec1 x10=0xfffffbe8
       47695000	      4768	80005954	01c4c8b3	xor	x17,x9,x28	  x9:0x000006a4 x28:0x8c6f1000 x17=0x8c6f16a4
       47705000	      4769	80005958	0deae493	ori	x9,x21,222	 x21:0x93c9c930  x9=0x93c9c9fe
       47715000	      4770	8000595c	00000013	addi	x0,x0,0	  x0:0x00000000
       47725000	      4771	80005960	410483b3	sub	x7,x9,x16	  x9:0x93c9c9fe x16:0x51c3e920  x7=0x4205e0de
       47735000	      4772	80005964	00517433	and	x8,x2,x5	  x2:0x79481ac0  x5:0x00000000  x8=0x00000000
       47745000	      4773	80005968	0033dc93	srli	x25,x7,0x3	  x7:0x4205e0de x25=0x0840bc1b
       47755000	      4774	8000596c	97da7813	andi	x16,x20,-1667	 x20:0x00000000 x16=0x00000000
       47765000	      4775	80005970	01689533	sll	x10,x17,x22	 x17:0x8c6f16a4 x22:0x00000000 x10=0x8c6f16a4
       47775000	      4776	80005974	0029b6b3	sltu	x13,x19,x2	 x19:0x00000000  x2:0x79481ac0 x13=0x00000001
       47785000	      4777	80005978	036c7263	bgeu	x24,x22,8000599c	 x24:0x00000000 x22:0x00000000
       47795000	      4778	00000000	00000013	addi	x0,x0,0	  x0:0x00000000
       47805000	      4779	80005998	00000013	addi	x0,x0,0	  x0:0x00000000
       47815000	      4780	8000599c	0ebe7eb7	lui	x29,0xebe7	 x29=0x0ebe7000
       47825000	      4781	800059a0	0101d8b3	srl	x17,x3,x16	  x3:0x00000000 x16:0x00000000 x17=0x00000000
       47835000	      4782	800059a4	0135c9b3	xor	x19,x11,x19	 x11:0xf29037f4 x19:0x00000000 x19=0xf29037f4
       47845000	      4783	800059a8	0102eab3	or	x21,x5,x16	  x5:0x00000000 x16:0x00000000 x21=0x00000000
       47855000	      4784	800059ac	00000013	addi	x0,x0,0	  x0:0x00000000
       47865000	      4785	800059b0	80d2a593	slti	x11,x5,-2035	  x5:0x00000000 x11=0x00000000
       47875000	      4786	800059b4	0082feb3	and	x29,x5,x8	  x5:0x00000000  x8:0x00000000 x29=0x00000000
       47885000	      4787	800059b8	00000013	addi	x0,x0,0	  x0:0x00000000
       47895000	      4788	800059bc	24db0c13	addi	x24,x22,589	 x22:0x00000000 x24=0x0000024d
       47905000	      4789	800059c0	0efae463	bltu	x21,x15,80005aa8	 x21:0x00000000 x15:0x000006a4
       47915000	      4790	00000000	00000013	addi	x0,x0,0	  x0:0x00000000
       47925000	      4791	80005aa4	00000013	addi	x0,x0,0	  x0:0x00000000
       47935000	      4792	80005aa8	a64ae593	ori	x11,x21,-1436	 x21:0x00000000 x11=0xfffffa64
       47945000	      4793	80005aac	01cab3b3	sltu	x7,x21,x28	 x21:0x00000000 x28:0x8c6f1000  x7=0x00000001
       47955000	      4794	80005ab0	aa528d13	addi	x26,x5,-1371	  x5:0x00000000 x26=0xfffffaa5
       47965000	      4795	80005ab4	8cabba93	sltiu	x21,x23,-1846	 x23:0x00000000 x21=0x00000001
       47975000	      4796	80005ab8	75f06f93	ori	x31,x0,1887	  x0:0x00000000 x31=0x0000075f
       47985000	      4797	80005abc	00000013	addi	x0,x0,0	  x0:0x00000000
       47995000	      4798	80005ac0	00000013	addi	x0,x0,0	  x0:0x00000000
       48005000	      4799	80005ac4	01c62eb3	slt	x29,x12,x28	 x12:0x80009fc4 x28:0x8c6f1000 x29=0x00000001
       48015000	      4800	80005ac8	01c75533	srl	x10,x14,x28	 x14:0x00000000 x28:0x8c6f1000 x10=0x00000000
       48025000	      4801	80005acc	008a18b3	sll	x17,x20,x8	 x20:0x00000000  x8:0x00000000 x17=0x00000000
       48035000	      4802	80005ad0	41e88bb3	sub	x23,x17,x30	 x17:0x00000000 x30:0xf2903d81 x23=0x0d6fc27f
       48045000	      4803	80005ad4	00b27263	bgeu	x4,x11,80005ad8	  x4:0x0000007b x11:0xfffffa64
       48055000	      4804	80005ad8	03abcc63	blt	x23,x26,80005b10	 x23:0x0d6fc27f x26:0xfffffaa5
       48065000	      4805	80005adc	8fd3d897	auipc	x17,0x8fd3d	 x17=0x0fd42ad8
       48075000	      4806	80005ae0	1a8abd93	sltiu	x27,x21,424	 x21:0x00000001 x27=0x00000001
       48085000	      4807	80005ae4	017b0fb3	add	x31,x22,x23	 x22:0x00000000 x23:0x0d6fc27f x31=0x0d6fc27f
       48095000	      4808	80005ae8	01dde9b3	or	x19,x27,x29	 x27:0x00000001 x29:0x00000001 x19=0x00000001
       48105000	      4809	80005aec	01ce1133	sll	x2,x28,x28	 x28:0x8c6f1000 x28:0x8c6f1000  x2=0x8c6f1000
       48115000	      4810	80005af0	0141b433	sltu	x8,x3,x20	  x3:0x00000000 x20:0x00000000  x8=0x00000000
       48125000	      4811	80005af4	00941663	bne	x8,x9,80005b00	  x8:0x00000000  x9:0x93c9c9fe
       48135000	      4812	00000000	00000013	addi	x0,x0,0	  x0:0x00000000
       48145000	      4813	80005afc	00000013	addi	x0,x0,0	  x0:0x00000000
       48155000	      4814	80005b00	00000013	addi	x0,x0,0	  x0:0x00000000
       48165000	      4815	80005b04	017255b3	srl	x11,x4,x23	  x4:0x0000007b x23:0x0d6fc27f x11=0x00000000
       48175000	      4816	80005b08	17ce9017	auipc	x0,0x17ce9	
       48185000	      4817	80005b0c	01ffe133	or	x2,x31,x31	 x31:0x0d6fc27f x31:0x0d6fc27f  x2=0x0d6fc27f
       48195000	      4818	80005b10	01775333	srl	x6,x14,x23	 x14:0x00000000 x23:0x0d6fc27f  x6=0x00000000
       48205000	      4819	80005b14	01a7e4b3	or	x9,x15,x26	 x15:0x000006a4 x26:0xfffffaa5  x9=0xfffffea5
       48215000	      4820	80005b18	007a89b3	add	x19,x21,x7	 x21:0x00000001  x7:0x00000001 x19=0x00000002
       48225000	      4821	80005b1c	0177c4b3	xor	x9,x15,x23	 x15:0x000006a4 x23:0x0d6fc27f  x9=0x0d6fc4db
       48235000	      4822	80005b20	05b86663	bltu	x16,x27,80005b6c	 x16:0x00000000 x27:0x00000001
       48245000	      4823	00000000	00000013	addi	x0,x0,0	  x0:0x00000000
       48255000	      4824	80005b68	00000013	addi	x0,x0,0	  x0:0x00000000
       48265000	      4825	80005b6c	c405ab93	slti	x23,x11,-960	 x11:0x00000000 x23=0x00000000
       48275000	      4826	80005b70	00209893	slli	x17,x1,0x2	  x1:0x00000000 x17=0x00000000
       48285000	      4827	80005b74	619f7713	andi	x14,x30,1561	 x30:0xf2903d81 x14=0x00000401
       48295000	      4828	80005b78	00000013	addi	x0,x0,0	  x0:0x00000000
       48305000	      4829	80005b7c	01b67333	and	x6,x12,x27	 x12:0x80009fc4 x27:0x00000001  x6=0x00000000
       48315000	      4830	80005b80	474f2a93	slti	x21,x30,1140	 x30:0xf2903d81 x21=0x00000001
       48325000	      4831	80005b84	00752db3	slt	x27,x10,x7	 x10:0x00000000  x7:0x00000001 x27=0x00000001
       48335000	      4832	80005b88	40995d93	srai	x27,x18,0x9	 x18:0x80009f10 x27=0xffc0004f
       48345000	      4833	80005b8c	0012d813	srli	x16,x5,0x1	  x5:0x00000000 x16=0x00000000
       48355000	      4834	80005b90	01c73733	sltu	x14,x14,x28	 x14:0x00000401 x28:0x8c6f1000 x14=0x00000001
       48365000	      4835	80005b94	00a762b3	or	x5,x14,x10	 x14:0x00000001 x10:0x00000000  x5=0x00000001
       48375000	      4836	80005b98	3914fc37	lui	x24,0x3914f	 x24=0x3914f000
       48385000	      4837	80005b9c	011b9833	sll	x16,x23,x17	 x23:0x00000000 x17:0x00000000 x16=0x00000000
       48395000	      4838	80005ba0	03f81a63	bne	x16,x31,80005bd4	 x16:0x00000000 x31:0x0d6fc27f
       48405000	      4839	00000000	00000013	addi	x0,x0,0	  x0:0x00000000
       48415000	      4840	80005bd0	00000013	addi	x0,x0,0	  x0:0x00000000
       48425000	      4841	80005bd4	0027a533	slt	x10,x15,x2	 x15:0x000006a4  x2:0x0d6fc27f x10=0x00000001
       48435000	      4842	80005bd8	0193f663	bgeu	x7,x25,80005be4	  x7:0x00000001 x25:0x0840bc1b
       48445000	      4843	80005bdc	0092d133	srl	x2,x5,x9	  x5:0x00000001  x9:0x0d6fc4db  x2=0x00000000
       48455000	      4844	80005be0	409a5193	srai	x3,x20,0x9	 x20:0x00000000  x3=0x00000000
       48465000	      4845	80005be4	00000013	addi	x0,x0,0	  x0:0x00000000
       48475000	      4846	80005be8	41e157b3	sra	x15,x2,x30	  x2:0x00000000 x30:0xf2903d81 x15=0x00000000
       48485000	      4847	80005bec	00c47c33	and	x24,x8,x12	  x8:0x00000000 x12:0x80009fc4 x24=0x00000000
       48495000	      4848	80005bf0	be872413	slti	x8,x14,-1048	 x14:0x00000001  x8=0x00000000
       48505000	      4849	80005bf4	0074d133	srl	x2,x9,x7	  x9:0x0d6fc4db  x7:0x00000001  x2=0x06b7e26d
       48515000	      4850	80005bf8	01af8733	add	x14,x31,x26	 x31:0x0d6fc27f x26:0xfffffaa5 x14=0x0d6fbd24
       48525000	      4851	80005bfc	03e96c63	bltu	x18,x30,80005c34	 x18:0x80009f10 x30:0xf2903d81
       48535000	      4852	00000000	00000013	addi	x0,x0,0	  x0:0x00000000
       48545000	      4853	80005c30	00000013	addi	x0,x0,0	  x0:0x00000000
       48555000	      4854	80005c34	401c5b33	sra	x22,x24,x1	 x24:0x00000000  x1:0x00000000 x22=0x00000000
       48565000	      4855	80005c38	00401413	slli	x8,x0,0x4	  x0:0x00000000  x8=0x00000000
       48575000	      4856	80005c3c	0023edb3	or	x27,x7,x2	  x7:0x00000001  x2:0x06b7e26d x27=0x06b7e26d
       48585000	      4857	80005c40	0485aeb7	lui	x29,0x485a	 x29=0x0485a000
       48595000	      4858	80005c44	01ab1013	slli	x0,x22,0x1a	 x22:0x00000000
       48605000	      4859	80005c48	002f3233	sltu	x4,x30,x2	 x30:0xf2903d81  x2:0x06b7e26d  x4=0x00000000
       48615000	      4860	80005c4c	00711a33	sll	x20,x2,x7	  x2:0x06b7e26d  x7:0x00000001 x20=0x0d6fc4da
       48625000	      4861	80005c50	002c5e13	srli	x28,x24,0x2	 x24:0x00000000 x28=0x00000000
       48635000	      4862	80005c54	00000013	addi	x0,x0,0	  x0:0x00000000
       48645000	      4863	80005c58	01881e13	slli	x28,x16,0x18	 x16:0x00000000 x28=0x00000000
       48655000	      4864	80005c5c	013947b3	xor	x15,x18,x19	 x18:0x80009f10 x19:0x00000002 x15=0x80009f12
       48665000	      4865	80005c60	0404d663	bge	x9,x0,80005cac	  x9:0x0d6fc4db  x0:0x00000000
       48675000	      4866	00000000	00000013	addi	x0,x0,0	  x0:0x00000000
       48685000	      4867	80005ca8	00000013	addi	x0,x0,0	  x0:0x00000000
       48695000	      4868	80005cac	40c25813	srai	x16,x4,0xc	  x4:0x00000000 x16=0x00000000
       48705000	      4869	80005cb0	9f332293	slti	x5,x6,-1549	  x6:0x00000000  x5=0x00000000
       48715000	      4870	80005cb4	00c41e13	slli	x28,x8,0xc	  x8:0x00000000 x28=0x00000000
       48725000	      4871	80005cb8	0131c663	blt	x3,x19,80005cc4	  x3:0x00000000 x19:0x00000002
       48735000	      4872	00000000	00000013	addi	x0,x0,0	  x0:0x00000000
       48745000	      4873	80005cc0	00000013	addi	x0,x0,0	  x0:0x00000000
       48755000	      4874	80005cc4	0034cd33	xor	x26,x9,x3	  x9:0x0d6fc4db  x3:0x00000000 x26=0x0d6fc4db
       48765000	      4875	80005cc8	71718793	addi	x15,x3,1815	  x3:0x00000000 x15=0x00000717
       48775000	      4876	80005ccc	367b7993	andi	x19,x22,871	 x22:0x00000000 x19=0x00000000
       48785000	      4877	80005cd0	02d54063	blt	x10,x13,80005cf0	 x10:0x00000001 x13:0x00000001
       48795000	      4878	80005cd4	016a6033	or	x0,x20,x22	 x20:0x0d6fc4da x22:0x00000000
       48805000	      4879	80005cd8	46b92c93	slti	x25,x18,1131	 x18:0x80009f10 x25=0x00000001
       48815000	      4880	80005cdc	00ea3c13	sltiu	x24,x20,14	 x20:0x0d6fc4da x24=0x00000000
       48825000	      4881	80005ce0	7831c313	xori	x6,x3,1923	  x3:0x00000000  x6=0x00000783
       48835000	      4882	80005ce4	41bfd133	sra	x2,x31,x27	 x31:0x0d6fc27f x27:0x06b7e26d  x2=0x00006b7e
       48845000	      4883	80005ce8	749b0c93	addi	x25,x22,1865	 x22:0x00000000 x25=0x00000749
       48855000	      4884	80005cec	00b05eb3	srl	x29,x0,x11	  x0:0x00000000 x11:0x00000000 x29=0x00000000
       48865000	      4885	80005cf0	01d847b3	xor	x15,x16,x29	 x16:0x00000000 x29:0x00000000 x15=0x00000000
       48875000	      4886	80005cf4	005e5e33	srl	x28,x28,x5	 x28:0x00000000  x5:0x00000000 x28=0x00000000
       48885000	      4887	80005cf8	01559c33	sll	x24,x11,x21	 x11:0x00000000 x21:0x00000001 x24=0x00000000
       48895000	      4888	80005cfc	1e15ea13	ori	x20,x11,481	 x11:0x00000000 x20=0x000001e1
       48905000	      4889	80005d00	003cedb3	or	x27,x25,x3	 x25:0x00000749  x3:0x00000000 x27=0x00000749
       48915000	      4890	80005d04	eff2c593	xori	x11,x5,-257	  x5:0x00000000 x11=0xfffffeff
       48925000	      4891	80005d08	01a79433	sll	x8,x15,x26	 x15:0x00000000 x26:0x0d6fc4db  x8=0x00000000
       48935000	      4892	80005d0c	01af9a93	slli	x21,x31,0x1a	 x31:0x0d6fc27f x21=0xfc000000
       48945000	      4893	80005d10	6d97e337	lui	x6,0x6d97e	  x6=0x6d97e000
       48955000	      4894	80005d14	e779ca93	xori	x21,x19,-393	 x19:0x00000000 x21=0xfffffe77
       48965000	      4895	80005d18	00ba05b3	add	x11,x20,x11	 x20:0x000001e1 x11:0xfffffeff x11=0x000000e0
       48975000	      4896	80005d1c	02538e63	beq	x7,x5,80005d58	  x7:0x00000001  x5:0x00000000
       48985000	      4897	80005d20	00fbf2b3	and	x5,x23,x15	 x23:0x00000000 x15:0x00000000  x5=0x00000000
       48995000	      4898	80005d24	be748893	addi	x17,x9,-1049	  x9:0x0d6fc4db x17=0x0d6fc0c2
       49005000	      4899	80005d28	df112693	slti	x13,x2,-527	  x2:0x00006b7e x13=0x00000000
       49015000	      4900	80005d2c	ac58ba93	sltiu	x21,x17,-1339	 x17:0x0d6fc0c2 x21=0x00000001
       49025000	      4901	80005d30	ccf2f993	andi	x19,x5,-817	  x5:0x00000000 x19=0x00000000
       49035000	      4902	80005d34	032e8863	beq	x29,x18,80005d64	 x29:0x00000000 x18:0x80009f10
       49045000	      4903	80005d38	01c76263	bltu	x14,x28,80005d3c	 x14:0x0d6fbd24 x28:0x00000000
       49055000	      4904	80005d3c	51ea1cb7	lui	x25,0x51ea1	 x25=0x51ea1000
       49065000	      4905	80005d40	01f589b3	add	x19,x11,x31	 x11:0x000000e0 x31:0x0d6fc27f x19=0x0d6fc35f
       49075000	      4906	80005d44	02b07e63	bgeu	x0,x11,80005d80	  x0:0x00000000 x11:0x000000e0
       49085000	      4907	80005d48	02879063	bne	x15,x8,80005d68	 x15:0x00000000  x8:0x00000000
       49095000	      4908	80005d4c	00079133	sll	x2,x15,x0	 x15:0x00000000  x0:0x00000000  x2=0x00000000
       49105000	      4909	80005d50	00b0ab33	slt	x22,x1,x11	  x1:0x00000000 x11:0x000000e0 x22=0x00000001
       49115000	      4910	80005d54	000e5393	srli	x7,x28,0x0	 x28:0x00000000  x7=0x00000000
       49125000	      4911	80005d58	0307f263	bgeu	x15,x16,80005d7c	 x15:0x00000000 x16:0x00000000
       49135000	      4912	00000000	00000013	addi	x0,x0,0	  x0:0x00000000
       49145000	      4913	80005d78	00000013	addi	x0,x0,0	  x0:0x00000000
       49155000	      4914	80005d7c	0858a713	slti	x14,x17,133	 x17:0x0d6fc0c2 x14=0x00000000
       49165000	      4915	80005d80	01035833	srl	x16,x6,x16	  x6:0x6d97e000 x16:0x00000000 x16=0x6d97e000
       49175000	      4916	80005d84	00845a63	bge	x8,x8,80005d98	  x8:0x00000000  x8:0x00000000
       49185000	      4917	00000000	00000013	addi	x0,x0,0	  x0:0x00000000
       49195000	      4918	80005d94	00000013	addi	x0,x0,0	  x0:0x00000000
       49205000	      4919	80005d98	3b9e3693	sltiu	x13,x28,953	 x28:0x00000000 x13=0x00000001
       49215000	      4920	80005d9c	01805a63	bge	x0,x24,80005db0	  x0:0x00000000 x24:0x00000000
       49225000	      4921	00000000	00000013	addi	x0,x0,0	  x0:0x00000000
       49235000	      4922	80005dac	00000013	addi	x0,x0,0	  x0:0x00000000
       49245000	      4923	80005db0	006f3833	sltu	x16,x30,x6	 x30:0xf2903d81  x6:0x6d97e000 x16=0x00000000
       49255000	      4924	80005db4	41e20133	sub	x2,x4,x30	  x4:0x00000000 x30:0xf2903d81  x2=0x0d6fc27f
       49265000	      4925	80005db8	031cd063	bge	x25,x17,80005dd8	 x25:0x51ea1000 x17:0x0d6fc0c2
       49275000	      4926	00000000	00000013	addi	x0,x0,0	  x0:0x00000000
       49285000	      4927	80005dd4	00000013	addi	x0,x0,0	  x0:0x00000000
       49295000	      4928	80005dd8	e0854013	xori	x0,x10,-504	 x10:0x00000001
       49305000	      4929	80005ddc	013085b3	add	x11,x1,x19	  x1:0x00000000 x19:0x0d6fc35f x11=0x0d6fc35f
       49315000	      4930	80005de0	03e78a63	beq	x15,x30,80005e14	 x15:0x00000000 x30:0xf2903d81
       49325000	      4931	80005de4	0249e263	bltu	x19,x4,80005e08	 x19:0x0d6fc35f  x4:0x00000000
       49335000	      4932	80005de8	59d3b313	sltiu	x6,x7,1437	  x7:0x00000000  x6=0x00000001
       49345000	      4933	80005dec	0317d063	bge	x15,x17,80005e0c	 x15:0x00000000 x17:0x0d6fc0c2
       49355000	      4934	80005df0	db020a13	addi	x20,x4,-592	  x4:0x00000000 x20=0xfffffdb0
       49365000	      4935	80005df4	f5447a13	andi	x20,x8,-172	  x8:0x00000000 x20=0x00000000
       49375000	      4936	80005df8	01795e13	srli	x28,x18,0x17	 x18:0x80009f10 x28=0x00000100
       49385000	      4937	80005dfc	014fe663	bltu	x31,x20,80005e08	 x31:0x0d6fc27f x20:0x00000000
       49395000	      4938	80005e00	87e5bd37	lui	x26,0x87e5b	 x26=0x87e5b000
       49405000	      4939	80005e04	01e029b3	slt	x19,x0,x30	  x0:0x00000000 x30:0xf2903d81 x19=0x00000000
       49415000	      4940	80005e08	b9718693	addi	x13,x3,-1129	  x3:0x00000000 x13=0xfffffb97
       49425000	      4941	80005e0c	00f5f033	and	x0,x11,x15	 x11:0x0d6fc35f x15:0x00000000
       49435000	      4942	80005e10	0138cbb3	xor	x23,x17,x19	 x17:0x0d6fc0c2 x19:0x00000000 x23=0x0d6fc0c2
       49445000	      4943	80005e14	015bd093	srli	x1,x23,0x15	 x23:0x0d6fc0c2  x1=0x0000006b
       49455000	      4944	80005e18	009f5533	srl	x10,x30,x9	 x30:0xf2903d81  x9:0x0d6fc4db x10=0x0000001e
       49465000	      4945	80005e1c	220865b7	lui	x11,0x22086	 x11=0x22086000
       49475000	      4946	80005e20	00ab0663	beq	x22,x10,80005e2c	 x22:0x00000001 x10:0x0000001e
       49485000	      4947	80005e24	02125c63	bge	x4,x1,80005e5c	  x4:0x00000000  x1:0x0000006b
       49495000	      4948	80005e28	41bd82b3	sub	x5,x27,x27	 x27:0x00000749 x27:0x00000749  x5=0x00000000
       49505000	      4949	80005e2c	02af9663	bne	x31,x10,80005e58	 x31:0x0d6fc27f x10:0x0000001e
       49515000	      4950	00000000	00000013	addi	x0,x0,0	  x0:0x00000000
       49525000	      4951	80005e54	00000013	addi	x0,x0,0	  x0:0x00000000
       49535000	      4952	80005e58	00715693	srli	x13,x2,0x7	  x2:0x0d6fc27f x13=0x001adf84
       49545000	      4953	80005e5c	41140533	sub	x10,x8,x17	  x8:0x00000000 x17:0x0d6fc0c2 x10=0xf2903f3e
       49555000	      4954	80005e60	005f7433	and	x8,x30,x5	 x30:0xf2903d81  x5:0x00000000  x8=0x00000000
       49565000	      4955	80005e64	03b8c063	blt	x17,x27,80005e84	 x17:0x0d6fc0c2 x27:0x00000749
       49575000	      4956	80005e68	00b56463	bltu	x10,x11,80005e70	 x10:0xf2903f3e x11:0x22086000
       49585000	      4957	80005e6c	00138663	beq	x7,x1,80005e78	  x7:0x00000000  x1:0x0000006b
       49595000	      4958	80005e70	0041d4b3	srl	x9,x3,x4	  x3:0x00000000  x4:0x00000000  x9=0x00000000
       49605000	      4959	80005e74	d0437113	andi	x2,x6,-764	  x6:0x00000001  x2=0x00000000
       49615000	      4960	80005e78	41f08333	sub	x6,x1,x31	  x1:0x0000006b x31:0x0d6fc27f  x6=0xf2903dec
       49625000	      4961	80005e7c	018e32b3	sltu	x5,x28,x24	 x28:0x00000100 x24:0x00000000  x5=0x00000000
       49635000	      4962	80005e80	3bc64e13	xori	x28,x12,956	 x12:0x80009fc4 x28=0x80009c78
       49645000	      4963	80005e84	41715713	srai	x14,x2,0x17	  x2:0x00000000 x14=0x00000000
       49655000	      4964	80005e88	00725c13	srli	x24,x4,0x7	  x4:0x00000000 x24=0x00000000
       49665000	      4965	80005e8c	00bf3cb3	sltu	x25,x30,x11	 x30:0xf2903d81 x11:0x22086000 x25=0x00000000
       49675000	      4966	80005e90	01a7eeb3	or	x29,x15,x26	 x15:0x00000000 x26:0x87e5b000 x29=0x87e5b000
       49685000	      4967	80005e94	0242c863	blt	x5,x4,80005ec4	  x5:0x00000000  x4:0x00000000
       49695000	      4968	80005e98	00000013	addi	x0,x0,0	  x0:0x00000000
       49705000	      4969	80005e9c	6883b413	sltiu	x8,x7,1672	  x7:0x00000000  x8=0x00000001
       49715000	      4970	80005ea0	0114de93	srli	x29,x9,0x11	  x9:0x00000000 x29=0x00000000
       49725000	      4971	80005ea4	02431063	bne	x6,x4,80005ec4	  x6:0xf2903dec  x4:0x00000000
       49735000	      4972	00000000	00000013	addi	x0,x0,0	  x0:0x00000000
       49745000	      4973	80005ec0	00000013	addi	x0,x0,0	  x0:0x00000000
       49755000	      4974	80005ec4	014662b3	or	x5,x12,x20	 x12:0x80009fc4 x20:0x00000000  x5=0x80009fc4
       49765000	      4975	80005ec8	af997293	andi	x5,x18,-1287	 x18:0x80009f10  x5=0x80009a10
       49775000	      4976	80005ecc	41a75e93	srai	x29,x14,0x1a	 x14:0x00000000 x29=0x00000000
       49785000	      4977	80005ed0	f949ef97	auipc	x31,0xf949e	 x31=0x794a3ecc
       49795000	      4978	80005ed4	03ea8e63	beq	x21,x30,80005f10	 x21:0x00000001 x30:0xf2903d81
       49805000	      4979	80005ed8	0186bfb3	sltu	x31,x13,x24	 x13:0x001adf84 x24:0x00000000 x31=0x00000000
       49815000	      4980	80005edc	038f5263	bge	x30,x24,80005f00	 x30:0xf2903d81 x24:0x00000000
       49825000	      4981	80005ee0	a8eef337	lui	x6,0xa8eef	  x6=0xa8eef000
       49835000	      4982	80005ee4	011ee1b3	or	x3,x29,x17	 x29:0x00000000 x17:0x0d6fc0c2  x3=0x0d6fc0c2
       49845000	      4983	80005ee8	017fcb33	xor	x22,x31,x23	 x31:0x00000000 x23:0x0d6fc0c2 x22=0x0d6fc0c2
       49855000	      4984	80005eec	00a8fc63	bgeu	x17,x10,80005f04	 x17:0x0d6fc0c2 x10:0xf2903f3e
       49865000	      4985	80005ef0	862c4b93	xori	x23,x24,-1950	 x24:0x00000000 x23=0xfffff862
       49875000	      4986	80005ef4	00000013	addi	x0,x0,0	  x0:0x00000000
       49885000	      4987	80005ef8	ec98a193	slti	x3,x17,-311	 x17:0x0d6fc0c2  x3=0x00000000
       49895000	      4988	80005efc	00000013	addi	x0,x0,0	  x0:0x00000000
       49905000	      4989	80005f00	02900263	beq	x0,x9,80005f24	  x0:0x00000000  x9:0x00000000
       49915000	      4990	00000000	00000013	addi	x0,x0,0	  x0:0x00000000
       49925000	      4991	80005f20	00000013	addi	x0,x0,0	  x0:0x00000000
       49935000	      4992	80005f24	11659263	bne	x11,x22,80006028	 x11:0x22086000 x22:0x0d6fc0c2
       49945000	      4993	00000000	00000013	addi	x0,x0,0	  x0:0x00000000
       49955000	      4994	80006024	00000013	addi	x0,x0,0	  x0:0x00000000
       49965000	      4995	80006028	3abc8813	addi	x16,x25,939	 x25:0x00000000 x16=0x000003ab
       49975000	      4996	8000602c	056bc863	blt	x23,x22,8000607c	 x23:0xfffff862 x22:0x0d6fc0c2
       49985000	      4997	00000000	00000013	addi	x0,x0,0	  x0:0x00000000
       49995000	      4998	80006078	00000013	addi	x0,x0,0	  x0:0x00000000
       50005000	      4999	8000607c	403c55b3	sra	x11,x24,x3	 x24:0x00000000  x3:0x00000000 x11=0x00000000
       50015000	      5000	80006080	41835eb3	sra	x29,x6,x24	  x6:0xa8eef000 x24:0x00000000 x29=0xa8eef000
       50025000	      5001	80006084	1246f113	andi	x2,x13,292	 x13:0x001adf84  x2=0x00000104
       50035000	      5002	80006088	00a2c3b3	xor	x7,x5,x10	  x5:0x80009a10 x10:0xf2903f3e  x7=0x7290a52e
       50045000	      5003	8000608c	017a9593	slli	x11,x21,0x17	 x21:0x00000001 x11=0x00800000
       50055000	      5004	80006090	008bc1b3	xor	x3,x23,x8	 x23:0xfffff862  x8:0x00000001  x3=0xfffff863
       50065000	      5005	80006094	00fcd293	srli	x5,x25,0xf	 x25:0x00000000  x5=0x00000000
       50075000	      5006	80006098	01669eb3	sll	x29,x13,x22	 x13:0x001adf84 x22:0x0d6fc0c2 x29=0x006b7e10
       50085000	      5007	8000609c	0118fa63	bgeu	x17,x17,800060b0	 x17:0x0d6fc0c2 x17:0x0d6fc0c2
       50095000	      5008	00000000	00000013	addi	x0,x0,0	  x0:0x00000000
       50105000	      5009	800060ac	00000013	addi	x0,x0,0	  x0:0x00000000
       50115000	      5010	800060b0	02e4c063	blt	x9,x14,800060d0	  x9:0x00000000 x14:0x00000000
       50125000	      5011	800060b4	025e5263	bge	x28,x5,800060d8	 x28:0x80009c78  x5:0x00000000
       50135000	      5012	800060b8	02025e63	bge	x4,x0,800060f4	  x4:0x00000000  x0:0x00000000
       50145000	      5013	00000000	00000013	addi	x0,x0,0	  x0:0x00000000
       50155000	      5014	800060f0	00000013	addi	x0,x0,0	  x0:0x00000000
       50165000	      5015	800060f4	002ac2b3	xor	x5,x21,x2	 x21:0x00000001  x2:0x00000104  x5=0x00000105
       50175000	      5016	800060f8	7cfee693	ori	x13,x29,1999	 x29:0x006b7e10 x13=0x006b7fdf
       50185000	      5017	800060fc	00f56a63	bltu	x10,x15,80006110	 x10:0xf2903f3e x15:0x00000000
       50195000	      5018	80006100	00d3c433	xor	x8,x7,x13	  x7:0x7290a52e x13:0x006b7fdf  x8=0x72fbdaf1
       50205000	      5019	80006104	00000013	addi	x0,x0,0	  x0:0x00000000
       50215000	      5020	80006108	00fc3ab3	sltu	x21,x24,x15	 x24:0x00000000 x15:0x00000000 x21=0x00000000
       50225000	      5021	8000610c	05874863	blt	x14,x24,8000615c	 x14:0x00000000 x24:0x00000000
       50235000	      5022	80006110	01bd9133	sll	x2,x27,x27	 x27:0x00000749 x27:0x00000749  x2=0x000e9200
       50245000	      5023	80006114	8f5f17b7	lui	x15,0x8f5f1	 x15=0x8f5f1000
       50255000	      5024	80006118	045c7663	bgeu	x24,x5,80006164	 x24:0x00000000  x5:0x00000105
       50265000	      5025	8000611c	f2127b13	andi	x22,x4,-223	  x4:0x00000000 x22=0x00000000
       50275000	      5026	80006120	00000013	addi	x0,x0,0	  x0:0x00000000
       50285000	      5027	80006124	01401e13	slli	x28,x0,0x14	  x0:0x00000000 x28=0x00000000
       50295000	      5028	80006128	032d6f93	ori	x31,x26,50	 x26:0x87e5b000 x31=0x87e5b032
       50305000	      5029	8000612c	593cf713	andi	x14,x25,1427	 x25:0x00000000 x14=0x00000000
       50315000	      5030	80006130	1ad3ce97	auipc	x29,0x1ad3c	 x29=0x9ad4212c
       50325000	      5031	80006134	01169313	slli	x6,x13,0x11	 x13:0x006b7fdf  x6=0xffbe0000
       50335000	      5032	80006138	0006abb3	slt	x23,x13,x0	 x13:0x006b7fdf  x0:0x00000000 x23=0x00000000
       50345000	      5033	8000613c	02aaee63	bltu	x21,x10,80006178	 x21:0x00000000 x10:0xf2903f3e
       50355000	      5034	00000000	00000013	addi	x0,x0,0	  x0:0x00000000
       50365000	      5035	80006174	00000013	addi	x0,x0,0	  x0:0x00000000
       50375000	      5036	80006178	00de7d33	and	x26,x28,x13	 x28:0x00000000 x13:0x006b7fdf x26=0x00000000
       50385000	      5037	8000617c	4129d813	srai	x16,x19,0x12	 x19:0x00000000 x16=0x00000000
       50395000	      5038	80006180	01408e33	add	x28,x1,x20	  x1:0x0000006b x20:0x00000000 x28=0x0000006b
       50405000	      5039	80006184	38503113	sltiu	x2,x0,901	  x0:0x00000000  x2=0x00000001
       50415000	      5040	80006188	d25d0813	addi	x16,x26,-731	 x26:0x00000000 x16=0xfffffd25
       50425000	      5041	8000618c	014f1793	slli	x15,x30,0x14	 x30:0xf2903d81 x15=0xd8100000
       50435000	      5042	80006190	013fa2b3	slt	x5,x31,x19	 x31:0x87e5b032 x19:0x00000000  x5=0x00000001
       50445000	      5043	80006194	4149d993	srai	x19,x19,0x14	 x19:0x00000000 x19=0x00000000
       50455000	      5044	80006198	d4ac0a13	addi	x20,x24,-694	 x24:0x00000000 x20=0xfffffd4a
       50465000	      5045	8000619c	00ca9013	slli	x0,x21,0xc	 x21:0x00000000
       50475000	      5046	800061a0	40f3d493	srai	x9,x7,0xf	  x7:0x7290a52e  x9=0x0000e521
       50485000	      5047	800061a4	c3862393	slti	x7,x12,-968	 x12:0x80009fc4  x7=0x00000001
       50495000	      5048	800061a8	01d6c833	xor	x16,x13,x29	 x13:0x006b7fdf x29:0x9ad4212c x16=0x9abf5ef3
       50505000	      5049	800061ac	00000013	addi	x0,x0,0	  x0:0x00000000
       50515000	      5050	800061b0	01f35e33	srl	x28,x6,x31	  x6:0xffbe0000 x31:0x87e5b032 x28=0x00003fef
       50525000	      5051	800061b4	0250f863	bgeu	x1,x5,800061e4	  x1:0x0000006b  x5:0x00000001
       50535000	      5052	00000000	00000013	addi	x0,x0,0	  x0:0x00000000
       50545000	      5053	800061e0	00000013	addi	x0,x0,0	  x0:0x00000000
       50555000	      5054	800061e4	01426bb3	or	x23,x4,x20	  x4:0x00000000 x20:0xfffffd4a x23=0xfffffd4a
       50565000	      5055	800061e8	011a82b3	add	x5,x21,x17	 x21:0x00000000 x17:0x0d6fc0c2  x5=0x0d6fc0c2
       50575000	      5056	800061ec	63b4d997	auipc	x19,0x63b4d	 x19=0xe3b531e8
       50585000	      5057	800061f0	419ddab3	sra	x21,x27,x25	 x27:0x00000749 x25:0x00000000 x21=0x00000749
       50595000	      5058	800061f4	010fc833	xor	x16,x31,x16	 x31:0x87e5b032 x16:0x9abf5ef3 x16=0x1d5aeec1
       50605000	      5059	800061f8	01bea5b3	slt	x11,x29,x27	 x29:0x9ad4212c x27:0x00000749 x11=0x00000001
       50615000	      5060	800061fc	007351b3	srl	x3,x6,x7	  x6:0xffbe0000  x7:0x00000001  x3=0x7fdf0000
       50625000	      5061	80006200	4160d433	sra	x8,x1,x22	  x1:0x0000006b x22:0x00000000  x8=0x0000006b
       50635000	      5062	80006204	d969e793	ori	x15,x19,-618	 x19:0xe3b531e8 x15=0xfffffdfe
       50645000	      5063	80006208	02d37263	bgeu	x6,x13,8000622c	  x6:0xffbe0000 x13:0x006b7fdf
       50655000	      5064	00000000	00000013	addi	x0,x0,0	  x0:0x00000000
       50665000	      5065	80006228	00000013	addi	x0,x0,0	  x0:0x00000000
       50675000	      5066	8000622c	2ef3ab37	lui	x22,0x2ef3a	 x22=0x2ef3a000
       50685000	      5067	80006230	02b78663	beq	x15,x11,8000625c	 x15:0xfffffdfe x11:0x00000001
       50695000	      5068	80006234	00c87033	and	x0,x16,x12	 x16:0x1d5aeec1 x12:0x80009fc4
       50705000	      5069	80006238	02bb0e63	beq	x22,x11,80006274	 x22:0x2ef3a000 x11:0x00000001
       50715000	      5070	8000623c	a370fa13	andi	x20,x1,-1481	  x1:0x0000006b x20=0x00000023
       50725000	      5071	80006240	4164d713	srai	x14,x9,0x16	  x9:0x0000e521 x14=0x00000000
       50735000	      5072	80006244	32e50397	auipc	x7,0x32e50	  x7=0xb2e56240
       50745000	      5073	80006248	00375993	srli	x19,x14,0x3	 x14:0x00000000 x19=0x00000000
       50755000	      5074	8000624c	01e33733	sltu	x14,x6,x30	  x6:0xffbe0000 x30:0xf2903d81 x14=0x00000000
       50765000	      5075	80006250	01faf533	and	x10,x21,x31	 x21:0x00000749 x31:0x87e5b032 x10=0x00000000
       50775000	      5076	80006254	01a1dd33	srl	x26,x3,x26	  x3:0x7fdf0000 x26:0x00000000 x26=0x7fdf0000
       50785000	      5077	80006258	017e8733	add	x14,x29,x23	 x29:0x9ad4212c x23:0xfffffd4a x14=0x9ad41e76
       50795000	      5078	8000625c	014e4733	xor	x14,x28,x20	 x28:0x00003fef x20:0x00000023 x14=0x00003fcc
       50805000	      5079	80006260	998da793	slti	x15,x27,-1640	 x27:0x00000749 x15=0x00000000
       50815000	      5080	80006264	d8e3ad13	slti	x26,x7,-626	  x7:0xb2e56240 x26=0x00000001
       50825000	      5081	80006268	0182e7b3	or	x15,x5,x24	  x5:0x0d6fc0c2 x24:0x00000000 x15=0x0d6fc0c2
       50835000	      5082	8000626c	f806ec93	ori	x25,x13,-128	 x13:0x006b7fdf x25=0xffffffdf
       50845000	      5083	80006270	037f1663	bne	x30,x23,8000629c	 x30:0xf2903d81 x23:0xfffffd4a
       50855000	      5084	00000000	00000013	addi	x0,x0,0	  x0:0x00000000
       50865000	      5085	80006298	00000013	addi	x0,x0,0	  x0:0x00000000
       50875000	      5086	8000629c	02d21063	bne	x4,x13,800062bc	  x4:0x00000000 x13:0x006b7fdf
       50885000	      5087	00000000	00000013	addi	x0,x0,0	  x0:0x00000000
       50895000	      5088	800062b8	00000013	addi	x0,x0,0	  x0:0x00000000
       50905000	      5089	800062bc	41605833	sra	x16,x0,x22	  x0:0x00000000 x22:0x2ef3a000 x16=0x00000000
       50915000	      5090	800062c0	017ddc13	srli	x24,x27,0x17	 x27:0x00000749 x24=0x00000000
       50925000	      5091	800062c4	0262f263	bgeu	x5,x6,800062e8	  x5:0x0d6fc0c2  x6:0xffbe0000
       50935000	      5092	800062c8	9c16b713	sltiu	x14,x13,-1599	 x13:0x006b7fdf x14=0x00000001
       50945000	      5093	800062cc	01463e33	sltu	x28,x12,x20	 x12:0x80009fc4 x20:0x00000023 x28=0x00000000
       50955000	      5094	800062d0	da33c013	xori	x0,x7,-605	  x7:0xb2e56240
       50965000	      5095	800062d4	00261993	slli	x19,x12,0x2	 x12:0x80009fc4 x19=0x00027f10
       50975000	      5096	800062d8	0044a417	auipc	x8,0x44a	  x8=0x804502d4
       50985000	      5097	800062dc	e593fd13	andi	x26,x7,-423	  x7:0xb2e56240 x26=0xb2e56240
       50995000	      5098	800062e0	014a8263	beq	x21,x20,800062e4	 x21:0x00000749 x20:0x00000023
       51005000	      5099	800062e4	403c5513	srai	x10,x24,0x3	 x24:0x00000000 x10=0x00000000
       51015000	      5100	800062e8	41310833	sub	x16,x2,x19	  x2:0x00000001 x19:0x00027f10 x16=0xfffd80f1
       51025000	      5101	800062ec	8a12f013	andi	x0,x5,-1887	  x5:0x0d6fc0c2
       51035000	      5102	800062f0	032b6a63	bltu	x22,x18,80006324	 x22:0x2ef3a000 x18:0x80009f10
       51045000	      5103	00000000	00000013	addi	x0,x0,0	  x0:0x00000000
       51055000	      5104	80006320	00000013	addi	x0,x0,0	  x0:0x00000000
       51065000	      5105	80006324	c234eb13	ori	x22,x9,-989	  x9:0x0000e521 x22=0xfffffd23
       51075000	      5106	80006328	41335093	srai	x1,x6,0x13	  x6:0xffbe0000  x1=0xfffffff7
       51085000	      5107	8000632c	01613533	sltu	x10,x2,x22	  x2:0x00000001 x22:0xfffffd23 x10=0x00000001
       51095000	      5108	80006330	052dd663	bge	x27,x18,8000637c	 x27:0x00000749 x18:0x80009f10
       51105000	      5109	00000000	00000013	addi	x0,x0,0	  x0:0x00000000
       51115000	      5110	80006378	00000013	addi	x0,x0,0	  x0:0x00000000
       51125000	      5111	8000637c	0050e8b3	or	x17,x1,x5	  x1:0xfffffff7  x5:0x0d6fc0c2 x17=0xfffffff7
       51135000	      5112	80006380	008a2a33	slt	x20,x20,x8	 x20:0x00000023  x8:0x804502d4 x20=0x00000000
       51145000	      5113	80006384	018989b3	add	x19,x19,x24	 x19:0x00027f10 x24:0x00000000 x19=0x00027f10
       51155000	      5114	80006388	01fa0fb3	add	x31,x20,x31	 x20:0x00000000 x31:0x87e5b032 x31=0x87e5b032
       51165000	      5115	8000638c	4b0be193	ori	x3,x23,1200	 x23:0xfffffd4a  x3=0xfffffdfa
       51175000	      5116	80006390	01215b93	srli	x23,x2,0x12	  x2:0x00000001 x23=0x00000000
       51185000	      5117	80006394	01d900b3	add	x1,x18,x29	 x18:0x80009f10 x29:0x9ad4212c  x1=0x1ad4c03c
       51195000	      5118	80006398	00504fb3	xor	x31,x0,x5	  x0:0x00000000  x5:0x0d6fc0c2 x31=0x0d6fc0c2
       51205000	      5119	8000639c	011c4fb3	xor	x31,x24,x17	 x24:0x00000000 x17:0xfffffff7 x31=0xfffffff7
       51215000	      5120	800063a0	004c7a63	bgeu	x24,x4,800063b4	 x24:0x00000000  x4:0x00000000
       51225000	      5121	00000000	00000013	addi	x0,x0,0	  x0:0x00000000
       51235000	      5122	800063b0	00000013	addi	x0,x0,0	  x0:0x00000000
       51245000	      5123	800063b4	e63b6137	lui	x2,0xe63b6	  x2=0xe63b6000
       51255000	      5124	800063b8	00f843b3	xor	x7,x16,x15	 x16:0xfffd80f1 x15:0x0d6fc0c2  x7=0xf2924033
       51265000	      5125	800063bc	0380ee63	bltu	x1,x24,800063f8	  x1:0x1ad4c03c x24:0x00000000
       51275000	      5126	800063c0	01c1b9b3	sltu	x19,x3,x28	  x3:0xfffffdfa x28:0x00000000 x19=0x00000000
       51285000	      5127	800063c4	015e6c63	bltu	x28,x21,800063dc	 x28:0x00000000 x21:0x00000749
       51295000	      5128	00000000	00000013	addi	x0,x0,0	  x0:0x00000000
       51305000	      5129	800063d8	00000013	addi	x0,x0,0	  x0:0x00000000
       51315000	      5130	800063dc	bd144a13	xori	x20,x8,-1071	  x8:0x804502d4 x20=0x7fbaf905
       51325000	      5131	800063e0	001ab333	sltu	x6,x21,x1	 x21:0x00000749  x1:0x1ad4c03c  x6=0x00000001
       51335000	      5132	800063e4	0132fa63	bgeu	x5,x19,800063f8	  x5:0x0d6fc0c2 x19:0x00000000
       51345000	      5133	00000000	00000013	addi	x0,x0,0	  x0:0x00000000
       51355000	      5134	800063f4	00000013	addi	x0,x0,0	  x0:0x00000000
       51365000	      5135	800063f8	018b2433	slt	x8,x22,x24	 x22:0xfffffd23 x24:0x00000000  x8=0x00000001
       51375000	      5136	800063fc	00a95a33	srl	x20,x18,x10	 x18:0x80009f10 x10:0x00000001 x20=0x40004f88
       51385000	      5137	80006400	00bcdd13	srli	x26,x25,0xb	 x25:0xffffffdf x26=0x001fffff
       51395000	      5138	80006404	08630f93	addi	x31,x6,134	  x6:0x00000001 x31=0x00000087
       51405000	      5139	80006408	017a1fb3	sll	x31,x20,x23	 x20:0x40004f88 x23:0x00000000 x31=0x40004f88
       51415000	      5140	8000640c	118daa93	slti	x21,x27,280	 x27:0x00000749 x21=0x00000000
       51425000	      5141	80006410	01659413	slli	x8,x11,0x16	 x11:0x00000001  x8=0x00400000
       51435000	      5142	80006414	05026663	bltu	x4,x16,80006460	  x4:0x00000000 x16:0xfffd80f1
       51445000	      5143	00000000	00000013	addi	x0,x0,0	  x0:0x00000000
       51455000	      5144	8000645c	00000013	addi	x0,x0,0	  x0:0x00000000
       51465000	      5145	80006460	01ab0eb3	add	x29,x22,x26	 x22:0xfffffd23 x26:0x001fffff x29=0x001ffd22
       51475000	      5146	80006464	9f0a4e93	xori	x29,x20,-1552	 x20:0x40004f88 x29=0xbfffb678
       51485000	      5147	80006468	c06cee93	ori	x29,x25,-1018	 x25:0xffffffdf x29=0xffffffdf
       51495000	      5148	8000646c	9fd74f93	xori	x31,x14,-1539	 x14:0x00000001 x31=0xfffff9fc
       51505000	      5149	80006470	10473817	auipc	x16,0x10473	 x16=0x9047946c
       51515000	      5150	80006474	41c45393	srai	x7,x8,0x1c	  x8:0x00400000  x7=0x00000000
       51525000	      5151	80006478	4143de93	srai	x29,x7,0x14	  x7:0x00000000 x29=0x00000000
       51535000	      5152	8000647c	02175063	bge	x14,x1,8000649c	 x14:0x00000001  x1:0x1ad4c03c
       51545000	      5153	80006480	9c1a4593	xori	x11,x20,-1599	 x20:0x40004f88 x11=0xbfffb649
       51555000	      5154	80006484	661a0313	addi	x6,x20,1633	 x20:0x40004f88  x6=0x400055e9
       51565000	      5155	80006488	00000013	addi	x0,x0,0	  x0:0x00000000
       51575000	      5156	8000648c	43a1be93	sltiu	x29,x3,1082	  x3:0xfffffdfa x29=0x00000000
       51585000	      5157	80006490	014a5233	srl	x4,x20,x20	 x20:0x40004f88 x20:0x40004f88  x4=0x0040004f
       51595000	      5158	80006494	01104233	xor	x4,x0,x17	  x0:0x00000000 x17:0xfffffff7  x4=0xfffffff7
       51605000	      5159	80006498	012188b3	add	x17,x3,x18	  x3:0xfffffdfa x18:0x80009f10 x17=0x80009d0a
       51615000	      5160	8000649c	2d7da993	slti	x19,x27,727	 x27:0x00000749 x19=0x00000000
       51625000	      5161	800064a0	febc4e37	lui	x28,0xfebc4	 x28=0xfebc4000
       51635000	      5162	800064a4	00839663	bne	x7,x8,800064b0	  x7:0x00000000  x8:0x00400000
       51645000	      5163	00000000	00000013	addi	x0,x0,0	  x0:0x00000000
       51655000	      5164	800064ac	00000013	addi	x0,x0,0	  x0:0x00000000
       51665000	      5165	800064b0	1b26e3b7	lui	x7,0x1b26e	  x7=0x1b26e000
       51675000	      5166	800064b4	00492303	lw	x6,4(x18)	 x18:0x80009f10  x6=0x800009f8 PA:0x80009f14
       51685000	      5167	800064b8	01e0d413	srli	x8,x1,0x1e	  x1:0x1ad4c03c  x8=0x00000000
       51695000	      5168	800064bc	02890913	addi	x18,x18,40	 x18:0x80009f10 x18=0x80009f38
       51705000	      5169	800064c0	00f62cb3	slt	x25,x12,x15	 x12:0x80009fc4 x15:0x0d6fc0c2 x25=0x00000001
       51715000	      5170	800064c4	01a44033	xor	x0,x8,x26	  x8:0x00000000 x26:0x001fffff
       51725000	      5171	800064c8	00030e13	addi	x28,x6,0	  x6:0x800009f8 x28=0x800009f8
       51735000	      5172	800064cc	000e0e67	jalr	x28,x28,0	 x28:0x800009f8 x28=0x800064cc
       51745000	      5173	00000000	00000013	addi	x0,x0,0	  x0:0x00000000
       51755000	      5174	800009f8	00000013	addi	x0,x0,0	  x0:0x00000000
       51765000	      5175	800009fc	24297793	andi	x15,x18,578	 x18:0x80009f38 x15=0x00000200
       51775000	      5176	80000a00	00c51eb3	sll	x29,x10,x12	 x10:0x00000001 x12:0x80009fc4 x29=0x00000010
       51785000	      5177	80000a04	40df07b3	sub	x15,x30,x13	 x30:0xf2903d81 x13:0x006b7fdf x15=0xf224bda2
       51795000	      5178	80000a08	406b5db3	sra	x27,x22,x6	 x22:0xfffffd23  x6:0x800009f8 x27=0xffffffff
       51805000	      5179	80000a0c	00fc0eb3	add	x29,x24,x15	 x24:0x00000000 x15:0xf224bda2 x29=0xf224bda2
       51815000	      5180	80000a10	00de8463	beq	x29,x13,80000a18	 x29:0xf224bda2 x13:0x006b7fdf
       51825000	      5181	80000a14	620f2413	slti	x8,x30,1568	 x30:0xf2903d81  x8=0x00000001
       51835000	      5182	80000a18	2b90536f	jal	x6,80000a18	  x6=0x80000a18
       51845000	      5183	00000000	00000013	addi	x0,x0,0	  x0:0x00000000
       51855000	      5184	800064cc	00000013	addi	x0,x0,0	  x0:0x00000000
       51865000	      5185	800064d0	00000013	addi	x0,x0,0	  x0:0x00000000
       51875000	      5186	800064d4	fd890913	addi	x18,x18,-40	 x18:0x80009f38 x18=0x80009f10
       51885000	      5187	800064d8	ee3e6b13	ori	x22,x28,-285	 x28:0x800064cc x22=0xfffffeef
       51895000	      5188	800064dc	0154aa33	slt	x20,x9,x21	  x9:0x0000e521 x21:0x00000000 x20=0x00000000
       51905000	      5189	800064e0	16747793	andi	x15,x8,359	  x8:0x00000001 x15=0x00000001
       51915000	      5190	800064e4	8081fcb7	lui	x25,0x8081f	 x25=0x8081f000
       51925000	      5191	800064e8	00692223	sw	x6,4(x18)	 x18:0x80009f10  x6:0x80000a18 PA:0x80009f14
       51935000	      5192	800064ec	00bffd33	and	x26,x31,x11	 x31:0xfffff9fc x11:0xbfffb649 x26=0xbfffb048
       51945000	      5193	800064f0	007fc7b3	xor	x15,x31,x7	 x31:0xfffff9fc  x7:0x1b26e000 x15=0xe4d919fc
       51955000	      5194	800064f4	00631593	slli	x11,x6,0x6	  x6:0x80000a18 x11=0x00028600
       51965000	      5195	800064f8	e48a6d93	ori	x27,x20,-440	 x20:0x00000000 x27=0xfffffe48
       51975000	      5196	800064fc	92276813	ori	x16,x14,-1758	 x14:0x00000001 x16=0xfffff923
       51985000	      5197	80006500	0394c063	blt	x9,x25,80006520	  x9:0x0000e521 x25:0x8081f000
       51995000	      5198	80006504	ff19bd13	sltiu	x26,x19,-15	 x19:0x00000000 x26=0x00000001
       52005000	      5199	80006508	40e386b3	sub	x13,x7,x14	  x7:0x1b26e000 x14:0x00000001 x13=0x1b26dfff
       52015000	      5200	8000650c	01a69833	sll	x16,x13,x26	 x13:0x1b26dfff x26:0x00000001 x16=0x364dbffe
       52025000	      5201	80006510	83a4cd93	xori	x27,x9,-1990	  x9:0x0000e521 x27=0xffff1d1b
       52035000	      5202	80006514	0136d033	srl	x0,x13,x19	 x13:0x1b26dfff x19:0x00000000
       52045000	      5203	80006518	020ff713	andi	x14,x31,32	 x31:0xfffff9fc x14=0x00000020
       52055000	      5204	8000651c	010d63b3	or	x7,x26,x16	 x26:0x00000001 x16:0x364dbffe  x7=0x364dbfff
       52065000	      5205	80006520	354d6f93	ori	x31,x26,852	 x26:0x00000001 x31=0x00000355
       52075000	      5206	80006524	3e746213	ori	x4,x8,999	  x8:0x00000001  x4=0x000003e7
       52085000	      5207	80006528	418855b3	sra	x11,x16,x24	 x16:0x364dbffe x24:0x00000000 x11=0x364dbffe
       52095000	      5208	8000652c	0144f033	and	x0,x9,x20	  x9:0x0000e521 x20:0x00000000
       52105000	      5209	80006530	01e24ab3	xor	x21,x4,x30	  x4:0x000003e7 x30:0xf2903d81 x21=0xf2903e66
       52115000	      5210	80006534	03099e63	bne	x19,x16,80006570	 x19:0x00000000 x16:0x364dbffe
       52125000	      5211	00000000	00000013	addi	x0,x0,0	  x0:0x00000000
       52135000	      5212	8000656c	00000013	addi	x0,x0,0	  x0:0x00000000
       52145000	      5213	80006570	01806663	bltu	x0,x24,8000657c	  x0:0x00000000 x24:0x00000000
       52155000	      5214	80006574	f6e7e013	ori	x0,x15,-146	 x15:0xe4d919fc
       52165000	      5215	80006578	96ed3cb7	lui	x25,0x96ed3	 x25=0x96ed3000
       52175000	      5216	8000657c	01405f93	srli	x31,x0,0x14	  x0:0x00000000 x31=0x00000000
       52185000	      5217	80006580	00382e33	slt	x28,x16,x3	 x16:0x364dbffe  x3:0xfffffdfa x28=0x00000000
       52195000	      5218	80006584	027d5663	bge	x26,x7,800065b0	 x26:0x00000001  x7:0x364dbfff
       52205000	      5219	80006588	01f17263	bgeu	x2,x31,8000658c	  x2:0xe63b6000 x31:0x00000000
       52215000	      5220	00000000	00000013	addi	x0,x0,0	  x0:0x00000000
       52225000	      5221	80006588	00000013	addi	x0,x0,0	  x0:0x00000000
       52235000	      5222	8000658c	41ab5713	srai	x14,x22,0x1a	 x22:0xfffffeef x14=0xffffffff
       52245000	      5223	80006590	3fd43793	sltiu	x15,x8,1021	  x8:0x00000001 x15=0x00000001
       52255000	      5224	80006594	01271463	bne	x14,x18,8000659c	 x14:0xffffffff x18:0x80009f10
       52265000	      5225	00000000	00000013	addi	x0,x0,0	  x0:0x00000000
       52275000	      5226	80006598	00000013	addi	x0,x0,0	  x0:0x00000000
       52285000	      5227	8000659c	59210717	auipc	x14,0x59210	 x14=0xd9216598
       52295000	      5228	800065a0	4159d813	srai	x16,x19,0x15	 x19:0x00000000 x16=0x00000000
       52305000	      5229	800065a4	030d1463	bne	x26,x16,800065cc	 x26:0x00000001 x16:0x00000000
       52315000	      5230	00000000	00000013	addi	x0,x0,0	  x0:0x00000000
       52325000	      5231	800065c8	00000013	addi	x0,x0,0	  x0:0x00000000
       52335000	      5232	800065cc	418f51b3	sra	x3,x30,x24	 x30:0xf2903d81 x24:0x00000000  x3=0xf2903d81
       52345000	      5233	800065d0	2cd0f113	andi	x2,x1,717	  x1:0x1ad4c03c  x2=0x0000000c
       52355000	      5234	800065d4	fa773693	sltiu	x13,x14,-89	 x14:0xd9216598 x13=0x00000001
       52365000	      5235	800065d8	401bd513	srai	x10,x23,0x1	 x23:0x00000000 x10=0x00000000
       52375000	      5236	800065dc	ba00a393	slti	x7,x1,-1120	  x1:0x1ad4c03c  x7=0x00000000
       52385000	      5237	800065e0	01d76eb3	or	x29,x14,x29	 x14:0xd9216598 x29:0xf224bda2 x29=0xfb25fdba
       52395000	      5238	800065e4	00efdc13	srli	x24,x31,0xe	 x31:0x00000000 x24=0x00000000
       52405000	      5239	800065e8	fc70b293	sltiu	x5,x1,-57	  x1:0x1ad4c03c  x5=0x00000001
       52415000	      5240	800065ec	017a4263	blt	x20,x23,800065f0	 x20:0x00000000 x23:0x00000000
       52425000	      5241	800065f0	019c3233	sltu	x4,x24,x25	 x24:0x00000000 x25:0x96ed3000  x4=0x00000001
       52435000	      5242	800065f4	02f17063	bgeu	x2,x15,80006614	  x2:0x0000000c x15:0x00000001
       52445000	      5243	00000000	00000013	addi	x0,x0,0	  x0:0x00000000
       52455000	      5244	80006610	00000013	addi	x0,x0,0	  x0:0x00000000
       52465000	      5245	80006614	419cd413	srai	x8,x25,0x19	 x25:0x96ed3000  x8=0xffffffcb
       52475000	      5246	80006618	58940c93	addi	x25,x8,1417	  x8:0xffffffcb x25=0x00000554
       52485000	      5247	8000661c	860d0013	addi	x0,x26,-1952	 x26:0x00000001
       52495000	      5248	80006620	02a11663	bne	x2,x10,8000664c	  x2:0x0000000c x10:0x00000000
       52505000	      5249	00000000	00000013	addi	x0,x0,0	  x0:0x00000000
       52515000	      5250	80006648	00000013	addi	x0,x0,0	  x0:0x00000000
       52525000	      5251	8000664c	01326233	or	x4,x4,x19	  x4:0x00000001 x19:0x00000000  x4=0x00000001
       52535000	      5252	80006650	039ff063	bgeu	x31,x25,80006670	 x31:0x00000000 x25:0x00000554
       52545000	      5253	80006654	40055ab3	sra	x21,x10,x0	 x10:0x00000000  x0:0x00000000 x21=0x00000000
       52555000	      5254	80006658	01498d33	add	x26,x19,x20	 x19:0x00000000 x20:0x00000000 x26=0x00000000
       52565000	      5255	8000665c	4057dab3	sra	x21,x15,x5	 x15:0x00000001  x5:0x00000001 x21=0x00000000
       52575000	      5256	80006660	dab66113	ori	x2,x12,-597	 x12:0x80009fc4  x2=0xffffffef
       52585000	      5257	80006664	d2badf97	auipc	x31,0xd2bad	 x31=0x52bb3660
       52595000	      5258	80006668	40b5d313	srai	x6,x11,0xb	 x11:0x364dbffe  x6=0x0006c9b7
       52605000	      5259	8000666c	82207417	auipc	x8,0x82207	  x8=0x0220d668
       52615000	      5260	80006670	32df4093	xori	x1,x30,813	 x30:0xf2903d81  x1=0xf2903eac
       52625000	      5261	80006674	0ab24393	xori	x7,x4,171	  x4:0x00000001  x7=0x000000aa
       52635000	      5262	80006678	00492303	lw	x6,4(x18)	 x18:0x80009f10  x6=0x80000a18 PA:0x80009f14
       52645000	      5263	8000667c	02890913	addi	x18,x18,40	 x18:0x80009f10 x18=0x80009f38
       52655000	      5264	80006680	01695c33	srl	x24,x18,x22	 x18:0x80009f38 x22:0xfffffeef x24=0x00010001
       52665000	      5265	80006684	f3059217	auipc	x4,0xf3059	  x4=0x7305f680
       52675000	      5266	80006688	00130693	addi	x13,x6,1	  x6:0x80000a18 x13=0x80000a19
       52685000	      5267	8000668c	000686e7	jalr	x13,x13,0	 x13:0x80000a19 x13=0x8000668c
       52695000	      5268	00000000	00000013	addi	x0,x0,0	  x0:0x00000000
       52705000	      5269	80000a18	00000013	addi	x0,x0,0	  x0:0x00000000
       52715000	      5270	80000a1c	00000697	auipc	x13,0x0	 x13=0x80000a18
       52725000	      5271	80000a20	a9068693	addi	x13,x13,-1392	 x13:0x80000a18 x13=0x800004a8
       52735000	      5272	80000a24	413803b3	sub	x7,x16,x19	 x16:0x00000000 x19:0x00000000  x7=0x00000000
       52745000	      5273	80000a28	00b39193	slli	x3,x7,0xb	  x7:0x00000000  x3=0x00000000
       52755000	      5274	80000a2c	76ab6c17	auipc	x24,0x76ab6	 x24=0xf6ab6a28
       52765000	      5275	80000a30	01f87a33	and	x20,x16,x31	 x16:0x00000000 x31:0x52bb3660 x20=0x00000000
       52775000	      5276	80000a34	2ec68693	addi	x13,x13,748	 x13:0x800004a8 x13=0x80000794
       52785000	      5277	80000a38	402108b3	sub	x17,x2,x2	  x2:0xffffffef  x2:0xffffffef x17=0x00000000
       52795000	      5278	80000a3c	38aab013	sltiu	x0,x21,906	 x21:0x00000000
       52805000	      5279	80000a40	01ed4433	xor	x8,x26,x30	 x26:0x00000000 x30:0xf2903d81  x8=0xf2903d81
       52815000	      5280	80000a44	01b727b3	slt	x15,x14,x27	 x14:0xd9216598 x27:0xffff1d1b x15=0x00000001
       52825000	      5281	80000a48	00bfd413	srli	x8,x31,0xb	 x31:0x52bb3660  x8=0x000a5766
       52835000	      5282	80000a4c	40805833	sra	x16,x0,x8	  x0:0x00000000  x8:0x000a5766 x16=0x00000000
       52845000	      5283	80000a50	d1468367	jalr	x6,x13,-748	 x13:0x80000794  x6=0x80000a50
       52855000	      5284	00000000	00000013	addi	x0,x0,0	  x0:0x00000000
       52865000	      5285	800004a8	00000013	addi	x0,x0,0	  x0:0x00000000
       52875000	      5286	800004ac	00000013	addi	x0,x0,0	  x0:0x00000000
       52885000	      5287	800004b0	40b65db3	sra	x27,x12,x11	 x12:0x80009fc4 x11:0x364dbffe x27=0xfffffffe
       52895000	      5288	800004b4	268de193	ori	x3,x27,616	 x27:0xfffffffe  x3=0xfffffffe
       52905000	      5289	800004b8	00b1ec33	or	x24,x3,x11	  x3:0xfffffffe x11:0x364dbffe x24=0xfffffffe
       52915000	      5290	800004bc	01651113	slli	x2,x10,0x16	 x10:0x00000000  x2=0x00000000
       52925000	      5291	800004c0	01761093	slli	x1,x12,0x17	 x12:0x80009fc4  x1=0xe2000000
       52935000	      5292	800004c4	fd490913	addi	x18,x18,-44	 x18:0x80009f38 x18=0x80009f0c
       52945000	      5293	800004c8	4e1d3813	sltiu	x16,x26,1249	 x26:0x00000000 x16=0x00000001
       52955000	      5294	800004cc	27a26d13	ori	x26,x4,634	  x4:0x7305f680 x26=0x7305f6fa
       52965000	      5295	800004d0	00692223	sw	x6,4(x18)	 x18:0x80009f0c  x6:0x80000a50 PA:0x80009f10
       52975000	      5296	800004d4	407c53b3	sra	x7,x24,x7	 x24:0xfffffffe  x7:0x00000000  x7=0xfffffffe
       52985000	      5297	800004d8	01123d33	sltu	x26,x4,x17	  x4:0x7305f680 x17:0x00000000 x26=0x00000000
       52995000	      5298	800004dc	00b45033	srl	x0,x8,x11	  x8:0x000a5766 x11:0x364dbffe
       53005000	      5299	800004e0	f867e193	ori	x3,x15,-122	 x15:0x00000001  x3=0xffffff87
       53015000	      5300	800004e4	3bbffa13	andi	x20,x31,955	 x31:0x52bb3660 x20=0x00000220
       53025000	      5301	800004e8	00006c17	auipc	x24,0x6	 x24=0x800064e4
       53035000	      5302	800004ec	350c0c13	addi	x24,x24,848	 x24:0x800064e4 x24=0x80006834
       53045000	      5303	800004f0	0155c4b3	xor	x9,x11,x21	 x11:0x364dbffe x21:0x00000000  x9=0x364dbffe
       53055000	      5304	800004f4	fcfc0c13	addi	x24,x24,-49	 x24:0x80006834 x24=0x80006803
       53065000	      5305	800004f8	00000013	addi	x0,x0,0	  x0:0x00000000
       53075000	      5306	800004fc	017b44b3	xor	x9,x22,x23	 x22:0xfffffeef x23:0x00000000  x9=0xfffffeef
       53085000	      5307	80000500	032c0367	jalr	x6,x24,50	 x24:0x80006803  x6=0x80000500
       53095000	      5308	00000000	00000013	addi	x0,x0,0	  x0:0x00000000
       53105000	      5309	80006834	00000013	addi	x0,x0,0	  x0:0x00000000
       53115000	      5310	80006838	00481693	slli	x13,x16,0x4	 x16:0x00000001 x13=0x00000010
       53125000	      5311	8000683c	00dc3ab3	sltu	x21,x24,x13	 x24:0x80006803 x13:0x00000010 x21=0x00000000
       53135000	      5312	80006840	00000013	addi	x0,x0,0	  x0:0x00000000
       53145000	      5313	80006844	ff490913	addi	x18,x18,-12	 x18:0x80009f0c x18=0x80009f00
       53155000	      5314	80006848	00692223	sw	x6,4(x18)	 x18:0x80009f00  x6:0x80000500 PA:0x80009f04
       53165000	      5315	8000684c	01367db3	and	x27,x12,x19	 x12:0x80009fc4 x19:0x00000000 x27=0x00000000
       53175000	      5316	80006850	013e1333	sll	x6,x28,x19	 x28:0x00000000 x19:0x00000000  x6=0x00000000
       53185000	      5317	80006854	41380ab3	sub	x21,x16,x19	 x16:0x00000001 x19:0x00000000 x21=0x00000001
       53195000	      5318	80006858	00e8abb3	slt	x23,x17,x14	 x17:0x00000000 x14:0xd9216598 x23=0x00000000
       53205000	      5319	8000685c	fb9134b7	lui	x9,0xfb913	  x9=0xfb913000
       53215000	      5320	80006860	00966eb3	or	x29,x12,x9	 x12:0x80009fc4  x9:0xfb913000 x29=0xfb91bfc4
       53225000	      5321	80006864	0147cc63	blt	x15,x20,8000687c	 x15:0x00000001 x20:0x00000220
       53235000	      5322	00000000	00000013	addi	x0,x0,0	  x0:0x00000000
       53245000	      5323	80006878	00000013	addi	x0,x0,0	  x0:0x00000000
       53255000	      5324	8000687c	ed9ff36f	jal	x6,8000687c	  x6=0x8000687c
       53265000	      5325	00000000	00000013	addi	x0,x0,0	  x0:0x00000000
       53275000	      5326	80006750	00000013	addi	x0,x0,0	  x0:0x00000000
       53285000	      5327	80006754	011d5463	bge	x26,x17,8000675c	 x26:0x00000000 x17:0x00000000
       53295000	      5328	00000000	00000013	addi	x0,x0,0	  x0:0x00000000
       53305000	      5329	80006758	00000013	addi	x0,x0,0	  x0:0x00000000
       53315000	      5330	8000675c	fd890913	addi	x18,x18,-40	 x18:0x80009f00 x18=0x80009ed8
       53325000	      5331	80006760	012a42b3	xor	x5,x20,x18	 x20:0x00000220 x18:0x80009ed8  x5=0x80009cf8
       53335000	      5332	80006764	011f64b3	or	x9,x30,x17	 x30:0xf2903d81 x17:0x00000000  x9=0xf2903d81
       53345000	      5333	80006768	00b272b3	and	x5,x4,x11	  x4:0x7305f680 x11:0x364dbffe  x5=0x3205b680
       53355000	      5334	8000676c	3d616a93	ori	x21,x2,982	  x2:0x00000000 x21=0x000003d6
       53365000	      5335	80006770	f7d52793	slti	x15,x10,-131	 x10:0x00000000 x15=0x00000000
       53375000	      5336	80006774	5273c113	xori	x2,x7,1319	  x7:0xfffffffe  x2=0xfffffad9
       53385000	      5337	80006778	00692223	sw	x6,4(x18)	 x18:0x80009ed8  x6:0x8000687c PA:0x80009edc
       53395000	      5338	8000677c	01bbccb3	xor	x25,x23,x27	 x23:0x00000000 x27:0x00000000 x25=0x00000000
       53405000	      5339	80006780	00b542b3	xor	x5,x10,x11	 x10:0x00000000 x11:0x364dbffe  x5=0x364dbffe
       53415000	      5340	80006784	00cc6833	or	x16,x24,x12	 x24:0x80006803 x12:0x80009fc4 x16=0x8000ffc7
       53425000	      5341	80006788	0073d513	srli	x10,x7,0x7	  x7:0xfffffffe x10=0x01ffffff
       53435000	      5342	8000678c	00000417	auipc	x8,0x0	  x8=0x80006788
       53445000	      5343	80006790	f0440413	addi	x8,x8,-252	  x8:0x80006788  x8=0x8000668c
       53455000	      5344	80006794	00b01d93	slli	x27,x0,0xb	  x0:0x00000000 x27=0x00000000
       53465000	      5345	80006798	00e87bb3	and	x23,x16,x14	 x16:0x8000ffc7 x14:0xd9216598 x23=0x80006580
       53475000	      5346	8000679c	c8240413	addi	x8,x8,-894	  x8:0x8000668c  x8=0x8000630e
       53485000	      5347	800067a0	41a75313	srai	x6,x14,0x1a	 x14:0xd9216598  x6=0xfffffff6
       53495000	      5348	800067a4	37f40367	jalr	x6,x8,895	  x8:0x8000630e  x6=0x800067a4
       53505000	      5349	00000000	00000013	addi	x0,x0,0	  x0:0x00000000
       53515000	      5350	8000668c	00000013	addi	x0,x0,0	  x0:0x00000000
       53525000	      5351	80006690	0a566197	auipc	x3,0xa566	  x3=0x8a56c68c
       53535000	      5352	80006694	fe890913	addi	x18,x18,-24	 x18:0x80009ed8 x18=0x80009ec0
       53545000	      5353	80006698	00a255b3	srl	x11,x4,x10	  x4:0x7305f680 x10:0x01ffffff x11=0x00000000
       53555000	      5354	8000669c	4971a2b7	lui	x5,0x4971a	  x5=0x4971a000
       53565000	      5355	800066a0	81eae393	ori	x7,x21,-2018	 x21:0x000003d6  x7=0xfffffbde
       53575000	      5356	800066a4	00692223	sw	x6,4(x18)	 x18:0x80009ec0  x6:0x800067a4 PA:0x80009ec4
       53585000	      5357	800066a8	c6a7ef93	ori	x31,x15,-918	 x15:0x00000000 x31=0xfffffc6a
       53595000	      5358	800066ac	00aa11b3	sll	x3,x20,x10	 x20:0x00000220 x10:0x01ffffff  x3=0x00000000
       53605000	      5359	800066b0	012e68b3	or	x17,x28,x18	 x28:0x00000000 x18:0x80009ec0 x17=0x80009ec0
       53615000	      5360	800066b4	01180d33	add	x26,x16,x17	 x16:0x8000ffc7 x17:0x80009ec0 x26=0x00019e87
       53625000	      5361	800066b8	413085b3	sub	x11,x1,x19	  x1:0xe2000000 x19:0x00000000 x11=0xe2000000
       53635000	      5362	800066bc	001a0463	beq	x20,x1,800066c4	 x20:0x00000220  x1:0xe2000000
       53645000	      5363	800066c0	00bf0cb3	add	x25,x30,x11	 x30:0xf2903d81 x11:0xe2000000 x25=0xd4903d81
       53655000	      5364	800066c4	0389f863	bgeu	x19,x24,800066f4	 x19:0x00000000 x24:0x80006803
       53665000	      5365	800066c8	01735a33	srl	x20,x6,x23	  x6:0x800067a4 x23:0x80006580 x20=0x800067a4
       53675000	      5366	800066cc	049e9463	bne	x29,x9,80006714	 x29:0xfb91bfc4  x9:0xf2903d81
       53685000	      5367	00000000	00000013	addi	x0,x0,0	  x0:0x00000000
       53695000	      5368	80006710	00000013	addi	x0,x0,0	  x0:0x00000000
       53705000	      5369	80006714	0100fcb3	and	x25,x1,x16	  x1:0xe2000000 x16:0x8000ffc7 x25=0x80000000
       53715000	      5370	80006718	b144ac13	slti	x24,x9,-1260	  x9:0xf2903d81 x24=0x00000001
       53725000	      5371	8000671c	002fc0b3	xor	x1,x31,x2	 x31:0xfffffc6a  x2:0xfffffad9  x1=0x000006b3
       53735000	      5372	80006720	cddf6b13	ori	x22,x30,-803	 x30:0xf2903d81 x22=0xfffffddd
       53745000	      5373	80006724	00492303	lw	x6,4(x18)	 x18:0x80009ec0  x6=0x800067a4 PA:0x80009ec4
       53755000	      5374	80006728	019c1e33	sll	x28,x24,x25	 x24:0x00000001 x25:0x80000000 x28=0x00000001
       53765000	      5375	8000672c	400b5d13	srai	x26,x22,0x0	 x22:0xfffffddd x26=0xfffffddd
       53775000	      5376	80006730	01890913	addi	x18,x18,24	 x18:0x80009ec0 x18=0x80009ed8
       53785000	      5377	80006734	00cef1b3	and	x3,x29,x12	 x29:0xfb91bfc4 x12:0x80009fc4  x3=0x80009fc4
       53795000	      5378	80006738	0035a6b3	slt	x13,x11,x3	 x11:0xe2000000  x3:0x80009fc4 x13=0x00000000
       53805000	      5379	8000673c	8222e493	ori	x9,x5,-2014	  x5:0x4971a000  x9=0xfffff822
       53815000	      5380	80006740	00b65c13	srli	x24,x12,0xb	 x12:0x80009fc4 x24=0x00100013
       53825000	      5381	80006744	010457b3	srl	x15,x8,x16	  x8:0x8000630e x16:0x8000ffc7 x15=0x010000c6
       53835000	      5382	80006748	01771ab3	sll	x21,x14,x23	 x14:0xd9216598 x23:0x80006580 x21=0xd9216598
       53845000	      5383	8000674c	00030b93	addi	x23,x6,0	  x6:0x800067a4 x23=0x800067a4
       53855000	      5384	80006750	000b8be7	jalr	x23,x23,0	 x23:0x800067a4 x23=0x80006750
       53865000	      5385	00000000	00000013	addi	x0,x0,0	  x0:0x00000000
       53875000	      5386	800067a4	00000013	addi	x0,x0,0	  x0:0x00000000
       53885000	      5387	800067a8	000c7a63	bgeu	x24,x0,800067bc	 x24:0x00100013  x0:0x00000000
       53895000	      5388	00000000	00000013	addi	x0,x0,0	  x0:0x00000000
       53905000	      5389	800067b8	00000013	addi	x0,x0,0	  x0:0x00000000
       53915000	      5390	800067bc	00239293	slli	x5,x7,0x2	  x7:0xfffffbde  x5=0xffffef78
       53925000	      5391	800067c0	84f17a37	lui	x20,0x84f17	 x20=0x84f17000
       53935000	      5392	800067c4	04ccc063	blt	x25,x12,80006804	 x25:0x80000000 x12:0x80009fc4
       53945000	      5393	00000000	00000013	addi	x0,x0,0	  x0:0x00000000
       53955000	      5394	80006800	00000013	addi	x0,x0,0	  x0:0x00000000
       53965000	      5395	80006804	00b21293	slli	x5,x4,0xb	  x4:0x7305f680  x5=0x2fb40000
       53975000	      5396	80006808	00cd6a33	or	x20,x26,x12	 x26:0xfffffddd x12:0x80009fc4 x20=0xffffffdd
       53985000	      5397	8000680c	470dfb37	lui	x22,0x470df	 x22=0x470df000
       53995000	      5398	80006810	00b54233	xor	x4,x10,x11	 x10:0x01ffffff x11:0xe2000000  x4=0xe3ffffff
       54005000	      5399	80006814	00492303	lw	x6,4(x18)	 x18:0x80009ed8  x6=0x8000687c PA:0x80009edc
       54015000	      5400	80006818	00000013	addi	x0,x0,0	  x0:0x00000000
       54025000	      5401	8000681c	02890913	addi	x18,x18,40	 x18:0x80009ed8 x18=0x80009f00
       54035000	      5402	80006820	010ba033	slt	x0,x23,x16	 x23:0x80006750 x16:0x8000ffc7
       54045000	      5403	80006824	00551d93	slli	x27,x10,0x5	 x10:0x01ffffff x27=0x3fffffe0
       54055000	      5404	80006828	f0ab0f93	addi	x31,x22,-246	 x22:0x470df000 x31=0x470def0a
       54065000	      5405	8000682c	014c74b3	and	x9,x24,x20	 x24:0x00100013 x20:0xffffffdd  x9=0x00100011
       54075000	      5406	80006830	00130193	addi	x3,x6,1	  x6:0x8000687c  x3=0x8000687d
       54085000	      5407	80006834	000181e7	jalr	x3,x3,0	  x3:0x8000687d  x3=0x80006834
       54095000	      5408	00000000	00000013	addi	x0,x0,0	  x0:0x00000000
       54105000	      5409	8000687c	00000013	addi	x0,x0,0	  x0:0x00000000
       54115000	      5410	80006880	01da4b33	xor	x22,x20,x29	 x20:0xffffffdd x29:0xfb91bfc4 x22=0x046e4019
       54125000	      5411	80006884	00679693	slli	x13,x15,0x6	 x15:0x010000c6 x13=0x40003180
       54135000	      5412	80006888	ffffaf97	auipc	x31,0xffffa	 x31=0x80000884
       54145000	      5413	8000688c	b50f8f93	addi	x31,x31,-1200	 x31:0x80000884 x31=0x800003d4
       54155000	      5414	80006890	e5674c13	xori	x24,x14,-426	 x14:0xd9216598 x24=0x26de9bce
       54165000	      5415	80006894	1407bb13	sltiu	x22,x15,320	 x15:0x010000c6 x22=0x00000000
       54175000	      5416	80006898	e54f8f93	addi	x31,x31,-428	 x31:0x800003d4 x31=0x80000228
       54185000	      5417	8000689c	018b86b3	add	x13,x23,x24	 x23:0x80006750 x24:0x26de9bce x13=0xa6df031e
       54195000	      5418	800068a0	f6d6dc17	auipc	x24,0xf6d6d	 x24=0x76d7389c
       54205000	      5419	800068a4	9cb58a93	addi	x21,x11,-1589	 x11:0xe2000000 x21=0xe1fff9cb
       54215000	      5420	800068a8	ecb93c13	sltiu	x24,x18,-309	 x18:0x80009f00 x24=0x00000001
       54225000	      5421	800068ac	1adf8367	jalr	x6,x31,429	 x31:0x80000228  x6=0x800068ac
       54235000	      5422	00000000	00000013	addi	x0,x0,0	  x0:0x00000000
       54245000	      5423	800003d4	00000013	addi	x0,x0,0	  x0:0x00000000
       54255000	      5424	800003d8	fec90913	addi	x18,x18,-20	 x18:0x80009f00 x18=0x80009eec
       54265000	      5425	800003dc	00a3b533	sltu	x10,x7,x10	  x7:0xfffffbde x10:0x01ffffff x10=0x00000000
       54275000	      5426	800003e0	40cb81b3	sub	x3,x23,x12	 x23:0x80006750 x12:0x80009fc4  x3=0xffffc78c
       54285000	      5427	800003e4	41265c13	srai	x24,x12,0x12	 x12:0x80009fc4 x24=0xffffe000
       54295000	      5428	800003e8	00692223	sw	x6,4(x18)	 x18:0x80009eec  x6:0x800068ac PA:0x80009ef0
       54305000	      5429	800003ec	00ac0e33	add	x28,x24,x10	 x24:0xffffe000 x10:0x00000000 x28=0xffffe000
       54315000	      5430	800003f0	40c35193	srai	x3,x6,0xc	  x6:0x800068ac  x3=0xfff80006
       54325000	      5431	800003f4	4134de93	srai	x29,x9,0x13	  x9:0x00100011 x29=0x00000002
       54335000	      5432	800003f8	3e5c8237	lui	x4,0x3e5c8	  x4=0x3e5c8000
       54345000	      5433	800003fc	7ad52813	slti	x16,x10,1965	 x10:0x00000000 x16=0x00000001
       54355000	      5434	80000400	014fd213	srli	x4,x31,0x14	 x31:0x80000228  x4=0x00000800
       54365000	      5435	80000404	404780b3	sub	x1,x15,x4	 x15:0x010000c6  x4:0x00000800  x1=0x00fff8c6
       54375000	      5436	80000408	401a81b3	sub	x3,x21,x1	 x21:0xe1fff9cb  x1:0x00fff8c6  x3=0xe1000105
       54385000	      5437	8000040c	01b0cbb3	xor	x23,x1,x27	  x1:0x00fff8c6 x27:0x3fffffe0 x23=0x3f000726
       54395000	      5438	80000410	01c04ab3	xor	x21,x0,x28	  x0:0x00000000 x28:0xffffe000 x21=0xffffe000
       54405000	      5439	80000414	008ad113	srli	x2,x21,0x8	 x21:0xffffe000  x2=0x00ffffe0
       54415000	      5440	80000418	6d2faf93	slti	x31,x31,1746	 x31:0x80000228 x31=0x00000001
       54425000	      5441	8000041c	00006517	auipc	x10,0x6	 x10=0x80006418
       54435000	      5442	80000420	27450513	addi	x10,x10,628	 x10:0x80006418 x10=0x8000668c
       54445000	      5443	80000424	24950513	addi	x10,x10,585	 x10:0x8000668c x10=0x800068d5
       54455000	      5444	80000428	013b49b3	xor	x19,x22,x19	 x22:0x00000000 x19:0x00000000 x19=0x00000000
       54465000	      5445	8000042c	db750367	jalr	x6,x10,-585	 x10:0x800068d5  x6=0x8000042c
       54475000	      5446	00000000	00000013	addi	x0,x0,0	  x0:0x00000000
       54485000	      5447	8000668c	00000013	addi	x0,x0,0	  x0:0x00000000
       54495000	      5448	80006690	0a566197	auipc	x3,0xa566	  x3=0x8a56c68c
       54505000	      5449	80006694	fe890913	addi	x18,x18,-24	 x18:0x80009eec x18=0x80009ed4
       54515000	      5450	80006698	00a255b3	srl	x11,x4,x10	  x4:0x00000800 x10:0x800068d5 x11=0x00000000
       54525000	      5451	8000669c	4971a2b7	lui	x5,0x4971a	  x5=0x4971a000
       54535000	      5452	800066a0	81eae393	ori	x7,x21,-2018	 x21:0xffffe000  x7=0xfffff81e
       54545000	      5453	800066a4	00692223	sw	x6,4(x18)	 x18:0x80009ed4  x6:0x8000042c PA:0x80009ed8
       54555000	      5454	800066a8	c6a7ef93	ori	x31,x15,-918	 x15:0x010000c6 x31=0xfffffcee
       54565000	      5455	800066ac	00aa11b3	sll	x3,x20,x10	 x20:0xffffffdd x10:0x800068d5  x3=0xfba00000
       54575000	      5456	800066b0	012e68b3	or	x17,x28,x18	 x28:0xffffe000 x18:0x80009ed4 x17=0xfffffed4
       54585000	      5457	800066b4	01180d33	add	x26,x16,x17	 x16:0x00000001 x17:0xfffffed4 x26=0xfffffed5
       54595000	      5458	800066b8	413085b3	sub	x11,x1,x19	  x1:0x00fff8c6 x19:0x00000000 x11=0x00fff8c6
       54605000	      5459	800066bc	001a0463	beq	x20,x1,800066c4	 x20:0xffffffdd  x1:0x00fff8c6
       54615000	      5460	800066c0	00bf0cb3	add	x25,x30,x11	 x30:0xf2903d81 x11:0x00fff8c6 x25=0xf3903647
       54625000	      5461	800066c4	0389f863	bgeu	x19,x24,800066f4	 x19:0x00000000 x24:0xffffe000
       54635000	      5462	800066c8	01735a33	srl	x20,x6,x23	  x6:0x8000042c x23:0x3f000726 x20=0x02000010
       54645000	      5463	800066cc	049e9463	bne	x29,x9,80006714	 x29:0x00000002  x9:0x00100011
       54655000	      5464	00000000	00000013	addi	x0,x0,0	  x0:0x00000000
       54665000	      5465	80006710	00000013	addi	x0,x0,0	  x0:0x00000000
       54675000	      5466	80006714	0100fcb3	and	x25,x1,x16	  x1:0x00fff8c6 x16:0x00000001 x25=0x00000000
       54685000	      5467	80006718	b144ac13	slti	x24,x9,-1260	  x9:0x00100011 x24=0x00000000
       54695000	      5468	8000671c	002fc0b3	xor	x1,x31,x2	 x31:0xfffffcee  x2:0x00ffffe0  x1=0xff00030e
       54705000	      5469	80006720	cddf6b13	ori	x22,x30,-803	 x30:0xf2903d81 x22=0xfffffddd
       54715000	      5470	80006724	00492303	lw	x6,4(x18)	 x18:0x80009ed4  x6=0x8000042c PA:0x80009ed8
       54725000	      5471	80006728	019c1e33	sll	x28,x24,x25	 x24:0x00000000 x25:0x00000000 x28=0x00000000
       54735000	      5472	8000672c	400b5d13	srai	x26,x22,0x0	 x22:0xfffffddd x26=0xfffffddd
       54745000	      5473	80006730	01890913	addi	x18,x18,24	 x18:0x80009ed4 x18=0x80009eec
       54755000	      5474	80006734	00cef1b3	and	x3,x29,x12	 x29:0x00000002 x12:0x80009fc4  x3=0x00000000
       54765000	      5475	80006738	0035a6b3	slt	x13,x11,x3	 x11:0x00fff8c6  x3:0x00000000 x13=0x00000000
       54775000	      5476	8000673c	8222e493	ori	x9,x5,-2014	  x5:0x4971a000  x9=0xfffff822
       54785000	      5477	80006740	00b65c13	srli	x24,x12,0xb	 x12:0x80009fc4 x24=0x00100013
       54795000	      5478	80006744	010457b3	srl	x15,x8,x16	  x8:0x8000630e x16:0x00000001 x15=0x40003187
       54805000	      5479	80006748	01771ab3	sll	x21,x14,x23	 x14:0xd9216598 x23:0x3f000726 x21=0x48596600
       54815000	      5480	8000674c	00030b93	addi	x23,x6,0	  x6:0x8000042c x23=0x8000042c
       54825000	      5481	80006750	000b8be7	jalr	x23,x23,0	 x23:0x8000042c x23=0x80006750
       54835000	      5482	00000000	00000013	addi	x0,x0,0	  x0:0x00000000
       54845000	      5483	8000042c	00000013	addi	x0,x0,0	  x0:0x00000000
       54855000	      5484	80000430	921955b7	lui	x11,0x92195	 x11=0x92195000
       54865000	      5485	80000434	01fc9e13	slli	x28,x25,0x1f	 x25:0x00000000 x28=0x00000000
       54875000	      5486	80000438	6d49ee93	ori	x29,x19,1748	 x19:0x00000000 x29=0x000006d4
       54885000	      5487	8000043c	0145f6b3	and	x13,x11,x20	 x11:0x92195000 x20:0x02000010 x13=0x02000000
       54895000	      5488	80000440	010f9733	sll	x14,x31,x16	 x31:0xfffffcee x16:0x00000001 x14=0xfffff9dc
       54905000	      5489	80000444	418cd513	srai	x10,x25,0x18	 x25:0x00000000 x10=0x00000000
       54915000	      5490	80000448	c467a313	slti	x6,x15,-954	 x15:0x40003187  x6=0x00000000
       54925000	      5491	8000044c	41f3d513	srai	x10,x7,0x1f	  x7:0xfffff81e x10=0xffffffff
       54935000	      5492	80000450	6fe8c797	auipc	x15,0x6fe8c	 x15=0xefe8c44c
       54945000	      5493	80000454	8570a193	slti	x3,x1,-1961	  x1:0xff00030e  x3=0x00000001
       54955000	      5494	80000458	02ed1263	bne	x26,x14,8000047c	 x26:0xfffffddd x14:0xfffff9dc
       54965000	      5495	00000000	00000013	addi	x0,x0,0	  x0:0x00000000
       54975000	      5496	80000478	00000013	addi	x0,x0,0	  x0:0x00000000
       54985000	      5497	8000047c	6e526b17	auipc	x22,0x6e526	 x22=0xee526478
       54995000	      5498	80000480	4174de93	srai	x29,x9,0x17	  x9:0xfffff822 x29=0xffffffff
       55005000	      5499	80000484	0080e4b3	or	x9,x1,x8	  x1:0xff00030e  x8:0x8000630e  x9=0xff00630e
       55015000	      5500	80000488	00492303	lw	x6,4(x18)	 x18:0x80009eec  x6=0x800068ac PA:0x80009ef0
       55025000	      5501	8000048c	0055e4b3	or	x9,x11,x5	 x11:0x92195000  x5:0x4971a000  x9=0xdb79f000
       55035000	      5502	80000490	01490913	addi	x18,x18,20	 x18:0x80009eec x18=0x80009f00
       55045000	      5503	80000494	4182e517	auipc	x10,0x4182e	 x10=0xc182e490
       55055000	      5504	80000498	00260433	add	x8,x12,x2	 x12:0x80009fc4  x2:0x00ffffe0  x8=0x81009fa4
       55065000	      5505	8000049c	0118ee33	or	x28,x17,x17	 x17:0xfffffed4 x17:0xfffffed4 x28=0xfffffed4
       55075000	      5506	800004a0	bb4ded13	ori	x26,x27,-1100	 x27:0x3fffffe0 x26=0xfffffff4
       55085000	      5507	800004a4	00030413	addi	x8,x6,0	  x6:0x800068ac  x8=0x800068ac
       55095000	      5508	800004a8	00040467	jalr	x8,x8,0	  x8:0x800068ac  x8=0x800004a8
       55105000	      5509	00000000	00000013	addi	x0,x0,0	  x0:0x00000000
       55115000	      5510	800068ac	00000013	addi	x0,x0,0	  x0:0x00000000
       55125000	      5511	800068b0	c9160113	addi	x2,x12,-879	 x12:0x80009fc4  x2=0x80009c55
       55135000	      5512	800068b4	40ed5a33	sra	x20,x26,x14	 x26:0xfffffff4 x14:0xfffff9dc x20=0xffffffff
       55145000	      5513	800068b8	c2b06a37	lui	x20,0xc2b06	 x20=0xc2b06000
       55155000	      5514	800068bc	00206fb3	or	x31,x0,x2	  x0:0x00000000  x2:0x80009c55 x31=0x80009c55
       55165000	      5515	800068c0	41200ab3	sub	x21,x0,x18	  x0:0x00000000 x18:0x80009f00 x21=0x7fff6100
       55175000	      5516	800068c4	05090013	addi	x0,x18,80	 x18:0x80009f00
       55185000	      5517	800068c8	0184c863	blt	x9,x24,800068d8	  x9:0xdb79f000 x24:0x00100013
       55195000	      5518	00000000	00000013	addi	x0,x0,0	  x0:0x00000000
       55205000	      5519	800068d4	00000013	addi	x0,x0,0	  x0:0x00000000
       55215000	      5520	800068d8	b01f936f	jal	x6,800068d8	  x6=0x800068d8
       55225000	      5521	00000000	00000013	addi	x0,x0,0	  x0:0x00000000
       55235000	      5522	800003d4	00000013	addi	x0,x0,0	  x0:0x00000000
       55245000	      5523	800003d8	fec90913	addi	x18,x18,-20	 x18:0x80009f00 x18=0x80009eec
       55255000	      5524	800003dc	00a3b533	sltu	x10,x7,x10	  x7:0xfffff81e x10:0xc182e490 x10=0x00000000
       55265000	      5525	800003e0	40cb81b3	sub	x3,x23,x12	 x23:0x80006750 x12:0x80009fc4  x3=0xffffc78c
       55275000	      5526	800003e4	41265c13	srai	x24,x12,0x12	 x12:0x80009fc4 x24=0xffffe000
       55285000	      5527	800003e8	00692223	sw	x6,4(x18)	 x18:0x80009eec  x6:0x800068d8 PA:0x80009ef0
       55295000	      5528	800003ec	00ac0e33	add	x28,x24,x10	 x24:0xffffe000 x10:0x00000000 x28=0xffffe000
       55305000	      5529	800003f0	40c35193	srai	x3,x6,0xc	  x6:0x800068d8  x3=0xfff80006
       55315000	      5530	800003f4	4134de93	srai	x29,x9,0x13	  x9:0xdb79f000 x29=0xfffffb6f
       55325000	      5531	800003f8	3e5c8237	lui	x4,0x3e5c8	  x4=0x3e5c8000
       55335000	      5532	800003fc	7ad52813	slti	x16,x10,1965	 x10:0x00000000 x16=0x00000001
       55345000	      5533	80000400	014fd213	srli	x4,x31,0x14	 x31:0x80009c55  x4=0x00000800
       55355000	      5534	80000404	404780b3	sub	x1,x15,x4	 x15:0xefe8c44c  x4:0x00000800  x1=0xefe8bc4c
       55365000	      5535	80000408	401a81b3	sub	x3,x21,x1	 x21:0x7fff6100  x1:0xefe8bc4c  x3=0x9016a4b4
       55375000	      5536	8000040c	01b0cbb3	xor	x23,x1,x27	  x1:0xefe8bc4c x27:0x3fffffe0 x23=0xd01743ac
       55385000	      5537	80000410	01c04ab3	xor	x21,x0,x28	  x0:0x00000000 x28:0xffffe000 x21=0xffffe000
       55395000	      5538	80000414	008ad113	srli	x2,x21,0x8	 x21:0xffffe000  x2=0x00ffffe0
       55405000	      5539	80000418	6d2faf93	slti	x31,x31,1746	 x31:0x80009c55 x31=0x00000001
       55415000	      5540	8000041c	00006517	auipc	x10,0x6	 x10=0x80006418
       55425000	      5541	80000420	27450513	addi	x10,x10,628	 x10:0x80006418 x10=0x8000668c
       55435000	      5542	80000424	24950513	addi	x10,x10,585	 x10:0x8000668c x10=0x800068d5
       55445000	      5543	80000428	013b49b3	xor	x19,x22,x19	 x22:0xee526478 x19:0x00000000 x19=0xee526478
       55455000	      5544	8000042c	db750367	jalr	x6,x10,-585	 x10:0x800068d5  x6=0x8000042c
       55465000	      5545	00000000	00000013	addi	x0,x0,0	  x0:0x00000000
       55475000	      5546	8000668c	00000013	addi	x0,x0,0	  x0:0x00000000
       55485000	      5547	80006690	0a566197	auipc	x3,0xa566	  x3=0x8a56c68c
       55495000	      5548	80006694	fe890913	addi	x18,x18,-24	 x18:0x80009eec x18=0x80009ed4
       55505000	      5549	80006698	00a255b3	srl	x11,x4,x10	  x4:0x00000800 x10:0x800068d5 x11=0x00000000
       55515000	      5550	8000669c	4971a2b7	lui	x5,0x4971a	  x5=0x4971a000
       55525000	      5551	800066a0	81eae393	ori	x7,x21,-2018	 x21:0xffffe000  x7=0xfffff81e
       55535000	      5552	800066a4	00692223	sw	x6,4(x18)	 x18:0x80009ed4  x6:0x8000042c PA:0x80009ed8
       55545000	      5553	800066a8	c6a7ef93	ori	x31,x15,-918	 x15:0xefe8c44c x31=0xfffffc6e
       55555000	      5554	800066ac	00aa11b3	sll	x3,x20,x10	 x20:0xc2b06000 x10:0x800068d5  x3=0x00000000
       55565000	      5555	800066b0	012e68b3	or	x17,x28,x18	 x28:0xffffe000 x18:0x80009ed4 x17=0xfffffed4
       55575000	      5556	800066b4	01180d33	add	x26,x16,x17	 x16:0x00000001 x17:0xfffffed4 x26=0xfffffed5
       55585000	      5557	800066b8	413085b3	sub	x11,x1,x19	  x1:0xefe8bc4c x19:0xee526478 x11=0x019657d4
       55595000	      5558	800066bc	001a0463	beq	x20,x1,800066c4	 x20:0xc2b06000  x1:0xefe8bc4c
       55605000	      5559	800066c0	00bf0cb3	add	x25,x30,x11	 x30:0xf2903d81 x11:0x019657d4 x25=0xf4269555
       55615000	      5560	800066c4	0389f863	bgeu	x19,x24,800066f4	 x19:0xee526478 x24:0xffffe000
       55625000	      5561	800066c8	01735a33	srl	x20,x6,x23	  x6:0x8000042c x23:0xd01743ac x20=0x00080000
       55635000	      5562	800066cc	049e9463	bne	x29,x9,80006714	 x29:0xfffffb6f  x9:0xdb79f000
       55645000	      5563	00000000	00000013	addi	x0,x0,0	  x0:0x00000000
       55655000	      5564	80006710	00000013	addi	x0,x0,0	  x0:0x00000000
       55665000	      5565	80006714	0100fcb3	and	x25,x1,x16	  x1:0xefe8bc4c x16:0x00000001 x25=0x00000000
       55675000	      5566	80006718	b144ac13	slti	x24,x9,-1260	  x9:0xdb79f000 x24=0x00000001
       55685000	      5567	8000671c	002fc0b3	xor	x1,x31,x2	 x31:0xfffffc6e  x2:0x00ffffe0  x1=0xff00038e
       55695000	      5568	80006720	cddf6b13	ori	x22,x30,-803	 x30:0xf2903d81 x22=0xfffffddd
       55705000	      5569	80006724	00492303	lw	x6,4(x18)	 x18:0x80009ed4  x6=0x8000042c PA:0x80009ed8
       55715000	      5570	80006728	019c1e33	sll	x28,x24,x25	 x24:0x00000001 x25:0x00000000 x28=0x00000001
       55725000	      5571	8000672c	400b5d13	srai	x26,x22,0x0	 x22:0xfffffddd x26=0xfffffddd
       55735000	      5572	80006730	01890913	addi	x18,x18,24	 x18:0x80009ed4 x18=0x80009eec
       55745000	      5573	80006734	00cef1b3	and	x3,x29,x12	 x29:0xfffffb6f x12:0x80009fc4  x3=0x80009b44
       55755000	      5574	80006738	0035a6b3	slt	x13,x11,x3	 x11:0x019657d4  x3:0x80009b44 x13=0x00000000
       55765000	      5575	8000673c	8222e493	ori	x9,x5,-2014	  x5:0x4971a000  x9=0xfffff822
       55775000	      5576	80006740	00b65c13	srli	x24,x12,0xb	 x12:0x80009fc4 x24=0x00100013
       55785000	      5577	80006744	010457b3	srl	x15,x8,x16	  x8:0x800004a8 x16:0x00000001 x15=0x40000254
       55795000	      5578	80006748	01771ab3	sll	x21,x14,x23	 x14:0xfffff9dc x23:0xd01743ac x21=0xff9dc000
       55805000	      5579	8000674c	00030b93	addi	x23,x6,0	  x6:0x8000042c x23=0x8000042c
       55815000	      5580	80006750	000b8be7	jalr	x23,x23,0	 x23:0x8000042c x23=0x80006750
       55825000	      5581	00000000	00000013	addi	x0,x0,0	  x0:0x00000000
       55835000	      5582	8000042c	00000013	addi	x0,x0,0	  x0:0x00000000
       55845000	      5583	80000430	921955b7	lui	x11,0x92195	 x11=0x92195000
       55855000	      5584	80000434	01fc9e13	slli	x28,x25,0x1f	 x25:0x00000000 x28=0x00000000
       55865000	      5585	80000438	6d49ee93	ori	x29,x19,1748	 x19:0xee526478 x29=0xee5266fc
       55875000	      5586	8000043c	0145f6b3	and	x13,x11,x20	 x11:0x92195000 x20:0x00080000 x13=0x00080000
       55885000	      5587	80000440	010f9733	sll	x14,x31,x16	 x31:0xfffffc6e x16:0x00000001 x14=0xfffff8dc
       55895000	      5588	80000444	418cd513	srai	x10,x25,0x18	 x25:0x00000000 x10=0x00000000
       55905000	      5589	80000448	c467a313	slti	x6,x15,-954	 x15:0x40000254  x6=0x00000000
       55915000	      5590	8000044c	41f3d513	srai	x10,x7,0x1f	  x7:0xfffff81e x10=0xffffffff
       55925000	      5591	80000450	6fe8c797	auipc	x15,0x6fe8c	 x15=0xefe8c44c
       55935000	      5592	80000454	8570a193	slti	x3,x1,-1961	  x1:0xff00038e  x3=0x00000001
       55945000	      5593	80000458	02ed1263	bne	x26,x14,8000047c	 x26:0xfffffddd x14:0xfffff8dc
       55955000	      5594	00000000	00000013	addi	x0,x0,0	  x0:0x00000000
       55965000	      5595	80000478	00000013	addi	x0,x0,0	  x0:0x00000000
       55975000	      5596	8000047c	6e526b17	auipc	x22,0x6e526	 x22=0xee526478
       55985000	      5597	80000480	4174de93	srai	x29,x9,0x17	  x9:0xfffff822 x29=0xffffffff
       55995000	      5598	80000484	0080e4b3	or	x9,x1,x8	  x1:0xff00038e  x8:0x800004a8  x9=0xff0007ae
       56005000	      5599	80000488	00492303	lw	x6,4(x18)	 x18:0x80009eec  x6=0x800068d8 PA:0x80009ef0
       56015000	      5600	8000048c	0055e4b3	or	x9,x11,x5	 x11:0x92195000  x5:0x4971a000  x9=0xdb79f000
       56025000	      5601	80000490	01490913	addi	x18,x18,20	 x18:0x80009eec x18=0x80009f00
       56035000	      5602	80000494	4182e517	auipc	x10,0x4182e	 x10=0xc182e490
       56045000	      5603	80000498	00260433	add	x8,x12,x2	 x12:0x80009fc4  x2:0x00ffffe0  x8=0x81009fa4
       56055000	      5604	8000049c	0118ee33	or	x28,x17,x17	 x17:0xfffffed4 x17:0xfffffed4 x28=0xfffffed4
       56065000	      5605	800004a0	bb4ded13	ori	x26,x27,-1100	 x27:0x3fffffe0 x26=0xfffffff4
       56075000	      5606	800004a4	00030413	addi	x8,x6,0	  x6:0x800068d8  x8=0x800068d8
       56085000	      5607	800004a8	00040467	jalr	x8,x8,0	  x8:0x800068d8  x8=0x800004a8
       56095000	      5608	00000000	00000013	addi	x0,x0,0	  x0:0x00000000
       56105000	      5609	800068d8	00000013	addi	x0,x0,0	  x0:0x00000000
       56115000	      5610	800068dc	00002117	auipc	x2,0x2	  x2=0x800088d8
       56125000	      5611	800068e0	21a10113	addi	x2,x2,538	  x2:0x800088d8  x2=0x80008af2
       56135000	      5612	800068e4	07d10703	lb	x14,125(x2)	  x2:0x80008af2 x14=0xffffff8d PA:0x80008b6f
       56145000	      5613	800068e8	e22b4713	xori	x14,x22,-478	 x22:0xee526478 x14=0x11ad9a5a
       56155000	      5614	800068ec	01fd1a13	slli	x20,x26,0x1f	 x26:0xfffffff4 x20=0x00000000
       56165000	      5615	800068f0	06811823	sh	x8,112(x2)	  x2:0x80008af2  x8:0x800004a8 PA:0x80008b62
       56175000	      5616	800068f4	00a12d83	lw	x27,10(x2)	  x2:0x80008af2 x27=0x13ffd239 PA:0x80008afc
       56185000	      5617	800068f8	6a336213	ori	x4,x6,1699	  x6:0x800068d8  x4=0x80006efb
       56195000	      5618	800068fc	02612d23	sw	x6,58(x2)	  x2:0x80008af2  x6:0x800068d8 PA:0x80008b2c
       56205000	      5619	80006900	fcd102a3	sb	x13,-59(x2)	  x2:0x80008af2 x13:0x00080000 PA:0x80008ab7
       56215000	      5620	80006904	41eed593	srai	x11,x29,0x1e	 x29:0xffffffff x11=0xffffffff
       56225000	      5621	80006908	fd015c03	lhu	x24,-48(x2)	  x2:0x80008af2 x24=0x000078f8 PA:0x80008ac2
       56235000	      5622	8000690c	01d642b3	xor	x5,x12,x29	 x12:0x80009fc4 x29:0xffffffff  x5=0x7fff603b
       56245000	      5623	80006910	00000013	addi	x0,x0,0	  x0:0x00000000
       56255000	      5624	80006914	01910e83	lb	x29,25(x2)	  x2:0x80008af2 x29=0x00000013 PA:0x80008b0b
       56265000	      5625	80006918	00212183	lw	x3,2(x2)	  x2:0x80008af2  x3=0x3c7e4f6c PA:0x80008af4
       56275000	      5626	8000691c	9af0aa13	slti	x20,x1,-1617	  x1:0xff00038e x20=0x00000001
       56285000	      5627	80006920	fd212003	lw	x0,-46(x2)	  x2:0x80008af2 PA:0x80008ac4
       56295000	      5628	80006924	fd3108a3	sb	x19,-47(x2)	  x2:0x80008af2 x19:0xee526478 PA:0x80008ac3
       56305000	      5629	80006928	41b7dab3	sra	x21,x15,x27	 x15:0xefe8c44c x27:0x13ffd239 x21=0xfffffff7
       56315000	      5630	8000692c	0a710d83	lb	x27,167(x2)	  x2:0x80008af2 x27=0x0000005a PA:0x80008b99
       56325000	      5631	80006930	419b5a93	srai	x21,x22,0x19	 x22:0xee526478 x21=0xfffffff7
       56335000	      5632	80006934	065107a3	sb	x5,111(x2)	  x2:0x80008af2  x5:0x7fff603b PA:0x80008b61
       56345000	      5633	80006938	413a5a33	sra	x20,x20,x19	 x20:0x00000001 x19:0xee526478 x20=0x00000000
       56355000	      5634	8000693c	014ed3b3	srl	x7,x29,x20	 x29:0x00000013 x20:0x00000000  x7=0x00000013
       56365000	      5635	80006940	bce80a13	addi	x20,x16,-1074	 x16:0x00000001 x20=0xfffffbcf
       56375000	      5636	80006944	03711023	sh	x23,32(x2)	  x2:0x80008af2 x23:0x80006750 PA:0x80008b12
       56385000	      5637	80006948	fea10683	lb	x13,-22(x2)	  x2:0x80008af2 x13=0xffffffea PA:0x80008adc
       56395000	      5638	8000694c	01a10203	lb	x4,26(x2)	  x2:0x80008af2  x4=0xffffff97 PA:0x80008b0c
       56405000	      5639	80006950	05312323	sw	x19,70(x2)	  x2:0x80008af2 x19:0xee526478 PA:0x80008b38
       56415000	      5640	80006954	08110c03	lb	x24,129(x2)	  x2:0x80008af2 x24=0x00000040 PA:0x80008b73
       56425000	      5641	80006958	00d01eb3	sll	x29,x0,x13	  x0:0x00000000 x13:0xffffffea x29=0x00000000
       56435000	      5642	8000695c	018adfb3	srl	x31,x21,x24	 x21:0xfffffff7 x24:0x00000040 x31=0xfffffff7
       56445000	      5643	80006960	6faad737	lui	x14,0x6faad	 x14=0x6faad000
       56455000	      5644	80006964	016b8663	beq	x23,x22,80006970	 x23:0x80006750 x22:0xee526478
       56465000	      5645	80006968	41f1ddb3	sra	x27,x3,x31	  x3:0x3c7e4f6c x31:0xfffffff7 x27=0x00000078
       56475000	      5646	8000696c	0cf4c797	auipc	x15,0xcf4c	 x15=0x8cf52968
       56485000	      5647	80006970	851baa93	slti	x21,x23,-1967	 x23:0x80006750 x21=0x00000001
       56495000	      5648	80006974	01199433	sll	x8,x19,x17	 x19:0xee526478 x17:0xfffffed4  x8=0x47800000
       56505000	      5649	80006978	00000013	addi	x0,x0,0	  x0:0x00000000
       56515000	      5650	8000697c	00481033	sll	x0,x16,x4	 x16:0x00000001  x4:0xffffff97
       56525000	      5651	80006980	004f5a93	srli	x21,x30,0x4	 x30:0xf2903d81 x21=0x0f2903d8
       56535000	      5652	80006984	02a99263	bne	x19,x10,800069a8	 x19:0xee526478 x10:0xc182e490
       56545000	      5653	00000000	00000013	addi	x0,x0,0	  x0:0x00000000
       56555000	      5654	800069a4	00000013	addi	x0,x0,0	  x0:0x00000000
       56565000	      5655	800069a8	0225f063	bgeu	x11,x2,800069c8	 x11:0xffffffff  x2:0x80008af2
       56575000	      5656	00000000	00000013	addi	x0,x0,0	  x0:0x00000000
       56585000	      5657	800069c4	00000013	addi	x0,x0,0	  x0:0x00000000
       56595000	      5658	800069c8	0331f063	bgeu	x3,x19,800069e8	  x3:0x3c7e4f6c x19:0xee526478
       56605000	      5659	800069cc	eb00b513	sltiu	x10,x1,-336	  x1:0xff00038e x10=0x00000001
       56615000	      5660	800069d0	b86ac093	xori	x1,x21,-1146	 x21:0x0f2903d8  x1=0xf0d6f85e
       56625000	      5661	800069d4	b2e70113	addi	x2,x14,-1234	 x14:0x6faad000  x2=0x6faacb2e
       56635000	      5662	800069d8	00602533	slt	x10,x0,x6	  x0:0x00000000  x6:0x800068d8 x10=0x00000000
       56645000	      5663	800069dc	b0ab4693	xori	x13,x22,-1270	 x22:0xee526478 x13=0x11ad9f72
       56655000	      5664	800069e0	69504d13	xori	x26,x0,1685	  x0:0x00000000 x26=0x00000695
       56665000	      5665	800069e4	d030ca13	xori	x20,x1,-765	  x1:0xf0d6f85e x20=0x0f29055d
       56675000	      5666	800069e8	7770b813	sltiu	x16,x1,1911	  x1:0xf0d6f85e x16=0x00000000
       56685000	      5667	800069ec	00000013	addi	x0,x0,0	  x0:0x00000000
       56695000	      5668	800069f0	00f99e13	slli	x28,x19,0xf	 x19:0xee526478 x28=0x323c0000
       56705000	      5669	800069f4	01518533	add	x10,x3,x21	  x3:0x3c7e4f6c x21:0x0f2903d8 x10=0x4ba75344
       56715000	      5670	800069f8	00ef5c33	srl	x24,x30,x14	 x30:0xf2903d81 x14:0x6faad000 x24=0xf2903d81
       56725000	      5671	800069fc	0e52fcb7	lui	x25,0xe52f	 x25=0x0e52f000
       56735000	      5672	80006a00	b5601c97	auipc	x25,0xb5601	 x25=0x356079fc
       56745000	      5673	80006a04	01755d33	srl	x26,x10,x23	 x10:0x4ba75344 x23:0x80006750 x26=0x00004ba7
       56755000	      5674	80006a08	01809533	sll	x10,x1,x24	  x1:0xf0d6f85e x24:0xf2903d81 x10=0xe1adf0bc
       56765000	      5675	80006a0c	095cec93	ori	x25,x25,149	 x25:0x356079fc x25=0x356079fd
       56775000	      5676	80006a10	f6ff6b13	ori	x22,x30,-145	 x30:0xf2903d81 x22=0xffffffef
       56785000	      5677	80006a14	012d6ab3	or	x21,x26,x18	 x26:0x00004ba7 x18:0x80009f00 x21=0x8000dfa7
       56795000	      5678	80006a18	00e8fc63	bgeu	x17,x14,80006a30	 x17:0xfffffed4 x14:0x6faad000
       56805000	      5679	00000000	00000013	addi	x0,x0,0	  x0:0x00000000
       56815000	      5680	80006a2c	00000013	addi	x0,x0,0	  x0:0x00000000
       56825000	      5681	80006a30	81e7ae13	slti	x28,x15,-2018	 x15:0x8cf52968 x28=0x00000001
       56835000	      5682	80006a34	a0e16a93	ori	x21,x2,-1522	  x2:0x6faacb2e x21=0xfffffb2e
       56845000	      5683	80006a38	03ea6063	bltu	x20,x30,80006a58	 x20:0x0f29055d x30:0xf2903d81
       56855000	      5684	00000000	00000013	addi	x0,x0,0	  x0:0x00000000
       56865000	      5685	80006a54	00000013	addi	x0,x0,0	  x0:0x00000000
       56875000	      5686	80006a58	c7102793	slti	x15,x0,-911	  x0:0x00000000 x15=0x00000000
       56885000	      5687	80006a5c	40905593	srai	x11,x0,0x9	  x0:0x00000000 x11=0x00000000
       56895000	      5688	80006a60	01349863	bne	x9,x19,80006a70	  x9:0xdb79f000 x19:0xee526478
       56905000	      5689	00000000	00000013	addi	x0,x0,0	  x0:0x00000000
       56915000	      5690	80006a6c	00000013	addi	x0,x0,0	  x0:0x00000000
       56925000	      5691	80006a70	01403cb3	sltu	x25,x0,x20	  x0:0x00000000 x20:0x0f29055d x25=0x00000001
       56935000	      5692	80006a74	4097dbb3	sra	x23,x15,x9	 x15:0x00000000  x9:0xdb79f000 x23=0x00000000
       56945000	      5693	80006a78	013f6833	or	x16,x30,x19	 x30:0xf2903d81 x19:0xee526478 x16=0xfed27df9
       56955000	      5694	80006a7c	f8740693	addi	x13,x8,-121	  x8:0x47800000 x13=0x477fff87
       56965000	      5695	80006a80	00cfd8b3	srl	x17,x31,x12	 x31:0xfffffff7 x12:0x80009fc4 x17=0x0fffffff
       56975000	      5696	80006a84	0349e263	bltu	x19,x20,80006aa8	 x19:0xee526478 x20:0x0f29055d
       56985000	      5697	80006a88	048d1863	bne	x26,x8,80006ad8	 x26:0x00004ba7  x8:0x47800000
       56995000	      5698	00000000	00000013	addi	x0,x0,0	  x0:0x00000000
       57005000	      5699	80006ad4	00000013	addi	x0,x0,0	  x0:0x00000000
       57015000	      5700	80006ad8	014b4733	xor	x14,x22,x20	 x22:0xffffffef x20:0x0f29055d x14=0xf0d6fab2
       57025000	      5701	80006adc	01a15713	srli	x14,x2,0x1a	  x2:0x6faacb2e x14=0x0000001b
       57035000	      5702	80006ae0	05c37263	bgeu	x6,x28,80006b24	  x6:0x800068d8 x28:0x00000001
       57045000	      5703	00000000	00000013	addi	x0,x0,0	  x0:0x00000000
       57055000	      5704	80006b20	00000013	addi	x0,x0,0	  x0:0x00000000
       57065000	      5705	80006b24	1c13f837	lui	x16,0x1c13f	 x16=0x1c13f000
       57075000	      5706	80006b28	01b04863	blt	x0,x27,80006b38	  x0:0x00000000 x27:0x00000078
       57085000	      5707	00000000	00000013	addi	x0,x0,0	  x0:0x00000000
       57095000	      5708	80006b34	00000013	addi	x0,x0,0	  x0:0x00000000
       57105000	      5709	80006b38	0cb12c93	slti	x25,x2,203	  x2:0x6faacb2e x25=0x00000000
       57115000	      5710	80006b3c	0058bab3	sltu	x21,x17,x5	 x17:0x0fffffff  x5:0x7fff603b x21=0x00000001
       57125000	      5711	80006b40	00191e33	sll	x28,x18,x1	 x18:0x80009f00  x1:0xf0d6f85e x28=0x00000000
       57135000	      5712	80006b44	037cc063	blt	x25,x23,80006b64	 x25:0x00000000 x23:0x00000000
       57145000	      5713	80006b48	6013cd93	xori	x27,x7,1537	  x7:0x00000013 x27=0x00000612
       57155000	      5714	80006b4c	01c58333	add	x6,x11,x28	 x11:0x00000000 x28:0x00000000  x6=0x00000000
       57165000	      5715	80006b50	001c1513	slli	x10,x24,0x1	 x24:0xf2903d81 x10=0xe5207b02
       57175000	      5716	80006b54	02f8d263	bge	x17,x15,80006b78	 x17:0x0fffffff x15:0x00000000
       57185000	      5717	00000000	00000013	addi	x0,x0,0	  x0:0x00000000
       57195000	      5718	80006b74	00000013	addi	x0,x0,0	  x0:0x00000000
       57205000	      5719	80006b78	01c3b5b3	sltu	x11,x7,x28	  x7:0x00000013 x28:0x00000000 x11=0x00000000
       57215000	      5720	80006b7c	29697c93	andi	x25,x18,662	 x18:0x80009f00 x25=0x00000200
       57225000	      5721	80006b80	00f35eb3	srl	x29,x6,x15	  x6:0x00000000 x15:0x00000000 x29=0x00000000
       57235000	      5722	80006b84	05c31063	bne	x6,x28,80006bc4	  x6:0x00000000 x28:0x00000000
       57245000	      5723	80006b88	0012c6b3	xor	x13,x5,x1	  x5:0x7fff603b  x1:0xf0d6f85e x13=0x8f299865
       57255000	      5724	80006b8c	00000013	addi	x0,x0,0	  x0:0x00000000
       57265000	      5725	80006b90	00b72d33	slt	x26,x14,x11	 x14:0x0000001b x11:0x00000000 x26=0x00000000
       57275000	      5726	80006b94	0057c263	blt	x15,x5,80006b98	 x15:0x00000000  x5:0x7fff603b
       57285000	      5727	00000000	00000013	addi	x0,x0,0	  x0:0x00000000
       57295000	      5728	80006b94	00000013	addi	x0,x0,0	  x0:0x00000000
       57305000	      5729	80006b98	1e76ba93	sltiu	x21,x13,487	 x13:0x8f299865 x21=0x00000000
       57315000	      5730	80006b9c	01cd5133	srl	x2,x26,x28	 x26:0x00000000 x28:0x00000000  x2=0x00000000
       57325000	      5731	80006ba0	00221793	slli	x15,x4,0x2	  x4:0xffffff97 x15=0xfffffe5c
       57335000	      5732	80006ba4	9ffb6b13	ori	x22,x22,-1537	 x22:0xffffffef x22=0xffffffff
       57345000	      5733	80006ba8	62d18b93	addi	x23,x3,1581	  x3:0x3c7e4f6c x23=0x3c7e5599
       57355000	      5734	80006bac	94d26993	ori	x19,x4,-1715	  x4:0xffffff97 x19=0xffffffdf
       57365000	      5735	80006bb0	011e5263	bge	x28,x17,80006bb4	 x28:0x00000000 x17:0x0fffffff
       57375000	      5736	80006bb4	04010663	beq	x2,x0,80006c00	  x2:0x00000000  x0:0x00000000
       57385000	      5737	00000000	00000013	addi	x0,x0,0	  x0:0x00000000
       57395000	      5738	80006bfc	00000013	addi	x0,x0,0	  x0:0x00000000
       57405000	      5739	80006c00	016161b3	or	x3,x2,x22	  x2:0x00000000 x22:0xffffffff  x3=0xffffffff
       57415000	      5740	80006c04	40e85ab3	sra	x21,x16,x14	 x16:0x1c13f000 x14:0x0000001b x21=0x00000003
       57425000	      5741	80006c08	01600e63	beq	x0,x22,80006c24	  x0:0x00000000 x22:0xffffffff
       57435000	      5742	80006c0c	a0dad097	auipc	x1,0xa0dad	  x1=0x20db3c08
       57445000	      5743	80006c10	01a51e63	bne	x10,x26,80006c2c	 x10:0xe5207b02 x26:0x00000000
       57455000	      5744	00000000	00000013	addi	x0,x0,0	  x0:0x00000000
       57465000	      5745	80006c28	00000013	addi	x0,x0,0	  x0:0x00000000
       57475000	      5746	80006c2c	01d573b3	and	x7,x10,x29	 x10:0xe5207b02 x29:0x00000000  x7=0x00000000
       57485000	      5747	80006c30	01694863	blt	x18,x22,80006c40	 x18:0x80009f00 x22:0xffffffff
       57495000	      5748	00000000	00000013	addi	x0,x0,0	  x0:0x00000000
       57505000	      5749	80006c3c	00000013	addi	x0,x0,0	  x0:0x00000000
       57515000	      5750	80006c40	ec292313	slti	x6,x18,-318	 x18:0x80009f00  x6=0x00000001
       57525000	      5751	80006c44	00e61093	slli	x1,x12,0xe	 x12:0x80009fc4  x1=0x27f10000
       57535000	      5752	80006c48	003f7db3	and	x27,x30,x3	 x30:0xf2903d81  x3:0xffffffff x27=0xf2903d81
       57545000	      5753	80006c4c	ffb46b37	lui	x22,0xffb46	 x22=0xffb46000
       57555000	      5754	80006c50	3a922313	slti	x6,x4,937	  x4:0xffffff97  x6=0x00000001
       57565000	      5755	80006c54	002ecab3	xor	x21,x29,x2	 x29:0x00000000  x2:0x00000000 x21=0x00000000
       57575000	      5756	80006c58	5e91fe93	andi	x29,x3,1513	  x3:0xffffffff x29=0x000005e9
       57585000	      5757	80006c5c	00492303	lw	x6,4(x18)	 x18:0x80009f00  x6=0x80000500 PA:0x80009f04
       57595000	      5758	80006c60	a52e4593	xori	x11,x28,-1454	 x28:0x00000000 x11=0xfffffa52
       57605000	      5759	80006c64	008e6bb3	or	x23,x28,x8	 x28:0x00000000  x8:0x47800000 x23=0x47800000
       57615000	      5760	80006c68	01143eb3	sltu	x29,x8,x17	  x8:0x47800000 x17:0x0fffffff x29=0x00000000
       57625000	      5761	80006c6c	00b8da33	srl	x20,x17,x11	 x17:0x0fffffff x11:0xfffffa52 x20=0x000003ff
       57635000	      5762	80006c70	00c90913	addi	x18,x18,12	 x18:0x80009f00 x18=0x80009f0c
       57645000	      5763	80006c74	01969b13	slli	x22,x13,0x19	 x13:0x8f299865 x22=0xca000000
       57655000	      5764	80006c78	42486013	ori	x0,x16,1060	 x16:0x1c13f000
       57665000	      5765	80006c7c	00030793	addi	x15,x6,0	  x6:0x80000500 x15=0x80000500
       57675000	      5766	80006c80	000787e7	jalr	x15,x15,0	 x15:0x80000500 x15=0x80006c80
       57685000	      5767	00000000	00000013	addi	x0,x0,0	  x0:0x00000000
       57695000	      5768	80000500	00000013	addi	x0,x0,0	  x0:0x00000000
       57705000	      5769	80000504	41c90533	sub	x10,x18,x28	 x18:0x80009f0c x28:0x00000000 x10=0x80009f0c
       57715000	      5770	80000508	ed272593	slti	x11,x14,-302	 x14:0x0000001b x11=0x00000000
       57725000	      5771	8000050c	41acd233	sra	x4,x25,x26	 x25:0x00000200 x26:0x00000000  x4=0x00000200
       57735000	      5772	80000510	009c1db3	sll	x27,x24,x9	 x24:0xf2903d81  x9:0xdb79f000 x27=0xf2903d81
       57745000	      5773	80000514	00c77263	bgeu	x14,x12,80000518	 x14:0x0000001b x12:0x80009fc4
       57755000	      5774	80000518	01b634b3	sltu	x9,x12,x27	 x12:0x80009fc4 x27:0xf2903d81  x9=0x00000001
       57765000	      5775	8000051c	08cfc537	lui	x10,0x8cfc	 x10=0x08cfc000
       57775000	      5776	80000520	0122ecb3	or	x25,x5,x18	  x5:0x7fff603b x18:0x80009f0c x25=0xffffff3f
       57785000	      5777	80000524	01826e33	or	x28,x4,x24	  x4:0x00000200 x24:0xf2903d81 x28=0xf2903f81
       57795000	      5778	80000528	002cdc33	srl	x24,x25,x2	 x25:0xffffff3f  x2:0x00000000 x24=0xffffff3f
       57805000	      5779	8000052c	7578a537	lui	x10,0x7578a	 x10=0x7578a000
       57815000	      5780	80000530	00489733	sll	x14,x17,x4	 x17:0x0fffffff  x4:0x00000200 x14=0x0fffffff
       57825000	      5781	80000534	007fc463	blt	x31,x7,8000053c	 x31:0xfffffff7  x7:0x00000000
       57835000	      5782	00000000	00000013	addi	x0,x0,0	  x0:0x00000000
       57845000	      5783	80000538	00000013	addi	x0,x0,0	  x0:0x00000000
       57855000	      5784	8000053c	41795d93	srai	x27,x18,0x17	 x18:0x80009f0c x27=0xffffff00
       57865000	      5785	80000540	010861b3	or	x3,x16,x16	 x16:0x1c13f000 x16:0x1c13f000  x3=0x1c13f000
       57875000	      5786	80000544	01fdd0b3	srl	x1,x27,x31	 x27:0xffffff00 x31:0xfffffff7  x1=0x000001ff
       57885000	      5787	80000548	00492303	lw	x6,4(x18)	 x18:0x80009f0c  x6=0x80000a50 PA:0x80009f10
       57895000	      5788	8000054c	01cf6033	or	x0,x30,x28	 x30:0xf2903d81 x28:0xf2903f81
       57905000	      5789	80000550	02c90913	addi	x18,x18,44	 x18:0x80009f0c x18=0x80009f38
       57915000	      5790	80000554	a1054b93	xori	x23,x10,-1520	 x10:0x7578a000 x23=0x8a875a10
       57925000	      5791	80000558	00d072b3	and	x5,x0,x13	  x0:0x00000000 x13:0x8f299865  x5=0x00000000
       57935000	      5792	8000055c	278bb813	sltiu	x16,x23,632	 x23:0x8a875a10 x16=0x00000000
       57945000	      5793	80000560	00130d13	addi	x26,x6,1	  x6:0x80000a50 x26=0x80000a51
       57955000	      5794	80000564	000d0d67	jalr	x26,x26,0	 x26:0x80000a51 x26=0x80000564
       57965000	      5795	00000000	00000013	addi	x0,x0,0	  x0:0x00000000
       57975000	      5796	80000a50	00000013	addi	x0,x0,0	  x0:0x00000000
       57985000	      5797	80000a54	03207263	bgeu	x0,x18,80000a78	  x0:0x00000000 x18:0x80009f38
       57995000	      5798	80000a58	0180db93	srli	x23,x1,0x18	  x1:0x000001ff x23=0x00000000
       58005000	      5799	80000a5c	004c8e63	beq	x25,x4,80000a78	 x25:0xffffff3f  x4:0x00000200
       58015000	      5800	80000a60	01c7c433	xor	x8,x15,x28	 x15:0x80006c80 x28:0xf2903f81  x8=0x72905301
       58025000	      5801	80000a64	e4843893	sltiu	x17,x8,-440	  x8:0x72905301 x17=0x00000001
       58035000	      5802	80000a68	499ec393	xori	x7,x29,1177	 x29:0x00000000  x7=0x00000499
       58045000	      5803	80000a6c	01679263	bne	x15,x22,80000a70	 x15:0x80006c80 x22:0xca000000
       58055000	      5804	00000000	00000013	addi	x0,x0,0	  x0:0x00000000
       58065000	      5805	80000a6c	00000013	addi	x0,x0,0	  x0:0x00000000
       58075000	      5806	80000a70	9cc2a217	auipc	x4,0x9cc2a	  x4=0x1cc2aa6c
       58085000	      5807	80000a74	ab43aa93	slti	x21,x7,-1356	  x7:0x00000499 x21=0x00000000
       58095000	      5808	80000a78	ed0ffc13	andi	x24,x31,-304	 x31:0xfffffff7 x24=0xfffffed0
       58105000	      5809	80000a7c	01a30c93	addi	x25,x6,26	  x6:0x80000a50 x25=0x80000a6a
       58115000	      5810	80000a80	e9cd8493	addi	x9,x27,-356	 x27:0xffffff00  x9=0xfffffd9c
       58125000	      5811	80000a84	24902113	slti	x2,x0,585	  x0:0x00000000  x2=0x00000001
       58135000	      5812	80000a88	7936ae93	slti	x29,x13,1939	 x13:0x8f299865 x29=0x00000001
       58145000	      5813	80000a8c	00000013	addi	x0,x0,0	  x0:0x00000000
       58155000	      5814	80000a90	01d11733	sll	x14,x2,x29	  x2:0x00000001 x29:0x00000001 x14=0x00000002
       58165000	      5815	80000a94	00492303	lw	x6,4(x18)	 x18:0x80009f38  x6=0x800005b8 PA:0x80009f3c
       58175000	      5816	80000a98	02090913	addi	x18,x18,32	 x18:0x80009f38 x18=0x80009f58
       58185000	      5817	80000a9c	01ebd713	srli	x14,x23,0x1e	 x23:0x00000000 x14=0x00000000
       58195000	      5818	80000aa0	015afeb3	and	x29,x21,x21	 x21:0x00000000 x21:0x00000000 x29=0x00000000
       58205000	      5819	80000aa4	66c9b793	sltiu	x15,x19,1644	 x19:0xffffffdf x15=0x00000000
       58215000	      5820	80000aa8	00000013	addi	x0,x0,0	  x0:0x00000000
       58225000	      5821	80000aac	00130d93	addi	x27,x6,1	  x6:0x800005b8 x27=0x800005b9
       58235000	      5822	80000ab0	000d8de7	jalr	x27,x27,0	 x27:0x800005b9 x27=0x80000ab0
       58245000	      5823	00000000	00000013	addi	x0,x0,0	  x0:0x00000000
       58255000	      5824	800005b8	00000013	addi	x0,x0,0	  x0:0x00000000
       58265000	      5825	800005bc	01077db3	and	x27,x14,x16	 x14:0x00000000 x16:0x00000000 x27=0x00000000
       58275000	      5826	800005c0	787cc993	xori	x19,x25,1927	 x25:0x80000a6a x19=0x80000ded
       58285000	      5827	800005c4	00000013	addi	x0,x0,0	  x0:0x00000000
       58295000	      5828	800005c8	268bab13	slti	x22,x23,616	 x23:0x00000000 x22=0x00000001
       58305000	      5829	800005cc	e955da37	lui	x20,0xe955d	 x20=0xe955d000
       58315000	      5830	800005d0	01a0cc63	blt	x1,x26,800005e8	  x1:0x000001ff x26:0x80000564
       58325000	      5831	800005d4	2349ce17	auipc	x28,0x2349c	 x28=0xa349c5d0
       58335000	      5832	800005d8	760c8193	addi	x3,x25,1888	 x25:0x80000a6a  x3=0x800011ca
       58345000	      5833	800005dc	01399a63	bne	x19,x19,800005f0	 x19:0x80000ded x19:0x80000ded
       58355000	      5834	800005e0	01311263	bne	x2,x19,800005e4	  x2:0x00000001 x19:0x80000ded
       58365000	      5835	00000000	00000013	addi	x0,x0,0	  x0:0x00000000
       58375000	      5836	800005e0	00000013	addi	x0,x0,0	  x0:0x00000000
       58385000	      5837	800005e4	00b7ea33	or	x20,x15,x11	 x15:0x00000000 x11:0x00000000 x20=0x00000000
       58395000	      5838	800005e8	02bac863	blt	x21,x11,80000618	 x21:0x00000000 x11:0x00000000
       58405000	      5839	800005ec	01fcb4b3	sltu	x9,x25,x31	 x25:0x80000a6a x31:0xfffffff7  x9=0x00000001
       58415000	      5840	800005f0	b59ec097	auipc	x1,0xb59ec	  x1=0x359ec5ec
       58425000	      5841	800005f4	402d8e33	sub	x28,x27,x2	 x27:0x00000000  x2:0x00000001 x28=0xffffffff
       58435000	      5842	800005f8	00d207b3	add	x15,x4,x13	  x4:0x1cc2aa6c x13:0x8f299865 x15=0xabec42d1
       58445000	      5843	800005fc	08de9c37	lui	x24,0x8de9	 x24=0x08de9000
       58455000	      5844	80000600	009ab833	sltu	x16,x21,x9	 x21:0x00000000  x9:0x00000001 x16=0x00000001
       58465000	      5845	80000604	9eb1fb93	andi	x23,x3,-1557	  x3:0x800011ca x23=0x800011ca
       58475000	      5846	80000608	923d7493	andi	x9,x26,-1757	 x26:0x80000564  x9=0x80000120
       58485000	      5847	8000060c	4196d113	srai	x2,x13,0x19	 x13:0x8f299865  x2=0xffffffc7
       58495000	      5848	80000610	521f4c93	xori	x25,x30,1313	 x30:0xf2903d81 x25=0xf29038a0
       58505000	      5849	80000614	4154d7b3	sra	x15,x9,x21	  x9:0x80000120 x21:0x00000000 x15=0x80000120
       58515000	      5850	80000618	016586b3	add	x13,x11,x22	 x11:0x00000000 x22:0x00000001 x13=0x00000001
       58525000	      5851	8000061c	0e3c4013	xori	x0,x24,227	 x24:0x08de9000
       58535000	      5852	80000620	e4841e97	auipc	x29,0xe4841	 x29=0x6484161c
       58545000	      5853	80000624	b2d84713	xori	x14,x16,-1235	 x16:0x00000001 x14=0xfffffb2c
       58555000	      5854	80000628	45e26437	lui	x8,0x45e26	  x8=0x45e26000
       58565000	      5855	8000062c	02cfc863	blt	x31,x12,8000065c	 x31:0xfffffff7 x12:0x80009fc4
       58575000	      5856	80000630	02427663	bgeu	x4,x4,8000065c	  x4:0x1cc2aa6c  x4:0x1cc2aa6c
       58585000	      5857	00000000	00000013	addi	x0,x0,0	  x0:0x00000000
       58595000	      5858	80000658	00000013	addi	x0,x0,0	  x0:0x00000000
       58605000	      5859	8000065c	00000013	addi	x0,x0,0	  x0:0x00000000
       58615000	      5860	80000660	03e0de63	bge	x1,x30,8000069c	  x1:0x359ec5ec x30:0xf2903d81
       58625000	      5861	00000000	00000013	addi	x0,x0,0	  x0:0x00000000
       58635000	      5862	80000698	00000013	addi	x0,x0,0	  x0:0x00000000
       58645000	      5863	8000069c	003a5e63	bge	x20,x3,800006b8	 x20:0x00000000  x3:0x800011ca
       58655000	      5864	00000000	00000013	addi	x0,x0,0	  x0:0x00000000
       58665000	      5865	800006b4	00000013	addi	x0,x0,0	  x0:0x00000000
       58675000	      5866	800006b8	403150b3	sra	x1,x2,x3	  x2:0xffffffc7  x3:0x800011ca  x1=0xffffffff
       58685000	      5867	800006bc	50423717	auipc	x14,0x50423	 x14=0xd04236b8
       58695000	      5868	800006c0	d4533a13	sltiu	x20,x6,-699	  x6:0x800005b8 x20=0x00000001
       58705000	      5869	800006c4	add1b793	sltiu	x15,x3,-1315	  x3:0x800011ca x15=0x00000001
       58715000	      5870	800006c8	0079fd33	and	x26,x19,x7	 x19:0x80000ded  x7:0x00000499 x26=0x00000489
       58725000	      5871	800006cc	44aec813	xori	x16,x29,1098	 x29:0x6484161c x16=0x64841256
       58735000	      5872	800006d0	00000013	addi	x0,x0,0	  x0:0x00000000
       58745000	      5873	800006d4	7a5eba97	auipc	x21,0x7a5eb	 x21=0xfa5eb6d0
       58755000	      5874	800006d8	00fe5193	srli	x3,x28,0xf	 x28:0xffffffff  x3=0x0001ffff
       58765000	      5875	800006dc	003b3e33	sltu	x28,x22,x3	 x22:0x00000001  x3:0x0001ffff x28=0x00000001
       58775000	      5876	800006e0	f13481b7	lui	x3,0xf1348	  x3=0xf1348000
       58785000	      5877	800006e4	004981b3	add	x3,x19,x4	 x19:0x80000ded  x4:0x1cc2aa6c  x3=0x9cc2b859
       58795000	      5878	800006e8	01c734b3	sltu	x9,x14,x28	 x14:0xd04236b8 x28:0x00000001  x9=0x00000000
       58805000	      5879	800006ec	000d6bb3	or	x23,x26,x0	 x26:0x00000489  x0:0x00000000 x23=0x00000489
       58815000	      5880	800006f0	ab8bc713	xori	x14,x23,-1352	 x23:0x00000489 x14=0xfffffe31
       58825000	      5881	800006f4	007815b3	sll	x11,x16,x7	 x16:0x64841256  x7:0x00000499 x11=0xac000000
       58835000	      5882	800006f8	01e9ce33	xor	x28,x19,x30	 x19:0x80000ded x30:0xf2903d81 x28=0x7290306c
       58845000	      5883	800006fc	84354113	xori	x2,x10,-1981	 x10:0x7578a000  x2=0x8a875843
       58855000	      5884	80000700	00c42133	slt	x2,x8,x12	  x8:0x45e26000 x12:0x80009fc4  x2=0x00000000
       58865000	      5885	80000704	653bbd93	sltiu	x27,x23,1619	 x23:0x00000489 x27=0x00000001
       58875000	      5886	80000708	3dffec13	ori	x24,x31,991	 x31:0xfffffff7 x24=0xffffffff
       58885000	      5887	8000070c	03429a63	bne	x5,x20,80000740	  x5:0x00000000 x20:0x00000001
       58895000	      5888	00000000	00000013	addi	x0,x0,0	  x0:0x00000000
       58905000	      5889	8000073c	00000013	addi	x0,x0,0	  x0:0x00000000
       58915000	      5890	80000740	00723d33	sltu	x26,x4,x7	  x4:0x1cc2aa6c  x7:0x00000499 x26=0x00000000
       58925000	      5891	80000744	7c9a8413	addi	x8,x21,1993	 x21:0xfa5eb6d0  x8=0xfa5ebe99
       58935000	      5892	80000748	010a37b3	sltu	x15,x20,x16	 x20:0x00000001 x16:0x64841256 x15=0x00000001
       58945000	      5893	8000074c	00485533	srl	x10,x16,x4	 x16:0x64841256  x4:0x1cc2aa6c x10=0x00064841
       58955000	      5894	80000750	99330c93	addi	x25,x6,-1645	  x6:0x800005b8 x25=0x7fffff4b
       58965000	      5895	80000754	00000013	addi	x0,x0,0	  x0:0x00000000
       58975000	      5896	80000758	006866b3	or	x13,x16,x6	 x16:0x64841256  x6:0x800005b8 x13=0xe48417fe
       58985000	      5897	8000075c	0f71e097	auipc	x1,0xf71e	  x1=0x8f71e758
       58995000	      5898	80000760	f0d4cb13	xori	x22,x9,-243	  x9:0x00000000 x22=0xffffff0d
       59005000	      5899	80000764	05594063	blt	x18,x21,800007a4	 x18:0x80009f58 x21:0xfa5eb6d0
       59015000	      5900	00000000	00000013	addi	x0,x0,0	  x0:0x00000000
       59025000	      5901	800007a0	00000013	addi	x0,x0,0	  x0:0x00000000
       59035000	      5902	800007a4	40f2da13	srai	x20,x5,0xf	  x5:0x00000000 x20=0x00000000
       59045000	      5903	800007a8	505c2b93	slti	x23,x24,1285	 x24:0xffffffff x23=0x00000001
       59055000	      5904	800007ac	4a83ff93	andi	x31,x7,1192	  x7:0x00000499 x31=0x00000488
       59065000	      5905	800007b0	01a365b3	or	x11,x6,x26	  x6:0x800005b8 x26:0x00000000 x11=0x800005b8
       59075000	      5906	800007b4	00492303	lw	x6,4(x18)	 x18:0x80009f58  x6=0x80000150 PA:0x80009f5c
       59085000	      5907	800007b8	618ae093	ori	x1,x21,1560	 x21:0xfa5eb6d0  x1=0xfa5eb6d8
       59095000	      5908	800007bc	02c90913	addi	x18,x18,44	 x18:0x80009f58 x18=0x80009f84
       59105000	      5909	800007c0	019a9c33	sll	x24,x21,x25	 x21:0xfa5eb6d0 x25:0x7fffff4b x24=0xf5b68000
       59115000	      5910	800007c4	00130113	addi	x2,x6,1	  x6:0x80000150  x2=0x80000151
       59125000	      5911	800007c8	00010167	jalr	x2,x2,0	  x2:0x80000151  x2=0x800007c8
       59135000	      5912	00000000	00000013	addi	x0,x0,0	  x0:0x00000000
       59145000	      5913	80000150	00000013	addi	x0,x0,0	  x0:0x00000000
       59155000	      5914	80000154	00008817	auipc	x16,0x8	 x16=0x80008150
       59165000	      5915	80000158	1ab80813	addi	x16,x16,427	 x16:0x80008150 x16=0x800082fb
       59175000	      5916	8000015c	03c84a83	lbu	x21,60(x16)	 x16:0x800082fb x21=0x000000c5 PA:0x80008337
       59185000	      5917	80000160	fda80983	lb	x19,-38(x16)	 x16:0x800082fb x19=0x00000035 PA:0x800082d5
       59195000	      5918	80000164	02c819a3	sh	x12,51(x16)	 x16:0x800082fb x12:0x80009fc4 PA:0x8000832e
       59205000	      5919	80000168	8237bd93	sltiu	x27,x15,-2013	 x15:0x00000001 x27=0x00000001
       59215000	      5920	8000016c	0b04b217	auipc	x4,0xb04b	  x4=0x8b04b168
       59225000	      5921	80000170	fcc80a83	lb	x21,-52(x16)	 x16:0x800082fb x21=0xfffffff2 PA:0x800082c7
       59235000	      5922	80000174	419dd693	srai	x13,x27,0x19	 x27:0x00000001 x13=0x00000000
       59245000	      5923	80000178	04084403	lbu	x8,64(x16)	 x16:0x800082fb  x8=0x000000ad PA:0x8000833b
       59255000	      5924	8000017c	01f81083	lh	x1,31(x16)	 x16:0x800082fb  x1=0xffff9c55 PA:0x8000831a
       59265000	      5925	80000180	fd384b03	lbu	x22,-45(x16)	 x16:0x800082fb x22=0x000000ed PA:0x800082ce
       59275000	      5926	80000184	fca80103	lb	x2,-54(x16)	 x16:0x800082fb  x2=0x0000003d PA:0x800082c5
       59285000	      5927	80000188	009d1533	sll	x10,x26,x9	 x26:0x00000000  x9:0x00000000 x10=0x00000000
       59295000	      5928	8000018c	01880223	sb	x24,4(x16)	 x16:0x800082fb x24:0xf5b68000 PA:0x800082ff
       59305000	      5929	80000190	85a90c93	addi	x25,x18,-1958	 x18:0x80009f84 x25=0x800097de
       59315000	      5930	80000194	01fb9a13	slli	x20,x23,0x1f	 x23:0x00000001 x20=0x80000000
       59325000	      5931	80000198	009e5e13	srli	x28,x28,0x9	 x28:0x7290306c x28=0x00394818
       59335000	      5932	8000019c	33c72e97	auipc	x29,0x33c72	 x29=0xb3c72198
       59345000	      5933	800001a0	03c80183	lb	x3,60(x16)	 x16:0x800082fb  x3=0xffffffc5 PA:0x80008337
       59355000	      5934	800001a4	60e6efb7	lui	x31,0x60e6e	 x31=0x60e6e000
       59365000	      5935	800001a8	01f85483	lhu	x9,31(x16)	 x16:0x800082fb  x9=0x00009c55 PA:0x8000831a
       59375000	      5936	800001ac	03e84683	lbu	x13,62(x16)	 x16:0x800082fb x13=0x000000d8 PA:0x80008339
       59385000	      5937	800001b0	fda84b83	lbu	x23,-38(x16)	 x16:0x800082fb x23=0x00000035 PA:0x800082d5
       59395000	      5938	800001b4	00000013	addi	x0,x0,0	  x0:0x00000000
       59405000	      5939	800001b8	fe185b03	lhu	x22,-31(x16)	 x16:0x800082fb x22=0x00007079 PA:0x800082dc
       59415000	      5940	800001bc	00e80223	sb	x14,4(x16)	 x16:0x800082fb x14:0xfffffe31 PA:0x800082ff
       59425000	      5941	800001c0	03d81003	lh	x0,61(x16)	 x16:0x800082fb PA:0x80008338
       59435000	      5942	800001c4	fc480e03	lb	x28,-60(x16)	 x16:0x800082fb x28=0xffffffd4 PA:0x800082bf
       59445000	      5943	800001c8	012805a3	sb	x18,11(x16)	 x16:0x800082fb x18:0x80009f84 PA:0x80008306
       59455000	      5944	800001cc	fd680a23	sb	x22,-44(x16)	 x16:0x800082fb x22:0x00007079 PA:0x800082cf
       59465000	      5945	800001d0	fef84083	lbu	x1,-17(x16)	 x16:0x800082fb  x1=0x0000009b PA:0x800082ea
       59475000	      5946	800001d4	2ea14593	xori	x11,x2,746	  x2:0x0000003d x11=0x000002d7
       59485000	      5947	800001d8	0118db33	srl	x22,x17,x17	 x17:0x00000001 x17:0x00000001 x22=0x00000000
       59495000	      5948	800001dc	730b1c37	lui	x24,0x730b1	 x24=0x730b1000
       59505000	      5949	800001e0	40c8da33	sra	x20,x17,x12	 x17:0x00000001 x12:0x80009fc4 x20=0x00000000
       59515000	      5950	800001e4	412556b3	sra	x13,x10,x18	 x10:0x00000000 x18:0x80009f84 x13=0x00000000
       59525000	      5951	800001e8	463f6717	auipc	x14,0x463f6	 x14=0xc63f61e4
       59535000	      5952	800001ec	00295013	srli	x0,x18,0x2	 x18:0x80009f84
       59545000	      5953	800001f0	12ba7a37	lui	x20,0x12ba7	 x20=0x12ba7000
       59555000	      5954	800001f4	65c7ec93	ori	x25,x15,1628	 x15:0x00000001 x25=0x0000065d
       59565000	      5955	800001f8	04885263	bge	x16,x8,8000023c	 x16:0x800082fb  x8:0x000000ad
       59575000	      5956	800001fc	0034f433	and	x8,x9,x3	  x9:0x00009c55  x3:0xffffffc5  x8=0x00009c45
       59585000	      5957	80000200	00aec663	blt	x29,x10,8000020c	 x29:0xb3c72198 x10:0x00000000
       59595000	      5958	00000000	00000013	addi	x0,x0,0	  x0:0x00000000
       59605000	      5959	80000208	00000013	addi	x0,x0,0	  x0:0x00000000
       59615000	      5960	8000020c	017ae263	bltu	x21,x23,80000210	 x21:0xfffffff2 x23:0x00000035
       59625000	      5961	80000210	008852b3	srl	x5,x16,x8	 x16:0x800082fb  x8:0x00009c45  x5=0x04000417
       59635000	      5962	80000214	40be5513	srai	x10,x28,0xb	 x28:0xffffffd4 x10=0xffffffff
       59645000	      5963	80000218	01135093	srli	x1,x6,0x11	  x6:0x80000150  x1=0x00004000
       59655000	      5964	8000021c	285c6493	ori	x9,x24,645	 x24:0x730b1000  x9=0x730b1285
       59665000	      5965	80000220	00f7b033	sltu	x0,x15,x15	 x15:0x00000001 x15:0x00000001
       59675000	      5966	80000224	1bf1beb7	lui	x29,0x1bf1b	 x29=0x1bf1b000
       59685000	      5967	80000228	01b36d33	or	x26,x6,x27	  x6:0x80000150 x27:0x00000001 x26=0x80000151
       59695000	      5968	8000022c	00000013	addi	x0,x0,0	  x0:0x00000000
       59705000	      5969	80000230	00609463	bne	x1,x6,80000238	  x1:0x00004000  x6:0x80000150
       59715000	      5970	00000000	00000013	addi	x0,x0,0	  x0:0x00000000
       59725000	      5971	80000234	00000013	addi	x0,x0,0	  x0:0x00000000
       59735000	      5972	80000238	00000013	addi	x0,x0,0	  x0:0x00000000
       59745000	      5973	8000023c	40ba8fb3	sub	x31,x21,x11	 x21:0xfffffff2 x11:0x000002d7 x31=0xfffffd1b
       59755000	      5974	80000240	406ad413	srai	x8,x21,0x6	 x21:0xfffffff2  x8=0xffffffff
       59765000	      5975	80000244	50f3c593	xori	x11,x7,1295	  x7:0x00000499 x11=0x00000196
       59775000	      5976	80000248	45b62117	auipc	x2,0x45b62	  x2=0xc5b62244
       59785000	      5977	8000024c	c0573513	sltiu	x10,x14,-1019	 x14:0xc63f61e4 x10=0x00000001
       59795000	      5978	80000250	006a4db3	xor	x27,x20,x6	 x20:0x12ba7000  x6:0x80000150 x27=0x92ba7150
       59805000	      5979	80000254	4b688993	addi	x19,x17,1206	 x17:0x00000001 x19=0x000004b7
       59815000	      5980	80000258	006aa3b3	slt	x7,x21,x6	 x21:0xfffffff2  x6:0x80000150  x7=0x00000000
       59825000	      5981	8000025c	00000013	addi	x0,x0,0	  x0:0x00000000
       59835000	      5982	80000260	00090333	add	x6,x18,x0	 x18:0x80009f84  x0:0x00000000  x6=0x80009f84
       59845000	      5983	80000264	41f8de13	srai	x28,x17,0x1f	 x17:0x00000001 x28=0x00000000
       59855000	      5984	80000268	00da5b13	srli	x22,x20,0xd	 x20:0x12ba7000 x22=0x000095d3
       59865000	      5985	8000026c	7e143a13	sltiu	x20,x8,2017	  x8:0xffffffff x20=0x00000000
       59875000	      5986	80000270	01526863	bltu	x4,x21,80000280	  x4:0x8b04b168 x21:0xfffffff2
       59885000	      5987	00000000	00000013	addi	x0,x0,0	  x0:0x00000000
       59895000	      5988	8000027c	00000013	addi	x0,x0,0	  x0:0x00000000
       59905000	      5989	80000280	40a0d893	srai	x17,x1,0xa	  x1:0x00004000 x17=0x00000010
       59915000	      5990	80000284	007b5c93	srli	x25,x22,0x7	 x22:0x000095d3 x25=0x0000012b
       59925000	      5991	80000288	415bd313	srai	x6,x23,0x15	 x23:0x00000035  x6=0x00000000
       59935000	      5992	8000028c	01c61333	sll	x6,x12,x28	 x12:0x80009fc4 x28:0x00000000  x6=0x80009fc4
       59945000	      5993	80000290	0045de63	bge	x11,x4,800002ac	 x11:0x00000196  x4:0x8b04b168
       59955000	      5994	00000000	00000013	addi	x0,x0,0	  x0:0x00000000
       59965000	      5995	800002a8	00000013	addi	x0,x0,0	  x0:0x00000000
       59975000	      5996	800002ac	2e654393	xori	x7,x10,742	 x10:0x00000001  x7=0x000002e7
       59985000	      5997	800002b0	027f0a63	beq	x30,x7,800002e4	 x30:0xf2903d81  x7:0x000002e7
       59995000	      5998	800002b4	a861c737	lui	x14,0xa861c	 x14=0xa861c000
       60005000	      5999	800002b8	00439233	sll	x4,x7,x4	  x7:0x000002e7  x4:0x8b04b168  x4=0x0002e700
       60015000	      6000	800002bc	0045df93	srli	x31,x11,0x4	 x11:0x00000196 x31=0x00000019
       60025000	      6001	800002c0	00136b33	or	x22,x6,x1	  x6:0x80009fc4  x1:0x00004000 x22=0x8000dfc4
       60035000	      6002	800002c4	00e70233	add	x4,x14,x14	 x14:0xa861c000 x14:0xa861c000  x4=0x50c38000
       60045000	      6003	800002c8	016a4c63	blt	x20,x22,800002e0	 x20:0x00000000 x22:0x8000dfc4
       60055000	      6004	800002cc	018c9113	slli	x2,x25,0x18	 x25:0x0000012b  x2=0x2b000000
       60065000	      6005	800002d0	014f2733	slt	x14,x30,x20	 x30:0xf2903d81 x20:0x00000000 x14=0x00000001
       60075000	      6006	800002d4	011cbcb3	sltu	x25,x25,x17	 x25:0x0000012b x17:0x00000010 x25=0x00000000
       60085000	      6007	800002d8	00251693	slli	x13,x10,0x2	 x10:0x00000001 x13=0x00000004
       60095000	      6008	800002dc	40bf5b33	sra	x22,x30,x11	 x30:0xf2903d81 x11:0x00000196 x22=0xffffffca
       60105000	      6009	800002e0	0639ce63	blt	x19,x3,8000035c	 x19:0x000004b7  x3:0xffffffc5
       60115000	      6010	800002e4	061d9063	bne	x27,x1,80000344	 x27:0x92ba7150  x1:0x00004000
       60125000	      6011	00000000	00000013	addi	x0,x0,0	  x0:0x00000000
       60135000	      6012	80000340	00000013	addi	x0,x0,0	  x0:0x00000000
       60145000	      6013	80000344	0142a833	slt	x16,x5,x20	  x5:0x04000417 x20:0x00000000 x16=0x00000000
       60155000	      6014	80000348	9c7c6713	ori	x14,x24,-1593	 x24:0x730b1000 x14=0xfffff9c7
       60165000	      6015	8000034c	0345f263	bgeu	x11,x20,80000370	 x11:0x00000196 x20:0x00000000
       60175000	      6016	00000000	00000013	addi	x0,x0,0	  x0:0x00000000
       60185000	      6017	8000036c	00000013	addi	x0,x0,0	  x0:0x00000000
       60195000	      6018	80000370	010660b3	or	x1,x12,x16	 x12:0x80009fc4 x16:0x00000000  x1=0x80009fc4
       60205000	      6019	80000374	01b8ba33	sltu	x20,x17,x27	 x17:0x00000010 x27:0x92ba7150 x20=0x00000001
       60215000	      6020	80000378	01050a63	beq	x10,x16,8000038c	 x10:0x00000001 x16:0x00000000
       60225000	      6021	8000037c	001fc463	blt	x31,x1,80000384	 x31:0x00000019  x1:0x80009fc4
       60235000	      6022	80000380	b341f037	lui	x0,0xb341f	
       60245000	      6023	80000384	01bb70b3	and	x1,x22,x27	 x22:0xffffffca x27:0x92ba7150  x1=0x92ba7140
       60255000	      6024	80000388	412686b3	sub	x13,x13,x18	 x13:0x00000004 x18:0x80009f84 x13=0x7fff6080
       60265000	      6025	8000038c	01a3edb3	or	x27,x7,x26	  x7:0x000002e7 x26:0x80000151 x27=0x800003f7
       60275000	      6026	80000390	416dd393	srai	x7,x27,0x16	 x27:0x800003f7  x7=0xfffffe00
       60285000	      6027	80000394	009aafb3	slt	x31,x21,x9	 x21:0xfffffff2  x9:0x730b1285 x31=0x00000001
       60295000	      6028	80000398	6a678517	auipc	x10,0x6a678	 x10=0xea678394
       60305000	      6029	8000039c	00cadb93	srli	x23,x21,0xc	 x21:0xfffffff2 x23=0x000fffff
       60315000	      6030	800003a0	00ac24b3	slt	x9,x24,x10	 x24:0x730b1000 x10:0xea678394  x9=0x00000000
       60325000	      6031	800003a4	01447e63	bgeu	x8,x20,800003c0	  x8:0xffffffff x20:0x00000001
       60335000	      6032	00000000	00000013	addi	x0,x0,0	  x0:0x00000000
       60345000	      6033	800003bc	00000013	addi	x0,x0,0	  x0:0x00000000
       60355000	      6034	800003c0	e11f6193	ori	x3,x30,-495	 x30:0xf2903d81  x3=0xffffff91
       60365000	      6035	800003c4	00000f17	auipc	x30,0x0	 x30=0x800003c0
       60375000	      6036	800003c8	00cf0f13	addi	x30,x30,12	 x30:0x800003c0 x30=0x800003cc
       60385000	      6037	800003cc	000f0067	jalr	x0,x30,0	 x30:0x800003cc
       60395000	      6038	00000000	00000013	addi	x0,x0,0	  x0:0x00000000
       60405000	      6039	800003cc	00000013	addi	x0,x0,0	  x0:0x00000000
       60415000	      6040	800003d0	00100193	addi	x3,x0,1	  x0:0x00000000  x3=0x00000001
       60425000	      6041	800003d4	00000073	ecall	
       60435000	      6042	800003d8	fec90913	addi	x18,x18,-20	 x18:0x80009f84 x18=0x80009f70
