		Time			Cycle	PC		Insn	Decoded instruction	Register and memory contents
          65000	         5	80000004	00000293	addi	x5,x0,0	  x0:0x00000000  x5=0x00000000
          75000	         6	80000008	00000313	addi	x6,x0,0	  x0:0x00000000  x6=0x00000000
          85000	         7	8000000c	00628263	beq	x5,x6,80000010	  x5:0x00000000  x6:0x00000000
          95000	         8	00000000	00000013	addi	x0,x0,0	  x0:0x00000000
         105000	         9	8000000c	00000013	addi	x0,x0,0	  x0:0x00000000
         115000	        10	80000010	00000b97	auipc	x23,0x0	 x23=0x8000000c
         125000	        11	80000014	00cb8b93	addi	x23,x23,12	 x23:0x8000000c x23=0x80000018
         135000	        12	80000018	000b8067	jalr	x0,x23,0	 x23:0x80000018
         145000	        13	00000000	00000013	addi	x0,x0,0	  x0:0x00000000
         155000	        14	80000018	00000013	addi	x0,x0,0	  x0:0x00000000
         165000	        15	8000001c	40000137	lui	x2,0x40000	  x2=0x40000000
         175000	        16	80000020	10010113	addi	x2,x2,256	  x2:0x40000000  x2=0x40000100
         185000	        17	80000024	00000013	addi	x0,x0,0	  x0:0x00000000
         195000	        18	80000028	0000a597	auipc	x11,0xa	 x11=0x8000a024
         205000	        19	8000002c	fa058593	addi	x11,x11,-96	 x11:0x8000a024 x11=0x80009fc4
         215000	        20	80000030	00007117	auipc	x2,0x7	  x2=0x8000702c
         225000	        21	80000034	bc410113	addi	x2,x2,-1084	  x2:0x8000702c  x2=0x80006bf0
         235000	        22	80000038	00016113	ori	x2,x2,0	  x2:0x80006bf0  x2=0x80006bf0
         245000	        23	8000003c	00000013	addi	x0,x0,0	  x0:0x00000000
         255000	        24	80000040	00000117	auipc	x2,0x0	  x2=0x8000003c
         265000	        25	80000044	02010113	addi	x2,x2,32	  x2:0x8000003c  x2=0x8000005c
         275000	        26	80000048	00000013	addi	x0,x0,0	  x0:0x00000000
         285000	        27	8000004c	00000013	addi	x0,x0,0	  x0:0x00000000
         295000	        28	80000050	00002137	lui	x2,0x2	  x2=0x00002000
         305000	        29	80000054	80010113	addi	x2,x2,-2048	  x2:0x00002000  x2=0x00001800
         315000	        30	80000058	00000013	addi	x0,x0,0	  x0:0x00000000
         325000	        31	8000005c	00000013	addi	x0,x0,0	  x0:0x00000000
         335000	        32	80000060	00000013	addi	x0,x0,0	  x0:0x00000000
         345000	        33	80000064	00000093	addi	x1,x0,0	  x0:0x00000000  x1=0x00000000
         355000	        34	80000068	80000137	lui	x2,0x80000	  x2=0x80000000
         365000	        35	8000006c	00000193	addi	x3,x0,0	  x0:0x00000000  x3=0x00000000
         375000	        36	80000070	c9f1a237	lui	x4,0xc9f1a	  x4=0xc9f1a000
         385000	        37	80000074	17320213	addi	x4,x4,371	  x4:0xc9f1a000  x4=0xc9f1a173
         395000	        38	80000078	800002b7	lui	x5,0x80000	  x5=0x80000000
         405000	        39	8000007c	00000313	addi	x6,x0,0	  x0:0x00000000  x6=0x00000000
         415000	        40	80000080	f9ae43b7	lui	x7,0xf9ae4	  x7=0xf9ae4000
         425000	        41	80000084	e2738393	addi	x7,x7,-473	  x7:0xf9ae4000  x7=0xf9ae3e27
         435000	        42	80000088	5ce77437	lui	x8,0x5ce77	  x8=0x5ce77000
         445000	        43	8000008c	bde40413	addi	x8,x8,-1058	  x8:0x5ce77000  x8=0x5ce76bde
         455000	        44	80000090	00000493	addi	x9,x0,0	  x0:0x00000000  x9=0x00000000
         465000	        45	80000094	fb182637	lui	x12,0xfb182	 x12=0xfb182000
         475000	        46	80000098	d3c60613	addi	x12,x12,-708	 x12:0xfb182000 x12=0xfb181d3c
         485000	        47	8000009c	f0f606b7	lui	x13,0xf0f60	 x13=0xf0f60000
         495000	        48	800000a0	d4f68693	addi	x13,x13,-689	 x13:0xf0f60000 x13=0xf0f5fd4f
         505000	        49	800000a4	00c00713	addi	x14,x0,12	  x0:0x00000000 x14=0x0000000c
         515000	        50	800000a8	00000793	addi	x15,x0,0	  x0:0x00000000 x15=0x00000000
         525000	        51	800000ac	a0da7837	lui	x16,0xa0da7	 x16=0xa0da7000
         535000	        52	800000b0	83b80813	addi	x16,x16,-1989	 x16:0xa0da7000 x16=0xa0da683b
         545000	        53	800000b4	00f00893	addi	x17,x0,15	  x0:0x00000000 x17=0x0000000f
         555000	        54	800000b8	7bef5937	lui	x18,0x7bef5	 x18=0x7bef5000
         565000	        55	800000bc	7da90913	addi	x18,x18,2010	 x18:0x7bef5000 x18=0x7bef57da
         575000	        56	800000c0	00000993	addi	x19,x0,0	  x0:0x00000000 x19=0x00000000
         585000	        57	800000c4	00000a13	addi	x20,x0,0	  x0:0x00000000 x20=0x00000000
         595000	        58	800000c8	00e00a93	addi	x21,x0,14	  x0:0x00000000 x21=0x0000000e
         605000	        59	800000cc	00f00b13	addi	x22,x0,15	  x0:0x00000000 x22=0x0000000f
         615000	        60	800000d0	00d00b93	addi	x23,x0,13	  x0:0x00000000 x23=0x0000000d
         625000	        61	800000d4	f2bc6c37	lui	x24,0xf2bc6	 x24=0xf2bc6000
         635000	        62	800000d8	da6c0c13	addi	x24,x24,-602	 x24:0xf2bc6000 x24=0xf2bc5da6
         645000	        63	800000dc	45d77cb7	lui	x25,0x45d77	 x25=0x45d77000
         655000	        64	800000e0	357c8c93	addi	x25,x25,855	 x25:0x45d77000 x25=0x45d77357
         665000	        65	800000e4	80000d37	lui	x26,0x80000	 x26=0x80000000
         675000	        66	800000e8	00000d93	addi	x27,x0,0	  x0:0x00000000 x27=0x00000000
         685000	        67	800000ec	1bb9ce37	lui	x28,0x1bb9c	 x28=0x1bb9c000
         695000	        68	800000f0	3a8e0e13	addi	x28,x28,936	 x28:0x1bb9c000 x28=0x1bb9c3a8
         705000	        69	800000f4	00000e93	addi	x29,x0,0	  x0:0x00000000 x29=0x00000000
         715000	        70	800000f8	80000f37	lui	x30,0x80000	 x30=0x80000000
         725000	        71	800000fc	f4ab7fb7	lui	x31,0xf4ab7	 x31=0xf4ab7000
         735000	        72	80000100	6e4f8f93	addi	x31,x31,1764	 x31:0xf4ab7000 x31=0xf4ab76e4
         745000	        73	80000104	0000a517	auipc	x10,0xa	 x10=0x8000a100
         755000	        74	80000108	e8450513	addi	x10,x10,-380	 x10:0x8000a100 x10=0x80009f84
         765000	        75	8000010c	f21a2293	slti	x5,x20,-223	 x20:0x00000000  x5=0x00000000
         775000	        76	80000110	00002997	auipc	x19,0x2	 x19=0x8000210c
         785000	        77	80000114	f2c98993	addi	x19,x19,-212	 x19:0x8000210c x19=0x80002038
         795000	        78	80000118	41c90cb3	sub	x25,x18,x28	 x18:0x7bef57da x28:0x1bb9c3a8 x25=0x60359432
         805000	        79	8000011c	01d3c433	xor	x8,x7,x29	  x7:0xf9ae3e27 x29:0x00000000  x8=0xf9ae3e27
         815000	        80	80000120	2dc98993	addi	x19,x19,732	 x19:0x80002038 x19=0x80002314
         825000	        81	80000124	5fc3f493	andi	x9,x7,1532	  x7:0xf9ae3e27  x9=0x00000424
         835000	        82	80000128	00456133	or	x2,x10,x4	 x10:0x80009f84  x4:0xc9f1a173  x2=0xc9f1bff7
         845000	        83	8000012c	01708663	beq	x1,x23,80000138	  x1:0x00000000 x23:0x0000000d
         855000	        84	80000130	016a9db3	sll	x27,x21,x22	 x21:0x0000000e x22:0x0000000f x27=0x00070000
         865000	        85	80000134	a153a393	slti	x7,x7,-1515	  x7:0xf9ae3e27  x7=0x00000001
         875000	        86	80000138	d2498a67	jalr	x20,x19,-732	 x19:0x80002314 x20=0x80000138
         885000	        87	00000000	00000013	addi	x0,x0,0	  x0:0x00000000
         895000	        88	80002038	00000013	addi	x0,x0,0	  x0:0x00000000
         905000	        89	8000203c	01679133	sll	x2,x15,x22	 x15:0x00000000 x22:0x0000000f  x2=0x00000000
         915000	        90	80002040	ff450513	addi	x10,x10,-12	 x10:0x80009f84 x10=0x80009f78
         925000	        91	80002044	0064d333	srl	x6,x9,x6	  x9:0x00000424  x6:0x00000000  x6=0x00000424
         935000	        92	80002048	01fddd93	srli	x27,x27,0x1f	 x27:0x00070000 x27=0x00000000
         945000	        93	8000204c	aee93313	sltiu	x6,x18,-1298	 x18:0x7bef57da  x6=0x00000001
         955000	        94	80002050	f5214d93	xori	x27,x2,-174	  x2:0x00000000 x27=0xffffff52
         965000	        95	80002054	014ddc93	srli	x25,x27,0x14	 x27:0xffffff52 x25=0x00000fff
         975000	        96	80002058	01452223	sw	x20,4(x10)	 x10:0x80009f78 x20:0x80000138 PA:0x80009f7c
         985000	        97	8000205c	018e0833	add	x16,x28,x24	 x28:0x1bb9c3a8 x24:0xf2bc5da6 x16=0x0e76214e
         995000	        98	80002060	01c9f133	and	x2,x19,x28	 x19:0x80002314 x28:0x1bb9c3a8  x2=0x00000300
        1005000	        99	80002064	0193f8b3	and	x17,x7,x25	  x7:0x00000001 x25:0x00000fff x17=0x00000001
        1015000	       100	80002068	00003d97	auipc	x27,0x3	 x27=0x80005064
        1025000	       101	8000206c	fccd8d93	addi	x27,x27,-52	 x27:0x80005064 x27=0x80005030
        1035000	       102	80002070	d834e893	ori	x17,x9,-637	  x9:0x00000424 x17=0xfffffda7
        1045000	       103	80002074	f4ad8d93	addi	x27,x27,-182	 x27:0x80005030 x27=0x80004f7a
        1055000	       104	80002078	01c396b3	sll	x13,x7,x28	  x7:0x00000001 x28:0x1bb9c3a8 x13=0x00000100
        1065000	       105	8000207c	0023db13	srli	x22,x7,0x2	  x7:0x00000001 x22=0x00000000
        1075000	       106	80002080	00000013	addi	x0,x0,0	  x0:0x00000000
        1085000	       107	80002084	01a87c63	bgeu	x16,x26,8000209c	 x16:0x0e76214e x26:0x80000000
        1095000	       108	80002088	01353233	sltu	x4,x10,x19	 x10:0x80009f78 x19:0x80002314  x4=0x00000000
        1105000	       109	8000208c	ee668013	addi	x0,x13,-282	 x13:0x00000100
        1115000	       110	80002090	01bc0933	add	x18,x24,x27	 x24:0xf2bc5da6 x27:0x80004f7a x18=0x72bcad20
        1125000	       111	80002094	009ae3b3	or	x7,x21,x9	 x21:0x0000000e  x9:0x00000424  x7=0x0000042e
        1135000	       112	80002098	41ced093	srai	x1,x29,0x1c	 x29:0x00000000  x1=0x00000000
        1145000	       113	8000209c	0b6d8a67	jalr	x20,x27,182	 x27:0x80004f7a x20=0x8000209c
        1155000	       114	00000000	00000013	addi	x0,x0,0	  x0:0x00000000
        1165000	       115	80005030	00000013	addi	x0,x0,0	  x0:0x00000000
        1175000	       116	80005034	011a6db3	or	x27,x20,x17	 x20:0x8000209c x17:0xfffffda7 x27=0xfffffdbf
        1185000	       117	80005038	f9e23013	sltiu	x0,x4,-98	  x4:0x00000000
        1195000	       118	8000503c	fcc50513	addi	x10,x10,-52	 x10:0x80009f78 x10=0x80009f44
        1205000	       119	80005040	409d83b3	sub	x7,x27,x9	 x27:0xfffffdbf  x9:0x00000424  x7=0xfffff99b
        1215000	       120	80005044	002dd893	srli	x17,x27,0x2	 x27:0xfffffdbf x17=0x3fffff6f
        1225000	       121	80005048	7ae74c13	xori	x24,x14,1966	 x14:0x0000000c x24=0x000007a2
        1235000	       122	8000504c	01452223	sw	x20,4(x10)	 x10:0x80009f44 x20:0x8000209c PA:0x80009f48
        1245000	       123	80005050	00597933	and	x18,x18,x5	 x18:0x72bcad20  x5:0x00000000 x18=0x00000000
        1255000	       124	80005054	01abf3b3	and	x7,x23,x26	 x23:0x0000000d x26:0x80000000  x7=0x00000000
        1265000	       125	80005058	019c6833	or	x16,x24,x25	 x24:0x000007a2 x25:0x00000fff x16=0x00000fff
        1275000	       126	8000505c	3d332993	slti	x19,x6,979	  x6:0x00000001 x19=0x00000001
        1285000	       127	80005060	69d78193	addi	x3,x15,1693	 x15:0x00000000  x3=0x0000069d
        1295000	       128	80005064	00b09f93	slli	x31,x1,0xb	  x1:0x00000000 x31=0x00000000
        1305000	       129	80005068	ba133493	sltiu	x9,x6,-1119	  x6:0x00000001  x9=0x00000001
        1315000	       130	8000506c	01f5e8b3	or	x17,x11,x31	 x11:0x80009fc4 x31:0x00000000 x17=0x80009fc4
        1325000	       131	80005070	00545e93	srli	x29,x8,0x5	  x8:0xf9ae3e27 x29=0x07cd71f1
        1335000	       132	80005074	01c39d93	slli	x27,x7,0x1c	  x7:0x00000000 x27=0x00000000
        1345000	       133	80005078	ffffd817	auipc	x16,0xffffd	 x16=0x80002074
        1355000	       134	8000507c	f4080813	addi	x16,x16,-192	 x16:0x80002074 x16=0x80001fb4
        1365000	       135	80005080	003da0b3	slt	x1,x27,x3	 x27:0x00000000  x3:0x0000069d  x1=0x00000001
        1375000	       136	80005084	0db80813	addi	x16,x16,219	 x16:0x80001fb4 x16=0x8000208f
        1385000	       137	80005088	bdd70113	addi	x2,x14,-1059	 x14:0x0000000c  x2=0xfffffbe9
        1395000	       138	8000508c	40055693	srai	x13,x10,0x0	 x10:0x80009f44 x13=0x80009f44
        1405000	       139	80005090	018de8b3	or	x17,x27,x24	 x27:0x00000000 x24:0x000007a2 x17=0x000007a2
        1415000	       140	80005094	41b6dc33	sra	x24,x13,x27	 x13:0x80009f44 x27:0x00000000 x24=0x80009f44
        1425000	       141	80005098	f2680a67	jalr	x20,x16,-218	 x16:0x8000208f x20=0x80005098
        1435000	       142	00000000	00000013	addi	x0,x0,0	  x0:0x00000000
        1445000	       143	80001fb4	00000013	addi	x0,x0,0	  x0:0x00000000
        1455000	       144	80001fb8	000b3733	sltu	x14,x22,x0	 x22:0x00000000  x0:0x00000000 x14=0x00000000
        1465000	       145	80001fbc	00ecd463	bge	x25,x14,80001fc4	 x25:0x00000fff x14:0x00000000
        1475000	       146	00000000	00000013	addi	x0,x0,0	  x0:0x00000000
        1485000	       147	80001fc0	00000013	addi	x0,x0,0	  x0:0x00000000
        1495000	       148	80001fc4	fc450513	addi	x10,x10,-60	 x10:0x80009f44 x10=0x80009f08
        1505000	       149	80001fc8	018cfeb3	and	x29,x25,x24	 x25:0x00000fff x24:0x80009f44 x29=0x00000f44
        1515000	       150	80001fcc	00da5493	srli	x9,x20,0xd	 x20:0x80005098  x9=0x00040002
        1525000	       151	80001fd0	01452223	sw	x20,4(x10)	 x10:0x80009f08 x20:0x80005098 PA:0x80009f0c
        1535000	       152	80001fd4	013b3f33	sltu	x30,x22,x19	 x22:0x00000000 x19:0x00000001 x30=0x00000001
        1545000	       153	80001fd8	0b43f0b7	lui	x1,0xb43f	  x1=0x0b43f000
        1555000	       154	80001fdc	01ae0ab3	add	x21,x28,x26	 x28:0x1bb9c3a8 x26:0x80000000 x21=0x9bb9c3a8
        1565000	       155	80001fe0	0058eab3	or	x21,x17,x5	 x17:0x000007a2  x5:0x00000000 x21=0x000007a2
        1575000	       156	80001fe4	005e62b3	or	x5,x28,x5	 x28:0x1bb9c3a8  x5:0x00000000  x5=0x1bb9c3a8
        1585000	       157	80001fe8	f2a3b293	sltiu	x5,x7,-214	  x7:0x00000000  x5=0x00000001
        1595000	       158	80001fec	014bafb3	slt	x31,x23,x20	 x23:0x0000000d x20:0x80005098 x31=0x00000000
        1605000	       159	80001ff0	e11b8213	addi	x4,x23,-495	 x23:0x0000000d  x4=0xfffffe1e
        1615000	       160	80001ff4	1733cb13	xori	x22,x7,371	  x7:0x00000000 x22=0x00000173
        1625000	       161	80001ff8	247e0a13	addi	x20,x28,583	 x28:0x1bb9c3a8 x20=0x1bb9c5ef
        1635000	       162	80001ffc	0161f863	bgeu	x3,x22,8000200c	  x3:0x0000069d x22:0x00000173
        1645000	       163	00000000	00000013	addi	x0,x0,0	  x0:0x00000000
        1655000	       164	80002008	00000013	addi	x0,x0,0	  x0:0x00000000
        1665000	       165	8000200c	d376f437	lui	x8,0xd376f	  x8=0xd376f000
        1675000	       166	80002010	0ea8f197	auipc	x3,0xea8f	  x3=0x8ea9100c
        1685000	       167	80002014	f05dcd13	xori	x26,x27,-251	 x27:0x00000000 x26=0xffffff05
        1695000	       168	80002018	01cd1093	slli	x1,x26,0x1c	 x26:0xffffff05  x1=0x50000000
        1705000	       169	8000201c	303c7c37	lui	x24,0x303c7	 x24=0x303c7000
        1715000	       170	80002020	00452a03	lw	x20,4(x10)	 x10:0x80009f08 x20=0x80005098 PA:0x80009f0c
        1725000	       171	80002024	016552b3	srl	x5,x10,x22	 x10:0x80009f08 x22:0x00000173  x5=0x00001000
        1735000	       172	80002028	01b54133	xor	x2,x10,x27	 x10:0x80009f08 x27:0x00000000  x2=0x80009f08
        1745000	       173	8000202c	03c50513	addi	x10,x10,60	 x10:0x80009f08 x10=0x80009f44
        1755000	       174	80002030	b4fbd297	auipc	x5,0xb4fbd	  x5=0x34fbf02c
        1765000	       175	80002034	000a0f93	addi	x31,x20,0	 x20:0x80005098 x31=0x80005098
        1775000	       176	80002038	000f8fe7	jalr	x31,x31,0	 x31:0x80005098 x31=0x80002038
        1785000	       177	00000000	00000013	addi	x0,x0,0	  x0:0x00000000
        1795000	       178	80005098	00000013	addi	x0,x0,0	  x0:0x00000000
        1805000	       179	8000509c	def4c993	xori	x19,x9,-529	  x9:0x00040002 x19=0xfffbfded
        1815000	       180	800050a0	41ea08b3	sub	x17,x20,x30	 x20:0x80005098 x30:0x00000001 x17=0x80005097
        1825000	       181	800050a4	fba2fb13	andi	x22,x5,-70	  x5:0x34fbf02c x22=0x34fbf028
        1835000	       182	800050a8	419b5113	srai	x2,x22,0x19	 x22:0x34fbf028  x2=0x0000001a
        1845000	       183	800050ac	70b87293	andi	x5,x16,1803	 x16:0x8000208f  x5=0x0000000b
        1855000	       184	800050b0	00bd5193	srli	x3,x26,0xb	 x26:0xffffff05  x3=0x001fffff
        1865000	       185	800050b4	416cdd13	srai	x26,x25,0x16	 x25:0x00000fff x26=0x00000000
        1875000	       186	800050b8	01a10ab3	add	x21,x2,x26	  x2:0x0000001a x26:0x00000000 x21=0x0000001a
        1885000	       187	800050bc	01461c93	slli	x25,x12,0x14	 x12:0xfb181d3c x25=0xd3c00000
        1895000	       188	800050c0	c79fea6f	jal	x20,800050c0	 x20=0x800050c0
        1905000	       189	00000000	00000013	addi	x0,x0,0	  x0:0x00000000
        1915000	       190	80003d34	00000013	addi	x0,x0,0	  x0:0x00000000
        1925000	       191	80003d38	ff450513	addi	x10,x10,-12	 x10:0x80009f44 x10=0x80009f38
        1935000	       192	80003d3c	0c243393	sltiu	x7,x8,194	  x8:0xd376f000  x7=0x00000000
        1945000	       193	80003d40	41f1d033	sra	x0,x3,x31	  x3:0x001fffff x31:0x80002038
        1955000	       194	80003d44	ed162d13	slti	x26,x12,-303	 x12:0xfb181d3c x26=0x00000001
        1965000	       195	80003d48	00db5d13	srli	x26,x22,0xd	 x22:0x34fbf028 x26=0x0001a7df
        1975000	       196	80003d4c	01452223	sw	x20,4(x10)	 x10:0x80009f38 x20:0x800050c0 PA:0x80009f3c
        1985000	       197	80003d50	4026d693	srai	x13,x13,0x2	 x13:0x80009f44 x13=0xe00027d1
        1995000	       198	80003d54	015bb333	sltu	x6,x23,x21	 x23:0x0000000d x21:0x0000001a  x6=0x00000001
        2005000	       199	80003d58	00d61d13	slli	x26,x12,0xd	 x12:0xfb181d3c x26=0x03a78000
        2015000	       200	80003d5c	01a49113	slli	x2,x9,0x1a	  x9:0x00040002  x2=0x08000000
        2025000	       201	80003d60	00005117	auipc	x2,0x5	  x2=0x80008d5c
        2035000	       202	80003d64	a2510113	addi	x2,x2,-1499	  x2:0x80008d5c  x2=0x80008781
        2045000	       203	80003d68	b4d11e83	lh	x29,-1203(x2)	  x2:0x80008781 x29=0xffffc2a2 PA:0x800082ce
        2055000	       204	80003d6c	018aeb33	or	x22,x21,x24	 x21:0x0000001a x24:0x303c7000 x22=0x303c701a
        2065000	       205	80003d70	0147f6b3	and	x13,x15,x20	 x15:0x00000000 x20:0x800050c0 x13=0x00000000
        2075000	       206	80003d74	b766e717	auipc	x14,0xb766e	 x14=0x37671d70
        2085000	       207	80003d78	00502433	slt	x8,x0,x5	  x0:0x00000000  x5:0x0000000b  x8=0x00000001
        2095000	       208	80003d7c	76f18493	addi	x9,x3,1903	  x3:0x001fffff  x9=0x0020076e
        2105000	       209	80003d80	b8312a83	lw	x21,-1149(x2)	  x2:0x80008781 x21=0xc0fb95ba PA:0x80008304
        2115000	       210	00000000	00000013	addi	x0,x0,0	  x0:0x00000000
        2125000	       211	80003d84	d1511203	lh	x4,-747(x2)	  x2:0x80008781  x4=0xffffc8d4 PA:0x80008496
        2135000	       212	80003d88	015ed833	srl	x16,x29,x21	 x29:0xffffc2a2 x21:0xc0fb95ba x16=0x0000003f
        2145000	       213	80003d8c	4132db33	sra	x22,x5,x19	  x5:0x0000000b x19:0xfffbfded x22=0x00000000
        2155000	       214	80003d90	bb2f3493	sltiu	x9,x30,-1102	 x30:0x00000001  x9=0x00000001
        2165000	       215	80003d94	007309b3	add	x19,x6,x7	  x6:0x00000001  x7:0x00000000 x19=0x00000001
        2175000	       216	80003d98	00066e33	or	x28,x12,x0	 x12:0xfb181d3c  x0:0x00000000 x28=0xfb181d3c
        2185000	       217	80003d9c	0144be33	sltu	x28,x9,x20	  x9:0x00000001 x20:0x800050c0 x28=0x00000001
        2195000	       218	80003da0	41860333	sub	x6,x12,x24	 x12:0xfb181d3c x24:0x303c7000  x6=0xcadbad3c
        2205000	       219	80003da4	904107a3	sb	x4,-1777(x2)	  x2:0x80008781  x4:0xffffc8d4 PA:0x80008090
        2215000	       220	80003da8	af810683	lb	x13,-1288(x2)	  x2:0x80008781 x13=0xffffff88 PA:0x80008279
        2225000	       221	80003dac	02014083	lbu	x1,32(x2)	  x2:0x80008781  x1=0x0000009a PA:0x800087a1
        2235000	       222	80003db0	bd514f03	lbu	x30,-1067(x2)	  x2:0x80008781 x30=0x00000004 PA:0x80008356
        2245000	       223	80003db4	9c710d83	lb	x27,-1593(x2)	  x2:0x80008781 x27=0xffffff97 PA:0x80008148
        2255000	       224	80003db8	00c89733	sll	x14,x17,x12	 x17:0x80005097 x12:0xfb181d3c x14=0x70000000
        2265000	       225	80003dbc	00000013	addi	x0,x0,0	  x0:0x00000000
        2275000	       226	80003dc0	c6410a83	lb	x21,-924(x2)	  x2:0x80008781 x21=0xfffffff5 PA:0x800083e5
        2285000	       227	80003dc4	3ee73ab7	lui	x21,0x3ee73	 x21=0x3ee73000
        2295000	       228	80003dc8	be433a13	sltiu	x20,x6,-1052	  x6:0xcadbad3c x20=0x00000001
        2305000	       229	80003dcc	98111283	lh	x5,-1663(x2)	  x2:0x80008781  x5=0xfffffcad PA:0x80008102
        2315000	       230	80003dd0	ef814f03	lbu	x30,-264(x2)	  x2:0x80008781 x30=0x00000011 PA:0x80008679
        2325000	       231	80003dd4	ee312fa3	sw	x3,-257(x2)	  x2:0x80008781  x3:0x001fffff PA:0x80008680
        2335000	       232	80003dd8	dc614e03	lbu	x28,-570(x2)	  x2:0x80008781 x28=0x00000079 PA:0x80008547
        2345000	       233	80003ddc	0042f8b3	and	x17,x5,x4	  x5:0xfffffcad  x4:0xffffc8d4 x17=0xffffc884
        2355000	       234	80003de0	01cabd33	sltu	x26,x21,x28	 x21:0x3ee73000 x28:0x00000079 x26=0x00000000
        2365000	       235	80003de4	1feb2693	slti	x13,x22,510	 x22:0x00000000 x13=0x00000001
        2375000	       236	80003de8	92c105a3	sb	x12,-1749(x2)	  x2:0x80008781 x12:0xfb181d3c PA:0x800080ac
        2385000	       237	80003dec	8e511203	lh	x4,-1819(x2)	  x2:0x80008781  x4=0x000045e3 PA:0x80008066
        2395000	       238	80003df0	d3714203	lbu	x4,-713(x2)	  x2:0x80008781  x4=0x00000049 PA:0x800084b8
        2405000	       239	80003df4	00004117	auipc	x2,0x4	  x2=0x80007df0
        2415000	       240	80003df8	33910113	addi	x2,x2,825	  x2:0x80007df0  x2=0x80008129
        2425000	       241	80003dfc	7dd31917	auipc	x18,0x7dd31	 x18=0xfdd34df8
        2435000	       242	80003e00	416d0e33	sub	x28,x26,x22	 x26:0x00000000 x22:0x00000000 x28=0x00000000
        2445000	       243	80003e04	03d15803	lhu	x16,61(x2)	  x2:0x80008129 x16=0x00000d52 PA:0x80008166
        2455000	       244	80003e08	cd696193	ori	x3,x18,-810	 x18:0xfdd34df8  x3=0xfffffdfe
        2465000	       245	80003e0c	0cb15883	lhu	x17,203(x2)	  x2:0x80008129 x17=0x0000a165 PA:0x800081f4
        2475000	       246	80003e10	fc712603	lw	x12,-57(x2)	  x2:0x80008129 x12=0x7778af61 PA:0x800080f0
        2485000	       247	80003e14	0bb10223	sb	x27,164(x2)	  x2:0x80008129 x27:0xffffff97 PA:0x800081cd
        2495000	       248	80003e18	0f810d03	lb	x26,248(x2)	  x2:0x80008129 x26=0xffffffd2 PA:0x80008221
        2505000	       249	80003e1c	03710923	sb	x23,50(x2)	  x2:0x80008129 x23:0x0000000d PA:0x8000815b
        2515000	       250	80003e20	9751d037	lui	x0,0x9751d	
        2525000	       251	80003e24	fbb10783	lb	x15,-69(x2)	  x2:0x80008129 x15=0x0000002b PA:0x800080e4
        2535000	       252	80003e28	05414b03	lbu	x22,84(x2)	  x2:0x80008129 x22=0x000000bb PA:0x8000817d
        2545000	       253	80003e2c	03410803	lb	x16,52(x2)	  x2:0x80008129 x16=0xffffffb5 PA:0x8000815d
        2555000	       254	80003e30	403687b3	sub	x15,x13,x3	 x13:0x00000001  x3:0xfffffdfe x15=0x00000203
        2565000	       255	80003e34	4068d713	srai	x14,x17,0x6	 x17:0x0000a165 x14=0x00000285
        2575000	       256	80003e38	02510b23	sb	x5,54(x2)	  x2:0x80008129  x5:0xfffffcad PA:0x8000815f
        2585000	       257	80003e3c	32d93493	sltiu	x9,x18,813	 x18:0xfdd34df8  x9=0x00000000
        2595000	       258	80003e40	fdc10923	sb	x28,-46(x2)	  x2:0x80008129 x28:0x00000000 PA:0x800080fb
        2605000	       259	80003e44	01711fa3	sh	x23,31(x2)	  x2:0x80008129 x23:0x0000000d PA:0x80008148
        2615000	       260	80003e48	f8e14303	lbu	x6,-114(x2)	  x2:0x80008129  x6=0x000000e4 PA:0x800080b7
        2625000	       261	80003e4c	00a10303	lb	x6,10(x2)	  x2:0x80008129  x6=0x00000005 PA:0x80008133
        2635000	       262	80003e50	24050713	addi	x14,x10,576	 x10:0x80009f38 x14=0x8000a178
        2645000	       263	80003e54	05814483	lbu	x9,88(x2)	  x2:0x80008129  x9=0x000000a7 PA:0x80008181
        2655000	       264	80003e58	1ada9c97	auipc	x25,0x1ada9	 x25=0x9adace54
        2665000	       265	80003e5c	05614683	lbu	x13,86(x2)	  x2:0x80008129 x13=0x000000a4 PA:0x8000817f
        2675000	       266	80003e60	f36a7db7	lui	x27,0xf36a7	 x27=0xf36a7000
        2685000	       267	80003e64	4143d993	srai	x19,x7,0x14	  x7:0x00000000 x19=0x00000000
        2695000	       268	80003e68	0d914883	lbu	x17,217(x2)	  x2:0x80008129 x17=0x0000006e PA:0x80008202
        2705000	       269	80003e6c	ffd114a3	sh	x29,-23(x2)	  x2:0x80008129 x29:0xffffc2a2 PA:0x80008112
        2715000	       270	80003e70	40acdf13	srai	x30,x25,0xa	 x25:0x9adace54 x30=0xffe6b6b3
        2725000	       271	80003e74	02d10403	lb	x8,45(x2)	  x2:0x80008129  x8=0x0000003e PA:0x80008156
        2735000	       272	80003e78	01649793	slli	x15,x9,0x16	  x9:0x000000a7 x15=0x29c00000
        2745000	       273	80003e7c	fba10883	lb	x17,-70(x2)	  x2:0x80008129 x17=0x0000000d PA:0x800080e3
        2755000	       274	80003e80	416484b3	sub	x9,x9,x22	  x9:0x000000a7 x22:0x000000bb  x9=0xffffffec
        2765000	       275	80003e84	04014f83	lbu	x31,64(x2)	  x2:0x80008129 x31=0x00000015 PA:0x80008169
        2775000	       276	80003e88	00478733	add	x14,x15,x4	 x15:0x29c00000  x4:0x00000049 x14=0x29c00049
        2785000	       277	80003e8c	90df0297	auipc	x5,0x90df0	  x5=0x10df3e88
        2795000	       278	80003e90	fb914483	lbu	x9,-71(x2)	  x2:0x80008129  x9=0x00000027 PA:0x800080e2
        2805000	       279	80003e94	01c5dcb3	srl	x25,x11,x28	 x11:0x80009fc4 x28:0x00000000 x25=0x80009fc4
        2815000	       280	80003e98	ff410823	sb	x20,-16(x2)	  x2:0x80008129 x20:0x00000001 PA:0x80008119
        2825000	       281	80003e9c	fc715a03	lhu	x20,-57(x2)	  x2:0x80008129 x20=0x0000af61 PA:0x800080f0
        2835000	       282	00000000	00000013	addi	x0,x0,0	  x0:0x00000000
        2845000	       283	80003ea0	f7410b23	sb	x20,-138(x2)	  x2:0x80008129 x20:0x0000af61 PA:0x8000809f
        2855000	       284	80003ea4	f3f123a3	sw	x31,-217(x2)	  x2:0x80008129 x31:0x00000015 PA:0x80008050
        2865000	       285	80003ea8	0fb15303	lhu	x6,251(x2)	  x2:0x80008129  x6=0x0000c7f2 PA:0x80008224
        2875000	       286	80003eac	00005117	auipc	x2,0x5	  x2=0x80008ea8
        2885000	       287	80003eb0	90910113	addi	x2,x2,-1783	  x2:0x80008ea8  x2=0x800087b1
        2895000	       288	80003eb4	06583613	sltiu	x12,x16,101	 x16:0xffffffb5 x12=0x00000000
        2905000	       289	80003eb8	00915803	lhu	x16,9(x2)	  x2:0x800087b1 x16=0x00006c76 PA:0x800087ba
        2915000	       290	80003ebc	03210723	sb	x18,46(x2)	  x2:0x800087b1 x18:0xfdd34df8 PA:0x800087df
        2925000	       291	80003ec0	fd712283	lw	x5,-41(x2)	  x2:0x800087b1  x5=0xb4b47e0a PA:0x80008788
        2935000	       292	80003ec4	41de83b3	sub	x7,x29,x29	 x29:0xffffc2a2 x29:0xffffc2a2  x7=0x00000000
        2945000	       293	80003ec8	74972e93	slti	x29,x14,1865	 x14:0x29c00049 x29=0x00000000
        2955000	       294	80003ecc	0054d733	srl	x14,x9,x5	  x9:0x00000027  x5:0xb4b47e0a x14=0x00000000
        2965000	       295	80003ed0	00b12d83	lw	x27,11(x2)	  x2:0x800087b1 x27=0xe8351201 PA:0x800087bc
        2975000	       296	80003ed4	fc911903	lh	x18,-55(x2)	  x2:0x800087b1 x18=0xffff863a PA:0x8000877a
        2985000	       297	80003ed8	00a10023	sb	x10,0(x2)	  x2:0x800087b1 x10:0x80009f38 PA:0x800087b1
        2995000	       298	80003edc	40b7d9b3	sra	x19,x15,x11	 x15:0x29c00000 x11:0x80009fc4 x19=0x029c0000
        3005000	       299	80003ee0	001b91b3	sll	x3,x23,x1	 x23:0x0000000d  x1:0x0000009a  x3=0x34000000
        3015000	       300	80003ee4	402359b3	sra	x19,x6,x2	  x6:0x0000c7f2  x2:0x800087b1 x19=0x00000000
        3025000	       301	80003ee8	ff012ba3	sw	x16,-9(x2)	  x2:0x800087b1 x16:0x00006c76 PA:0x800087a8
        3035000	       302	80003eec	00da3f33	sltu	x30,x20,x13	 x20:0x0000af61 x13:0x000000a4 x30=0x00000000
        3045000	       303	80003ef0	40a704b3	sub	x9,x14,x10	 x14:0x00000000 x10:0x80009f38  x9=0x7fff60c8
        3055000	       304	80003ef4	622e3913	sltiu	x18,x28,1570	 x28:0x00000000 x18=0x00000001
        3065000	       305	80003ef8	d23db317	auipc	x6,0xd23db	  x6=0x523deef4
        3075000	       306	80003efc	01410223	sb	x20,4(x2)	  x2:0x800087b1 x20:0x0000af61 PA:0x800087b5
        3085000	       307	80003f00	00680233	add	x4,x16,x6	 x16:0x00006c76  x6:0x523deef4  x4=0x523e5b6a
        3095000	       308	80003f04	177af793	andi	x15,x21,375	 x21:0x3ee73000 x15=0x00000000
        3105000	       309	80003f08	fc410b03	lb	x22,-60(x2)	  x2:0x800087b1 x22=0x00000031 PA:0x80008775
        3115000	       310	80003f0c	01bbe4b3	or	x9,x23,x27	 x23:0x0000000d x27:0xe8351201  x9=0xe835120d
        3125000	       311	80003f10	be910c93	addi	x25,x2,-1047	  x2:0x800087b1 x25=0x8000839a
        3135000	       312	80003f14	03610ea3	sb	x22,61(x2)	  x2:0x800087b1 x22:0x00000031 PA:0x800087ee
        3145000	       313	80003f18	f6044493	xori	x9,x8,-160	  x8:0x0000003e  x9=0xffffff5e
        3155000	       314	80003f1c	4c03ec93	ori	x25,x7,1216	  x7:0x00000000 x25=0x000004c0
        3165000	       315	80003f20	f24b0a13	addi	x20,x22,-220	 x22:0x00000031 x20=0xffffff55
        3175000	       316	80003f24	fe010703	lb	x14,-32(x2)	  x2:0x800087b1 x14=0x00000050 PA:0x80008791
        3185000	       317	80003f28	fe3101a3	sb	x3,-29(x2)	  x2:0x800087b1  x3:0x34000000 PA:0x80008794
        3195000	       318	80003f2c	00005117	auipc	x2,0x5	  x2=0x80008f28
        3205000	       319	80003f30	dbc10113	addi	x2,x2,-580	  x2:0x80008f28  x2=0x80008ce4
        3215000	       320	80003f34	01ddd9b3	srl	x19,x27,x29	 x27:0xe8351201 x29:0x00000000 x19=0xe8351201
        3225000	       321	80003f38	f2810b23	sb	x8,-202(x2)	  x2:0x80008ce4  x8:0x0000003e PA:0x80008c1a
        3235000	       322	80003f3c	00000013	addi	x0,x0,0	  x0:0x00000000
        3245000	       323	80003f40	92c22a13	slti	x20,x4,-1748	  x4:0x523e5b6a x20=0x00000000
        3255000	       324	80003f44	00b21233	sll	x4,x4,x11	  x4:0x523e5b6a x11:0x80009fc4  x4=0x23e5b6a0
        3265000	       325	80003f48	f5611783	lh	x15,-170(x2)	  x2:0x80008ce4 x15=0x00000f67 PA:0x80008c3a
        3275000	       326	80003f4c	00233eb3	sltu	x29,x6,x2	  x6:0x523deef4  x2:0x80008ce4 x29=0x00000001
        3285000	       327	80003f50	7570b893	sltiu	x17,x1,1879	  x1:0x0000009a x17=0x00000001
        3295000	       328	80003f54	0c810ea3	sb	x8,221(x2)	  x2:0x80008ce4  x8:0x0000003e PA:0x80008dc1
        3305000	       329	80003f58	f61107a3	sb	x1,-145(x2)	  x2:0x80008ce4  x1:0x0000009a PA:0x80008c53
        3315000	       330	80003f5c	c7c8e813	ori	x16,x17,-900	 x17:0x00000001 x16=0xfffffc7d
        3325000	       331	80003f60	fc710f83	lb	x31,-57(x2)	  x2:0x80008ce4 x31=0xffffffc9 PA:0x80008cab
        3335000	       332	80003f64	9e4d4813	xori	x16,x26,-1564	 x26:0xffffffd2 x16=0x00000636
        3345000	       333	80003f68	f7710e83	lb	x29,-137(x2)	  x2:0x80008ce4 x29=0xffffffe8 PA:0x80008c5b
        3355000	       334	80003f6c	03310c83	lb	x25,51(x2)	  x2:0x80008ce4 x25=0x00000048 PA:0x80008d17
        3365000	       335	80003f70	fe714083	lbu	x1,-25(x2)	  x2:0x80008ce4  x1=0x00000046 PA:0x80008ccb
        3375000	       336	80003f74	0078a0b3	slt	x1,x17,x7	 x17:0x00000001  x7:0x00000000  x1=0x00000000
        3385000	       337	80003f78	0d510a83	lb	x21,213(x2)	  x2:0x80008ce4 x21=0xfffffff4 PA:0x80008db9
        3395000	       338	80003f7c	06514903	lbu	x18,101(x2)	  x2:0x80008ce4 x18=0x00000078 PA:0x80008d49
        3405000	       339	80003f80	f2210003	lb	x0,-222(x2)	  x2:0x80008ce4 PA:0x80008c06
        3415000	       340	80003f84	000cda33	srl	x20,x25,x0	 x25:0x00000048  x0:0x00000000 x20=0x00000048
        3425000	       341	80003f88	ff014603	lbu	x12,-16(x2)	  x2:0x80008ce4 x12=0x000000f3 PA:0x80008cd4
        3435000	       342	80003f8c	feb82493	slti	x9,x16,-21	 x16:0x00000636  x9=0x00000000
        3445000	       343	80003f90	fc110803	lb	x16,-63(x2)	  x2:0x80008ce4 x16=0x00000013 PA:0x80008ca5
        3455000	       344	80003f94	f7614303	lbu	x6,-138(x2)	  x2:0x80008ce4  x6=0x00000038 PA:0x80008c5a
        3465000	       345	80003f98	00c276b3	and	x13,x4,x12	  x4:0x23e5b6a0 x12:0x000000f3 x13=0x000000a0
        3475000	       346	80003f9c	f8111d23	sh	x1,-102(x2)	  x2:0x80008ce4  x1:0x00000000 PA:0x80008c7e
        3485000	       347	80003fa0	f1310883	lb	x17,-237(x2)	  x2:0x80008ce4 x17=0xffffffd9 PA:0x80008bf7
        3495000	       348	80003fa4	42b52613	slti	x12,x10,1067	 x10:0x80009f38 x12=0x00000001
        3505000	       349	80003fa8	0043bdb3	sltu	x27,x7,x4	  x7:0x00000000  x4:0x23e5b6a0 x27=0x00000001
        3515000	       350	80003fac	411fd433	sra	x8,x31,x17	 x31:0xffffffc9 x17:0xffffffd9  x8=0xffffffff
        3525000	       351	80003fb0	f2214f83	lbu	x31,-222(x2)	  x2:0x80008ce4 x31=0x0000006e PA:0x80008c06
        3535000	       352	80003fb4	f6b14683	lbu	x13,-149(x2)	  x2:0x80008ce4 x13=0x0000006b PA:0x80008c4f
        3545000	       353	80003fb8	c057af13	slti	x30,x15,-1019	 x15:0x00000f67 x30=0x00000000
        3555000	       354	80003fbc	403a0633	sub	x12,x20,x3	 x20:0x00000048  x3:0x34000000 x12=0xcc000048
        3565000	       355	80003fc0	3a4f2113	slti	x2,x30,932	 x30:0x00000000  x2=0x00000001
        3575000	       356	80003fc4	01bca1b3	slt	x3,x25,x27	 x25:0x00000048 x27:0x00000001  x3=0x00000000
        3585000	       357	80003fc8	04770663	beq	x14,x7,80004014	 x14:0x00000050  x7:0x00000000
        3595000	       358	80003fcc	1dcdeab7	lui	x21,0x1dcde	 x21=0x1dcde000
        3605000	       359	80003fd0	011a1933	sll	x18,x20,x17	 x20:0x00000048 x17:0xffffffd9 x18=0x90000000
        3615000	       360	80003fd4	003af2b3	and	x5,x21,x3	 x21:0x1dcde000  x3:0x00000000  x5=0x00000000
        3625000	       361	80003fd8	01e49ab3	sll	x21,x9,x30	  x9:0x00000000 x30:0x00000000 x21=0x00000000
        3635000	       362	80003fdc	40520eb3	sub	x29,x4,x5	  x4:0x23e5b6a0  x5:0x00000000 x29=0x23e5b6a0
        3645000	       363	80003fe0	0115ed33	or	x26,x11,x17	 x11:0x80009fc4 x17:0xffffffd9 x26=0xffffffdd
        3655000	       364	80003fe4	d7240e13	addi	x28,x8,-654	  x8:0xffffffff x28=0xfffffd71
        3665000	       365	80003fe8	018b3a33	sltu	x20,x22,x24	 x22:0x00000031 x24:0x303c7000 x20=0x00000001
        3675000	       366	80003fec	00de49b3	xor	x19,x28,x13	 x28:0xfffffd71 x13:0x0000006b x19=0xfffffd1a
        3685000	       367	80003ff0	40285993	srai	x19,x16,0x2	 x16:0x00000013 x19=0x00000004
        3695000	       368	80003ff4	40cc5b33	sra	x22,x24,x12	 x24:0x303c7000 x12:0xcc000048 x22=0x00303c70
        3705000	       369	80003ff8	40ee5e13	srai	x28,x28,0xe	 x28:0xfffffd71 x28=0xffffffff
        3715000	       370	80003ffc	01492d33	slt	x26,x18,x20	 x18:0x90000000 x20:0x00000001 x26=0x00000001
        3725000	       371	80004000	5f49ed93	ori	x27,x19,1524	 x19:0x00000004 x27=0x000005f4
        3735000	       372	80004004	01d1edb3	or	x27,x3,x29	  x3:0x00000000 x29:0x23e5b6a0 x27=0x23e5b6a0
        3745000	       373	80004008	002e1eb3	sll	x29,x28,x2	 x28:0xffffffff  x2:0x00000001 x29=0xfffffffe
        3755000	       374	8000400c	90996693	ori	x13,x18,-1783	 x18:0x90000000 x13=0xfffff909
        3765000	       375	80004010	004778b3	and	x17,x14,x4	 x14:0x00000050  x4:0x23e5b6a0 x17=0x00000000
        3775000	       376	80004014	4057d213	srai	x4,x15,0x5	 x15:0x00000f67  x4=0x0000007b
        3785000	       377	80004018	00679a13	slli	x20,x15,0x6	 x15:0x00000f67 x20=0x0003d9c0
        3795000	       378	8000401c	001e9233	sll	x4,x29,x1	 x29:0xfffffffe  x1:0x00000000  x4=0xfffffffe
        3805000	       379	80004020	4125f793	andi	x15,x11,1042	 x11:0x80009fc4 x15=0x00000400
        3815000	       380	80004024	1105e393	ori	x7,x11,272	 x11:0x80009fc4  x7=0x80009fd4
        3825000	       381	80004028	00000013	addi	x0,x0,0	  x0:0x00000000
        3835000	       382	8000402c	f7883113	sltiu	x2,x16,-136	 x16:0x00000013  x2=0x00000001
        3845000	       383	80004030	dbd41237	lui	x4,0xdbd41	  x4=0xdbd41000
        3855000	       384	80004034	9a880693	addi	x13,x16,-1624	 x16:0x00000013 x13=0xfffff9bb
        3865000	       385	80004038	009feb33	or	x22,x31,x9	 x31:0x0000006e  x9:0x00000000 x22=0x0000006e
        3875000	       386	8000403c	129cac13	slti	x24,x25,297	 x25:0x00000048 x24=0x00000001
        3885000	       387	80004040	e77b4417	auipc	x8,0xe77b4	  x8=0x677b803c
        3895000	       388	80004044	0183beb3	sltu	x29,x7,x24	  x7:0x80009fd4 x24:0x00000001 x29=0x00000000
        3905000	       389	80004048	009554b3	srl	x9,x10,x9	 x10:0x80009f38  x9:0x00000000  x9=0x80009f38
        3915000	       390	8000404c	d56b8893	addi	x17,x23,-682	 x23:0x0000000d x17=0xfffffd63
        3925000	       391	80004050	0377c263	blt	x15,x23,80004074	 x15:0x00000400 x23:0x0000000d
        3935000	       392	80004054	6e64e293	ori	x5,x9,1766	  x9:0x80009f38  x5=0x80009ffe
        3945000	       393	80004058	003b59b3	srl	x19,x22,x3	 x22:0x0000006e  x3:0x00000000 x19=0x0000006e
        3955000	       394	8000405c	01438c33	add	x24,x7,x20	  x7:0x80009fd4 x20:0x0003d9c0 x24=0x80047994
        3965000	       395	80004060	00915733	srl	x14,x2,x9	  x2:0x00000001  x9:0x80009f38 x14=0x00000000
        3975000	       396	80004064	008f5b13	srli	x22,x30,0x8	 x30:0x00000000 x22=0x00000000
        3985000	       397	80004068	250fff93	andi	x31,x31,592	 x31:0x0000006e x31=0x00000040
        3995000	       398	8000406c	01cffc63	bgeu	x31,x28,80004084	 x31:0x00000040 x28:0xffffffff
        4005000	       399	80004070	7404a213	slti	x4,x9,1856	  x9:0x80009f38  x4=0x00000001
        4015000	       400	80004074	41ecdeb3	sra	x29,x25,x30	 x25:0x00000048 x30:0x00000000 x29=0x00000048
        4025000	       401	80004078	022cf463	bgeu	x25,x2,800040a0	 x25:0x00000048  x2:0x00000001
        4035000	       402	00000000	00000013	addi	x0,x0,0	  x0:0x00000000
        4045000	       403	8000409c	00000013	addi	x0,x0,0	  x0:0x00000000
        4055000	       404	800040a0	00f35663	bge	x6,x15,800040ac	  x6:0x00000038 x15:0x00000400
        4065000	       405	800040a4	0187a3b3	slt	x7,x15,x24	 x15:0x00000400 x24:0x80047994  x7=0x00000000
        4075000	       406	800040a8	00e1fdb3	and	x27,x3,x14	  x3:0x00000000 x14:0x00000000 x27=0x00000000
        4085000	       407	800040ac	01449e63	bne	x9,x20,800040c8	  x9:0x80009f38 x20:0x0003d9c0
        4095000	       408	00000000	00000013	addi	x0,x0,0	  x0:0x00000000
        4105000	       409	800040c4	00000013	addi	x0,x0,0	  x0:0x00000000
        4115000	       410	800040c8	41c15193	srai	x3,x2,0x1c	  x2:0x00000001  x3=0x00000000
        4125000	       411	800040cc	012129b3	slt	x19,x2,x18	  x2:0x00000001 x18:0x90000000 x19=0x00000000
        4135000	       412	800040d0	013dee63	bltu	x27,x19,800040ec	 x27:0x00000000 x19:0x00000000
        4145000	       413	800040d4	013d8ab3	add	x21,x27,x19	 x27:0x00000000 x19:0x00000000 x21=0x00000000
        4155000	       414	800040d8	018b6a63	bltu	x22,x24,800040ec	 x22:0x00000000 x24:0x80047994
        4165000	       415	00000000	00000013	addi	x0,x0,0	  x0:0x00000000
        4175000	       416	800040e8	00000013	addi	x0,x0,0	  x0:0x00000000
        4185000	       417	800040ec	01c07eb3	and	x29,x0,x28	  x0:0x00000000 x28:0xffffffff x29=0x00000000
        4195000	       418	800040f0	01a61793	slli	x15,x12,0x1a	 x12:0xcc000048 x15=0x20000000
        4205000	       419	800040f4	00000013	addi	x0,x0,0	  x0:0x00000000
        4215000	       420	800040f8	01894c63	blt	x18,x24,80004110	 x18:0x90000000 x24:0x80047994
        4225000	       421	800040fc	01744db3	xor	x27,x8,x23	  x8:0x677b803c x23:0x0000000d x27=0x677b8031
        4235000	       422	80004100	00988eb3	add	x29,x17,x9	 x17:0xfffffd63  x9:0x80009f38 x29=0x80009c9b
        4245000	       423	80004104	00fe46b3	xor	x13,x28,x15	 x28:0xffffffff x15:0x20000000 x13=0xdfffffff
        4255000	       424	80004108	403d00b3	sub	x1,x26,x3	 x26:0x00000001  x3:0x00000000  x1=0x00000001
        4265000	       425	8000410c	78d8f913	andi	x18,x17,1933	 x17:0xfffffd63 x18=0x00000501
        4275000	       426	80004110	01349093	slli	x1,x9,0x13	  x9:0x80009f38  x1=0xf9c00000
        4285000	       427	80004114	00e44663	blt	x8,x14,80004120	  x8:0x677b803c x14:0x00000000
        4295000	       428	80004118	4106de13	srai	x28,x13,0x10	 x13:0xdfffffff x28=0xffffdfff
        4305000	       429	8000411c	00000013	addi	x0,x0,0	  x0:0x00000000
        4315000	       430	80004120	004d1793	slli	x15,x26,0x4	 x26:0x00000001 x15=0x00000010
        4325000	       431	80004124	01c3e2b3	or	x5,x7,x28	  x7:0x00000000 x28:0xffffdfff  x5=0xffffdfff
        4335000	       432	80004128	4130db13	srai	x22,x1,0x13	  x1:0xf9c00000 x22=0xffffff38
        4345000	       433	8000412c	40805ab3	sra	x21,x0,x8	  x0:0x00000000  x8:0x677b803c x21=0x00000000
        4355000	       434	80004130	05ab4663	blt	x22,x26,8000417c	 x22:0xffffff38 x26:0x00000001
        4365000	       435	00000000	00000013	addi	x0,x0,0	  x0:0x00000000
        4375000	       436	80004178	00000013	addi	x0,x0,0	  x0:0x00000000
        4385000	       437	8000417c	0210cc63	blt	x1,x1,800041b4	  x1:0xf9c00000  x1:0xf9c00000
        4395000	       438	80004180	001f9f13	slli	x30,x31,0x1	 x31:0x00000040 x30=0x00000080
        4405000	       439	80004184	015f5f93	srli	x31,x30,0x15	 x30:0x00000080 x31=0x00000000
        4415000	       440	80004188	022fc863	blt	x31,x2,800041b8	 x31:0x00000000  x2:0x00000001
        4425000	       441	00000000	00000013	addi	x0,x0,0	  x0:0x00000000
        4435000	       442	800041b4	00000013	addi	x0,x0,0	  x0:0x00000000
        4445000	       443	800041b8	00ae8eb3	add	x29,x29,x10	 x29:0x80009c9b x10:0x80009f38 x29=0x00013bd3
        4455000	       444	800041bc	0042ddb3	srl	x27,x5,x4	  x5:0xffffdfff  x4:0x00000001 x27=0x7fffefff
        4465000	       445	800041c0	017ac1b3	xor	x3,x21,x23	 x21:0x00000000 x23:0x0000000d  x3=0x0000000d
        4475000	       446	800041c4	4fceb113	sltiu	x2,x29,1276	 x29:0x00013bd3  x2=0x00000000
        4485000	       447	800041c8	04044463	blt	x8,x0,80004210	  x8:0x677b803c  x0:0x00000000
        4495000	       448	800041cc	026d8063	beq	x27,x6,800041ec	 x27:0x7fffefff  x6:0x00000038
        4505000	       449	800041d0	01f382b3	add	x5,x7,x31	  x7:0x00000000 x31:0x00000000  x5=0x00000000
        4515000	       450	800041d4	01ecd3b3	srl	x7,x25,x30	 x25:0x00000048 x30:0x00000080  x7=0x00000048
        4525000	       451	800041d8	9a4dff97	auipc	x31,0x9a4df	 x31=0x1a4e31d4
        4535000	       452	800041dc	03bf4263	blt	x30,x27,80004200	 x30:0x00000080 x27:0x7fffefff
        4545000	       453	00000000	00000013	addi	x0,x0,0	  x0:0x00000000
        4555000	       454	800041fc	00000013	addi	x0,x0,0	  x0:0x00000000
        4565000	       455	80004200	784dfa93	andi	x21,x27,1924	 x27:0x7fffefff x21=0x00000784
        4575000	       456	80004204	00000013	addi	x0,x0,0	  x0:0x00000000
        4585000	       457	80004208	014ae433	or	x8,x21,x20	 x21:0x00000784 x20:0x0003d9c0  x8=0x0003dfc4
        4595000	       458	8000420c	039a6263	bltu	x20,x25,80004230	 x20:0x0003d9c0 x25:0x00000048
        4605000	       459	80004210	002c8a63	beq	x25,x2,80004224	 x25:0x00000048  x2:0x00000000
        4615000	       460	80004214	3d4bea13	ori	x20,x23,980	 x23:0x0000000d x20=0x000003dd
        4625000	       461	80004218	01859393	slli	x7,x11,0x18	 x11:0x80009fc4  x7=0xc4000000
        4635000	       462	8000421c	0056f033	and	x0,x13,x5	 x13:0xdfffffff  x5:0x00000000
        4645000	       463	80004220	00f88663	beq	x17,x15,8000422c	 x17:0xfffffd63 x15:0x00000010
        4655000	       464	80004224	41855133	sra	x2,x10,x24	 x10:0x80009f38 x24:0x80047994  x2=0xfffff800
        4665000	       465	80004228	0596d663	bge	x13,x25,80004274	 x13:0xdfffffff x25:0x00000048
        4675000	       466	8000422c	52ad7a17	auipc	x20,0x52ad7	 x20=0xd2adb228
        4685000	       467	80004230	0572d663	bge	x5,x23,8000427c	  x5:0x00000000 x23:0x0000000d
        4695000	       468	80004234	0031d263	bge	x3,x3,80004238	  x3:0x0000000d  x3:0x0000000d
        4705000	       469	00000000	00000013	addi	x0,x0,0	  x0:0x00000000
        4715000	       470	80004234	00000013	addi	x0,x0,0	  x0:0x00000000
        4725000	       471	80004238	d834a413	slti	x8,x9,-637	  x9:0x80009f38  x8=0x00000001
        4735000	       472	8000423c	d429bb17	auipc	x22,0xd429b	 x22=0x5429f238
        4745000	       473	80004240	01dc0fb3	add	x31,x24,x29	 x24:0x80047994 x29:0x00013bd3 x31=0x8005b567
        4755000	       474	80004244	013d1293	slli	x5,x26,0x13	 x26:0x00000001  x5=0x00080000
        4765000	       475	80004248	012586b3	add	x13,x11,x18	 x11:0x80009fc4 x18:0x00000501 x13=0x8000a4c5
        4775000	       476	8000424c	49496993	ori	x19,x18,1172	 x18:0x00000501 x19=0x00000595
        4785000	       477	80004250	5c450913	addi	x18,x10,1476	 x10:0x80009f38 x18=0x8000a4fc
        4795000	       478	80004254	00a65c13	srli	x24,x12,0xa	 x12:0xcc000048 x24=0x00330000
        4805000	       479	80004258	0070d993	srli	x19,x1,0x7	  x1:0xf9c00000 x19=0x01f38000
        4815000	       480	8000425c	013af263	bgeu	x21,x19,80004260	 x21:0x00000784 x19:0x01f38000
        4825000	       481	80004260	00cc3fb3	sltu	x31,x24,x12	 x24:0x00330000 x12:0xcc000048 x31=0x00000001
        4835000	       482	80004264	463fa093	slti	x1,x31,1123	 x31:0x00000001  x1=0x00000001
        4845000	       483	80004268	01b61a63	bne	x12,x27,8000427c	 x12:0xcc000048 x27:0x7fffefff
        4855000	       484	00000000	00000013	addi	x0,x0,0	  x0:0x00000000
        4865000	       485	80004278	00000013	addi	x0,x0,0	  x0:0x00000000
        4875000	       486	8000427c	00a19f13	slli	x30,x3,0xa	  x3:0x0000000d x30=0x00003400
        4885000	       487	80004280	01d201b3	add	x3,x4,x29	  x4:0x00000001 x29:0x00013bd3  x3=0x00013bd4
        4895000	       488	80004284	0357d463	bge	x15,x21,800042ac	 x15:0x00000010 x21:0x00000784
        4905000	       489	80004288	41fa5613	srai	x12,x20,0x1f	 x20:0xd2adb228 x12=0xffffffff
        4915000	       490	8000428c	01ee48b3	xor	x17,x28,x30	 x28:0xffffdfff x30:0x00003400 x17=0xffffebff
        4925000	       491	80004290	00b36ab3	or	x21,x6,x11	  x6:0x00000038 x11:0x80009fc4 x21=0x80009ffc
        4935000	       492	80004294	010881b3	add	x3,x17,x16	 x17:0xffffebff x16:0x00000013  x3=0xffffec12
        4945000	       493	80004298	0d168a13	addi	x20,x13,209	 x13:0x8000a4c5 x20=0x8000a596
        4955000	       494	8000429c	5be9c293	xori	x5,x19,1470	 x19:0x01f38000  x5=0x01f385be
        4965000	       495	800042a0	00058fb3	add	x31,x11,x0	 x11:0x80009fc4  x0:0x00000000 x31=0x80009fc4
        4975000	       496	800042a4	ac4a0a13	addi	x20,x20,-1340	 x20:0x8000a596 x20=0x8000a05a
        4985000	       497	800042a8	466b6113	ori	x2,x22,1126	 x22:0x5429f238  x2=0x5429f67e
        4995000	       498	800042ac	41645693	srai	x13,x8,0x16	  x8:0x00000001 x13=0x00000000
        5005000	       499	800042b0	00000013	addi	x0,x0,0	  x0:0x00000000
        5015000	       500	800042b4	40cd8db3	sub	x27,x27,x12	 x27:0x7fffefff x12:0xffffffff x27=0x7ffff000
        5025000	       501	800042b8	01d75f93	srli	x31,x14,0x1d	 x14:0x00000000 x31=0x00000000
        5035000	       502	800042bc	00c977b3	and	x15,x18,x12	 x18:0x8000a4fc x12:0xffffffff x15=0x8000a4fc
        5045000	       503	800042c0	02105d37	lui	x26,0x2105	 x26=0x02105000
        5055000	       504	800042c4	19b623b7	lui	x7,0x19b62	  x7=0x19b62000
        5065000	       505	800042c8	00938a33	add	x20,x7,x9	  x7:0x19b62000  x9:0x80009f38 x20=0x99b6bf38
        5075000	       506	800042cc	017ffa63	bgeu	x31,x23,800042e0	 x31:0x00000000 x23:0x0000000d
        5085000	       507	800042d0	042b9463	bne	x23,x2,80004318	 x23:0x0000000d  x2:0x5429f67e
        5095000	       508	00000000	00000013	addi	x0,x0,0	  x0:0x00000000
        5105000	       509	80004314	00000013	addi	x0,x0,0	  x0:0x00000000
        5115000	       510	80004318	008ea133	slt	x2,x29,x8	 x29:0x00013bd3  x8:0x00000001  x2=0x00000000
        5125000	       511	8000431c	001f8b33	add	x22,x31,x1	 x31:0x00000000  x1:0x00000001 x22=0x00000001
        5135000	       512	80004320	f65c8b13	addi	x22,x25,-155	 x25:0x00000048 x22=0xffffffad
        5145000	       513	80004324	a9fd6193	ori	x3,x26,-1377	 x26:0x02105000  x3=0xfffffa9f
        5155000	       514	80004328	003f96b3	sll	x13,x31,x3	 x31:0x00000000  x3:0xfffffa9f x13=0x00000000
        5165000	       515	8000432c	00072933	slt	x18,x14,x0	 x14:0x00000000  x0:0x00000000 x18=0x00000000
        5175000	       516	80004330	41785013	srai	x0,x16,0x17	 x16:0x00000013
        5185000	       517	80004334	00b026b3	slt	x13,x0,x11	  x0:0x00000000 x11:0x80009fc4 x13=0x00000000
        5195000	       518	80004338	03d39e63	bne	x7,x29,80004374	  x7:0x19b62000 x29:0x00013bd3
        5205000	       519	00000000	00000013	addi	x0,x0,0	  x0:0x00000000
        5215000	       520	80004370	00000013	addi	x0,x0,0	  x0:0x00000000
        5225000	       521	80004374	3f168417	auipc	x8,0x3f168	  x8=0xbf16c370
        5235000	       522	80004378	41b4d013	srai	x0,x9,0x1b	  x9:0x80009f38
        5245000	       523	8000437c	41d68d33	sub	x26,x13,x29	 x13:0x00000000 x29:0x00013bd3 x26=0xfffec42d
        5255000	       524	80004380	e11ec797	auipc	x15,0xe11ec	 x15=0x611f037c
        5265000	       525	80004384	f5999d37	lui	x26,0xf5999	 x26=0xf5999000
        5275000	       526	80004388	97a43c37	lui	x24,0x97a43	 x24=0x97a43000
        5285000	       527	8000438c	009c8f33	add	x30,x25,x9	 x25:0x00000048  x9:0x80009f38 x30=0x80009f80
        5295000	       528	80004390	82fc1d97	auipc	x27,0x82fc1	 x27=0x02fc538c
        5305000	       529	80004394	401dd6b3	sra	x13,x27,x1	 x27:0x02fc538c  x1:0x00000001 x13=0x017e29c6
        5315000	       530	80004398	4174d713	srai	x14,x9,0x17	  x9:0x80009f38 x14=0xffffff00
        5325000	       531	8000439c	52940413	addi	x8,x8,1321	  x8:0xbf16c370  x8=0xbf16c899
        5335000	       532	800043a0	012883b3	add	x7,x17,x18	 x17:0xffffebff x18:0x00000000  x7=0xffffebff
        5345000	       533	800043a4	00a109b3	add	x19,x2,x10	  x2:0x00000000 x10:0x80009f38 x19=0x80009f38
        5355000	       534	800043a8	0127b2b3	sltu	x5,x15,x18	 x15:0x611f037c x18:0x00000000  x5=0x00000000
        5365000	       535	800043ac	01dcf4b3	and	x9,x25,x29	 x25:0x00000048 x29:0x00013bd3  x9=0x00000040
        5375000	       536	800043b0	05a34463	blt	x6,x26,800043f8	  x6:0x00000038 x26:0xf5999000
        5385000	       537	800043b4	c6102c93	slti	x25,x0,-927	  x0:0x00000000 x25=0x00000000
        5395000	       538	800043b8	94904913	xori	x18,x0,-1719	  x0:0x00000000 x18=0xfffff949
        5405000	       539	800043bc	0504f693	andi	x13,x9,80	  x9:0x00000040 x13=0x00000040
        5415000	       540	800043c0	00000013	addi	x0,x0,0	  x0:0x00000000
        5425000	       541	800043c4	0006d213	srli	x4,x13,0x0	 x13:0x00000040  x4=0x00000040
        5435000	       542	800043c8	00bf5693	srli	x13,x30,0xb	 x30:0x80009f80 x13=0x00100013
        5445000	       543	800043cc	41fa8a33	sub	x20,x21,x31	 x21:0x80009ffc x31:0x00000000 x20=0x80009ffc
        5455000	       544	800043d0	ca5f4493	xori	x9,x30,-859	 x30:0x80009f80  x9=0x7fff6325
        5465000	       545	800043d4	00000013	addi	x0,x0,0	  x0:0x00000000
        5475000	       546	800043d8	3c900213	addi	x4,x0,969	  x0:0x00000000  x4=0x000003c9
        5485000	       547	800043dc	01061433	sll	x8,x12,x16	 x12:0xffffffff x16:0x00000013  x8=0xfff80000
        5495000	       548	800043e0	01ccc633	xor	x12,x25,x28	 x25:0x00000000 x28:0xffffdfff x12=0xffffdfff
        5505000	       549	800043e4	01e394b3	sll	x9,x7,x30	  x7:0xffffebff x30:0x80009f80  x9=0xffffebff
        5515000	       550	800043e8	40b0ac17	auipc	x24,0x40b0a	 x24=0xc0b0e3e4
        5525000	       551	800043ec	3bfa4613	xori	x12,x20,959	 x20:0x80009ffc x12=0x80009c43
        5535000	       552	800043f0	0faafd37	lui	x26,0xfaaf	 x26=0x0faaf000
        5545000	       553	800043f4	01165b33	srl	x22,x12,x17	 x12:0x80009c43 x17:0xffffebff x22=0x00000001
        5555000	       554	800043f8	00c65d13	srli	x26,x12,0xc	 x12:0x80009c43 x26=0x00080009
        5565000	       555	800043fc	975a6113	ori	x2,x20,-1675	 x20:0x80009ffc  x2=0xfffffffd
        5575000	       556	80004400	006c4eb3	xor	x29,x24,x6	 x24:0xc0b0e3e4  x6:0x00000038 x29=0xc0b0e3dc
        5585000	       557	80004404	03e4c263	blt	x9,x30,80004428	  x9:0xffffebff x30:0x80009f80
        5595000	       558	80004408	70878c93	addi	x25,x15,1800	 x15:0x611f037c x25=0x611f0a84
        5605000	       559	8000440c	009c2733	slt	x14,x24,x9	 x24:0xc0b0e3e4  x9:0xffffebff x14=0x00000001
        5615000	       560	80004410	00829c13	slli	x24,x5,0x8	  x5:0x00000000 x24=0x00000000
        5625000	       561	80004414	41ebd633	sra	x12,x23,x30	 x23:0x0000000d x30:0x80009f80 x12=0x0000000d
        5635000	       562	80004418	009dd193	srli	x3,x27,0x9	 x27:0x02fc538c  x3=0x00017e29
        5645000	       563	8000441c	40aad013	srai	x0,x21,0xa	 x21:0x80009ffc
        5655000	       564	80004420	c3363a37	lui	x20,0xc3363	 x20=0xc3363000
        5665000	       565	80004424	013e9213	slli	x4,x29,0x13	 x29:0xc0b0e3dc  x4=0x1ee00000
        5675000	       566	80004428	6008b993	sltiu	x19,x17,1536	 x17:0xffffebff x19=0x00000000
        5685000	       567	8000442c	01486663	bltu	x16,x20,80004438	 x16:0x00000013 x20:0xc3363000
        5695000	       568	00000000	00000013	addi	x0,x0,0	  x0:0x00000000
        5705000	       569	80004434	00000013	addi	x0,x0,0	  x0:0x00000000
        5715000	       570	80004438	00efa4b3	slt	x9,x31,x14	 x31:0x00000000 x14:0x00000001  x9=0x00000001
        5725000	       571	8000443c	03955c63	bge	x10,x25,80004474	 x10:0x80009f38 x25:0x611f0a84
        5735000	       572	80004440	0094e3b3	or	x7,x9,x9	  x9:0x00000001  x9:0x00000001  x7=0x00000001
        5745000	       573	80004444	01a89233	sll	x4,x17,x26	 x17:0xffffebff x26:0x00080009  x4=0xffd7fe00
        5755000	       574	80004448	30ea8693	addi	x13,x21,782	 x21:0x80009ffc x13=0x8000a30a
        5765000	       575	8000444c	9219c113	xori	x2,x19,-1759	 x19:0x00000000  x2=0xfffff921
        5775000	       576	80004450	017103b3	add	x7,x2,x23	  x2:0xfffff921 x23:0x0000000d  x7=0xfffff92e
        5785000	       577	80004454	0010d433	srl	x8,x1,x1	  x1:0x00000001  x1:0x00000001  x8=0x00000000
        5795000	       578	80004458	41f98433	sub	x8,x19,x31	 x19:0x00000000 x31:0x00000000  x8=0x00000000
        5805000	       579	8000445c	44a32c93	slti	x25,x6,1098	  x6:0x00000038 x25=0x00000001
        5815000	       580	80004460	00bd34b3	sltu	x9,x26,x11	 x26:0x00080009 x11:0x80009fc4  x9=0x00000001
        5825000	       581	80004464	00cac833	xor	x16,x21,x12	 x21:0x80009ffc x12:0x0000000d x16=0x80009ff1
        5835000	       582	80004468	40dc54b3	sra	x9,x24,x13	 x24:0x00000000 x13:0x8000a30a  x9=0x00000000
        5845000	       583	8000446c	caa2a293	slti	x5,x5,-854	  x5:0x00000000  x5=0x00000000
        5855000	       584	80004470	1b4124b7	lui	x9,0x1b412	  x9=0x1b412000
        5865000	       585	80004474	006297b3	sll	x15,x5,x6	  x5:0x00000000  x6:0x00000038 x15=0x00000000
        5875000	       586	80004478	01d431b3	sltu	x3,x8,x29	  x8:0x00000000 x29:0xc0b0e3dc  x3=0x00000001
        5885000	       587	8000447c	56a4f097	auipc	x1,0x56a4f	  x1=0xd6a53478
        5895000	       588	80004480	01c14733	xor	x14,x2,x28	  x2:0xfffff921 x28:0xffffdfff x14=0x000026de
        5905000	       589	80004484	00b61613	slli	x12,x12,0xb	 x12:0x0000000d x12=0x00006800
        5915000	       590	80004488	40558f33	sub	x30,x11,x5	 x11:0x80009fc4  x5:0x00000000 x30=0x80009fc4
        5925000	       591	8000448c	00000013	addi	x0,x0,0	  x0:0x00000000
        5935000	       592	80004490	00d04cb3	xor	x25,x0,x13	  x0:0x00000000 x13:0x8000a30a x25=0x8000a30a
        5945000	       593	80004494	00000013	addi	x0,x0,0	  x0:0x00000000
        5955000	       594	80004498	21369d37	lui	x26,0x21369	 x26=0x21369000
        5965000	       595	8000449c	387d0393	addi	x7,x26,903	 x26:0x21369000  x7=0x21369387
        5975000	       596	800044a0	01061663	bne	x12,x16,800044ac	 x12:0x00006800 x16:0x80009ff1
        5985000	       597	00000000	00000013	addi	x0,x0,0	  x0:0x00000000
        5995000	       598	800044a8	00000013	addi	x0,x0,0	  x0:0x00000000
        6005000	       599	800044ac	01b06833	or	x16,x0,x27	  x0:0x00000000 x27:0x02fc538c x16=0x02fc538c
        6015000	       600	800044b0	35dcec93	ori	x25,x25,861	 x25:0x8000a30a x25=0x8000a35f
        6025000	       601	800044b4	00c8beb3	sltu	x29,x17,x12	 x17:0xffffebff x12:0x00006800 x29=0x00000000
        6035000	       602	800044b8	a17eb913	sltiu	x18,x29,-1513	 x29:0x00000000 x18=0x00000001
        6045000	       603	800044bc	419b0cb3	sub	x25,x22,x25	 x22:0x00000001 x25:0x8000a35f x25=0x7fff5ca2
        6055000	       604	800044c0	00320b33	add	x22,x4,x3	  x4:0xffd7fe00  x3:0x00000001 x22=0xffd7fe01
        6065000	       605	800044c4	d5087813	andi	x16,x16,-688	 x16:0x02fc538c x16=0x02fc5100
        6075000	       606	800044c8	4050df93	srai	x31,x1,0x5	  x1:0xd6a53478 x31=0xfeb529a3
        6085000	       607	800044cc	0093cf33	xor	x30,x7,x9	  x7:0x21369387  x9:0x1b412000 x30=0x3a77b387
        6095000	       608	800044d0	05a21463	bne	x4,x26,80004518	  x4:0xffd7fe00 x26:0x21369000
        6105000	       609	00000000	00000013	addi	x0,x0,0	  x0:0x00000000
        6115000	       610	80004514	00000013	addi	x0,x0,0	  x0:0x00000000
        6125000	       611	80004518	01a08263	beq	x1,x26,8000451c	  x1:0xd6a53478 x26:0x21369000
        6135000	       612	8000451c	03817063	bgeu	x2,x24,8000453c	  x2:0xfffff921 x24:0x00000000
        6145000	       613	00000000	00000013	addi	x0,x0,0	  x0:0x00000000
        6155000	       614	80004538	00000013	addi	x0,x0,0	  x0:0x00000000
        6165000	       615	8000453c	04d1ce13	xori	x28,x3,77	  x3:0x00000001 x28=0x0000004c
        6175000	       616	80004540	eb21c9b7	lui	x19,0xeb21c	 x19=0xeb21c000
        6185000	       617	80004544	00e544b3	xor	x9,x10,x14	 x10:0x80009f38 x14:0x000026de  x9=0x8000b9e6
        6195000	       618	80004548	33267993	andi	x19,x12,818	 x12:0x00006800 x19=0x00000000
        6205000	       619	8000454c	0277fe63	bgeu	x15,x7,80004588	 x15:0x00000000  x7:0x21369387
        6215000	       620	80004550	033b8e63	beq	x23,x19,8000458c	 x23:0x0000000d x19:0x00000000
        6225000	       621	80004554	400c5ab3	sra	x21,x24,x0	 x24:0x00000000  x0:0x00000000 x21=0x00000000
        6235000	       622	80004558	00f64f33	xor	x30,x12,x15	 x12:0x00006800 x15:0x00000000 x30=0x00006800
        6245000	       623	8000455c	00325263	bge	x4,x3,80004560	  x4:0xffd7fe00  x3:0x00000001
        6255000	       624	80004560	01385eb3	srl	x29,x16,x19	 x16:0x02fc5100 x19:0x00000000 x29=0x02fc5100
        6265000	       625	80004564	55a62a13	slti	x20,x12,1370	 x12:0x00006800 x20=0x00000000
        6275000	       626	80004568	00518fb3	add	x31,x3,x5	  x3:0x00000001  x5:0x00000000 x31=0x00000001
        6285000	       627	8000456c	03a0d263	bge	x1,x26,80004590	  x1:0xd6a53478 x26:0x21369000
        6295000	       628	80004570	60d8a913	slti	x18,x17,1549	 x17:0xffffebff x18=0x00000001
        6305000	       629	80004574	074a8863	beq	x21,x20,800045e4	 x21:0x00000000 x20:0x00000000
        6315000	       630	00000000	00000013	addi	x0,x0,0	  x0:0x00000000
        6325000	       631	800045e0	00000013	addi	x0,x0,0	  x0:0x00000000
        6335000	       632	800045e4	00000013	addi	x0,x0,0	  x0:0x00000000
        6345000	       633	800045e8	41e05eb3	sra	x29,x0,x30	  x0:0x00000000 x30:0x00006800 x29=0x00000000
        6355000	       634	800045ec	d64a7713	andi	x14,x20,-668	 x20:0x00000000 x14=0x00000000
        6365000	       635	800045f0	f159e893	ori	x17,x19,-235	 x19:0x00000000 x17=0xffffff15
        6375000	       636	800045f4	31ccc913	xori	x18,x25,796	 x25:0x7fff5ca2 x18=0x7fff5fbe
        6385000	       637	800045f8	31b66037	lui	x0,0x31b66	
        6395000	       638	800045fc	030d5263	bge	x26,x16,80004620	 x26:0x21369000 x16:0x02fc5100
        6405000	       639	00000000	00000013	addi	x0,x0,0	  x0:0x00000000
        6415000	       640	8000461c	00000013	addi	x0,x0,0	  x0:0x00000000
        6425000	       641	80004620	dc3d3413	sltiu	x8,x26,-573	 x26:0x21369000  x8=0x00000001
        6435000	       642	80004624	bcdc0613	addi	x12,x24,-1075	 x24:0x00000000 x12=0xfffffbcd
        6445000	       643	80004628	01dd0733	add	x14,x26,x29	 x26:0x21369000 x29:0x00000000 x14=0x21369000
        6455000	       644	8000462c	00e66863	bltu	x12,x14,8000463c	 x12:0xfffffbcd x14:0x21369000
        6465000	       645	80004630	4168da13	srai	x20,x17,0x16	 x17:0xffffff15 x20=0xffffffff
        6475000	       646	80004634	02214c63	blt	x2,x2,8000466c	  x2:0xfffff921  x2:0xfffff921
        6485000	       647	80004638	00000013	addi	x0,x0,0	  x0:0x00000000
        6495000	       648	8000463c	02d84463	blt	x16,x13,80004664	 x16:0x02fc5100 x13:0x8000a30a
        6505000	       649	80004640	014449b3	xor	x19,x8,x20	  x8:0x00000001 x20:0xffffffff x19=0xfffffffe
        6515000	       650	80004644	00000013	addi	x0,x0,0	  x0:0x00000000
        6525000	       651	80004648	01486233	or	x4,x16,x20	 x16:0x02fc5100 x20:0xffffffff  x4=0xffffffff
        6535000	       652	8000464c	63922993	slti	x19,x4,1593	  x4:0xffffffff x19=0x00000001
        6545000	       653	80004650	d563b793	sltiu	x15,x7,-682	  x7:0x21369387 x15=0x00000001
        6555000	       654	80004654	001fd493	srli	x9,x31,0x1	 x31:0x00000001  x9=0x00000000
        6565000	       655	80004658	00725413	srli	x8,x4,0x7	  x4:0xffffffff  x8=0x01ffffff
        6575000	       656	8000465c	b6163013	sltiu	x0,x12,-1183	 x12:0xfffffbcd
        6585000	       657	80004660	0111ecb3	or	x25,x3,x17	  x3:0x00000001 x17:0xffffff15 x25=0xffffff15
        6595000	       658	80004664	a399e993	ori	x19,x19,-1479	 x19:0x00000001 x19=0xfffffa39
        6605000	       659	80004668	01fdc7b3	xor	x15,x27,x31	 x27:0x02fc538c x31:0x00000001 x15=0x02fc538d
        6615000	       660	8000466c	0054e0b3	or	x1,x9,x5	  x9:0x00000000  x5:0x00000000  x1=0x00000000
        6625000	       661	80004670	cfc1da37	lui	x20,0xcfc1d	 x20=0xcfc1d000
        6635000	       662	80004674	00003933	sltu	x18,x0,x0	  x0:0x00000000  x0:0x00000000 x18=0x00000000
        6645000	       663	80004678	00075e13	srli	x28,x14,0x0	 x14:0x21369000 x28=0x21369000
        6655000	       664	8000467c	84bcc293	xori	x5,x25,-1973	 x25:0xffffff15  x5=0x0000075e
        6665000	       665	80004680	01127933	and	x18,x4,x17	  x4:0xffffffff x17:0xffffff15 x18=0xffffff15
        6675000	       666	80004684	00f010b3	sll	x1,x0,x15	  x0:0x00000000 x15:0x02fc538d  x1=0x00000000
        6685000	       667	80004688	05380063	beq	x16,x19,800046c8	 x16:0x02fc5100 x19:0xfffffa39
        6695000	       668	8000468c	01989833	sll	x16,x17,x25	 x17:0xffffff15 x25:0xffffff15 x16=0xe2a00000
        6705000	       669	80004690	5ae47d37	lui	x26,0x5ae47	 x26=0x5ae47000
        6715000	       670	80004694	9ed528b7	lui	x17,0x9ed52	 x17=0x9ed52000
        6725000	       671	80004698	01791c33	sll	x24,x18,x23	 x18:0xffffff15 x23:0x0000000d x24=0xffe2a000
        6735000	       672	8000469c	000cfc63	bgeu	x25,x0,800046b4	 x25:0xffffff15  x0:0x00000000
        6745000	       673	00000000	00000013	addi	x0,x0,0	  x0:0x00000000
        6755000	       674	800046b0	00000013	addi	x0,x0,0	  x0:0x00000000
        6765000	       675	800046b4	00c4f433	and	x8,x9,x12	  x9:0x00000000 x12:0xfffffbcd  x8=0x00000000
        6775000	       676	800046b8	512d2013	slti	x0,x26,1298	 x26:0x5ae47000
        6785000	       677	800046bc	0340e863	bltu	x1,x20,800046ec	  x1:0x00000000 x20:0xcfc1d000
        6795000	       678	00000000	00000013	addi	x0,x0,0	  x0:0x00000000
        6805000	       679	800046e8	00000013	addi	x0,x0,0	  x0:0x00000000
        6815000	       680	800046ec	00000013	addi	x0,x0,0	  x0:0x00000000
        6825000	       681	800046f0	12906f13	ori	x30,x0,297	  x0:0x00000000 x30=0x00000129
        6835000	       682	800046f4	db868913	addi	x18,x13,-584	 x13:0x8000a30a x18=0x8000a0c2
        6845000	       683	800046f8	00dfb717	auipc	x14,0xdfb	 x14=0x80dff6f4
        6855000	       684	800046fc	dbefd897	auipc	x17,0xdbefd	 x17=0x5bf016f8
        6865000	       685	80004700	01cfca63	blt	x31,x28,80004714	 x31:0x00000001 x28:0x21369000
        6875000	       686	00000000	00000013	addi	x0,x0,0	  x0:0x00000000
        6885000	       687	80004710	00000013	addi	x0,x0,0	  x0:0x00000000
        6895000	       688	80004714	050e8663	beq	x29,x16,80004760	 x29:0x00000000 x16:0xe2a00000
        6905000	       689	80004718	00d1e863	bltu	x3,x13,80004728	  x3:0x00000001 x13:0x8000a30a
        6915000	       690	00000000	00000013	addi	x0,x0,0	  x0:0x00000000
        6925000	       691	80004724	00000013	addi	x0,x0,0	  x0:0x00000000
        6935000	       692	80004728	409b5c33	sra	x24,x22,x9	 x22:0xffd7fe01  x9:0x00000000 x24=0xffd7fe01
        6945000	       693	8000472c	001aa833	slt	x16,x21,x1	 x21:0x00000000  x1:0x00000000 x16=0x00000000
        6955000	       694	80004730	019e09b3	add	x19,x28,x25	 x28:0x21369000 x25:0xffffff15 x19=0x21368f15
        6965000	       695	80004734	7e1db093	sltiu	x1,x27,2017	 x27:0x02fc538c  x1=0x00000000
        6975000	       696	80004738	00b5db13	srli	x22,x11,0xb	 x11:0x80009fc4 x22=0x00100013
        6985000	       697	8000473c	008e5a63	bge	x28,x8,80004750	 x28:0x21369000  x8:0x00000000
        6995000	       698	00000000	00000013	addi	x0,x0,0	  x0:0x00000000
        7005000	       699	8000474c	00000013	addi	x0,x0,0	  x0:0x00000000
        7015000	       700	80004750	003830b3	sltu	x1,x16,x3	 x16:0x00000000  x3:0x00000001  x1=0x00000001
        7025000	       701	80004754	40f4dab3	sra	x21,x9,x15	  x9:0x00000000 x15:0x02fc538d x21=0x00000000
        7035000	       702	80004758	4126de13	srai	x28,x13,0x12	 x13:0x8000a30a x28=0xffffe000
        7045000	       703	8000475c	40885633	sra	x12,x16,x8	 x16:0x00000000  x8:0x00000000 x12=0x00000000
        7055000	       704	80004760	41e75f33	sra	x30,x14,x30	 x14:0x80dff6f4 x30:0x00000129 x30=0xffc06ffb
        7065000	       705	80004764	003973b3	and	x7,x18,x3	 x18:0x8000a0c2  x3:0x00000001  x7=0x00000000
        7075000	       706	80004768	035d8e63	beq	x27,x21,800047a4	 x27:0x02fc538c x21:0x00000000
        7085000	       707	8000476c	01389c63	bne	x17,x19,80004784	 x17:0x5bf016f8 x19:0x21368f15
        7095000	       708	00000000	00000013	addi	x0,x0,0	  x0:0x00000000
        7105000	       709	80004780	00000013	addi	x0,x0,0	  x0:0x00000000
        7115000	       710	80004784	01b40263	beq	x8,x27,80004788	  x8:0x00000000 x27:0x02fc538c
        7125000	       711	80004788	955f2d13	slti	x26,x30,-1707	 x30:0xffc06ffb x26=0x00000001
        7135000	       712	8000478c	410c0cb3	sub	x25,x24,x16	 x24:0xffd7fe01 x16:0x00000000 x25=0xffd7fe01
        7145000	       713	80004790	00f48663	beq	x9,x15,8000479c	  x9:0x00000000 x15:0x02fc538d
        7155000	       714	80004794	00000013	addi	x0,x0,0	  x0:0x00000000
        7165000	       715	80004798	00b05663	bge	x0,x11,800047a4	  x0:0x00000000 x11:0x80009fc4
        7175000	       716	00000000	00000013	addi	x0,x0,0	  x0:0x00000000
        7185000	       717	800047a0	00000013	addi	x0,x0,0	  x0:0x00000000
        7195000	       718	800047a4	01d3aeb3	slt	x29,x7,x29	  x7:0x00000000 x29:0x00000000 x29=0x00000000
        7205000	       719	800047a8	f15fcf93	xori	x31,x31,-235	 x31:0x00000001 x31=0xffffff14
        7215000	       720	800047ac	9135c993	xori	x19,x11,-1773	 x11:0x80009fc4 x19=0x7fff66d7
        7225000	       721	800047b0	008769b3	or	x19,x14,x8	 x14:0x80dff6f4  x8:0x00000000 x19=0x80dff6f4
        7235000	       722	800047b4	00000013	addi	x0,x0,0	  x0:0x00000000
        7245000	       723	800047b8	001f8333	add	x6,x31,x1	 x31:0xffffff14  x1:0x00000001  x6=0xffffff15
        7255000	       724	800047bc	266d8a93	addi	x21,x27,614	 x27:0x02fc538c x21=0x02fc55f2
        7265000	       725	800047c0	8c1dc493	xori	x9,x27,-1855	 x27:0x02fc538c  x9=0xfd03ab4d
        7275000	       726	800047c4	b85b8f13	addi	x30,x23,-1147	 x23:0x0000000d x30=0xfffffb92
        7285000	       727	800047c8	410c8033	sub	x0,x25,x16	 x25:0xffd7fe01 x16:0x00000000
        7295000	       728	800047cc	01717663	bgeu	x2,x23,800047d8	  x2:0xfffff921 x23:0x0000000d
        7305000	       729	00000000	00000013	addi	x0,x0,0	  x0:0x00000000
        7315000	       730	800047d4	00000013	addi	x0,x0,0	  x0:0x00000000
        7325000	       731	800047d8	75d32493	slti	x9,x6,1885	  x6:0xffffff15  x9=0x00000001
        7335000	       732	800047dc	01e26833	or	x16,x4,x30	  x4:0xffffffff x30:0xfffffb92 x16=0xffffffff
        7345000	       733	800047e0	00587263	bgeu	x16,x5,800047e4	 x16:0xffffffff  x5:0x0000075e
        7355000	       734	00000000	00000013	addi	x0,x0,0	  x0:0x00000000
        7365000	       735	800047e0	00000013	addi	x0,x0,0	  x0:0x00000000
        7375000	       736	800047e4	afb4fb13	andi	x22,x9,-1285	  x9:0x00000001 x22=0x00000001
        7385000	       737	800047e8	032a4863	blt	x20,x18,80004818	 x20:0xcfc1d000 x18:0x8000a0c2
        7395000	       738	800047ec	415c0e33	sub	x28,x24,x21	 x24:0xffd7fe01 x21:0x02fc55f2 x28=0xfcdba80f
        7405000	       739	800047f0	003fa6b3	slt	x13,x31,x3	 x31:0xffffff14  x3:0x00000001 x13=0x00000001
        7415000	       740	800047f4	0101da63	bge	x3,x16,80004808	  x3:0x00000001 x16:0xffffffff
        7425000	       741	00000000	00000013	addi	x0,x0,0	  x0:0x00000000
        7435000	       742	80004804	00000013	addi	x0,x0,0	  x0:0x00000000
        7445000	       743	80004808	04200663	beq	x0,x2,80004854	  x0:0x00000000  x2:0xfffff921
        7455000	       744	8000480c	2210b413	sltiu	x8,x1,545	  x1:0x00000001  x8=0x00000001
        7465000	       745	80004810	0467e463	bltu	x15,x6,80004858	 x15:0x02fc538d  x6:0xffffff15
        7475000	       746	00000000	00000013	addi	x0,x0,0	  x0:0x00000000
        7485000	       747	80004854	00000013	addi	x0,x0,0	  x0:0x00000000
        7495000	       748	80004858	f1303213	sltiu	x4,x0,-237	  x0:0x00000000  x4=0x00000001
        7505000	       749	8000485c	410189b3	sub	x19,x3,x16	  x3:0x00000001 x16:0xffffffff x19=0x00000002
        7515000	       750	80004860	56563313	sltiu	x6,x12,1381	 x12:0x00000000  x6=0x00000001
        7525000	       751	80004864	00dee8b3	or	x17,x29,x13	 x29:0x00000000 x13:0x00000001 x17=0x00000001
        7535000	       752	80004868	40d60933	sub	x18,x12,x13	 x12:0x00000000 x13:0x00000001 x18=0xffffffff
        7545000	       753	8000486c	01f74eb3	xor	x29,x14,x31	 x14:0x80dff6f4 x31:0xffffff14 x29=0x7f2009e0
        7555000	       754	80004870	0369f263	bgeu	x19,x22,80004894	 x19:0x00000002 x22:0x00000001
        7565000	       755	00000000	00000013	addi	x0,x0,0	  x0:0x00000000
        7575000	       756	80004890	00000013	addi	x0,x0,0	  x0:0x00000000
        7585000	       757	80004894	41740133	sub	x2,x8,x23	  x8:0x00000001 x23:0x0000000d  x2=0xfffffff4
        7595000	       758	80004898	40100433	sub	x8,x0,x1	  x0:0x00000000  x1:0x00000001  x8=0xffffffff
        7605000	       759	8000489c	5f833817	auipc	x16,0x5f833	 x16=0xdf837898
        7615000	       760	800048a0	9cbfe737	lui	x14,0x9cbfe	 x14=0x9cbfe000
        7625000	       761	800048a4	d79662b7	lui	x5,0xd7966	  x5=0xd7966000
        7635000	       762	800048a8	a9516997	auipc	x19,0xa9516	 x19=0x2951a8a4
        7645000	       763	800048ac	407cd433	sra	x8,x25,x7	 x25:0xffd7fe01  x7:0x00000000  x8=0xffd7fe01
        7655000	       764	800048b0	00b0d493	srli	x9,x1,0xb	  x1:0x00000001  x9=0x00000000
        7665000	       765	800048b4	007b71b3	and	x3,x22,x7	 x22:0x00000001  x7:0x00000000  x3=0x00000000
        7675000	       766	800048b8	040bc463	blt	x23,x0,80004900	 x23:0x0000000d  x0:0x00000000
        7685000	       767	800048bc	0078ceb3	xor	x29,x17,x7	 x17:0x00000001  x7:0x00000000 x29=0x00000001
        7695000	       768	800048c0	41b2df33	sra	x30,x5,x27	  x5:0xd7966000 x27:0x02fc538c x30=0xfffd7966
        7705000	       769	800048c4	00000013	addi	x0,x0,0	  x0:0x00000000
        7715000	       770	800048c8	b3202a93	slti	x21,x0,-1230	  x0:0x00000000 x21=0x00000000
        7725000	       771	800048cc	04005063	bge	x0,x0,8000490c	  x0:0x00000000  x0:0x00000000
        7735000	       772	00000000	00000013	addi	x0,x0,0	  x0:0x00000000
        7745000	       773	80004908	00000013	addi	x0,x0,0	  x0:0x00000000
        7755000	       774	8000490c	b6fe7117	auipc	x2,0xb6fe7	  x2=0x36feb908
        7765000	       775	80004910	0020ad33	slt	x26,x1,x2	  x1:0x00000001  x2:0x36feb908 x26=0x00000001
        7775000	       776	80004914	0032a133	slt	x2,x5,x3	  x5:0xd7966000  x3:0x00000000  x2=0x00000001
        7785000	       777	80004918	98038913	addi	x18,x7,-1664	  x7:0x00000000 x18=0xfffff980
        7795000	       778	8000491c	01bdfeb3	and	x29,x27,x27	 x27:0x02fc538c x27:0x02fc538c x29=0x02fc538c
        7805000	       779	80004920	007c1913	slli	x18,x24,0x7	 x24:0xffd7fe01 x18=0xebff0080
        7815000	       780	80004924	004ce733	or	x14,x25,x4	 x25:0xffd7fe01  x4:0x00000001 x14=0xffd7fe01
        7825000	       781	80004928	03984c63	blt	x16,x25,80004960	 x16:0xdf837898 x25:0xffd7fe01
        7835000	       782	00000000	00000013	addi	x0,x0,0	  x0:0x00000000
        7845000	       783	8000495c	00000013	addi	x0,x0,0	  x0:0x00000000
        7855000	       784	80004960	01d5cd33	xor	x26,x11,x29	 x11:0x80009fc4 x29:0x02fc538c x26=0x82fccc48
        7865000	       785	80004964	03ade263	bltu	x27,x26,80004988	 x27:0x02fc538c x26:0x82fccc48
        7875000	       786	00000000	00000013	addi	x0,x0,0	  x0:0x00000000
        7885000	       787	80004984	00000013	addi	x0,x0,0	  x0:0x00000000
        7895000	       788	80004988	0195aa33	slt	x20,x11,x25	 x11:0x80009fc4 x25:0xffd7fe01 x20=0x00000001
        7905000	       789	8000498c	05a90663	beq	x18,x26,800049d8	 x18:0xebff0080 x26:0x82fccc48
        7915000	       790	80004990	016bd933	srl	x18,x23,x22	 x23:0x0000000d x22:0x00000001 x18=0x00000006
        7925000	       791	80004994	00e8f263	bgeu	x17,x14,80004998	 x17:0x00000001 x14:0xffd7fe01
        7935000	       792	80004998	fdee6d13	ori	x26,x28,-34	 x28:0xfcdba80f x26=0xffffffdf
        7945000	       793	8000499c	018d1e33	sll	x28,x26,x24	 x26:0xffffffdf x24:0xffd7fe01 x28=0xffffffbe
        7955000	       794	800049a0	00891663	bne	x18,x8,800049ac	 x18:0x00000006  x8:0xffd7fe01
        7965000	       795	00000000	00000013	addi	x0,x0,0	  x0:0x00000000
        7975000	       796	800049a8	00000013	addi	x0,x0,0	  x0:0x00000000
        7985000	       797	800049ac	01e27033	and	x0,x4,x30	  x4:0x00000001 x30:0xfffd7966
        7995000	       798	800049b0	418ed0b3	sra	x1,x29,x24	 x29:0x02fc538c x24:0xffd7fe01  x1=0x017e29c6
        8005000	       799	800049b4	008592b3	sll	x5,x11,x8	 x11:0x80009fc4  x8:0xffd7fe01  x5=0x00013f88
        8015000	       800	800049b8	a251bf93	sltiu	x31,x3,-1499	  x3:0x00000000 x31=0x00000001
        8025000	       801	800049bc	3cb2bd13	sltiu	x26,x5,971	  x5:0x00013f88 x26=0x00000000
        8035000	       802	800049c0	41305833	sra	x16,x0,x19	  x0:0x00000000 x19:0x2951a8a4 x16=0x00000000
        8045000	       803	800049c4	01b5df33	srl	x30,x11,x27	 x11:0x80009fc4 x27:0x02fc538c x30=0x00080009
        8055000	       804	800049c8	3bfcacb7	lui	x25,0x3bfca	 x25=0x3bfca000
        8065000	       805	800049cc	4098d693	srai	x13,x17,0x9	 x17:0x00000001 x13=0x00000000
        8075000	       806	800049d0	ba241017	auipc	x0,0xba241	
        8085000	       807	800049d4	01e6d263	bge	x13,x30,800049d8	 x13:0x00000000 x30:0x00080009
        8095000	       808	800049d8	a354af93	slti	x31,x9,-1483	  x9:0x00000000 x31=0x00000000
        8105000	       809	800049dc	023a4863	blt	x20,x3,80004a0c	 x20:0x00000001  x3:0x00000000
        8115000	       810	800049e0	14b78193	addi	x3,x15,331	 x15:0x02fc538d  x3=0x02fc54d8
        8125000	       811	800049e4	00429733	sll	x14,x5,x4	  x5:0x00013f88  x4:0x00000001 x14=0x00027f10
        8135000	       812	800049e8	04cfc6b7	lui	x13,0x4cfc	 x13=0x04cfc000
        8145000	       813	800049ec	41ac0733	sub	x14,x24,x26	 x24:0xffd7fe01 x26:0x00000000 x14=0xffd7fe01
        8155000	       814	800049f0	00151493	slli	x9,x10,0x1	 x10:0x80009f38  x9=0x00013e70
        8165000	       815	800049f4	01123db3	sltu	x27,x4,x17	  x4:0x00000001 x17:0x00000001 x27=0x00000000
        8175000	       816	800049f8	00835fb3	srl	x31,x6,x8	  x6:0x00000001  x8:0xffd7fe01 x31=0x00000000
        8185000	       817	800049fc	014c74b3	and	x9,x24,x20	 x24:0xffd7fe01 x20:0x00000001  x9=0x00000001
        8195000	       818	80004a00	008b5c63	bge	x22,x8,80004a18	 x22:0x00000001  x8:0xffd7fe01
        8205000	       819	00000000	00000013	addi	x0,x0,0	  x0:0x00000000
        8215000	       820	80004a14	00000013	addi	x0,x0,0	  x0:0x00000000
        8225000	       821	80004a18	403c5133	sra	x2,x24,x3	 x24:0xffd7fe01  x3:0x02fc54d8  x2=0xffffffff
        8235000	       822	80004a1c	41b580b3	sub	x1,x11,x27	 x11:0x80009fc4 x27:0x00000000  x1=0x80009fc4
        8245000	       823	80004a20	40df5433	sra	x8,x30,x13	 x30:0x00080009 x13:0x04cfc000  x8=0x00080009
        8255000	       824	80004a24	e5463293	sltiu	x5,x12,-428	 x12:0x00000000  x5=0x00000001
        8265000	       825	80004a28	90f57093	andi	x1,x10,-1777	 x10:0x80009f38  x1=0x80009908
        8275000	       826	80004a2c	00003a97	auipc	x21,0x3	 x21=0x80007a28
        8285000	       827	80004a30	6b6a8a93	addi	x21,x21,1718	 x21:0x80007a28 x21=0x800080de
        8295000	       828	80004a34	ffdacf83	lbu	x31,-3(x21)	 x21:0x800080de x31=0x0000000b PA:0x800080db
        8305000	       829	80004a38	008a8e83	lb	x29,8(x21)	 x21:0x800080de x29=0xffffffe4 PA:0x800080e6
        8315000	       830	80004a3c	ffaa9283	lh	x5,-6(x21)	 x21:0x800080de  x5=0xffffd139 PA:0x800080d8
        8325000	       831	80004a40	00000013	addi	x0,x0,0	  x0:0x00000000
        8335000	       832	80004a44	4125d733	sra	x14,x11,x18	 x11:0x80009fc4 x18:0x00000006 x14=0xfe00027f
        8345000	       833	80004a48	0037d313	srli	x6,x15,0x3	 x15:0x02fc538d  x6=0x005f8a71
        8355000	       834	80004a4c	00da80a3	sb	x13,1(x21)	 x21:0x800080de x13:0x04cfc000 PA:0x800080df
        8365000	       835	80004a50	005acf03	lbu	x30,5(x21)	 x21:0x800080de x30=0x0000000d PA:0x800080e3
        8375000	       836	80004a54	00aa81a3	sb	x10,3(x21)	 x21:0x800080de x10:0x80009f38 PA:0x800080e1
        8385000	       837	80004a58	ffcadd83	lhu	x27,-4(x21)	 x21:0x800080de x27=0x00000b93 PA:0x800080da
        8395000	       838	80004a5c	000a8983	lb	x19,0(x21)	 x21:0x800080de x19=0xffffffa2 PA:0x800080de
        8405000	       839	80004a60	005a8783	lb	x15,5(x21)	 x21:0x800080de x15=0x0000000d PA:0x800080e3
        8415000	       840	80004a64	00d892b3	sll	x5,x17,x13	 x17:0x00000001 x13:0x04cfc000  x5=0x00000001
        8425000	       841	80004a68	01605d13	srli	x26,x0,0x16	  x0:0x00000000 x26=0x00000000
        8435000	       842	80004a6c	00583c33	sltu	x24,x16,x5	 x16:0x00000000  x5:0x00000001 x24=0x00000001
        8445000	       843	80004a70	002ac903	lbu	x18,2(x21)	 x21:0x800080de x18=0x0000004a PA:0x800080e0
        8455000	       844	80004a74	ffaa9b03	lh	x22,-6(x21)	 x21:0x800080de x22=0xffffd139 PA:0x800080d8
        8465000	       845	80004a78	00d5e133	or	x2,x11,x13	 x11:0x80009fc4 x13:0x04cfc000  x2=0x84cfdfc4
        8475000	       846	80004a7c	fe2a89a3	sb	x2,-13(x21)	 x21:0x800080de  x2:0x84cfdfc4 PA:0x800080d1
        8485000	       847	80004a80	d9566f17	auipc	x30,0xd9566	 x30=0x5956aa7c
        8495000	       848	80004a84	40365233	sra	x4,x12,x3	 x12:0x00000000  x3:0x02fc54d8  x4=0x00000000
        8505000	       849	80004a88	ff5a8ea3	sb	x21,-3(x21)	 x21:0x800080de x21:0x800080de PA:0x800080db
        8515000	       850	80004a8c	00c78a33	add	x20,x15,x12	 x15:0x0000000d x12:0x00000000 x20=0x0000000d
        8525000	       851	80004a90	ff7ac103	lbu	x2,-9(x21)	 x21:0x800080de  x2=0x000000fb PA:0x800080d5
        8535000	       852	80004a94	fe5a8f23	sb	x5,-2(x21)	 x21:0x800080de  x5:0x00000001 PA:0x800080dc
        8545000	       853	80004a98	e92f24b7	lui	x9,0xe92f2	  x9=0xe92f2000
        8555000	       854	80004a9c	4ec410b7	lui	x1,0x4ec41	  x1=0x4ec41000
        8565000	       855	80004aa0	43938193	addi	x3,x7,1081	  x7:0x00000000  x3=0x00000439
        8575000	       856	80004aa4	00000013	addi	x0,x0,0	  x0:0x00000000
        8585000	       857	80004aa8	00000013	addi	x0,x0,0	  x0:0x00000000
        8595000	       858	80004aac	37adb413	sltiu	x8,x27,890	 x27:0x00000b93  x8=0x00000000
        8605000	       859	80004ab0	ffaa8ea3	sb	x26,-3(x21)	 x21:0x800080de x26:0x00000000 PA:0x800080db
        8615000	       860	80004ab4	00bb81b3	add	x3,x23,x11	 x23:0x0000000d x11:0x80009fc4  x3=0x80009fd1
        8625000	       861	80004ab8	9b570713	addi	x14,x14,-1611	 x14:0xfe00027f x14=0xfdfffc34
        8635000	       862	80004abc	d662a213	slti	x4,x5,-666	  x5:0x00000001  x4=0x00000000
        8645000	       863	80004ac0	21f64313	xori	x6,x12,543	 x12:0x00000000  x6=0x0000021f
        8655000	       864	80004ac4	00000013	addi	x0,x0,0	  x0:0x00000000
        8665000	       865	80004ac8	ff1acd03	lbu	x26,-15(x21)	 x21:0x800080de x26=0x0000001c PA:0x800080cf
        8675000	       866	80004acc	005a82a3	sb	x5,5(x21)	 x21:0x800080de  x5:0x00000001 PA:0x800080e3
        8685000	       867	80004ad0	007a8783	lb	x15,7(x21)	 x21:0x800080de x15=0xffffffc7 PA:0x800080e5
        8695000	       868	80004ad4	e2ee6413	ori	x8,x28,-466	 x28:0xffffffbe  x8=0xffffffbe
        8705000	       869	80004ad8	00fa85a3	sb	x15,11(x21)	 x21:0x800080de x15:0xffffffc7 PA:0x800080e9
        8715000	       870	80004adc	0024f263	bgeu	x9,x2,80004ae0	  x9:0xe92f2000  x2:0x000000fb
        8725000	       871	00000000	00000013	addi	x0,x0,0	  x0:0x00000000
        8735000	       872	80004adc	00000013	addi	x0,x0,0	  x0:0x00000000
        8745000	       873	80004ae0	00cce6b3	or	x13,x25,x12	 x25:0x3bfca000 x12:0x00000000 x13=0x3bfca000
        8755000	       874	80004ae4	003f7a63	bgeu	x30,x3,80004af8	 x30:0x5956aa7c  x3:0x80009fd1
        8765000	       875	80004ae8	40a15413	srai	x8,x2,0xa	  x2:0x000000fb  x8=0x00000000
        8775000	       876	80004aec	40b2d6b3	sra	x13,x5,x11	  x5:0x00000001 x11:0x80009fc4 x13=0x00000000
        8785000	       877	80004af0	e74708b7	lui	x17,0xe7470	 x17=0xe7470000
        8795000	       878	80004af4	39a6a013	slti	x0,x13,922	 x13:0x00000000
        8805000	       879	80004af8	418450b3	sra	x1,x8,x24	  x8:0x00000000 x24:0x00000001  x1=0x00000000
        8815000	       880	80004afc	00452a03	lw	x20,4(x10)	 x10:0x80009f38 x20=0x800050c0 PA:0x80009f3c
        8825000	       881	80004b00	01aedeb3	srl	x29,x29,x26	 x29:0xffffffe4 x26:0x0000001c x29=0x0000000f
        8835000	       882	80004b04	00154f33	xor	x30,x10,x1	 x10:0x80009f38  x1:0x00000000 x30=0x80009f38
        8845000	       883	80004b08	00c50513	addi	x10,x10,12	 x10:0x80009f38 x10=0x80009f44
        8855000	       884	80004b0c	01e45313	srli	x6,x8,0x1e	  x8:0x00000000  x6=0x00000000
        8865000	       885	80004b10	001a0c93	addi	x25,x20,1	 x20:0x800050c0 x25=0x800050c1
        8875000	       886	80004b14	000c8ce7	jalr	x25,x25,0	 x25:0x800050c1 x25=0x80004b14
        8885000	       887	00000000	00000013	addi	x0,x0,0	  x0:0x00000000
        8895000	       888	800050c0	00000013	addi	x0,x0,0	  x0:0x00000000
        8905000	       889	800050c4	01495e63	bge	x18,x20,800050e0	 x18:0x0000004a x20:0x800050c0
        8915000	       890	00000000	00000013	addi	x0,x0,0	  x0:0x00000000
        8925000	       891	800050dc	00000013	addi	x0,x0,0	  x0:0x00000000
        8935000	       892	800050e0	c59fea6f	jal	x20,800050e0	 x20=0x800050e0
        8945000	       893	00000000	00000013	addi	x0,x0,0	  x0:0x00000000
        8955000	       894	80003d34	00000013	addi	x0,x0,0	  x0:0x00000000
        8965000	       895	80003d38	ff450513	addi	x10,x10,-12	 x10:0x80009f44 x10=0x80009f38
        8975000	       896	80003d3c	0c243393	sltiu	x7,x8,194	  x8:0x00000000  x7=0x00000001
        8985000	       897	80003d40	41f1d033	sra	x0,x3,x31	  x3:0x80009fd1 x31:0x0000000b
        8995000	       898	80003d44	ed162d13	slti	x26,x12,-303	 x12:0x00000000 x26=0x00000000
        9005000	       899	80003d48	00db5d13	srli	x26,x22,0xd	 x22:0xffffd139 x26=0x0007fffe
        9015000	       900	80003d4c	01452223	sw	x20,4(x10)	 x10:0x80009f38 x20:0x800050e0 PA:0x80009f3c
        9025000	       901	80003d50	4026d693	srai	x13,x13,0x2	 x13:0x00000000 x13=0x00000000
        9035000	       902	80003d54	015bb333	sltu	x6,x23,x21	 x23:0x0000000d x21:0x800080de  x6=0x00000001
        9045000	       903	80003d58	00d61d13	slli	x26,x12,0xd	 x12:0x00000000 x26=0x00000000
        9055000	       904	80003d5c	01a49113	slli	x2,x9,0x1a	  x9:0xe92f2000  x2=0x00000000
        9065000	       905	80003d60	00005117	auipc	x2,0x5	  x2=0x80008d5c
        9075000	       906	80003d64	a2510113	addi	x2,x2,-1499	  x2:0x80008d5c  x2=0x80008781
        9085000	       907	80003d68	b4d11e83	lh	x29,-1203(x2)	  x2:0x80008781 x29=0xffffc2a2 PA:0x800082ce
        9095000	       908	80003d6c	018aeb33	or	x22,x21,x24	 x21:0x800080de x24:0x00000001 x22=0x800080df
        9105000	       909	80003d70	0147f6b3	and	x13,x15,x20	 x15:0xffffffc7 x20:0x800050e0 x13=0x800050c0
        9115000	       910	80003d74	b766e717	auipc	x14,0xb766e	 x14=0x37671d70
        9125000	       911	80003d78	00502433	slt	x8,x0,x5	  x0:0x00000000  x5:0x00000001  x8=0x00000001
        9135000	       912	80003d7c	76f18493	addi	x9,x3,1903	  x3:0x80009fd1  x9=0x8000a740
        9145000	       913	80003d80	b8312a83	lw	x21,-1149(x2)	  x2:0x80008781 x21=0xc0fb95ba PA:0x80008304
        9155000	       914	00000000	00000013	addi	x0,x0,0	  x0:0x00000000
        9165000	       915	80003d84	d1511203	lh	x4,-747(x2)	  x2:0x80008781  x4=0xffffc8d4 PA:0x80008496
        9175000	       916	80003d88	015ed833	srl	x16,x29,x21	 x29:0xffffc2a2 x21:0xc0fb95ba x16=0x0000003f
        9185000	       917	80003d8c	4132db33	sra	x22,x5,x19	  x5:0x00000001 x19:0xffffffa2 x22=0x00000000
        9195000	       918	80003d90	bb2f3493	sltiu	x9,x30,-1102	 x30:0x80009f38  x9=0x00000001
        9205000	       919	80003d94	007309b3	add	x19,x6,x7	  x6:0x00000001  x7:0x00000001 x19=0x00000002
        9215000	       920	80003d98	00066e33	or	x28,x12,x0	 x12:0x00000000  x0:0x00000000 x28=0x00000000
        9225000	       921	80003d9c	0144be33	sltu	x28,x9,x20	  x9:0x00000001 x20:0x800050e0 x28=0x00000001
        9235000	       922	80003da0	41860333	sub	x6,x12,x24	 x12:0x00000000 x24:0x00000001  x6=0xffffffff
        9245000	       923	80003da4	904107a3	sb	x4,-1777(x2)	  x2:0x80008781  x4:0xffffc8d4 PA:0x80008090
        9255000	       924	80003da8	af810683	lb	x13,-1288(x2)	  x2:0x80008781 x13=0xffffff88 PA:0x80008279
        9265000	       925	80003dac	02014083	lbu	x1,32(x2)	  x2:0x80008781  x1=0x0000009a PA:0x800087a1
        9275000	       926	80003db0	bd514f03	lbu	x30,-1067(x2)	  x2:0x80008781 x30=0x00000004 PA:0x80008356
        9285000	       927	80003db4	9c710d83	lb	x27,-1593(x2)	  x2:0x80008781 x27=0x0000000d PA:0x80008148
        9295000	       928	80003db8	00c89733	sll	x14,x17,x12	 x17:0xe7470000 x12:0x00000000 x14=0xe7470000
        9305000	       929	80003dbc	00000013	addi	x0,x0,0	  x0:0x00000000
        9315000	       930	80003dc0	c6410a83	lb	x21,-924(x2)	  x2:0x80008781 x21=0xfffffff5 PA:0x800083e5
        9325000	       931	80003dc4	3ee73ab7	lui	x21,0x3ee73	 x21=0x3ee73000
        9335000	       932	80003dc8	be433a13	sltiu	x20,x6,-1052	  x6:0xffffffff x20=0x00000000
        9345000	       933	80003dcc	98111283	lh	x5,-1663(x2)	  x2:0x80008781  x5=0xfffffcad PA:0x80008102
        9355000	       934	80003dd0	ef814f03	lbu	x30,-264(x2)	  x2:0x80008781 x30=0x00000011 PA:0x80008679
        9365000	       935	80003dd4	ee312fa3	sw	x3,-257(x2)	  x2:0x80008781  x3:0x80009fd1 PA:0x80008680
        9375000	       936	80003dd8	dc614e03	lbu	x28,-570(x2)	  x2:0x80008781 x28=0x00000079 PA:0x80008547
        9385000	       937	80003ddc	0042f8b3	and	x17,x5,x4	  x5:0xfffffcad  x4:0xffffc8d4 x17=0xffffc884
        9395000	       938	80003de0	01cabd33	sltu	x26,x21,x28	 x21:0x3ee73000 x28:0x00000079 x26=0x00000000
        9405000	       939	80003de4	1feb2693	slti	x13,x22,510	 x22:0x00000000 x13=0x00000001
        9415000	       940	80003de8	92c105a3	sb	x12,-1749(x2)	  x2:0x80008781 x12:0x00000000 PA:0x800080ac
        9425000	       941	80003dec	8e511203	lh	x4,-1819(x2)	  x2:0x80008781  x4=0x000045e3 PA:0x80008066
        9435000	       942	80003df0	d3714203	lbu	x4,-713(x2)	  x2:0x80008781  x4=0x00000049 PA:0x800084b8
        9445000	       943	80003df4	00004117	auipc	x2,0x4	  x2=0x80007df0
        9455000	       944	80003df8	33910113	addi	x2,x2,825	  x2:0x80007df0  x2=0x80008129
        9465000	       945	80003dfc	7dd31917	auipc	x18,0x7dd31	 x18=0xfdd34df8
        9475000	       946	80003e00	416d0e33	sub	x28,x26,x22	 x26:0x00000000 x22:0x00000000 x28=0x00000000
        9485000	       947	80003e04	03d15803	lhu	x16,61(x2)	  x2:0x80008129 x16=0x00000d52 PA:0x80008166
        9495000	       948	80003e08	cd696193	ori	x3,x18,-810	 x18:0xfdd34df8  x3=0xfffffdfe
        9505000	       949	80003e0c	0cb15883	lhu	x17,203(x2)	  x2:0x80008129 x17=0x0000a165 PA:0x800081f4
        9515000	       950	80003e10	fc712603	lw	x12,-57(x2)	  x2:0x80008129 x12=0x7778af61 PA:0x800080f0
        9525000	       951	80003e14	0bb10223	sb	x27,164(x2)	  x2:0x80008129 x27:0x0000000d PA:0x800081cd
        9535000	       952	80003e18	0f810d03	lb	x26,248(x2)	  x2:0x80008129 x26=0xffffffd2 PA:0x80008221
        9545000	       953	80003e1c	03710923	sb	x23,50(x2)	  x2:0x80008129 x23:0x0000000d PA:0x8000815b
        9555000	       954	80003e20	9751d037	lui	x0,0x9751d	
        9565000	       955	80003e24	fbb10783	lb	x15,-69(x2)	  x2:0x80008129 x15=0x0000002b PA:0x800080e4
        9575000	       956	80003e28	05414b03	lbu	x22,84(x2)	  x2:0x80008129 x22=0x000000bb PA:0x8000817d
        9585000	       957	80003e2c	03410803	lb	x16,52(x2)	  x2:0x80008129 x16=0xffffffb5 PA:0x8000815d
        9595000	       958	80003e30	403687b3	sub	x15,x13,x3	 x13:0x00000001  x3:0xfffffdfe x15=0x00000203
        9605000	       959	80003e34	4068d713	srai	x14,x17,0x6	 x17:0x0000a165 x14=0x00000285
        9615000	       960	80003e38	02510b23	sb	x5,54(x2)	  x2:0x80008129  x5:0xfffffcad PA:0x8000815f
        9625000	       961	80003e3c	32d93493	sltiu	x9,x18,813	 x18:0xfdd34df8  x9=0x00000000
        9635000	       962	80003e40	fdc10923	sb	x28,-46(x2)	  x2:0x80008129 x28:0x00000000 PA:0x800080fb
        9645000	       963	80003e44	01711fa3	sh	x23,31(x2)	  x2:0x80008129 x23:0x0000000d PA:0x80008148
        9655000	       964	80003e48	f8e14303	lbu	x6,-114(x2)	  x2:0x80008129  x6=0x000000e4 PA:0x800080b7
        9665000	       965	80003e4c	00a10303	lb	x6,10(x2)	  x2:0x80008129  x6=0x00000005 PA:0x80008133
        9675000	       966	80003e50	24050713	addi	x14,x10,576	 x10:0x80009f38 x14=0x8000a178
        9685000	       967	80003e54	05814483	lbu	x9,88(x2)	  x2:0x80008129  x9=0x000000a7 PA:0x80008181
        9695000	       968	80003e58	1ada9c97	auipc	x25,0x1ada9	 x25=0x9adace54
        9705000	       969	80003e5c	05614683	lbu	x13,86(x2)	  x2:0x80008129 x13=0x000000a4 PA:0x8000817f
        9715000	       970	80003e60	f36a7db7	lui	x27,0xf36a7	 x27=0xf36a7000
        9725000	       971	80003e64	4143d993	srai	x19,x7,0x14	  x7:0x00000001 x19=0x00000000
        9735000	       972	80003e68	0d914883	lbu	x17,217(x2)	  x2:0x80008129 x17=0x0000006e PA:0x80008202
        9745000	       973	80003e6c	ffd114a3	sh	x29,-23(x2)	  x2:0x80008129 x29:0xffffc2a2 PA:0x80008112
        9755000	       974	80003e70	40acdf13	srai	x30,x25,0xa	 x25:0x9adace54 x30=0xffe6b6b3
        9765000	       975	80003e74	02d10403	lb	x8,45(x2)	  x2:0x80008129  x8=0x0000003e PA:0x80008156
        9775000	       976	80003e78	01649793	slli	x15,x9,0x16	  x9:0x000000a7 x15=0x29c00000
        9785000	       977	80003e7c	fba10883	lb	x17,-70(x2)	  x2:0x80008129 x17=0x00000001 PA:0x800080e3
        9795000	       978	80003e80	416484b3	sub	x9,x9,x22	  x9:0x000000a7 x22:0x000000bb  x9=0xffffffec
        9805000	       979	80003e84	04014f83	lbu	x31,64(x2)	  x2:0x80008129 x31=0x00000015 PA:0x80008169
        9815000	       980	80003e88	00478733	add	x14,x15,x4	 x15:0x29c00000  x4:0x00000049 x14=0x29c00049
        9825000	       981	80003e8c	90df0297	auipc	x5,0x90df0	  x5=0x10df3e88
        9835000	       982	80003e90	fb914483	lbu	x9,-71(x2)	  x2:0x80008129  x9=0x00000027 PA:0x800080e2
        9845000	       983	80003e94	01c5dcb3	srl	x25,x11,x28	 x11:0x80009fc4 x28:0x00000000 x25=0x80009fc4
        9855000	       984	80003e98	ff410823	sb	x20,-16(x2)	  x2:0x80008129 x20:0x00000000 PA:0x80008119
        9865000	       985	80003e9c	fc715a03	lhu	x20,-57(x2)	  x2:0x80008129 x20=0x0000af61 PA:0x800080f0
        9875000	       986	00000000	00000013	addi	x0,x0,0	  x0:0x00000000
        9885000	       987	80003ea0	f7410b23	sb	x20,-138(x2)	  x2:0x80008129 x20:0x0000af61 PA:0x8000809f
        9895000	       988	80003ea4	f3f123a3	sw	x31,-217(x2)	  x2:0x80008129 x31:0x00000015 PA:0x80008050
        9905000	       989	80003ea8	0fb15303	lhu	x6,251(x2)	  x2:0x80008129  x6=0x0000c7f2 PA:0x80008224
        9915000	       990	80003eac	00005117	auipc	x2,0x5	  x2=0x80008ea8
        9925000	       991	80003eb0	90910113	addi	x2,x2,-1783	  x2:0x80008ea8  x2=0x800087b1
        9935000	       992	80003eb4	06583613	sltiu	x12,x16,101	 x16:0xffffffb5 x12=0x00000000
        9945000	       993	80003eb8	00915803	lhu	x16,9(x2)	  x2:0x800087b1 x16=0x00006c76 PA:0x800087ba
        9955000	       994	80003ebc	03210723	sb	x18,46(x2)	  x2:0x800087b1 x18:0xfdd34df8 PA:0x800087df
        9965000	       995	80003ec0	fd712283	lw	x5,-41(x2)	  x2:0x800087b1  x5=0xb4b47e0a PA:0x80008788
        9975000	       996	80003ec4	41de83b3	sub	x7,x29,x29	 x29:0xffffc2a2 x29:0xffffc2a2  x7=0x00000000
        9985000	       997	80003ec8	74972e93	slti	x29,x14,1865	 x14:0x29c00049 x29=0x00000000
        9995000	       998	80003ecc	0054d733	srl	x14,x9,x5	  x9:0x00000027  x5:0xb4b47e0a x14=0x00000000
       10005000	       999	80003ed0	00b12d83	lw	x27,11(x2)	  x2:0x800087b1 x27=0xe8351201 PA:0x800087bc
       10015000	      1000	80003ed4	fc911903	lh	x18,-55(x2)	  x2:0x800087b1 x18=0xffff863a PA:0x8000877a
       10025000	      1001	80003ed8	00a10023	sb	x10,0(x2)	  x2:0x800087b1 x10:0x80009f38 PA:0x800087b1
       10035000	      1002	80003edc	40b7d9b3	sra	x19,x15,x11	 x15:0x29c00000 x11:0x80009fc4 x19=0x029c0000
       10045000	      1003	80003ee0	001b91b3	sll	x3,x23,x1	 x23:0x0000000d  x1:0x0000009a  x3=0x34000000
       10055000	      1004	80003ee4	402359b3	sra	x19,x6,x2	  x6:0x0000c7f2  x2:0x800087b1 x19=0x00000000
       10065000	      1005	80003ee8	ff012ba3	sw	x16,-9(x2)	  x2:0x800087b1 x16:0x00006c76 PA:0x800087a8
       10075000	      1006	80003eec	00da3f33	sltu	x30,x20,x13	 x20:0x0000af61 x13:0x000000a4 x30=0x00000000
       10085000	      1007	80003ef0	40a704b3	sub	x9,x14,x10	 x14:0x00000000 x10:0x80009f38  x9=0x7fff60c8
       10095000	      1008	80003ef4	622e3913	sltiu	x18,x28,1570	 x28:0x00000000 x18=0x00000001
       10105000	      1009	80003ef8	d23db317	auipc	x6,0xd23db	  x6=0x523deef4
       10115000	      1010	80003efc	01410223	sb	x20,4(x2)	  x2:0x800087b1 x20:0x0000af61 PA:0x800087b5
       10125000	      1011	80003f00	00680233	add	x4,x16,x6	 x16:0x00006c76  x6:0x523deef4  x4=0x523e5b6a
       10135000	      1012	80003f04	177af793	andi	x15,x21,375	 x21:0x3ee73000 x15=0x00000000
       10145000	      1013	80003f08	fc410b03	lb	x22,-60(x2)	  x2:0x800087b1 x22=0x00000031 PA:0x80008775
       10155000	      1014	80003f0c	01bbe4b3	or	x9,x23,x27	 x23:0x0000000d x27:0xe8351201  x9=0xe835120d
       10165000	      1015	80003f10	be910c93	addi	x25,x2,-1047	  x2:0x800087b1 x25=0x8000839a
       10175000	      1016	80003f14	03610ea3	sb	x22,61(x2)	  x2:0x800087b1 x22:0x00000031 PA:0x800087ee
       10185000	      1017	80003f18	f6044493	xori	x9,x8,-160	  x8:0x0000003e  x9=0xffffff5e
       10195000	      1018	80003f1c	4c03ec93	ori	x25,x7,1216	  x7:0x00000000 x25=0x000004c0
       10205000	      1019	80003f20	f24b0a13	addi	x20,x22,-220	 x22:0x00000031 x20=0xffffff55
       10215000	      1020	80003f24	fe010703	lb	x14,-32(x2)	  x2:0x800087b1 x14=0x00000050 PA:0x80008791
       10225000	      1021	80003f28	fe3101a3	sb	x3,-29(x2)	  x2:0x800087b1  x3:0x34000000 PA:0x80008794
       10235000	      1022	80003f2c	00005117	auipc	x2,0x5	  x2=0x80008f28
       10245000	      1023	80003f30	dbc10113	addi	x2,x2,-580	  x2:0x80008f28  x2=0x80008ce4
       10255000	      1024	80003f34	01ddd9b3	srl	x19,x27,x29	 x27:0xe8351201 x29:0x00000000 x19=0xe8351201
       10265000	      1025	80003f38	f2810b23	sb	x8,-202(x2)	  x2:0x80008ce4  x8:0x0000003e PA:0x80008c1a
       10275000	      1026	80003f3c	00000013	addi	x0,x0,0	  x0:0x00000000
       10285000	      1027	80003f40	92c22a13	slti	x20,x4,-1748	  x4:0x523e5b6a x20=0x00000000
       10295000	      1028	80003f44	00b21233	sll	x4,x4,x11	  x4:0x523e5b6a x11:0x80009fc4  x4=0x23e5b6a0
       10305000	      1029	80003f48	f5611783	lh	x15,-170(x2)	  x2:0x80008ce4 x15=0x00000f67 PA:0x80008c3a
       10315000	      1030	80003f4c	00233eb3	sltu	x29,x6,x2	  x6:0x523deef4  x2:0x80008ce4 x29=0x00000001
       10325000	      1031	80003f50	7570b893	sltiu	x17,x1,1879	  x1:0x0000009a x17=0x00000001
       10335000	      1032	80003f54	0c810ea3	sb	x8,221(x2)	  x2:0x80008ce4  x8:0x0000003e PA:0x80008dc1
       10345000	      1033	80003f58	f61107a3	sb	x1,-145(x2)	  x2:0x80008ce4  x1:0x0000009a PA:0x80008c53
       10355000	      1034	80003f5c	c7c8e813	ori	x16,x17,-900	 x17:0x00000001 x16=0xfffffc7d
       10365000	      1035	80003f60	fc710f83	lb	x31,-57(x2)	  x2:0x80008ce4 x31=0xffffffc9 PA:0x80008cab
       10375000	      1036	80003f64	9e4d4813	xori	x16,x26,-1564	 x26:0xffffffd2 x16=0x00000636
       10385000	      1037	80003f68	f7710e83	lb	x29,-137(x2)	  x2:0x80008ce4 x29=0xffffffe8 PA:0x80008c5b
       10395000	      1038	80003f6c	03310c83	lb	x25,51(x2)	  x2:0x80008ce4 x25=0x00000048 PA:0x80008d17
       10405000	      1039	80003f70	fe714083	lbu	x1,-25(x2)	  x2:0x80008ce4  x1=0x00000046 PA:0x80008ccb
       10415000	      1040	80003f74	0078a0b3	slt	x1,x17,x7	 x17:0x00000001  x7:0x00000000  x1=0x00000000
       10425000	      1041	80003f78	0d510a83	lb	x21,213(x2)	  x2:0x80008ce4 x21=0xfffffff4 PA:0x80008db9
       10435000	      1042	80003f7c	06514903	lbu	x18,101(x2)	  x2:0x80008ce4 x18=0x00000078 PA:0x80008d49
       10445000	      1043	80003f80	f2210003	lb	x0,-222(x2)	  x2:0x80008ce4 PA:0x80008c06
       10455000	      1044	80003f84	000cda33	srl	x20,x25,x0	 x25:0x00000048  x0:0x00000000 x20=0x00000048
       10465000	      1045	80003f88	ff014603	lbu	x12,-16(x2)	  x2:0x80008ce4 x12=0x000000f3 PA:0x80008cd4
       10475000	      1046	80003f8c	feb82493	slti	x9,x16,-21	 x16:0x00000636  x9=0x00000000
       10485000	      1047	80003f90	fc110803	lb	x16,-63(x2)	  x2:0x80008ce4 x16=0x00000013 PA:0x80008ca5
       10495000	      1048	80003f94	f7614303	lbu	x6,-138(x2)	  x2:0x80008ce4  x6=0x00000038 PA:0x80008c5a
       10505000	      1049	80003f98	00c276b3	and	x13,x4,x12	  x4:0x23e5b6a0 x12:0x000000f3 x13=0x000000a0
       10515000	      1050	80003f9c	f8111d23	sh	x1,-102(x2)	  x2:0x80008ce4  x1:0x00000000 PA:0x80008c7e
       10525000	      1051	80003fa0	f1310883	lb	x17,-237(x2)	  x2:0x80008ce4 x17=0xffffffd9 PA:0x80008bf7
       10535000	      1052	80003fa4	42b52613	slti	x12,x10,1067	 x10:0x80009f38 x12=0x00000001
       10545000	      1053	80003fa8	0043bdb3	sltu	x27,x7,x4	  x7:0x00000000  x4:0x23e5b6a0 x27=0x00000001
       10555000	      1054	80003fac	411fd433	sra	x8,x31,x17	 x31:0xffffffc9 x17:0xffffffd9  x8=0xffffffff
       10565000	      1055	80003fb0	f2214f83	lbu	x31,-222(x2)	  x2:0x80008ce4 x31=0x0000006e PA:0x80008c06
       10575000	      1056	80003fb4	f6b14683	lbu	x13,-149(x2)	  x2:0x80008ce4 x13=0x0000006b PA:0x80008c4f
       10585000	      1057	80003fb8	c057af13	slti	x30,x15,-1019	 x15:0x00000f67 x30=0x00000000
       10595000	      1058	80003fbc	403a0633	sub	x12,x20,x3	 x20:0x00000048  x3:0x34000000 x12=0xcc000048
       10605000	      1059	80003fc0	3a4f2113	slti	x2,x30,932	 x30:0x00000000  x2=0x00000001
       10615000	      1060	80003fc4	01bca1b3	slt	x3,x25,x27	 x25:0x00000048 x27:0x00000001  x3=0x00000000
       10625000	      1061	80003fc8	04770663	beq	x14,x7,80004014	 x14:0x00000050  x7:0x00000000
       10635000	      1062	80003fcc	1dcdeab7	lui	x21,0x1dcde	 x21=0x1dcde000
       10645000	      1063	80003fd0	011a1933	sll	x18,x20,x17	 x20:0x00000048 x17:0xffffffd9 x18=0x90000000
       10655000	      1064	80003fd4	003af2b3	and	x5,x21,x3	 x21:0x1dcde000  x3:0x00000000  x5=0x00000000
       10665000	      1065	80003fd8	01e49ab3	sll	x21,x9,x30	  x9:0x00000000 x30:0x00000000 x21=0x00000000
       10675000	      1066	80003fdc	40520eb3	sub	x29,x4,x5	  x4:0x23e5b6a0  x5:0x00000000 x29=0x23e5b6a0
       10685000	      1067	80003fe0	0115ed33	or	x26,x11,x17	 x11:0x80009fc4 x17:0xffffffd9 x26=0xffffffdd
       10695000	      1068	80003fe4	d7240e13	addi	x28,x8,-654	  x8:0xffffffff x28=0xfffffd71
       10705000	      1069	80003fe8	018b3a33	sltu	x20,x22,x24	 x22:0x00000031 x24:0x00000001 x20=0x00000000
       10715000	      1070	80003fec	00de49b3	xor	x19,x28,x13	 x28:0xfffffd71 x13:0x0000006b x19=0xfffffd1a
       10725000	      1071	80003ff0	40285993	srai	x19,x16,0x2	 x16:0x00000013 x19=0x00000004
       10735000	      1072	80003ff4	40cc5b33	sra	x22,x24,x12	 x24:0x00000001 x12:0xcc000048 x22=0x00000000
       10745000	      1073	80003ff8	40ee5e13	srai	x28,x28,0xe	 x28:0xfffffd71 x28=0xffffffff
       10755000	      1074	80003ffc	01492d33	slt	x26,x18,x20	 x18:0x90000000 x20:0x00000000 x26=0x00000001
       10765000	      1075	80004000	5f49ed93	ori	x27,x19,1524	 x19:0x00000004 x27=0x000005f4
       10775000	      1076	80004004	01d1edb3	or	x27,x3,x29	  x3:0x00000000 x29:0x23e5b6a0 x27=0x23e5b6a0
       10785000	      1077	80004008	002e1eb3	sll	x29,x28,x2	 x28:0xffffffff  x2:0x00000001 x29=0xfffffffe
       10795000	      1078	8000400c	90996693	ori	x13,x18,-1783	 x18:0x90000000 x13=0xfffff909
       10805000	      1079	80004010	004778b3	and	x17,x14,x4	 x14:0x00000050  x4:0x23e5b6a0 x17=0x00000000
       10815000	      1080	80004014	4057d213	srai	x4,x15,0x5	 x15:0x00000f67  x4=0x0000007b
       10825000	      1081	80004018	00679a13	slli	x20,x15,0x6	 x15:0x00000f67 x20=0x0003d9c0
       10835000	      1082	8000401c	001e9233	sll	x4,x29,x1	 x29:0xfffffffe  x1:0x00000000  x4=0xfffffffe
       10845000	      1083	80004020	4125f793	andi	x15,x11,1042	 x11:0x80009fc4 x15=0x00000400
       10855000	      1084	80004024	1105e393	ori	x7,x11,272	 x11:0x80009fc4  x7=0x80009fd4
       10865000	      1085	80004028	00000013	addi	x0,x0,0	  x0:0x00000000
       10875000	      1086	8000402c	f7883113	sltiu	x2,x16,-136	 x16:0x00000013  x2=0x00000001
       10885000	      1087	80004030	dbd41237	lui	x4,0xdbd41	  x4=0xdbd41000
       10895000	      1088	80004034	9a880693	addi	x13,x16,-1624	 x16:0x00000013 x13=0xfffff9bb
       10905000	      1089	80004038	009feb33	or	x22,x31,x9	 x31:0x0000006e  x9:0x00000000 x22=0x0000006e
       10915000	      1090	8000403c	129cac13	slti	x24,x25,297	 x25:0x00000048 x24=0x00000001
       10925000	      1091	80004040	e77b4417	auipc	x8,0xe77b4	  x8=0x677b803c
       10935000	      1092	80004044	0183beb3	sltu	x29,x7,x24	  x7:0x80009fd4 x24:0x00000001 x29=0x00000000
       10945000	      1093	80004048	009554b3	srl	x9,x10,x9	 x10:0x80009f38  x9:0x00000000  x9=0x80009f38
       10955000	      1094	8000404c	d56b8893	addi	x17,x23,-682	 x23:0x0000000d x17=0xfffffd63
       10965000	      1095	80004050	0377c263	blt	x15,x23,80004074	 x15:0x00000400 x23:0x0000000d
       10975000	      1096	80004054	6e64e293	ori	x5,x9,1766	  x9:0x80009f38  x5=0x80009ffe
       10985000	      1097	80004058	003b59b3	srl	x19,x22,x3	 x22:0x0000006e  x3:0x00000000 x19=0x0000006e
       10995000	      1098	8000405c	01438c33	add	x24,x7,x20	  x7:0x80009fd4 x20:0x0003d9c0 x24=0x80047994
       11005000	      1099	80004060	00915733	srl	x14,x2,x9	  x2:0x00000001  x9:0x80009f38 x14=0x00000000
       11015000	      1100	80004064	008f5b13	srli	x22,x30,0x8	 x30:0x00000000 x22=0x00000000
       11025000	      1101	80004068	250fff93	andi	x31,x31,592	 x31:0x0000006e x31=0x00000040
       11035000	      1102	8000406c	01cffc63	bgeu	x31,x28,80004084	 x31:0x00000040 x28:0xffffffff
       11045000	      1103	80004070	7404a213	slti	x4,x9,1856	  x9:0x80009f38  x4=0x00000001
       11055000	      1104	80004074	41ecdeb3	sra	x29,x25,x30	 x25:0x00000048 x30:0x00000000 x29=0x00000048
       11065000	      1105	80004078	022cf463	bgeu	x25,x2,800040a0	 x25:0x00000048  x2:0x00000001
       11075000	      1106	00000000	00000013	addi	x0,x0,0	  x0:0x00000000
       11085000	      1107	8000409c	00000013	addi	x0,x0,0	  x0:0x00000000
       11095000	      1108	800040a0	00f35663	bge	x6,x15,800040ac	  x6:0x00000038 x15:0x00000400
       11105000	      1109	800040a4	0187a3b3	slt	x7,x15,x24	 x15:0x00000400 x24:0x80047994  x7=0x00000000
       11115000	      1110	800040a8	00e1fdb3	and	x27,x3,x14	  x3:0x00000000 x14:0x00000000 x27=0x00000000
       11125000	      1111	800040ac	01449e63	bne	x9,x20,800040c8	  x9:0x80009f38 x20:0x0003d9c0
       11135000	      1112	00000000	00000013	addi	x0,x0,0	  x0:0x00000000
       11145000	      1113	800040c4	00000013	addi	x0,x0,0	  x0:0x00000000
       11155000	      1114	800040c8	41c15193	srai	x3,x2,0x1c	  x2:0x00000001  x3=0x00000000
       11165000	      1115	800040cc	012129b3	slt	x19,x2,x18	  x2:0x00000001 x18:0x90000000 x19=0x00000000
       11175000	      1116	800040d0	013dee63	bltu	x27,x19,800040ec	 x27:0x00000000 x19:0x00000000
       11185000	      1117	800040d4	013d8ab3	add	x21,x27,x19	 x27:0x00000000 x19:0x00000000 x21=0x00000000
       11195000	      1118	800040d8	018b6a63	bltu	x22,x24,800040ec	 x22:0x00000000 x24:0x80047994
       11205000	      1119	00000000	00000013	addi	x0,x0,0	  x0:0x00000000
       11215000	      1120	800040e8	00000013	addi	x0,x0,0	  x0:0x00000000
       11225000	      1121	800040ec	01c07eb3	and	x29,x0,x28	  x0:0x00000000 x28:0xffffffff x29=0x00000000
       11235000	      1122	800040f0	01a61793	slli	x15,x12,0x1a	 x12:0xcc000048 x15=0x20000000
       11245000	      1123	800040f4	00000013	addi	x0,x0,0	  x0:0x00000000
       11255000	      1124	800040f8	01894c63	blt	x18,x24,80004110	 x18:0x90000000 x24:0x80047994
       11265000	      1125	800040fc	01744db3	xor	x27,x8,x23	  x8:0x677b803c x23:0x0000000d x27=0x677b8031
       11275000	      1126	80004100	00988eb3	add	x29,x17,x9	 x17:0xfffffd63  x9:0x80009f38 x29=0x80009c9b
       11285000	      1127	80004104	00fe46b3	xor	x13,x28,x15	 x28:0xffffffff x15:0x20000000 x13=0xdfffffff
       11295000	      1128	80004108	403d00b3	sub	x1,x26,x3	 x26:0x00000001  x3:0x00000000  x1=0x00000001
       11305000	      1129	8000410c	78d8f913	andi	x18,x17,1933	 x17:0xfffffd63 x18=0x00000501
       11315000	      1130	80004110	01349093	slli	x1,x9,0x13	  x9:0x80009f38  x1=0xf9c00000
       11325000	      1131	80004114	00e44663	blt	x8,x14,80004120	  x8:0x677b803c x14:0x00000000
       11335000	      1132	80004118	4106de13	srai	x28,x13,0x10	 x13:0xdfffffff x28=0xffffdfff
       11345000	      1133	8000411c	00000013	addi	x0,x0,0	  x0:0x00000000
       11355000	      1134	80004120	004d1793	slli	x15,x26,0x4	 x26:0x00000001 x15=0x00000010
       11365000	      1135	80004124	01c3e2b3	or	x5,x7,x28	  x7:0x00000000 x28:0xffffdfff  x5=0xffffdfff
       11375000	      1136	80004128	4130db13	srai	x22,x1,0x13	  x1:0xf9c00000 x22=0xffffff38
       11385000	      1137	8000412c	40805ab3	sra	x21,x0,x8	  x0:0x00000000  x8:0x677b803c x21=0x00000000
       11395000	      1138	80004130	05ab4663	blt	x22,x26,8000417c	 x22:0xffffff38 x26:0x00000001
       11405000	      1139	00000000	00000013	addi	x0,x0,0	  x0:0x00000000
       11415000	      1140	80004178	00000013	addi	x0,x0,0	  x0:0x00000000
       11425000	      1141	8000417c	0210cc63	blt	x1,x1,800041b4	  x1:0xf9c00000  x1:0xf9c00000
       11435000	      1142	80004180	001f9f13	slli	x30,x31,0x1	 x31:0x00000040 x30=0x00000080
       11445000	      1143	80004184	015f5f93	srli	x31,x30,0x15	 x30:0x00000080 x31=0x00000000
       11455000	      1144	80004188	022fc863	blt	x31,x2,800041b8	 x31:0x00000000  x2:0x00000001
       11465000	      1145	00000000	00000013	addi	x0,x0,0	  x0:0x00000000
       11475000	      1146	800041b4	00000013	addi	x0,x0,0	  x0:0x00000000
       11485000	      1147	800041b8	00ae8eb3	add	x29,x29,x10	 x29:0x80009c9b x10:0x80009f38 x29=0x00013bd3
       11495000	      1148	800041bc	0042ddb3	srl	x27,x5,x4	  x5:0xffffdfff  x4:0x00000001 x27=0x7fffefff
       11505000	      1149	800041c0	017ac1b3	xor	x3,x21,x23	 x21:0x00000000 x23:0x0000000d  x3=0x0000000d
       11515000	      1150	800041c4	4fceb113	sltiu	x2,x29,1276	 x29:0x00013bd3  x2=0x00000000
       11525000	      1151	800041c8	04044463	blt	x8,x0,80004210	  x8:0x677b803c  x0:0x00000000
       11535000	      1152	800041cc	026d8063	beq	x27,x6,800041ec	 x27:0x7fffefff  x6:0x00000038
       11545000	      1153	800041d0	01f382b3	add	x5,x7,x31	  x7:0x00000000 x31:0x00000000  x5=0x00000000
       11555000	      1154	800041d4	01ecd3b3	srl	x7,x25,x30	 x25:0x00000048 x30:0x00000080  x7=0x00000048
       11565000	      1155	800041d8	9a4dff97	auipc	x31,0x9a4df	 x31=0x1a4e31d4
       11575000	      1156	800041dc	03bf4263	blt	x30,x27,80004200	 x30:0x00000080 x27:0x7fffefff
       11585000	      1157	00000000	00000013	addi	x0,x0,0	  x0:0x00000000
       11595000	      1158	800041fc	00000013	addi	x0,x0,0	  x0:0x00000000
       11605000	      1159	80004200	784dfa93	andi	x21,x27,1924	 x27:0x7fffefff x21=0x00000784
       11615000	      1160	80004204	00000013	addi	x0,x0,0	  x0:0x00000000
       11625000	      1161	80004208	014ae433	or	x8,x21,x20	 x21:0x00000784 x20:0x0003d9c0  x8=0x0003dfc4
       11635000	      1162	8000420c	039a6263	bltu	x20,x25,80004230	 x20:0x0003d9c0 x25:0x00000048
       11645000	      1163	80004210	002c8a63	beq	x25,x2,80004224	 x25:0x00000048  x2:0x00000000
       11655000	      1164	80004214	3d4bea13	ori	x20,x23,980	 x23:0x0000000d x20=0x000003dd
       11665000	      1165	80004218	01859393	slli	x7,x11,0x18	 x11:0x80009fc4  x7=0xc4000000
       11675000	      1166	8000421c	0056f033	and	x0,x13,x5	 x13:0xdfffffff  x5:0x00000000
       11685000	      1167	80004220	00f88663	beq	x17,x15,8000422c	 x17:0xfffffd63 x15:0x00000010
       11695000	      1168	80004224	41855133	sra	x2,x10,x24	 x10:0x80009f38 x24:0x80047994  x2=0xfffff800
       11705000	      1169	80004228	0596d663	bge	x13,x25,80004274	 x13:0xdfffffff x25:0x00000048
       11715000	      1170	8000422c	52ad7a17	auipc	x20,0x52ad7	 x20=0xd2adb228
       11725000	      1171	80004230	0572d663	bge	x5,x23,8000427c	  x5:0x00000000 x23:0x0000000d
       11735000	      1172	80004234	0031d263	bge	x3,x3,80004238	  x3:0x0000000d  x3:0x0000000d
       11745000	      1173	00000000	00000013	addi	x0,x0,0	  x0:0x00000000
       11755000	      1174	80004234	00000013	addi	x0,x0,0	  x0:0x00000000
       11765000	      1175	80004238	d834a413	slti	x8,x9,-637	  x9:0x80009f38  x8=0x00000001
       11775000	      1176	8000423c	d429bb17	auipc	x22,0xd429b	 x22=0x5429f238
       11785000	      1177	80004240	01dc0fb3	add	x31,x24,x29	 x24:0x80047994 x29:0x00013bd3 x31=0x8005b567
       11795000	      1178	80004244	013d1293	slli	x5,x26,0x13	 x26:0x00000001  x5=0x00080000
       11805000	      1179	80004248	012586b3	add	x13,x11,x18	 x11:0x80009fc4 x18:0x00000501 x13=0x8000a4c5
       11815000	      1180	8000424c	49496993	ori	x19,x18,1172	 x18:0x00000501 x19=0x00000595
       11825000	      1181	80004250	5c450913	addi	x18,x10,1476	 x10:0x80009f38 x18=0x8000a4fc
       11835000	      1182	80004254	00a65c13	srli	x24,x12,0xa	 x12:0xcc000048 x24=0x00330000
       11845000	      1183	80004258	0070d993	srli	x19,x1,0x7	  x1:0xf9c00000 x19=0x01f38000
       11855000	      1184	8000425c	013af263	bgeu	x21,x19,80004260	 x21:0x00000784 x19:0x01f38000
       11865000	      1185	80004260	00cc3fb3	sltu	x31,x24,x12	 x24:0x00330000 x12:0xcc000048 x31=0x00000001
       11875000	      1186	80004264	463fa093	slti	x1,x31,1123	 x31:0x00000001  x1=0x00000001
       11885000	      1187	80004268	01b61a63	bne	x12,x27,8000427c	 x12:0xcc000048 x27:0x7fffefff
       11895000	      1188	00000000	00000013	addi	x0,x0,0	  x0:0x00000000
       11905000	      1189	80004278	00000013	addi	x0,x0,0	  x0:0x00000000
       11915000	      1190	8000427c	00a19f13	slli	x30,x3,0xa	  x3:0x0000000d x30=0x00003400
       11925000	      1191	80004280	01d201b3	add	x3,x4,x29	  x4:0x00000001 x29:0x00013bd3  x3=0x00013bd4
       11935000	      1192	80004284	0357d463	bge	x15,x21,800042ac	 x15:0x00000010 x21:0x00000784
       11945000	      1193	80004288	41fa5613	srai	x12,x20,0x1f	 x20:0xd2adb228 x12=0xffffffff
       11955000	      1194	8000428c	01ee48b3	xor	x17,x28,x30	 x28:0xffffdfff x30:0x00003400 x17=0xffffebff
       11965000	      1195	80004290	00b36ab3	or	x21,x6,x11	  x6:0x00000038 x11:0x80009fc4 x21=0x80009ffc
       11975000	      1196	80004294	010881b3	add	x3,x17,x16	 x17:0xffffebff x16:0x00000013  x3=0xffffec12
       11985000	      1197	80004298	0d168a13	addi	x20,x13,209	 x13:0x8000a4c5 x20=0x8000a596
       11995000	      1198	8000429c	5be9c293	xori	x5,x19,1470	 x19:0x01f38000  x5=0x01f385be
       12005000	      1199	800042a0	00058fb3	add	x31,x11,x0	 x11:0x80009fc4  x0:0x00000000 x31=0x80009fc4
       12015000	      1200	800042a4	ac4a0a13	addi	x20,x20,-1340	 x20:0x8000a596 x20=0x8000a05a
       12025000	      1201	800042a8	466b6113	ori	x2,x22,1126	 x22:0x5429f238  x2=0x5429f67e
       12035000	      1202	800042ac	41645693	srai	x13,x8,0x16	  x8:0x00000001 x13=0x00000000
       12045000	      1203	800042b0	00000013	addi	x0,x0,0	  x0:0x00000000
       12055000	      1204	800042b4	40cd8db3	sub	x27,x27,x12	 x27:0x7fffefff x12:0xffffffff x27=0x7ffff000
       12065000	      1205	800042b8	01d75f93	srli	x31,x14,0x1d	 x14:0x00000000 x31=0x00000000
       12075000	      1206	800042bc	00c977b3	and	x15,x18,x12	 x18:0x8000a4fc x12:0xffffffff x15=0x8000a4fc
       12085000	      1207	800042c0	02105d37	lui	x26,0x2105	 x26=0x02105000
       12095000	      1208	800042c4	19b623b7	lui	x7,0x19b62	  x7=0x19b62000
       12105000	      1209	800042c8	00938a33	add	x20,x7,x9	  x7:0x19b62000  x9:0x80009f38 x20=0x99b6bf38
       12115000	      1210	800042cc	017ffa63	bgeu	x31,x23,800042e0	 x31:0x00000000 x23:0x0000000d
       12125000	      1211	800042d0	042b9463	bne	x23,x2,80004318	 x23:0x0000000d  x2:0x5429f67e
       12135000	      1212	00000000	00000013	addi	x0,x0,0	  x0:0x00000000
       12145000	      1213	80004314	00000013	addi	x0,x0,0	  x0:0x00000000
       12155000	      1214	80004318	008ea133	slt	x2,x29,x8	 x29:0x00013bd3  x8:0x00000001  x2=0x00000000
       12165000	      1215	8000431c	001f8b33	add	x22,x31,x1	 x31:0x00000000  x1:0x00000001 x22=0x00000001
       12175000	      1216	80004320	f65c8b13	addi	x22,x25,-155	 x25:0x00000048 x22=0xffffffad
       12185000	      1217	80004324	a9fd6193	ori	x3,x26,-1377	 x26:0x02105000  x3=0xfffffa9f
       12195000	      1218	80004328	003f96b3	sll	x13,x31,x3	 x31:0x00000000  x3:0xfffffa9f x13=0x00000000
       12205000	      1219	8000432c	00072933	slt	x18,x14,x0	 x14:0x00000000  x0:0x00000000 x18=0x00000000
       12215000	      1220	80004330	41785013	srai	x0,x16,0x17	 x16:0x00000013
       12225000	      1221	80004334	00b026b3	slt	x13,x0,x11	  x0:0x00000000 x11:0x80009fc4 x13=0x00000000
       12235000	      1222	80004338	03d39e63	bne	x7,x29,80004374	  x7:0x19b62000 x29:0x00013bd3
       12245000	      1223	00000000	00000013	addi	x0,x0,0	  x0:0x00000000
       12255000	      1224	80004370	00000013	addi	x0,x0,0	  x0:0x00000000
       12265000	      1225	80004374	3f168417	auipc	x8,0x3f168	  x8=0xbf16c370
       12275000	      1226	80004378	41b4d013	srai	x0,x9,0x1b	  x9:0x80009f38
       12285000	      1227	8000437c	41d68d33	sub	x26,x13,x29	 x13:0x00000000 x29:0x00013bd3 x26=0xfffec42d
       12295000	      1228	80004380	e11ec797	auipc	x15,0xe11ec	 x15=0x611f037c
       12305000	      1229	80004384	f5999d37	lui	x26,0xf5999	 x26=0xf5999000
       12315000	      1230	80004388	97a43c37	lui	x24,0x97a43	 x24=0x97a43000
       12325000	      1231	8000438c	009c8f33	add	x30,x25,x9	 x25:0x00000048  x9:0x80009f38 x30=0x80009f80
       12335000	      1232	80004390	82fc1d97	auipc	x27,0x82fc1	 x27=0x02fc538c
       12345000	      1233	80004394	401dd6b3	sra	x13,x27,x1	 x27:0x02fc538c  x1:0x00000001 x13=0x017e29c6
       12355000	      1234	80004398	4174d713	srai	x14,x9,0x17	  x9:0x80009f38 x14=0xffffff00
       12365000	      1235	8000439c	52940413	addi	x8,x8,1321	  x8:0xbf16c370  x8=0xbf16c899
       12375000	      1236	800043a0	012883b3	add	x7,x17,x18	 x17:0xffffebff x18:0x00000000  x7=0xffffebff
       12385000	      1237	800043a4	00a109b3	add	x19,x2,x10	  x2:0x00000000 x10:0x80009f38 x19=0x80009f38
       12395000	      1238	800043a8	0127b2b3	sltu	x5,x15,x18	 x15:0x611f037c x18:0x00000000  x5=0x00000000
       12405000	      1239	800043ac	01dcf4b3	and	x9,x25,x29	 x25:0x00000048 x29:0x00013bd3  x9=0x00000040
       12415000	      1240	800043b0	05a34463	blt	x6,x26,800043f8	  x6:0x00000038 x26:0xf5999000
       12425000	      1241	800043b4	c6102c93	slti	x25,x0,-927	  x0:0x00000000 x25=0x00000000
       12435000	      1242	800043b8	94904913	xori	x18,x0,-1719	  x0:0x00000000 x18=0xfffff949
       12445000	      1243	800043bc	0504f693	andi	x13,x9,80	  x9:0x00000040 x13=0x00000040
       12455000	      1244	800043c0	00000013	addi	x0,x0,0	  x0:0x00000000
       12465000	      1245	800043c4	0006d213	srli	x4,x13,0x0	 x13:0x00000040  x4=0x00000040
       12475000	      1246	800043c8	00bf5693	srli	x13,x30,0xb	 x30:0x80009f80 x13=0x00100013
       12485000	      1247	800043cc	41fa8a33	sub	x20,x21,x31	 x21:0x80009ffc x31:0x00000000 x20=0x80009ffc
       12495000	      1248	800043d0	ca5f4493	xori	x9,x30,-859	 x30:0x80009f80  x9=0x7fff6325
       12505000	      1249	800043d4	00000013	addi	x0,x0,0	  x0:0x00000000
       12515000	      1250	800043d8	3c900213	addi	x4,x0,969	  x0:0x00000000  x4=0x000003c9
       12525000	      1251	800043dc	01061433	sll	x8,x12,x16	 x12:0xffffffff x16:0x00000013  x8=0xfff80000
       12535000	      1252	800043e0	01ccc633	xor	x12,x25,x28	 x25:0x00000000 x28:0xffffdfff x12=0xffffdfff
       12545000	      1253	800043e4	01e394b3	sll	x9,x7,x30	  x7:0xffffebff x30:0x80009f80  x9=0xffffebff
       12555000	      1254	800043e8	40b0ac17	auipc	x24,0x40b0a	 x24=0xc0b0e3e4
       12565000	      1255	800043ec	3bfa4613	xori	x12,x20,959	 x20:0x80009ffc x12=0x80009c43
       12575000	      1256	800043f0	0faafd37	lui	x26,0xfaaf	 x26=0x0faaf000
       12585000	      1257	800043f4	01165b33	srl	x22,x12,x17	 x12:0x80009c43 x17:0xffffebff x22=0x00000001
       12595000	      1258	800043f8	00c65d13	srli	x26,x12,0xc	 x12:0x80009c43 x26=0x00080009
       12605000	      1259	800043fc	975a6113	ori	x2,x20,-1675	 x20:0x80009ffc  x2=0xfffffffd
       12615000	      1260	80004400	006c4eb3	xor	x29,x24,x6	 x24:0xc0b0e3e4  x6:0x00000038 x29=0xc0b0e3dc
       12625000	      1261	80004404	03e4c263	blt	x9,x30,80004428	  x9:0xffffebff x30:0x80009f80
       12635000	      1262	80004408	70878c93	addi	x25,x15,1800	 x15:0x611f037c x25=0x611f0a84
       12645000	      1263	8000440c	009c2733	slt	x14,x24,x9	 x24:0xc0b0e3e4  x9:0xffffebff x14=0x00000001
       12655000	      1264	80004410	00829c13	slli	x24,x5,0x8	  x5:0x00000000 x24=0x00000000
       12665000	      1265	80004414	41ebd633	sra	x12,x23,x30	 x23:0x0000000d x30:0x80009f80 x12=0x0000000d
       12675000	      1266	80004418	009dd193	srli	x3,x27,0x9	 x27:0x02fc538c  x3=0x00017e29
       12685000	      1267	8000441c	40aad013	srai	x0,x21,0xa	 x21:0x80009ffc
       12695000	      1268	80004420	c3363a37	lui	x20,0xc3363	 x20=0xc3363000
       12705000	      1269	80004424	013e9213	slli	x4,x29,0x13	 x29:0xc0b0e3dc  x4=0x1ee00000
       12715000	      1270	80004428	6008b993	sltiu	x19,x17,1536	 x17:0xffffebff x19=0x00000000
       12725000	      1271	8000442c	01486663	bltu	x16,x20,80004438	 x16:0x00000013 x20:0xc3363000
       12735000	      1272	00000000	00000013	addi	x0,x0,0	  x0:0x00000000
       12745000	      1273	80004434	00000013	addi	x0,x0,0	  x0:0x00000000
       12755000	      1274	80004438	00efa4b3	slt	x9,x31,x14	 x31:0x00000000 x14:0x00000001  x9=0x00000001
       12765000	      1275	8000443c	03955c63	bge	x10,x25,80004474	 x10:0x80009f38 x25:0x611f0a84
       12775000	      1276	80004440	0094e3b3	or	x7,x9,x9	  x9:0x00000001  x9:0x00000001  x7=0x00000001
       12785000	      1277	80004444	01a89233	sll	x4,x17,x26	 x17:0xffffebff x26:0x00080009  x4=0xffd7fe00
       12795000	      1278	80004448	30ea8693	addi	x13,x21,782	 x21:0x80009ffc x13=0x8000a30a
       12805000	      1279	8000444c	9219c113	xori	x2,x19,-1759	 x19:0x00000000  x2=0xfffff921
       12815000	      1280	80004450	017103b3	add	x7,x2,x23	  x2:0xfffff921 x23:0x0000000d  x7=0xfffff92e
       12825000	      1281	80004454	0010d433	srl	x8,x1,x1	  x1:0x00000001  x1:0x00000001  x8=0x00000000
       12835000	      1282	80004458	41f98433	sub	x8,x19,x31	 x19:0x00000000 x31:0x00000000  x8=0x00000000
       12845000	      1283	8000445c	44a32c93	slti	x25,x6,1098	  x6:0x00000038 x25=0x00000001
       12855000	      1284	80004460	00bd34b3	sltu	x9,x26,x11	 x26:0x00080009 x11:0x80009fc4  x9=0x00000001
       12865000	      1285	80004464	00cac833	xor	x16,x21,x12	 x21:0x80009ffc x12:0x0000000d x16=0x80009ff1
       12875000	      1286	80004468	40dc54b3	sra	x9,x24,x13	 x24:0x00000000 x13:0x8000a30a  x9=0x00000000
       12885000	      1287	8000446c	caa2a293	slti	x5,x5,-854	  x5:0x00000000  x5=0x00000000
       12895000	      1288	80004470	1b4124b7	lui	x9,0x1b412	  x9=0x1b412000
       12905000	      1289	80004474	006297b3	sll	x15,x5,x6	  x5:0x00000000  x6:0x00000038 x15=0x00000000
       12915000	      1290	80004478	01d431b3	sltu	x3,x8,x29	  x8:0x00000000 x29:0xc0b0e3dc  x3=0x00000001
       12925000	      1291	8000447c	56a4f097	auipc	x1,0x56a4f	  x1=0xd6a53478
       12935000	      1292	80004480	01c14733	xor	x14,x2,x28	  x2:0xfffff921 x28:0xffffdfff x14=0x000026de
       12945000	      1293	80004484	00b61613	slli	x12,x12,0xb	 x12:0x0000000d x12=0x00006800
       12955000	      1294	80004488	40558f33	sub	x30,x11,x5	 x11:0x80009fc4  x5:0x00000000 x30=0x80009fc4
       12965000	      1295	8000448c	00000013	addi	x0,x0,0	  x0:0x00000000
       12975000	      1296	80004490	00d04cb3	xor	x25,x0,x13	  x0:0x00000000 x13:0x8000a30a x25=0x8000a30a
       12985000	      1297	80004494	00000013	addi	x0,x0,0	  x0:0x00000000
       12995000	      1298	80004498	21369d37	lui	x26,0x21369	 x26=0x21369000
       13005000	      1299	8000449c	387d0393	addi	x7,x26,903	 x26:0x21369000  x7=0x21369387
       13015000	      1300	800044a0	01061663	bne	x12,x16,800044ac	 x12:0x00006800 x16:0x80009ff1
       13025000	      1301	00000000	00000013	addi	x0,x0,0	  x0:0x00000000
       13035000	      1302	800044a8	00000013	addi	x0,x0,0	  x0:0x00000000
       13045000	      1303	800044ac	01b06833	or	x16,x0,x27	  x0:0x00000000 x27:0x02fc538c x16=0x02fc538c
       13055000	      1304	800044b0	35dcec93	ori	x25,x25,861	 x25:0x8000a30a x25=0x8000a35f
       13065000	      1305	800044b4	00c8beb3	sltu	x29,x17,x12	 x17:0xffffebff x12:0x00006800 x29=0x00000000
       13075000	      1306	800044b8	a17eb913	sltiu	x18,x29,-1513	 x29:0x00000000 x18=0x00000001
       13085000	      1307	800044bc	419b0cb3	sub	x25,x22,x25	 x22:0x00000001 x25:0x8000a35f x25=0x7fff5ca2
       13095000	      1308	800044c0	00320b33	add	x22,x4,x3	  x4:0xffd7fe00  x3:0x00000001 x22=0xffd7fe01
       13105000	      1309	800044c4	d5087813	andi	x16,x16,-688	 x16:0x02fc538c x16=0x02fc5100
       13115000	      1310	800044c8	4050df93	srai	x31,x1,0x5	  x1:0xd6a53478 x31=0xfeb529a3
       13125000	      1311	800044cc	0093cf33	xor	x30,x7,x9	  x7:0x21369387  x9:0x1b412000 x30=0x3a77b387
       13135000	      1312	800044d0	05a21463	bne	x4,x26,80004518	  x4:0xffd7fe00 x26:0x21369000
       13145000	      1313	00000000	00000013	addi	x0,x0,0	  x0:0x00000000
       13155000	      1314	80004514	00000013	addi	x0,x0,0	  x0:0x00000000
       13165000	      1315	80004518	01a08263	beq	x1,x26,8000451c	  x1:0xd6a53478 x26:0x21369000
       13175000	      1316	8000451c	03817063	bgeu	x2,x24,8000453c	  x2:0xfffff921 x24:0x00000000
       13185000	      1317	00000000	00000013	addi	x0,x0,0	  x0:0x00000000
       13195000	      1318	80004538	00000013	addi	x0,x0,0	  x0:0x00000000
       13205000	      1319	8000453c	04d1ce13	xori	x28,x3,77	  x3:0x00000001 x28=0x0000004c
       13215000	      1320	80004540	eb21c9b7	lui	x19,0xeb21c	 x19=0xeb21c000
       13225000	      1321	80004544	00e544b3	xor	x9,x10,x14	 x10:0x80009f38 x14:0x000026de  x9=0x8000b9e6
       13235000	      1322	80004548	33267993	andi	x19,x12,818	 x12:0x00006800 x19=0x00000000
       13245000	      1323	8000454c	0277fe63	bgeu	x15,x7,80004588	 x15:0x00000000  x7:0x21369387
       13255000	      1324	80004550	033b8e63	beq	x23,x19,8000458c	 x23:0x0000000d x19:0x00000000
       13265000	      1325	80004554	400c5ab3	sra	x21,x24,x0	 x24:0x00000000  x0:0x00000000 x21=0x00000000
       13275000	      1326	80004558	00f64f33	xor	x30,x12,x15	 x12:0x00006800 x15:0x00000000 x30=0x00006800
       13285000	      1327	8000455c	00325263	bge	x4,x3,80004560	  x4:0xffd7fe00  x3:0x00000001
       13295000	      1328	80004560	01385eb3	srl	x29,x16,x19	 x16:0x02fc5100 x19:0x00000000 x29=0x02fc5100
       13305000	      1329	80004564	55a62a13	slti	x20,x12,1370	 x12:0x00006800 x20=0x00000000
       13315000	      1330	80004568	00518fb3	add	x31,x3,x5	  x3:0x00000001  x5:0x00000000 x31=0x00000001
       13325000	      1331	8000456c	03a0d263	bge	x1,x26,80004590	  x1:0xd6a53478 x26:0x21369000
       13335000	      1332	80004570	60d8a913	slti	x18,x17,1549	 x17:0xffffebff x18=0x00000001
       13345000	      1333	80004574	074a8863	beq	x21,x20,800045e4	 x21:0x00000000 x20:0x00000000
       13355000	      1334	00000000	00000013	addi	x0,x0,0	  x0:0x00000000
       13365000	      1335	800045e0	00000013	addi	x0,x0,0	  x0:0x00000000
       13375000	      1336	800045e4	00000013	addi	x0,x0,0	  x0:0x00000000
       13385000	      1337	800045e8	41e05eb3	sra	x29,x0,x30	  x0:0x00000000 x30:0x00006800 x29=0x00000000
       13395000	      1338	800045ec	d64a7713	andi	x14,x20,-668	 x20:0x00000000 x14=0x00000000
       13405000	      1339	800045f0	f159e893	ori	x17,x19,-235	 x19:0x00000000 x17=0xffffff15
       13415000	      1340	800045f4	31ccc913	xori	x18,x25,796	 x25:0x7fff5ca2 x18=0x7fff5fbe
       13425000	      1341	800045f8	31b66037	lui	x0,0x31b66	
       13435000	      1342	800045fc	030d5263	bge	x26,x16,80004620	 x26:0x21369000 x16:0x02fc5100
       13445000	      1343	00000000	00000013	addi	x0,x0,0	  x0:0x00000000
       13455000	      1344	8000461c	00000013	addi	x0,x0,0	  x0:0x00000000
       13465000	      1345	80004620	dc3d3413	sltiu	x8,x26,-573	 x26:0x21369000  x8=0x00000001
       13475000	      1346	80004624	bcdc0613	addi	x12,x24,-1075	 x24:0x00000000 x12=0xfffffbcd
       13485000	      1347	80004628	01dd0733	add	x14,x26,x29	 x26:0x21369000 x29:0x00000000 x14=0x21369000
       13495000	      1348	8000462c	00e66863	bltu	x12,x14,8000463c	 x12:0xfffffbcd x14:0x21369000
       13505000	      1349	80004630	4168da13	srai	x20,x17,0x16	 x17:0xffffff15 x20=0xffffffff
       13515000	      1350	80004634	02214c63	blt	x2,x2,8000466c	  x2:0xfffff921  x2:0xfffff921
       13525000	      1351	80004638	00000013	addi	x0,x0,0	  x0:0x00000000
       13535000	      1352	8000463c	02d84463	blt	x16,x13,80004664	 x16:0x02fc5100 x13:0x8000a30a
       13545000	      1353	80004640	014449b3	xor	x19,x8,x20	  x8:0x00000001 x20:0xffffffff x19=0xfffffffe
       13555000	      1354	80004644	00000013	addi	x0,x0,0	  x0:0x00000000
       13565000	      1355	80004648	01486233	or	x4,x16,x20	 x16:0x02fc5100 x20:0xffffffff  x4=0xffffffff
       13575000	      1356	8000464c	63922993	slti	x19,x4,1593	  x4:0xffffffff x19=0x00000001
       13585000	      1357	80004650	d563b793	sltiu	x15,x7,-682	  x7:0x21369387 x15=0x00000001
       13595000	      1358	80004654	001fd493	srli	x9,x31,0x1	 x31:0x00000001  x9=0x00000000
       13605000	      1359	80004658	00725413	srli	x8,x4,0x7	  x4:0xffffffff  x8=0x01ffffff
       13615000	      1360	8000465c	b6163013	sltiu	x0,x12,-1183	 x12:0xfffffbcd
       13625000	      1361	80004660	0111ecb3	or	x25,x3,x17	  x3:0x00000001 x17:0xffffff15 x25=0xffffff15
       13635000	      1362	80004664	a399e993	ori	x19,x19,-1479	 x19:0x00000001 x19=0xfffffa39
       13645000	      1363	80004668	01fdc7b3	xor	x15,x27,x31	 x27:0x02fc538c x31:0x00000001 x15=0x02fc538d
       13655000	      1364	8000466c	0054e0b3	or	x1,x9,x5	  x9:0x00000000  x5:0x00000000  x1=0x00000000
       13665000	      1365	80004670	cfc1da37	lui	x20,0xcfc1d	 x20=0xcfc1d000
       13675000	      1366	80004674	00003933	sltu	x18,x0,x0	  x0:0x00000000  x0:0x00000000 x18=0x00000000
       13685000	      1367	80004678	00075e13	srli	x28,x14,0x0	 x14:0x21369000 x28=0x21369000
       13695000	      1368	8000467c	84bcc293	xori	x5,x25,-1973	 x25:0xffffff15  x5=0x0000075e
       13705000	      1369	80004680	01127933	and	x18,x4,x17	  x4:0xffffffff x17:0xffffff15 x18=0xffffff15
       13715000	      1370	80004684	00f010b3	sll	x1,x0,x15	  x0:0x00000000 x15:0x02fc538d  x1=0x00000000
       13725000	      1371	80004688	05380063	beq	x16,x19,800046c8	 x16:0x02fc5100 x19:0xfffffa39
       13735000	      1372	8000468c	01989833	sll	x16,x17,x25	 x17:0xffffff15 x25:0xffffff15 x16=0xe2a00000
       13745000	      1373	80004690	5ae47d37	lui	x26,0x5ae47	 x26=0x5ae47000
       13755000	      1374	80004694	9ed528b7	lui	x17,0x9ed52	 x17=0x9ed52000
       13765000	      1375	80004698	01791c33	sll	x24,x18,x23	 x18:0xffffff15 x23:0x0000000d x24=0xffe2a000
       13775000	      1376	8000469c	000cfc63	bgeu	x25,x0,800046b4	 x25:0xffffff15  x0:0x00000000
       13785000	      1377	00000000	00000013	addi	x0,x0,0	  x0:0x00000000
       13795000	      1378	800046b0	00000013	addi	x0,x0,0	  x0:0x00000000
       13805000	      1379	800046b4	00c4f433	and	x8,x9,x12	  x9:0x00000000 x12:0xfffffbcd  x8=0x00000000
       13815000	      1380	800046b8	512d2013	slti	x0,x26,1298	 x26:0x5ae47000
       13825000	      1381	800046bc	0340e863	bltu	x1,x20,800046ec	  x1:0x00000000 x20:0xcfc1d000
       13835000	      1382	00000000	00000013	addi	x0,x0,0	  x0:0x00000000
       13845000	      1383	800046e8	00000013	addi	x0,x0,0	  x0:0x00000000
       13855000	      1384	800046ec	00000013	addi	x0,x0,0	  x0:0x00000000
       13865000	      1385	800046f0	12906f13	ori	x30,x0,297	  x0:0x00000000 x30=0x00000129
       13875000	      1386	800046f4	db868913	addi	x18,x13,-584	 x13:0x8000a30a x18=0x8000a0c2
       13885000	      1387	800046f8	00dfb717	auipc	x14,0xdfb	 x14=0x80dff6f4
       13895000	      1388	800046fc	dbefd897	auipc	x17,0xdbefd	 x17=0x5bf016f8
       13905000	      1389	80004700	01cfca63	blt	x31,x28,80004714	 x31:0x00000001 x28:0x21369000
       13915000	      1390	00000000	00000013	addi	x0,x0,0	  x0:0x00000000
       13925000	      1391	80004710	00000013	addi	x0,x0,0	  x0:0x00000000
       13935000	      1392	80004714	050e8663	beq	x29,x16,80004760	 x29:0x00000000 x16:0xe2a00000
       13945000	      1393	80004718	00d1e863	bltu	x3,x13,80004728	  x3:0x00000001 x13:0x8000a30a
       13955000	      1394	00000000	00000013	addi	x0,x0,0	  x0:0x00000000
       13965000	      1395	80004724	00000013	addi	x0,x0,0	  x0:0x00000000
       13975000	      1396	80004728	409b5c33	sra	x24,x22,x9	 x22:0xffd7fe01  x9:0x00000000 x24=0xffd7fe01
       13985000	      1397	8000472c	001aa833	slt	x16,x21,x1	 x21:0x00000000  x1:0x00000000 x16=0x00000000
       13995000	      1398	80004730	019e09b3	add	x19,x28,x25	 x28:0x21369000 x25:0xffffff15 x19=0x21368f15
       14005000	      1399	80004734	7e1db093	sltiu	x1,x27,2017	 x27:0x02fc538c  x1=0x00000000
       14015000	      1400	80004738	00b5db13	srli	x22,x11,0xb	 x11:0x80009fc4 x22=0x00100013
       14025000	      1401	8000473c	008e5a63	bge	x28,x8,80004750	 x28:0x21369000  x8:0x00000000
       14035000	      1402	00000000	00000013	addi	x0,x0,0	  x0:0x00000000
       14045000	      1403	8000474c	00000013	addi	x0,x0,0	  x0:0x00000000
       14055000	      1404	80004750	003830b3	sltu	x1,x16,x3	 x16:0x00000000  x3:0x00000001  x1=0x00000001
       14065000	      1405	80004754	40f4dab3	sra	x21,x9,x15	  x9:0x00000000 x15:0x02fc538d x21=0x00000000
       14075000	      1406	80004758	4126de13	srai	x28,x13,0x12	 x13:0x8000a30a x28=0xffffe000
       14085000	      1407	8000475c	40885633	sra	x12,x16,x8	 x16:0x00000000  x8:0x00000000 x12=0x00000000
       14095000	      1408	80004760	41e75f33	sra	x30,x14,x30	 x14:0x80dff6f4 x30:0x00000129 x30=0xffc06ffb
       14105000	      1409	80004764	003973b3	and	x7,x18,x3	 x18:0x8000a0c2  x3:0x00000001  x7=0x00000000
       14115000	      1410	80004768	035d8e63	beq	x27,x21,800047a4	 x27:0x02fc538c x21:0x00000000
       14125000	      1411	8000476c	01389c63	bne	x17,x19,80004784	 x17:0x5bf016f8 x19:0x21368f15
       14135000	      1412	00000000	00000013	addi	x0,x0,0	  x0:0x00000000
       14145000	      1413	80004780	00000013	addi	x0,x0,0	  x0:0x00000000
       14155000	      1414	80004784	01b40263	beq	x8,x27,80004788	  x8:0x00000000 x27:0x02fc538c
       14165000	      1415	80004788	955f2d13	slti	x26,x30,-1707	 x30:0xffc06ffb x26=0x00000001
       14175000	      1416	8000478c	410c0cb3	sub	x25,x24,x16	 x24:0xffd7fe01 x16:0x00000000 x25=0xffd7fe01
       14185000	      1417	80004790	00f48663	beq	x9,x15,8000479c	  x9:0x00000000 x15:0x02fc538d
       14195000	      1418	80004794	00000013	addi	x0,x0,0	  x0:0x00000000
       14205000	      1419	80004798	00b05663	bge	x0,x11,800047a4	  x0:0x00000000 x11:0x80009fc4
       14215000	      1420	00000000	00000013	addi	x0,x0,0	  x0:0x00000000
       14225000	      1421	800047a0	00000013	addi	x0,x0,0	  x0:0x00000000
       14235000	      1422	800047a4	01d3aeb3	slt	x29,x7,x29	  x7:0x00000000 x29:0x00000000 x29=0x00000000
       14245000	      1423	800047a8	f15fcf93	xori	x31,x31,-235	 x31:0x00000001 x31=0xffffff14
       14255000	      1424	800047ac	9135c993	xori	x19,x11,-1773	 x11:0x80009fc4 x19=0x7fff66d7
       14265000	      1425	800047b0	008769b3	or	x19,x14,x8	 x14:0x80dff6f4  x8:0x00000000 x19=0x80dff6f4
       14275000	      1426	800047b4	00000013	addi	x0,x0,0	  x0:0x00000000
       14285000	      1427	800047b8	001f8333	add	x6,x31,x1	 x31:0xffffff14  x1:0x00000001  x6=0xffffff15
       14295000	      1428	800047bc	266d8a93	addi	x21,x27,614	 x27:0x02fc538c x21=0x02fc55f2
       14305000	      1429	800047c0	8c1dc493	xori	x9,x27,-1855	 x27:0x02fc538c  x9=0xfd03ab4d
       14315000	      1430	800047c4	b85b8f13	addi	x30,x23,-1147	 x23:0x0000000d x30=0xfffffb92
       14325000	      1431	800047c8	410c8033	sub	x0,x25,x16	 x25:0xffd7fe01 x16:0x00000000
       14335000	      1432	800047cc	01717663	bgeu	x2,x23,800047d8	  x2:0xfffff921 x23:0x0000000d
       14345000	      1433	00000000	00000013	addi	x0,x0,0	  x0:0x00000000
       14355000	      1434	800047d4	00000013	addi	x0,x0,0	  x0:0x00000000
       14365000	      1435	800047d8	75d32493	slti	x9,x6,1885	  x6:0xffffff15  x9=0x00000001
       14375000	      1436	800047dc	01e26833	or	x16,x4,x30	  x4:0xffffffff x30:0xfffffb92 x16=0xffffffff
       14385000	      1437	800047e0	00587263	bgeu	x16,x5,800047e4	 x16:0xffffffff  x5:0x0000075e
       14395000	      1438	00000000	00000013	addi	x0,x0,0	  x0:0x00000000
       14405000	      1439	800047e0	00000013	addi	x0,x0,0	  x0:0x00000000
       14415000	      1440	800047e4	afb4fb13	andi	x22,x9,-1285	  x9:0x00000001 x22=0x00000001
       14425000	      1441	800047e8	032a4863	blt	x20,x18,80004818	 x20:0xcfc1d000 x18:0x8000a0c2
       14435000	      1442	800047ec	415c0e33	sub	x28,x24,x21	 x24:0xffd7fe01 x21:0x02fc55f2 x28=0xfcdba80f
       14445000	      1443	800047f0	003fa6b3	slt	x13,x31,x3	 x31:0xffffff14  x3:0x00000001 x13=0x00000001
       14455000	      1444	800047f4	0101da63	bge	x3,x16,80004808	  x3:0x00000001 x16:0xffffffff
       14465000	      1445	00000000	00000013	addi	x0,x0,0	  x0:0x00000000
       14475000	      1446	80004804	00000013	addi	x0,x0,0	  x0:0x00000000
       14485000	      1447	80004808	04200663	beq	x0,x2,80004854	  x0:0x00000000  x2:0xfffff921
       14495000	      1448	8000480c	2210b413	sltiu	x8,x1,545	  x1:0x00000001  x8=0x00000001
       14505000	      1449	80004810	0467e463	bltu	x15,x6,80004858	 x15:0x02fc538d  x6:0xffffff15
       14515000	      1450	00000000	00000013	addi	x0,x0,0	  x0:0x00000000
       14525000	      1451	80004854	00000013	addi	x0,x0,0	  x0:0x00000000
       14535000	      1452	80004858	f1303213	sltiu	x4,x0,-237	  x0:0x00000000  x4=0x00000001
       14545000	      1453	8000485c	410189b3	sub	x19,x3,x16	  x3:0x00000001 x16:0xffffffff x19=0x00000002
       14555000	      1454	80004860	56563313	sltiu	x6,x12,1381	 x12:0x00000000  x6=0x00000001
       14565000	      1455	80004864	00dee8b3	or	x17,x29,x13	 x29:0x00000000 x13:0x00000001 x17=0x00000001
       14575000	      1456	80004868	40d60933	sub	x18,x12,x13	 x12:0x00000000 x13:0x00000001 x18=0xffffffff
       14585000	      1457	8000486c	01f74eb3	xor	x29,x14,x31	 x14:0x80dff6f4 x31:0xffffff14 x29=0x7f2009e0
       14595000	      1458	80004870	0369f263	bgeu	x19,x22,80004894	 x19:0x00000002 x22:0x00000001
       14605000	      1459	00000000	00000013	addi	x0,x0,0	  x0:0x00000000
       14615000	      1460	80004890	00000013	addi	x0,x0,0	  x0:0x00000000
       14625000	      1461	80004894	41740133	sub	x2,x8,x23	  x8:0x00000001 x23:0x0000000d  x2=0xfffffff4
       14635000	      1462	80004898	40100433	sub	x8,x0,x1	  x0:0x00000000  x1:0x00000001  x8=0xffffffff
       14645000	      1463	8000489c	5f833817	auipc	x16,0x5f833	 x16=0xdf837898
       14655000	      1464	800048a0	9cbfe737	lui	x14,0x9cbfe	 x14=0x9cbfe000
       14665000	      1465	800048a4	d79662b7	lui	x5,0xd7966	  x5=0xd7966000
       14675000	      1466	800048a8	a9516997	auipc	x19,0xa9516	 x19=0x2951a8a4
       14685000	      1467	800048ac	407cd433	sra	x8,x25,x7	 x25:0xffd7fe01  x7:0x00000000  x8=0xffd7fe01
       14695000	      1468	800048b0	00b0d493	srli	x9,x1,0xb	  x1:0x00000001  x9=0x00000000
       14705000	      1469	800048b4	007b71b3	and	x3,x22,x7	 x22:0x00000001  x7:0x00000000  x3=0x00000000
       14715000	      1470	800048b8	040bc463	blt	x23,x0,80004900	 x23:0x0000000d  x0:0x00000000
       14725000	      1471	800048bc	0078ceb3	xor	x29,x17,x7	 x17:0x00000001  x7:0x00000000 x29=0x00000001
       14735000	      1472	800048c0	41b2df33	sra	x30,x5,x27	  x5:0xd7966000 x27:0x02fc538c x30=0xfffd7966
       14745000	      1473	800048c4	00000013	addi	x0,x0,0	  x0:0x00000000
       14755000	      1474	800048c8	b3202a93	slti	x21,x0,-1230	  x0:0x00000000 x21=0x00000000
       14765000	      1475	800048cc	04005063	bge	x0,x0,8000490c	  x0:0x00000000  x0:0x00000000
       14775000	      1476	00000000	00000013	addi	x0,x0,0	  x0:0x00000000
       14785000	      1477	80004908	00000013	addi	x0,x0,0	  x0:0x00000000
       14795000	      1478	8000490c	b6fe7117	auipc	x2,0xb6fe7	  x2=0x36feb908
       14805000	      1479	80004910	0020ad33	slt	x26,x1,x2	  x1:0x00000001  x2:0x36feb908 x26=0x00000001
       14815000	      1480	80004914	0032a133	slt	x2,x5,x3	  x5:0xd7966000  x3:0x00000000  x2=0x00000001
       14825000	      1481	80004918	98038913	addi	x18,x7,-1664	  x7:0x00000000 x18=0xfffff980
       14835000	      1482	8000491c	01bdfeb3	and	x29,x27,x27	 x27:0x02fc538c x27:0x02fc538c x29=0x02fc538c
       14845000	      1483	80004920	007c1913	slli	x18,x24,0x7	 x24:0xffd7fe01 x18=0xebff0080
       14855000	      1484	80004924	004ce733	or	x14,x25,x4	 x25:0xffd7fe01  x4:0x00000001 x14=0xffd7fe01
       14865000	      1485	80004928	03984c63	blt	x16,x25,80004960	 x16:0xdf837898 x25:0xffd7fe01
       14875000	      1486	00000000	00000013	addi	x0,x0,0	  x0:0x00000000
       14885000	      1487	8000495c	00000013	addi	x0,x0,0	  x0:0x00000000
       14895000	      1488	80004960	01d5cd33	xor	x26,x11,x29	 x11:0x80009fc4 x29:0x02fc538c x26=0x82fccc48
       14905000	      1489	80004964	03ade263	bltu	x27,x26,80004988	 x27:0x02fc538c x26:0x82fccc48
       14915000	      1490	00000000	00000013	addi	x0,x0,0	  x0:0x00000000
       14925000	      1491	80004984	00000013	addi	x0,x0,0	  x0:0x00000000
       14935000	      1492	80004988	0195aa33	slt	x20,x11,x25	 x11:0x80009fc4 x25:0xffd7fe01 x20=0x00000001
       14945000	      1493	8000498c	05a90663	beq	x18,x26,800049d8	 x18:0xebff0080 x26:0x82fccc48
       14955000	      1494	80004990	016bd933	srl	x18,x23,x22	 x23:0x0000000d x22:0x00000001 x18=0x00000006
       14965000	      1495	80004994	00e8f263	bgeu	x17,x14,80004998	 x17:0x00000001 x14:0xffd7fe01
       14975000	      1496	80004998	fdee6d13	ori	x26,x28,-34	 x28:0xfcdba80f x26=0xffffffdf
       14985000	      1497	8000499c	018d1e33	sll	x28,x26,x24	 x26:0xffffffdf x24:0xffd7fe01 x28=0xffffffbe
       14995000	      1498	800049a0	00891663	bne	x18,x8,800049ac	 x18:0x00000006  x8:0xffd7fe01
       15005000	      1499	00000000	00000013	addi	x0,x0,0	  x0:0x00000000
       15015000	      1500	800049a8	00000013	addi	x0,x0,0	  x0:0x00000000
       15025000	      1501	800049ac	01e27033	and	x0,x4,x30	  x4:0x00000001 x30:0xfffd7966
       15035000	      1502	800049b0	418ed0b3	sra	x1,x29,x24	 x29:0x02fc538c x24:0xffd7fe01  x1=0x017e29c6
       15045000	      1503	800049b4	008592b3	sll	x5,x11,x8	 x11:0x80009fc4  x8:0xffd7fe01  x5=0x00013f88
       15055000	      1504	800049b8	a251bf93	sltiu	x31,x3,-1499	  x3:0x00000000 x31=0x00000001
       15065000	      1505	800049bc	3cb2bd13	sltiu	x26,x5,971	  x5:0x00013f88 x26=0x00000000
       15075000	      1506	800049c0	41305833	sra	x16,x0,x19	  x0:0x00000000 x19:0x2951a8a4 x16=0x00000000
       15085000	      1507	800049c4	01b5df33	srl	x30,x11,x27	 x11:0x80009fc4 x27:0x02fc538c x30=0x00080009
       15095000	      1508	800049c8	3bfcacb7	lui	x25,0x3bfca	 x25=0x3bfca000
       15105000	      1509	800049cc	4098d693	srai	x13,x17,0x9	 x17:0x00000001 x13=0x00000000
       15115000	      1510	800049d0	ba241017	auipc	x0,0xba241	
       15125000	      1511	800049d4	01e6d263	bge	x13,x30,800049d8	 x13:0x00000000 x30:0x00080009
       15135000	      1512	800049d8	a354af93	slti	x31,x9,-1483	  x9:0x00000000 x31=0x00000000
       15145000	      1513	800049dc	023a4863	blt	x20,x3,80004a0c	 x20:0x00000001  x3:0x00000000
       15155000	      1514	800049e0	14b78193	addi	x3,x15,331	 x15:0x02fc538d  x3=0x02fc54d8
       15165000	      1515	800049e4	00429733	sll	x14,x5,x4	  x5:0x00013f88  x4:0x00000001 x14=0x00027f10
       15175000	      1516	800049e8	04cfc6b7	lui	x13,0x4cfc	 x13=0x04cfc000
       15185000	      1517	800049ec	41ac0733	sub	x14,x24,x26	 x24:0xffd7fe01 x26:0x00000000 x14=0xffd7fe01
       15195000	      1518	800049f0	00151493	slli	x9,x10,0x1	 x10:0x80009f38  x9=0x00013e70
       15205000	      1519	800049f4	01123db3	sltu	x27,x4,x17	  x4:0x00000001 x17:0x00000001 x27=0x00000000
       15215000	      1520	800049f8	00835fb3	srl	x31,x6,x8	  x6:0x00000001  x8:0xffd7fe01 x31=0x00000000
       15225000	      1521	800049fc	014c74b3	and	x9,x24,x20	 x24:0xffd7fe01 x20:0x00000001  x9=0x00000001
       15235000	      1522	80004a00	008b5c63	bge	x22,x8,80004a18	 x22:0x00000001  x8:0xffd7fe01
       15245000	      1523	00000000	00000013	addi	x0,x0,0	  x0:0x00000000
       15255000	      1524	80004a14	00000013	addi	x0,x0,0	  x0:0x00000000
       15265000	      1525	80004a18	403c5133	sra	x2,x24,x3	 x24:0xffd7fe01  x3:0x02fc54d8  x2=0xffffffff
       15275000	      1526	80004a1c	41b580b3	sub	x1,x11,x27	 x11:0x80009fc4 x27:0x00000000  x1=0x80009fc4
       15285000	      1527	80004a20	40df5433	sra	x8,x30,x13	 x30:0x00080009 x13:0x04cfc000  x8=0x00080009
       15295000	      1528	80004a24	e5463293	sltiu	x5,x12,-428	 x12:0x00000000  x5=0x00000001
       15305000	      1529	80004a28	90f57093	andi	x1,x10,-1777	 x10:0x80009f38  x1=0x80009908
       15315000	      1530	80004a2c	00003a97	auipc	x21,0x3	 x21=0x80007a28
       15325000	      1531	80004a30	6b6a8a93	addi	x21,x21,1718	 x21:0x80007a28 x21=0x800080de
       15335000	      1532	80004a34	ffdacf83	lbu	x31,-3(x21)	 x21:0x800080de x31=0x00000000 PA:0x800080db
       15345000	      1533	80004a38	008a8e83	lb	x29,8(x21)	 x21:0x800080de x29=0xffffffe4 PA:0x800080e6
       15355000	      1534	80004a3c	ffaa9283	lh	x5,-6(x21)	 x21:0x800080de  x5=0xffffd139 PA:0x800080d8
       15365000	      1535	80004a40	00000013	addi	x0,x0,0	  x0:0x00000000
       15375000	      1536	80004a44	4125d733	sra	x14,x11,x18	 x11:0x80009fc4 x18:0x00000006 x14=0xfe00027f
       15385000	      1537	80004a48	0037d313	srli	x6,x15,0x3	 x15:0x02fc538d  x6=0x005f8a71
       15395000	      1538	80004a4c	00da80a3	sb	x13,1(x21)	 x21:0x800080de x13:0x04cfc000 PA:0x800080df
       15405000	      1539	80004a50	005acf03	lbu	x30,5(x21)	 x21:0x800080de x30=0x00000001 PA:0x800080e3
       15415000	      1540	80004a54	00aa81a3	sb	x10,3(x21)	 x21:0x800080de x10:0x80009f38 PA:0x800080e1
       15425000	      1541	80004a58	ffcadd83	lhu	x27,-4(x21)	 x21:0x800080de x27=0x00000093 PA:0x800080da
       15435000	      1542	80004a5c	000a8983	lb	x19,0(x21)	 x21:0x800080de x19=0xffffffa2 PA:0x800080de
       15445000	      1543	80004a60	005a8783	lb	x15,5(x21)	 x21:0x800080de x15=0x00000001 PA:0x800080e3
       15455000	      1544	80004a64	00d892b3	sll	x5,x17,x13	 x17:0x00000001 x13:0x04cfc000  x5=0x00000001
       15465000	      1545	80004a68	01605d13	srli	x26,x0,0x16	  x0:0x00000000 x26=0x00000000
       15475000	      1546	80004a6c	00583c33	sltu	x24,x16,x5	 x16:0x00000000  x5:0x00000001 x24=0x00000001
       15485000	      1547	80004a70	002ac903	lbu	x18,2(x21)	 x21:0x800080de x18=0x0000004a PA:0x800080e0
       15495000	      1548	80004a74	ffaa9b03	lh	x22,-6(x21)	 x21:0x800080de x22=0xffffd139 PA:0x800080d8
       15505000	      1549	80004a78	00d5e133	or	x2,x11,x13	 x11:0x80009fc4 x13:0x04cfc000  x2=0x84cfdfc4
       15515000	      1550	80004a7c	fe2a89a3	sb	x2,-13(x21)	 x21:0x800080de  x2:0x84cfdfc4 PA:0x800080d1
       15525000	      1551	80004a80	d9566f17	auipc	x30,0xd9566	 x30=0x5956aa7c
       15535000	      1552	80004a84	40365233	sra	x4,x12,x3	 x12:0x00000000  x3:0x02fc54d8  x4=0x00000000
       15545000	      1553	80004a88	ff5a8ea3	sb	x21,-3(x21)	 x21:0x800080de x21:0x800080de PA:0x800080db
       15555000	      1554	80004a8c	00c78a33	add	x20,x15,x12	 x15:0x00000001 x12:0x00000000 x20=0x00000001
       15565000	      1555	80004a90	ff7ac103	lbu	x2,-9(x21)	 x21:0x800080de  x2=0x000000fb PA:0x800080d5
       15575000	      1556	80004a94	fe5a8f23	sb	x5,-2(x21)	 x21:0x800080de  x5:0x00000001 PA:0x800080dc
       15585000	      1557	80004a98	e92f24b7	lui	x9,0xe92f2	  x9=0xe92f2000
       15595000	      1558	80004a9c	4ec410b7	lui	x1,0x4ec41	  x1=0x4ec41000
       15605000	      1559	80004aa0	43938193	addi	x3,x7,1081	  x7:0x00000000  x3=0x00000439
       15615000	      1560	80004aa4	00000013	addi	x0,x0,0	  x0:0x00000000
       15625000	      1561	80004aa8	00000013	addi	x0,x0,0	  x0:0x00000000
       15635000	      1562	80004aac	37adb413	sltiu	x8,x27,890	 x27:0x00000093  x8=0x00000001
       15645000	      1563	80004ab0	ffaa8ea3	sb	x26,-3(x21)	 x21:0x800080de x26:0x00000000 PA:0x800080db
       15655000	      1564	80004ab4	00bb81b3	add	x3,x23,x11	 x23:0x0000000d x11:0x80009fc4  x3=0x80009fd1
       15665000	      1565	80004ab8	9b570713	addi	x14,x14,-1611	 x14:0xfe00027f x14=0xfdfffc34
       15675000	      1566	80004abc	d662a213	slti	x4,x5,-666	  x5:0x00000001  x4=0x00000000
       15685000	      1567	80004ac0	21f64313	xori	x6,x12,543	 x12:0x00000000  x6=0x0000021f
       15695000	      1568	80004ac4	00000013	addi	x0,x0,0	  x0:0x00000000
       15705000	      1569	80004ac8	ff1acd03	lbu	x26,-15(x21)	 x21:0x800080de x26=0x0000001c PA:0x800080cf
       15715000	      1570	80004acc	005a82a3	sb	x5,5(x21)	 x21:0x800080de  x5:0x00000001 PA:0x800080e3
       15725000	      1571	80004ad0	007a8783	lb	x15,7(x21)	 x21:0x800080de x15=0xffffffc7 PA:0x800080e5
       15735000	      1572	80004ad4	e2ee6413	ori	x8,x28,-466	 x28:0xffffffbe  x8=0xffffffbe
       15745000	      1573	80004ad8	00fa85a3	sb	x15,11(x21)	 x21:0x800080de x15:0xffffffc7 PA:0x800080e9
       15755000	      1574	80004adc	0024f263	bgeu	x9,x2,80004ae0	  x9:0xe92f2000  x2:0x000000fb
       15765000	      1575	00000000	00000013	addi	x0,x0,0	  x0:0x00000000
       15775000	      1576	80004adc	00000013	addi	x0,x0,0	  x0:0x00000000
       15785000	      1577	80004ae0	00cce6b3	or	x13,x25,x12	 x25:0x3bfca000 x12:0x00000000 x13=0x3bfca000
       15795000	      1578	80004ae4	003f7a63	bgeu	x30,x3,80004af8	 x30:0x5956aa7c  x3:0x80009fd1
       15805000	      1579	80004ae8	40a15413	srai	x8,x2,0xa	  x2:0x000000fb  x8=0x00000000
       15815000	      1580	80004aec	40b2d6b3	sra	x13,x5,x11	  x5:0x00000001 x11:0x80009fc4 x13=0x00000000
       15825000	      1581	80004af0	e74708b7	lui	x17,0xe7470	 x17=0xe7470000
       15835000	      1582	80004af4	39a6a013	slti	x0,x13,922	 x13:0x00000000
       15845000	      1583	80004af8	418450b3	sra	x1,x8,x24	  x8:0x00000000 x24:0x00000001  x1=0x00000000
       15855000	      1584	80004afc	00452a03	lw	x20,4(x10)	 x10:0x80009f38 x20=0x800050e0 PA:0x80009f3c
       15865000	      1585	80004b00	01aedeb3	srl	x29,x29,x26	 x29:0xffffffe4 x26:0x0000001c x29=0x0000000f
       15875000	      1586	80004b04	00154f33	xor	x30,x10,x1	 x10:0x80009f38  x1:0x00000000 x30=0x80009f38
       15885000	      1587	80004b08	00c50513	addi	x10,x10,12	 x10:0x80009f38 x10=0x80009f44
       15895000	      1588	80004b0c	01e45313	srli	x6,x8,0x1e	  x8:0x00000000  x6=0x00000000
       15905000	      1589	80004b10	001a0c93	addi	x25,x20,1	 x20:0x800050e0 x25=0x800050e1
       15915000	      1590	80004b14	000c8ce7	jalr	x25,x25,0	 x25:0x800050e1 x25=0x80004b14
       15925000	      1591	00000000	00000013	addi	x0,x0,0	  x0:0x00000000
       15935000	      1592	800050e0	00000013	addi	x0,x0,0	  x0:0x00000000
       15945000	      1593	800050e4	ffffc997	auipc	x19,0xffffc	 x19=0x800010e0
       15955000	      1594	800050e8	30c98993	addi	x19,x19,780	 x19:0x800010e0 x19=0x800013ec
       15965000	      1595	800050ec	41c4d033	sra	x0,x9,x28	  x9:0xe92f2000 x28:0xffffffbe
       15975000	      1596	800050f0	37754713	xori	x14,x10,887	 x10:0x80009f44 x14=0x80009c33
       15985000	      1597	800050f4	716ebd93	sltiu	x27,x29,1814	 x29:0x0000000f x27=0x00000001
       15995000	      1598	800050f8	40d6db13	srai	x22,x13,0xd	 x13:0x00000000 x22=0x00000000
       16005000	      1599	800050fc	00161493	slli	x9,x12,0x1	 x12:0x00000000  x9=0x00000000
       16015000	      1600	80005100	fd998993	addi	x19,x19,-39	 x19:0x800013ec x19=0x800013c5
       16025000	      1601	80005104	01526db3	or	x27,x4,x21	  x4:0x00000000 x21:0x800080de x27=0x800080de
       16035000	      1602	80005108	41f0d913	srai	x18,x1,0x1f	  x1:0x00000000 x18=0x00000000
       16045000	      1603	8000510c	439cb913	sltiu	x18,x25,1081	 x25:0x80004b14 x18=0x00000000
       16055000	      1604	80005110	02898a67	jalr	x20,x19,40	 x19:0x800013c5 x20=0x80005110
       16065000	      1605	00000000	00000013	addi	x0,x0,0	  x0:0x00000000
       16075000	      1606	800013ec	00000013	addi	x0,x0,0	  x0:0x00000000
       16085000	      1607	800013f0	fe050513	addi	x10,x10,-32	 x10:0x80009f44 x10=0x80009f24
       16095000	      1608	800013f4	afde7a93	andi	x21,x28,-1283	 x28:0xffffffbe x21=0xfffffabc
       16105000	      1609	800013f8	01452223	sw	x20,4(x10)	 x10:0x80009f24 x20:0x80005110 PA:0x80009f28
       16115000	      1610	800013fc	416b5693	srai	x13,x22,0x16	 x22:0x00000000 x13=0x00000000
       16125000	      1611	80001400	ca79b013	sltiu	x0,x19,-857	 x19:0x800013c5
       16135000	      1612	80001404	412e82b3	sub	x5,x29,x18	 x29:0x0000000f x18:0x00000000  x5=0x0000000f
       16145000	      1613	80001408	40ed8633	sub	x12,x27,x14	 x27:0x800080de x14:0x80009c33 x12=0xffffe4ab
       16155000	      1614	8000140c	00000013	addi	x0,x0,0	  x0:0x00000000
       16165000	      1615	80001410	00007817	auipc	x16,0x7	 x16=0x8000840c
       16175000	      1616	80001414	50180813	addi	x16,x16,1281	 x16:0x8000840c x16=0x8000890d
       16185000	      1617	80001418	f5080da3	sb	x16,-165(x16)	 x16:0x8000890d x16:0x8000890d PA:0x80008868
       16195000	      1618	8000141c	41288d33	sub	x26,x17,x18	 x17:0xe7470000 x18:0x00000000 x26=0xe7470000
       16205000	      1619	80001420	00549413	slli	x8,x9,0x5	  x9:0x00000000  x8=0x00000000
       16215000	      1620	80001424	55680a23	sb	x22,1364(x16)	 x16:0x8000890d x22:0x00000000 PA:0x80008e61
       16225000	      1621	80001428	4e680e23	sb	x6,1276(x16)	 x16:0x8000890d  x6:0x00000000 PA:0x80008e09
       16235000	      1622	8000142c	a6ea0013	addi	x0,x20,-1426	 x20:0x80005110
       16245000	      1623	80001430	19d81a03	lh	x20,413(x16)	 x16:0x8000890d x20=0x00006b5e PA:0x80008aaa
       16255000	      1624	80001434	2f781d03	lh	x26,759(x16)	 x16:0x8000890d x26=0x00005402 PA:0x80008c04
       16265000	      1625	80001438	17284983	lbu	x19,370(x16)	 x16:0x8000890d x19=0x00000076 PA:0x80008a7f
       16275000	      1626	8000143c	b6060913	addi	x18,x12,-1184	 x12:0xffffe4ab x18=0xffffe00b
       16285000	      1627	80001440	00d558b3	srl	x17,x10,x13	 x10:0x80009f24 x13:0x00000000 x17=0x80009f24
       16295000	      1628	80001444	04d85e83	lhu	x29,77(x16)	 x16:0x8000890d x29=0x000029c1 PA:0x8000895a
       16305000	      1629	80001448	54b81fa3	sh	x11,1375(x16)	 x16:0x8000890d x11:0x80009fc4 PA:0x80008e6c
       16315000	      1630	8000144c	f8185703	lhu	x14,-127(x16)	 x16:0x8000890d x14=0x000057be PA:0x8000888e
       16325000	      1631	80001450	123c3013	sltiu	x0,x24,291	 x24:0x00000001
       16335000	      1632	80001454	e6d24797	auipc	x15,0xe6d24	 x15=0x66d25450
       16345000	      1633	80001458	10180e83	lb	x29,257(x16)	 x16:0x8000890d x29=0x00000063 PA:0x80008a0e
       16355000	      1634	8000145c	44350c13	addi	x24,x10,1091	 x10:0x80009f24 x24=0x8000a367
       16365000	      1635	80001460	06f85e03	lhu	x28,111(x16)	 x16:0x8000890d x28=0x0000e400 PA:0x8000897c
       16375000	      1636	80001464	f4880403	lb	x8,-184(x16)	 x16:0x8000890d  x8=0xffffff9d PA:0x80008855
       16385000	      1637	80001468	0152cd33	xor	x26,x5,x21	  x5:0x0000000f x21:0xfffffabc x26=0xfffffab3
       16395000	      1638	8000146c	52f82a83	lw	x21,1327(x16)	 x16:0x8000890d x21=0xc29ed89d PA:0x80008e3c
       16405000	      1639	80001470	40290733	sub	x14,x18,x2	 x18:0xffffe00b  x2:0x000000fb x14=0xffffdf10
       16415000	      1640	80001474	00000013	addi	x0,x0,0	  x0:0x00000000
       16425000	      1641	80001478	003618b3	sll	x17,x12,x3	 x12:0xffffe4ab  x3:0x80009fd1 x17=0xc9560000
       16435000	      1642	8000147c	00c381b3	add	x3,x7,x12	  x7:0x00000000 x12:0xffffe4ab  x3=0xffffe4ab
       16445000	      1643	80001480	68581183	lh	x3,1669(x16)	 x16:0x8000890d  x3=0xffffcde8 PA:0x80008f92
       16455000	      1644	80001484	4158de33	sra	x28,x17,x21	 x17:0xc9560000 x21:0xc29ed89d x28=0xfffffffe
       16465000	      1645	80001488	53880f03	lb	x30,1336(x16)	 x16:0x8000890d x30=0x00000044 PA:0x80008e45
       16475000	      1646	8000148c	63384f83	lbu	x31,1587(x16)	 x16:0x8000890d x31=0x000000aa PA:0x80008f40
       16485000	      1647	80001490	006a0433	add	x8,x20,x6	 x20:0x00006b5e  x6:0x00000000  x8=0x00006b5e
       16495000	      1648	80001494	1b180023	sb	x17,416(x16)	 x16:0x8000890d x17:0xc9560000 PA:0x80008aad
       16505000	      1649	80001498	1c884883	lbu	x17,456(x16)	 x16:0x8000890d x17=0x000000b5 PA:0x80008ad5
       16515000	      1650	8000149c	418d56b3	sra	x13,x26,x24	 x26:0xfffffab3 x24:0x8000a367 x13=0xfffffff5
       16525000	      1651	800014a0	00408f33	add	x30,x1,x4	  x1:0x00000000  x4:0x00000000 x30=0x00000000
       16535000	      1652	800014a4	40b81d83	lh	x27,1035(x16)	 x16:0x8000890d x27=0xffff8c97 PA:0x80008d18
       16545000	      1653	800014a8	21880323	sb	x24,518(x16)	 x16:0x8000890d x24:0x8000a367 PA:0x80008b13
       16555000	      1654	800014ac	20180ca3	sb	x1,537(x16)	 x16:0x8000890d  x1:0x00000000 PA:0x80008b26
       16565000	      1655	800014b0	00000013	addi	x0,x0,0	  x0:0x00000000
       16575000	      1656	800014b4	5bd829a3	sw	x29,1459(x16)	 x16:0x8000890d x29:0x00000063 PA:0x80008ec0
       16585000	      1657	800014b8	f5c07937	lui	x18,0xf5c07	 x18=0xf5c07000
       16595000	      1658	800014bc	007c3413	sltiu	x8,x24,7	 x24:0x8000a367  x8=0x00000000
       16605000	      1659	800014c0	f6280883	lb	x17,-158(x16)	 x16:0x8000890d x17=0x00000032 PA:0x8000886f
       16615000	      1660	800014c4	00aca6b3	slt	x13,x25,x10	 x25:0x80004b14 x10:0x80009f24 x13=0x00000001
       16625000	      1661	800014c8	55580323	sb	x21,1350(x16)	 x16:0x8000890d x21:0xc29ed89d PA:0x80008e53
       16635000	      1662	800014cc	00000013	addi	x0,x0,0	  x0:0x00000000
       16645000	      1663	800014d0	d6b27e93	andi	x29,x4,-661	  x4:0x00000000 x29=0x00000000
       16655000	      1664	800014d4	5c181603	lh	x12,1473(x16)	 x16:0x8000890d x12=0x000052c8 PA:0x80008ece
       16665000	      1665	800014d8	13a4a397	auipc	x7,0x13a4a	  x7=0x93a4b4d4
       16675000	      1666	800014dc	00000013	addi	x0,x0,0	  x0:0x00000000
       16685000	      1667	800014e0	01945293	srli	x5,x8,0x19	  x8:0x00000000  x5=0x00000000
       16695000	      1668	800014e4	50084e83	lbu	x29,1280(x16)	 x16:0x8000890d x29=0x00000094 PA:0x80008e0d
       16705000	      1669	800014e8	417f5133	sra	x2,x30,x23	 x30:0x00000000 x23:0x0000000d  x2=0x00000000
       16715000	      1670	800014ec	01b07033	and	x0,x0,x27	  x0:0x00000000 x27:0xffff8c97
       16725000	      1671	800014f0	00382f03	lw	x30,3(x16)	 x16:0x8000890d x30=0x35f380b3 PA:0x80008910
       16735000	      1672	800014f4	60782303	lw	x6,1543(x16)	 x16:0x8000890d  x6=0x3cea4c02 PA:0x80008f14
       16745000	      1673	800014f8	00007a17	auipc	x20,0x7	 x20=0x800084f4
       16755000	      1674	800014fc	c93a0a13	addi	x20,x20,-877	 x20:0x800084f4 x20=0x80008187
       16765000	      1675	80001500	40add413	srai	x8,x27,0xa	 x27:0xffff8c97  x8=0xffffffe3
       16775000	      1676	80001504	f08a0f23	sb	x8,-226(x20)	 x20:0x80008187  x8:0xffffffe3 PA:0x800080a5
       16785000	      1677	80001508	01dad333	srl	x6,x21,x29	 x21:0xc29ed89d x29:0x00000094  x6=0x00000c29
       16795000	      1678	8000150c	0b9f8f37	lui	x30,0xb9f8	 x30=0x0b9f8000
       16805000	      1679	80001510	9ff36f13	ori	x30,x6,-1537	  x6:0x00000c29 x30=0xfffffdff
       16815000	      1680	80001514	0d4a4083	lbu	x1,212(x20)	 x20:0x80008187  x1=0x000000a9 PA:0x8000825b
       16825000	      1681	80001518	fa2a0203	lb	x4,-94(x20)	 x20:0x80008187  x4=0xffffffa1 PA:0x80008129
       16835000	      1682	8000151c	00b47933	and	x18,x8,x11	  x8:0xffffffe3 x11:0x80009fc4 x18=0x80009fc0
       16845000	      1683	80001520	fd6a4e03	lbu	x28,-42(x20)	 x20:0x80008187 x28=0x000000b5 PA:0x8000815d
       16855000	      1684	80001524	f6ba1903	lh	x18,-149(x20)	 x20:0x80008187 x18=0x00007778 PA:0x800080f2
       16865000	      1685	80001528	fbfa1ca3	sh	x31,-71(x20)	 x20:0x80008187 x31:0x000000aa PA:0x80008140
       16875000	      1686	8000152c	f49a0e23	sb	x9,-164(x20)	 x20:0x80008187  x9:0x00000000 PA:0x800080e3
       16885000	      1687	80001530	0a4a1ba3	sh	x4,183(x20)	 x20:0x80008187  x4:0xffffffa1 PA:0x8000823e
       16895000	      1688	80001534	41b3d4b3	sra	x9,x7,x27	  x7:0x93a4b4d4 x27:0xffff8c97  x9=0xffffff27
       16905000	      1689	80001538	077a0483	lb	x9,119(x20)	 x20:0x80008187  x9=0x00000004 PA:0x800081fe
       16915000	      1690	8000153c	d84ce813	ori	x16,x25,-636	 x25:0x80004b14 x16=0xffffff94
       16925000	      1691	80001540	f4fa0983	lb	x19,-177(x20)	 x20:0x80008187 x19=0x00000051 PA:0x800080d6
       16935000	      1692	80001544	0e9a0a23	sb	x9,244(x20)	 x20:0x80008187  x9:0x00000004 PA:0x8000827b
       16945000	      1693	80001548	2f390893	addi	x17,x18,755	 x18:0x00007778 x17=0x00007a6b
       16955000	      1694	8000154c	0158acb3	slt	x25,x17,x21	 x17:0x00007a6b x21:0xc29ed89d x25=0x00000000
       16965000	      1695	80001550	01264133	xor	x2,x12,x18	 x12:0x000052c8 x18:0x00007778  x2=0x000025b0
       16975000	      1696	80001554	f51a06a3	sb	x17,-179(x20)	 x20:0x80008187 x17:0x00007a6b PA:0x800080d4
       16985000	      1697	80001558	0a2a0623	sb	x2,172(x20)	 x20:0x80008187  x2:0x000025b0 PA:0x80008233
       16995000	      1698	8000155c	a7678d13	addi	x26,x15,-1418	 x15:0x66d25450 x26=0x66d24ec6
       17005000	      1699	80001560	f07a4803	lbu	x16,-249(x20)	 x20:0x80008187 x16=0x0000008c PA:0x8000808e
       17015000	      1700	80001564	00ea4283	lbu	x5,14(x20)	 x20:0x80008187  x5=0x0000000c PA:0x80008195
       17025000	      1701	80001568	d2ef3093	sltiu	x1,x30,-722	 x30:0xfffffdff  x1=0x00000000
       17035000	      1702	8000156c	ff9a2303	lw	x6,-7(x20)	 x20:0x80008187  x6=0x627aa7f4 PA:0x80008180
       17045000	      1703	80001570	feaa0523	sb	x10,-22(x20)	 x20:0x80008187 x10:0x80009f24 PA:0x80008171
       17055000	      1704	80001574	f80a0623	sb	x0,-116(x20)	 x20:0x80008187  x0:0x00000000 PA:0x80008113
       17065000	      1705	80001578	da03ba13	sltiu	x20,x7,-608	  x7:0x93a4b4d4 x20=0x00000001
       17075000	      1706	8000157c	0032e733	or	x14,x5,x3	  x5:0x0000000c  x3:0xffffcde8 x14=0xffffcdec
       17085000	      1707	80001580	00000013	addi	x0,x0,0	  x0:0x00000000
       17095000	      1708	80001584	00edc1b3	xor	x3,x27,x14	 x27:0xffff8c97 x14:0xffffcdec  x3=0x0000417b
       17105000	      1709	80001588	f9d4f293	andi	x5,x9,-99	  x9:0x00000004  x5=0x00000004
       17115000	      1710	8000158c	01daa733	slt	x14,x21,x29	 x21:0xc29ed89d x29:0x00000094 x14=0x00000001
       17125000	      1711	80001590	0583f263	bgeu	x7,x24,800015d4	  x7:0x93a4b4d4 x24:0x8000a367
       17135000	      1712	00000000	00000013	addi	x0,x0,0	  x0:0x00000000
       17145000	      1713	800015d0	00000013	addi	x0,x0,0	  x0:0x00000000
       17155000	      1714	800015d4	00000013	addi	x0,x0,0	  x0:0x00000000
       17165000	      1715	800015d8	404e0fb3	sub	x31,x28,x4	 x28:0x000000b5  x4:0xffffffa1 x31=0x00000114
       17175000	      1716	800015dc	01d7a033	slt	x0,x15,x29	 x15:0x66d25450 x29:0x00000094
       17185000	      1717	800015e0	01271113	slli	x2,x14,0x12	 x14:0x00000001  x2=0x00040000
       17195000	      1718	800015e4	0025c333	xor	x6,x11,x2	 x11:0x80009fc4  x2:0x00040000  x6=0x80049fc4
       17205000	      1719	800015e8	00000013	addi	x0,x0,0	  x0:0x00000000
       17215000	      1720	800015ec	00fc0d33	add	x26,x24,x15	 x24:0x8000a367 x15:0x66d25450 x26=0xe6d2f7b7
       17225000	      1721	800015f0	01e05b33	srl	x22,x0,x30	  x0:0x00000000 x30:0xfffffdff x22=0x00000000
       17235000	      1722	800015f4	40ad5eb3	sra	x29,x26,x10	 x26:0xe6d2f7b7 x10:0x80009f24 x29=0xfe6d2f7b
       17245000	      1723	800015f8	41790933	sub	x18,x18,x23	 x18:0x00007778 x23:0x0000000d x18=0x0000776b
       17255000	      1724	800015fc	90807113	andi	x2,x0,-1784	  x0:0x00000000  x2=0x00000000
       17265000	      1725	80001600	00da9d93	slli	x27,x21,0xd	 x21:0xc29ed89d x27=0xdb13a000
       17275000	      1726	80001604	01e89f13	slli	x30,x17,0x1e	 x17:0x00007a6b x30=0xc0000000
       17285000	      1727	80001608	00007097	auipc	x1,0x7	  x1=0x80008604
       17295000	      1728	8000160c	02008093	addi	x1,x1,32	  x1:0x80008604  x1=0x80008624
       17305000	      1729	80001610	fc109c23	sh	x1,-40(x1)	  x1:0x80008624  x1:0x80008624 PA:0x800085fc
       17315000	      1730	80001614	01330fb3	add	x31,x6,x19	  x6:0x80049fc4 x19:0x00000051 x31=0x8004a015
       17325000	      1731	80001618	fa708903	lb	x18,-89(x1)	  x1:0x80008624 x18=0xffffff80 PA:0x800085cb
       17335000	      1732	8000161c	00a2da13	srli	x20,x5,0xa	  x5:0x00000004 x20=0x00000000
       17345000	      1733	80001620	f9e08f03	lb	x30,-98(x1)	  x1:0x80008624 x30=0x0000004f PA:0x800085c2
       17355000	      1734	80001624	0100dd83	lhu	x27,16(x1)	  x1:0x80008624 x27=0x00001045 PA:0x80008634
       17365000	      1735	80001628	08b08da3	sb	x11,155(x1)	  x1:0x80008624 x11:0x80009fc4 PA:0x800086bf
       17375000	      1736	8000162c	016f9993	slli	x19,x31,0x16	 x31:0x8004a015 x19=0x05400000
       17385000	      1737	80001630	68dd3493	sltiu	x9,x26,1677	 x26:0xe6d2f7b7  x9=0x00000000
       17395000	      1738	80001634	dc2faf13	slti	x30,x31,-574	 x31:0x8004a015 x30=0x00000001
       17405000	      1739	80001638	41a65913	srai	x18,x12,0x1a	 x12:0x000052c8 x18=0x00000000
       17415000	      1740	8000163c	f3b0c603	lbu	x12,-197(x1)	  x1:0x80008624 x12=0x0000002e PA:0x8000855f
       17425000	      1741	80001640	fe90cc83	lbu	x25,-23(x1)	  x1:0x80008624 x25=0x00000010 PA:0x8000860d
       17435000	      1742	80001644	011fecb3	or	x25,x31,x17	 x31:0x8004a015 x17:0x00007a6b x25=0x8004fa7f
       17445000	      1743	80001648	01eec233	xor	x4,x29,x30	 x29:0xfe6d2f7b x30:0x00000001  x4=0xfe6d2f7a
       17455000	      1744	8000164c	01c46733	or	x14,x8,x28	  x8:0xffffffe3 x28:0x000000b5 x14=0xfffffff7
       17465000	      1745	80001650	40c95fb3	sra	x31,x18,x12	 x18:0x00000000 x12:0x0000002e x31=0x00000000
       17475000	      1746	80001654	0e708203	lb	x4,231(x1)	  x1:0x80008624  x4=0xffffff91 PA:0x8000870b
       17485000	      1747	80001658	7c6ea693	slti	x13,x29,1990	 x29:0xfe6d2f7b x13=0x00000001
       17495000	      1748	8000165c	01097fb3	and	x31,x18,x16	 x18:0x00000000 x16:0x0000008c x31=0x00000000
       17505000	      1749	80001660	4d8dbc13	sltiu	x24,x27,1240	 x27:0x00001045 x24=0x00000000
       17515000	      1750	80001664	015c2833	slt	x16,x24,x21	 x24:0x00000000 x21:0xc29ed89d x16=0x00000000
       17525000	      1751	80001668	f6708383	lb	x7,-153(x1)	  x1:0x80008624  x7=0xffffffa7 PA:0x8000858b
       17535000	      1752	00000000	00000013	addi	x0,x0,0	  x0:0x00000000
       17545000	      1753	8000166c	f870c183	lbu	x3,-121(x1)	  x1:0x80008624  x3=0x0000009c PA:0x800085ab
       17555000	      1754	80001670	010e5d93	srli	x27,x28,0x10	 x28:0x000000b5 x27=0x00000000
       17565000	      1755	80001674	fa408183	lb	x3,-92(x1)	  x1:0x80008624  x3=0xffffffd4 PA:0x800085c8
       17575000	      1756	80001678	06908ca3	sb	x9,121(x1)	  x1:0x80008624  x9:0x00000000 PA:0x8000869d
       17585000	      1757	8000167c	01e178b3	and	x17,x2,x30	  x2:0x00000000 x30:0x00000001 x17=0x00000000
       17595000	      1758	80001680	00c74f33	xor	x30,x14,x12	 x14:0xfffffff7 x12:0x0000002e x30=0xffffffd9
       17605000	      1759	80001684	0b508283	lb	x5,181(x1)	  x1:0x80008624  x5=0x00000070 PA:0x800086d9
       17615000	      1760	80001688	9accaa13	slti	x20,x25,-1620	 x25:0x8004fa7f x20=0x00000001
       17625000	      1761	8000168c	f7608303	lb	x6,-138(x1)	  x1:0x80008624  x6=0xffffffc5 PA:0x8000859a
       17635000	      1762	00000000	00000013	addi	x0,x0,0	  x0:0x00000000
       17645000	      1763	80001690	0e6081a3	sb	x6,227(x1)	  x1:0x80008624  x6:0xffffffc5 PA:0x80008707
       17655000	      1764	80001694	33f31fb7	lui	x31,0x33f31	 x31=0x33f31000
       17665000	      1765	80001698	fd00c483	lbu	x9,-48(x1)	  x1:0x80008624  x9=0x00000033 PA:0x800085f4
       17675000	      1766	8000169c	0089d813	srli	x16,x19,0x8	 x19:0x05400000 x16=0x00054000
       17685000	      1767	800016a0	0f30ce03	lbu	x28,243(x1)	  x1:0x80008624 x28=0x0000005e PA:0x80008717
       17695000	      1768	800016a4	5656fd13	andi	x26,x13,1381	 x13:0x00000001 x26=0x00000001
       17705000	      1769	800016a8	ebdbcc13	xori	x24,x23,-323	 x23:0x0000000d x24=0xfffffeb0
       17715000	      1770	800016ac	41f25b13	srai	x22,x4,0x1f	  x4:0xffffff91 x22=0xffffffff
       17725000	      1771	800016b0	eafdae13	slti	x28,x27,-337	 x27:0x00000000 x28=0x00000000
       17735000	      1772	800016b4	fad083a3	sb	x13,-89(x1)	  x1:0x80008624 x13:0x00000001 PA:0x800085cb
       17745000	      1773	800016b8	01a31d13	slli	x26,x6,0x1a	  x6:0xffffffc5 x26=0x14000000
       17755000	      1774	800016bc	014043b3	xor	x7,x0,x20	  x0:0x00000000 x20:0x00000001  x7=0x00000001
       17765000	      1775	800016c0	09708803	lb	x16,151(x1)	  x1:0x80008624 x16=0xffffffab PA:0x800086bb
       17775000	      1776	800016c4	00b08003	lb	x0,11(x1)	  x1:0x80008624 PA:0x8000862f
       17785000	      1777	800016c8	fb208d03	lb	x26,-78(x1)	  x1:0x80008624 x26=0x0000002c PA:0x800085d6
       17795000	      1778	800016cc	fa20d283	lhu	x5,-94(x1)	  x1:0x80008624  x5=0x00005efa PA:0x800085c6
       17805000	      1779	800016d0	0ac0d203	lhu	x4,172(x1)	  x1:0x80008624  x4=0x0000a19f PA:0x800086d0
       17815000	      1780	800016d4	408f5613	srai	x12,x30,0x8	 x30:0xffffffd9 x12=0xffffffff
       17825000	      1781	800016d8	01908723	sb	x25,14(x1)	  x1:0x80008624 x25:0x8004fa7f PA:0x80008632
       17835000	      1782	800016dc	b669b313	sltiu	x6,x19,-1178	 x19:0x05400000  x6=0x00000001
       17845000	      1783	800016e0	012e7fb3	and	x31,x28,x18	 x28:0x00000000 x18:0x00000000 x31=0x00000000
       17855000	      1784	800016e4	09e09623	sh	x30,140(x1)	  x1:0x80008624 x30:0xffffffd9 PA:0x800086b0
       17865000	      1785	800016e8	0042beb3	sltu	x29,x5,x4	  x5:0x00005efa  x4:0x0000a19f x29=0x00000001
       17875000	      1786	800016ec	00c09d03	lh	x26,12(x1)	  x1:0x80008624 x26=0x00000568 PA:0x80008630
       17885000	      1787	800016f0	00000013	addi	x0,x0,0	  x0:0x00000000
       17895000	      1788	800016f4	7ff30193	addi	x3,x6,2047	  x6:0x00000001  x3=0x00000800
       17905000	      1789	800016f8	9fdb6837	lui	x16,0x9fdb6	 x16=0x9fdb6000
       17915000	      1790	800016fc	03204e63	blt	x0,x18,80001738	  x0:0x00000000 x18:0x00000000
       17925000	      1791	80001700	00961093	slli	x1,x12,0x9	 x12:0xffffffff  x1=0xfffffe00
       17935000	      1792	80001704	0086ffb3	and	x31,x13,x8	 x13:0x00000001  x8:0xffffffe3 x31=0x00000001
       17945000	      1793	80001708	6c604317	auipc	x6,0x6c604	  x6=0xec605704
       17955000	      1794	8000170c	00000013	addi	x0,x0,0	  x0:0x00000000
       17965000	      1795	80001710	d5914417	auipc	x8,0xd5914	  x8=0x5591570c
       17975000	      1796	80001714	00a367b3	or	x15,x6,x10	  x6:0xec605704 x10:0x80009f24 x15=0xec60df24
       17985000	      1797	80001718	00d67663	bgeu	x12,x13,80001724	 x12:0xffffffff x13:0x00000001
       17995000	      1798	00000000	00000013	addi	x0,x0,0	  x0:0x00000000
       18005000	      1799	80001720	00000013	addi	x0,x0,0	  x0:0x00000000
       18015000	      1800	80001724	00a438b3	sltu	x17,x8,x10	  x8:0x5591570c x10:0x80009f24 x17=0x00000001
       18025000	      1801	80001728	94946a13	ori	x20,x8,-1719	  x8:0x5591570c x20=0xffffff4d
       18035000	      1802	8000172c	00f9c463	blt	x19,x15,80001734	 x19:0x05400000 x15:0xec60df24
       18045000	      1803	80001730	02efec63	bltu	x31,x14,80001768	 x31:0x00000001 x14:0xfffffff7
       18055000	      1804	00000000	00000013	addi	x0,x0,0	  x0:0x00000000
       18065000	      1805	80001764	00000013	addi	x0,x0,0	  x0:0x00000000
       18075000	      1806	80001768	019de433	or	x8,x27,x25	 x27:0x00000000 x25:0x8004fa7f  x8=0x8004fa7f
       18085000	      1807	8000176c	73d3f913	andi	x18,x7,1853	  x7:0x00000001 x18=0x00000001
       18095000	      1808	80001770	015256b3	srl	x13,x4,x21	  x4:0x0000a19f x21:0xc29ed89d x13=0x00000000
       18105000	      1809	80001774	013c1c63	bne	x24,x19,8000178c	 x24:0xfffffeb0 x19:0x05400000
       18115000	      1810	00000000	00000013	addi	x0,x0,0	  x0:0x00000000
       18125000	      1811	80001788	00000013	addi	x0,x0,0	  x0:0x00000000
       18135000	      1812	8000178c	00000013	addi	x0,x0,0	  x0:0x00000000
       18145000	      1813	80001790	017933b3	sltu	x7,x18,x23	 x18:0x00000001 x23:0x0000000d  x7=0x00000001
       18155000	      1814	80001794	00385a13	srli	x20,x16,0x3	 x16:0x9fdb6000 x20=0x13fb6c00
       18165000	      1815	80001798	cf206f93	ori	x31,x0,-782	  x0:0x00000000 x31=0xfffffcf2
       18175000	      1816	8000179c	412081b3	sub	x3,x1,x18	  x1:0xfffffe00 x18:0x00000001  x3=0xfffffdff
       18185000	      1817	800017a0	00000013	addi	x0,x0,0	  x0:0x00000000
       18195000	      1818	800017a4	deb4e113	ori	x2,x9,-533	  x9:0x00000033  x2=0xfffffdfb
       18205000	      1819	800017a8	01626863	bltu	x4,x22,800017b8	  x4:0x0000a19f x22:0xffffffff
       18215000	      1820	00000000	00000013	addi	x0,x0,0	  x0:0x00000000
       18225000	      1821	800017b4	00000013	addi	x0,x0,0	  x0:0x00000000
       18235000	      1822	800017b8	af183713	sltiu	x14,x16,-1295	 x16:0x9fdb6000 x14=0x00000001
       18245000	      1823	800017bc	00efd713	srli	x14,x31,0xe	 x31:0xfffffcf2 x14=0x0003ffff
       18255000	      1824	800017c0	ee427793	andi	x15,x4,-284	  x4:0x0000a19f x15=0x0000a084
       18265000	      1825	800017c4	41fe5133	sra	x2,x28,x31	 x28:0x00000000 x31:0xfffffcf2  x2=0x00000000
       18275000	      1826	800017c8	03e60a63	beq	x12,x30,800017fc	 x12:0xffffffff x30:0xffffffd9
       18285000	      1827	800017cc	005f3933	sltu	x18,x30,x5	 x30:0xffffffd9  x5:0x00005efa x18=0x00000000
       18295000	      1828	800017d0	48917d93	andi	x27,x2,1161	  x2:0x00000000 x27=0x00000000
       18305000	      1829	800017d4	dac82c13	slti	x24,x16,-596	 x16:0x9fdb6000 x24=0x00000001
       18315000	      1830	800017d8	054f0863	beq	x30,x20,80001828	 x30:0xffffffd9 x20:0x13fb6c00
       18325000	      1831	800017dc	009f87b3	add	x15,x31,x9	 x31:0xfffffcf2  x9:0x00000033 x15=0xfffffd25
       18335000	      1832	800017e0	cf64e713	ori	x14,x9,-778	  x9:0x00000033 x14=0xfffffcf7
       18345000	      1833	800017e4	00879463	bne	x15,x8,800017ec	 x15:0xfffffd25  x8:0x8004fa7f
       18355000	      1834	00000000	00000013	addi	x0,x0,0	  x0:0x00000000
       18365000	      1835	800017e8	00000013	addi	x0,x0,0	  x0:0x00000000
       18375000	      1836	800017ec	00e7c4b3	xor	x9,x15,x14	 x15:0xfffffd25 x14:0xfffffcf7  x9=0x000001d2
       18385000	      1837	800017f0	01d22ab3	slt	x21,x4,x29	  x4:0x0000a19f x29:0x00000001 x21=0x00000000
       18395000	      1838	800017f4	036ece63	blt	x29,x22,80001830	 x29:0x00000001 x22:0xffffffff
       18405000	      1839	800017f8	05f39063	bne	x7,x31,80001838	  x7:0x00000001 x31:0xfffffcf2
       18415000	      1840	00000000	00000013	addi	x0,x0,0	  x0:0x00000000
       18425000	      1841	80001834	00000013	addi	x0,x0,0	  x0:0x00000000
       18435000	      1842	80001838	4602a813	slti	x16,x5,1120	  x5:0x00005efa x16=0x00000000
       18445000	      1843	8000183c	013f7733	and	x14,x30,x19	 x30:0xffffffd9 x19:0x05400000 x14=0x05400000
       18455000	      1844	80001840	43d34293	xori	x5,x6,1085	  x6:0xec605704  x5=0xec605339
       18465000	      1845	80001844	000f4c63	blt	x30,x0,8000185c	 x30:0xffffffd9  x0:0x00000000
       18475000	      1846	00000000	00000013	addi	x0,x0,0	  x0:0x00000000
       18485000	      1847	80001858	00000013	addi	x0,x0,0	  x0:0x00000000
       18495000	      1848	8000185c	00f502b3	add	x5,x10,x15	 x10:0x80009f24 x15:0xfffffd25  x5=0x80009c49
       18505000	      1849	80001860	28042c13	slti	x24,x8,640	  x8:0x8004fa7f x24=0x00000001
       18515000	      1850	80001864	005f5c63	bge	x30,x5,8000187c	 x30:0xffffffd9  x5:0x80009c49
       18525000	      1851	00000000	00000013	addi	x0,x0,0	  x0:0x00000000
       18535000	      1852	80001878	00000013	addi	x0,x0,0	  x0:0x00000000
       18545000	      1853	8000187c	010cdf33	srl	x30,x25,x16	 x25:0x8004fa7f x16:0x00000000 x30=0x8004fa7f
       18555000	      1854	80001880	0c495263	bge	x18,x4,80001944	 x18:0x00000000  x4:0x0000a19f
       18565000	      1855	80001884	41750133	sub	x2,x10,x23	 x10:0x80009f24 x23:0x0000000d  x2=0x80009f17
       18575000	      1856	80001888	0e98e063	bltu	x17,x9,80001968	 x17:0x00000001  x9:0x000001d2
       18585000	      1857	00000000	00000013	addi	x0,x0,0	  x0:0x00000000
       18595000	      1858	80001964	00000013	addi	x0,x0,0	  x0:0x00000000
       18605000	      1859	80001968	010f5f33	srl	x30,x30,x16	 x30:0x8004fa7f x16:0x00000000 x30=0x8004fa7f
       18615000	      1860	8000196c	00635313	srli	x6,x6,0x6	  x6:0xec605704  x6=0x03b1815c
       18625000	      1861	80001970	041e9063	bne	x29,x1,800019b0	 x29:0x00000001  x1:0xfffffe00
       18635000	      1862	00000000	00000013	addi	x0,x0,0	  x0:0x00000000
       18645000	      1863	800019ac	00000013	addi	x0,x0,0	  x0:0x00000000
       18655000	      1864	800019b0	00000013	addi	x0,x0,0	  x0:0x00000000
       18665000	      1865	800019b4	004a4733	xor	x14,x20,x4	 x20:0x13fb6c00  x4:0x0000a19f x14=0x13fbcd9f
       18675000	      1866	800019b8	026d7263	bgeu	x26,x6,800019dc	 x26:0x00000568  x6:0x03b1815c
       18685000	      1867	800019bc	403d01b3	sub	x3,x26,x3	 x26:0x00000568  x3:0xfffffdff  x3=0x00000769
       18695000	      1868	800019c0	0130cdb3	xor	x27,x1,x19	  x1:0xfffffe00 x19:0x05400000 x27=0xfabffe00
       18705000	      1869	800019c4	419708b3	sub	x17,x14,x25	 x14:0x13fbcd9f x25:0x8004fa7f x17=0x93f6d320
       18715000	      1870	800019c8	011d8733	add	x14,x27,x17	 x27:0xfabffe00 x17:0x93f6d320 x14=0x8eb6d120
       18725000	      1871	800019cc	05bc5863	bge	x24,x27,80001a1c	 x24:0x00000001 x27:0xfabffe00
       18735000	      1872	00000000	00000013	addi	x0,x0,0	  x0:0x00000000
       18745000	      1873	80001a18	00000013	addi	x0,x0,0	  x0:0x00000000
       18755000	      1874	80001a1c	00ebaab3	slt	x21,x23,x14	 x23:0x0000000d x14:0x8eb6d120 x21=0x00000000
       18765000	      1875	80001a20	25b071b7	lui	x3,0x25b07	  x3=0x25b07000
       18775000	      1876	80001a24	f488e393	ori	x7,x17,-184	 x17:0x93f6d320  x7=0xffffff68
       18785000	      1877	80001a28	5b86cc13	xori	x24,x13,1464	 x13:0x00000000 x24=0x000005b8
       18795000	      1878	80001a2c	03adee63	bltu	x27,x26,80001a68	 x27:0xfabffe00 x26:0x00000568
       18805000	      1879	80001a30	00b04e33	xor	x28,x0,x11	  x0:0x00000000 x11:0x80009fc4 x28=0x80009fc4
       18815000	      1880	80001a34	004b5e63	bge	x22,x4,80001a50	 x22:0xffffffff  x4:0x0000a19f
       18825000	      1881	80001a38	04f37063	bgeu	x6,x15,80001a78	  x6:0x03b1815c x15:0xfffffd25
       18835000	      1882	80001a3c	01125833	srl	x16,x4,x17	  x4:0x0000a19f x17:0x93f6d320 x16=0x0000a19f
       18845000	      1883	80001a40	6e356313	ori	x6,x10,1763	 x10:0x80009f24  x6=0x80009fe7
       18855000	      1884	80001a44	051b7663	bgeu	x22,x17,80001a90	 x22:0xffffffff x17:0x93f6d320
       18865000	      1885	00000000	00000013	addi	x0,x0,0	  x0:0x00000000
       18875000	      1886	80001a8c	00000013	addi	x0,x0,0	  x0:0x00000000
       18885000	      1887	80001a90	aeb53a13	sltiu	x20,x10,-1301	 x10:0x80009f24 x20=0x00000001
       18895000	      1888	80001a94	00285413	srli	x8,x16,0x2	 x16:0x0000a19f  x8=0x00002867
       18905000	      1889	80001a98	6b330237	lui	x4,0x6b330	  x4=0x6b330000
       18915000	      1890	80001a9c	40dd8ab3	sub	x21,x27,x13	 x27:0xfabffe00 x13:0x00000000 x21=0xfabffe00
       18925000	      1891	80001aa0	01152a33	slt	x20,x10,x17	 x10:0x80009f24 x17:0x93f6d320 x20=0x00000001
       18935000	      1892	80001aa4	ec7e4693	xori	x13,x28,-313	 x28:0x80009fc4 x13=0x7fff6103
       18945000	      1893	80001aa8	00de8863	beq	x29,x13,80001ab8	 x29:0x00000001 x13:0x7fff6103
       18955000	      1894	80001aac	bd6a8b13	addi	x22,x21,-1066	 x21:0xfabffe00 x22=0xfabff9d6
       18965000	      1895	80001ab0	41fd0933	sub	x18,x26,x31	 x26:0x00000568 x31:0xfffffcf2 x18=0x00000876
       18975000	      1896	80001ab4	003fb833	sltu	x16,x31,x3	 x31:0xfffffcf2  x3:0x25b07000 x16=0x00000000
       18985000	      1897	80001ab8	41b40e33	sub	x28,x8,x27	  x8:0x00002867 x27:0xfabffe00 x28=0x05402a67
       18995000	      1898	80001abc	01ba1d33	sll	x26,x20,x27	 x20:0x00000001 x27:0xfabffe00 x26=0x00000001
       19005000	      1899	80001ac0	400204b3	sub	x9,x4,x0	  x4:0x6b330000  x0:0x00000000  x9=0x6b330000
       19015000	      1900	80001ac4	410d0e33	sub	x28,x26,x16	 x26:0x00000001 x16:0x00000000 x28=0x00000001
       19025000	      1901	80001ac8	01726d33	or	x26,x4,x23	  x4:0x6b330000 x23:0x0000000d x26=0x6b33000d
       19035000	      1902	80001acc	2b1ead13	slti	x26,x29,689	 x29:0x00000001 x26=0x00000001
       19045000	      1903	80001ad0	032e0463	beq	x28,x18,80001af8	 x28:0x00000001 x18:0x00000876
       19055000	      1904	80001ad4	00000013	addi	x0,x0,0	  x0:0x00000000
       19065000	      1905	80001ad8	40500033	sub	x0,x0,x5	  x0:0x00000000  x5:0x80009c49
       19075000	      1906	80001adc	01b67633	and	x12,x12,x27	 x12:0xffffffff x27:0xfabffe00 x12=0xfabffe00
       19085000	      1907	80001ae0	00445113	srli	x2,x8,0x4	  x8:0x00002867  x2=0x00000286
       19095000	      1908	80001ae4	f558e497	auipc	x9,0xf558e	  x9=0x7558fae0
       19105000	      1909	80001ae8	2a042d13	slti	x26,x8,672	  x8:0x00002867 x26=0x00000000
       19115000	      1910	80001aec	00000013	addi	x0,x0,0	  x0:0x00000000
       19125000	      1911	80001af0	fe01b793	sltiu	x15,x3,-32	  x3:0x25b07000 x15=0x00000001
       19135000	      1912	80001af4	014412b3	sll	x5,x8,x20	  x8:0x00002867 x20:0x00000001  x5=0x000050ce
       19145000	      1913	80001af8	41bed8b3	sra	x17,x29,x27	 x29:0x00000001 x27:0xfabffe00 x17=0x00000001
       19155000	      1914	80001afc	f4ddc093	xori	x1,x27,-179	 x27:0xfabffe00  x1=0x0540014d
       19165000	      1915	80001b00	01ac5b13	srli	x22,x24,0x1a	 x24:0x000005b8 x22=0x00000000
       19175000	      1916	80001b04	4002d7b3	sra	x15,x5,x0	  x5:0x000050ce  x0:0x00000000 x15=0x000050ce
       19185000	      1917	80001b08	f54ac893	xori	x17,x21,-172	 x21:0xfabffe00 x17=0x05400154
       19195000	      1918	80001b0c	02802437	lui	x8,0x2802	  x8=0x02802000
       19205000	      1919	80001b10	01289413	slli	x8,x17,0x12	 x17:0x05400154  x8=0x05500000
       19215000	      1920	80001b14	cbd76b13	ori	x22,x14,-835	 x14:0x8eb6d120 x22=0xfffffdbd
       19225000	      1921	80001b18	014ae233	or	x4,x21,x20	 x21:0xfabffe00 x20:0x00000001  x4=0xfabffe01
       19235000	      1922	80001b1c	009a4d33	xor	x26,x20,x9	 x20:0x00000001  x9:0x7558fae0 x26=0x7558fae1
       19245000	      1923	80001b20	94d03437	lui	x8,0x94d03	  x8=0x94d03000
       19255000	      1924	80001b24	00000013	addi	x0,x0,0	  x0:0x00000000
       19265000	      1925	80001b28	9c432493	slti	x9,x6,-1596	  x6:0x80009fe7  x9=0x00000001
       19275000	      1926	80001b2c	0155d893	srli	x17,x11,0x15	 x11:0x80009fc4 x17=0x00000400
       19285000	      1927	80001b30	004678b3	and	x17,x12,x4	 x12:0xfabffe00  x4:0xfabffe01 x17=0xfabffe00
       19295000	      1928	80001b34	d943ba17	auipc	x20,0xd943b	 x20=0x5943cb30
       19305000	      1929	80001b38	03ceea63	bltu	x29,x28,80001b6c	 x29:0x00000001 x28:0x00000001
       19315000	      1930	80001b3c	0109a8b3	slt	x17,x19,x16	 x19:0x05400000 x16:0x00000000 x17=0x00000000
       19325000	      1931	80001b40	e4ea3a13	sltiu	x20,x20,-434	 x20:0x5943cb30 x20=0x00000001
       19335000	      1932	80001b44	01435f33	srl	x30,x6,x20	  x6:0x80009fe7 x20:0x00000001 x30=0x40004ff3
       19345000	      1933	80001b48	d901b337	lui	x6,0xd901b	  x6=0xd901b000
       19355000	      1934	80001b4c	01ccd113	srli	x2,x25,0x1c	 x25:0x8004fa7f  x2=0x00000008
       19365000	      1935	80001b50	01e30c63	beq	x6,x30,80001b68	  x6:0xd901b000 x30:0x40004ff3
       19375000	      1936	80001b54	0013db13	srli	x22,x7,0x1	  x7:0xffffff68 x22=0x7fffffb4
       19385000	      1937	80001b58	403700b3	sub	x1,x14,x3	 x14:0x8eb6d120  x3:0x25b07000  x1=0x69066120
       19395000	      1938	80001b5c	01986463	bltu	x16,x25,80001b64	 x16:0x00000000 x25:0x8004fa7f
       19405000	      1939	00000000	00000013	addi	x0,x0,0	  x0:0x00000000
       19415000	      1940	80001b60	00000013	addi	x0,x0,0	  x0:0x00000000
       19425000	      1941	80001b64	006ced33	or	x26,x25,x6	 x25:0x8004fa7f  x6:0xd901b000 x26=0xd905fa7f
       19435000	      1942	80001b68	41758233	sub	x4,x11,x23	 x11:0x80009fc4 x23:0x0000000d  x4=0x80009fb7
       19445000	      1943	80001b6c	01b238b3	sltu	x17,x4,x27	  x4:0x80009fb7 x27:0xfabffe00 x17=0x00000001
       19455000	      1944	80001b70	003b5663	bge	x22,x3,80001b7c	 x22:0x7fffffb4  x3:0x25b07000
       19465000	      1945	00000000	00000013	addi	x0,x0,0	  x0:0x00000000
       19475000	      1946	80001b78	00000013	addi	x0,x0,0	  x0:0x00000000
       19485000	      1947	80001b7c	013c6133	or	x2,x24,x19	 x24:0x000005b8 x19:0x05400000  x2=0x054005b8
       19495000	      1948	80001b80	af87ca13	xori	x20,x15,-1288	 x15:0x000050ce x20=0xffffaa36
       19505000	      1949	80001b84	01b68c63	beq	x13,x27,80001b9c	 x13:0x7fff6103 x27:0xfabffe00
       19515000	      1950	80001b88	4199d093	srai	x1,x19,0x19	 x19:0x05400000  x1=0x00000002
       19525000	      1951	80001b8c	04c39063	bne	x7,x12,80001bcc	  x7:0xffffff68 x12:0xfabffe00
       19535000	      1952	00000000	00000013	addi	x0,x0,0	  x0:0x00000000
       19545000	      1953	80001bc8	00000013	addi	x0,x0,0	  x0:0x00000000
       19555000	      1954	80001bcc	01342833	slt	x16,x8,x19	  x8:0x94d03000 x19:0x05400000 x16=0x00000001
       19565000	      1955	80001bd0	009c4c63	blt	x24,x9,80001be8	 x24:0x000005b8  x9:0x00000001
       19575000	      1956	80001bd4	41afdc93	srai	x25,x31,0x1a	 x31:0xfffffcf2 x25=0xffffffff
       19585000	      1957	80001bd8	5bf1b613	sltiu	x12,x3,1471	  x3:0x25b07000 x12=0x00000000
       19595000	      1958	80001bdc	00be9a93	slli	x21,x29,0xb	 x29:0x00000001 x21=0x00000800
       19605000	      1959	80001be0	02197e63	bgeu	x18,x1,80001c1c	 x18:0x00000876  x1:0x00000002
       19615000	      1960	00000000	00000013	addi	x0,x0,0	  x0:0x00000000
       19625000	      1961	80001c18	00000013	addi	x0,x0,0	  x0:0x00000000
       19635000	      1962	80001c1c	00145e33	srl	x28,x8,x1	  x8:0x94d03000  x1:0x00000002 x28=0x25340c00
       19645000	      1963	80001c20	aca4f8b7	lui	x17,0xaca4f	 x17=0xaca4f000
       19655000	      1964	80001c24	40365613	srai	x12,x12,0x3	 x12:0x00000000 x12=0x00000000
       19665000	      1965	80001c28	04eec863	blt	x29,x14,80001c78	 x29:0x00000001 x14:0x8eb6d120
       19675000	      1966	80001c2c	00669c13	slli	x24,x13,0x6	 x13:0x7fff6103 x24=0xffd840c0
       19685000	      1967	80001c30	0172d093	srli	x1,x5,0x17	  x5:0x000050ce  x1=0x00000000
       19695000	      1968	80001c34	0108f433	and	x8,x17,x16	 x17:0xaca4f000 x16:0x00000001  x8=0x00000000
       19705000	      1969	80001c38	00f3d413	srli	x8,x7,0xf	  x7:0xffffff68  x8=0x0001ffff
       19715000	      1970	80001c3c	00044733	xor	x14,x8,x0	  x8:0x0001ffff  x0:0x00000000 x14=0x0001ffff
       19725000	      1971	80001c40	03efce63	blt	x31,x30,80001c7c	 x31:0xfffffcf2 x30:0x40004ff3
       19735000	      1972	00000000	00000013	addi	x0,x0,0	  x0:0x00000000
       19745000	      1973	80001c78	00000013	addi	x0,x0,0	  x0:0x00000000
       19755000	      1974	80001c7c	00dbfc63	bgeu	x23,x13,80001c94	 x23:0x0000000d x13:0x7fff6103
       19765000	      1975	80001c80	01efc7b3	xor	x15,x31,x30	 x31:0xfffffcf2 x30:0x40004ff3 x15=0xbfffb301
       19775000	      1976	80001c84	01c49c63	bne	x9,x28,80001c9c	  x9:0x00000001 x28:0x25340c00
       19785000	      1977	00000000	00000013	addi	x0,x0,0	  x0:0x00000000
       19795000	      1978	80001c98	00000013	addi	x0,x0,0	  x0:0x00000000
       19805000	      1979	80001c9c	a0924393	xori	x7,x4,-1527	  x4:0x80009fb7  x7=0x7fff65be
       19815000	      1980	80001ca0	477e7d93	andi	x27,x28,1143	 x28:0x25340c00 x27=0x00000400
       19825000	      1981	80001ca4	005ab9b3	sltu	x19,x21,x5	 x21:0x00000800  x5:0x000050ce x19=0x00000001
       19835000	      1982	80001ca8	26a9a893	slti	x17,x19,618	 x19:0x00000001 x17=0x00000001
       19845000	      1983	80001cac	00394a33	xor	x20,x18,x3	 x18:0x00000876  x3:0x25b07000 x20=0x25b07876
       19855000	      1984	80001cb0	00d0b3b3	sltu	x7,x1,x13	  x1:0x00000000 x13:0x7fff6103  x7=0x00000001
       19865000	      1985	80001cb4	00000013	addi	x0,x0,0	  x0:0x00000000
       19875000	      1986	80001cb8	46e97113	andi	x2,x18,1134	 x18:0x00000876  x2=0x00000066
       19885000	      1987	80001cbc	00000013	addi	x0,x0,0	  x0:0x00000000
       19895000	      1988	80001cc0	ddde86b7	lui	x13,0xddde8	 x13=0xddde8000
       19905000	      1989	80001cc4	00000013	addi	x0,x0,0	  x0:0x00000000
       19915000	      1990	80001cc8	60ee7493	andi	x9,x28,1550	 x28:0x25340c00  x9=0x00000400
       19925000	      1991	80001ccc	408b5333	sra	x6,x22,x8	 x22:0x7fffffb4  x8:0x0001ffff  x6=0x00000000
       19935000	      1992	80001cd0	41448b33	sub	x22,x9,x20	  x9:0x00000400 x20:0x25b07876 x22=0xda4f8b8a
       19945000	      1993	80001cd4	765f2a93	slti	x21,x30,1893	 x30:0x40004ff3 x21=0x00000000
       19955000	      1994	80001cd8	413f5c93	srai	x25,x30,0x13	 x30:0x40004ff3 x25=0x00000800
       19965000	      1995	80001cdc	5a302093	slti	x1,x0,1443	  x0:0x00000000  x1=0x00000001
       19975000	      1996	80001ce0	40be0c33	sub	x24,x28,x11	 x28:0x25340c00 x11:0x80009fc4 x24=0xa5336c3c
       19985000	      1997	80001ce4	01437e63	bgeu	x6,x20,80001d00	  x6:0x00000000 x20:0x25b07876
       19995000	      1998	80001ce8	0244da63	bge	x9,x4,80001d1c	  x9:0x00000400  x4:0x80009fb7
       20005000	      1999	00000000	00000013	addi	x0,x0,0	  x0:0x00000000
       20015000	      2000	80001d18	00000013	addi	x0,x0,0	  x0:0x00000000
       20025000	      2001	80001d1c	02c7d263	bge	x15,x12,80001d40	 x15:0xbfffb301 x12:0x00000000
       20035000	      2002	80001d20	00ffb433	sltu	x8,x31,x15	 x31:0xfffffcf2 x15:0xbfffb301  x8=0x00000000
       20045000	      2003	80001d24	02228063	beq	x5,x2,80001d44	  x5:0x000050ce  x2:0x00000066
       20055000	      2004	80001d28	039c8463	beq	x25,x25,80001d50	 x25:0x00000800 x25:0x00000800
       20065000	      2005	00000000	00000013	addi	x0,x0,0	  x0:0x00000000
       20075000	      2006	80001d4c	00000013	addi	x0,x0,0	  x0:0x00000000
       20085000	      2007	80001d50	05bec063	blt	x29,x27,80001d90	 x29:0x00000001 x27:0x00000400
       20095000	      2008	00000000	00000013	addi	x0,x0,0	  x0:0x00000000
       20105000	      2009	80001d8c	00000013	addi	x0,x0,0	  x0:0x00000000
       20115000	      2010	80001d90	00000013	addi	x0,x0,0	  x0:0x00000000
       20125000	      2011	80001d94	078f8e13	addi	x28,x31,120	 x31:0xfffffcf2 x28=0xfffffd6a
       20135000	      2012	80001d98	412fdf93	srai	x31,x31,0x12	 x31:0xfffffcf2 x31=0xffffffff
       20145000	      2013	80001d9c	b071a113	slti	x2,x3,-1273	  x3:0x25b07000  x2=0x00000000
       20155000	      2014	80001da0	15a0b813	sltiu	x16,x1,346	  x1:0x00000001 x16=0x00000001
       20165000	      2015	80001da4	017b3e33	sltu	x28,x22,x23	 x22:0xda4f8b8a x23:0x0000000d x28=0x00000000
       20175000	      2016	80001da8	40ca8ab3	sub	x21,x21,x12	 x21:0x00000000 x12:0x00000000 x21=0x00000000
       20185000	      2017	80001dac	01fc7463	bgeu	x24,x31,80001db4	 x24:0xa5336c3c x31:0xffffffff
       20195000	      2018	80001db0	c45d4293	xori	x5,x26,-955	 x26:0xd905fa7f  x5=0x26fa063a
       20205000	      2019	80001db4	016218b3	sll	x17,x4,x22	  x4:0x80009fb7 x22:0xda4f8b8a x17=0x027edc00
       20215000	      2020	80001db8	018193b3	sll	x7,x3,x24	  x3:0x25b07000 x24:0xa5336c3c  x7=0x00000000
       20225000	      2021	80001dbc	40d7d613	srai	x12,x15,0xd	 x15:0xbfffb301 x12=0xfffdfffd
       20235000	      2022	80001dc0	05874263	blt	x14,x24,80001e04	 x14:0x0001ffff x24:0xa5336c3c
       20245000	      2023	80001dc4	40885493	srai	x9,x16,0x8	 x16:0x00000001  x9=0x00000000
       20255000	      2024	80001dc8	0135cc63	blt	x11,x19,80001de0	 x11:0x80009fc4 x19:0x00000001
       20265000	      2025	00000000	00000013	addi	x0,x0,0	  x0:0x00000000
       20275000	      2026	80001ddc	00000013	addi	x0,x0,0	  x0:0x00000000
       20285000	      2027	80001de0	01cad833	srl	x16,x21,x28	 x21:0x00000000 x28:0x00000000 x16=0x00000000
       20295000	      2028	80001de4	0187efb3	or	x31,x15,x24	 x15:0xbfffb301 x24:0xa5336c3c x31=0xbfffff3d
       20305000	      2029	80001de8	00f7bf33	sltu	x30,x15,x15	 x15:0xbfffb301 x15:0xbfffb301 x30=0x00000000
       20315000	      2030	80001dec	0416f663	bgeu	x13,x1,80001e38	 x13:0xddde8000  x1:0x00000001
       20325000	      2031	00000000	00000013	addi	x0,x0,0	  x0:0x00000000
       20335000	      2032	80001e34	00000013	addi	x0,x0,0	  x0:0x00000000
       20345000	      2033	80001e38	01e7d4b3	srl	x9,x15,x30	 x15:0xbfffb301 x30:0x00000000  x9=0xbfffb301
       20355000	      2034	80001e3c	2e553117	auipc	x2,0x2e553	  x2=0xae554e38
       20365000	      2035	80001e40	03661263	bne	x12,x22,80001e64	 x12:0xfffdfffd x22:0xda4f8b8a
       20375000	      2036	00000000	00000013	addi	x0,x0,0	  x0:0x00000000
       20385000	      2037	80001e60	00000013	addi	x0,x0,0	  x0:0x00000000
       20395000	      2038	80001e64	43bf3eb7	lui	x29,0x43bf3	 x29=0x43bf3000
       20405000	      2039	80001e68	01fdd9b3	srl	x19,x27,x31	 x27:0x00000400 x31:0xbfffff3d x19=0x00000000
       20415000	      2040	80001e6c	03dede63	bge	x29,x29,80001ea8	 x29:0x43bf3000 x29:0x43bf3000
       20425000	      2041	00000000	00000013	addi	x0,x0,0	  x0:0x00000000
       20435000	      2042	80001ea4	00000013	addi	x0,x0,0	  x0:0x00000000
       20445000	      2043	80001ea8	019b2733	slt	x14,x22,x25	 x22:0xda4f8b8a x25:0x00000800 x14=0x00000001
       20455000	      2044	80001eac	8ed43293	sltiu	x5,x8,-1811	  x8:0x00000000  x5=0x00000001
       20465000	      2045	80001eb0	00000013	addi	x0,x0,0	  x0:0x00000000
       20475000	      2046	80001eb4	b9a77a93	andi	x21,x14,-1126	 x14:0x00000001 x21=0x00000000
       20485000	      2047	80001eb8	01e87463	bgeu	x16,x30,80001ec0	 x16:0x00000000 x30:0x00000000
       20495000	      2048	00000000	00000013	addi	x0,x0,0	  x0:0x00000000
       20505000	      2049	80001ebc	00000013	addi	x0,x0,0	  x0:0x00000000
       20515000	      2050	80001ec0	40b35e93	srai	x29,x6,0xb	  x6:0x00000000 x29=0x00000000
       20525000	      2051	80001ec4	05e6d863	bge	x13,x30,80001f14	 x13:0xddde8000 x30:0x00000000
       20535000	      2052	80001ec8	01145a33	srl	x20,x8,x17	  x8:0x00000000 x17:0x027edc00 x20=0x00000000
       20545000	      2053	80001ecc	7d3da493	slti	x9,x27,2003	 x27:0x00000400  x9=0x00000001
       20555000	      2054	80001ed0	00f06463	bltu	x0,x15,80001ed8	  x0:0x00000000 x15:0xbfffb301
       20565000	      2055	00000000	00000013	addi	x0,x0,0	  x0:0x00000000
       20575000	      2056	80001ed4	00000013	addi	x0,x0,0	  x0:0x00000000
       20585000	      2057	80001ed8	3f5d6993	ori	x19,x26,1013	 x26:0xd905fa7f x19=0xd905fbff
       20595000	      2058	80001edc	6f25e493	ori	x9,x11,1778	 x11:0x80009fc4  x9=0x80009ff6
       20605000	      2059	80001ee0	007fde13	srli	x28,x31,0x7	 x31:0xbfffff3d x28=0x017ffffe
       20615000	      2060	80001ee4	ac702b17	auipc	x22,0xac702	 x22=0x2c703ee0
       20625000	      2061	80001ee8	9d2eea93	ori	x21,x29,-1582	 x29:0x00000000 x21=0xfffff9d2
       20635000	      2062	80001eec	019023b3	slt	x7,x0,x25	  x0:0x00000000 x25:0x00000800  x7=0x00000001
       20645000	      2063	80001ef0	7a68ad37	lui	x26,0x7a68a	 x26=0x7a68a000
       20655000	      2064	80001ef4	03995c63	bge	x18,x25,80001f2c	 x18:0x00000876 x25:0x00000800
       20665000	      2065	00000000	00000013	addi	x0,x0,0	  x0:0x00000000
       20675000	      2066	80001f28	00000013	addi	x0,x0,0	  x0:0x00000000
       20685000	      2067	80001f2c	ee48b813	sltiu	x16,x17,-284	 x17:0x027edc00 x16=0x00000001
       20695000	      2068	80001f30	3fb42a13	slti	x20,x8,1019	  x8:0x00000000 x20=0x00000001
       20705000	      2069	80001f34	0058ffb3	and	x31,x17,x5	 x17:0x027edc00  x5:0x00000001 x31=0x00000000
       20715000	      2070	80001f38	001b7e63	bgeu	x22,x1,80001f54	 x22:0x2c703ee0  x1:0x00000001
       20725000	      2071	00000000	00000013	addi	x0,x0,0	  x0:0x00000000
       20735000	      2072	80001f50	00000013	addi	x0,x0,0	  x0:0x00000000
       20745000	      2073	80001f54	01e45d13	srli	x26,x8,0x1e	  x8:0x00000000 x26=0x00000000
       20755000	      2074	80001f58	01a11893	slli	x17,x2,0x1a	  x2:0xae554e38 x17=0xe0000000
       20765000	      2075	80001f5c	00b25133	srl	x2,x4,x11	  x4:0x80009fb7 x11:0x80009fc4  x2=0x080009fb
       20775000	      2076	80001f60	017af033	and	x0,x21,x23	 x21:0xfffff9d2 x23:0x0000000d
       20785000	      2077	80001f64	01ca9a93	slli	x21,x21,0x1c	 x21:0xfffff9d2 x21=0x20000000
       20795000	      2078	80001f68	403804b3	sub	x9,x16,x3	 x16:0x00000001  x3:0x25b07000  x9=0xda4f9001
       20805000	      2079	80001f6c	014224b3	slt	x9,x4,x20	  x4:0x80009fb7 x20:0x00000001  x9=0x00000001
       20815000	      2080	80001f70	012856b3	srl	x13,x16,x18	 x16:0x00000001 x18:0x00000876 x13=0x00000000
       20825000	      2081	80001f74	00aa5e63	bge	x20,x10,80001f90	 x20:0x00000001 x10:0x80009f24
       20835000	      2082	00000000	00000013	addi	x0,x0,0	  x0:0x00000000
       20845000	      2083	80001f8c	00000013	addi	x0,x0,0	  x0:0x00000000
       20855000	      2084	80001f90	002e4833	xor	x16,x28,x2	 x28:0x017ffffe  x2:0x080009fb x16=0x097ff605
       20865000	      2085	80001f94	019be033	or	x0,x23,x25	 x23:0x0000000d x25:0x00000800
       20875000	      2086	80001f98	00e32133	slt	x2,x6,x14	  x6:0x00000000 x14:0x00000001  x2=0x00000001
       20885000	      2087	80001f9c	00452a03	lw	x20,4(x10)	 x10:0x80009f24 x20=0x80005110 PA:0x80009f28
       20895000	      2088	00000000	00000013	addi	x0,x0,0	  x0:0x00000000
       20905000	      2089	80001fa0	801a0613	addi	x12,x20,-2047	 x20:0x80005110 x12=0x80004911
       20915000	      2090	80001fa4	403b0c33	sub	x24,x22,x3	 x22:0x2c703ee0  x3:0x25b07000 x24=0x06bfcee0
       20925000	      2091	80001fa8	02050513	addi	x10,x10,32	 x10:0x80009f24 x10=0x80009f44
       20935000	      2092	80001fac	8b0eb913	sltiu	x18,x29,-1872	 x29:0x00000000 x18=0x00000001
       20945000	      2093	80001fb0	000a0713	addi	x14,x20,0	 x20:0x80005110 x14=0x80005110
       20955000	      2094	80001fb4	00070767	jalr	x14,x14,0	 x14:0x80005110 x14=0x80001fb4
       20965000	      2095	00000000	00000013	addi	x0,x0,0	  x0:0x00000000
       20975000	      2096	80005110	00000013	addi	x0,x0,0	  x0:0x00000000
       20985000	      2097	80005114	00f3f6b3	and	x13,x7,x15	  x7:0x00000001 x15:0xbfffb301 x13=0x00000001
       20995000	      2098	80005118	6091ab13	slti	x22,x3,1545	  x3:0x25b07000 x22=0x00000000
       21005000	      2099	8000511c	26fb3637	lui	x12,0x26fb3	 x12=0x26fb3000
       21015000	      2100	80005120	31681917	auipc	x18,0x31681	 x18=0xb168611c
       21025000	      2101	80005124	14193993	sltiu	x19,x18,321	 x18:0xb168611c x19=0x00000000
       21035000	      2102	80005128	01cfda63	bge	x31,x28,8000513c	 x31:0x00000000 x28:0x017ffffe
       21045000	      2103	8000512c	41b15c13	srai	x24,x2,0x1b	  x2:0x00000001 x24=0x00000000
       21055000	      2104	80005130	a98b3693	sltiu	x13,x22,-1384	 x22:0x00000000 x13=0x00000001
       21065000	      2105	80005134	01cbe8b3	or	x17,x23,x28	 x23:0x0000000d x28:0x017ffffe x17=0x017fffff
       21075000	      2106	80005138	78674013	xori	x0,x14,1926	 x14:0x80001fb4
       21085000	      2107	8000513c	47400a6f	jal	x20,8000513c	 x20=0x8000513c
       21095000	      2108	00000000	00000013	addi	x0,x0,0	  x0:0x00000000
       21105000	      2109	800055ac	00000013	addi	x0,x0,0	  x0:0x00000000
       21115000	      2110	800055b0	b70d0e93	addi	x29,x26,-1168	 x26:0x00000000 x29=0xfffffb70
       21125000	      2111	800055b4	01845863	bge	x8,x24,800055c4	  x8:0x00000000 x24:0x00000000
       21135000	      2112	00000000	00000013	addi	x0,x0,0	  x0:0x00000000
       21145000	      2113	800055c0	00000013	addi	x0,x0,0	  x0:0x00000000
       21155000	      2114	800055c4	fec50513	addi	x10,x10,-20	 x10:0x80009f44 x10=0x80009f30
       21165000	      2115	800055c8	fc017697	auipc	x13,0xfc017	 x13=0x7c01c5c4
       21175000	      2116	800055cc	707a2413	slti	x8,x20,1799	 x20:0x8000513c  x8=0x00000001
       21185000	      2117	800055d0	01452223	sw	x20,4(x10)	 x10:0x80009f30 x20:0x8000513c PA:0x80009f34
       21195000	      2118	800055d4	c6622793	slti	x15,x4,-922	  x4:0x80009fb7 x15=0x00000001
       21205000	      2119	800055d8	41d45393	srai	x7,x8,0x1d	  x8:0x00000001  x7=0x00000000
       21215000	      2120	800055dc	00954133	xor	x2,x10,x9	 x10:0x80009f30  x9:0x00000001  x2=0x80009f31
       21225000	      2121	800055e0	00003117	auipc	x2,0x3	  x2=0x800085dc
       21235000	      2122	800055e4	59010113	addi	x2,x2,1424	  x2:0x800085dc  x2=0x80008b6c
       21245000	      2123	800055e8	00a11683	lh	x13,10(x2)	  x2:0x80008b6c x13=0xffffb4a4 PA:0x80008b76
       21255000	      2124	800055ec	01610523	sb	x22,10(x2)	  x2:0x80008b6c x22:0x00000000 PA:0x80008b76
       21265000	      2125	800055f0	ffb10303	lb	x6,-5(x2)	  x2:0x80008b6c  x6=0x0000003f PA:0x80008b67
       21275000	      2126	800055f4	ff412a23	sw	x20,-12(x2)	  x2:0x80008b6c x20:0x8000513c PA:0x80008b60
       21285000	      2127	800055f8	fda15403	lhu	x8,-38(x2)	  x2:0x80008b6c  x8=0x00001dbb PA:0x80008b46
       21295000	      2128	800055fc	90f3fc13	andi	x24,x7,-1777	  x7:0x00000000 x24=0x00000000
       21305000	      2129	80005600	ff912823	sw	x25,-16(x2)	  x2:0x80008b6c x25:0x00000800 PA:0x80008b5c
       21315000	      2130	80005604	00bba0b3	slt	x1,x23,x11	 x23:0x0000000d x11:0x80009fc4  x1=0x00000000
       21325000	      2131	80005608	00610703	lb	x14,6(x2)	  x2:0x80008b6c x14=0x00000042 PA:0x80008b72
       21335000	      2132	8000560c	412ade13	srai	x28,x21,0x12	 x21:0x20000000 x28=0x00000800
       21345000	      2133	80005610	ff510da3	sb	x21,-5(x2)	  x2:0x80008b6c x21:0x20000000 PA:0x80008b67
       21355000	      2134	80005614	00000013	addi	x0,x0,0	  x0:0x00000000
       21365000	      2135	80005618	fc910823	sb	x9,-48(x2)	  x2:0x80008b6c  x9:0x00000001 PA:0x80008b3c
       21375000	      2136	8000561c	ff6100a3	sb	x22,-31(x2)	  x2:0x80008b6c x22:0x00000000 PA:0x80008b4d
       21385000	      2137	80005620	02910e23	sb	x9,60(x2)	  x2:0x80008b6c  x9:0x00000001 PA:0x80008ba8
       21395000	      2138	80005624	00290033	add	x0,x18,x2	 x18:0xb168611c  x2:0x80008b6c
       21405000	      2139	80005628	cf15fb13	andi	x22,x11,-783	 x11:0x80009fc4 x22=0x80009cc0
       21415000	      2140	8000562c	ffd14203	lbu	x4,-3(x2)	  x2:0x80008b6c  x4=0x0000007b PA:0x80008b69
       21425000	      2141	80005630	03710303	lb	x6,55(x2)	  x2:0x80008b6c  x6=0xfffffffc PA:0x80008ba3
       21435000	      2142	80005634	010f93b3	sll	x7,x31,x16	 x31:0x00000000 x16:0x097ff605  x7=0x00000000
       21445000	      2143	80005638	0025ba33	sltu	x20,x11,x2	 x11:0x80009fc4  x2:0x80008b6c x20=0x00000000
       21455000	      2144	8000563c	02914703	lbu	x14,41(x2)	  x2:0x80008b6c x14=0x000000f5 PA:0x80008b95
       21465000	      2145	80005640	02111f23	sh	x1,62(x2)	  x2:0x80008b6c  x1:0x00000000 PA:0x80008baa
       21475000	      2146	80005644	ff210c23	sb	x18,-8(x2)	  x2:0x80008b6c x18:0xb168611c PA:0x80008b64
       21485000	      2147	80005648	ffc108a3	sb	x28,-15(x2)	  x2:0x80008b6c x28:0x00000800 PA:0x80008b5d
       21495000	      2148	8000564c	01ab3233	sltu	x4,x22,x26	 x22:0x80009cc0 x26:0x00000000  x4=0x00000000
       21505000	      2149	80005650	01114683	lbu	x13,17(x2)	  x2:0x80008b6c x13=0x00000036 PA:0x80008b7d
       21515000	      2150	80005654	fe3101a3	sb	x3,-29(x2)	  x2:0x80008b6c  x3:0x25b07000 PA:0x80008b4f
       21525000	      2151	80005658	03d10183	lb	x3,61(x2)	  x2:0x80008b6c  x3=0xffffffe3 PA:0x80008ba9
       21535000	      2152	8000565c	03b10003	lb	x0,59(x2)	  x2:0x80008b6c PA:0x80008ba7
       21545000	      2153	80005660	00de8433	add	x8,x29,x13	 x29:0xfffffb70 x13:0x00000036  x8=0xfffffba6
       21555000	      2154	80005664	00114183	lbu	x3,1(x2)	  x2:0x80008b6c  x3=0x000000fb PA:0x80008b6d
       21565000	      2155	80005668	fec10ca3	sb	x12,-7(x2)	  x2:0x80008b6c x12:0x26fb3000 PA:0x80008b65
       21575000	      2156	8000566c	00003117	auipc	x2,0x3	  x2=0x80008668
       21585000	      2157	80005670	ff810113	addi	x2,x2,-8	  x2:0x80008668  x2=0x80008660
       21595000	      2158	80005674	fff11823	sh	x31,-16(x2)	  x2:0x80008660 x31:0x00000000 PA:0x80008650
       21605000	      2159	80005678	00314703	lbu	x14,3(x2)	  x2:0x80008660 x14=0x00000078 PA:0x80008663
       21615000	      2160	8000567c	27e18013	addi	x0,x3,638	  x3:0x000000fb
       21625000	      2161	80005680	ffd14203	lbu	x4,-3(x2)	  x2:0x80008660  x4=0x00000002 PA:0x8000865d
       21635000	      2162	80005684	b9144613	xori	x12,x8,-1135	  x8:0xfffffba6 x12=0x00000037
       21645000	      2163	80005688	410a57b3	sra	x15,x20,x16	 x20:0x00000000 x16:0x097ff605 x15=0x00000000
       21655000	      2164	8000568c	00310b03	lb	x22,3(x2)	  x2:0x80008660 x22=0x00000078 PA:0x80008663
       21665000	      2165	80005690	fea10b23	sb	x10,-10(x2)	  x2:0x80008660 x10:0x80009f30 PA:0x80008656
       21675000	      2166	80005694	00c10803	lb	x16,12(x2)	  x2:0x80008660 x16=0x00000028 PA:0x8000866c
       21685000	      2167	80005698	00000013	addi	x0,x0,0	  x0:0x00000000
       21695000	      2168	8000569c	01388b33	add	x22,x17,x19	 x17:0x017fffff x19:0x00000000 x22=0x017fffff
       21705000	      2169	800056a0	ffb10803	lb	x16,-5(x2)	  x2:0x80008660 x16=0x00000046 PA:0x8000865b
       21715000	      2170	800056a4	65f0bc13	sltiu	x24,x1,1631	  x1:0x00000000 x24=0x00000001
       21725000	      2171	800056a8	000102a3	sb	x0,5(x2)	  x2:0x80008660  x0:0x00000000 PA:0x80008665
       21735000	      2172	800056ac	0031beb3	sltu	x29,x3,x3	  x3:0x000000fb  x3:0x000000fb x29=0x00000000
       21745000	      2173	800056b0	00000013	addi	x0,x0,0	  x0:0x00000000
       21755000	      2174	800056b4	2dabef93	ori	x31,x23,730	 x23:0x0000000d x31=0x000002df
       21765000	      2175	800056b8	01b74933	xor	x18,x14,x27	 x14:0x00000078 x27:0x00000400 x18=0x00000478
       21775000	      2176	800056bc	01b6c733	xor	x14,x13,x27	 x13:0x00000036 x27:0x00000400 x14=0x00000436
       21785000	      2177	800056c0	00110203	lb	x4,1(x2)	  x2:0x80008660  x4=0x00000064 PA:0x80008661
       21795000	      2178	800056c4	d1d97093	andi	x1,x18,-739	 x18:0x00000478  x1=0x00000418
       21805000	      2179	800056c8	00c102a3	sb	x12,5(x2)	  x2:0x80008660 x12:0x00000037 PA:0x80008665
       21815000	      2180	800056cc	00000013	addi	x0,x0,0	  x0:0x00000000
       21825000	      2181	800056d0	00d14c83	lbu	x25,13(x2)	  x2:0x80008660 x25=0x000000b1 PA:0x8000866d
       21835000	      2182	800056d4	01fdcd33	xor	x26,x27,x31	 x27:0x00000400 x31:0x000002df x26=0x000006df
       21845000	      2183	800056d8	00301413	slli	x8,x0,0x3	  x0:0x00000000  x8=0x00000000
       21855000	      2184	800056dc	ff614f03	lbu	x30,-10(x2)	  x2:0x80008660 x30=0x00000030 PA:0x80008656
       21865000	      2185	800056e0	ff610d83	lb	x27,-10(x2)	  x2:0x80008660 x27=0x00000030 PA:0x80008656
       21875000	      2186	800056e4	00615a03	lhu	x20,6(x2)	  x2:0x80008660 x20=0x00002d2e PA:0x80008666
       21885000	      2187	800056e8	00810723	sb	x8,14(x2)	  x2:0x80008660  x8:0x00000000 PA:0x8000866e
       21895000	      2188	800056ec	00003f97	auipc	x31,0x3	 x31=0x800086e8
       21905000	      2189	800056f0	c23f8f93	addi	x31,x31,-989	 x31:0x800086e8 x31=0x8000830b
       21915000	      2190	800056f4	01099493	slli	x9,x19,0x10	 x19:0x00000000  x9=0x00000000
       21925000	      2191	800056f8	11c530b7	lui	x1,0x11c53	  x1=0x11c53000
       21935000	      2192	800056fc	01201993	slli	x19,x0,0x12	  x0:0x00000000 x19=0x00000000
       21945000	      2193	80005700	00c99993	slli	x19,x19,0xc	 x19:0x00000000 x19=0x00000000
       21955000	      2194	80005704	0e1fa903	lw	x18,225(x31)	 x31:0x8000830b x18=0x9607a8eb PA:0x800083ec
       21965000	      2195	80005708	00000013	addi	x0,x0,0	  x0:0x00000000
       21975000	      2196	8000570c	f0bf99a3	sh	x11,-237(x31)	 x31:0x8000830b x11:0x80009fc4 PA:0x8000821e
       21985000	      2197	80005710	9470c093	xori	x1,x1,-1721	  x1:0x11c53000  x1=0xee3ac947
       21995000	      2198	80005714	fddf9a03	lh	x20,-35(x31)	 x31:0x8000830b x20=0xffffa64d PA:0x800082e8
       22005000	      2199	80005718	0c2fa4a3	sw	x2,201(x31)	 x31:0x8000830b  x2:0x80008660 PA:0x800083d4
       22015000	      2200	8000571c	7189ab13	slti	x22,x19,1816	 x19:0x00000000 x22=0x00000001
       22025000	      2201	80005720	1f6a9937	lui	x18,0x1f6a9	 x18=0x1f6a9000
       22035000	      2202	80005724	f44fcd03	lbu	x26,-188(x31)	 x31:0x8000830b x26=0x000000ef PA:0x8000824f
       22045000	      2203	00000000	00000013	addi	x0,x0,0	  x0:0x00000000
       22055000	      2204	80005728	010d5893	srli	x17,x26,0x10	 x26:0x000000ef x17=0x00000000
       22065000	      2205	8000572c	0d0f8d23	sb	x16,218(x31)	 x31:0x8000830b x16:0x00000046 PA:0x800083e5
       22075000	      2206	80005730	fb6fc783	lbu	x15,-74(x31)	 x31:0x8000830b x15=0x0000004e PA:0x800082c1
       22085000	      2207	80005734	019f9893	slli	x17,x31,0x19	 x31:0x8000830b x17=0x16000000
       22095000	      2208	80005738	6b4a8613	addi	x12,x21,1716	 x21:0x20000000 x12=0x200006b4
       22105000	      2209	8000573c	fb8f8883	lb	x17,-72(x31)	 x31:0x8000830b x17=0x0000007a PA:0x800082c3
       22115000	      2210	80005740	fcdfaa83	lw	x21,-51(x31)	 x31:0x8000830b x21=0xa6ec1e10 PA:0x800082d8
       22125000	      2211	80005744	f5649a97	auipc	x21,0xf5649	 x21=0x7564e740
       22135000	      2212	80005748	f86fc803	lbu	x16,-122(x31)	 x31:0x8000830b x16=0x00000058 PA:0x80008291
       22145000	      2213	8000574c	0120c933	xor	x18,x1,x18	  x1:0xee3ac947 x18:0x1f6a9000 x18=0xf1505947
       22155000	      2214	80005750	0bef8203	lb	x4,190(x31)	 x31:0x8000830b  x4=0x0000004a PA:0x800083c9
       22165000	      2215	80005754	0a153713	sltiu	x14,x10,161	 x10:0x80009f30 x14=0x00000000
       22175000	      2216	80005758	ff2fcd83	lbu	x27,-14(x31)	 x31:0x8000830b x27=0x000000da PA:0x800082fd
       22185000	      2217	8000575c	20cc4497	auipc	x9,0x20cc4	  x9=0xa0cc9758
       22195000	      2218	80005760	71fcbe13	sltiu	x28,x25,1823	 x25:0x000000b1 x28=0x00000001
       22205000	      2219	80005764	008e2eb3	slt	x29,x28,x8	 x28:0x00000001  x8:0x00000000 x29=0x00000000
       22215000	      2220	80005768	f8bf8523	sb	x11,-118(x31)	 x31:0x8000830b x11:0x80009fc4 PA:0x80008295
       22225000	      2221	8000576c	04ff8d83	lb	x27,79(x31)	 x31:0x8000830b x27=0xffffffb1 PA:0x8000835a
       22235000	      2222	80005770	fdafcd83	lbu	x27,-38(x31)	 x31:0x8000830b x27=0x00000036 PA:0x800082e5
       22245000	      2223	80005774	068f8023	sb	x8,96(x31)	 x31:0x8000830b  x8:0x00000000 PA:0x8000836b
       22255000	      2224	80005778	076f8b03	lb	x22,118(x31)	 x31:0x8000830b x22=0x00000049 PA:0x80008381
       22265000	      2225	8000577c	07bee093	ori	x1,x29,123	 x29:0x00000000  x1=0x0000007b
       22275000	      2226	80005780	07cf9aa3	sh	x28,117(x31)	 x31:0x8000830b x28:0x00000001 PA:0x80008380
       22285000	      2227	80005784	9e488eb7	lui	x29,0x9e488	 x29=0x9e488000
       22295000	      2228	80005788	f50f8da3	sb	x16,-165(x31)	 x31:0x8000830b x16:0x00000058 PA:0x80008266
       22305000	      2229	8000578c	7062ac93	slti	x25,x5,1798	  x5:0x00000001 x25=0x00000001
       22315000	      2230	80005790	0dbfc703	lbu	x14,219(x31)	 x31:0x8000830b x14=0x0000003b PA:0x800083e6
       22325000	      2231	80005794	fe3fd783	lhu	x15,-29(x31)	 x31:0x8000830b x15=0x000098d2 PA:0x800082ee
       22335000	      2232	80005798	fe9fd083	lhu	x1,-23(x31)	 x31:0x8000830b  x1=0x0000f083 PA:0x800082f4
       22345000	      2233	8000579c	f04f8a03	lb	x20,-252(x31)	 x31:0x8000830b x20=0x00000079 PA:0x8000820f
       22355000	      2234	800057a0	00000013	addi	x0,x0,0	  x0:0x00000000
       22365000	      2235	800057a4	f98f8303	lb	x6,-104(x31)	 x31:0x8000830b  x6=0x00000062 PA:0x800082a3
       22375000	      2236	800057a8	01df8f23	sb	x29,30(x31)	 x31:0x8000830b x29:0x9e488000 PA:0x80008329
       22385000	      2237	800057ac	03ffce83	lbu	x29,63(x31)	 x31:0x8000830b x29=0x00000082 PA:0x8000834a
       22395000	      2238	800057b0	00003117	auipc	x2,0x3	  x2=0x800087ac
       22405000	      2239	800057b4	a6910113	addi	x2,x2,-1431	  x2:0x800087ac  x2=0x80008215
       22415000	      2240	800057b8	ff414683	lbu	x13,-12(x2)	  x2:0x80008215 x13=0x00000050 PA:0x80008209
       22425000	      2241	00000000	00000013	addi	x0,x0,0	  x0:0x00000000
       22435000	      2242	800057bc	02d11fa3	sh	x13,63(x2)	  x2:0x80008215 x13:0x00000050 PA:0x80008254
       22445000	      2243	800057c0	010140b3	xor	x1,x2,x16	  x2:0x80008215 x16:0x00000058  x1=0x8000824d
       22455000	      2244	800057c4	fed11903	lh	x18,-19(x2)	  x2:0x80008215 x18=0xffffe66e PA:0x80008202
       22465000	      2245	800057c8	fcb15d03	lhu	x26,-53(x2)	  x2:0x80008215 x26=0x00007108 PA:0x800081e0
       22475000	      2246	800057cc	ce65ee93	ori	x29,x11,-794	 x11:0x80009fc4 x29=0xffffffe6
       22485000	      2247	800057d0	5b52bc93	sltiu	x25,x5,1461	  x5:0x00000001 x25=0x00000001
       22495000	      2248	800057d4	fd210883	lb	x17,-46(x2)	  x2:0x80008215 x17=0xffffff98 PA:0x800081e7
       22505000	      2249	800057d8	fd614d03	lbu	x26,-42(x2)	  x2:0x80008215 x26=0x000000c6 PA:0x800081eb
       22515000	      2250	00000000	00000013	addi	x0,x0,0	  x0:0x00000000
       22525000	      2251	800057dc	21a06493	ori	x9,x0,538	  x0:0x00000000  x9=0x0000021a
       22535000	      2252	800057e0	ffd104a3	sb	x29,-23(x2)	  x2:0x80008215 x29:0xffffffe6 PA:0x800081fe
       22545000	      2253	800057e4	ff810a83	lb	x21,-8(x2)	  x2:0x80008215 x21=0x00000040 PA:0x8000820d
       22555000	      2254	800057e8	02110a83	lb	x21,33(x2)	  x2:0x80008215 x21=0xffffffcf PA:0x80008236
       22565000	      2255	800057ec	67eba8b7	lui	x17,0x67eba	 x17=0x67eba000
       22575000	      2256	800057f0	26463713	sltiu	x14,x12,612	 x12:0x200006b4 x14=0x00000000
       22585000	      2257	800057f4	01910083	lb	x1,25(x2)	  x2:0x80008215  x1=0x00000011 PA:0x8000822e
       22595000	      2258	800057f8	00310303	lb	x6,3(x2)	  x2:0x80008215  x6=0x00000032 PA:0x80008218
       22605000	      2259	800057fc	02c10a23	sb	x12,52(x2)	  x2:0x80008215 x12:0x200006b4 PA:0x80008249
       22615000	      2260	80005800	fd614e03	lbu	x28,-42(x2)	  x2:0x80008215 x28=0x000000c6 PA:0x800081eb
       22625000	      2261	80005804	7e9b6a93	ori	x21,x22,2025	 x22:0x00000049 x21=0x000007e9
       22635000	      2262	80005808	01b14283	lbu	x5,27(x2)	  x2:0x80008215  x5=0x000000eb PA:0x80008230
       22645000	      2263	8000580c	ac7da993	slti	x19,x27,-1337	 x27:0x00000036 x19=0x00000000
       22655000	      2264	80005810	00114383	lbu	x7,1(x2)	  x2:0x80008215  x7=0x000000cd PA:0x80008216
       22665000	      2265	80005814	02810b03	lb	x22,40(x2)	  x2:0x80008215 x22=0xfffffff4 PA:0x8000823d
       22675000	      2266	80005818	01f91d13	slli	x26,x18,0x1f	 x18:0xffffe66e x26=0x00000000
       22685000	      2267	8000581c	00210483	lb	x9,2(x2)	  x2:0x80008215  x9=0xffffff93 PA:0x80008217
       22695000	      2268	80005820	d05c7817	auipc	x16,0xd05c7	 x16=0x505cc81c
       22705000	      2269	80005824	fa1d6b13	ori	x22,x26,-95	 x26:0x00000000 x22=0xffffffa1
       22715000	      2270	80005828	03711683	lh	x13,55(x2)	  x2:0x80008215 x13=0xffffaf99 PA:0x8000824c
       22725000	      2271	8000582c	00003117	auipc	x2,0x3	  x2=0x80008828
       22735000	      2272	80005830	47610113	addi	x2,x2,1142	  x2:0x80008828  x2=0x80008c9e
       22745000	      2273	80005834	35f13013	sltiu	x0,x2,863	  x2:0x80008c9e
       22755000	      2274	80005838	f4a108a3	sb	x10,-175(x2)	  x2:0x80008c9e x10:0x80009f30 PA:0x80008bef
       22765000	      2275	8000583c	007cf2b3	and	x5,x25,x7	 x25:0x00000001  x7:0x000000cd  x5=0x00000001
       22775000	      2276	80005840	11c10803	lb	x16,284(x2)	  x2:0x80008c9e x16=0x00000013 PA:0x80008dba
       22785000	      2277	80005844	001700b3	add	x1,x14,x1	 x14:0x00000000  x1:0x00000011  x1=0x00000011
       22795000	      2278	80005848	00b95793	srli	x15,x18,0xb	 x18:0xffffe66e x15=0x001ffffc
       22805000	      2279	8000584c	62f66a17	auipc	x20,0x62f66	 x20=0xe2f6b848
       22815000	      2280	80005850	0014d033	srl	x0,x9,x1	  x9:0xffffff93  x1:0x00000011
       22825000	      2281	80005854	35911323	sh	x25,838(x2)	  x2:0x80008c9e x25:0x00000001 PA:0x80008fe4
       22835000	      2282	80005858	00184e33	xor	x28,x16,x1	 x16:0x00000013  x1:0x00000011 x28=0x00000002
       22845000	      2283	8000585c	00000013	addi	x0,x0,0	  x0:0x00000000
       22855000	      2284	80005860	c9015f83	lhu	x31,-880(x2)	  x2:0x80008c9e x31=0x0000004d PA:0x8000892e
       22865000	      2285	80005864	01c17433	and	x8,x2,x28	  x2:0x80008c9e x28:0x00000002  x8=0x00000002
       22875000	      2286	80005868	13910903	lb	x18,313(x2)	  x2:0x80008c9e x18=0xffffff8c PA:0x80008dd7
       22885000	      2287	8000586c	00c69b33	sll	x22,x13,x12	 x13:0xffffaf99 x12:0x200006b4 x22=0xf9900000
       22895000	      2288	80005870	00631d93	slli	x27,x6,0x6	  x6:0x00000032 x27=0x00000c80
       22905000	      2289	80005874	00000013	addi	x0,x0,0	  x0:0x00000000
       22915000	      2290	80005878	28710e03	lb	x28,647(x2)	  x2:0x80008c9e x28=0x00000058 PA:0x80008f25
       22925000	      2291	8000587c	014a0e33	add	x28,x20,x20	 x20:0xe2f6b848 x20:0xe2f6b848 x28=0xc5ed7090
       22935000	      2292	80005880	00171a13	slli	x20,x14,0x1	 x14:0x00000000 x20=0x00000000
       22945000	      2293	80005884	d0130f13	addi	x30,x6,-767	  x6:0x00000032 x30=0xfffffd33
       22955000	      2294	80005888	e142ec13	ori	x24,x5,-492	  x5:0x00000001 x24=0xfffffe15
       22965000	      2295	8000588c	0e310c03	lb	x24,227(x2)	  x2:0x80008c9e x24=0xffffff84 PA:0x80008d81
       22975000	      2296	80005890	0109af33	slt	x30,x19,x16	 x19:0x00000000 x16:0x00000013 x30=0x00000001
       22985000	      2297	80005894	be211e83	lh	x29,-1054(x2)	  x2:0x80008c9e x29=0xffffa34e PA:0x80008880
       22995000	      2298	80005898	dfb10ba3	sb	x27,-521(x2)	  x2:0x80008c9e x27:0x00000c80 PA:0x80008a95
       23005000	      2299	8000589c	c0014283	lbu	x5,-1024(x2)	  x2:0x80008c9e  x5=0x00000052 PA:0x8000889e
       23015000	      2300	800058a0	0ea12683	lw	x13,234(x2)	  x2:0x80008c9e x13=0xb98fea62 PA:0x80008d88
       23025000	      2301	800058a4	017ede93	srli	x29,x29,0x17	 x29:0xffffa34e x29=0x000001ff
       23035000	      2302	800058a8	53a46013	ori	x0,x8,1338	  x8:0x00000002
       23045000	      2303	800058ac	28610ca3	sb	x6,665(x2)	  x2:0x80008c9e  x6:0x00000032 PA:0x80008f37
       23055000	      2304	800058b0	6ed03993	sltiu	x19,x0,1773	  x0:0x00000000 x19=0x00000001
       23065000	      2305	800058b4	2ae10903	lb	x18,686(x2)	  x2:0x80008c9e x18=0xffffffc6 PA:0x80008f4c
       23075000	      2306	800058b8	00003117	auipc	x2,0x3	  x2=0x800088b4
       23085000	      2307	800058bc	e7c10113	addi	x2,x2,-388	  x2:0x800088b4  x2=0x80008730
       23095000	      2308	800058c0	40e75813	srai	x16,x14,0xe	 x14:0x00000000 x16=0x00000000
       23105000	      2309	800058c4	f6211303	lh	x6,-158(x2)	  x2:0x80008730  x6=0x000029a7 PA:0x80008692
       23115000	      2310	800058c8	0c015203	lhu	x4,192(x2)	  x2:0x80008730  x4=0x0000bef1 PA:0x800087f0
       23125000	      2311	800058cc	f5f10ea3	sb	x31,-163(x2)	  x2:0x80008730 x31:0x0000004d PA:0x8000868d
       23135000	      2312	800058d0	01c23a33	sltu	x20,x4,x28	  x4:0x0000bef1 x28:0xc5ed7090 x20=0x00000001
       23145000	      2313	800058d4	0b010c83	lb	x25,176(x2)	  x2:0x80008730 x25=0xffffff9d PA:0x800087e0
       23155000	      2314	800058d8	01441db3	sll	x27,x8,x20	  x8:0x00000002 x20:0x00000001 x27=0x00000004
       23165000	      2315	800058dc	012ca3b3	slt	x7,x25,x18	 x25:0xffffff9d x18:0xffffffc6  x7=0x00000001
       23175000	      2316	800058e0	0022f0b3	and	x1,x5,x2	  x5:0x00000052  x2:0x80008730  x1=0x00000010
       23185000	      2317	800058e4	f71105a3	sb	x17,-149(x2)	  x2:0x80008730 x17:0x67eba000 PA:0x8000869b
       23195000	      2318	800058e8	06b14d03	lbu	x26,107(x2)	  x2:0x80008730 x26=0x00000031 PA:0x8000879b
       23205000	      2319	800058ec	09815983	lhu	x19,152(x2)	  x2:0x80008730 x19=0x000052b9 PA:0x800087c8
       23215000	      2320	800058f0	32602f93	slti	x31,x0,806	  x0:0x00000000 x31=0x00000001
       23225000	      2321	800058f4	00082933	slt	x18,x16,x0	 x16:0x00000000  x0:0x00000000 x18=0x00000000
       23235000	      2322	800058f8	f2c10a83	lb	x21,-212(x2)	  x2:0x80008730 x21=0x00000013 PA:0x8000865c
       23245000	      2323	800058fc	40f45d33	sra	x26,x8,x15	  x8:0x00000002 x15:0x001ffffc x26=0x00000000
       23255000	      2324	80005900	0080db33	srl	x22,x1,x8	  x1:0x00000010  x8:0x00000002 x22=0x00000004
       23265000	      2325	80005904	01611483	lh	x9,22(x2)	  x2:0x80008730  x9=0x0000556c PA:0x80008746
       23275000	      2326	80005908	005389b3	add	x19,x7,x5	  x7:0x00000001  x5:0x00000052 x19=0x00000053
       23285000	      2327	8000590c	fa614083	lbu	x1,-90(x2)	  x2:0x80008730  x1=0x00000049 PA:0x800086d6
       23295000	      2328	80005910	f1c103a3	sb	x28,-249(x2)	  x2:0x80008730 x28:0xc5ed7090 PA:0x80008637
       23305000	      2329	80005914	fc014d03	lbu	x26,-64(x2)	  x2:0x80008730 x26=0x0000003f PA:0x800086f0
       23315000	      2330	80005918	08e14203	lbu	x4,142(x2)	  x2:0x80008730  x4=0x00000035 PA:0x800087be
       23325000	      2331	8000591c	40c951b3	sra	x3,x18,x12	 x18:0x00000000 x12:0x200006b4  x3=0x00000000
       23335000	      2332	80005920	ed640893	addi	x17,x8,-298	  x8:0x00000002 x17=0xfffffed8
       23345000	      2333	80005924	5daec213	xori	x4,x29,1498	 x29:0x000001ff  x4=0x00000425
       23355000	      2334	80005928	05210303	lb	x6,82(x2)	  x2:0x80008730  x6=0x0000002a PA:0x80008782
       23365000	      2335	8000592c	f4710aa3	sb	x7,-171(x2)	  x2:0x80008730  x7:0x00000001 PA:0x80008685
       23375000	      2336	80005930	05314d03	lbu	x26,83(x2)	  x2:0x80008730 x26=0x0000007d PA:0x80008783
       23385000	      2337	80005934	fcd10423	sb	x13,-56(x2)	  x2:0x80008730 x13:0xb98fea62 PA:0x800086f8
       23395000	      2338	80005938	0df156b7	lui	x13,0xdf15	 x13=0x0df15000
       23405000	      2339	8000593c	019699b3	sll	x19,x13,x25	 x13:0x0df15000 x25:0xffffff9d x19=0x00000000
       23415000	      2340	80005940	f0514a83	lbu	x21,-251(x2)	  x2:0x80008730 x21=0x00000010 PA:0x80008635
       23425000	      2341	80005944	404e5e13	srai	x28,x28,0x4	 x28:0xc5ed7090 x28=0xfc5ed709
       23435000	      2342	80005948	4e458f93	addi	x31,x11,1252	 x11:0x80009fc4 x31=0x8000a4a8
       23445000	      2343	8000594c	f7314483	lbu	x9,-141(x2)	  x2:0x80008730  x9=0x000000c6 PA:0x800086a3
       23455000	      2344	80005950	00000013	addi	x0,x0,0	  x0:0x00000000
       23465000	      2345	80005954	02b10483	lb	x9,43(x2)	  x2:0x80008730  x9=0x00000061 PA:0x8000875b
       23475000	      2346	00000000	00000013	addi	x0,x0,0	  x0:0x00000000
       23485000	      2347	80005958	40915f93	srai	x31,x2,0x9	  x2:0x80008730 x31=0xffc00043
       23495000	      2348	8000595c	0cd10c83	lb	x25,205(x2)	  x2:0x80008730 x25=0x00000073 PA:0x800087fd
       23505000	      2349	80005960	0773cdb7	lui	x27,0x773c	 x27=0x0773c000
       23515000	      2350	80005964	f8811f83	lh	x31,-120(x2)	  x2:0x80008730 x31=0x00000664 PA:0x800086b8
       23525000	      2351	80005968	fc710e03	lb	x28,-57(x2)	  x2:0x80008730 x28=0x0000004c PA:0x800086f7
       23535000	      2352	8000596c	528cb793	sltiu	x15,x25,1320	 x25:0x00000073 x15=0x00000001
       23545000	      2353	80005970	f4d14083	lbu	x1,-179(x2)	  x2:0x80008730  x1=0x0000002b PA:0x8000867d
       23555000	      2354	80005974	00919013	slli	x0,x3,0x9	  x3:0x00000000
       23565000	      2355	80005978	407b04b3	sub	x9,x22,x7	 x22:0x00000004  x7:0x00000001  x9=0x00000003
       23575000	      2356	8000597c	01345db3	srl	x27,x8,x19	  x8:0x00000002 x19:0x00000000 x27=0x00000002
       23585000	      2357	80005980	01982db3	slt	x27,x16,x25	 x16:0x00000000 x25:0x00000073 x27=0x00000001
       23595000	      2358	80005984	01b034b3	sltu	x9,x0,x27	  x0:0x00000000 x27:0x00000001  x9=0x00000001
       23605000	      2359	80005988	00a49c33	sll	x24,x9,x10	  x9:0x00000001 x10:0x80009f30 x24=0x00010000
       23615000	      2360	8000598c	0057a7b3	slt	x15,x15,x5	 x15:0x00000001  x5:0x00000052 x15=0x00000001
       23625000	      2361	80005990	ac16b637	lui	x12,0xac16b	 x12=0xac16b000
       23635000	      2362	80005994	02d67463	bgeu	x12,x13,800059bc	 x12:0xac16b000 x13:0x0df15000
       23645000	      2363	00000000	00000013	addi	x0,x0,0	  x0:0x00000000
       23655000	      2364	800059b8	00000013	addi	x0,x0,0	  x0:0x00000000
       23665000	      2365	800059bc	00d14333	xor	x6,x2,x13	  x2:0x80008730 x13:0x0df15000  x6=0x8df1d730
       23675000	      2366	800059c0	03b30863	beq	x6,x27,800059f0	  x6:0x8df1d730 x27:0x00000001
       23685000	      2367	800059c4	416a88b3	sub	x17,x21,x22	 x21:0x00000010 x22:0x00000004 x17=0x0000000c
       23695000	      2368	800059c8	5fa82e93	slti	x29,x16,1530	 x16:0x00000000 x29=0x00000001
       23705000	      2369	800059cc	407303b3	sub	x7,x6,x7	  x6:0x8df1d730  x7:0x00000001  x7=0x8df1d72f
       23715000	      2370	800059d0	000cdb33	srl	x22,x25,x0	 x25:0x00000073  x0:0x00000000 x22=0x00000073
       23725000	      2371	800059d4	01bb01b3	add	x3,x22,x27	 x22:0x00000073 x27:0x00000001  x3=0x00000074
       23735000	      2372	800059d8	00a170b3	and	x1,x2,x10	  x2:0x80008730 x10:0x80009f30  x1=0x80008730
       23745000	      2373	800059dc	00bec133	xor	x2,x29,x11	 x29:0x00000001 x11:0x80009fc4  x2=0x80009fc5
       23755000	      2374	800059e0	01ffd7b3	srl	x15,x31,x31	 x31:0x00000664 x31:0x00000664 x15=0x00000066
       23765000	      2375	800059e4	3ba52137	lui	x2,0x3ba52	  x2=0x3ba52000
       23775000	      2376	800059e8	4392ad13	slti	x26,x5,1081	  x5:0x00000052 x26=0x00000001
       23785000	      2377	800059ec	01adbfb3	sltu	x31,x27,x26	 x27:0x00000001 x26:0x00000001 x31=0x00000000
       23795000	      2378	800059f0	cb90cfb7	lui	x31,0xcb90c	 x31=0xcb90c000
       23805000	      2379	800059f4	cf79ea93	ori	x21,x19,-777	 x19:0x00000000 x21=0xfffffcf7
       23815000	      2380	800059f8	42664b13	xori	x22,x12,1062	 x12:0xac16b000 x22=0xac16b426
       23825000	      2381	800059fc	00ac5213	srli	x4,x24,0xa	 x24:0x00010000  x4=0x00000040
       23835000	      2382	80005a00	c8c67713	andi	x14,x12,-884	 x12:0xac16b000 x14=0xac16b000
       23845000	      2383	80005a04	0058ed33	or	x26,x17,x5	 x17:0x0000000c  x5:0x00000052 x26=0x0000005e
       23855000	      2384	80005a08	04aec263	blt	x29,x10,80005a4c	 x29:0x00000001 x10:0x80009f30
       23865000	      2385	80005a0c	f956c637	lui	x12,0xf956c	 x12=0xf956c000
       23875000	      2386	80005a10	00982433	slt	x8,x16,x9	 x16:0x00000000  x9:0x00000001  x8=0x00000001
       23885000	      2387	80005a14	01df8c33	add	x24,x31,x29	 x31:0xcb90c000 x29:0x00000001 x24=0xcb90c001
       23895000	      2388	80005a18	00439eb3	sll	x29,x7,x4	  x7:0x8df1d72f  x4:0x00000040 x29=0x8df1d72f
       23905000	      2389	80005a1c	00644e63	blt	x8,x6,80005a38	  x8:0x00000001  x6:0x8df1d730
       23915000	      2390	80005a20	01391263	bne	x18,x19,80005a24	 x18:0x00000000 x19:0x00000000
       23925000	      2391	80005a24	00ae3233	sltu	x4,x28,x10	 x28:0x0000004c x10:0x80009f30  x4=0x00000001
       23935000	      2392	80005a28	00317463	bgeu	x2,x3,80005a30	  x2:0x3ba52000  x3:0x00000074
       23945000	      2393	00000000	00000013	addi	x0,x0,0	  x0:0x00000000
       23955000	      2394	80005a2c	00000013	addi	x0,x0,0	  x0:0x00000000
       23965000	      2395	80005a30	03c3e663	bltu	x7,x28,80005a5c	  x7:0x8df1d72f x28:0x0000004c
       23975000	      2396	80005a34	02fa5063	bge	x20,x15,80005a54	 x20:0x00000001 x15:0x00000066
       23985000	      2397	80005a38	8f0b7113	andi	x2,x22,-1808	 x22:0xac16b426  x2=0xac16b020
       23995000	      2398	80005a3c	010ef933	and	x18,x29,x16	 x29:0x8df1d72f x16:0x00000000 x18=0x00000000
       24005000	      2399	80005a40	01b73e33	sltu	x28,x14,x27	 x14:0xac16b000 x27:0x00000001 x28=0x00000000
       24015000	      2400	80005a44	12b0f893	andi	x17,x1,299	  x1:0x80008730 x17=0x00000120
       24025000	      2401	80005a48	2eed3d13	sltiu	x26,x26,750	 x26:0x0000005e x26=0x00000001
       24035000	      2402	80005a4c	00e11e33	sll	x28,x2,x14	  x2:0xac16b020 x14:0xac16b000 x28=0xac16b020
       24045000	      2403	80005a50	00bc6663	bltu	x24,x11,80005a5c	 x24:0xcb90c001 x11:0x80009fc4
       24055000	      2404	80005a54	01d02833	slt	x16,x0,x29	  x0:0x00000000 x29:0x8df1d72f x16=0x00000000
       24065000	      2405	80005a58	04b15663	bge	x2,x11,80005aa4	  x2:0xac16b020 x11:0x80009fc4
       24075000	      2406	00000000	00000013	addi	x0,x0,0	  x0:0x00000000
       24085000	      2407	80005aa0	00000013	addi	x0,x0,0	  x0:0x00000000
       24095000	      2408	80005aa4	0152fc63	bgeu	x5,x21,80005abc	  x5:0x00000052 x21:0xfffffcf7
       24105000	      2409	80005aa8	0043bb33	sltu	x22,x7,x4	  x7:0x8df1d72f  x4:0x00000001 x22=0x00000000
       24115000	      2410	80005aac	b81aceb7	lui	x29,0xb81ac	 x29=0xb81ac000
       24125000	      2411	80005ab0	41308fb3	sub	x31,x1,x19	  x1:0x80008730 x19:0x00000000 x31=0x80008730
       24135000	      2412	80005ab4	39bbf213	andi	x4,x23,923	 x23:0x0000000d  x4=0x00000009
       24145000	      2413	80005ab8	00bfd493	srli	x9,x31,0xb	 x31:0x80008730  x9=0x00100010
       24155000	      2414	80005abc	a0684f37	lui	x30,0xa0684	 x30=0xa0684000
       24165000	      2415	80005ac0	9ed37a13	andi	x20,x6,-1555	  x6:0x8df1d730 x20=0x8df1d120
       24175000	      2416	80005ac4	01e41e63	bne	x8,x30,80005ae0	  x8:0x00000001 x30:0xa0684000
       24185000	      2417	00000000	00000013	addi	x0,x0,0	  x0:0x00000000
       24195000	      2418	80005adc	00000013	addi	x0,x0,0	  x0:0x00000000
       24205000	      2419	80005ae0	006c1013	slli	x0,x24,0x6	 x24:0xcb90c001
       24215000	      2420	80005ae4	00a6d933	srl	x18,x13,x10	 x13:0x0df15000 x10:0x80009f30 x18=0x00000df1
       24225000	      2421	80005ae8	00000013	addi	x0,x0,0	  x0:0x00000000
       24235000	      2422	80005aec	000df4b3	and	x9,x27,x0	 x27:0x00000001  x0:0x00000000  x9=0x00000000
       24245000	      2423	80005af0	000da933	slt	x18,x27,x0	 x27:0x00000001  x0:0x00000000 x18=0x00000000
       24255000	      2424	80005af4	03dc1263	bne	x24,x29,80005b18	 x24:0xcb90c001 x29:0xb81ac000
       24265000	      2425	00000000	00000013	addi	x0,x0,0	  x0:0x00000000
       24275000	      2426	80005b14	00000013	addi	x0,x0,0	  x0:0x00000000
       24285000	      2427	80005b18	61fce813	ori	x16,x25,1567	 x25:0x00000073 x16=0x0000067f
       24295000	      2428	80005b1c	41c98cb3	sub	x25,x19,x28	 x19:0x00000000 x28:0xac16b020 x25=0x53e94fe0
       24305000	      2429	80005b20	013561b3	or	x3,x10,x19	 x10:0x80009f30 x19:0x00000000  x3=0x80009f30
       24315000	      2430	80005b24	0008ff33	and	x30,x17,x0	 x17:0x00000120  x0:0x00000000 x30=0x00000000
       24325000	      2431	80005b28	6cb57e93	andi	x29,x10,1739	 x10:0x80009f30 x29=0x00000600
       24335000	      2432	80005b2c	01906f33	or	x30,x0,x25	  x0:0x00000000 x25:0x53e94fe0 x30=0x53e94fe0
       24345000	      2433	80005b30	ea7e51b7	lui	x3,0xea7e5	  x3=0xea7e5000
       24355000	      2434	80005b34	0116e463	bltu	x13,x17,80005b3c	 x13:0x0df15000 x17:0x00000120
       24365000	      2435	80005b38	00000013	addi	x0,x0,0	  x0:0x00000000
       24375000	      2436	80005b3c	416e5113	srai	x2,x28,0x16	 x28:0xac16b020  x2=0xfffffeb0
       24385000	      2437	80005b40	06502313	slti	x6,x0,101	  x0:0x00000000  x6=0x00000001
       24395000	      2438	80005b44	b8fd8613	addi	x12,x27,-1137	 x27:0x00000001 x12=0xfffffb90
       24405000	      2439	80005b48	00a113b3	sll	x7,x2,x10	  x2:0xfffffeb0 x10:0x80009f30  x7=0xfeb00000
       24415000	      2440	80005b4c	41bb5a33	sra	x20,x22,x27	 x22:0x00000000 x27:0x00000001 x20=0x00000000
       24425000	      2441	80005b50	01766c63	bltu	x12,x23,80005b68	 x12:0xfffffb90 x23:0x0000000d
       24435000	      2442	80005b54	40c0d2b3	sra	x5,x1,x12	  x1:0x80008730 x12:0xfffffb90  x5=0xffff8000
       24445000	      2443	80005b58	053f0463	beq	x30,x19,80005ba0	 x30:0x53e94fe0 x19:0x00000000
       24455000	      2444	80005b5c	f0567913	andi	x18,x12,-251	 x12:0xfffffb90 x18=0xfffffb00
       24465000	      2445	80005b60	6337c313	xori	x6,x15,1587	 x15:0x00000066  x6=0x00000655
       24475000	      2446	80005b64	0e23feb7	lui	x29,0xe23f	 x29=0x0e23f000
       24485000	      2447	80005b68	01c2ca33	xor	x20,x5,x28	  x5:0xffff8000 x28:0xac16b020 x20=0x53e93020
       24495000	      2448	80005b6c	01397333	and	x6,x18,x19	 x18:0xfffffb00 x19:0x00000000  x6=0x00000000
       24505000	      2449	80005b70	41f05813	srai	x16,x0,0x1f	  x0:0x00000000 x16=0x00000000
       24515000	      2450	80005b74	002529b3	slt	x19,x10,x2	 x10:0x80009f30  x2:0xfffffeb0 x19=0x00000001
       24525000	      2451	80005b78	0049de93	srli	x29,x19,0x4	 x19:0x00000001 x29=0x00000000
       24535000	      2452	80005b7c	009e8233	add	x4,x29,x9	 x29:0x00000000  x9:0x00000000  x4=0x00000000
       24545000	      2453	80005b80	00b11613	slli	x12,x2,0xb	  x2:0xfffffeb0 x12=0xfff58000
       24555000	      2454	80005b84	44e24893	xori	x17,x4,1102	  x4:0x00000000 x17=0x0000044e
       24565000	      2455	80005b88	005e5993	srli	x19,x28,0x5	 x28:0xac16b020 x19=0x0560b581
       24575000	      2456	80005b8c	0527e463	bltu	x15,x18,80005bd4	 x15:0x00000066 x18:0xfffffb00
       24585000	      2457	00000000	00000013	addi	x0,x0,0	  x0:0x00000000
       24595000	      2458	80005bd0	00000013	addi	x0,x0,0	  x0:0x00000000
       24605000	      2459	80005bd4	93643c93	sltiu	x25,x8,-1738	  x8:0x00000001 x25=0x00000001
       24615000	      2460	80005bd8	1316b813	sltiu	x16,x13,305	 x13:0x0df15000 x16=0x00000000
       24625000	      2461	80005bdc	02b29263	bne	x5,x11,80005c00	  x5:0xffff8000 x11:0x80009fc4
       24635000	      2462	00000000	00000013	addi	x0,x0,0	  x0:0x00000000
       24645000	      2463	80005bfc	00000013	addi	x0,x0,0	  x0:0x00000000
       24655000	      2464	80005c00	00cff1b3	and	x3,x31,x12	 x31:0x80008730 x12:0xfff58000  x3=0x80008000
       24665000	      2465	80005c04	5fdf4b13	xori	x22,x30,1533	 x30:0x53e94fe0 x22=0x53e94a1d
       24675000	      2466	80005c08	009192b3	sll	x5,x3,x9	  x3:0x80008000  x9:0x00000000  x5=0x80008000
       24685000	      2467	80005c0c	0417f263	bgeu	x15,x1,80005c50	 x15:0x00000066  x1:0x80008730
       24695000	      2468	80005c10	017c43b3	xor	x7,x24,x23	 x24:0xcb90c001 x23:0x0000000d  x7=0xcb90c00c
       24705000	      2469	80005c14	005d07b3	add	x15,x26,x5	 x26:0x00000001  x5:0x80008000 x15=0x80008001
       24715000	      2470	80005c18	02ad8263	beq	x27,x10,80005c3c	 x27:0x00000001 x10:0x80009f30
       24725000	      2471	80005c1c	00000013	addi	x0,x0,0	  x0:0x00000000
       24735000	      2472	80005c20	404adeb3	sra	x29,x21,x4	 x21:0xfffffcf7  x4:0x00000000 x29=0xfffffcf7
       24745000	      2473	80005c24	00000013	addi	x0,x0,0	  x0:0x00000000
       24755000	      2474	80005c28	013be8b3	or	x17,x23,x19	 x23:0x0000000d x19:0x0560b581 x17=0x0560b58d
       24765000	      2475	80005c2c	0031de93	srli	x29,x3,0x3	  x3:0x80008000 x29=0x10001000
       24775000	      2476	80005c30	41a00b33	sub	x22,x0,x26	  x0:0x00000000 x26:0x00000001 x22=0xffffffff
       24785000	      2477	80005c34	4140d393	srai	x7,x1,0x14	  x1:0x80008730  x7=0xfffff800
       24795000	      2478	80005c38	01e9eb33	or	x22,x19,x30	 x19:0x0560b581 x30:0x53e94fe0 x22=0x57e9ffe1
       24805000	      2479	80005c3c	d9104f93	xori	x31,x0,-623	  x0:0x00000000 x31=0xfffffd91
       24815000	      2480	80005c40	01b25c63	bge	x4,x27,80005c58	  x4:0x00000000 x27:0x00000001
       24825000	      2481	80005c44	013fceb3	xor	x29,x31,x19	 x31:0xfffffd91 x19:0x0560b581 x29=0xfa9f4810
       24835000	      2482	80005c48	c3cece13	xori	x28,x29,-964	 x29:0xfa9f4810 x28=0x0560b42c
       24845000	      2483	80005c4c	c3d93e13	sltiu	x28,x18,-963	 x18:0xfffffb00 x28=0x00000001
       24855000	      2484	80005c50	0239c263	blt	x19,x3,80005c74	 x19:0x0560b581  x3:0x80008000
       24865000	      2485	80005c54	03560863	beq	x12,x21,80005c84	 x12:0xfff58000 x21:0xfffffcf7
       24875000	      2486	80005c58	03e39e63	bne	x7,x30,80005c94	  x7:0xfffff800 x30:0x53e94fe0
       24885000	      2487	00000000	00000013	addi	x0,x0,0	  x0:0x00000000
       24895000	      2488	80005c90	00000013	addi	x0,x0,0	  x0:0x00000000
       24905000	      2489	80005c94	40ac0a33	sub	x20,x24,x10	 x24:0xcb90c001 x10:0x80009f30 x20=0x4b9020d1
       24915000	      2490	80005c98	bb953293	sltiu	x5,x10,-1095	 x10:0x80009f30  x5=0x00000001
       24925000	      2491	80005c9c	01249833	sll	x16,x9,x18	  x9:0x00000000 x18:0xfffffb00 x16=0x00000000
       24935000	      2492	80005ca0	002d0233	add	x4,x26,x2	 x26:0x00000001  x2:0xfffffeb0  x4=0xfffffeb1
       24945000	      2493	80005ca4	1df07337	lui	x6,0x1df07	  x6=0x1df07000
       24955000	      2494	80005ca8	00bb5413	srli	x8,x22,0xb	 x22:0x57e9ffe1  x8=0x000afd3f
       24965000	      2495	80005cac	a7c0b713	sltiu	x14,x1,-1412	  x1:0x80008730 x14=0x00000001
       24975000	      2496	80005cb0	00c80463	beq	x16,x12,80005cb8	 x16:0x00000000 x12:0xfff58000
       24985000	      2497	80005cb4	05cef463	bgeu	x29,x28,80005cfc	 x29:0xfa9f4810 x28:0x00000001
       24995000	      2498	00000000	00000013	addi	x0,x0,0	  x0:0x00000000
       25005000	      2499	80005cf8	00000013	addi	x0,x0,0	  x0:0x00000000
       25015000	      2500	80005cfc	414e0733	sub	x14,x28,x20	 x28:0x00000001 x20:0x4b9020d1 x14=0xb46fdf30
       25025000	      2501	80005d00	49627e13	andi	x28,x4,1174	  x4:0xfffffeb1 x28=0x00000490
       25035000	      2502	80005d04	bc0a9997	auipc	x19,0xbc0a9	 x19=0x3c0aed00
       25045000	      2503	80005d08	2ed58a13	addi	x20,x11,749	 x11:0x80009fc4 x20=0x8000a2b1
       25055000	      2504	80005d0c	001f2f33	slt	x30,x30,x1	 x30:0x53e94fe0  x1:0x80008730 x30=0x00000000
       25065000	      2505	80005d10	00061f33	sll	x30,x12,x0	 x12:0xfff58000  x0:0x00000000 x30=0xfff58000
       25075000	      2506	80005d14	a201f9b7	lui	x19,0xa201f	 x19=0xa201f000
       25085000	      2507	80005d18	03b8ee63	bltu	x17,x27,80005d54	 x17:0x0560b58d x27:0x00000001
       25095000	      2508	80005d1c	00000013	addi	x0,x0,0	  x0:0x00000000
       25105000	      2509	80005d20	30778b13	addi	x22,x15,775	 x15:0x80008001 x22=0x80008308
       25115000	      2510	80005d24	ced90d93	addi	x27,x18,-787	 x18:0xfffffb00 x27=0xfffff7ed
       25125000	      2511	80005d28	00000013	addi	x0,x0,0	  x0:0x00000000
       25135000	      2512	80005d2c	40e45a13	srai	x20,x8,0xe	  x8:0x000afd3f x20=0x0000002b
       25145000	      2513	80005d30	e6e21997	auipc	x19,0xe6e21	 x19=0x66e26d2c
       25155000	      2514	80005d34	1a5e7393	andi	x7,x28,421	 x28:0x00000490  x7=0x00000080
       25165000	      2515	80005d38	00000013	addi	x0,x0,0	  x0:0x00000000
       25175000	      2516	80005d3c	01be6db3	or	x27,x28,x27	 x28:0x00000490 x27:0xfffff7ed x27=0xfffff7fd
       25185000	      2517	80005d40	40bcdf13	srai	x30,x25,0xb	 x25:0x00000001 x30=0x00000000
       25195000	      2518	80005d44	02231663	bne	x6,x2,80005d70	  x6:0x1df07000  x2:0xfffffeb0
       25205000	      2519	00000000	00000013	addi	x0,x0,0	  x0:0x00000000
       25215000	      2520	80005d6c	00000013	addi	x0,x0,0	  x0:0x00000000
       25225000	      2521	80005d70	0038d113	srli	x2,x17,0x3	 x17:0x0560b58d  x2=0x00ac16b1
       25235000	      2522	80005d74	009019b3	sll	x19,x0,x9	  x0:0x00000000  x9:0x00000000 x19=0x00000000
       25245000	      2523	80005d78	010cc833	xor	x16,x25,x16	 x25:0x00000001 x16:0x00000000 x16=0x00000001
       25255000	      2524	80005d7c	84cf2213	slti	x4,x30,-1972	 x30:0x00000000  x4=0x00000000
       25265000	      2525	80005d80	008e0ab3	add	x21,x28,x8	 x28:0x00000490  x8:0x000afd3f x21=0x000b01cf
       25275000	      2526	80005d84	02ea7863	bgeu	x20,x14,80005db4	 x20:0x0000002b x14:0xb46fdf30
       25285000	      2527	80005d88	75ed7c93	andi	x25,x26,1886	 x26:0x00000001 x25=0x00000000
       25295000	      2528	80005d8c	01708a33	add	x20,x1,x23	  x1:0x80008730 x23:0x0000000d x20=0x8000873d
       25305000	      2529	80005d90	77bfacb7	lui	x25,0x77bfa	 x25=0x77bfa000
       25315000	      2530	80005d94	40f6da33	sra	x20,x13,x15	 x13:0x0df15000 x15:0x80008001 x20=0x06f8a800
       25325000	      2531	80005d98	9a12ef13	ori	x30,x5,-1631	  x5:0x00000001 x30=0xfffff9a1
       25335000	      2532	80005d9c	01e8b633	sltu	x12,x17,x30	 x17:0x0560b58d x30:0xfffff9a1 x12=0x00000001
       25345000	      2533	80005da0	01cac933	xor	x18,x21,x28	 x21:0x000b01cf x28:0x00000490 x18=0x000b055f
       25355000	      2534	80005da4	01271463	bne	x14,x18,80005dac	 x14:0xb46fdf30 x18:0x000b055f
       25365000	      2535	00000000	00000013	addi	x0,x0,0	  x0:0x00000000
       25375000	      2536	80005da8	00000013	addi	x0,x0,0	  x0:0x00000000
       25385000	      2537	80005dac	072fe193	ori	x3,x31,114	 x31:0xfffffd91  x3=0xfffffdf3
       25395000	      2538	80005db0	01fc41b3	xor	x3,x24,x31	 x24:0xcb90c001 x31:0xfffffd91  x3=0x346f3d90
       25405000	      2539	80005db4	0198ceb3	xor	x29,x17,x25	 x17:0x0560b58d x25:0x77bfa000 x29=0x72df158d
       25415000	      2540	80005db8	01687c63	bgeu	x16,x22,80005dd0	 x16:0x00000001 x22:0x80008308
       25425000	      2541	80005dbc	002006b3	add	x13,x0,x2	  x0:0x00000000  x2:0x00ac16b1 x13=0x00ac16b1
       25435000	      2542	80005dc0	431bf113	andi	x2,x23,1073	 x23:0x0000000d  x2=0x00000001
       25445000	      2543	80005dc4	00583b33	sltu	x22,x16,x5	 x16:0x00000001  x5:0x00000001 x22=0x00000000
       25455000	      2544	80005dc8	007cd293	srli	x5,x25,0x7	 x25:0x77bfa000  x5=0x00ef7f40
       25465000	      2545	80005dcc	0146a8b3	slt	x17,x13,x20	 x13:0x00ac16b1 x20:0x06f8a800 x17=0x00000001
       25475000	      2546	80005dd0	01295d33	srl	x26,x18,x18	 x18:0x000b055f x18:0x000b055f x26=0x00000000
       25485000	      2547	80005dd4	403fdc93	srai	x25,x31,0x3	 x31:0xfffffd91 x25=0xffffffb2
       25495000	      2548	80005dd8	00000013	addi	x0,x0,0	  x0:0x00000000
       25505000	      2549	80005ddc	922d3413	sltiu	x8,x26,-1758	 x26:0x00000000  x8=0x00000001
       25515000	      2550	80005de0	007c89b3	add	x19,x25,x7	 x25:0xffffffb2  x7:0x00000080 x19=0x00000032
       25525000	      2551	80005de4	954ece13	xori	x28,x29,-1708	 x29:0x72df158d x28=0x8d20ecd9
       25535000	      2552	80005de8	0019de63	bge	x19,x1,80005e04	 x19:0x00000032  x1:0x80008730
       25545000	      2553	00000000	00000013	addi	x0,x0,0	  x0:0x00000000
       25555000	      2554	80005e00	00000013	addi	x0,x0,0	  x0:0x00000000
       25565000	      2555	80005e04	286f7913	andi	x18,x30,646	 x30:0xfffff9a1 x18=0x00000080
       25575000	      2556	80005e08	011a2633	slt	x12,x20,x17	 x20:0x06f8a800 x17:0x00000001 x12=0x00000000
       25585000	      2557	80005e0c	0085e263	bltu	x11,x8,80005e10	 x11:0x80009fc4  x8:0x00000001
       25595000	      2558	80005e10	40b3dd93	srai	x27,x7,0xb	  x7:0x00000080 x27=0x00000000
       25605000	      2559	80005e14	0086c463	blt	x13,x8,80005e1c	 x13:0x00ac16b1  x8:0x00000001
       25615000	      2560	80005e18	04660663	beq	x12,x6,80005e64	 x12:0x00000000  x6:0x1df07000
       25625000	      2561	80005e1c	01e46633	or	x12,x8,x30	  x8:0x00000001 x30:0xfffff9a1 x12=0xfffff9a1
       25635000	      2562	80005e20	b377ad37	lui	x26,0xb377a	 x26=0xb377a000
       25645000	      2563	80005e24	01ecb6b3	sltu	x13,x25,x30	 x25:0xffffffb2 x30:0xfffff9a1 x13=0x00000000
       25655000	      2564	80005e28	00000013	addi	x0,x0,0	  x0:0x00000000
       25665000	      2565	80005e2c	00eccf33	xor	x30,x25,x14	 x25:0xffffffb2 x14:0xb46fdf30 x30=0x4b902082
       25675000	      2566	80005e30	204bf493	andi	x9,x23,516	 x23:0x0000000d  x9=0x00000004
       25685000	      2567	80005e34	01316933	or	x18,x2,x19	  x2:0x00000001 x19:0x00000032 x18=0x00000033
       25695000	      2568	80005e38	001d8663	beq	x27,x1,80005e44	 x27:0x00000000  x1:0x80008730
       25705000	      2569	80005e3c	01d6b0b3	sltu	x1,x13,x29	 x13:0x00000000 x29:0x72df158d  x1=0x00000001
       25715000	      2570	80005e40	131b2cb7	lui	x25,0x131b2	 x25=0x131b2000
       25725000	      2571	80005e44	1b610e97	auipc	x29,0x1b610	 x29=0x9b615e40
       25735000	      2572	80005e48	4d343937	lui	x18,0x4d343	 x18=0x4d343000
       25745000	      2573	80005e4c	00b4aab3	slt	x21,x9,x11	  x9:0x00000004 x11:0x80009fc4 x21=0x00000000
       25755000	      2574	80005e50	bb021817	auipc	x16,0xbb021	 x16=0x3b026e4c
       25765000	      2575	80005e54	0e240e63	beq	x8,x2,80005f50	  x8:0x00000001  x2:0x00000001
       25775000	      2576	00000000	00000013	addi	x0,x0,0	  x0:0x00000000
       25785000	      2577	80005f4c	00000013	addi	x0,x0,0	  x0:0x00000000
       25795000	      2578	80005f50	01658e33	add	x28,x11,x22	 x11:0x80009fc4 x22:0x00000000 x28=0x80009fc4
       25805000	      2579	80005f54	01742a33	slt	x20,x8,x23	  x8:0x00000001 x23:0x0000000d x20=0x00000001
       25815000	      2580	80005f58	655e4093	xori	x1,x28,1621	 x28:0x80009fc4  x1=0x80009991
       25825000	      2581	80005f5c	00515c13	srli	x24,x2,0x5	  x2:0x00000001 x24=0x00000000
       25835000	      2582	80005f60	41595633	sra	x12,x18,x21	 x18:0x4d343000 x21:0x00000000 x12=0x4d343000
       25845000	      2583	80005f64	738b2897	auipc	x17,0x738b2	 x17=0xf38b7f60
       25855000	      2584	80005f68	00a0a4b3	slt	x9,x1,x10	  x1:0x80009991 x10:0x80009f30  x9=0x00000001
       25865000	      2585	80005f6c	41958b33	sub	x22,x11,x25	 x11:0x80009fc4 x25:0x131b2000 x22=0x6ce57fc4
       25875000	      2586	80005f70	00000013	addi	x0,x0,0	  x0:0x00000000
       25885000	      2587	80005f74	004f27b3	slt	x15,x30,x4	 x30:0x4b902082  x4:0x00000000 x15=0x00000000
       25895000	      2588	80005f78	49242013	slti	x0,x8,1170	  x8:0x00000001
       25905000	      2589	80005f7c	00af5713	srli	x14,x30,0xa	 x30:0x4b902082 x14=0x0012e408
       25915000	      2590	80005f80	03e37263	bgeu	x6,x30,80005fa4	  x6:0x1df07000 x30:0x4b902082
       25925000	      2591	80005f84	00000013	addi	x0,x0,0	  x0:0x00000000
       25935000	      2592	80005f88	000ebeb3	sltu	x29,x29,x0	 x29:0x9b615e40  x0:0x00000000 x29=0x00000000
       25945000	      2593	80005f8c	f1696f37	lui	x30,0xf1696	 x30=0xf1696000
       25955000	      2594	80005f90	00b5d4b3	srl	x9,x11,x11	 x11:0x80009fc4 x11:0x80009fc4  x9=0x080009fc
       25965000	      2595	80005f94	0030d693	srli	x13,x1,0x3	  x1:0x80009991 x13=0x10001332
       25975000	      2596	80005f98	009ee4b3	or	x9,x29,x9	 x29:0x00000000  x9:0x080009fc  x9=0x080009fc
       25985000	      2597	80005f9c	256c2b13	slti	x22,x24,598	 x24:0x00000000 x22=0x00000001
       25995000	      2598	80005fa0	99182213	slti	x4,x16,-1647	 x16:0x3b026e4c  x4=0x00000000
       26005000	      2599	80005fa4	00398db3	add	x27,x19,x3	 x19:0x00000032  x3:0x346f3d90 x27=0x346f3dc2
       26015000	      2600	80005fa8	aff62293	slti	x5,x12,-1281	 x12:0x4d343000  x5=0x00000000
       26025000	      2601	80005fac	010f56b3	srl	x13,x30,x16	 x30:0xf1696000 x16:0x3b026e4c x13=0x000f1696
       26035000	      2602	80005fb0	6e2a58b7	lui	x17,0x6e2a5	 x17=0x6e2a5000
       26045000	      2603	80005fb4	041d9863	bne	x27,x1,80006004	 x27:0x346f3dc2  x1:0x80009991
       26055000	      2604	00000000	00000013	addi	x0,x0,0	  x0:0x00000000
       26065000	      2605	80006000	00000013	addi	x0,x0,0	  x0:0x00000000
       26075000	      2606	80006004	41095613	srai	x12,x18,0x10	 x18:0x4d343000 x12=0x00004d34
       26085000	      2607	80006008	8f39fc13	andi	x24,x19,-1805	 x19:0x00000032 x24=0x00000032
       26095000	      2608	8000600c	01156f33	or	x30,x10,x17	 x10:0x80009f30 x17:0x6e2a5000 x30=0xee2adf30
       26105000	      2609	80006010	0011df13	srli	x30,x3,0x1	  x3:0x346f3d90 x30=0x1a379ec8
       26115000	      2610	80006014	1d0d4a13	xori	x20,x26,464	 x26:0xb377a000 x20=0xb377a1d0
       26125000	      2611	80006018	01504d33	xor	x26,x0,x21	  x0:0x00000000 x21:0x00000000 x26=0x00000000
       26135000	      2612	8000601c	40f9d8b3	sra	x17,x19,x15	 x19:0x00000032 x15:0x00000000 x17=0x00000032
       26145000	      2613	80006020	0174df93	srli	x31,x9,0x17	  x9:0x080009fc x31=0x00000010
       26155000	      2614	80006024	0450c463	blt	x1,x5,8000606c	  x1:0x80009991  x5:0x00000000
       26165000	      2615	00000000	00000013	addi	x0,x0,0	  x0:0x00000000
       26175000	      2616	80006068	00000013	addi	x0,x0,0	  x0:0x00000000
       26185000	      2617	8000606c	86b33493	sltiu	x9,x6,-1941	  x6:0x1df07000  x9=0x00000001
       26195000	      2618	80006070	00000013	addi	x0,x0,0	  x0:0x00000000
       26205000	      2619	80006074	02ac6e63	bltu	x24,x10,800060b0	 x24:0x00000032 x10:0x80009f30
       26215000	      2620	00000000	00000013	addi	x0,x0,0	  x0:0x00000000
       26225000	      2621	800060ac	00000013	addi	x0,x0,0	  x0:0x00000000
       26235000	      2622	800060b0	5e316a13	ori	x20,x2,1507	  x2:0x00000001 x20=0x000005e3
       26245000	      2623	800060b4	00fa4c93	xori	x25,x20,15	 x20:0x000005e3 x25=0x000005ec
       26255000	      2624	800060b8	012cadb3	slt	x27,x25,x18	 x25:0x000005ec x18:0x4d343000 x27=0x00000001
       26265000	      2625	800060bc	f595e317	auipc	x6,0xf595e	  x6=0x759640b8
       26275000	      2626	800060c0	99a80893	addi	x17,x16,-1638	 x16:0x3b026e4c x17=0x3b0267e6
       26285000	      2627	800060c4	4f4eb097	auipc	x1,0x4f4eb	  x1=0xcf4f10c0
       26295000	      2628	800060c8	1a5a7c13	andi	x24,x20,421	 x20:0x000005e3 x24=0x000001a1
       26305000	      2629	800060cc	04657663	bgeu	x10,x6,80006118	 x10:0x80009f30  x6:0x759640b8
       26315000	      2630	00000000	00000013	addi	x0,x0,0	  x0:0x00000000
       26325000	      2631	80006114	00000013	addi	x0,x0,0	  x0:0x00000000
       26335000	      2632	80006118	00000013	addi	x0,x0,0	  x0:0x00000000
       26345000	      2633	8000611c	fcfc3793	sltiu	x15,x24,-49	 x24:0x000001a1 x15=0x00000001
       26355000	      2634	80006120	08eacf13	xori	x30,x21,142	 x21:0x00000000 x30=0x0000008e
       26365000	      2635	80006124	b907ec93	ori	x25,x15,-1136	 x15:0x00000001 x25=0xfffffb91
       26375000	      2636	80006128	06650db7	lui	x27,0x6650	 x27=0x06650000
       26385000	      2637	8000612c	017060b3	or	x1,x0,x23	  x0:0x00000000 x23:0x0000000d  x1=0x0000000d
       26395000	      2638	80006130	415cd333	sra	x6,x25,x21	 x25:0xfffffb91 x21:0x00000000  x6=0xfffffb91
       26405000	      2639	80006134	011ee133	or	x2,x29,x17	 x29:0x00000000 x17:0x3b0267e6  x2=0x3b0267e6
       26415000	      2640	80006138	fcc4b497	auipc	x9,0xfcc4b	  x9=0x7cc51134
       26425000	      2641	8000613c	5e3ab393	sltiu	x7,x21,1507	 x21:0x00000000  x7=0x00000001
       26435000	      2642	80006140	042d9063	bne	x27,x2,80006180	 x27:0x06650000  x2:0x3b0267e6
       26445000	      2643	00000000	00000013	addi	x0,x0,0	  x0:0x00000000
       26455000	      2644	8000617c	00000013	addi	x0,x0,0	  x0:0x00000000
       26465000	      2645	80006180	007740b3	xor	x1,x14,x7	 x14:0x0012e408  x7:0x00000001  x1=0x0012e409
       26475000	      2646	80006184	402f5013	srai	x0,x30,0x2	 x30:0x0000008e
       26485000	      2647	80006188	002d2a33	slt	x20,x26,x2	 x26:0x00000000  x2:0x3b0267e6 x20=0x00000001
       26495000	      2648	8000618c	37853d93	sltiu	x27,x10,888	 x10:0x80009f30 x27=0x00000000
       26505000	      2649	80006190	01815a13	srli	x20,x2,0x18	  x2:0x3b0267e6 x20=0x0000003b
       26515000	      2650	80006194	069b1c63	bne	x22,x9,8000620c	 x22:0x00000001  x9:0x7cc51134
       26525000	      2651	00000000	00000013	addi	x0,x0,0	  x0:0x00000000
       26535000	      2652	80006208	00000013	addi	x0,x0,0	  x0:0x00000000
       26545000	      2653	8000620c	02356463	bltu	x10,x3,80006234	 x10:0x80009f30  x3:0x346f3d90
       26555000	      2654	80006210	40ca00b3	sub	x1,x20,x12	 x20:0x0000003b x12:0x00004d34  x1=0xffffb307
       26565000	      2655	80006214	001f6c63	bltu	x30,x1,8000622c	 x30:0x0000008e  x1:0xffffb307
       26575000	      2656	00000000	00000013	addi	x0,x0,0	  x0:0x00000000
       26585000	      2657	80006228	00000013	addi	x0,x0,0	  x0:0x00000000
       26595000	      2658	8000622c	01384d33	xor	x26,x16,x19	 x16:0x3b026e4c x19:0x00000032 x26=0x3b026e7e
       26605000	      2659	80006230	007506b3	add	x13,x10,x7	 x10:0x80009f30  x7:0x00000001 x13=0x80009f31
       26615000	      2660	80006234	00000013	addi	x0,x0,0	  x0:0x00000000
       26625000	      2661	80006238	00742433	slt	x8,x8,x7	  x8:0x00000001  x7:0x00000001  x8=0x00000000
       26635000	      2662	8000623c	00019613	slli	x12,x3,0x0	  x3:0x346f3d90 x12=0x346f3d90
       26645000	      2663	80006240	001c1233	sll	x4,x24,x1	 x24:0x000001a1  x1:0xffffb307  x4=0x0000d080
       26655000	      2664	80006244	00000013	addi	x0,x0,0	  x0:0x00000000
       26665000	      2665	80006248	80c3de37	lui	x28,0x80c3d	 x28=0x80c3d000
       26675000	      2666	8000624c	0239ce63	blt	x19,x3,80006288	 x19:0x00000032  x3:0x346f3d90
       26685000	      2667	00000000	00000013	addi	x0,x0,0	  x0:0x00000000
       26695000	      2668	80006284	00000013	addi	x0,x0,0	  x0:0x00000000
       26705000	      2669	80006288	02048e63	beq	x9,x0,800062c4	  x9:0x7cc51134  x0:0x00000000
       26715000	      2670	8000628c	40935fb3	sra	x31,x6,x9	  x6:0xfffffb91  x9:0x7cc51134 x31=0xffffffff
       26725000	      2671	80006290	0171d913	srli	x18,x3,0x17	  x3:0x346f3d90 x18=0x00000068
       26735000	      2672	80006294	40f8d233	sra	x4,x17,x15	 x17:0x3b0267e6 x15:0x00000001  x4=0x1d8133f3
       26745000	      2673	80006298	00601fb3	sll	x31,x0,x6	  x0:0x00000000  x6:0xfffffb91 x31=0x00000000
       26755000	      2674	8000629c	08df6693	ori	x13,x30,141	 x30:0x0000008e x13=0x0000008f
       26765000	      2675	800062a0	3f5ec493	xori	x9,x29,1013	 x29:0x00000000  x9=0x000003f5
       26775000	      2676	800062a4	00459633	sll	x12,x11,x4	 x11:0x80009fc4  x4:0x1d8133f3 x12=0xfe200000
       26785000	      2677	800062a8	028a4263	blt	x20,x8,800062cc	 x20:0x0000003b  x8:0x00000000
       26795000	      2678	800062ac	40ad0733	sub	x14,x26,x10	 x26:0x3b026e7e x10:0x80009f30 x14=0xbb01cf4e
       26805000	      2679	800062b0	0156ccb3	xor	x25,x13,x21	 x13:0x0000008f x21:0x00000000 x25=0x0000008f
       26815000	      2680	800062b4	0510f463	bgeu	x1,x17,800062fc	  x1:0xffffb307 x17:0x3b0267e6
       26825000	      2681	00000000	00000013	addi	x0,x0,0	  x0:0x00000000
       26835000	      2682	800062f8	00000013	addi	x0,x0,0	  x0:0x00000000
       26845000	      2683	800062fc	03200663	beq	x0,x18,80006328	  x0:0x00000000 x18:0x00000068
       26855000	      2684	80006300	4e886713	ori	x14,x16,1256	 x16:0x3b026e4c x14=0x3b026eec
       26865000	      2685	80006304	0274c263	blt	x9,x7,80006328	  x9:0x000003f5  x7:0x00000001
       26875000	      2686	80006308	03848463	beq	x9,x24,80006330	  x9:0x000003f5 x24:0x000001a1
       26885000	      2687	8000630c	015aaab3	slt	x21,x21,x21	 x21:0x00000000 x21:0x00000000 x21=0x00000000
       26895000	      2688	80006310	00506333	or	x6,x0,x5	  x0:0x00000000  x5:0x00000000  x6=0x00000000
       26905000	      2689	80006314	007c88b3	add	x17,x25,x7	 x25:0x0000008f  x7:0x00000001 x17=0x00000090
       26915000	      2690	80006318	001b8463	beq	x23,x1,80006320	 x23:0x0000000d  x1:0xffffb307
       26925000	      2691	8000631c	01adfc63	bgeu	x27,x26,80006334	 x27:0x00000000 x26:0x3b026e7e
       26935000	      2692	80006320	798a4f93	xori	x31,x20,1944	 x20:0x0000003b x31=0x000007a3
       26945000	      2693	80006324	00cb67b3	or	x15,x22,x12	 x22:0x00000001 x12:0xfe200000 x15=0xfe200001
       26955000	      2694	80006328	011016b3	sll	x13,x0,x17	  x0:0x00000000 x17:0x00000090 x13=0x00000000
       26965000	      2695	8000632c	005f79b3	and	x19,x30,x5	 x30:0x0000008e  x5:0x00000000 x19=0x00000000
       26975000	      2696	80006330	00576c63	bltu	x14,x5,80006348	 x14:0x3b026eec  x5:0x00000000
       26985000	      2697	80006334	2b7aac13	slti	x24,x21,695	 x21:0x00000000 x24=0x00000001
       26995000	      2698	80006338	6f0fc3b7	lui	x7,0x6f0fc	  x7=0x6f0fc000
       27005000	      2699	8000633c	af87ac37	lui	x24,0xaf87a	 x24=0xaf87a000
       27015000	      2700	80006340	05641463	bne	x8,x22,80006388	  x8:0x00000000 x22:0x00000001
       27025000	      2701	00000000	00000013	addi	x0,x0,0	  x0:0x00000000
       27035000	      2702	80006384	00000013	addi	x0,x0,0	  x0:0x00000000
       27045000	      2703	80006388	01ab5ab3	srl	x21,x22,x26	 x22:0x00000001 x26:0x3b026e7e x21=0x00000000
       27055000	      2704	8000638c	00a6ed33	or	x26,x13,x10	 x13:0x00000000 x10:0x80009f30 x26=0x80009f30
       27065000	      2705	80006390	cb89af13	slti	x30,x19,-840	 x19:0x00000000 x30=0x00000000
       27075000	      2706	80006394	009683b3	add	x7,x13,x9	 x13:0x00000000  x9:0x000003f5  x7=0x000003f5
       27085000	      2707	80006398	d68a6413	ori	x8,x20,-664	 x20:0x0000003b  x8=0xfffffd7b
       27095000	      2708	8000639c	018f41b3	xor	x3,x30,x24	 x30:0x00000000 x24:0xaf87a000  x3=0xaf87a000
       27105000	      2709	800063a0	047cd463	bge	x25,x7,800063e8	 x25:0x0000008f  x7:0x000003f5
       27115000	      2710	800063a4	7e40ff97	auipc	x31,0x7e40f	 x31=0xfe4153a0
       27125000	      2711	800063a8	01945393	srli	x7,x8,0x19	  x8:0xfffffd7b  x7=0x0000007f
       27135000	      2712	800063ac	e2dd4493	xori	x9,x26,-467	 x26:0x80009f30  x9=0x7fff611d
       27145000	      2713	800063b0	01850e33	add	x28,x10,x24	 x10:0x80009f30 x24:0xaf87a000 x28=0x2f883f30
       27155000	      2714	800063b4	01b46c63	bltu	x8,x27,800063cc	  x8:0xfffffd7b x27:0x00000000
       27165000	      2715	800063b8	45018713	addi	x14,x3,1104	  x3:0xaf87a000 x14=0xaf87a450
       27175000	      2716	800063bc	9098bb37	lui	x22,0x9098b	 x22=0x9098b000
       27185000	      2717	800063c0	01049e13	slli	x28,x9,0x10	  x9:0x7fff611d x28=0x611d0000
       27195000	      2718	800063c4	01275a13	srli	x20,x14,0x12	 x14:0xaf87a450 x20=0x00002be1
       27205000	      2719	800063c8	404cd933	sra	x18,x25,x4	 x25:0x0000008f  x4:0x1d8133f3 x18=0x00000000
       27215000	      2720	800063cc	002b3fb3	sltu	x31,x22,x2	 x22:0x9098b000  x2:0x3b0267e6 x31=0x00000000
       27225000	      2721	800063d0	00241813	slli	x16,x8,0x2	  x8:0xfffffd7b x16=0xfffff5ec
       27235000	      2722	800063d4	00756633	or	x12,x10,x7	 x10:0x80009f30  x7:0x0000007f x12=0x80009f7f
       27245000	      2723	800063d8	eff88793	addi	x15,x17,-257	 x17:0x00000090 x15=0xffffff8f
       27255000	      2724	800063dc	0182d013	srli	x0,x5,0x18	  x5:0x00000000
       27265000	      2725	800063e0	03bc1863	bne	x24,x27,80006410	 x24:0xaf87a000 x27:0x00000000
       27275000	      2726	00000000	00000013	addi	x0,x0,0	  x0:0x00000000
       27285000	      2727	8000640c	00000013	addi	x0,x0,0	  x0:0x00000000
       27295000	      2728	80006410	01c70233	add	x4,x14,x28	 x14:0xaf87a450 x28:0x611d0000  x4=0x10a4a450
       27305000	      2729	80006414	02920063	beq	x4,x9,80006434	  x4:0x10a4a450  x9:0x7fff611d
       27315000	      2730	80006418	0145e1b3	or	x3,x11,x20	 x11:0x80009fc4 x20:0x00002be1  x3=0x8000bfe5
       27325000	      2731	8000641c	00000013	addi	x0,x0,0	  x0:0x00000000
       27335000	      2732	80006420	00d95893	srli	x17,x18,0xd	 x18:0x00000000 x17=0x00000000
       27345000	      2733	80006424	1d622017	auipc	x0,0x1d622	
       27355000	      2734	80006428	158ec213	xori	x4,x29,344	 x29:0x00000000  x4=0x00000158
       27365000	      2735	8000642c	00044333	xor	x6,x8,x0	  x8:0xfffffd7b  x0:0x00000000  x6=0xfffffd7b
       27375000	      2736	80006430	01929f13	slli	x30,x5,0x19	  x5:0x00000000 x30=0x00000000
       27385000	      2737	80006434	01969793	slli	x15,x13,0x19	 x13:0x00000000 x15=0x00000000
       27395000	      2738	80006438	03fd8463	beq	x27,x31,80006460	 x27:0x00000000 x31:0x00000000
       27405000	      2739	00000000	00000013	addi	x0,x0,0	  x0:0x00000000
       27415000	      2740	8000645c	00000013	addi	x0,x0,0	  x0:0x00000000
       27425000	      2741	80006460	0054da13	srli	x20,x9,0x5	  x9:0x7fff611d x20=0x03fffb08
       27435000	      2742	80006464	03571263	bne	x14,x21,80006488	 x14:0xaf87a450 x21:0x00000000
       27445000	      2743	00000000	00000013	addi	x0,x0,0	  x0:0x00000000
       27455000	      2744	80006484	00000013	addi	x0,x0,0	  x0:0x00000000
       27465000	      2745	80006488	01352b33	slt	x22,x10,x19	 x10:0x80009f30 x19:0x00000000 x22=0x00000001
       27475000	      2746	8000648c	010268b3	or	x17,x4,x16	  x4:0x00000158 x16:0xfffff5ec x17=0xfffff5fc
       27485000	      2747	80006490	01f18f33	add	x30,x3,x31	  x3:0x8000bfe5 x31:0x00000000 x30=0x8000bfe5
       27495000	      2748	80006494	41d15113	srai	x2,x2,0x1d	  x2:0x3b0267e6  x2=0x00000001
       27505000	      2749	80006498	be463317	auipc	x6,0xbe463	  x6=0x3e469494
       27515000	      2750	8000649c	003c94b3	sll	x9,x25,x3	 x25:0x0000008f  x3:0x8000bfe5  x9=0x000011e0
       27525000	      2751	800064a0	417e8ab3	sub	x21,x29,x23	 x29:0x00000000 x23:0x0000000d x21=0xfffffff3
       27535000	      2752	800064a4	019163b3	or	x7,x2,x25	  x2:0x00000001 x25:0x0000008f  x7=0x0000008f
       27545000	      2753	800064a8	8d8de713	ori	x14,x27,-1832	 x27:0x00000000 x14=0xfffff8d8
       27555000	      2754	800064ac	014d4933	xor	x18,x26,x20	 x26:0x80009f30 x20:0x03fffb08 x18=0x83ff6438
       27565000	      2755	800064b0	c50c7613	andi	x12,x24,-944	 x24:0xaf87a000 x12=0xaf87a000
       27575000	      2756	800064b4	38575e17	auipc	x28,0x38575	 x28=0xb857b4b0
       27585000	      2757	800064b8	413656b3	sra	x13,x12,x19	 x12:0xaf87a000 x19:0x00000000 x13=0xaf87a000
       27595000	      2758	800064bc	0065acb3	slt	x25,x11,x6	 x11:0x80009fc4  x6:0x3e469494 x25=0x00000001
       27605000	      2759	800064c0	40c00db3	sub	x27,x0,x12	  x0:0x00000000 x12:0xaf87a000 x27=0x50786000
       27615000	      2760	800064c4	004b18b3	sll	x17,x22,x4	 x22:0x00000001  x4:0x00000158 x17=0x01000000
       27625000	      2761	800064c8	00000013	addi	x0,x0,0	  x0:0x00000000
       27635000	      2762	800064cc	1154b313	sltiu	x6,x9,277	  x9:0x000011e0  x6=0x00000000
       27645000	      2763	800064d0	013e3133	sltu	x2,x28,x19	 x28:0xb857b4b0 x19:0x00000000  x2=0x00000000
       27655000	      2764	800064d4	00855e63	bge	x10,x8,800064f0	 x10:0x80009f30  x8:0xfffffd7b
       27665000	      2765	800064d8	00c85613	srli	x12,x16,0xc	 x16:0xfffff5ec x12=0x000fffff
       27675000	      2766	800064dc	00b3cb33	xor	x22,x7,x11	  x7:0x0000008f x11:0x80009fc4 x22=0x80009f4b
       27685000	      2767	800064e0	410986b3	sub	x13,x19,x16	 x19:0x00000000 x16:0xfffff5ec x13=0x00000a14
       27695000	      2768	800064e4	00e58c33	add	x24,x11,x14	 x11:0x80009fc4 x14:0xfffff8d8 x24=0x8000989c
       27705000	      2769	800064e8	02e16e63	bltu	x2,x14,80006524	  x2:0x00000000 x14:0xfffff8d8
       27715000	      2770	00000000	00000013	addi	x0,x0,0	  x0:0x00000000
       27725000	      2771	80006520	00000013	addi	x0,x0,0	  x0:0x00000000
       27735000	      2772	80006524	01585193	srli	x3,x16,0x15	 x16:0xfffff5ec  x3=0x000007ff
       27745000	      2773	80006528	010257b3	srl	x15,x4,x16	  x4:0x00000158 x16:0xfffff5ec x15=0x00000000
       27755000	      2774	8000652c	41db5313	srai	x6,x22,0x1d	 x22:0x80009f4b  x6=0xfffffffc
       27765000	      2775	80006530	0167a833	slt	x16,x15,x22	 x15:0x00000000 x22:0x80009f4b x16=0x00000000
       27775000	      2776	80006534	01b350b3	srl	x1,x6,x27	  x6:0xfffffffc x27:0x50786000  x1=0xfffffffc
       27785000	      2777	80006538	cc892337	lui	x6,0xcc892	  x6=0xcc892000
       27795000	      2778	8000653c	00681033	sll	x0,x16,x6	 x16:0x00000000  x6:0xcc892000
       27805000	      2779	80006540	00fd5193	srli	x3,x26,0xf	 x26:0x80009f30  x3=0x00010001
       27815000	      2780	80006544	41dbdcb3	sra	x25,x23,x29	 x23:0x0000000d x29:0x00000000 x25=0x0000000d
       27825000	      2781	80006548	0062dc63	bge	x5,x6,80006560	  x5:0x00000000  x6:0xcc892000
       27835000	      2782	00000000	00000013	addi	x0,x0,0	  x0:0x00000000
       27845000	      2783	8000655c	00000013	addi	x0,x0,0	  x0:0x00000000
       27855000	      2784	80006560	00b4dc63	bge	x9,x11,80006578	  x9:0x000011e0 x11:0x80009fc4
       27865000	      2785	00000000	00000013	addi	x0,x0,0	  x0:0x00000000
       27875000	      2786	80006574	00000013	addi	x0,x0,0	  x0:0x00000000
       27885000	      2787	80006578	00595463	bge	x18,x5,80006580	 x18:0x83ff6438  x5:0x00000000
       27895000	      2788	8000657c	01e6dcb3	srl	x25,x13,x30	 x13:0x00000a14 x30:0x8000bfe5 x25=0x00000050
       27905000	      2789	80006580	415fd313	srai	x6,x31,0x15	 x31:0x00000000  x6=0x00000000
       27915000	      2790	80006584	110c1e37	lui	x28,0x110c1	 x28=0x110c1000
       27925000	      2791	80006588	a534ad93	slti	x27,x9,-1453	  x9:0x000011e0 x27=0x00000000
       27935000	      2792	8000658c	0dbffd13	andi	x26,x31,219	 x31:0x00000000 x26=0x00000000
       27945000	      2793	80006590	015f7733	and	x14,x30,x21	 x30:0x8000bfe5 x21:0xfffffff3 x14=0x8000bfe1
       27955000	      2794	80006594	41ecdf33	sra	x30,x25,x30	 x25:0x00000050 x30:0x8000bfe5 x30=0x00000002
       27965000	      2795	80006598	011c7033	and	x0,x24,x17	 x24:0x8000989c x17:0x01000000
       27975000	      2796	8000659c	018fda93	srli	x21,x31,0x18	 x31:0x00000000 x21=0x00000000
       27985000	      2797	800065a0	34b72c93	slti	x25,x14,843	 x14:0x8000bfe1 x25=0x00000001
       27995000	      2798	800065a4	02ff5863	bge	x30,x15,800065d4	 x30:0x00000002 x15:0x00000000
       28005000	      2799	00000000	00000013	addi	x0,x0,0	  x0:0x00000000
       28015000	      2800	800065d0	00000013	addi	x0,x0,0	  x0:0x00000000
       28025000	      2801	800065d4	020ee263	bltu	x29,x0,800065f8	 x29:0x00000000  x0:0x00000000
       28035000	      2802	800065d8	01398ab3	add	x21,x19,x19	 x19:0x00000000 x19:0x00000000 x21=0x00000000
       28045000	      2803	800065dc	0084a2b3	slt	x5,x9,x8	  x9:0x000011e0  x8:0xfffffd7b  x5=0x00000000
       28055000	      2804	800065e0	055be063	bltu	x23,x21,80006620	 x23:0x0000000d x21:0x00000000
       28065000	      2805	800065e4	01f921b3	slt	x3,x18,x31	 x18:0x83ff6438 x31:0x00000000  x3=0x00000001
       28075000	      2806	800065e8	ec1da993	slti	x19,x27,-319	 x27:0x00000000 x19=0x00000000
       28085000	      2807	800065ec	00bac0b3	xor	x1,x21,x11	 x21:0x00000000 x11:0x80009fc4  x1=0x80009fc4
       28095000	      2808	800065f0	00dbd893	srli	x17,x23,0xd	 x23:0x0000000d x17=0x00000000
       28105000	      2809	800065f4	04188463	beq	x17,x1,8000663c	 x17:0x00000000  x1:0x80009fc4
       28115000	      2810	800065f8	00478463	beq	x15,x4,80006600	 x15:0x00000000  x4:0x00000158
       28125000	      2811	800065fc	001d8463	beq	x27,x1,80006604	 x27:0x00000000  x1:0x80009fc4
       28135000	      2812	80006600	e5106713	ori	x14,x0,-431	  x0:0x00000000 x14=0xfffffe51
       28145000	      2813	80006604	00b19e93	slli	x29,x3,0xb	  x3:0x00000001 x29=0x00000800
       28155000	      2814	80006608	000d16b3	sll	x13,x26,x0	 x26:0x00000000  x0:0x00000000 x13=0x00000000
       28165000	      2815	8000660c	00a73833	sltu	x16,x14,x10	 x14:0xfffffe51 x10:0x80009f30 x16=0x00000000
       28175000	      2816	80006610	01fafa33	and	x20,x21,x31	 x21:0x00000000 x31:0x00000000 x20=0x00000000
       28185000	      2817	80006614	eaf2e393	ori	x7,x5,-337	  x5:0x00000000  x7=0xfffffeaf
       28195000	      2818	80006618	04797463	bgeu	x18,x7,80006660	 x18:0x83ff6438  x7:0xfffffeaf
       28205000	      2819	8000661c	02864863	blt	x12,x8,8000664c	 x12:0x000fffff  x8:0xfffffd7b
       28215000	      2820	80006620	9b8f3f37	lui	x30,0x9b8f3	 x30=0x9b8f3000
       28225000	      2821	80006624	00e1dd13	srli	x26,x3,0xe	  x3:0x00000001 x26=0x00000000
       28235000	      2822	80006628	40cbdc33	sra	x24,x23,x12	 x23:0x0000000d x12:0x000fffff x24=0x00000000
       28245000	      2823	8000662c	c771b793	sltiu	x15,x3,-905	  x3:0x00000001 x15=0x00000001
       28255000	      2824	80006630	40bfde33	sra	x28,x31,x11	 x31:0x00000000 x11:0x80009fc4 x28=0x00000000
       28265000	      2825	80006634	41615233	sra	x4,x2,x22	  x2:0x00000000 x22:0x80009f4b  x4=0x00000000
       28275000	      2826	80006638	e1758793	addi	x15,x11,-489	 x11:0x80009fc4 x15=0x80009ddb
       28285000	      2827	8000663c	1abee093	ori	x1,x29,427	 x29:0x00000800  x1=0x000009ab
       28295000	      2828	80006640	06cb6793	ori	x15,x22,108	 x22:0x80009f4b x15=0x80009f6f
       28305000	      2829	80006644	29436813	ori	x16,x6,660	  x6:0x00000000 x16=0x00000294
       28315000	      2830	80006648	40c7dcb3	sra	x25,x15,x12	 x15:0x80009f6f x12:0x000fffff x25=0xffffffff
       28325000	      2831	8000664c	00000013	addi	x0,x0,0	  x0:0x00000000
       28335000	      2832	80006650	018e5013	srli	x0,x28,0x18	 x28:0x00000000
       28345000	      2833	80006654	0022a733	slt	x14,x5,x2	  x5:0x00000000  x2:0x00000000 x14=0x00000000
       28355000	      2834	80006658	011f4c63	blt	x30,x17,80006670	 x30:0x9b8f3000 x17:0x00000000
       28365000	      2835	00000000	00000013	addi	x0,x0,0	  x0:0x00000000
       28375000	      2836	8000666c	00000013	addi	x0,x0,0	  x0:0x00000000
       28385000	      2837	80006670	00000013	addi	x0,x0,0	  x0:0x00000000
       28395000	      2838	80006674	adc02f13	slti	x30,x0,-1316	  x0:0x00000000 x30=0x00000000
       28405000	      2839	80006678	01561e63	bne	x12,x21,80006694	 x12:0x000fffff x21:0x00000000
       28415000	      2840	00000000	00000013	addi	x0,x0,0	  x0:0x00000000
       28425000	      2841	80006690	00000013	addi	x0,x0,0	  x0:0x00000000
       28435000	      2842	80006694	77068d93	addi	x27,x13,1904	 x13:0x00000000 x27=0x00000770
       28445000	      2843	80006698	40dc5ab3	sra	x21,x24,x13	 x24:0x00000000 x13:0x00000000 x21=0x00000000
       28455000	      2844	8000669c	40bdd293	srai	x5,x27,0xb	 x27:0x00000770  x5=0x00000000
       28465000	      2845	800066a0	4083de33	sra	x28,x7,x8	  x7:0xfffffeaf  x8:0xfffffd7b x28=0xffffffff
       28475000	      2846	800066a4	0122d463	bge	x5,x18,800066ac	  x5:0x00000000 x18:0x83ff6438
       28485000	      2847	00000000	00000013	addi	x0,x0,0	  x0:0x00000000
       28495000	      2848	800066a8	00000013	addi	x0,x0,0	  x0:0x00000000
       28505000	      2849	800066ac	234e8f13	addi	x30,x29,564	 x29:0x00000800 x30=0x00000a34
       28515000	      2850	800066b0	00364eb3	xor	x29,x12,x3	 x12:0x000fffff  x3:0x00000001 x29=0x000ffffe
       28525000	      2851	800066b4	01c0d6b3	srl	x13,x1,x28	  x1:0x000009ab x28:0xffffffff x13=0x00000000
       28535000	      2852	800066b8	01c054b3	srl	x9,x0,x28	  x0:0x00000000 x28:0xffffffff  x9=0x00000000
       28545000	      2853	800066bc	91e93713	sltiu	x14,x18,-1762	 x18:0x83ff6438 x14=0x00000001
       28555000	      2854	800066c0	41345a93	srai	x21,x8,0x13	  x8:0xfffffd7b x21=0xffffffff
       28565000	      2855	800066c4	00c399b3	sll	x19,x7,x12	  x7:0xfffffeaf x12:0x000fffff x19=0x80000000
       28575000	      2856	800066c8	8790fc13	andi	x24,x1,-1927	  x1:0x000009ab x24=0x00000829
       28585000	      2857	800066cc	ca152393	slti	x7,x10,-863	 x10:0x80009f30  x7=0x00000001
       28595000	      2858	800066d0	88b7b737	lui	x14,0x88b7b	 x14=0x88b7b000
       28605000	      2859	800066d4	00ac6c63	bltu	x24,x10,800066ec	 x24:0x00000829 x10:0x80009f30
       28615000	      2860	00000000	00000013	addi	x0,x0,0	  x0:0x00000000
       28625000	      2861	800066e8	00000013	addi	x0,x0,0	  x0:0x00000000
       28635000	      2862	800066ec	00cbc4b3	xor	x9,x23,x12	 x23:0x0000000d x12:0x000fffff  x9=0x000ffff2
       28645000	      2863	800066f0	405fd993	srai	x19,x31,0x5	 x31:0x00000000 x19=0x00000000
       28655000	      2864	800066f4	004f9033	sll	x0,x31,x4	 x31:0x00000000  x4:0x00000000
       28665000	      2865	800066f8	01947eb3	and	x29,x8,x25	  x8:0xfffffd7b x25:0xffffffff x29=0xfffffd7b
       28675000	      2866	800066fc	00793933	sltu	x18,x18,x7	 x18:0x83ff6438  x7:0x00000001 x18=0x00000000
       28685000	      2867	80006700	018b9c63	bne	x23,x24,80006718	 x23:0x0000000d x24:0x00000829
       28695000	      2868	00000000	00000013	addi	x0,x0,0	  x0:0x00000000
       28705000	      2869	80006714	00000013	addi	x0,x0,0	  x0:0x00000000
       28715000	      2870	80006718	41ee5c93	srai	x25,x28,0x1e	 x28:0xffffffff x25=0xffffffff
       28725000	      2871	8000671c	41be83b3	sub	x7,x29,x27	 x29:0xfffffd7b x27:0x00000770  x7=0xfffff60b
       28735000	      2872	80006720	04c77463	bgeu	x14,x12,80006768	 x14:0x88b7b000 x12:0x000fffff
       28745000	      2873	00000000	00000013	addi	x0,x0,0	  x0:0x00000000
       28755000	      2874	80006764	00000013	addi	x0,x0,0	  x0:0x00000000
       28765000	      2875	80006768	0398c863	blt	x17,x25,80006798	 x17:0x00000000 x25:0xffffffff
       28775000	      2876	8000676c	01af6c33	or	x24,x30,x26	 x30:0x00000a34 x26:0x00000000 x24=0x00000a34
       28785000	      2877	80006770	01080463	beq	x16,x16,80006778	 x16:0x00000294 x16:0x00000294
       28795000	      2878	00000000	00000013	addi	x0,x0,0	  x0:0x00000000
       28805000	      2879	80006774	00000013	addi	x0,x0,0	  x0:0x00000000
       28815000	      2880	80006778	00f35e63	bge	x6,x15,80006794	  x6:0x00000000 x15:0x80009f6f
       28825000	      2881	00000000	00000013	addi	x0,x0,0	  x0:0x00000000
       28835000	      2882	80006790	00000013	addi	x0,x0,0	  x0:0x00000000
       28845000	      2883	80006794	7e55e493	ori	x9,x11,2021	 x11:0x80009fc4  x9=0x80009fe5
       28855000	      2884	80006798	01844663	blt	x8,x24,800067a4	  x8:0xfffffd7b x24:0x00000a34
       28865000	      2885	00000000	00000013	addi	x0,x0,0	  x0:0x00000000
       28875000	      2886	800067a0	00000013	addi	x0,x0,0	  x0:0x00000000
       28885000	      2887	800067a4	004357b3	srl	x15,x6,x4	  x6:0x00000000  x4:0x00000000 x15=0x00000000
       28895000	      2888	800067a8	41e4d713	srai	x14,x9,0x1e	  x9:0x80009fe5 x14=0xfffffffe
       28905000	      2889	800067ac	41fbd0b3	sra	x1,x23,x31	 x23:0x0000000d x31:0x00000000  x1=0x0000000d
       28915000	      2890	800067b0	004f13b3	sll	x7,x30,x4	 x30:0x00000a34  x4:0x00000000  x7=0x00000a34
       28925000	      2891	800067b4	d074b337	lui	x6,0xd074b	  x6=0xd074b000
       28935000	      2892	800067b8	004064b3	or	x9,x0,x4	  x0:0x00000000  x4:0x00000000  x9=0x00000000
       28945000	      2893	800067bc	0102d133	srl	x2,x5,x16	  x5:0x00000000 x16:0x00000294  x2=0x00000000
       28955000	      2894	800067c0	2fa16f17	auipc	x30,0x2fa16	 x30=0xafa1c7bc
       28965000	      2895	800067c4	0026fd33	and	x26,x13,x2	 x13:0x00000000  x2:0x00000000 x26=0x00000000
       28975000	      2896	800067c8	40718a33	sub	x20,x3,x7	  x3:0x00000001  x7:0x00000a34 x20=0xfffff5cd
       28985000	      2897	800067cc	007132b3	sltu	x5,x2,x7	  x2:0x00000000  x7:0x00000a34  x5=0x00000001
       28995000	      2898	800067d0	aca2bf13	sltiu	x30,x5,-1334	  x5:0x00000001 x30=0x00000001
       29005000	      2899	800067d4	01b09193	slli	x3,x1,0x1b	  x1:0x0000000d  x3=0x68000000
       29015000	      2900	800067d8	0290f063	bgeu	x1,x9,800067f8	  x1:0x0000000d  x9:0x00000000
       29025000	      2901	00000000	00000013	addi	x0,x0,0	  x0:0x00000000
       29035000	      2902	800067f4	00000013	addi	x0,x0,0	  x0:0x00000000
       29045000	      2903	800067f8	fc17ddb7	lui	x27,0xfc17d	 x27=0xfc17d000
       29055000	      2904	800067fc	00b11d33	sll	x26,x2,x11	  x2:0x00000000 x11:0x80009fc4 x26=0x00000000
       29065000	      2905	80006800	01d6d233	srl	x4,x13,x29	 x13:0x00000000 x29:0xfffffd7b  x4=0x00000000
       29075000	      2906	80006804	d1a616b7	lui	x13,0xd1a61	 x13=0xd1a61000
       29085000	      2907	80006808	e809b193	sltiu	x3,x19,-384	 x19:0x00000000  x3=0x00000001
       29095000	      2908	8000680c	0327ce63	blt	x15,x18,80006848	 x15:0x00000000 x18:0x00000000
       29105000	      2909	80006810	04818063	beq	x3,x8,80006850	  x3:0x00000001  x8:0xfffffd7b
       29115000	      2910	80006814	0309d863	bge	x19,x16,80006844	 x19:0x00000000 x16:0x00000294
       29125000	      2911	80006818	05b10463	beq	x2,x27,80006860	  x2:0x00000000 x27:0xfc17d000
       29135000	      2912	8000681c	01499c63	bne	x19,x20,80006834	 x19:0x00000000 x20:0xfffff5cd
       29145000	      2913	00000000	00000013	addi	x0,x0,0	  x0:0x00000000
       29155000	      2914	80006830	00000013	addi	x0,x0,0	  x0:0x00000000
       29165000	      2915	80006834	00025913	srli	x18,x4,0x0	  x4:0x00000000 x18=0x00000000
       29175000	      2916	80006838	28cd6f13	ori	x30,x26,652	 x26:0x00000000 x30=0x0000028c
       29185000	      2917	8000683c	49223c93	sltiu	x25,x4,1170	  x4:0x00000000 x25=0x00000001
       29195000	      2918	80006840	015d8f33	add	x30,x27,x21	 x27:0xfc17d000 x21:0xffffffff x30=0xfc17cfff
       29205000	      2919	80006844	01919813	slli	x16,x3,0x19	  x3:0x00000001 x16=0x02000000
       29215000	      2920	80006848	62f7cc13	xori	x24,x15,1583	 x15:0x00000000 x24=0x0000062f
       29225000	      2921	8000684c	00b4f133	and	x2,x9,x11	  x9:0x00000000 x11:0x80009fc4  x2=0x00000000
       29235000	      2922	80006850	05f1d463	bge	x3,x31,80006898	  x3:0x00000001 x31:0x00000000
       29245000	      2923	00000000	00000013	addi	x0,x0,0	  x0:0x00000000
       29255000	      2924	80006894	00000013	addi	x0,x0,0	  x0:0x00000000
       29265000	      2925	80006898	006f8e33	add	x28,x31,x6	 x31:0x00000000  x6:0xd074b000 x28=0xd074b000
       29275000	      2926	8000689c	00ebdf93	srli	x31,x23,0xe	 x23:0x0000000d x31=0x00000000
       29285000	      2927	800068a0	02a86463	bltu	x16,x10,800068c8	 x16:0x02000000 x10:0x80009f30
       29295000	      2928	00000000	00000013	addi	x0,x0,0	  x0:0x00000000
       29305000	      2929	800068c4	00000013	addi	x0,x0,0	  x0:0x00000000
       29315000	      2930	800068c8	01071e93	slli	x29,x14,0x10	 x14:0xfffffffe x29=0xfffe0000
       29325000	      2931	800068cc	00cbd263	bge	x23,x12,800068d0	 x23:0x0000000d x12:0x000fffff
       29335000	      2932	800068d0	416352b3	sra	x5,x6,x22	  x6:0xd074b000 x22:0x80009f4b  x5=0xfffa0e96
       29345000	      2933	800068d4	9613d497	auipc	x9,0x9613d	  x9=0x161438d0
       29355000	      2934	800068d8	00ea0133	add	x2,x20,x14	 x20:0xfffff5cd x14:0xfffffffe  x2=0xfffff5cb
       29365000	      2935	800068dc	01801913	slli	x18,x0,0x18	  x0:0x00000000 x18=0x00000000
       29375000	      2936	800068e0	5e2ef637	lui	x12,0x5e2ef	 x12=0x5e2ef000
       29385000	      2937	800068e4	004dde63	bge	x27,x4,80006900	 x27:0xfc17d000  x4:0x00000000
       29395000	      2938	800068e8	012074b3	and	x9,x0,x18	  x0:0x00000000 x18:0x00000000  x9=0x00000000
       29405000	      2939	800068ec	45cca113	slti	x2,x25,1116	 x25:0x00000001  x2=0x00000001
       29415000	      2940	800068f0	d2338eb7	lui	x29,0xd2338	 x29=0xd2338000
       29425000	      2941	800068f4	01e39913	slli	x18,x7,0x1e	  x7:0x00000a34 x18=0x00000000
       29435000	      2942	800068f8	29d9e013	ori	x0,x19,669	 x19:0x00000000
       29445000	      2943	800068fc	008df7b3	and	x15,x27,x8	 x27:0xfc17d000  x8:0xfffffd7b x15=0xfc17d000
       29455000	      2944	80006900	00be5a33	srl	x20,x28,x11	 x28:0xd074b000 x11:0x80009fc4 x20=0x0d074b00
       29465000	      2945	80006904	016ac833	xor	x16,x21,x22	 x21:0xffffffff x22:0x80009f4b x16=0x7fff60b4
       29475000	      2946	80006908	01fd72b3	and	x5,x26,x31	 x26:0x00000000 x31:0x00000000  x5=0x00000000
       29485000	      2947	8000690c	00452a03	lw	x20,4(x10)	 x10:0x80009f30 x20=0x8000513c PA:0x80009f34
       29495000	      2948	80006910	00d2b633	sltu	x12,x5,x13	  x5:0x00000000 x13:0xd1a61000 x12=0x00000001
       29505000	      2949	80006914	417c0333	sub	x6,x24,x23	 x24:0x0000062f x23:0x0000000d  x6=0x00000622
       29515000	      2950	80006918	410483b3	sub	x7,x9,x16	  x9:0x00000000 x16:0x7fff60b4  x7=0x80009f4c
       29525000	      2951	8000691c	01450513	addi	x10,x10,20	 x10:0x80009f30 x10=0x80009f44
       29535000	      2952	80006920	7833c893	xori	x17,x7,1923	  x7:0x80009f4c x17=0x800098cf
       29545000	      2953	80006924	018c5d13	srli	x26,x24,0x18	 x24:0x0000062f x26=0x00000000
       29555000	      2954	80006928	01e39193	slli	x3,x7,0x1e	  x7:0x80009f4c  x3=0x00000000
       29565000	      2955	8000692c	40e48833	sub	x16,x9,x14	  x9:0x00000000 x14:0xfffffffe x16=0x00000002
       29575000	      2956	80006930	01001693	slli	x13,x0,0x10	  x0:0x00000000 x13=0x00000000
       29585000	      2957	80006934	000a0a13	addi	x20,x20,0	 x20:0x8000513c x20=0x8000513c
       29595000	      2958	80006938	000a0a67	jalr	x20,x20,0	 x20:0x8000513c x20=0x80006938
       29605000	      2959	00000000	00000013	addi	x0,x0,0	  x0:0x00000000
       29615000	      2960	8000513c	00000013	addi	x0,x0,0	  x0:0x00000000
       29625000	      2961	80005140	00004117	auipc	x2,0x4	  x2=0x8000913c
       29635000	      2962	80005144	9be10113	addi	x2,x2,-1602	  x2:0x8000913c  x2=0x80008afa
       29645000	      2963	80005148	00110783	lb	x15,1(x2)	  x2:0x80008afa x15=0x0000001c PA:0x80008afb
       29655000	      2964	8000514c	604a3c93	sltiu	x25,x20,1540	 x20:0x80006938 x25=0x00000000
       29665000	      2965	80005150	03e11703	lh	x14,62(x2)	  x2:0x80008afa x14=0x00002ad0 PA:0x80008b38
       29675000	      2966	80005154	58497913	andi	x18,x18,1412	 x18:0x00000000 x18=0x00000000
       29685000	      2967	80005158	00347d33	and	x26,x8,x3	  x8:0xfffffd7b  x3:0x00000000 x26=0x00000000
       29695000	      2968	8000515c	fd810483	lb	x9,-40(x2)	  x2:0x80008afa  x9=0x0000007b PA:0x80008ad2
       29705000	      2969	80005160	fe410f83	lb	x31,-28(x2)	  x2:0x80008afa x31=0xffffff9c PA:0x80008ade
       29715000	      2970	80005164	025105a3	sb	x5,43(x2)	  x2:0x80008afa  x5:0x00000000 PA:0x80008b25
       29725000	      2971	80005168	fc214703	lbu	x14,-62(x2)	  x2:0x80008afa x14=0x000000e6 PA:0x80008abc
       29735000	      2972	8000516c	fd514183	lbu	x3,-43(x2)	  x2:0x80008afa  x3=0x000000b5 PA:0x80008acf
       29745000	      2973	80005170	011dad33	slt	x26,x27,x17	 x27:0xfc17d000 x17:0x800098cf x26=0x00000000
       29755000	      2974	80005174	04910023	sb	x9,64(x2)	  x2:0x80008afa  x9:0x0000007b PA:0x80008b3a
       29765000	      2975	80005178	9b0f7a93	andi	x21,x30,-1616	 x30:0xfc17cfff x21=0xfc17c9b0
       29775000	      2976	8000517c	fcd10403	lb	x8,-51(x2)	  x2:0x80008afa  x8=0x00000065 PA:0x80008ac7
       29785000	      2977	80005180	00c28db3	add	x27,x5,x12	  x5:0x00000000 x12:0x00000001 x27=0x00000001
       29795000	      2978	80005184	fec11b03	lh	x22,-20(x2)	  x2:0x80008afa x22=0x00002c34 PA:0x80008ae6
       29805000	      2979	80005188	fce15b03	lhu	x22,-50(x2)	  x2:0x80008afa x22=0x00008b87 PA:0x80008ac8
       29815000	      2980	8000518c	009e1f93	slli	x31,x28,0x9	 x28:0xd074b000 x31=0xe9600000
       29825000	      2981	80005190	478b1217	auipc	x4,0x478b1	  x4=0xc78b618c
       29835000	      2982	80005194	fcc11923	sh	x12,-46(x2)	  x2:0x80008afa x12:0x00000001 PA:0x80008acc
       29845000	      2983	80005198	00000013	addi	x0,x0,0	  x0:0x00000000
       29855000	      2984	8000519c	03314c83	lbu	x25,51(x2)	  x2:0x80008afa x25=0x00000034 PA:0x80008b2d
       29865000	      2985	800051a0	0096d693	srli	x13,x13,0x9	 x13:0x00000000 x13=0x00000000
       29875000	      2986	800051a4	40cb5293	srai	x5,x22,0xc	 x22:0x00008b87  x5=0x00000008
       29885000	      2987	800051a8	03f10723	sb	x31,46(x2)	  x2:0x80008afa x31:0xe9600000 PA:0x80008b28
       29895000	      2988	800051ac	0136b3b3	sltu	x7,x13,x19	 x13:0x00000000 x19:0x00000000  x7=0x00000000
       29905000	      2989	800051b0	01abda93	srli	x21,x23,0x1a	 x23:0x0000000d x21=0x00000000
       29915000	      2990	800051b4	fc411023	sh	x4,-64(x2)	  x2:0x80008afa  x4:0xc78b618c PA:0x80008aba
       29925000	      2991	800051b8	77fd2f13	slti	x30,x26,1919	 x26:0x00000000 x30=0x00000001
       29935000	      2992	800051bc	02f10283	lb	x5,47(x2)	  x2:0x80008afa  x5=0x00000078 PA:0x80008b29
       29945000	      2993	800051c0	00bf3633	sltu	x12,x30,x11	 x30:0x00000001 x11:0x80009fc4 x12=0x00000001
       29955000	      2994	800051c4	780cca13	xori	x20,x25,1920	 x25:0x00000034 x20=0x000007b4
       29965000	      2995	800051c8	40990733	sub	x14,x18,x9	 x18:0x00000000  x9:0x0000007b x14=0xffffff85
       29975000	      2996	800051cc	007cfeb3	and	x29,x25,x7	 x25:0x00000034  x7:0x00000000 x29=0x00000000
       29985000	      2997	800051d0	300efa93	andi	x21,x29,768	 x29:0x00000000 x21=0x00000000
       29995000	      2998	800051d4	fc215983	lhu	x19,-62(x2)	  x2:0x80008afa x19=0x00005de6 PA:0x80008abc
       30005000	      2999	800051d8	67adba13	sltiu	x20,x27,1658	 x27:0x00000001 x20=0x00000001
       30015000	      3000	800051dc	0014d893	srli	x17,x9,0x1	  x9:0x0000007b x17=0x0000003d
       30025000	      3001	800051e0	002a76b3	and	x13,x20,x2	 x20:0x00000001  x2:0x80008afa x13=0x00000000
       30035000	      3002	800051e4	014edc93	srli	x25,x29,0x14	 x29:0x00000000 x25=0x00000000
       30045000	      3003	800051e8	00416333	or	x6,x2,x4	  x2:0x80008afa  x4:0xc78b618c  x6=0xc78bebfe
       30055000	      3004	800051ec	03110083	lb	x1,49(x2)	  x2:0x80008afa  x1=0x00000059 PA:0x80008b2b
       30065000	      3005	800051f0	00feec33	or	x24,x29,x15	 x29:0x00000000 x15:0x0000001c x24=0x0000001c
       30075000	      3006	800051f4	00000013	addi	x0,x0,0	  x0:0x00000000
       30085000	      3007	800051f8	98596313	ori	x6,x18,-1659	 x18:0x00000000  x6=0xfffff985
       30095000	      3008	800051fc	40325393	srai	x7,x4,0x3	  x4:0xc78b618c  x7=0xf8f16c31
       30105000	      3009	80005200	403cddb3	sra	x27,x25,x3	 x25:0x00000000  x3:0x000000b5 x27=0x00000000
       30115000	      3010	80005204	fc714183	lbu	x3,-57(x2)	  x2:0x80008afa  x3=0x000000b9 PA:0x80008ac1
       30125000	      3011	80005208	00a2ba33	sltu	x20,x5,x10	  x5:0x00000078 x10:0x80009f44 x20=0x00000001
       30135000	      3012	8000520c	00411223	sh	x4,4(x2)	  x2:0x80008afa  x4:0xc78b618c PA:0x80008afe
       30145000	      3013	80005210	03810423	sb	x24,40(x2)	  x2:0x80008afa x24:0x0000001c PA:0x80008b22
       30155000	      3014	80005214	01590033	add	x0,x18,x21	 x18:0x00000000 x21:0x00000000
       30165000	      3015	80005218	03f06e63	bltu	x0,x31,80005254	  x0:0x00000000 x31:0xe9600000
       30175000	      3016	00000000	00000013	addi	x0,x0,0	  x0:0x00000000
       30185000	      3017	80005250	00000013	addi	x0,x0,0	  x0:0x00000000
       30195000	      3018	80005254	012c27b3	slt	x15,x24,x18	 x24:0x0000001c x18:0x00000000 x15=0x00000000
       30205000	      3019	80005258	4dbe3cb7	lui	x25,0x4dbe3	 x25=0x4dbe3000
       30215000	      3020	8000525c	14328b13	addi	x22,x5,323	  x5:0x00000078 x22=0x000001bb
       30225000	      3021	80005260	00aa02b3	add	x5,x20,x10	 x20:0x00000001 x10:0x80009f44  x5=0x80009f45
       30235000	      3022	80005264	40045693	srai	x13,x8,0x0	  x8:0x00000065 x13=0x00000065
       30245000	      3023	80005268	01c26c33	or	x24,x4,x28	  x4:0xc78b618c x28:0xd074b000 x24=0xd7fff18c
       30255000	      3024	8000526c	0002f333	and	x6,x5,x0	  x5:0x80009f45  x0:0x00000000  x6=0x00000000
       30265000	      3025	80005270	01733eb3	sltu	x29,x6,x23	  x6:0x00000000 x23:0x0000000d x29=0x00000001
       30275000	      3026	80005274	02267a63	bgeu	x12,x2,800052a8	 x12:0x00000001  x2:0x80008afa
       30285000	      3027	80005278	0120fd33	and	x26,x1,x18	  x1:0x00000059 x18:0x00000000 x26=0x00000000
       30295000	      3028	8000527c	00b92633	slt	x12,x18,x11	 x18:0x00000000 x11:0x80009fc4 x12=0x00000000
       30305000	      3029	80005280	01a7a733	slt	x14,x15,x26	 x15:0x00000000 x26:0x00000000 x14=0x00000000
       30315000	      3030	80005284	00640463	beq	x8,x6,8000528c	  x8:0x00000065  x6:0x00000000
       30325000	      3031	80005288	7f8e8493	addi	x9,x29,2040	 x29:0x00000001  x9=0x000007f9
       30335000	      3032	8000528c	feac7a13	andi	x20,x24,-22	 x24:0xd7fff18c x20=0xd7fff188
       30345000	      3033	80005290	00618b33	add	x22,x3,x6	  x3:0x000000b9  x6:0x00000000 x22=0x000000b9
       30355000	      3034	80005294	f1dbe213	ori	x4,x23,-227	 x23:0x0000000d  x4=0xffffff1d
       30365000	      3035	80005298	418584b3	sub	x9,x11,x24	 x11:0x80009fc4 x24:0xd7fff18c  x9=0xa800ae38
       30375000	      3036	8000529c	70904993	xori	x19,x0,1801	  x0:0x00000000 x19=0x00000709
       30385000	      3037	800052a0	00da7a63	bgeu	x20,x13,800052b4	 x20:0xd7fff188 x13:0x00000065
       30395000	      3038	00000000	00000013	addi	x0,x0,0	  x0:0x00000000
       30405000	      3039	800052b0	00000013	addi	x0,x0,0	  x0:0x00000000
       30415000	      3040	800052b4	018bbf33	sltu	x30,x23,x24	 x23:0x0000000d x24:0xd7fff18c x30=0x00000001
       30425000	      3041	800052b8	002424b3	slt	x9,x8,x2	  x8:0x00000065  x2:0x80008afa  x9=0x00000000
       30435000	      3042	800052bc	0017da33	srl	x20,x15,x1	 x15:0x00000000  x1:0x00000059 x20=0x00000000
       30445000	      3043	800052c0	075afe63	bgeu	x21,x21,8000533c	 x21:0x00000000 x21:0x00000000
       30455000	      3044	00000000	00000013	addi	x0,x0,0	  x0:0x00000000
       30465000	      3045	80005338	00000013	addi	x0,x0,0	  x0:0x00000000
       30475000	      3046	8000533c	a9553b13	sltiu	x22,x10,-1387	 x10:0x80009f44 x22=0x00000001
       30485000	      3047	80005340	027af863	bgeu	x21,x7,80005370	 x21:0x00000000  x7:0xf8f16c31
       30495000	      3048	80005344	02608c63	beq	x1,x6,8000537c	  x1:0x00000059  x6:0x00000000
       30505000	      3049	80005348	004fcc63	blt	x31,x4,80005360	 x31:0xe9600000  x4:0xffffff1d
       30515000	      3050	00000000	00000013	addi	x0,x0,0	  x0:0x00000000
       30525000	      3051	8000535c	00000013	addi	x0,x0,0	  x0:0x00000000
       30535000	      3052	80005360	5fa5b213	sltiu	x4,x11,1530	 x11:0x80009fc4  x4=0x00000000
       30545000	      3053	80005364	01bb9393	slli	x7,x23,0x1b	 x23:0x0000000d  x7=0x68000000
       30555000	      3054	80005368	001b2f33	slt	x30,x22,x1	 x22:0x00000001  x1:0x00000059 x30=0x00000001
       30565000	      3055	8000536c	048f1263	bne	x30,x8,800053b0	 x30:0x00000001  x8:0x00000065
       30575000	      3056	00000000	00000013	addi	x0,x0,0	  x0:0x00000000
       30585000	      3057	800053ac	00000013	addi	x0,x0,0	  x0:0x00000000
       30595000	      3058	800053b0	b065f813	andi	x16,x11,-1274	 x11:0x80009fc4 x16=0x80009b04
       30605000	      3059	800053b4	01fe93b3	sll	x7,x29,x31	 x29:0x00000001 x31:0xe9600000  x7=0x00000001
       30615000	      3060	800053b8	00fc0c63	beq	x24,x15,800053d0	 x24:0xd7fff18c x15:0x00000000
       30625000	      3061	800053bc	41e4d1b3	sra	x3,x9,x30	  x9:0x00000000 x30:0x00000001  x3=0x00000000
       30635000	      3062	800053c0	0259f263	bgeu	x19,x5,800053e4	 x19:0x00000709  x5:0x80009f45
       30645000	      3063	800053c4	ce64cf13	xori	x30,x9,-794	  x9:0x00000000 x30=0xfffffce6
       30655000	      3064	800053c8	c4d2fe13	andi	x28,x5,-947	  x5:0x80009f45 x28=0x80009c45
       30665000	      3065	800053cc	3e99a113	slti	x2,x19,1001	 x19:0x00000709  x2=0x00000000
       30675000	      3066	800053d0	016433b3	sltu	x7,x8,x22	  x8:0x00000065 x22:0x00000001  x7=0x00000000
       30685000	      3067	800053d4	03b3f263	bgeu	x7,x27,800053f8	  x7:0x00000000 x27:0x00000000
       30695000	      3068	00000000	00000013	addi	x0,x0,0	  x0:0x00000000
       30705000	      3069	800053f4	00000013	addi	x0,x0,0	  x0:0x00000000
       30715000	      3070	800053f8	04a99463	bne	x19,x10,80005440	 x19:0x00000709 x10:0x80009f44
       30725000	      3071	00000000	00000013	addi	x0,x0,0	  x0:0x00000000
       30735000	      3072	8000543c	00000013	addi	x0,x0,0	  x0:0x00000000
       30745000	      3073	80005440	72d24c97	auipc	x25,0x72d24	 x25=0xf2d2943c
       30755000	      3074	80005444	6f22ac17	auipc	x24,0x6f22a	 x24=0xef22f440
       30765000	      3075	80005448	403e0ab3	sub	x21,x28,x3	 x28:0x80009c45  x3:0x00000000 x21=0x80009c45
       30775000	      3076	8000544c	01d96eb3	or	x29,x18,x29	 x18:0x00000000 x29:0x00000001 x29=0x00000001
       30785000	      3077	80005450	01b92333	slt	x6,x18,x27	 x18:0x00000000 x27:0x00000000  x6=0x00000000
       30795000	      3078	80005454	41d35a13	srai	x20,x6,0x1d	  x6:0x00000000 x20=0x00000000
       30805000	      3079	80005458	7a7d3197	auipc	x3,0x7a7d3	  x3=0xfa7d8454
       30815000	      3080	8000545c	04ec9263	bne	x25,x14,800054a0	 x25:0xf2d2943c x14:0x00000000
       30825000	      3081	00000000	00000013	addi	x0,x0,0	  x0:0x00000000
       30835000	      3082	8000549c	00000013	addi	x0,x0,0	  x0:0x00000000
       30845000	      3083	800054a0	01384ab3	xor	x21,x16,x19	 x16:0x80009b04 x19:0x00000709 x21=0x80009c0d
       30855000	      3084	800054a4	0269d463	bge	x19,x6,800054cc	 x19:0x00000709  x6:0x00000000
       30865000	      3085	00000000	00000013	addi	x0,x0,0	  x0:0x00000000
       30875000	      3086	800054c8	00000013	addi	x0,x0,0	  x0:0x00000000
       30885000	      3087	800054cc	00d4c7b3	xor	x15,x9,x13	  x9:0x00000000 x13:0x00000065 x15=0x00000065
       30895000	      3088	800054d0	03f39e63	bne	x7,x31,8000550c	  x7:0x00000000 x31:0xe9600000
       30905000	      3089	00000000	00000013	addi	x0,x0,0	  x0:0x00000000
       30915000	      3090	80005508	00000013	addi	x0,x0,0	  x0:0x00000000
       30925000	      3091	8000550c	005e4663	blt	x28,x5,80005518	 x28:0x80009c45  x5:0x80009f45
       30935000	      3092	00000000	00000013	addi	x0,x0,0	  x0:0x00000000
       30945000	      3093	80005514	00000013	addi	x0,x0,0	  x0:0x00000000
       30955000	      3094	80005518	cf35ca13	xori	x20,x11,-781	 x11:0x80009fc4 x20=0x7fff6337
       30965000	      3095	8000551c	01cc3233	sltu	x4,x24,x28	 x24:0xef22f440 x28:0x80009c45  x4=0x00000000
       30975000	      3096	80005520	0576f493	andi	x9,x13,87	 x13:0x00000065  x9=0x00000045
       30985000	      3097	80005524	415f0033	sub	x0,x30,x21	 x30:0xfffffce6 x21:0x80009c0d
       30995000	      3098	80005528	9dd06d93	ori	x27,x0,-1571	  x0:0x00000000 x27=0xfffff9dd
       31005000	      3099	8000552c	0038dd13	srli	x26,x17,0x3	 x17:0x0000003d x26=0x00000007
       31015000	      3100	80005530	40e68c33	sub	x24,x13,x14	 x13:0x00000065 x14:0x00000000 x24=0x00000065
       31025000	      3101	80005534	002bf9b3	and	x19,x23,x2	 x23:0x0000000d  x2:0x00000000 x19=0x00000000
       31035000	      3102	80005538	0187d7b3	srl	x15,x15,x24	 x15:0x00000065 x24:0x00000065 x15=0x00000003
       31045000	      3103	8000553c	73972f13	slti	x30,x14,1849	 x14:0x00000000 x30=0x00000001
       31055000	      3104	80005540	018138b3	sltu	x17,x2,x24	  x2:0x00000000 x24:0x00000065 x17=0x00000001
       31065000	      3105	80005544	00a0dc63	bge	x1,x10,8000555c	  x1:0x00000059 x10:0x80009f44
       31075000	      3106	00000000	00000013	addi	x0,x0,0	  x0:0x00000000
       31085000	      3107	80005558	00000013	addi	x0,x0,0	  x0:0x00000000
       31095000	      3108	8000555c	be07af13	slti	x30,x15,-1056	 x15:0x00000003 x30=0x00000000
       31105000	      3109	80005560	002d7463	bgeu	x26,x2,80005568	 x26:0x00000007  x2:0x00000000
       31115000	      3110	00000000	00000013	addi	x0,x0,0	  x0:0x00000000
       31125000	      3111	80005564	00000013	addi	x0,x0,0	  x0:0x00000000
       31135000	      3112	80005568	418382b3	sub	x5,x7,x24	  x7:0x00000000 x24:0x00000065  x5=0xffffff9b
       31145000	      3113	8000556c	41da06b3	sub	x13,x20,x29	 x20:0x7fff6337 x29:0x00000001 x13=0x7fff6336
       31155000	      3114	80005570	00000013	addi	x0,x0,0	  x0:0x00000000
       31165000	      3115	80005574	00b56a63	bltu	x10,x11,80005588	 x10:0x80009f44 x11:0x80009fc4
       31175000	      3116	00000000	00000013	addi	x0,x0,0	  x0:0x00000000
       31185000	      3117	80005584	00000013	addi	x0,x0,0	  x0:0x00000000
       31195000	      3118	80005588	00000013	addi	x0,x0,0	  x0:0x00000000
       31205000	      3119	8000558c	00452a03	lw	x20,4(x10)	 x10:0x80009f44 x20=0x8000209c PA:0x80009f48
       31215000	      3120	80005590	00f33ab3	sltu	x21,x6,x15	  x6:0x00000000 x15:0x00000003 x21=0x00000001
       31225000	      3121	80005594	03450513	addi	x10,x10,52	 x10:0x80009f44 x10=0x80009f78
       31235000	      3122	80005598	00da89b3	add	x19,x21,x13	 x21:0x00000001 x13:0x7fff6336 x19=0x7fff6337
       31245000	      3123	8000559c	009239b3	sltu	x19,x4,x9	  x4:0x00000000  x9:0x00000045 x19=0x00000001
       31255000	      3124	800055a0	2e4bfb17	auipc	x22,0x2e4bf	 x22=0xae4c459c
       31265000	      3125	800055a4	ca9b7393	andi	x7,x22,-855	 x22:0xae4c459c  x7=0xae4c4488
       31275000	      3126	800055a8	001a0893	addi	x17,x20,1	 x20:0x8000209c x17=0x8000209d
       31285000	      3127	800055ac	000888e7	jalr	x17,x17,0	 x17:0x8000209d x17=0x800055ac
       31295000	      3128	00000000	00000013	addi	x0,x0,0	  x0:0x00000000
       31305000	      3129	8000209c	00000013	addi	x0,x0,0	  x0:0x00000000
       31315000	      3130	800020a0	00006b17	auipc	x22,0x6	 x22=0x8000809c
       31325000	      3131	800020a4	036b0b13	addi	x22,x22,54	 x22:0x8000809c x22=0x800080d2
       31335000	      3132	800020a8	0c5b1023	sh	x5,192(x22)	 x22:0x800080d2  x5:0xffffff9b PA:0x80008192
       31345000	      3133	800020ac	fa2b1623	sh	x2,-84(x22)	 x22:0x800080d2  x2:0x00000000 PA:0x8000807e
       31355000	      3134	800020b0	fcbb4d83	lbu	x27,-53(x22)	 x22:0x800080d2 x27=0x0000002a PA:0x8000809d
       31365000	      3135	800020b4	4129d693	srai	x13,x19,0x12	 x19:0x00000001 x13=0x00000000
       31375000	      3136	800020b8	90038313	addi	x6,x7,-1792	  x7:0xae4c4488  x6=0xae4c3d88
       31385000	      3137	800020bc	18aa2293	slti	x5,x20,394	 x20:0x8000209c  x5=0x00000001
       31395000	      3138	800020c0	0a1b4183	lbu	x3,161(x22)	 x22:0x800080d2  x3=0x00000022 PA:0x80008173
       31405000	      3139	800020c4	0f2b1483	lh	x9,242(x22)	 x22:0x800080d2  x9=0x00007e6d PA:0x800081c4
       31415000	      3140	00000000	00000013	addi	x0,x0,0	  x0:0x00000000
       31425000	      3141	800020c8	0a9b4383	lbu	x7,169(x22)	 x22:0x800080d2  x7=0x000000c7 PA:0x8000817b
       31435000	      3142	800020cc	41eedfb3	sra	x31,x29,x30	 x29:0x00000001 x30:0x00000000 x31=0x00000001
       31445000	      3143	800020d0	72f74713	xori	x14,x14,1839	 x14:0x00000000 x14=0x0000072f
       31455000	      3144	800020d4	f9cb4383	lbu	x7,-100(x22)	 x22:0x800080d2  x7=0x00000091 PA:0x8000806e
       31465000	      3145	800020d8	b9791cb7	lui	x25,0xb9791	 x25=0xb9791000
       31475000	      3146	800020dc	0190de13	srli	x28,x1,0x19	  x1:0x00000059 x28=0x00000000
       31485000	      3147	800020e0	078b1223	sh	x24,100(x22)	 x22:0x800080d2 x24:0x00000065 PA:0x80008136
       31495000	      3148	800020e4	fabb0ea3	sb	x11,-67(x22)	 x22:0x800080d2 x11:0x80009fc4 PA:0x8000808f
       31505000	      3149	800020e8	064b02a3	sb	x4,101(x22)	 x22:0x800080d2  x4:0x00000000 PA:0x80008137
       31515000	      3150	800020ec	4067d313	srai	x6,x15,0x6	 x15:0x00000003  x6=0x00000000
       31525000	      3151	800020f0	0efb4203	lbu	x4,239(x22)	 x22:0x800080d2  x4=0x000000d3 PA:0x800081c1
       31535000	      3152	800020f4	0b5b03a3	sb	x21,167(x22)	 x22:0x800080d2 x21:0x00000001 PA:0x80008179
       31545000	      3153	800020f8	076b5e83	lhu	x29,118(x22)	 x22:0x800080d2 x29=0x0000000d PA:0x80008148
       31555000	      3154	800020fc	f78b1703	lh	x14,-136(x22)	 x22:0x800080d2 x14=0xffffbb41 PA:0x8000804a
       31565000	      3155	80002100	09ab4283	lbu	x5,154(x22)	 x22:0x800080d2  x5=0x000000fe PA:0x8000816c
       31575000	      3156	80002104	fd2b06a3	sb	x18,-51(x22)	 x22:0x800080d2 x18:0x00000000 PA:0x8000809f
       31585000	      3157	80002108	f9eb03a3	sb	x30,-121(x22)	 x22:0x800080d2 x30:0x00000000 PA:0x80008059
       31595000	      3158	8000210c	583e6993	ori	x19,x28,1411	 x28:0x00000000 x19=0x00000583
       31605000	      3159	80002110	066b5283	lhu	x5,102(x22)	 x22:0x800080d2  x5=0x00000544 PA:0x80008138
       31615000	      3160	80002114	08eb5903	lhu	x18,142(x22)	 x22:0x800080d2 x18=0x0000a5e8 PA:0x80008160
       31625000	      3161	80002118	fc1b4283	lbu	x5,-63(x22)	 x22:0x800080d2  x5=0x000000bb PA:0x80008093
       31635000	      3162	8000211c	fbeb1323	sh	x30,-90(x22)	 x22:0x800080d2 x30:0x00000000 PA:0x80008078
       31645000	      3163	80002120	005b0623	sb	x5,12(x22)	 x22:0x800080d2  x5:0x000000bb PA:0x800080de
       31655000	      3164	80002124	0aeb0223	sb	x14,164(x22)	 x22:0x800080d2 x14:0xffffbb41 PA:0x80008176
       31665000	      3165	80002128	41e55993	srai	x19,x10,0x1e	 x10:0x80009f78 x19=0xfffffffe
       31675000	      3166	8000212c	087b0003	lb	x0,135(x22)	 x22:0x800080d2 PA:0x80008159
       31685000	      3167	80002130	fa5b0aa3	sb	x5,-75(x22)	 x22:0x800080d2  x5:0x000000bb PA:0x80008087
       31695000	      3168	80002134	030b0c83	lb	x25,48(x22)	 x22:0x800080d2 x25=0xffffffad PA:0x80008102
       31705000	      3169	00000000	00000013	addi	x0,x0,0	  x0:0x00000000
       31715000	      3170	80002138	0b9b4603	lbu	x12,185(x22)	 x22:0x800080d2 x12=0x000000bd PA:0x8000818b
       31725000	      3171	8000213c	04ab0e83	lb	x29,74(x22)	 x22:0x800080d2 x29=0xffffffcd PA:0x8000811c
       31735000	      3172	80002140	00c9fc33	and	x24,x19,x12	 x19:0xfffffffe x12:0x000000bd x24=0x000000bc
       31745000	      3173	80002144	0024e733	or	x14,x9,x2	  x9:0x00007e6d  x2:0x00000000 x14=0x00007e6d
       31755000	      3174	80002148	faab2103	lw	x2,-86(x22)	 x22:0x800080d2  x2=0x000007d0 PA:0x8000807c
       31765000	      3175	8000214c	00007c97	auipc	x25,0x7	 x25=0x80009148
       31775000	      3176	80002150	abcc8c93	addi	x25,x25,-1348	 x25:0x80009148 x25=0x80008c04
       31785000	      3177	80002154	ca072f97	auipc	x31,0xca072	 x31=0x4a074150
       31795000	      3178	80002158	173db393	sltiu	x7,x27,371	 x27:0x0000002a  x7=0x00000001
       31805000	      3179	8000215c	0080e333	or	x6,x1,x8	  x1:0x00000059  x8:0x00000065  x6=0x0000007d
       31815000	      3180	80002160	01065f13	srli	x30,x12,0x10	 x12:0x000000bd x30=0x00000000
       31825000	      3181	80002164	031cc683	lbu	x13,49(x25)	 x25:0x80008c04 x13=0x00000016 PA:0x80008c35
       31835000	      3182	80002168	fe7cca83	lbu	x21,-25(x25)	 x25:0x80008c04 x21=0x000000a8 PA:0x80008beb
       31845000	      3183	8000216c	ffec9d23	sh	x30,-6(x25)	 x25:0x80008c04 x30:0x00000000 PA:0x80008bfe
       31855000	      3184	80002170	031cc683	lbu	x13,49(x25)	 x25:0x80008c04 x13=0x00000016 PA:0x80008c35
       31865000	      3185	80002174	f1ab6213	ori	x4,x22,-230	 x22:0x800080d2  x4=0xffffffda
       31875000	      3186	80002178	008c9023	sh	x8,0(x25)	 x25:0x80008c04  x8:0x00000065 PA:0x80008c04
       31885000	      3187	8000217c	01b2ffb3	and	x31,x5,x27	  x5:0x000000bb x27:0x0000002a x31=0x0000002a
       31895000	      3188	80002180	009cca83	lbu	x21,9(x25)	 x25:0x80008c04 x21=0x00000098 PA:0x80008c0d
       31905000	      3189	80002184	02bc8683	lb	x13,43(x25)	 x25:0x80008c04 x13=0x00000032 PA:0x80008c2f
       31915000	      3190	80002188	00000013	addi	x0,x0,0	  x0:0x00000000
       31925000	      3191	8000218c	88692b13	slti	x22,x18,-1914	 x18:0x0000a5e8 x22=0x00000000
       31935000	      3192	80002190	0179b4b3	sltu	x9,x19,x23	 x19:0xfffffffe x23:0x0000000d  x9=0x00000000
       31945000	      3193	80002194	018047b3	xor	x15,x0,x24	  x0:0x00000000 x24:0x000000bc x15=0x000000bc
       31955000	      3194	80002198	0f7fa393	slti	x7,x31,247	 x31:0x0000002a  x7=0x00000001
       31965000	      3195	8000219c	00bc8103	lb	x2,11(x25)	 x25:0x80008c04  x2=0x00000068 PA:0x80008c0f
       31975000	      3196	800021a0	00d4f333	and	x6,x9,x13	  x9:0x00000000 x13:0x00000032  x6=0x00000000
       31985000	      3197	800021a4	a9a1cf93	xori	x31,x3,-1382	  x3:0x00000022 x31=0xfffffab8
       31995000	      3198	800021a8	12cdeb37	lui	x22,0x12cde	 x22=0x12cde000
       32005000	      3199	800021ac	02cc8da3	sb	x12,59(x25)	 x25:0x80008c04 x12:0x000000bd PA:0x80008c3f
       32015000	      3200	800021b0	fe2c9403	lh	x8,-30(x25)	 x25:0x80008c04  x8=0x00004f3d PA:0x80008be6
       32025000	      3201	800021b4	a8223613	sltiu	x12,x4,-1406	  x4:0xffffffda x12=0x00000000
       32035000	      3202	800021b8	023c8d03	lb	x26,35(x25)	 x25:0x80008c04 x26=0xffffffce PA:0x80008c27
       32045000	      3203	800021bc	00000013	addi	x0,x0,0	  x0:0x00000000
       32055000	      3204	800021c0	006a8ab3	add	x21,x21,x6	 x21:0x00000098  x6:0x00000000 x21=0x00000098
       32065000	      3205	800021c4	012c9603	lh	x12,18(x25)	 x25:0x80008c04 x12=0x0000551c PA:0x80008c16
       32075000	      3206	00000000	00000013	addi	x0,x0,0	  x0:0x00000000
       32085000	      3207	800021c8	004651b3	srl	x3,x12,x4	 x12:0x0000551c  x4:0xffffffda  x3=0x00000000
       32095000	      3208	800021cc	01b2c0b3	xor	x1,x5,x27	  x5:0x000000bb x27:0x0000002a  x1=0x00000091
       32105000	      3209	800021d0	018c8023	sb	x24,0(x25)	 x25:0x80008c04 x24:0x000000bc PA:0x80008c04
       32115000	      3210	800021d4	00006b17	auipc	x22,0x6	 x22=0x800081d0
       32125000	      3211	800021d8	483b0b13	addi	x22,x22,1155	 x22:0x800081d0 x22=0x80008653
       32135000	      3212	800021dc	003b4783	lbu	x15,3(x22)	 x22:0x80008653 x15=0x00000030 PA:0x80008656
       32145000	      3213	800021e0	a13fc613	xori	x12,x31,-1517	 x31:0xfffffab8 x12=0x000000ab
       32155000	      3214	800021e4	408050b3	sra	x1,x0,x8	  x0:0x00000000  x8:0x00004f3d  x1=0x00000000
       32165000	      3215	800021e8	01cc78b3	and	x17,x24,x28	 x24:0x000000bc x28:0x00000000 x17=0x00000000
       32175000	      3216	800021ec	4105d393	srai	x7,x11,0x10	 x11:0x80009fc4  x7=0xffff8000
       32185000	      3217	800021f0	01b51893	slli	x17,x10,0x1b	 x10:0x80009f78 x17=0xc0000000
       32195000	      3218	800021f4	fffb1683	lh	x13,-1(x22)	 x22:0x80008653 x13=0x0000444f PA:0x80008652
       32205000	      3219	800021f8	976e40b7	lui	x1,0x976e4	  x1=0x976e4000
       32215000	      3220	800021fc	4172d213	srai	x4,x5,0x17	  x5:0x000000bb  x4=0x00000000
       32225000	      3221	80002200	00df7933	and	x18,x30,x13	 x30:0x00000000 x13:0x0000444f x18=0x00000000
       32235000	      3222	80002204	403c8f33	sub	x30,x25,x3	 x25:0x80008c04  x3:0x00000000 x30=0x80008c04
       32245000	      3223	80002208	ff2b4a83	lbu	x21,-14(x22)	 x22:0x80008653 x21=0x00000081 PA:0x80008645
       32255000	      3224	8000220c	01bb8933	add	x18,x23,x27	 x23:0x0000000d x27:0x0000002a x18=0x00000037
       32265000	      3225	80002210	fe9b0823	sb	x9,-16(x22)	 x22:0x80008653  x9:0x00000000 PA:0x80008643
       32275000	      3226	80002214	ff8b19a3	sh	x24,-13(x22)	 x22:0x80008653 x24:0x000000bc PA:0x80008646
       32285000	      3227	80002218	a0500e13	addi	x28,x0,-1531	  x0:0x00000000 x28=0xfffffa05
       32295000	      3228	8000221c	ff4b0483	lb	x9,-12(x22)	 x22:0x80008653  x9=0x00000000 PA:0x80008647
       32305000	      3229	80002220	a9bf0813	addi	x16,x30,-1381	 x30:0x80008c04 x16=0x8000869f
       32315000	      3230	80002224	0113edb3	or	x27,x7,x17	  x7:0xffff8000 x17:0xc0000000 x27=0xffff8000
       32325000	      3231	80002228	001b4703	lbu	x14,1(x22)	 x22:0x80008653 x14=0x00000006 PA:0x80008654
       32335000	      3232	8000222c	01d05a93	srli	x21,x0,0x1d	  x0:0x00000000 x21=0x00000000
       32345000	      3233	80002230	ffdb5803	lhu	x16,-3(x22)	 x22:0x80008653 x16=0x00000000 PA:0x80008650
       32355000	      3234	80002234	04f2ad97	auipc	x27,0x4f2a	 x27=0x84f2c230
       32365000	      3235	80002238	00f27633	and	x12,x4,x15	  x4:0x00000000 x15:0x00000030 x12=0x00000000
       32375000	      3236	8000223c	42d14117	auipc	x2,0x42d14	  x2=0xc2d16238
       32385000	      3237	80002240	01d09e33	sll	x28,x1,x29	  x1:0x976e4000 x29:0xffffffcd x28=0xc8000000
       32395000	      3238	80002244	ff9b2f83	lw	x31,-7(x22)	 x22:0x80008653 x31=0x085188f2 PA:0x8000864c
       32405000	      3239	00000000	00000013	addi	x0,x0,0	  x0:0x00000000
       32415000	      3240	80002248	01f08133	add	x2,x1,x31	  x1:0x976e4000 x31:0x085188f2  x2=0x9fbfc8f2
       32425000	      3241	8000224c	5ebe7a97	auipc	x21,0x5ebe7	 x21=0xdebe9248
       32435000	      3242	80002250	a16e0193	addi	x3,x28,-1514	 x28:0xc8000000  x3=0xc7fffa16
       32445000	      3243	80002254	06206493	ori	x9,x0,98	  x0:0x00000000  x9=0x00000062
       32455000	      3244	80002258	00ef6933	or	x18,x30,x14	 x30:0x80008c04 x14:0x00000006 x18=0x80008c06
       32465000	      3245	8000225c	41625033	sra	x0,x4,x22	  x4:0x00000000 x22:0x80008653
       32475000	      3246	80002260	017f77b3	and	x15,x30,x23	 x30:0x80008c04 x23:0x0000000d x15=0x00000004
       32485000	      3247	80002264	005b04a3	sb	x5,9(x22)	 x22:0x80008653  x5:0x000000bb PA:0x8000865c
       32495000	      3248	80002268	748c0ab7	lui	x21,0x748c0	 x21=0x748c0000
       32505000	      3249	8000226c	013d96b3	sll	x13,x27,x19	 x27:0x84f2c230 x19:0xfffffffe x13=0x00000000
       32515000	      3250	80002270	ffbb4383	lbu	x7,-5(x22)	 x22:0x80008653  x7=0x00000051 PA:0x8000864e
       32525000	      3251	80002274	00007817	auipc	x16,0x7	 x16=0x80009270
       32535000	      3252	80002278	c5380813	addi	x16,x16,-941	 x16:0x80009270 x16=0x80008ec3
       32545000	      3253	8000227c	0021e3b3	or	x7,x3,x2	  x3:0xc7fffa16  x2:0x9fbfc8f2  x7=0xdffffaf6
       32555000	      3254	80002280	01bc3eb3	sltu	x29,x24,x27	 x24:0x000000bc x27:0x84f2c230 x29=0x00000001
       32565000	      3255	80002284	03084c03	lbu	x24,48(x16)	 x16:0x80008ec3 x24=0x00000014 PA:0x80008ef3
       32575000	      3256	80002288	00802a33	slt	x20,x0,x8	  x0:0x00000000  x8:0x00004f3d x20=0x00000001
       32585000	      3257	8000228c	01781fa3	sh	x23,31(x16)	 x16:0x80008ec3 x23:0x0000000d PA:0x80008ee2
       32595000	      3258	80002290	0b727313	andi	x6,x4,183	  x4:0x00000000  x6=0x00000000
       32605000	      3259	80002294	fd380b23	sb	x19,-42(x16)	 x16:0x80008ec3 x19:0xfffffffe PA:0x80008e99
       32615000	      3260	80002298	00000013	addi	x0,x0,0	  x0:0x00000000
       32625000	      3261	8000229c	26797113	andi	x2,x18,615	 x18:0x80008c06  x2=0x00000006
       32635000	      3262	800022a0	01e963b3	or	x7,x18,x30	 x18:0x80008c06 x30:0x80008c04  x7=0x80008c06
       32645000	      3263	800022a4	fc580903	lb	x18,-59(x16)	 x16:0x80008ec3 x18=0x00000047 PA:0x80008e88
       32655000	      3264	800022a8	fe480983	lb	x19,-28(x16)	 x16:0x80008ec3 x19=0xffffff8e PA:0x80008ea7
       32665000	      3265	800022ac	01480703	lb	x14,20(x16)	 x16:0x80008ec3 x14=0x00000050 PA:0x80008ed7
       32675000	      3266	800022b0	ff680603	lb	x12,-10(x16)	 x16:0x80008ec3 x12=0xfffffff2 PA:0x80008eb9
       32685000	      3267	800022b4	02b80e23	sb	x11,60(x16)	 x16:0x80008ec3 x11:0x80009fc4 PA:0x80008eff
       32695000	      3268	800022b8	ff7828a3	sw	x23,-15(x16)	 x16:0x80008ec3 x23:0x0000000d PA:0x80008eb4
       32705000	      3269	800022bc	fcf85c83	lhu	x25,-49(x16)	 x16:0x80008ec3 x25=0x0000bc7e PA:0x80008e92
       32715000	      3270	800022c0	7cca3193	sltiu	x3,x20,1996	 x20:0x00000001  x3=0x00000001
       32725000	      3271	800022c4	ff9820a3	sw	x25,-31(x16)	 x16:0x80008ec3 x25:0x0000bc7e PA:0x80008ea4
       32735000	      3272	800022c8	ff580f23	sb	x21,-2(x16)	 x16:0x80008ec3 x21:0x748c0000 PA:0x80008ec1
       32745000	      3273	800022cc	013131b3	sltu	x3,x2,x19	  x2:0x00000006 x19:0xffffff8e  x3=0x00000001
       32755000	      3274	800022d0	01ec2233	slt	x4,x24,x30	 x24:0x00000014 x30:0x80008c04  x4=0x00000000
       32765000	      3275	800022d4	af513c17	auipc	x24,0xaf513	 x24=0x2f5152d0
       32775000	      3276	800022d8	76d36f97	auipc	x31,0x76d36	 x31=0xf6d382d4
       32785000	      3277	800022dc	00d52033	slt	x0,x10,x13	 x10:0x80009f78 x13:0x00000000
       32795000	      3278	800022e0	00f10d33	add	x26,x2,x15	  x2:0x00000006 x15:0x00000004 x26=0x0000000a
       32805000	      3279	800022e4	03880c23	sb	x24,56(x16)	 x16:0x80008ec3 x24:0x2f5152d0 PA:0x80008efb
       32815000	      3280	800022e8	00280983	lb	x19,2(x16)	 x16:0x80008ec3 x19=0xffffffa5 PA:0x80008ec5
       32825000	      3281	800022ec	d1736313	ori	x6,x6,-745	  x6:0x00000000  x6=0xfffffd17
       32835000	      3282	800022f0	00b120b3	slt	x1,x2,x11	  x2:0x00000006 x11:0x80009fc4  x1=0x00000000
       32845000	      3283	800022f4	015819a3	sh	x21,19(x16)	 x16:0x80008ec3 x21:0x748c0000 PA:0x80008ed6
       32855000	      3284	800022f8	d90856b7	lui	x13,0xd9085	 x13=0xd9085000
       32865000	      3285	800022fc	fc385603	lhu	x12,-61(x16)	 x16:0x80008ec3 x12=0x00001be1 PA:0x80008e86
       32875000	      3286	80002300	011d8633	add	x12,x27,x17	 x27:0x84f2c230 x17:0xc0000000 x12=0x44f2c230
       32885000	      3287	80002304	fd884a03	lbu	x20,-40(x16)	 x16:0x80008ec3 x20=0x0000004e PA:0x80008e9b
       32895000	      3288	80002308	02280303	lb	x6,34(x16)	 x16:0x80008ec3  x6=0xfffffff8 PA:0x80008ee5
       32905000	      3289	8000230c	27a3f793	andi	x15,x7,634	  x7:0x80008c06 x15=0x00000002
       32915000	      3290	80002310	030809a3	sb	x16,51(x16)	 x16:0x80008ec3 x16:0x80008ec3 PA:0x80008ef6
       32925000	      3291	80002314	00006997	auipc	x19,0x6	 x19=0x80008310
       32935000	      3292	80002318	38398993	addi	x19,x19,899	 x19:0x80008310 x19=0x80008693
       32945000	      3293	8000231c	ad81a397	auipc	x7,0xad81a	  x7=0x2d81c318
       32955000	      3294	80002320	fc3997a3	sh	x3,-49(x19)	 x19:0x80008693  x3:0x00000001 PA:0x80008662
       32965000	      3295	80002324	0149c883	lbu	x17,20(x19)	 x19:0x80008693 x17=0x00000078 PA:0x800086a7
       32975000	      3296	80002328	00798d23	sb	x7,26(x19)	 x19:0x80008693  x7:0x2d81c318 PA:0x800086ad
       32985000	      3297	8000232c	013f7e33	and	x28,x30,x19	 x30:0x80008c04 x19:0x80008693 x28=0x80008400
       32995000	      3298	80002330	405c5793	srai	x15,x24,0x5	 x24:0x2f5152d0 x15=0x017a8a96
       33005000	      3299	80002334	40a453b3	sra	x7,x8,x10	  x8:0x00004f3d x10:0x80009f78  x7=0x00000000
       33015000	      3300	80002338	ff598903	lb	x18,-11(x19)	 x19:0x80008693 x18=0xffffffa0 PA:0x80008688
       33025000	      3301	8000233c	ff998d83	lb	x27,-7(x19)	 x19:0x80008693 x27=0xffffff92 PA:0x8000868c
       33035000	      3302	80002340	f20993a3	sh	x0,-217(x19)	 x19:0x80008693  x0:0x00000000 PA:0x800085ba
       33045000	      3303	80002344	480cb013	sltiu	x0,x25,1152	 x25:0x0000bc7e
       33055000	      3304	80002348	f3799183	lh	x3,-201(x19)	 x19:0x80008693  x3=0x00000157 PA:0x800085ca
       33065000	      3305	8000234c	fd298aa3	sb	x18,-43(x19)	 x19:0x80008693 x18:0xffffffa0 PA:0x80008668
       33075000	      3306	80002350	f1e98e83	lb	x29,-226(x19)	 x19:0x80008693 x29=0x00000069 PA:0x800085b1
       33085000	      3307	80002354	f2e9c083	lbu	x1,-210(x19)	 x19:0x80008693  x1=0x00000015 PA:0x800085c1
       33095000	      3308	80002358	0046d293	srli	x5,x13,0x4	 x13:0xd9085000  x5=0x0d908500
       33105000	      3309	8000235c	2bd36693	ori	x13,x6,701	  x6:0xfffffff8 x13=0xfffffffd
       33115000	      3310	80002360	01ef5233	srl	x4,x30,x30	 x30:0x80008c04 x30:0x80008c04  x4=0x080008c0
       33125000	      3311	80002364	f069c603	lbu	x12,-250(x19)	 x19:0x80008693 x12=0x00000019 PA:0x80008599
       33135000	      3312	80002368	22893793	sltiu	x15,x18,552	 x18:0xffffffa0 x15=0x00000000
       33145000	      3313	8000236c	f269cc83	lbu	x25,-218(x19)	 x19:0x80008693 x25=0x00000048 PA:0x800085b9
       33155000	      3314	80002370	008b9013	slli	x0,x23,0x8	 x23:0x0000000d
       33165000	      3315	80002374	f049c683	lbu	x13,-252(x19)	 x19:0x80008693 x13=0x000000c9 PA:0x80008597
       33175000	      3316	80002378	0259a883	lw	x17,37(x19)	 x19:0x80008693 x17=0xabda0664 PA:0x800086b8
       33185000	      3317	8000237c	fe798e03	lb	x28,-25(x19)	 x19:0x80008693 x28=0xffffffdb PA:0x8000867a
       33195000	      3318	80002380	f5b98883	lb	x17,-165(x19)	 x19:0x80008693 x17=0xffffff9b PA:0x800085ee
       33205000	      3319	80002384	08898083	lb	x1,136(x19)	 x19:0x80008693  x1=0xffffffec PA:0x8000871b
       33215000	      3320	80002388	00006217	auipc	x4,0x6	  x4=0x80008384
       33225000	      3321	8000238c	42520213	addi	x4,x4,1061	  x4:0x80008384  x4=0x800087a9
       33235000	      3322	80002390	ff420783	lb	x15,-12(x4)	  x4:0x800087a9 x15=0x00000079 PA:0x8000879d
       33245000	      3323	80002394	206be817	auipc	x16,0x206be	 x16=0xa06c0390
       33255000	      3324	80002398	98614113	xori	x2,x2,-1658	  x2:0x00000006  x2=0xfffff980
       33265000	      3325	8000239c	00020983	lb	x19,0(x4)	  x4:0x800087a9 x19=0x0000006c PA:0x800087a9
       33275000	      3326	800023a0	00624a83	lbu	x21,6(x4)	  x4:0x800087a9 x21=0x0000007d PA:0x800087af
       33285000	      3327	800023a4	ff324483	lbu	x9,-13(x4)	  x4:0x800087a9  x9=0x0000005c PA:0x8000879c
       33295000	      3328	00000000	00000013	addi	x0,x0,0	  x0:0x00000000
       33305000	      3329	800023a8	00924e03	lbu	x28,9(x4)	  x4:0x800087a9 x28=0x000000cd PA:0x800087b2
       33315000	      3330	00000000	00000013	addi	x0,x0,0	  x0:0x00000000
       33325000	      3331	800023ac	ffc22fa3	sw	x28,-1(x4)	  x4:0x800087a9 x28:0x000000cd PA:0x800087a8
       33335000	      3332	800023b0	00324903	lbu	x18,3(x4)	  x4:0x800087a9 x18=0x00000058 PA:0x800087ac
       33345000	      3333	800023b4	00abdc93	srli	x25,x23,0xa	 x23:0x0000000d x25=0x00000000
       33355000	      3334	800023b8	00120a83	lb	x21,1(x4)	  x4:0x800087a9 x21=0x00000000 PA:0x800087aa
       33365000	      3335	800023bc	ffe20c23	sb	x30,-8(x4)	  x4:0x800087a9 x30:0x80008c04 PA:0x800087a1
       33375000	      3336	800023c0	ff220003	lb	x0,-14(x4)	  x4:0x800087a9 PA:0x8000879b
       33385000	      3337	800023c4	ff720923	sb	x23,-14(x4)	  x4:0x800087a9 x23:0x0000000d PA:0x8000879b
       33395000	      3338	800023c8	00000013	addi	x0,x0,0	  x0:0x00000000
       33405000	      3339	800023cc	1139ce93	xori	x29,x19,275	 x19:0x0000006c x29=0x0000017f
       33415000	      3340	800023d0	00125003	lhu	x0,1(x4)	  x4:0x800087a9 PA:0x800087aa
       33425000	      3341	800023d4	01ef1f13	slli	x30,x30,0x1e	 x30:0x80008c04 x30=0x00000000
       33435000	      3342	800023d8	01c4d613	srli	x12,x9,0x1c	  x9:0x0000005c x12=0x00000000
       33445000	      3343	800023dc	001201a3	sb	x1,3(x4)	  x4:0x800087a9  x1:0xffffffec PA:0x800087ac
       33455000	      3344	800023e0	00220223	sb	x2,4(x4)	  x4:0x800087a9  x2:0xfffff980 PA:0x800087ad
       33465000	      3345	800023e4	00620623	sb	x6,12(x4)	  x4:0x800087a9  x6:0xfffffff8 PA:0x800087b5
       33475000	      3346	800023e8	00f20523	sb	x15,10(x4)	  x4:0x800087a9 x15:0x00000079 PA:0x800087b3
       33485000	      3347	800023ec	40405e13	srai	x28,x0,0x4	  x0:0x00000000 x28=0x00000000
       33495000	      3348	800023f0	00325703	lhu	x14,3(x4)	  x4:0x800087a9 x14=0x000080ec PA:0x800087ac
       33505000	      3349	800023f4	ff820303	lb	x6,-8(x4)	  x4:0x800087a9  x6=0x00000004 PA:0x800087a1
       33515000	      3350	800023f8	d5dfa013	slti	x0,x31,-675	 x31:0xf6d382d4
       33525000	      3351	800023fc	ff920183	lb	x3,-7(x4)	  x4:0x800087a9  x3=0x00000010 PA:0x800087a2
       33535000	      3352	80002400	01024c83	lbu	x25,16(x4)	  x4:0x800087a9 x25=0x00000028 PA:0x800087b9
       33545000	      3353	80002404	00f24483	lbu	x9,15(x4)	  x4:0x800087a9  x9=0x00000082 PA:0x800087b8
       33555000	      3354	80002408	ffe24e03	lbu	x28,-2(x4)	  x4:0x800087a9 x28=0x000000ee PA:0x800087a7
       33565000	      3355	8000240c	00920383	lb	x7,9(x4)	  x4:0x800087a9  x7=0xffffffcd PA:0x800087b2
       33575000	      3356	80002410	fe922ba3	sw	x9,-9(x4)	  x4:0x800087a9  x9:0x00000082 PA:0x800087a0
       33585000	      3357	80002414	00158ab3	add	x21,x11,x1	 x11:0x80009fc4  x1:0xffffffec x21=0x80009fb0
       33595000	      3358	80002418	ff420d23	sb	x20,-6(x4)	  x4:0x800087a9 x20:0x0000004e PA:0x800087a3
       33605000	      3359	8000241c	013217a3	sh	x19,15(x4)	  x4:0x800087a9 x19:0x0000006c PA:0x800087b8
       33615000	      3360	80002420	ff820a03	lb	x20,-8(x4)	  x4:0x800087a9 x20=0x00000000 PA:0x800087a1
       33625000	      3361	80002424	00006f97	auipc	x31,0x6	 x31=0x80008420
       33635000	      3362	80002428	089f8f93	addi	x31,x31,137	 x31:0x80008420 x31=0x800084a9
       33645000	      3363	8000242c	022f8183	lb	x3,34(x31)	 x31:0x800084a9  x3=0x00000010 PA:0x800084cb
       33655000	      3364	80002430	2fd97617	auipc	x12,0x2fd97	 x12=0xafd9942c
       33665000	      3365	80002434	0a7f8c23	sb	x7,184(x31)	 x31:0x800084a9  x7:0xffffffcd PA:0x80008561
       33675000	      3366	80002438	40cbdb33	sra	x22,x23,x12	 x23:0x0000000d x12:0xafd9942c x22=0x00000000
       33685000	      3367	8000243c	f54f8383	lb	x7,-172(x31)	 x31:0x800084a9  x7=0xffffffc8 PA:0x800083fd
       33695000	      3368	00000000	00000013	addi	x0,x0,0	  x0:0x00000000
       33705000	      3369	80002440	4073dd93	srai	x27,x7,0x7	  x7:0xffffffc8 x27=0xffffffff
       33715000	      3370	80002444	01d7d4b3	srl	x9,x15,x29	 x15:0x00000079 x29:0x0000017f  x9=0x00000000
       33725000	      3371	80002448	01b10d33	add	x26,x2,x27	  x2:0xfffff980 x27:0xffffffff x26=0xfffff97f
       33735000	      3372	8000244c	01f97db3	and	x27,x18,x31	 x18:0x00000058 x31:0x800084a9 x27=0x00000008
       33745000	      3373	80002450	0f5fafa3	sw	x21,255(x31)	 x31:0x800084a9 x21:0x80009fb0 PA:0x800085a8
       33755000	      3374	80002454	007bd933	srl	x18,x23,x7	 x23:0x0000000d  x7:0xffffffc8 x18=0x00000000
       33765000	      3375	80002458	4fc8aa17	auipc	x20,0x4fc8a	 x20=0xcfc8c454
       33775000	      3376	8000245c	fd6fc883	lbu	x17,-42(x31)	 x31:0x800084a9 x17=0x0000001a PA:0x8000847f
       33785000	      3377	80002460	01bd30b3	sltu	x1,x26,x27	 x26:0xfffff97f x27:0x00000008  x1=0x00000000
       33795000	      3378	80002464	408752b3	sra	x5,x14,x8	 x14:0x000080ec  x8:0x00004f3d  x5=0x00000000
       33805000	      3379	80002468	fcdf9083	lh	x1,-51(x31)	 x31:0x800084a9  x1=0x00001b7c PA:0x80008476
       33815000	      3380	8000246c	00e131b3	sltu	x3,x2,x14	  x2:0xfffff980 x14:0x000080ec  x3=0x00000000
       33825000	      3381	80002470	362a4d13	xori	x26,x20,866	 x20:0xcfc8c454 x26=0xcfc8c736
       33835000	      3382	80002474	f8dfd283	lhu	x5,-115(x31)	 x31:0x800084a9  x5=0x000091fa PA:0x80008436
       33845000	      3383	00000000	00000013	addi	x0,x0,0	  x0:0x00000000
       33855000	      3384	80002478	00537733	and	x14,x6,x5	  x6:0x00000004  x5:0x000091fa x14=0x00000000
       33865000	      3385	8000247c	090fcb03	lbu	x22,144(x31)	 x31:0x800084a9 x22=0x00000057 PA:0x80008539
       33875000	      3386	80002480	f2af8ba3	sb	x10,-201(x31)	 x31:0x800084a9 x10:0x80009f78 PA:0x800083e0
       33885000	      3387	80002484	41ad5633	sra	x12,x26,x26	 x26:0xcfc8c736 x26:0xcfc8c736 x12=0xffffff3f
       33895000	      3388	80002488	00d65e13	srli	x28,x12,0xd	 x12:0xffffff3f x28=0x0007ffff
       33905000	      3389	8000248c	f41f9203	lh	x4,-191(x31)	 x31:0x800084a9  x4=0xffffc689 PA:0x800083ea
       33915000	      3390	80002490	01304233	xor	x4,x0,x19	  x0:0x00000000 x19:0x0000006c  x4=0x0000006c
       33925000	      3391	80002494	0caf8803	lb	x16,202(x31)	 x31:0x800084a9 x16=0x00000050 PA:0x80008573
       33935000	      3392	80002498	fa7f8e03	lb	x28,-89(x31)	 x31:0x800084a9 x28=0xffffff84 PA:0x80008450
       33945000	      3393	8000249c	23e2ea93	ori	x21,x5,574	  x5:0x000091fa x21=0x000093fe
       33955000	      3394	800024a0	01599913	slli	x18,x19,0x15	 x19:0x0000006c x18=0x0d800000
       33965000	      3395	800024a4	051f3313	sltiu	x6,x30,81	 x30:0x00000000  x6=0x00000001
       33975000	      3396	800024a8	d0b93013	sltiu	x0,x18,-757	 x18:0x0d800000
       33985000	      3397	800024ac	074f8603	lb	x12,116(x31)	 x31:0x800084a9 x12=0x00000056 PA:0x8000851d
       33995000	      3398	800024b0	0c6f89a3	sb	x6,211(x31)	 x31:0x800084a9  x6:0x00000001 PA:0x8000857c
       34005000	      3399	800024b4	0abf85a3	sb	x11,171(x31)	 x31:0x800084a9 x11:0x80009fc4 PA:0x80008554
       34015000	      3400	800024b8	00006997	auipc	x19,0x6	 x19=0x800084b4
       34025000	      3401	800024bc	1a698993	addi	x19,x19,422	 x19:0x800084b4 x19=0x8000865a
       34035000	      3402	800024c0	fd2987a3	sb	x18,-49(x19)	 x19:0x8000865a x18:0x0d800000 PA:0x80008629
       34045000	      3403	800024c4	0399cf03	lbu	x30,57(x19)	 x19:0x8000865a x30=0x00000029 PA:0x80008693
       34055000	      3404	800024c8	fff9c803	lbu	x16,-1(x19)	 x19:0x8000865a x16=0x00000042 PA:0x80008659
       34065000	      3405	800024cc	008558b3	srl	x17,x10,x8	 x10:0x80009f78  x8:0x00004f3d x17=0x00000004
       34075000	      3406	800024d0	01061893	slli	x17,x12,0x10	 x12:0x00000056 x17=0x00560000
       34085000	      3407	800024d4	03b9cd83	lbu	x27,59(x19)	 x19:0x8000865a x27=0x000000b8 PA:0x80008695
       34095000	      3408	800024d8	714ec193	xori	x3,x29,1812	 x29:0x0000017f  x3=0x0000066b
       34105000	      3409	800024dc	fe798f83	lb	x31,-25(x19)	 x19:0x8000865a x31=0xfffffff5 PA:0x80008641
       34115000	      3410	800024e0	02c25037	lui	x0,0x2c25	
       34125000	      3411	800024e4	00a98e83	lb	x29,10(x19)	 x19:0x8000865a x29=0xffffffa0 PA:0x80008664
       34135000	      3412	800024e8	00a4dc93	srli	x25,x9,0xa	  x9:0x00000000 x25=0x00000000
       34145000	      3413	800024ec	0169a183	lw	x3,22(x19)	 x19:0x8000865a  x3=0x698cd126 PA:0x80008670
       34155000	      3414	800024f0	c072a693	slti	x13,x5,-1017	  x5:0x000091fa x13=0x00000000
       34165000	      3415	800024f4	18cf4013	xori	x0,x30,396	 x30:0x00000029
       34175000	      3416	800024f8	00b5deb3	srl	x29,x11,x11	 x11:0x80009fc4 x11:0x80009fc4 x29=0x080009fc
       34185000	      3417	800024fc	fde98883	lb	x17,-34(x19)	 x19:0x8000865a x17=0xffffffaa PA:0x80008638
       34195000	      3418	00000000	00000013	addi	x0,x0,0	  x0:0x00000000
       34205000	      3419	80002500	291fae37	lui	x28,0x291fa	 x28=0x291fa000
       34215000	      3420	80002504	03f9c303	lbu	x6,63(x19)	 x19:0x8000865a  x6=0x00000024 PA:0x80008699
       34225000	      3421	80002508	b7996897	auipc	x17,0xb7996	 x17=0x37998504
       34235000	      3422	8000250c	fc29c683	lbu	x13,-62(x19)	 x19:0x8000865a x13=0x000000ac PA:0x8000861c
       34245000	      3423	80002510	01adaeb3	slt	x29,x27,x26	 x27:0x000000b8 x26:0xcfc8c736 x29=0x00000000
       34255000	      3424	80002514	01e07e33	and	x28,x0,x30	  x0:0x00000000 x30:0x00000029 x28=0x00000000
       34265000	      3425	80002518	0099d113	srli	x2,x19,0x9	 x19:0x8000865a  x2=0x00400043
       34275000	      3426	8000251c	02d98103	lb	x2,45(x19)	 x19:0x8000865a  x2=0xffffffba PA:0x80008687
       34285000	      3427	80002520	00000013	addi	x0,x0,0	  x0:0x00000000
       34295000	      3428	80002524	011ea833	slt	x16,x29,x17	 x29:0x00000000 x17:0x37998504 x16=0x00000001
       34305000	      3429	80002528	00d89fb3	sll	x31,x17,x13	 x17:0x37998504 x13:0x000000ac x31=0x98504000
       34315000	      3430	8000252c	00139313	slli	x6,x7,0x1	  x7:0xffffffc8  x6=0xffffff90
       34325000	      3431	80002530	0069b833	sltu	x16,x19,x6	 x19:0x8000865a  x6:0xffffff90 x16=0x00000001
       34335000	      3432	80002534	fa152817	auipc	x16,0xfa152	 x16=0x7a154530
       34345000	      3433	80002538	fe598c03	lb	x24,-27(x19)	 x19:0x8000865a x24=0xfffffffd PA:0x8000863f
       34355000	      3434	8000253c	03c98103	lb	x2,60(x19)	 x19:0x8000865a  x2=0xffffffff PA:0x80008696
       34365000	      3435	80002540	01ccd813	srli	x16,x25,0x1c	 x25:0x00000000 x16=0x00000000
       34375000	      3436	80002544	1022ee93	ori	x29,x5,258	  x5:0x000091fa x29=0x000091fa
       34385000	      3437	80002548	0409dd03	lhu	x26,64(x19)	 x19:0x8000865a x26=0x00000011 PA:0x8000869a
       34395000	      3438	8000254c	00006817	auipc	x16,0x6	 x16=0x80008548
       34405000	      3439	80002550	1e980813	addi	x16,x16,489	 x16:0x80008548 x16=0x80008731
       34415000	      3440	80002554	b31808a3	sb	x17,-1231(x16)	 x16:0x80008731 x17:0x37998504 PA:0x80008262
       34425000	      3441	80002558	d8e80d23	sb	x14,-614(x16)	 x16:0x80008731 x14:0x00000000 PA:0x800084cb
       34435000	      3442	8000255c	e8a80c03	lb	x24,-374(x16)	 x16:0x80008731 x24=0x00000000 PA:0x800085bb
       34445000	      3443	80002560	dc884c83	lbu	x25,-568(x16)	 x16:0x80008731 x25=0x00000005 PA:0x800084f9
       34455000	      3444	80002564	f6a84383	lbu	x7,-150(x16)	 x16:0x80008731  x7=0x00000000 PA:0x8000869b
       34465000	      3445	00000000	00000013	addi	x0,x0,0	  x0:0x00000000
       34475000	      3446	80002568	f67812a3	sh	x7,-155(x16)	 x16:0x80008731  x7:0x00000000 PA:0x80008696
       34485000	      3447	8000256c	f0380183	lb	x3,-253(x16)	 x16:0x80008731  x3=0x00000045 PA:0x80008634
       34495000	      3448	80002570	1466f293	andi	x5,x13,326	 x13:0x000000ac  x5=0x00000004
       34505000	      3449	80002574	a9c80823	sb	x28,-1392(x16)	 x16:0x80008731 x28:0x00000000 PA:0x800081c1
       34515000	      3450	80002578	a9380823	sb	x19,-1392(x16)	 x16:0x80008731 x19:0x8000865a PA:0x800081c1
       34525000	      3451	8000257c	bfd80ea3	sb	x29,-1027(x16)	 x16:0x80008731 x29:0x000091fa PA:0x8000832e
       34535000	      3452	80002580	fb581683	lh	x13,-75(x16)	 x16:0x80008731 x13=0xffff9ba2 PA:0x800086e6
       34545000	      3453	80002584	04184703	lbu	x14,65(x16)	 x16:0x80008731 x14=0x00000031 PA:0x80008772
       34555000	      3454	80002588	00399c13	slli	x24,x19,0x3	 x19:0x8000865a x24=0x000432d0
       34565000	      3455	8000258c	00000013	addi	x0,x0,0	  x0:0x00000000
       34575000	      3456	80002590	bf484f83	lbu	x31,-1036(x16)	 x16:0x80008731 x31=0x0000009c PA:0x80008325
       34585000	      3457	80002594	f4680c83	lb	x25,-186(x16)	 x16:0x80008731 x25=0xfffffff1 PA:0x80008677
       34595000	      3458	80002598	ed180983	lb	x19,-303(x16)	 x16:0x80008731 x19=0x0000003e PA:0x80008602
       34605000	      3459	8000259c	41a953b3	sra	x7,x18,x26	 x18:0x0d800000 x26:0x00000011  x7=0x000006c0
       34615000	      3460	800025a0	41fb8c33	sub	x24,x23,x31	 x23:0x0000000d x31:0x0000009c x24=0xffffff71
       34625000	      3461	800025a4	5a98c013	xori	x0,x17,1449	 x17:0x37998504
       34635000	      3462	800025a8	54804e93	xori	x29,x0,1352	  x0:0x00000000 x29=0x00000548
       34645000	      3463	800025ac	deb80903	lb	x18,-533(x16)	 x16:0x80008731 x18=0x00000064 PA:0x8000851c
       34655000	      3464	800025b0	bf780523	sb	x23,-1046(x16)	 x16:0x80008731 x23:0x0000000d PA:0x8000831b
       34665000	      3465	800025b4	41a68b33	sub	x22,x13,x26	 x13:0xffff9ba2 x26:0x00000011 x22=0xffff9b91
       34675000	      3466	800025b8	00b45493	srli	x9,x8,0xb	  x8:0x00004f3d  x9=0x00000009
       34685000	      3467	800025bc	b10825a3	sw	x16,-1269(x16)	 x16:0x80008731 x16:0x80008731 PA:0x8000823c
       34695000	      3468	800025c0	97180323	sb	x17,-1690(x16)	 x16:0x80008731 x17:0x37998504 PA:0x80008097
       34705000	      3469	800025c4	fdc84e03	lbu	x28,-36(x16)	 x16:0x80008731 x28=0x00000047 PA:0x8000870d
       34715000	      3470	800025c8	00b40333	add	x6,x8,x11	  x8:0x00004f3d x11:0x80009fc4  x6=0x8000ef01
       34725000	      3471	800025cc	072816a3	sh	x18,109(x16)	 x16:0x80008731 x18:0x00000064 PA:0x8000879e
       34735000	      3472	800025d0	00cf4c33	xor	x24,x30,x12	 x30:0x00000029 x12:0x00000056 x24=0x0000007f
       34745000	      3473	800025d4	91b85b03	lhu	x22,-1765(x16)	 x16:0x80008731 x22=0x0000e883 PA:0x8000804c
       34755000	      3474	800025d8	eca80103	lb	x2,-310(x16)	 x16:0x80008731  x2=0xffffffd9 PA:0x800085fb
       34765000	      3475	800025dc	0ac815a3	sh	x12,171(x16)	 x16:0x80008731 x12:0x00000056 PA:0x800087dc
       34775000	      3476	800025e0	c4240f13	addi	x30,x8,-958	  x8:0x00004f3d x30=0x00004b7f
       34785000	      3477	800025e4	01685f13	srli	x30,x16,0x16	 x16:0x80008731 x30=0x00000200
       34795000	      3478	800025e8	561bf413	andi	x8,x23,1377	 x23:0x0000000d  x8=0x00000001
       34805000	      3479	800025ec	ebc5f617	auipc	x12,0xebc5f	 x12=0x6bc615e8
       34815000	      3480	800025f0	04cf1663	bne	x30,x12,8000263c	 x30:0x00000200 x12:0x6bc615e8
       34825000	      3481	00000000	00000013	addi	x0,x0,0	  x0:0x00000000
       34835000	      3482	80002638	00000013	addi	x0,x0,0	  x0:0x00000000
       34845000	      3483	8000263c	8005c693	xori	x13,x11,-2048	 x11:0x80009fc4 x13=0x7fff67c4
       34855000	      3484	80002640	0034d993	srli	x19,x9,0x3	  x9:0x00000009 x19=0x00000001
       34865000	      3485	80002644	011a3733	sltu	x14,x20,x17	 x20:0xcfc8c454 x17:0x37998504 x14=0x00000000
       34875000	      3486	80002648	01d0f2b3	and	x5,x1,x29	  x1:0x00001b7c x29:0x00000548  x5=0x00000148
       34885000	      3487	8000264c	05cec863	blt	x29,x28,8000269c	 x29:0x00000548 x28:0x00000047
       34895000	      3488	80002650	141c3a93	sltiu	x21,x24,321	 x24:0x0000007f x21=0x00000001
       34905000	      3489	80002654	00e994b3	sll	x9,x19,x14	 x19:0x00000001 x14:0x00000000  x9=0x00000001
       34915000	      3490	80002658	d9807993	andi	x19,x0,-616	  x0:0x00000000 x19=0x00000000
       34925000	      3491	8000265c	0169e663	bltu	x19,x22,80002668	 x19:0x00000000 x22:0x0000e883
       34935000	      3492	00000000	00000013	addi	x0,x0,0	  x0:0x00000000
       34945000	      3493	80002664	00000013	addi	x0,x0,0	  x0:0x00000000
       34955000	      3494	80002668	40efd333	sra	x6,x31,x14	 x31:0x0000009c x14:0x00000000  x6=0x0000009c
       34965000	      3495	8000266c	40ee56b3	sra	x13,x28,x14	 x28:0x00000047 x14:0x00000000 x13=0x00000047
       34975000	      3496	80002670	01e85133	srl	x2,x16,x30	 x16:0x80008731 x30:0x00000200  x2=0x80008731
       34985000	      3497	80002674	414cd733	sra	x14,x25,x20	 x25:0xfffffff1 x20:0xcfc8c454 x14=0xffffffff
       34995000	      3498	80002678	049e7863	bgeu	x28,x9,800026c8	 x28:0x00000047  x9:0x00000001
       35005000	      3499	00000000	00000013	addi	x0,x0,0	  x0:0x00000000
       35015000	      3500	800026c4	00000013	addi	x0,x0,0	  x0:0x00000000
       35025000	      3501	800026c8	05824263	blt	x4,x24,8000270c	  x4:0x0000006c x24:0x0000007f
       35035000	      3502	00000000	00000013	addi	x0,x0,0	  x0:0x00000000
       35045000	      3503	80002708	00000013	addi	x0,x0,0	  x0:0x00000000
       35055000	      3504	8000270c	0002bf33	sltu	x30,x5,x0	  x5:0x00000148  x0:0x00000000 x30=0x00000000
       35065000	      3505	80002710	fb4bb617	auipc	x12,0xfb4bb	 x12=0x7b4bd70c
       35075000	      3506	80002714	00379333	sll	x6,x15,x3	 x15:0x00000079  x3:0x00000045  x6=0x00000f20
       35085000	      3507	80002718	40255093	srai	x1,x10,0x2	 x10:0x80009f78  x1=0xe00027de
       35095000	      3508	8000271c	999a8f17	auipc	x30,0x999a8	 x30=0x199aa718
       35105000	      3509	80002720	0094d133	srl	x2,x9,x9	  x9:0x00000001  x9:0x00000001  x2=0x00000000
       35115000	      3510	80002724	0023d733	srl	x14,x7,x2	  x7:0x000006c0  x2:0x00000000 x14=0x000006c0
       35125000	      3511	80002728	41add293	srai	x5,x27,0x1a	 x27:0x000000b8  x5=0x00000000
       35135000	      3512	8000272c	29efe437	lui	x8,0x29efe	  x8=0x29efe000
       35145000	      3513	80002730	03727a63	bgeu	x4,x23,80002764	  x4:0x0000006c x23:0x0000000d
       35155000	      3514	00000000	00000013	addi	x0,x0,0	  x0:0x00000000
       35165000	      3515	80002760	00000013	addi	x0,x0,0	  x0:0x00000000
       35175000	      3516	80002764	050cc263	blt	x25,x16,800027a8	 x25:0xfffffff1 x16:0x80008731
       35185000	      3517	80002768	00b413b3	sll	x7,x8,x11	  x8:0x29efe000 x11:0x80009fc4  x7=0x9efe0000
       35195000	      3518	8000276c	00390433	add	x8,x18,x3	 x18:0x00000064  x3:0x00000045  x8=0x000000a9
       35205000	      3519	80002770	01ce5093	srli	x1,x28,0x1c	 x28:0x00000047  x1=0x00000000
       35215000	      3520	80002774	00cbb933	sltu	x18,x23,x12	 x23:0x0000000d x12:0x7b4bd70c x18=0x00000001
       35225000	      3521	80002778	00949033	sll	x0,x9,x9	  x9:0x00000001  x9:0x00000001
       35235000	      3522	8000277c	0299d863	bge	x19,x9,800027ac	 x19:0x00000000  x9:0x00000001
       35245000	      3523	80002780	002711b3	sll	x3,x14,x2	 x14:0x000006c0  x2:0x00000000  x3=0x000006c0
       35255000	      3524	80002784	77c1e013	ori	x0,x3,1916	  x3:0x000006c0
       35265000	      3525	80002788	0f792013	slti	x0,x18,247	 x18:0x00000001
       35275000	      3526	8000278c	01379f33	sll	x30,x15,x19	 x15:0x00000079 x19:0x00000000 x30=0x00000079
       35285000	      3527	80002790	011dddb3	srl	x27,x27,x17	 x27:0x000000b8 x17:0x37998504 x27=0x0000000b
       35295000	      3528	80002794	04960463	beq	x12,x9,800027dc	 x12:0x7b4bd70c  x9:0x00000001
       35305000	      3529	80002798	01b00463	beq	x0,x27,800027a0	  x0:0x00000000 x27:0x0000000b
       35315000	      3530	8000279c	040b9263	bne	x23,x0,800027e0	 x23:0x0000000d  x0:0x00000000
       35325000	      3531	00000000	00000013	addi	x0,x0,0	  x0:0x00000000
       35335000	      3532	800027dc	00000013	addi	x0,x0,0	  x0:0x00000000
       35345000	      3533	800027e0	40fc8733	sub	x14,x25,x15	 x25:0xfffffff1 x15:0x00000079 x14=0xffffff78
       35355000	      3534	800027e4	41850ab3	sub	x21,x10,x24	 x10:0x80009f78 x24:0x0000007f x21=0x80009ef9
       35365000	      3535	800027e8	41d75e93	srai	x29,x14,0x1d	 x14:0xffffff78 x29=0xffffffff
       35375000	      3536	800027ec	a22f7893	andi	x17,x30,-1502	 x30:0x00000079 x17=0x00000020
       35385000	      3537	800027f0	03629a63	bne	x5,x22,80002824	  x5:0x00000000 x22:0x0000e883
       35395000	      3538	00000000	00000013	addi	x0,x0,0	  x0:0x00000000
       35405000	      3539	80002820	00000013	addi	x0,x0,0	  x0:0x00000000
       35415000	      3540	80002824	0598e863	bltu	x17,x25,80002874	 x17:0x00000020 x25:0xfffffff1
       35425000	      3541	00000000	00000013	addi	x0,x0,0	  x0:0x00000000
       35435000	      3542	80002870	00000013	addi	x0,x0,0	  x0:0x00000000
       35445000	      3543	80002874	0050b733	sltu	x14,x1,x5	  x1:0x00000000  x5:0x00000000 x14=0x00000000
       35455000	      3544	80002878	00e8e6b3	or	x13,x17,x14	 x17:0x00000020 x14:0x00000000 x13=0x00000020
       35465000	      3545	8000287c	054f5063	bge	x30,x20,800028bc	 x30:0x00000079 x20:0xcfc8c454
       35475000	      3546	00000000	00000013	addi	x0,x0,0	  x0:0x00000000
       35485000	      3547	800028b8	00000013	addi	x0,x0,0	  x0:0x00000000
       35495000	      3548	800028bc	03540a63	beq	x8,x21,800028f0	  x8:0x000000a9 x21:0x80009ef9
       35505000	      3549	800028c0	ea3f8213	addi	x4,x31,-349	 x31:0x0000009c  x4=0xffffff3f
       35515000	      3550	800028c4	04b46663	bltu	x8,x11,80002910	  x8:0x000000a9 x11:0x80009fc4
       35525000	      3551	00000000	00000013	addi	x0,x0,0	  x0:0x00000000
       35535000	      3552	8000290c	00000013	addi	x0,x0,0	  x0:0x00000000
       35545000	      3553	80002910	01fcab33	slt	x22,x25,x31	 x25:0xfffffff1 x31:0x0000009c x22=0x00000001
       35555000	      3554	80002914	00742633	slt	x12,x8,x7	  x8:0x000000a9  x7:0x9efe0000 x12=0x00000000
       35565000	      3555	80002918	00d0e863	bltu	x1,x13,80002928	  x1:0x00000000 x13:0x00000020
       35575000	      3556	00000000	00000013	addi	x0,x0,0	  x0:0x00000000
       35585000	      3557	80002924	00000013	addi	x0,x0,0	  x0:0x00000000
       35595000	      3558	80002928	0012e2b3	or	x5,x5,x1	  x5:0x00000000  x1:0x00000000  x5=0x00000000
       35605000	      3559	8000292c	01f8a8b3	slt	x17,x17,x31	 x17:0x00000020 x31:0x0000009c x17=0x00000001
       35615000	      3560	80002930	4826f497	auipc	x9,0x4826f	  x9=0xc827192c
       35625000	      3561	80002934	00e557b3	srl	x15,x10,x14	 x10:0x80009f78 x14:0x00000000 x15=0x80009f78
       35635000	      3562	80002938	018efab3	and	x21,x29,x24	 x29:0xffffffff x24:0x0000007f x21=0x0000007f
       35645000	      3563	8000293c	006006b3	add	x13,x0,x6	  x0:0x00000000  x6:0x00000f20 x13=0x00000f20
       35655000	      3564	80002940	02530263	beq	x6,x5,80002964	  x6:0x00000f20  x5:0x00000000
       35665000	      3565	80002944	01e088b3	add	x17,x1,x30	  x1:0x00000000 x30:0x00000079 x17=0x00000079
       35675000	      3566	80002948	01785f33	srl	x30,x16,x23	 x16:0x80008731 x23:0x0000000d x30=0x00040004
       35685000	      3567	8000294c	00a154b3	srl	x9,x2,x10	  x2:0x00000000 x10:0x80009f78  x9=0x00000000
       35695000	      3568	80002950	00f09093	slli	x1,x1,0xf	  x1:0x00000000  x1=0x00000000
       35705000	      3569	80002954	255fce93	xori	x29,x31,597	 x31:0x0000009c x29=0x000002c9
       35715000	      3570	80002958	00bd1d13	slli	x26,x26,0xb	 x26:0x00000011 x26=0x00008800
       35725000	      3571	8000295c	02427663	bgeu	x4,x4,80002988	  x4:0xffffff3f  x4:0xffffff3f
       35735000	      3572	00000000	00000013	addi	x0,x0,0	  x0:0x00000000
       35745000	      3573	80002984	00000013	addi	x0,x0,0	  x0:0x00000000
       35755000	      3574	80002988	f101ec17	auipc	x24,0xf101e	 x24=0x71020984
       35765000	      3575	8000298c	02b1dc63	bge	x3,x11,800029c4	  x3:0x000006c0 x11:0x80009fc4
       35775000	      3576	00000000	00000013	addi	x0,x0,0	  x0:0x00000000
       35785000	      3577	800029c0	00000013	addi	x0,x0,0	  x0:0x00000000
       35795000	      3578	800029c4	007efc33	and	x24,x29,x7	 x29:0x000002c9  x7:0x9efe0000 x24=0x00000000
       35805000	      3579	800029c8	922b0093	addi	x1,x22,-1758	 x22:0x00000001  x1=0xfffff923
       35815000	      3580	800029cc	02190a63	beq	x18,x1,80002a00	 x18:0x00000001  x1:0xfffff923
       35825000	      3581	800029d0	405d8233	sub	x4,x27,x5	 x27:0x0000000b  x5:0x00000000  x4=0x0000000b
       35835000	      3582	800029d4	033d0863	beq	x26,x19,80002a04	 x26:0x00008800 x19:0x00000000
       35845000	      3583	800029d8	00995a63	bge	x18,x9,800029ec	 x18:0x00000001  x9:0x00000000
       35855000	      3584	00000000	00000013	addi	x0,x0,0	  x0:0x00000000
       35865000	      3585	800029e8	00000013	addi	x0,x0,0	  x0:0x00000000
       35875000	      3586	800029ec	52380337	lui	x6,0x52380	  x6=0x52380000
       35885000	      3587	800029f0	40020033	sub	x0,x4,x0	  x4:0x0000000b  x0:0x00000000
       35895000	      3588	800029f4	01e59d13	slli	x26,x11,0x1e	 x11:0x80009fc4 x26=0x00000000
       35905000	      3589	800029f8	00000013	addi	x0,x0,0	  x0:0x00000000
       35915000	      3590	800029fc	4a84c613	xori	x12,x9,1192	  x9:0x00000000 x12=0x000004a8
       35925000	      3591	80002a00	02ea6c63	bltu	x20,x14,80002a38	 x20:0xcfc8c454 x14:0x00000000
       35935000	      3592	80002a04	87817017	auipc	x0,0x87817	
       35945000	      3593	80002a08	01d5f7b3	and	x15,x11,x29	 x11:0x80009fc4 x29:0x000002c9 x15=0x000002c0
       35955000	      3594	80002a0c	034f0863	beq	x30,x20,80002a3c	 x30:0x00040004 x20:0xcfc8c454
       35965000	      3595	80002a10	005f57b3	srl	x15,x30,x5	 x30:0x00040004  x5:0x00000000 x15=0x00040004
       35975000	      3596	80002a14	05c7c263	blt	x15,x28,80002a58	 x15:0x00040004 x28:0x00000047
       35985000	      3597	80002a18	40468333	sub	x6,x13,x4	 x13:0x00000f20  x4:0x0000000b  x6=0x00000f15
       35995000	      3598	80002a1c	00537db3	and	x27,x6,x5	  x6:0x00000f15  x5:0x00000000 x27=0x00000000
       36005000	      3599	80002a20	025ee863	bltu	x29,x5,80002a50	 x29:0x000002c9  x5:0x00000000
       36015000	      3600	80002a24	03a41663	bne	x8,x26,80002a50	  x8:0x000000a9 x26:0x00000000
       36025000	      3601	00000000	00000013	addi	x0,x0,0	  x0:0x00000000
       36035000	      3602	80002a4c	00000013	addi	x0,x0,0	  x0:0x00000000
       36045000	      3603	80002a50	01624663	blt	x4,x22,80002a5c	  x4:0x0000000b x22:0x00000001
       36055000	      3604	80002a54	41dd89b3	sub	x19,x27,x29	 x27:0x00000000 x29:0x000002c9 x19=0xfffffd37
       36065000	      3605	80002a58	410dd4b3	sra	x9,x27,x16	 x27:0x00000000 x16:0x80008731  x9=0x00000000
       36075000	      3606	80002a5c	02507a63	bgeu	x0,x5,80002a90	  x0:0x00000000  x5:0x00000000
       36085000	      3607	00000000	00000013	addi	x0,x0,0	  x0:0x00000000
       36095000	      3608	80002a8c	00000013	addi	x0,x0,0	  x0:0x00000000
       36105000	      3609	80002a90	dced6917	auipc	x18,0xdced6	 x18=0x5ced8a8c
       36115000	      3610	80002a94	00a78eb3	add	x29,x15,x10	 x15:0x00040004 x10:0x80009f78 x29=0x80049f7c
       36125000	      3611	80002a98	04b7f263	bgeu	x15,x11,80002adc	 x15:0x00040004 x11:0x80009fc4
       36135000	      3612	80002a9c	40e55213	srai	x4,x10,0xe	 x10:0x80009f78  x4=0xfffe0002
       36145000	      3613	80002aa0	50ae1497	auipc	x9,0x50ae1	  x9=0xd0ae3a9c
       36155000	      3614	80002aa4	41925c93	srai	x25,x4,0x19	  x4:0xfffe0002 x25=0xffffffff
       36165000	      3615	80002aa8	01c313b3	sll	x7,x6,x28	  x6:0x00000f15 x28:0x00000047  x7=0x00078a80
       36175000	      3616	80002aac	234dacb7	lui	x25,0x234da	 x25=0x234da000
       36185000	      3617	80002ab0	05401263	bne	x0,x20,80002af4	  x0:0x00000000 x20:0xcfc8c454
       36195000	      3618	00000000	00000013	addi	x0,x0,0	  x0:0x00000000
       36205000	      3619	80002af0	00000013	addi	x0,x0,0	  x0:0x00000000
       36215000	      3620	80002af4	abffa613	slti	x12,x31,-1345	 x31:0x0000009c x12=0x00000000
       36225000	      3621	80002af8	40acd033	sra	x0,x25,x10	 x25:0x234da000 x10:0x80009f78
       36235000	      3622	80002afc	00191fb3	sll	x31,x18,x1	 x18:0x5ced8a8c  x1:0xfffff923 x31=0xe76c5460
       36245000	      3623	80002b00	145839b7	lui	x19,0x14583	 x19=0x14583000
       36255000	      3624	80002b04	00000013	addi	x0,x0,0	  x0:0x00000000
       36265000	      3625	80002b08	5444f813	andi	x16,x9,1348	  x9:0xd0ae3a9c x16=0x00000004
       36275000	      3626	80002b0c	049e8463	beq	x29,x9,80002b54	 x29:0x80049f7c  x9:0xd0ae3a9c
       36285000	      3627	80002b10	4189d613	srai	x12,x19,0x18	 x19:0x14583000 x12=0x00000014
       36295000	      3628	80002b14	41d15e33	sra	x28,x2,x29	  x2:0x00000000 x29:0x80049f7c x28=0x00000000
       36305000	      3629	80002b18	04094863	blt	x18,x0,80002b68	 x18:0x5ced8a8c  x0:0x00000000
       36315000	      3630	80002b1c	011c84b3	add	x9,x25,x17	 x25:0x234da000 x17:0x00000079  x9=0x234da079
       36325000	      3631	80002b20	05d34713	xori	x14,x6,93	  x6:0x00000f15 x14=0x00000f48
       36335000	      3632	80002b24	2398a0b7	lui	x1,0x2398a	  x1=0x2398a000
       36345000	      3633	80002b28	cd601fb7	lui	x31,0xcd601	 x31=0xcd601000
       36355000	      3634	80002b2c	d67c47b7	lui	x15,0xd67c4	 x15=0xd67c4000
       36365000	      3635	80002b30	00a4f463	bgeu	x9,x10,80002b38	  x9:0x234da079 x10:0x80009f78
       36375000	      3636	80002b34	0f740313	addi	x6,x8,247	  x8:0x000000a9  x6=0x000001a0
       36385000	      3637	80002b38	00369d13	slli	x26,x13,0x3	 x13:0x00000f20 x26=0x00007900
       36395000	      3638	80002b3c	00ab5433	srl	x8,x22,x10	 x22:0x00000001 x10:0x80009f78  x8=0x00000000
       36405000	      3639	80002b40	0101acb3	slt	x25,x3,x16	  x3:0x000006c0 x16:0x00000004 x25=0x00000000
       36415000	      3640	80002b44	000c0633	add	x12,x24,x0	 x24:0x00000000  x0:0x00000000 x12=0x00000000
       36425000	      3641	80002b48	00000013	addi	x0,x0,0	  x0:0x00000000
       36435000	      3642	80002b4c	03115663	bge	x2,x17,80002b78	  x2:0x00000000 x17:0x00000079
       36445000	      3643	80002b50	005801b3	add	x3,x16,x5	 x16:0x00000004  x5:0x00000000  x3=0x00000004
       36455000	      3644	80002b54	41265d13	srai	x26,x12,0x12	 x12:0x00000000 x26=0x00000000
       36465000	      3645	80002b58	00d77033	and	x0,x14,x13	 x14:0x00000f48 x13:0x00000f20
       36475000	      3646	80002b5c	d49e3413	sltiu	x8,x28,-695	 x28:0x00000000  x8=0x00000001
       36485000	      3647	80002b60	00c5da13	srli	x20,x11,0xc	 x11:0x80009fc4 x20=0x00080009
       36495000	      3648	80002b64	40105633	sra	x12,x0,x1	  x0:0x00000000  x1:0x2398a000 x12=0x00000000
       36505000	      3649	80002b68	00000013	addi	x0,x0,0	  x0:0x00000000
       36515000	      3650	80002b6c	01a72d33	slt	x26,x14,x26	 x14:0x00000f48 x26:0x00000000 x26=0x00000000
       36525000	      3651	80002b70	01999913	slli	x18,x19,0x19	 x19:0x14583000 x18=0x00000000
       36535000	      3652	80002b74	017f1cb3	sll	x25,x30,x23	 x30:0x00040004 x23:0x0000000d x25=0x80008000
       36545000	      3653	80002b78	03aa1463	bne	x20,x26,80002ba0	 x20:0x00080009 x26:0x00000000
       36555000	      3654	00000000	00000013	addi	x0,x0,0	  x0:0x00000000
       36565000	      3655	80002b9c	00000013	addi	x0,x0,0	  x0:0x00000000
       36575000	      3656	80002ba0	00b05333	srl	x6,x0,x11	  x0:0x00000000 x11:0x80009fc4  x6=0x00000000
       36585000	      3657	80002ba4	e6dffcb7	lui	x25,0xe6dff	 x25=0xe6dff000
       36595000	      3658	80002ba8	009f64b3	or	x9,x30,x9	 x30:0x00040004  x9:0x234da079  x9=0x234da07d
       36605000	      3659	80002bac	00cb41b3	xor	x3,x22,x12	 x22:0x00000001 x12:0x00000000  x3=0x00000001
       36615000	      3660	80002bb0	00055463	bge	x10,x0,80002bb8	 x10:0x80009f78  x0:0x00000000
       36625000	      3661	80002bb4	8baa7997	auipc	x19,0x8baa7	 x19=0x0baa9bb0
       36635000	      3662	80002bb8	417fd1b3	sra	x3,x31,x23	 x31:0xcd601000 x23:0x0000000d  x3=0xfffe6b00
       36645000	      3663	80002bbc	05360863	beq	x12,x19,80002c0c	 x12:0x00000000 x19:0x0baa9bb0
       36655000	      3664	80002bc0	a4e10297	auipc	x5,0xa4e10	  x5=0x24e12bbc
       36665000	      3665	80002bc4	007bb333	sltu	x6,x23,x7	 x23:0x0000000d  x7:0x00078a80  x6=0x00000001
       36675000	      3666	80002bc8	01f94663	blt	x18,x31,80002bd4	 x18:0x00000000 x31:0xcd601000
       36685000	      3667	80002bcc	038d8c63	beq	x27,x24,80002c04	 x27:0x00000000 x24:0x00000000
       36695000	      3668	00000000	00000013	addi	x0,x0,0	  x0:0x00000000
       36705000	      3669	80002c00	00000013	addi	x0,x0,0	  x0:0x00000000
       36715000	      3670	80002c04	00bd08b3	add	x17,x26,x11	 x26:0x00000000 x11:0x80009fc4 x17=0x80009fc4
       36725000	      3671	80002c08	ae033e13	sltiu	x28,x6,-1312	  x6:0x00000001 x28=0x00000001
       36735000	      3672	80002c0c	01c71ab3	sll	x21,x14,x28	 x14:0x00000f48 x28:0x00000001 x21=0x00001e90
       36745000	      3673	80002c10	01f343b7	lui	x7,0x1f34	  x7=0x01f34000
       36755000	      3674	80002c14	00e767b3	or	x15,x14,x14	 x14:0x00000f48 x14:0x00000f48 x15=0x00000f48
       36765000	      3675	80002c18	415dd4b3	sra	x9,x27,x21	 x27:0x00000000 x21:0x00001e90  x9=0x00000000
       36775000	      3676	80002c1c	0efe3893	sltiu	x17,x28,239	 x28:0x00000001 x17=0x00000001
       36785000	      3677	80002c20	4157dcb3	sra	x25,x15,x21	 x15:0x00000f48 x21:0x00001e90 x25=0x00000000
       36795000	      3678	80002c24	01796c33	or	x24,x18,x23	 x18:0x00000000 x23:0x0000000d x24=0x0000000d
       36805000	      3679	80002c28	853d8f13	addi	x30,x27,-1965	 x27:0x00000000 x30=0xfffff853
       36815000	      3680	80002c2c	00a8fe33	and	x28,x17,x10	 x17:0x00000001 x10:0x80009f78 x28=0x00000000
       36825000	      3681	80002c30	00549e13	slli	x28,x9,0x5	  x9:0x00000000 x28=0x00000000
       36835000	      3682	80002c34	ac8a12b7	lui	x5,0xac8a1	  x5=0xac8a1000
       36845000	      3683	80002c38	005067b3	or	x15,x0,x5	  x0:0x00000000  x5:0xac8a1000 x15=0xac8a1000
       36855000	      3684	80002c3c	f14b4e13	xori	x28,x22,-236	 x22:0x00000001 x28=0xffffff15
       36865000	      3685	80002c40	41818e33	sub	x28,x3,x24	  x3:0xfffe6b00 x24:0x0000000d x28=0xfffe6af3
       36875000	      3686	80002c44	018e33b3	sltu	x7,x28,x24	 x28:0xfffe6af3 x24:0x0000000d  x7=0x00000000
       36885000	      3687	80002c48	a45ef493	andi	x9,x29,-1467	 x29:0x80049f7c  x9=0x80049a44
       36895000	      3688	80002c4c	01321d13	slli	x26,x4,0x13	  x4:0xfffe0002 x26=0x00100000
       36905000	      3689	80002c50	05e7f463	bgeu	x15,x30,80002c98	 x15:0xac8a1000 x30:0xfffff853
       36915000	      3690	80002c54	06947a93	andi	x21,x8,105	  x8:0x00000001 x21=0x00000001
       36925000	      3691	80002c58	219aae17	auipc	x28,0x219aa	 x28=0xa19acc54
       36935000	      3692	80002c5c	047ff863	bgeu	x31,x7,80002cac	 x31:0xcd601000  x7:0x00000000
       36945000	      3693	00000000	00000013	addi	x0,x0,0	  x0:0x00000000
       36955000	      3694	80002ca8	00000013	addi	x0,x0,0	  x0:0x00000000
       36965000	      3695	80002cac	0237c413	xori	x8,x15,35	 x15:0xac8a1000  x8=0xac8a1023
       36975000	      3696	80002cb0	3ab66813	ori	x16,x12,939	 x12:0x00000000 x16=0x000003ab
       36985000	      3697	80002cb4	00089463	bne	x17,x0,80002cbc	 x17:0x00000001  x0:0x00000000
       36995000	      3698	00000000	00000013	addi	x0,x0,0	  x0:0x00000000
       37005000	      3699	80002cb8	00000013	addi	x0,x0,0	  x0:0x00000000
       37015000	      3700	80002cbc	41fbd013	srai	x0,x23,0x1f	 x23:0x0000000d
       37025000	      3701	80002cc0	01bb1cb3	sll	x25,x22,x27	 x22:0x00000001 x27:0x00000000 x25=0x00000001
       37035000	      3702	80002cc4	01ad5113	srli	x2,x26,0x1a	 x26:0x00100000  x2=0x00000000
       37045000	      3703	80002cc8	39bfeb13	ori	x22,x31,923	 x31:0xcd601000 x22=0xcd60139b
       37055000	      3704	80002ccc	41c7dab3	sra	x21,x15,x28	 x15:0xac8a1000 x28:0xa19acc54 x21=0xfffffac8
       37065000	      3705	80002cd0	41a0dc93	srai	x25,x1,0x1a	  x1:0x2398a000 x25=0x00000008
       37075000	      3706	80002cd4	00f8c463	blt	x17,x15,80002cdc	 x17:0x00000001 x15:0xac8a1000
       37085000	      3707	80002cd8	415b84b3	sub	x9,x23,x21	 x23:0x0000000d x21:0xfffffac8  x9=0x00000545
       37095000	      3708	80002cdc	017d3133	sltu	x2,x26,x23	 x26:0x00100000 x23:0x0000000d  x2=0x00000000
       37105000	      3709	80002ce0	41778733	sub	x14,x15,x23	 x15:0xac8a1000 x23:0x0000000d x14=0xac8a0ff3
       37115000	      3710	80002ce4	01335713	srli	x14,x6,0x13	  x6:0x00000001 x14=0x00000000
       37125000	      3711	80002ce8	410c8b33	sub	x22,x25,x16	 x25:0x00000008 x16:0x000003ab x22=0xfffffc5d
       37135000	      3712	80002cec	001cc733	xor	x14,x25,x1	 x25:0x00000008  x1:0x2398a000 x14=0x2398a008
       37145000	      3713	80002cf0	2e998a13	addi	x20,x19,745	 x19:0x0baa9bb0 x20=0x0baa9e99
       37155000	      3714	80002cf4	01601e13	slli	x28,x0,0x16	  x0:0x00000000 x28=0x00000000
       37165000	      3715	80002cf8	019837b3	sltu	x15,x16,x25	 x16:0x000003ab x25:0x00000008 x15=0x00000000
       37175000	      3716	80002cfc	9d6c4a37	lui	x20,0x9d6c4	 x20=0x9d6c4000
       37185000	      3717	80002d00	00000013	addi	x0,x0,0	  x0:0x00000000
       37195000	      3718	80002d04	0109dab3	srl	x21,x19,x16	 x19:0x0baa9bb0 x16:0x000003ab x21=0x00017553
       37205000	      3719	80002d08	05cd6263	bltu	x26,x28,80002d4c	 x26:0x00100000 x28:0x00000000
       37215000	      3720	80002d0c	03c90a63	beq	x18,x28,80002d40	 x18:0x00000000 x28:0x00000000
       37225000	      3721	00000000	00000013	addi	x0,x0,0	  x0:0x00000000
       37235000	      3722	80002d3c	00000013	addi	x0,x0,0	  x0:0x00000000
       37245000	      3723	80002d40	00ac0833	add	x16,x24,x10	 x24:0x0000000d x10:0x80009f78 x16=0x80009f85
       37255000	      3724	80002d44	014c97b3	sll	x15,x25,x20	 x25:0x00000008 x20:0x9d6c4000 x15=0x00000008
       37265000	      3725	80002d48	4d33e793	ori	x15,x7,1235	  x7:0x00000000 x15=0x000004d3
       37275000	      3726	80002d4c	048ec663	blt	x29,x8,80002d98	 x29:0x80049f7c  x8:0xac8a1023
       37285000	      3727	00000000	00000013	addi	x0,x0,0	  x0:0x00000000
       37295000	      3728	80002d94	00000013	addi	x0,x0,0	  x0:0x00000000
       37305000	      3729	80002d98	01736633	or	x12,x6,x23	  x6:0x00000001 x23:0x0000000d x12=0x0000000d
       37315000	      3730	80002d9c	00000013	addi	x0,x0,0	  x0:0x00000000
       37325000	      3731	80002da0	410fe413	ori	x8,x31,1040	 x31:0xcd601000  x8=0xcd601410
       37335000	      3732	80002da4	0031ed33	or	x26,x3,x3	  x3:0xfffe6b00  x3:0xfffe6b00 x26=0xfffe6b00
       37345000	      3733	80002da8	03650863	beq	x10,x22,80002dd8	 x10:0x80009f78 x22:0xfffffc5d
       37355000	      3734	80002dac	0021b2b3	sltu	x5,x3,x2	  x3:0xfffe6b00  x2:0x00000000  x5=0x00000000
       37365000	      3735	80002db0	00000013	addi	x0,x0,0	  x0:0x00000000
       37375000	      3736	80002db4	00000013	addi	x0,x0,0	  x0:0x00000000
       37385000	      3737	80002db8	00000013	addi	x0,x0,0	  x0:0x00000000
       37395000	      3738	80002dbc	0023eab3	or	x21,x7,x2	  x7:0x00000000  x2:0x00000000 x21=0x00000000
       37405000	      3739	80002dc0	01d62633	slt	x12,x12,x29	 x12:0x0000000d x29:0x80049f7c x12=0x00000000
       37415000	      3740	80002dc4	7d04ee13	ori	x28,x9,2000	  x9:0x00000545 x28=0x000007d5
       37425000	      3741	80002dc8	00000013	addi	x0,x0,0	  x0:0x00000000
       37435000	      3742	80002dcc	02f38663	beq	x7,x15,80002df8	  x7:0x00000000 x15:0x000004d3
       37445000	      3743	80002dd0	01156933	or	x18,x10,x17	 x10:0x80009f78 x17:0x00000001 x18=0x80009f79
       37455000	      3744	80002dd4	0011d1b3	srl	x3,x3,x1	  x3:0xfffe6b00  x1:0x2398a000  x3=0xfffe6b00
       37465000	      3745	80002dd8	418709b3	sub	x19,x14,x24	 x14:0x2398a008 x24:0x0000000d x19=0x23989ffb
       37475000	      3746	80002ddc	02557863	bgeu	x10,x5,80002e0c	 x10:0x80009f78  x5:0x00000000
       37485000	      3747	00000000	00000013	addi	x0,x0,0	  x0:0x00000000
       37495000	      3748	80002e08	00000013	addi	x0,x0,0	  x0:0x00000000
       37505000	      3749	80002e0c	006ed133	srl	x2,x29,x6	 x29:0x80049f7c  x6:0x00000001  x2=0x40024fbe
       37515000	      3750	80002e10	01a051b3	srl	x3,x0,x26	  x0:0x00000000 x26:0xfffe6b00  x3=0x00000000
       37525000	      3751	80002e14	2e274913	xori	x18,x14,738	 x14:0x2398a008 x18=0x2398a2ea
       37535000	      3752	80002e18	01ae07b3	add	x15,x28,x26	 x28:0x000007d5 x26:0xfffe6b00 x15=0xfffe72d5
       37545000	      3753	80002e1c	760ecf13	xori	x30,x29,1888	 x29:0x80049f7c x30=0x8004981c
       37555000	      3754	80002e20	b98b4493	xori	x9,x22,-1128	 x22:0xfffffc5d  x9=0x000007c5
       37565000	      3755	80002e24	3450de97	auipc	x29,0x3450d	 x29=0xb450fe20
       37575000	      3756	80002e28	044b1263	bne	x22,x4,80002e6c	 x22:0xfffffc5d  x4:0xfffe0002
       37585000	      3757	00000000	00000013	addi	x0,x0,0	  x0:0x00000000
       37595000	      3758	80002e68	00000013	addi	x0,x0,0	  x0:0x00000000
       37605000	      3759	80002e6c	5fbcb013	sltiu	x0,x25,1531	 x25:0x00000008
       37615000	      3760	80002e70	416a5133	sra	x2,x20,x22	 x20:0x9d6c4000 x22:0xfffffc5d  x2=0xfffffffc
       37625000	      3761	80002e74	dd29f793	andi	x15,x19,-558	 x19:0x23989ffb x15=0x23989dd2
       37635000	      3762	80002e78	40825433	sra	x8,x4,x8	  x4:0xfffe0002  x8:0xcd601410  x8=0xfffffffe
       37645000	      3763	80002e7c	01bbd133	srl	x2,x23,x27	 x23:0x0000000d x27:0x00000000  x2=0x0000000d
       37655000	      3764	80002e80	01369313	slli	x6,x13,0x13	 x13:0x00000f20  x6=0x79000000
       37665000	      3765	80002e84	5e780f13	addi	x30,x16,1511	 x16:0x80009f85 x30=0x8000a56c
       37675000	      3766	80002e88	0045da93	srli	x21,x11,0x4	 x11:0x80009fc4 x21=0x080009fc
       37685000	      3767	80002e8c	00cb2cb3	slt	x25,x22,x12	 x22:0xfffffc5d x12:0x00000000 x25=0x00000001
       37695000	      3768	80002e90	f989e013	ori	x0,x19,-104	 x19:0x23989ffb
       37705000	      3769	80002e94	40bd8033	sub	x0,x27,x11	 x27:0x00000000 x11:0x80009fc4
       37715000	      3770	80002e98	f3e6f413	andi	x8,x13,-194	 x13:0x00000f20  x8=0x00000f20
       37725000	      3771	80002e9c	160a6613	ori	x12,x20,352	 x20:0x9d6c4000 x12=0x9d6c4160
       37735000	      3772	80002ea0	40c907b3	sub	x15,x18,x12	 x18:0x2398a2ea x12:0x9d6c4160 x15=0x862c618a
       37745000	      3773	80002ea4	05316263	bltu	x2,x19,80002ee8	  x2:0x0000000d x19:0x23989ffb
       37755000	      3774	00000000	00000013	addi	x0,x0,0	  x0:0x00000000
       37765000	      3775	80002ee4	00000013	addi	x0,x0,0	  x0:0x00000000
       37775000	      3776	80002ee8	0088e463	bltu	x17,x8,80002ef0	 x17:0x00000001  x8:0x00000f20
       37785000	      3777	00000000	00000013	addi	x0,x0,0	  x0:0x00000000
       37795000	      3778	80002eec	00000013	addi	x0,x0,0	  x0:0x00000000
       37805000	      3779	80002ef0	013faab3	slt	x21,x31,x19	 x31:0xcd601000 x19:0x23989ffb x21=0x00000001
       37815000	      3780	80002ef4	00a94a33	xor	x20,x18,x10	 x18:0x2398a2ea x10:0x80009f78 x20=0xa3983d92
       37825000	      3781	80002ef8	0348f263	bgeu	x17,x20,80002f1c	 x17:0x00000001 x20:0xa3983d92
       37835000	      3782	80002efc	00000013	addi	x0,x0,0	  x0:0x00000000
       37845000	      3783	80002f00	007d9213	slli	x4,x27,0x7	 x27:0x00000000  x4=0x00000000
       37855000	      3784	80002f04	00415713	srli	x14,x2,0x4	  x2:0x0000000d x14=0x00000000
       37865000	      3785	80002f08	41e0db33	sra	x22,x1,x30	  x1:0x2398a000 x30:0x8000a56c x22=0x0002398a
       37875000	      3786	80002f0c	024aca63	blt	x21,x4,80002f40	 x21:0x00000001  x4:0x00000000
       37885000	      3787	80002f10	00bd9863	bne	x27,x11,80002f20	 x27:0x00000000 x11:0x80009fc4
       37895000	      3788	00000000	00000013	addi	x0,x0,0	  x0:0x00000000
       37905000	      3789	80002f1c	00000013	addi	x0,x0,0	  x0:0x00000000
       37915000	      3790	80002f20	0f4af117	auipc	x2,0xf4af	  x2=0x8f4b1f1c
       37925000	      3791	80002f24	00029393	slli	x7,x5,0x0	  x5:0x00000000  x7=0x00000000
       37935000	      3792	80002f28	018832b3	sltu	x5,x16,x24	 x16:0x80009f85 x24:0x0000000d  x5=0x00000000
       37945000	      3793	80002f2c	01b61a93	slli	x21,x12,0x1b	 x12:0x9d6c4160 x21=0x00000000
       37955000	      3794	80002f30	8e3b6813	ori	x16,x22,-1821	 x22:0x0002398a x16=0xfffff9eb
       37965000	      3795	80002f34	3198bb17	auipc	x22,0x3198b	 x22=0xb198df30
       37975000	      3796	80002f38	387d6693	ori	x13,x26,903	 x26:0xfffe6b00 x13=0xfffe6b87
       37985000	      3797	80002f3c	0014fd33	and	x26,x9,x1	  x9:0x000007c5  x1:0x2398a000 x26=0x00000000
       37995000	      3798	80002f40	00d60633	add	x12,x12,x13	 x12:0x9d6c4160 x13:0xfffe6b87 x12=0x9d6aace7
       38005000	      3799	80002f44	38b18613	addi	x12,x3,907	  x3:0x00000000 x12=0x0000038b
       38015000	      3800	80002f48	011412b3	sll	x5,x8,x17	  x8:0x00000f20 x17:0x00000001  x5=0x00001e40
       38025000	      3801	80002f4c	0165fcb3	and	x25,x11,x22	 x11:0x80009fc4 x22:0xb198df30 x25=0x80009f00
       38035000	      3802	80002f50	00000013	addi	x0,x0,0	  x0:0x00000000
       38045000	      3803	80002f54	6689eb13	ori	x22,x19,1640	 x19:0x23989ffb x22=0x23989ffb
       38055000	      3804	80002f58	41f7d193	srai	x3,x15,0x1f	 x15:0x862c618a  x3=0xffffffff
       38065000	      3805	80002f5c	00128463	beq	x5,x1,80002f64	  x5:0x00001e40  x1:0x2398a000
       38075000	      3806	80002f60	0f277263	bgeu	x14,x18,80003044	 x14:0x00000000 x18:0x2398a2ea
       38085000	      3807	80002f64	17c14093	xori	x1,x2,380	  x2:0x8f4b1f1c  x1=0x8f4b1e60
       38095000	      3808	80002f68	00006d17	auipc	x26,0x6	 x26=0x80008f64
       38105000	      3809	80002f6c	8e5d0d13	addi	x26,x26,-1819	 x26:0x80008f64 x26=0x80008849
       38115000	      3810	80002f70	cb7c8f93	addi	x31,x25,-841	 x25:0x80009f00 x31=0x80009bb7
       38125000	      3811	80002f74	000283b3	add	x7,x5,x0	  x5:0x00001e40  x0:0x00000000  x7=0x00001e40
       38135000	      3812	80002f78	007d4f83	lbu	x31,7(x26)	 x26:0x80008849 x31=0x00000095 PA:0x80008850
       38145000	      3813	80002f7c	00ad4403	lbu	x8,10(x26)	 x26:0x80008849  x8=0x000000a9 PA:0x80008853
       38155000	      3814	80002f80	010d0883	lb	x17,16(x26)	 x26:0x80008849 x17=0xffffff82 PA:0x80008859
       38165000	      3815	80002f84	003d5283	lhu	x5,3(x26)	 x26:0x80008849  x5=0x0000dd6e PA:0x8000884c
       38175000	      3816	80002f88	ffbd0703	lb	x14,-5(x26)	 x26:0x80008849 x14=0xffffffa0 PA:0x80008844
       38185000	      3817	80002f8c	ff0d4e03	lbu	x28,-16(x26)	 x26:0x80008849 x28=0x0000002d PA:0x80008839
       38195000	      3818	80002f90	ff0d0e23	sb	x16,-4(x26)	 x26:0x80008849 x16:0xfffff9eb PA:0x80008845
       38205000	      3819	80002f94	76d73013	sltiu	x0,x14,1901	 x14:0xffffffa0
       38215000	      3820	80002f98	ffad4983	lbu	x19,-6(x26)	 x26:0x80008849 x19=0x000000ec PA:0x80008843
       38225000	      3821	80002f9c	00ef9293	slli	x5,x31,0xe	 x31:0x00000095  x5=0x00254000
       38235000	      3822	80002fa0	00d85f13	srli	x30,x16,0xd	 x16:0xfffff9eb x30=0x0007ffff
       38245000	      3823	80002fa4	002d03a3	sb	x2,7(x26)	 x26:0x80008849  x2:0x8f4b1f1c PA:0x80008850
       38255000	      3824	80002fa8	41c1d0b3	sra	x1,x3,x28	  x3:0xffffffff x28:0x0000002d  x1=0xffffffff
       38265000	      3825	80002fac	ff6d0483	lb	x9,-10(x26)	 x26:0x80008849  x9=0x00000033 PA:0x8000883f
       38275000	      3826	80002fb0	01ae7f33	and	x30,x28,x26	 x28:0x0000002d x26:0x80008849 x30=0x00000009
       38285000	      3827	80002fb4	41c78733	sub	x14,x15,x28	 x15:0x862c618a x28:0x0000002d x14=0x862c615d
       38295000	      3828	80002fb8	00ed0823	sb	x14,16(x26)	 x26:0x80008849 x14:0x862c615d PA:0x80008859
       38305000	      3829	80002fbc	8c463193	sltiu	x3,x12,-1852	 x12:0x0000038b  x3=0x00000001
       38315000	      3830	80002fc0	fe6d0e23	sb	x6,-4(x26)	 x26:0x80008849  x6:0x79000000 PA:0x80008845
       38325000	      3831	80002fc4	01161f33	sll	x30,x12,x17	 x12:0x0000038b x17:0xffffff82 x30=0x00000e2c
       38335000	      3832	80002fc8	007d0c03	lb	x24,7(x26)	 x26:0x80008849 x24=0x0000001c PA:0x80008850
       38345000	      3833	00000000	00000013	addi	x0,x0,0	  x0:0x00000000
       38355000	      3834	80002fcc	ff8d0383	lb	x7,-8(x26)	 x26:0x80008849  x7=0xffffffc2 PA:0x80008841
       38365000	      3835	00000000	00000013	addi	x0,x0,0	  x0:0x00000000
       38375000	      3836	80002fd0	de752413	slti	x8,x10,-537	 x10:0x80009f78  x8=0x00000001
       38385000	      3837	80002fd4	010d10a3	sh	x16,1(x26)	 x26:0x80008849 x16:0xfffff9eb PA:0x8000884a
       38395000	      3838	80002fd8	fffd1783	lh	x15,-1(x26)	 x26:0x80008849 x15=0x00003a72 PA:0x80008848
       38405000	      3839	80002fdc	fe4d09a3	sb	x4,-13(x26)	 x26:0x80008849  x4:0x00000000 PA:0x8000883c
       38415000	      3840	80002fe0	00085933	srl	x18,x16,x0	 x16:0xfffff9eb  x0:0x00000000 x18=0xfffff9eb
       38425000	      3841	80002fe4	0d228493	addi	x9,x5,210	  x5:0x00254000  x9=0x002540d2
       38435000	      3842	80002fe8	000d0083	lb	x1,0(x26)	 x26:0x80008849  x1=0x0000003a PA:0x80008849
       38445000	      3843	80002fec	11f86f17	auipc	x30,0x11f86	 x30=0x91f88fe8
       38455000	      3844	80002ff0	ffad4103	lbu	x2,-6(x26)	 x26:0x80008849  x2=0x000000ec PA:0x80008843
       38465000	      3845	80002ff4	ff9d1203	lh	x4,-7(x26)	 x26:0x80008849  x4=0xffffecb5 PA:0x80008842
       38475000	      3846	80002ff8	010d4e83	lbu	x29,16(x26)	 x26:0x80008849 x29=0x0000005d PA:0x80008859
       38485000	      3847	80002ffc	01424c33	xor	x24,x4,x20	  x4:0xffffecb5 x20:0xa3983d92 x24=0x5c67d127
       38495000	      3848	80003000	c6371137	lui	x2,0xc6371	  x2=0xc6371000
       38505000	      3849	80003004	026b6863	bltu	x22,x6,80003034	 x22:0x23989ffb  x6:0x79000000
       38515000	      3850	00000000	00000013	addi	x0,x0,0	  x0:0x00000000
       38525000	      3851	80003030	00000013	addi	x0,x0,0	  x0:0x00000000
       38535000	      3852	80003034	de39b013	sltiu	x0,x19,-541	 x19:0x000000ec
       38545000	      3853	80003038	00000013	addi	x0,x0,0	  x0:0x00000000
       38555000	      3854	8000303c	22acbd93	sltiu	x27,x25,554	 x25:0x80009f00 x27=0x00000000
       38565000	      3855	80003040	00051493	slli	x9,x10,0x0	 x10:0x80009f78  x9=0x80009f78
       38575000	      3856	80003044	01a48433	add	x8,x9,x26	  x9:0x80009f78 x26:0x80008849  x8=0x000127c1
       38585000	      3857	80003048	03f4d863	bge	x9,x31,80003078	  x9:0x80009f78 x31:0x00000095
       38595000	      3858	8000304c	00df7463	bgeu	x30,x13,80003054	 x30:0x91f88fe8 x13:0xfffe6b87
       38605000	      3859	80003050	0258c663	blt	x17,x5,8000307c	 x17:0xffffff82  x5:0x00254000
       38615000	      3860	00000000	00000013	addi	x0,x0,0	  x0:0x00000000
       38625000	      3861	80003078	00000013	addi	x0,x0,0	  x0:0x00000000
       38635000	      3862	8000307c	d2766793	ori	x15,x12,-729	 x12:0x0000038b x15=0xffffffaf
       38645000	      3863	80003080	0084df13	srli	x30,x9,0x8	  x9:0x80009f78 x30=0x0080009f
       38655000	      3864	80003084	00d8bcb3	sltu	x25,x17,x13	 x17:0xffffff82 x13:0xfffe6b87 x25=0x00000000
       38665000	      3865	80003088	8fca7993	andi	x19,x20,-1796	 x20:0xa3983d92 x19=0xa3983890
       38675000	      3866	8000308c	005c4433	xor	x8,x24,x5	 x24:0x5c67d127  x5:0x00254000  x8=0x5c429127
       38685000	      3867	80003090	02eac663	blt	x21,x14,800030bc	 x21:0x00000000 x14:0x862c615d
       38695000	      3868	80003094	01460833	add	x16,x12,x20	 x12:0x0000038b x20:0xa3983d92 x16=0xa398411d
       38705000	      3869	80003098	03124263	blt	x4,x17,800030bc	  x4:0xffffecb5 x17:0xffffff82
       38715000	      3870	00000000	00000013	addi	x0,x0,0	  x0:0x00000000
       38725000	      3871	800030b8	00000013	addi	x0,x0,0	  x0:0x00000000
       38735000	      3872	800030bc	f42f2c13	slti	x24,x30,-190	 x30:0x0080009f x24=0x00000000
       38745000	      3873	800030c0	39dcc993	xori	x19,x25,925	 x25:0x00000000 x19=0x0000039d
       38755000	      3874	800030c4	2a1b4613	xori	x12,x22,673	 x22:0x23989ffb x12=0x23989d5a
       38765000	      3875	800030c8	ebf6c093	xori	x1,x13,-321	 x13:0xfffe6b87  x1=0x00019538
       38775000	      3876	800030cc	01281413	slli	x8,x16,0x12	 x16:0xa398411d  x8=0x04740000
       38785000	      3877	800030d0	00000013	addi	x0,x0,0	  x0:0x00000000
       38795000	      3878	800030d4	00f753b3	srl	x7,x14,x15	 x14:0x862c615d x15:0xffffffaf  x7=0x00010c58
       38805000	      3879	800030d8	01b1af33	slt	x30,x3,x27	  x3:0x00000001 x27:0x00000000 x30=0x00000000
       38815000	      3880	800030dc	00000013	addi	x0,x0,0	  x0:0x00000000
       38825000	      3881	800030e0	319f8d93	addi	x27,x31,793	 x31:0x00000095 x27=0x000003ae
       38835000	      3882	800030e4	017364b3	or	x9,x6,x23	  x6:0x79000000 x23:0x0000000d  x9=0x7900000d
       38845000	      3883	800030e8	18f04813	xori	x16,x0,399	  x0:0x00000000 x16=0x0000018f
       38855000	      3884	800030ec	037a1863	bne	x20,x23,8000311c	 x20:0xa3983d92 x23:0x0000000d
       38865000	      3885	00000000	00000013	addi	x0,x0,0	  x0:0x00000000
       38875000	      3886	80003118	00000013	addi	x0,x0,0	  x0:0x00000000
       38885000	      3887	8000311c	048af063	bgeu	x21,x8,8000315c	 x21:0x00000000  x8:0x04740000
       38895000	      3888	80003120	01f85633	srl	x12,x16,x31	 x16:0x0000018f x31:0x00000095 x12=0x00000000
       38905000	      3889	80003124	41400933	sub	x18,x0,x20	  x0:0x00000000 x20:0xa3983d92 x18=0x5c67c26e
       38915000	      3890	80003128	9564a793	slti	x15,x9,-1706	  x9:0x7900000d x15=0x00000000
       38925000	      3891	8000312c	04534263	blt	x6,x5,80003170	  x6:0x79000000  x5:0x00254000
       38935000	      3892	80003130	01bb9193	slli	x3,x23,0x1b	 x23:0x0000000d  x3=0x68000000
       38945000	      3893	80003134	01037933	and	x18,x6,x16	  x6:0x79000000 x16:0x0000018f x18=0x00000000
       38955000	      3894	80003138	4f3cc013	xori	x0,x25,1267	 x25:0x00000000
       38965000	      3895	8000313c	9d854613	xori	x12,x10,-1576	 x10:0x80009f78 x12=0x7fff66a0
       38975000	      3896	80003140	010e67b3	or	x15,x28,x16	 x28:0x0000002d x16:0x0000018f x15=0x000001af
       38985000	      3897	80003144	415ed4b3	sra	x9,x29,x21	 x29:0x0000005d x21:0x00000000  x9=0x0000005d
       38995000	      3898	80003148	01a3b333	sltu	x6,x7,x26	  x7:0x00010c58 x26:0x80008849  x6=0x00000001
       39005000	      3899	8000314c	00961413	slli	x8,x12,0x9	 x12:0x7fff66a0  x8=0xfecd4000
       39015000	      3900	80003150	506ee013	ori	x0,x29,1286	 x29:0x0000005d
       39025000	      3901	80003154	e8270e13	addi	x28,x14,-382	 x14:0x862c615d x28=0x862c5fdf
       39035000	      3902	80003158	009148b3	xor	x17,x2,x9	  x2:0xc6371000  x9:0x0000005d x17=0xc637105d
       39045000	      3903	8000315c	00000013	addi	x0,x0,0	  x0:0x00000000
       39055000	      3904	80003160	00275933	srl	x18,x14,x2	 x14:0x862c615d  x2:0xc6371000 x18=0x862c615d
       39065000	      3905	80003164	005c5893	srli	x17,x24,0x5	 x24:0x00000000 x17=0x00000000
       39075000	      3906	80003168	4054db33	sra	x22,x9,x5	  x9:0x0000005d  x5:0x00254000 x22=0x0000005d
       39085000	      3907	8000316c	0194e663	bltu	x9,x25,80003178	  x9:0x0000005d x25:0x00000000
       39095000	      3908	80003170	018f22b3	slt	x5,x30,x24	 x30:0x00000000 x24:0x00000000  x5=0x00000000
       39105000	      3909	80003174	05b94263	blt	x18,x27,800031b8	 x18:0x862c615d x27:0x000003ae
       39115000	      3910	00000000	00000013	addi	x0,x0,0	  x0:0x00000000
       39125000	      3911	800031b4	00000013	addi	x0,x0,0	  x0:0x00000000
       39135000	      3912	800031b8	02bfdc63	bge	x31,x11,800031f0	 x31:0x00000095 x11:0x80009fc4
       39145000	      3913	00000000	00000013	addi	x0,x0,0	  x0:0x00000000
       39155000	      3914	800031ec	00000013	addi	x0,x0,0	  x0:0x00000000
       39165000	      3915	800031f0	3868a837	lui	x16,0x3868a	 x16=0x3868a000
       39175000	      3916	800031f4	00cf10b3	sll	x1,x30,x12	 x30:0x00000000 x12:0x7fff66a0  x1=0x00000000
       39185000	      3917	800031f8	0580d863	bge	x1,x24,80003248	  x1:0x00000000 x24:0x00000000
       39195000	      3918	00000000	00000013	addi	x0,x0,0	  x0:0x00000000
       39205000	      3919	80003244	00000013	addi	x0,x0,0	  x0:0x00000000
       39215000	      3920	80003248	018ad433	srl	x8,x21,x24	 x21:0x00000000 x24:0x00000000  x8=0x00000000
       39225000	      3921	8000324c	15522713	slti	x14,x4,341	  x4:0xffffecb5 x14=0x00000001
       39235000	      3922	80003250	9936d2b7	lui	x5,0x9936d	  x5=0x9936d000
       39245000	      3923	80003254	33843913	sltiu	x18,x8,824	  x8:0x00000000 x18=0x00000001
       39255000	      3924	80003258	406f0833	sub	x16,x30,x6	 x30:0x00000000  x6:0x00000001 x16=0xffffffff
       39265000	      3925	8000325c	01b98463	beq	x19,x27,80003264	 x19:0x0000039d x27:0x000003ae
       39275000	      3926	80003260	9670c193	xori	x3,x1,-1689	  x1:0x00000000  x3=0xfffff967
       39285000	      3927	80003264	41a95193	srai	x3,x18,0x1a	 x18:0x00000001  x3=0x00000000
       39295000	      3928	80003268	00fc1213	slli	x4,x24,0xf	 x24:0x00000000  x4=0x00000000
       39305000	      3929	8000326c	bb9b1197	auipc	x3,0xbb9b1	  x3=0x3b9b4268
       39315000	      3930	80003270	41615db3	sra	x27,x2,x22	  x2:0xc6371000 x22:0x0000005d x27=0xfffffffe
       39325000	      3931	80003274	34224813	xori	x16,x4,834	  x4:0x00000000 x16=0x00000342
       39335000	      3932	80003278	01fedd13	srli	x26,x29,0x1f	 x29:0x0000005d x26=0x00000000
       39345000	      3933	8000327c	016e3033	sltu	x0,x28,x22	 x28:0x862c5fdf x22:0x0000005d
       39355000	      3934	80003280	40c18f33	sub	x30,x3,x12	  x3:0x3b9b4268 x12:0x7fff66a0 x30=0xbb9bdbc8
       39365000	      3935	80003284	407adf93	srai	x31,x21,0x7	 x21:0x00000000 x31=0x00000000
       39375000	      3936	80003288	034f6663	bltu	x30,x20,800032b4	 x30:0xbb9bdbc8 x20:0xa3983d92
       39385000	      3937	8000328c	408551b3	sra	x3,x10,x8	 x10:0x80009f78  x8:0x00000000  x3=0x80009f78
       39395000	      3938	80003290	70ae7193	andi	x3,x28,1802	 x28:0x862c5fdf  x3=0x0000070a
       39405000	      3939	80003294	40008ab3	sub	x21,x1,x0	  x1:0x00000000  x0:0x00000000 x21=0x00000000
       39415000	      3940	80003298	005c6733	or	x14,x24,x5	 x24:0x00000000  x5:0x9936d000 x14=0x9936d000
       39425000	      3941	8000329c	528e8213	addi	x4,x29,1320	 x29:0x0000005d  x4=0x00000585
       39435000	      3942	800032a0	01175413	srli	x8,x14,0x11	 x14:0x9936d000  x8=0x00004c9b
       39445000	      3943	800032a4	05330263	beq	x6,x19,800032e8	  x6:0x00000001 x19:0x0000039d
       39455000	      3944	800032a8	00fe4a33	xor	x20,x28,x15	 x28:0x862c5fdf x15:0x000001af x20=0x862c5e70
       39465000	      3945	800032ac	415f8a33	sub	x20,x31,x21	 x31:0x00000000 x21:0x00000000 x20=0x00000000
       39475000	      3946	800032b0	0534c263	blt	x9,x19,800032f4	  x9:0x0000005d x19:0x0000039d
       39485000	      3947	00000000	00000013	addi	x0,x0,0	  x0:0x00000000
       39495000	      3948	800032f0	00000013	addi	x0,x0,0	  x0:0x00000000
       39505000	      3949	800032f4	03136863	bltu	x6,x17,80003324	  x6:0x00000001 x17:0x00000000
       39515000	      3950	800032f8	03fd9863	bne	x27,x31,80003328	 x27:0xfffffffe x31:0x00000000
       39525000	      3951	00000000	00000013	addi	x0,x0,0	  x0:0x00000000
       39535000	      3952	80003324	00000013	addi	x0,x0,0	  x0:0x00000000
       39545000	      3953	80003328	9878b3b7	lui	x7,0x9878b	  x7=0x9878b000
       39555000	      3954	8000332c	ee010313	addi	x6,x2,-288	  x2:0xc6371000  x6=0xc6370ee0
       39565000	      3955	80003330	14a38e93	addi	x29,x7,330	  x7:0x9878b000 x29=0x9878b14a
       39575000	      3956	80003334	0582f263	bgeu	x5,x24,80003378	  x5:0x9936d000 x24:0x00000000
       39585000	      3957	00000000	00000013	addi	x0,x0,0	  x0:0x00000000
       39595000	      3958	80003374	00000013	addi	x0,x0,0	  x0:0x00000000
       39605000	      3959	80003378	0048f6b3	and	x13,x17,x4	 x17:0x00000000  x4:0x00000585 x13=0x00000000
       39615000	      3960	8000337c	4176d8b3	sra	x17,x13,x23	 x13:0x00000000 x23:0x0000000d x17=0x00000000
       39625000	      3961	80003380	052d1463	bne	x26,x18,800033c8	 x26:0x00000000 x18:0x00000001
       39635000	      3962	00000000	00000013	addi	x0,x0,0	  x0:0x00000000
       39645000	      3963	800033c4	00000013	addi	x0,x0,0	  x0:0x00000000
       39655000	      3964	800033c8	1f4d0293	addi	x5,x26,500	 x26:0x00000000  x5=0x000001f4
       39665000	      3965	800033cc	013ff863	bgeu	x31,x19,800033dc	 x31:0x00000000 x19:0x0000039d
       39675000	      3966	800033d0	02921c63	bne	x4,x9,80003408	  x4:0x00000585  x9:0x0000005d
       39685000	      3967	00000000	00000013	addi	x0,x0,0	  x0:0x00000000
       39695000	      3968	80003404	00000013	addi	x0,x0,0	  x0:0x00000000
       39705000	      3969	80003408	017f8fb3	add	x31,x31,x23	 x31:0x00000000 x23:0x0000000d x31=0x0000000d
       39715000	      3970	8000340c	01867cb3	and	x25,x12,x24	 x12:0x7fff66a0 x24:0x00000000 x25=0x00000000
       39725000	      3971	80003410	411d5c93	srai	x25,x26,0x11	 x26:0x00000000 x25=0x00000000
       39735000	      3972	80003414	01d06fb3	or	x31,x0,x29	  x0:0x00000000 x29:0x9878b14a x31=0x9878b14a
       39745000	      3973	80003418	7b885917	auipc	x18,0x7b885	 x18=0xfb888414
       39755000	      3974	8000341c	01349d93	slli	x27,x9,0x13	  x9:0x0000005d x27=0x02e80000
       39765000	      3975	80003420	a9227197	auipc	x3,0xa9227	  x3=0x2922a41c
       39775000	      3976	80003424	7db8ba93	sltiu	x21,x17,2011	 x17:0x00000000 x21=0x00000001
       39785000	      3977	80003428	41f5dab3	sra	x21,x11,x31	 x11:0x80009fc4 x31:0x9878b14a x21=0xffe00027
       39795000	      3978	8000342c	41b15433	sra	x8,x2,x27	  x2:0xc6371000 x27:0x02e80000  x8=0xc6371000
       39805000	      3979	80003430	003f46b3	xor	x13,x30,x3	 x30:0xbb9bdbc8  x3:0x2922a41c x13=0x92b97fd4
       39815000	      3980	80003434	40ce0c33	sub	x24,x28,x12	 x28:0x862c5fdf x12:0x7fff66a0 x24=0x062cf93f
       39825000	      3981	80003438	40795b13	srai	x22,x18,0x7	 x18:0xfb888414 x22=0xfff71108
       39835000	      3982	8000343c	01045a33	srl	x20,x8,x16	  x8:0xc6371000 x16:0x00000342 x20=0x318dc400
       39845000	      3983	80003440	00a15fb3	srl	x31,x2,x10	  x2:0xc6371000 x10:0x80009f78 x31=0x000000c6
       39855000	      3984	80003444	00000013	addi	x0,x0,0	  x0:0x00000000
       39865000	      3985	80003448	00b85693	srli	x13,x16,0xb	 x16:0x00000342 x13=0x00000000
       39875000	      3986	8000344c	22392c13	slti	x24,x18,547	 x18:0xfb888414 x24=0x00000001
       39885000	      3987	80003450	3bb02d13	slti	x26,x0,955	  x0:0x00000000 x26=0x00000001
       39895000	      3988	80003454	0294ea63	bltu	x9,x9,80003488	  x9:0x0000005d  x9:0x0000005d
       39905000	      3989	80003458	3a3afe93	andi	x29,x21,931	 x21:0xffe00027 x29=0x00000023
       39915000	      3990	8000345c	04c79863	bne	x15,x12,800034ac	 x15:0x000001af x12:0x7fff66a0
       39925000	      3991	00000000	00000013	addi	x0,x0,0	  x0:0x00000000
       39935000	      3992	800034a8	00000013	addi	x0,x0,0	  x0:0x00000000
       39945000	      3993	800034ac	01187633	and	x12,x16,x17	 x16:0x00000342 x17:0x00000000 x12=0x00000000
       39955000	      3994	800034b0	00006997	auipc	x19,0x6	 x19=0x800094ac
       39965000	      3995	800034b4	90f98993	addi	x19,x19,-1777	 x19:0x800094ac x19=0x80008dbb
       39975000	      3996	800034b8	0579cd83	lbu	x27,87(x19)	 x19:0x80008dbb x27=0x000000f3 PA:0x80008e12
       39985000	      3997	800034bc	01ec73b3	and	x7,x24,x30	 x24:0x00000001 x30:0xbb9bdbc8  x7=0x00000000
       39995000	      3998	800034c0	0a09c183	lbu	x3,160(x19)	 x19:0x80008dbb  x3=0x000000e7 PA:0x80008e5b
       40005000	      3999	800034c4	07dc6617	auipc	x12,0x7dc6	 x12=0x87dc94c0
       40015000	      4000	800034c8	4057bf13	sltiu	x30,x15,1029	 x15:0x000001af x30=0x00000001
       40025000	      4001	800034cc	000121b3	slt	x3,x2,x0	  x2:0xc6371000  x0:0x00000000  x3=0x00000001
       40035000	      4002	800034d0	fcc98423	sb	x12,-56(x19)	 x19:0x80008dbb x12:0x87dc94c0 PA:0x80008d83
       40045000	      4003	800034d4	00d7ee33	or	x28,x15,x13	 x15:0x000001af x13:0x00000000 x28=0x000001af
       40055000	      4004	800034d8	09898403	lb	x8,152(x19)	 x19:0x80008dbb  x8=0xffffff9d PA:0x80008e53
       40065000	      4005	800034dc	f6e98d03	lb	x26,-146(x19)	 x19:0x80008dbb x26=0xffffff9e PA:0x80008d29
       40075000	      4006	800034e0	f719d183	lhu	x3,-143(x19)	 x19:0x80008dbb  x3=0x000042f1 PA:0x80008d2c
       40085000	      4007	800034e4	7584cf13	xori	x30,x9,1880	  x9:0x0000005d x30=0x00000705
       40095000	      4008	800034e8	f169cd83	lbu	x27,-234(x19)	 x19:0x80008dbb x27=0x000000c8 PA:0x80008cd1
       40105000	      4009	800034ec	0c39c003	lbu	x0,195(x19)	 x19:0x80008dbb PA:0x80008e7e
       40115000	      4010	800034f0	f8598723	sb	x5,-114(x19)	 x19:0x80008dbb  x5:0x000001f4 PA:0x80008d49
       40125000	      4011	800034f4	05a9cc03	lbu	x24,90(x19)	 x19:0x80008dbb x24=0x00000027 PA:0x80008e15
       40135000	      4012	800034f8	adb58e13	addi	x28,x11,-1317	 x11:0x80009fc4 x28=0x80009a9f
       40145000	      4013	800034fc	fc199fa3	sh	x1,-33(x19)	 x19:0x80008dbb  x1:0x00000000 PA:0x80008d9a
       40155000	      4014	80003500	fdf98c03	lb	x24,-33(x19)	 x19:0x80008dbb x24=0x00000000 PA:0x80008d9a
       40165000	      4015	80003504	0a698783	lb	x15,166(x19)	 x19:0x80008dbb x15=0x00000000 PA:0x80008e61
       40175000	      4016	80003508	08e98a83	lb	x21,142(x19)	 x19:0x80008dbb x21=0x0000002e PA:0x80008e49
       40185000	      4017	8000350c	001982a3	sb	x1,5(x19)	 x19:0x80008dbb  x1:0x00000000 PA:0x80008dc0
       40195000	      4018	80003510	f2098683	lb	x13,-224(x19)	 x19:0x80008dbb x13=0x00000020 PA:0x80008cdb
       40205000	      4019	80003514	06f98e83	lb	x29,111(x19)	 x19:0x80008dbb x29=0x0000000e PA:0x80008e2a
       40215000	      4020	80003518	f0c98603	lb	x12,-244(x19)	 x19:0x80008dbb x12=0xffffff89 PA:0x80008cc7
       40225000	      4021	8000351c	417486b3	sub	x13,x9,x23	  x9:0x0000005d x23:0x0000000d x13=0x00000050
       40235000	      4022	80003520	faa9ca83	lbu	x21,-86(x19)	 x19:0x80008dbb x21=0x000000b9 PA:0x80008d65
       40245000	      4023	80003524	03a98ca3	sb	x26,57(x19)	 x19:0x80008dbb x26:0xffffff9e PA:0x80008df4
       40255000	      4024	80003528	01498723	sb	x20,14(x19)	 x19:0x80008dbb x20:0x318dc400 PA:0x80008dc9
       40265000	      4025	8000352c	00a3a233	slt	x4,x7,x10	  x7:0x00000000 x10:0x80009f78  x4=0x00000000
       40275000	      4026	80003530	0429ca83	lbu	x21,66(x19)	 x19:0x80008dbb x21=0x000000ef PA:0x80008dfd
       40285000	      4027	80003534	e21ff8b7	lui	x17,0xe21ff	 x17=0xe21ff000
       40295000	      4028	80003538	00fade93	srli	x29,x21,0xf	 x21:0x000000ef x29=0x00000000
       40305000	      4029	8000353c	f9c984a3	sb	x28,-119(x19)	 x19:0x80008dbb x28:0x80009a9f PA:0x80008d44
       40315000	      4030	80003540	fb998a03	lb	x20,-71(x19)	 x19:0x80008dbb x20=0xffffff84 PA:0x80008d74
       40325000	      4031	80003544	f8798b03	lb	x22,-121(x19)	 x19:0x80008dbb x22=0x0000004b PA:0x80008d42
       40335000	      4032	80003548	62202e93	slti	x29,x0,1570	  x0:0x00000000 x29=0x00000001
       40345000	      4033	8000354c	9f68f313	andi	x6,x17,-1546	 x17:0xe21ff000  x6=0xe21ff000
       40355000	      4034	80003550	03f11663	bne	x2,x31,8000357c	  x2:0xc6371000 x31:0x000000c6
       40365000	      4035	00000000	00000013	addi	x0,x0,0	  x0:0x00000000
       40375000	      4036	80003578	00000013	addi	x0,x0,0	  x0:0x00000000
       40385000	      4037	8000357c	021c0c63	beq	x24,x1,800035b4	 x24:0x00000000  x1:0x00000000
       40395000	      4038	00000000	00000013	addi	x0,x0,0	  x0:0x00000000
       40405000	      4039	800035b0	00000013	addi	x0,x0,0	  x0:0x00000000
       40415000	      4040	800035b4	f1e65cb7	lui	x25,0xf1e65	 x25=0xf1e65000
       40425000	      4041	800035b8	02d66663	bltu	x12,x13,800035e4	 x12:0xffffff89 x13:0x00000050
       40435000	      4042	800035bc	004c1193	slli	x3,x24,0x4	 x24:0x00000000  x3=0x00000000
       40445000	      4043	800035c0	294f3f93	sltiu	x31,x30,660	 x30:0x00000705 x31=0x00000000
       40455000	      4044	800035c4	00271f13	slli	x30,x14,0x2	 x14:0x9936d000 x30=0x64db4000
       40465000	      4045	800035c8	01c7e863	bltu	x15,x28,800035d8	 x15:0x00000000 x28:0x80009a9f
       40475000	      4046	00000000	00000013	addi	x0,x0,0	  x0:0x00000000
       40485000	      4047	800035d4	00000013	addi	x0,x0,0	  x0:0x00000000
       40495000	      4048	800035d8	01eeb333	sltu	x6,x29,x30	 x29:0x00000001 x30:0x64db4000  x6=0x00000001
       40505000	      4049	800035dc	00a3c033	xor	x0,x7,x10	  x7:0x00000000 x10:0x80009f78
       40515000	      4050	800035e0	0f648993	addi	x19,x9,246	  x9:0x0000005d x19=0x00000153
       40525000	      4051	800035e4	3606a493	slti	x9,x13,864	 x13:0x00000050  x9=0x00000001
       40535000	      4052	800035e8	018f7233	and	x4,x30,x24	 x30:0x64db4000 x24:0x00000000  x4=0x00000000
       40545000	      4053	800035ec	002f9133	sll	x2,x31,x2	 x31:0x00000000  x2:0xc6371000  x2=0x00000000
       40555000	      4054	800035f0	7312e893	ori	x17,x5,1841	  x5:0x000001f4 x17=0x000007f5
       40565000	      4055	800035f4	a6786393	ori	x7,x16,-1433	 x16:0x00000342  x7=0xfffffb67
       40575000	      4056	800035f8	40c0dc93	srai	x25,x1,0xc	  x1:0x00000000 x25=0x00000000
       40585000	      4057	800035fc	00f6d833	srl	x16,x13,x15	 x13:0x00000050 x15:0x00000000 x16=0x00000050
       40595000	      4058	80003600	4091d713	srai	x14,x3,0x9	  x3:0x00000000 x14=0x00000000
       40605000	      4059	80003604	015a93b3	sll	x7,x21,x21	 x21:0x000000ef x21:0x000000ef  x7=0x00778000
       40615000	      4060	80003608	00bd32b3	sltu	x5,x26,x11	 x26:0xffffff9e x11:0x80009fc4  x5=0x00000000
       40625000	      4061	8000360c	c928b293	sltiu	x5,x17,-878	 x17:0x000007f5  x5=0x00000001
       40635000	      4062	80003610	01446463	bltu	x8,x20,80003618	  x8:0xffffff9d x20:0xffffff84
       40645000	      4063	80003614	01085113	srli	x2,x16,0x10	 x16:0x00000050  x2=0x00000000
       40655000	      4064	80003618	40b48e33	sub	x28,x9,x11	  x9:0x00000001 x11:0x80009fc4 x28=0x7fff603d
       40665000	      4065	8000361c	03180863	beq	x16,x17,8000364c	 x16:0x00000050 x17:0x000007f5
       40675000	      4066	80003620	4bdd8493	addi	x9,x27,1213	 x27:0x000000c8  x9=0x00000585
       40685000	      4067	80003624	1db10913	addi	x18,x2,475	  x2:0x00000000 x18=0x000001db
       40695000	      4068	80003628	f041be17	auipc	x28,0xf041b	 x28=0x7041e624
       40705000	      4069	8000362c	407c0033	sub	x0,x24,x7	 x24:0x00000000  x7:0x00778000
       40715000	      4070	80003630	51725237	lui	x4,0x51725	  x4=0x51725000
       40725000	      4071	80003634	db5214b7	lui	x9,0xdb521	  x9=0xdb521000
       40735000	      4072	80003638	00b93813	sltiu	x16,x18,11	 x18:0x000001db x16=0x00000000
       40745000	      4073	8000363c	00872633	slt	x12,x14,x8	 x14:0x00000000  x8:0xffffff9d x12=0x00000000
       40755000	      4074	80003640	05ae0663	beq	x28,x26,8000368c	 x28:0x7041e624 x26:0xffffff9e
       40765000	      4075	80003644	02cee863	bltu	x29,x12,80003674	 x29:0x00000001 x12:0x00000000
       40775000	      4076	80003648	01ab2333	slt	x6,x22,x26	 x22:0x0000004b x26:0xffffff9e  x6=0x00000000
       40785000	      4077	8000364c	411c5cb3	sra	x25,x24,x17	 x24:0x00000000 x17:0x000007f5 x25=0x00000000
       40795000	      4078	80003650	00f5ff33	and	x30,x11,x15	 x11:0x80009fc4 x15:0x00000000 x30=0x00000000
       40805000	      4079	80003654	0338fc63	bgeu	x17,x19,8000368c	 x17:0x000007f5 x19:0x00000153
       40815000	      4080	00000000	00000013	addi	x0,x0,0	  x0:0x00000000
       40825000	      4081	80003688	00000013	addi	x0,x0,0	  x0:0x00000000
       40835000	      4082	8000368c	01f18433	add	x8,x3,x31	  x3:0x00000000 x31:0x00000000  x8=0x00000000
       40845000	      4083	80003690	00729db3	sll	x27,x5,x7	  x5:0x00000001  x7:0x00778000 x27=0x00000001
       40855000	      4084	80003694	03c94a63	blt	x18,x28,800036c8	 x18:0x000001db x28:0x7041e624
       40865000	      4085	00000000	00000013	addi	x0,x0,0	  x0:0x00000000
       40875000	      4086	800036c4	00000013	addi	x0,x0,0	  x0:0x00000000
       40885000	      4087	800036c8	faaf8417	auipc	x8,0xfaaf8	  x8=0x7aafb6c4
       40895000	      4088	800036cc	00241a33	sll	x20,x8,x2	  x8:0x7aafb6c4  x2:0x00000000 x20=0x7aafb6c4
       40905000	      4089	800036d0	00c43b33	sltu	x22,x8,x12	  x8:0x7aafb6c4 x12:0x00000000 x22=0x00000000
       40915000	      4090	800036d4	1e672d13	slti	x26,x14,486	 x14:0x00000000 x26=0x00000001
       40925000	      4091	800036d8	6ffe2913	slti	x18,x28,1791	 x28:0x7041e624 x18=0x00000000
       40935000	      4092	800036dc	018fe633	or	x12,x31,x24	 x31:0x00000000 x24:0x00000000 x12=0x00000000
       40945000	      4093	800036e0	00b47433	and	x8,x8,x11	  x8:0x7aafb6c4 x11:0x80009fc4  x8=0x000096c4
       40955000	      4094	800036e4	01b75663	bge	x14,x27,800036f0	 x14:0x00000000 x27:0x00000001
       40965000	      4095	800036e8	6db623b7	lui	x7,0x6db62	  x7=0x6db62000
       40975000	      4096	800036ec	938e3693	sltiu	x13,x28,-1736	 x28:0x7041e624 x13=0x00000001
       40985000	      4097	800036f0	03f66a63	bltu	x12,x31,80003724	 x12:0x00000000 x31:0x00000000
       40995000	      4098	800036f4	01beffb3	and	x31,x29,x27	 x29:0x00000001 x27:0x00000001 x31=0x00000001
       41005000	      4099	800036f8	00b62633	slt	x12,x12,x11	 x12:0x00000000 x11:0x80009fc4 x12=0x00000000
       41015000	      4100	800036fc	da2fb813	sltiu	x16,x31,-606	 x31:0x00000001 x16=0x00000001
       41025000	      4101	80003700	00000013	addi	x0,x0,0	  x0:0x00000000
       41035000	      4102	80003704	410c8db3	sub	x27,x25,x16	 x25:0x00000000 x16:0x00000001 x27=0xffffffff
       41045000	      4103	80003708	02436463	bltu	x6,x4,80003730	  x6:0x00000000  x4:0x51725000
       41055000	      4104	00000000	00000013	addi	x0,x0,0	  x0:0x00000000
       41065000	      4105	8000372c	00000013	addi	x0,x0,0	  x0:0x00000000
       41075000	      4106	80003730	008a51b3	srl	x3,x20,x8	 x20:0x7aafb6c4  x8:0x000096c4  x3=0x07aafb6c
       41085000	      4107	80003734	04bd1863	bne	x26,x11,80003784	 x26:0x00000001 x11:0x80009fc4
       41095000	      4108	00000000	00000013	addi	x0,x0,0	  x0:0x00000000
       41105000	      4109	80003780	00000013	addi	x0,x0,0	  x0:0x00000000
       41115000	      4110	80003784	59cb0113	addi	x2,x22,1436	 x22:0x00000000  x2=0x0000059c
       41125000	      4111	80003788	41f3a693	slti	x13,x7,1055	  x7:0x6db62000 x13=0x00000000
       41135000	      4112	8000378c	b14aaa97	auipc	x21,0xb14aa	 x21=0x314ad788
       41145000	      4113	80003790	41f0d493	srai	x9,x1,0x1f	  x1:0x00000000  x9=0x00000000
       41155000	      4114	80003794	a619a913	slti	x18,x19,-1439	 x19:0x00000153 x18=0x00000000
       41165000	      4115	80003798	044bc263	blt	x23,x4,800037dc	 x23:0x0000000d  x4:0x51725000
       41175000	      4116	00000000	00000013	addi	x0,x0,0	  x0:0x00000000
       41185000	      4117	800037d8	00000013	addi	x0,x0,0	  x0:0x00000000
       41195000	      4118	800037dc	00000013	addi	x0,x0,0	  x0:0x00000000
       41205000	      4119	800037e0	00a0b833	sltu	x16,x1,x10	  x1:0x00000000 x10:0x80009f78 x16=0x00000001
       41215000	      4120	800037e4	01046633	or	x12,x8,x16	  x8:0x000096c4 x16:0x00000001 x12=0x000096c5
       41225000	      4121	800037e8	ba384793	xori	x15,x16,-1117	 x16:0x00000001 x15=0xfffffba2
       41235000	      4122	800037ec	010a8233	add	x4,x21,x16	 x21:0x314ad788 x16:0x00000001  x4=0x314ad789
       41245000	      4123	800037f0	349f6913	ori	x18,x30,841	 x30:0x00000000 x18=0x00000349
       41255000	      4124	800037f4	01996a33	or	x20,x18,x25	 x18:0x00000349 x25:0x00000000 x20=0x00000349
       41265000	      4125	800037f8	01d85913	srli	x18,x16,0x1d	 x16:0x00000001 x18=0x00000000
       41275000	      4126	800037fc	6913f3b7	lui	x7,0x6913f	  x7=0x6913f000
       41285000	      4127	80003800	016fdfb3	srl	x31,x31,x22	 x31:0x00000001 x22:0x00000000 x31=0x00000001
       41295000	      4128	80003804	f26fbc37	lui	x24,0xf26fb	 x24=0xf26fb000
       41305000	      4129	80003808	6ad06613	ori	x12,x0,1709	  x0:0x00000000 x12=0x000006ad
       41315000	      4130	8000380c	0470d263	bge	x1,x7,80003850	  x1:0x00000000  x7:0x6913f000
       41325000	      4131	80003810	020b1a63	bne	x22,x0,80003844	 x22:0x00000000  x0:0x00000000
       41335000	      4132	80003814	6276e813	ori	x16,x13,1575	 x13:0x00000000 x16=0x00000627
       41345000	      4133	80003818	01535a93	srli	x21,x6,0x15	  x6:0x00000000 x21=0x00000000
       41355000	      4134	8000381c	003a0233	add	x4,x20,x3	 x20:0x00000349  x3:0x07aafb6c  x4=0x07aafeb5
       41365000	      4135	80003820	8e828693	addi	x13,x5,-1816	  x5:0x00000001 x13=0xfffff8e9
       41375000	      4136	80003824	008264b3	or	x9,x4,x8	  x4:0x07aafeb5  x8:0x000096c4  x9=0x07aafef5
       41385000	      4137	80003828	64037937	lui	x18,0x64037	 x18=0x64037000
       41395000	      4138	8000382c	4912e993	ori	x19,x5,1169	  x5:0x00000001 x19=0x00000491
       41405000	      4139	80003830	773f7817	auipc	x16,0x773f7	 x16=0xf73fa82c
       41415000	      4140	80003834	bb37b713	sltiu	x14,x15,-1101	 x15:0xfffffba2 x14=0x00000001
       41425000	      4141	80003838	2d800c13	addi	x24,x0,728	  x0:0x00000000 x24=0x000002d8
       41435000	      4142	8000383c	00997cb3	and	x25,x18,x9	 x18:0x64037000  x9:0x07aafef5 x25=0x04027000
       41445000	      4143	80003840	00f5f663	bgeu	x11,x15,8000384c	 x11:0x80009fc4 x15:0xfffffba2
       41455000	      4144	80003844	826ce013	ori	x0,x25,-2010	 x25:0x04027000
       41465000	      4145	80003848	02a78663	beq	x15,x10,80003874	 x15:0xfffffba2 x10:0x80009f78
       41475000	      4146	8000384c	836e7f93	andi	x31,x28,-1994	 x28:0x7041e624 x31=0x7041e024
       41485000	      4147	80003850	001fdcb3	srl	x25,x31,x1	 x31:0x7041e024  x1:0x00000000 x25=0x7041e024
       41495000	      4148	80003854	010f5833	srl	x16,x30,x16	 x30:0x00000000 x16:0xf73fa82c x16=0x00000000
       41505000	      4149	80003858	08559d17	auipc	x26,0x8559	 x26=0x8855c854
       41515000	      4150	8000385c	011d54b3	srl	x9,x26,x17	 x26:0x8855c854 x17:0x000007f5  x9=0x00000442
       41525000	      4151	80003860	c8796e93	ori	x29,x18,-889	 x18:0x64037000 x29=0xfffffc87
       41535000	      4152	80003864	00171113	slli	x2,x14,0x1	 x14:0x00000001  x2=0x00000002
       41545000	      4153	80003868	018cb793	sltiu	x15,x25,24	 x25:0x7041e024 x15=0x00000000
       41555000	      4154	8000386c	419ed613	srai	x12,x29,0x19	 x29:0xfffffc87 x12=0xffffffff
       41565000	      4155	80003870	04a89263	bne	x17,x10,800038b4	 x17:0x000007f5 x10:0x80009f78
       41575000	      4156	00000000	00000013	addi	x0,x0,0	  x0:0x00000000
       41585000	      4157	800038b0	00000013	addi	x0,x0,0	  x0:0x00000000
       41595000	      4158	800038b4	789bfe93	andi	x29,x23,1929	 x23:0x0000000d x29=0x00000009
       41605000	      4159	800038b8	00000013	addi	x0,x0,0	  x0:0x00000000
       41615000	      4160	800038bc	41480c33	sub	x24,x16,x20	 x16:0x00000000 x20:0x00000349 x24=0xfffffcb7
       41625000	      4161	800038c0	00bf8133	add	x2,x31,x11	 x31:0x7041e024 x11:0x80009fc4  x2=0xf0427fe8
       41635000	      4162	800038c4	03e71863	bne	x14,x30,800038f4	 x14:0x00000001 x30:0x00000000
       41645000	      4163	00000000	00000013	addi	x0,x0,0	  x0:0x00000000
       41655000	      4164	800038f0	00000013	addi	x0,x0,0	  x0:0x00000000
       41665000	      4165	800038f4	04dac263	blt	x21,x13,80003938	 x21:0x00000000 x13:0xfffff8e9
       41675000	      4166	800038f8	0498e663	bltu	x17,x9,80003944	 x17:0x000007f5  x9:0x00000442
       41685000	      4167	800038fc	a1ccda17	auipc	x20,0xa1ccd	 x20=0x21cd08f8
       41695000	      4168	80003900	047b5063	bge	x22,x7,80003940	 x22:0x00000000  x7:0x6913f000
       41705000	      4169	80003904	01b0ac33	slt	x24,x1,x27	  x1:0x00000000 x27:0xffffffff x24=0x00000000
       41715000	      4170	80003908	cd642713	slti	x14,x8,-810	  x8:0x000096c4 x14=0x00000000
       41725000	      4171	8000390c	583bc113	xori	x2,x23,1411	 x23:0x0000000d  x2=0x0000058e
       41735000	      4172	80003910	01bb58b3	srl	x17,x22,x27	 x22:0x00000000 x27:0xffffffff x17=0x00000000
       41745000	      4173	80003914	57083b13	sltiu	x22,x16,1392	 x16:0x00000000 x22=0x00000001
       41755000	      4174	80003918	014db1b3	sltu	x3,x27,x20	 x27:0xffffffff x20:0x21cd08f8  x3=0x00000000
       41765000	      4175	8000391c	00c54fb3	xor	x31,x10,x12	 x10:0x80009f78 x12:0xffffffff x31=0x7fff6087
       41775000	      4176	80003920	0191d213	srli	x4,x3,0x19	  x3:0x00000000  x4=0x00000000
       41785000	      4177	80003924	01eb40b3	xor	x1,x22,x30	 x22:0x00000001 x30:0x00000000  x1=0x00000001
       41795000	      4178	80003928	013d76b3	and	x13,x26,x19	 x26:0x8855c854 x19:0x00000491 x13=0x00000010
       41805000	      4179	8000392c	01991733	sll	x14,x18,x25	 x18:0x64037000 x25:0x7041e024 x14=0x40370000
       41815000	      4180	80003930	007ab733	sltu	x14,x21,x7	 x21:0x00000000  x7:0x6913f000 x14=0x00000001
       41825000	      4181	80003934	419ad7b3	sra	x15,x21,x25	 x21:0x00000000 x25:0x7041e024 x15=0x00000000
       41835000	      4182	80003938	01e3c2b3	xor	x5,x7,x30	  x7:0x6913f000 x30:0x00000000  x5=0x6913f000
       41845000	      4183	8000393c	a5a0a013	slti	x0,x1,-1446	  x1:0x00000001
       41855000	      4184	80003940	409452b3	sra	x5,x8,x9	  x8:0x000096c4  x9:0x00000442  x5=0x000025b1
       41865000	      4185	80003944	02c65c63	bge	x12,x12,8000397c	 x12:0xffffffff x12:0xffffffff
       41875000	      4186	00000000	00000013	addi	x0,x0,0	  x0:0x00000000
       41885000	      4187	80003978	00000013	addi	x0,x0,0	  x0:0x00000000
       41895000	      4188	8000397c	01bc7733	and	x14,x24,x27	 x24:0x00000000 x27:0xffffffff x14=0x00000000
       41905000	      4189	80003980	96d68e97	auipc	x29,0x96d68	 x29=0x16d6b97c
       41915000	      4190	80003984	03b94663	blt	x18,x27,800039b0	 x18:0x64037000 x27:0xffffffff
       41925000	      4191	80003988	d56c2d37	lui	x26,0xd56c2	 x26=0xd56c2000
       41935000	      4192	8000398c	00438463	beq	x7,x4,80003994	  x7:0x6913f000  x4:0x00000000
       41945000	      4193	80003990	5726ab13	slti	x22,x13,1394	 x13:0x00000010 x22=0x00000001
       41955000	      4194	80003994	00065833	srl	x16,x12,x0	 x12:0xffffffff  x0:0x00000000 x16=0xffffffff
       41965000	      4195	80003998	414fdfb3	sra	x31,x31,x20	 x31:0x7fff6087 x20:0x21cd08f8 x31=0x0000007f
       41975000	      4196	8000399c	68a62113	slti	x2,x12,1674	 x12:0xffffffff  x2=0x00000001
       41985000	      4197	800039a0	0459e463	bltu	x19,x5,800039e8	 x19:0x00000491  x5:0x000025b1
       41995000	      4198	00000000	00000013	addi	x0,x0,0	  x0:0x00000000
       42005000	      4199	800039e4	00000013	addi	x0,x0,0	  x0:0x00000000
       42015000	      4200	800039e8	41c88933	sub	x18,x17,x28	 x17:0x00000000 x28:0x7041e624 x18=0x8fbe19dc
       42025000	      4201	800039ec	dcdd0d93	addi	x27,x26,-563	 x26:0xd56c2000 x27=0xd56c1dcd
       42035000	      4202	800039f0	032d1863	bne	x26,x18,80003a20	 x26:0xd56c2000 x18:0x8fbe19dc
       42045000	      4203	00000000	00000013	addi	x0,x0,0	  x0:0x00000000
       42055000	      4204	80003a1c	00000013	addi	x0,x0,0	  x0:0x00000000
       42065000	      4205	80003a20	01bb6f33	or	x30,x22,x27	 x22:0x00000001 x27:0xd56c1dcd x30=0xd56c1dcd
       42075000	      4206	80003a24	407256b3	sra	x13,x4,x7	  x4:0x00000000  x7:0x6913f000 x13=0x00000000
       42085000	      4207	80003a28	4d593893	sltiu	x17,x18,1237	 x18:0x8fbe19dc x17=0x00000000
       42095000	      4208	80003a2c	01dfa633	slt	x12,x31,x29	 x31:0x0000007f x29:0x16d6b97c x12=0x00000001
       42105000	      4209	80003a30	00be5663	bge	x28,x11,80003a3c	 x28:0x7041e624 x11:0x80009fc4
       42115000	      4210	00000000	00000013	addi	x0,x0,0	  x0:0x00000000
       42125000	      4211	80003a38	00000013	addi	x0,x0,0	  x0:0x00000000
       42135000	      4212	80003a3c	54b90993	addi	x19,x18,1355	 x18:0x8fbe19dc x19=0x8fbe1f27
       42145000	      4213	80003a40	00ecfcb3	and	x25,x25,x14	 x25:0x7041e024 x14:0x00000000 x25=0x00000000
       42155000	      4214	80003a44	02dde263	bltu	x27,x13,80003a68	 x27:0xd56c1dcd x13:0x00000000
       42165000	      4215	80003a48	90ac4413	xori	x8,x24,-1782	 x24:0x00000000  x8=0xfffff90a
       42175000	      4216	80003a4c	408d5713	srai	x14,x26,0x8	 x26:0xd56c2000 x14=0xffd56c20
       42185000	      4217	80003a50	401e0cb3	sub	x25,x28,x1	 x28:0x7041e624  x1:0x00000001 x25=0x7041e623
       42195000	      4218	80003a54	eb0c1d17	auipc	x26,0xeb0c1	 x26=0x6b0c4a50
       42205000	      4219	80003a58	0045d4b3	srl	x9,x11,x4	 x11:0x80009fc4  x4:0x00000000  x9=0x80009fc4
       42215000	      4220	80003a5c	00513fb3	sltu	x31,x2,x5	  x2:0x00000001  x5:0x000025b1 x31=0x00000001
       42225000	      4221	80003a60	05abf863	bgeu	x23,x26,80003ab0	 x23:0x0000000d x26:0x6b0c4a50
       42235000	      4222	80003a64	01cb9713	slli	x14,x23,0x1c	 x23:0x0000000d x14=0xd0000000
       42245000	      4223	80003a68	41880eb3	sub	x29,x16,x24	 x16:0xffffffff x24:0x00000000 x29=0xffffffff
       42255000	      4224	80003a6c	00e99733	sll	x14,x19,x14	 x19:0x8fbe1f27 x14:0xd0000000 x14=0x8fbe1f27
       42265000	      4225	80003a70	f5166393	ori	x7,x12,-175	 x12:0x00000001  x7=0xffffff51
       42275000	      4226	80003a74	03657a63	bgeu	x10,x22,80003aa8	 x10:0x80009f78 x22:0x00000001
       42285000	      4227	00000000	00000013	addi	x0,x0,0	  x0:0x00000000
       42295000	      4228	80003aa4	00000013	addi	x0,x0,0	  x0:0x00000000
       42305000	      4229	80003aa8	9fe54b13	xori	x22,x10,-1538	 x10:0x80009f78 x22=0x7fff6686
       42315000	      4230	80003aac	00574b33	xor	x22,x14,x5	 x14:0x8fbe1f27  x5:0x000025b1 x22=0x8fbe3a96
       42325000	      4231	80003ab0	095bb993	sltiu	x19,x23,149	 x23:0x0000000d x19=0x00000001
       42335000	      4232	80003ab4	e8dc4337	lui	x6,0xe8dc4	  x6=0xe8dc4000
       42345000	      4233	80003ab8	00de2fb3	slt	x31,x28,x13	 x28:0x7041e624 x13:0x00000000 x31=0x00000000
       42355000	      4234	80003abc	500a8913	addi	x18,x21,1280	 x21:0x00000000 x18=0x00000500
       42365000	      4235	80003ac0	40ac5133	sra	x2,x24,x10	 x24:0x00000000 x10:0x80009f78  x2=0x00000000
       42375000	      4236	80003ac4	046b8263	beq	x23,x6,80003b08	 x23:0x0000000d  x6:0xe8dc4000
       42385000	      4237	80003ac8	04471263	bne	x14,x4,80003b0c	 x14:0x8fbe1f27  x4:0x00000000
       42395000	      4238	00000000	00000013	addi	x0,x0,0	  x0:0x00000000
       42405000	      4239	80003b08	00000013	addi	x0,x0,0	  x0:0x00000000
       42415000	      4240	80003b0c	01ffc7b3	xor	x15,x31,x31	 x31:0x00000000 x31:0x00000000 x15=0x00000000
       42425000	      4241	80003b10	00000013	addi	x0,x0,0	  x0:0x00000000
       42435000	      4242	80003b14	02c0f863	bgeu	x1,x12,80003b44	  x1:0x00000001 x12:0x00000001
       42445000	      4243	00000000	00000013	addi	x0,x0,0	  x0:0x00000000
       42455000	      4244	80003b40	00000013	addi	x0,x0,0	  x0:0x00000000
       42465000	      4245	80003b44	e35ae013	ori	x0,x21,-459	 x21:0x00000000
       42475000	      4246	80003b48	005027b3	slt	x15,x0,x5	  x0:0x00000000  x5:0x000025b1 x15=0x00000001
       42485000	      4247	80003b4c	00e66463	bltu	x12,x14,80003b54	 x12:0x00000001 x14:0x8fbe1f27
       42495000	      4248	00000000	00000013	addi	x0,x0,0	  x0:0x00000000
       42505000	      4249	80003b50	00000013	addi	x0,x0,0	  x0:0x00000000
       42515000	      4250	80003b54	4004da33	sra	x20,x9,x0	  x9:0x80009fc4  x0:0x00000000 x20=0x80009fc4
       42525000	      4251	80003b58	013a9d33	sll	x26,x21,x19	 x21:0x00000000 x19:0x00000001 x26=0x00000000
       42535000	      4252	80003b5c	41930cb3	sub	x25,x6,x25	  x6:0xe8dc4000 x25:0x7041e623 x25=0x789a59dd
       42545000	      4253	80003b60	02618663	beq	x3,x6,80003b8c	  x3:0x00000000  x6:0xe8dc4000
       42555000	      4254	80003b64	019f0833	add	x16,x30,x25	 x30:0xd56c1dcd x25:0x789a59dd x16=0x4e0677aa
       42565000	      4255	80003b68	017137b3	sltu	x15,x2,x23	  x2:0x00000000 x23:0x0000000d x15=0x00000001
       42575000	      4256	80003b6c	01559db3	sll	x27,x11,x21	 x11:0x80009fc4 x21:0x00000000 x27=0x80009fc4
       42585000	      4257	80003b70	00000013	addi	x0,x0,0	  x0:0x00000000
       42595000	      4258	80003b74	f1843837	lui	x16,0xf1843	 x16=0xf1843000
       42605000	      4259	80003b78	01c45a63	bge	x8,x28,80003b8c	  x8:0xfffff90a x28:0x7041e624
       42615000	      4260	80003b7c	0002b4b3	sltu	x9,x5,x0	  x5:0x000025b1  x0:0x00000000  x9=0x00000000
       42625000	      4261	80003b80	4073df33	sra	x30,x7,x7	  x7:0xffffff51  x7:0xffffff51 x30=0xffffffff
       42635000	      4262	80003b84	00044463	blt	x8,x0,80003b8c	  x8:0xfffff90a  x0:0x00000000
       42645000	      4263	00000000	00000013	addi	x0,x0,0	  x0:0x00000000
       42655000	      4264	80003b88	00000013	addi	x0,x0,0	  x0:0x00000000
       42665000	      4265	80003b8c	02168a63	beq	x13,x1,80003bc0	 x13:0x00000000  x1:0x00000001
       42675000	      4266	80003b90	00ff5c33	srl	x24,x30,x15	 x30:0xffffffff x15:0x00000001 x24=0x7fffffff
       42685000	      4267	80003b94	020c0c63	beq	x24,x0,80003bcc	 x24:0x7fffffff  x0:0x00000000
       42695000	      4268	80003b98	015c57b3	srl	x15,x24,x21	 x24:0x7fffffff x21:0x00000000 x15=0x7fffffff
       42705000	      4269	80003b9c	017a3a33	sltu	x20,x20,x23	 x20:0x80009fc4 x23:0x0000000d x20=0x00000000
       42715000	      4270	80003ba0	00000013	addi	x0,x0,0	  x0:0x00000000
       42725000	      4271	80003ba4	401edd13	srai	x26,x29,0x1	 x29:0xffffffff x26=0xffffffff
       42735000	      4272	80003ba8	017416b3	sll	x13,x8,x23	  x8:0xfffff90a x23:0x0000000d x13=0xff214000
       42745000	      4273	80003bac	0061c3b3	xor	x7,x3,x6	  x3:0x00000000  x6:0xe8dc4000  x7=0xe8dc4000
       42755000	      4274	80003bb0	01f1c863	blt	x3,x31,80003bc0	  x3:0x00000000 x31:0x00000000
       42765000	      4275	80003bb4	c83e0493	addi	x9,x28,-893	 x28:0x7041e624  x9=0x7041e2a7
       42775000	      4276	80003bb8	00806fb3	or	x31,x0,x8	  x0:0x00000000  x8:0xfffff90a x31=0xfffff90a
       42785000	      4277	80003bbc	0142e7b3	or	x15,x5,x20	  x5:0x000025b1 x20:0x00000000 x15=0x000025b1
       42795000	      4278	80003bc0	02a96663	bltu	x18,x10,80003bec	 x18:0x00000500 x10:0x80009f78
       42805000	      4279	00000000	00000013	addi	x0,x0,0	  x0:0x00000000
       42815000	      4280	80003be8	00000013	addi	x0,x0,0	  x0:0x00000000
       42825000	      4281	80003bec	ecc4f993	andi	x19,x9,-308	  x9:0x7041e2a7 x19=0x7041e284
       42835000	      4282	80003bf0	00000013	addi	x0,x0,0	  x0:0x00000000
       42845000	      4283	80003bf4	04e6f263	bgeu	x13,x14,80003c38	 x13:0xff214000 x14:0x8fbe1f27
       42855000	      4284	00000000	00000013	addi	x0,x0,0	  x0:0x00000000
       42865000	      4285	80003c34	00000013	addi	x0,x0,0	  x0:0x00000000
       42875000	      4286	80003c38	00dc9463	bne	x25,x13,80003c40	 x25:0x789a59dd x13:0xff214000
       42885000	      4287	00000000	00000013	addi	x0,x0,0	  x0:0x00000000
       42895000	      4288	80003c3c	00000013	addi	x0,x0,0	  x0:0x00000000
       42905000	      4289	80003c40	04a26263	bltu	x4,x10,80003c84	  x4:0x00000000 x10:0x80009f78
       42915000	      4290	00000000	00000013	addi	x0,x0,0	  x0:0x00000000
       42925000	      4291	80003c80	00000013	addi	x0,x0,0	  x0:0x00000000
       42935000	      4292	80003c84	00a8af33	slt	x30,x17,x10	 x17:0x00000000 x10:0x80009f78 x30=0x00000000
       42945000	      4293	80003c88	012352b3	srl	x5,x6,x18	  x6:0xe8dc4000 x18:0x00000500  x5=0xe8dc4000
       42955000	      4294	80003c8c	e0c6aa93	slti	x21,x13,-500	 x13:0xff214000 x21=0x00000001
       42965000	      4295	80003c90	6c1c7797	auipc	x15,0x6c1c7	 x15=0xec1cac8c
       42975000	      4296	80003c94	41610b33	sub	x22,x2,x22	  x2:0x00000000 x22:0x8fbe3a96 x22=0x7041c56a
       42985000	      4297	80003c98	b5df2713	slti	x14,x30,-1187	 x30:0x00000000 x14=0x00000000
       42995000	      4298	80003c9c	03cf9c63	bne	x31,x28,80003cd4	 x31:0xfffff90a x28:0x7041e624
       43005000	      4299	00000000	00000013	addi	x0,x0,0	  x0:0x00000000
       43015000	      4300	80003cd0	00000013	addi	x0,x0,0	  x0:0x00000000
       43025000	      4301	80003cd4	001c9293	slli	x5,x25,0x1	 x25:0x789a59dd  x5=0xf134b3ba
       43035000	      4302	80003cd8	41075313	srai	x6,x14,0x10	 x14:0x00000000  x6=0x00000000
       43045000	      4303	80003cdc	008d9463	bne	x27,x8,80003ce4	 x27:0x80009fc4  x8:0xfffff90a
       43055000	      4304	00000000	00000013	addi	x0,x0,0	  x0:0x00000000
       43065000	      4305	80003ce0	00000013	addi	x0,x0,0	  x0:0x00000000
       43075000	      4306	80003ce4	01d5de63	bge	x11,x29,80003d00	 x11:0x80009fc4 x29:0xffffffff
       43085000	      4307	80003ce8	009cd933	srl	x18,x25,x9	 x25:0x789a59dd  x9:0x7041e2a7 x18=0x00f134b3
       43095000	      4308	80003cec	b0b13113	sltiu	x2,x2,-1269	  x2:0x00000000  x2=0x00000001
       43105000	      4309	80003cf0	ef1c6213	ori	x4,x24,-271	 x24:0x7fffffff  x4=0xffffffff
       43115000	      4310	80003cf4	0110d0b3	srl	x1,x1,x17	  x1:0x00000001 x17:0x00000000  x1=0x00000001
       43125000	      4311	80003cf8	4157df33	sra	x30,x15,x21	 x15:0xec1cac8c x21:0x00000001 x30=0xf60e5646
       43135000	      4312	80003cfc	bce17713	andi	x14,x2,-1074	  x2:0x00000001 x14=0x00000000
       43145000	      4313	80003d00	010f4fb3	xor	x31,x30,x16	 x30:0xf60e5646 x16:0xf1843000 x31=0x078a6646
       43155000	      4314	80003d04	60fb7993	andi	x19,x22,1551	 x22:0x7041c56a x19=0x0000040a
       43165000	      4315	80003d08	00452a03	lw	x20,4(x10)	 x10:0x80009f78 x20=0x80000138 PA:0x80009f7c
       43175000	      4316	80003d0c	00000013	addi	x0,x0,0	  x0:0x00000000
       43185000	      4317	80003d10	00c50513	addi	x10,x10,12	 x10:0x80009f78 x10=0x80009f84
       43195000	      4318	80003d14	667bbc93	sltiu	x25,x23,1639	 x23:0x0000000d x25=0x00000001
       43205000	      4319	80003d18	01a31293	slli	x5,x6,0x1a	  x6:0x00000000  x5=0x00000000
       43215000	      4320	80003d1c	0a731a97	auipc	x21,0xa731	 x21=0x8a734d18
       43225000	      4321	80003d20	00abf833	and	x16,x23,x10	 x23:0x0000000d x10:0x80009f84 x16=0x00000004
       43235000	      4322	80003d24	5e046b13	ori	x22,x8,1504	  x8:0xfffff90a x22=0xfffffdea
       43245000	      4323	80003d28	013570b3	and	x1,x10,x19	 x10:0x80009f84 x19:0x0000040a  x1=0x00000400
       43255000	      4324	80003d2c	00b832b3	sltu	x5,x16,x11	 x16:0x00000004 x11:0x80009fc4  x5=0x00000001
       43265000	      4325	80003d30	001a0f93	addi	x31,x20,1	 x20:0x80000138 x31=0x80000139
       43275000	      4326	80003d34	000f8fe7	jalr	x31,x31,0	 x31:0x80000139 x31=0x80003d34
       43285000	      4327	00000000	00000013	addi	x0,x0,0	  x0:0x00000000
       43295000	      4328	80000138	00000013	addi	x0,x0,0	  x0:0x00000000
       43305000	      4329	8000013c	00001117	auipc	x2,0x1	  x2=0x80001138
       43315000	      4330	80000140	ba010113	addi	x2,x2,-1120	  x2:0x80001138  x2=0x80000cd8
       43325000	      4331	80000144	14590293	addi	x5,x18,325	 x18:0x00f134b3  x5=0x00f135f8
       43335000	      4332	80000148	404f5493	srai	x9,x30,0x4	 x30:0xf60e5646  x9=0xff60e564
       43345000	      4333	8000014c	010c1db3	sll	x27,x24,x16	 x24:0x7fffffff x16:0x00000004 x27=0xfffffff0
       43355000	      4334	80000150	1ce17013	andi	x0,x2,462	  x2:0x80000cd8
       43365000	      4335	80000154	00082433	slt	x8,x16,x0	 x16:0x00000004  x0:0x00000000  x8=0x00000000
       43375000	      4336	80000158	00000013	addi	x0,x0,0	  x0:0x00000000
       43385000	      4337	8000015c	ff010113	addi	x2,x2,-16	  x2:0x80000cd8  x2=0x80000cc8
       43395000	      4338	80000160	6614c413	xori	x8,x9,1633	  x9:0xff60e564  x8=0xff60e305
       43405000	      4339	80000164	01c36f33	or	x30,x6,x28	  x6:0x00000000 x28:0x7041e624 x30=0x7041e624
       43415000	      4340	80000168	009ba4b3	slt	x9,x23,x9	 x23:0x0000000d  x9:0xff60e564  x9=0x00000000
       43425000	      4341	8000016c	00c2a433	slt	x8,x5,x12	  x5:0x00f135f8 x12:0x00000001  x8=0x00000000
       43435000	      4342	80000170	01010a67	jalr	x20,x2,16	  x2:0x80000cc8 x20=0x80000170
       43445000	      4343	00000000	00000013	addi	x0,x0,0	  x0:0x00000000
       43455000	      4344	80000cd8	00000013	addi	x0,x0,0	  x0:0x00000000
       43465000	      4345	80000cdc	fe450513	addi	x10,x10,-28	 x10:0x80009f84 x10=0x80009f68
       43475000	      4346	80000ce0	4588ef13	ori	x30,x17,1112	 x17:0x00000000 x30=0x00000458
       43485000	      4347	80000ce4	01452223	sw	x20,4(x10)	 x10:0x80009f68 x20:0x80000170 PA:0x80009f6c
       43495000	      4348	80000ce8	00672633	slt	x12,x14,x6	 x14:0x00000000  x6:0x00000000 x12=0x00000000
       43505000	      4349	80000cec	00000013	addi	x0,x0,0	  x0:0x00000000
       43515000	      4350	80000cf0	017a98b3	sll	x17,x21,x23	 x21:0x8a734d18 x23:0x0000000d x17=0x69a30000
       43525000	      4351	80000cf4	00000013	addi	x0,x0,0	  x0:0x00000000
       43535000	      4352	80000cf8	0113c1b3	xor	x3,x7,x17	  x7:0xe8dc4000 x17:0x69a30000  x3=0x817f4000
       43545000	      4353	80000cfc	01fdd2b3	srl	x5,x27,x31	 x27:0xfffffff0 x31:0x80003d34  x5=0x00000fff
       43555000	      4354	80000d00	0146d933	srl	x18,x13,x20	 x13:0xff214000 x20:0x80000170 x18=0x0000ff21
       43565000	      4355	80000d04	00518d33	add	x26,x3,x5	  x3:0x817f4000  x5:0x00000fff x26=0x817f4fff
       43575000	      4356	80000d08	32c04a6f	jal	x20,80000d08	 x20=0x80000d08
       43585000	      4357	00000000	00000013	addi	x0,x0,0	  x0:0x00000000
       43595000	      4358	80005030	00000013	addi	x0,x0,0	  x0:0x00000000
       43605000	      4359	80005034	011a6db3	or	x27,x20,x17	 x20:0x80000d08 x17:0x69a30000 x27=0xe9a30d08
       43615000	      4360	80005038	f9e23013	sltiu	x0,x4,-98	  x4:0xffffffff
       43625000	      4361	8000503c	fcc50513	addi	x10,x10,-52	 x10:0x80009f68 x10=0x80009f34
       43635000	      4362	80005040	409d83b3	sub	x7,x27,x9	 x27:0xe9a30d08  x9:0x00000000  x7=0xe9a30d08
       43645000	      4363	80005044	002dd893	srli	x17,x27,0x2	 x27:0xe9a30d08 x17=0x3a68c342
       43655000	      4364	80005048	7ae74c13	xori	x24,x14,1966	 x14:0x00000000 x24=0x000007ae
       43665000	      4365	8000504c	01452223	sw	x20,4(x10)	 x10:0x80009f34 x20:0x80000d08 PA:0x80009f38
       43675000	      4366	80005050	00597933	and	x18,x18,x5	 x18:0x0000ff21  x5:0x00000fff x18=0x00000f21
       43685000	      4367	80005054	01abf3b3	and	x7,x23,x26	 x23:0x0000000d x26:0x817f4fff  x7=0x0000000d
       43695000	      4368	80005058	019c6833	or	x16,x24,x25	 x24:0x000007ae x25:0x00000001 x16=0x000007af
       43705000	      4369	8000505c	3d332993	slti	x19,x6,979	  x6:0x00000000 x19=0x00000001
       43715000	      4370	80005060	69d78193	addi	x3,x15,1693	 x15:0xec1cac8c  x3=0xec1cb329
       43725000	      4371	80005064	00b09f93	slli	x31,x1,0xb	  x1:0x00000400 x31=0x00200000
       43735000	      4372	80005068	ba133493	sltiu	x9,x6,-1119	  x6:0x00000000  x9=0x00000001
       43745000	      4373	8000506c	01f5e8b3	or	x17,x11,x31	 x11:0x80009fc4 x31:0x00200000 x17=0x80209fc4
       43755000	      4374	80005070	00545e93	srli	x29,x8,0x5	  x8:0x00000000 x29=0x00000000
       43765000	      4375	80005074	01c39d93	slli	x27,x7,0x1c	  x7:0x0000000d x27=0xd0000000
       43775000	      4376	80005078	ffffd817	auipc	x16,0xffffd	 x16=0x80002074
       43785000	      4377	8000507c	f4080813	addi	x16,x16,-192	 x16:0x80002074 x16=0x80001fb4
       43795000	      4378	80005080	003da0b3	slt	x1,x27,x3	 x27:0xd0000000  x3:0xec1cb329  x1=0x00000001
       43805000	      4379	80005084	0db80813	addi	x16,x16,219	 x16:0x80001fb4 x16=0x8000208f
       43815000	      4380	80005088	bdd70113	addi	x2,x14,-1059	 x14:0x00000000  x2=0xfffffbdd
       43825000	      4381	8000508c	40055693	srai	x13,x10,0x0	 x10:0x80009f34 x13=0x80009f34
       43835000	      4382	80005090	018de8b3	or	x17,x27,x24	 x27:0xd0000000 x24:0x000007ae x17=0xd00007ae
       43845000	      4383	80005094	41b6dc33	sra	x24,x13,x27	 x13:0x80009f34 x27:0xd0000000 x24=0x80009f34
       43855000	      4384	80005098	f2680a67	jalr	x20,x16,-218	 x16:0x8000208f x20=0x80005098
       43865000	      4385	00000000	00000013	addi	x0,x0,0	  x0:0x00000000
       43875000	      4386	80001fb4	00000013	addi	x0,x0,0	  x0:0x00000000
       43885000	      4387	80001fb8	000b3733	sltu	x14,x22,x0	 x22:0xfffffdea  x0:0x00000000 x14=0x00000000
       43895000	      4388	80001fbc	00ecd463	bge	x25,x14,80001fc4	 x25:0x00000001 x14:0x00000000
       43905000	      4389	00000000	00000013	addi	x0,x0,0	  x0:0x00000000
       43915000	      4390	80001fc0	00000013	addi	x0,x0,0	  x0:0x00000000
       43925000	      4391	80001fc4	fc450513	addi	x10,x10,-60	 x10:0x80009f34 x10=0x80009ef8
       43935000	      4392	80001fc8	018cfeb3	and	x29,x25,x24	 x25:0x00000001 x24:0x80009f34 x29=0x00000000
       43945000	      4393	80001fcc	00da5493	srli	x9,x20,0xd	 x20:0x80005098  x9=0x00040002
       43955000	      4394	80001fd0	01452223	sw	x20,4(x10)	 x10:0x80009ef8 x20:0x80005098 PA:0x80009efc
       43965000	      4395	80001fd4	013b3f33	sltu	x30,x22,x19	 x22:0xfffffdea x19:0x00000001 x30=0x00000000
       43975000	      4396	80001fd8	0b43f0b7	lui	x1,0xb43f	  x1=0x0b43f000
       43985000	      4397	80001fdc	01ae0ab3	add	x21,x28,x26	 x28:0x7041e624 x26:0x817f4fff x21=0xf1c13623
       43995000	      4398	80001fe0	0058eab3	or	x21,x17,x5	 x17:0xd00007ae  x5:0x00000fff x21=0xd0000fff
       44005000	      4399	80001fe4	005e62b3	or	x5,x28,x5	 x28:0x7041e624  x5:0x00000fff  x5=0x7041efff
       44015000	      4400	80001fe8	f2a3b293	sltiu	x5,x7,-214	  x7:0x0000000d  x5=0x00000001
       44025000	      4401	80001fec	014bafb3	slt	x31,x23,x20	 x23:0x0000000d x20:0x80005098 x31=0x00000000
       44035000	      4402	80001ff0	e11b8213	addi	x4,x23,-495	 x23:0x0000000d  x4=0xfffffe1e
       44045000	      4403	80001ff4	1733cb13	xori	x22,x7,371	  x7:0x0000000d x22=0x0000017e
       44055000	      4404	80001ff8	247e0a13	addi	x20,x28,583	 x28:0x7041e624 x20=0x7041e86b
       44065000	      4405	80001ffc	0161f863	bgeu	x3,x22,8000200c	  x3:0xec1cb329 x22:0x0000017e
       44075000	      4406	00000000	00000013	addi	x0,x0,0	  x0:0x00000000
       44085000	      4407	80002008	00000013	addi	x0,x0,0	  x0:0x00000000
       44095000	      4408	8000200c	d376f437	lui	x8,0xd376f	  x8=0xd376f000
       44105000	      4409	80002010	0ea8f197	auipc	x3,0xea8f	  x3=0x8ea9100c
       44115000	      4410	80002014	f05dcd13	xori	x26,x27,-251	 x27:0xd0000000 x26=0x2fffff05
       44125000	      4411	80002018	01cd1093	slli	x1,x26,0x1c	 x26:0x2fffff05  x1=0x50000000
       44135000	      4412	8000201c	303c7c37	lui	x24,0x303c7	 x24=0x303c7000
       44145000	      4413	80002020	00452a03	lw	x20,4(x10)	 x10:0x80009ef8 x20=0x80005098 PA:0x80009efc
       44155000	      4414	80002024	016552b3	srl	x5,x10,x22	 x10:0x80009ef8 x22:0x0000017e  x5=0x00000002
       44165000	      4415	80002028	01b54133	xor	x2,x10,x27	 x10:0x80009ef8 x27:0xd0000000  x2=0x50009ef8
       44175000	      4416	8000202c	03c50513	addi	x10,x10,60	 x10:0x80009ef8 x10=0x80009f34
       44185000	      4417	80002030	b4fbd297	auipc	x5,0xb4fbd	  x5=0x34fbf02c
       44195000	      4418	80002034	000a0f93	addi	x31,x20,0	 x20:0x80005098 x31=0x80005098
       44205000	      4419	80002038	000f8fe7	jalr	x31,x31,0	 x31:0x80005098 x31=0x80002038
       44215000	      4420	00000000	00000013	addi	x0,x0,0	  x0:0x00000000
       44225000	      4421	80005098	00000013	addi	x0,x0,0	  x0:0x00000000
       44235000	      4422	8000509c	def4c993	xori	x19,x9,-529	  x9:0x00040002 x19=0xfffbfded
       44245000	      4423	800050a0	41ea08b3	sub	x17,x20,x30	 x20:0x80005098 x30:0x00000000 x17=0x80005098
       44255000	      4424	800050a4	fba2fb13	andi	x22,x5,-70	  x5:0x34fbf02c x22=0x34fbf028
       44265000	      4425	800050a8	419b5113	srai	x2,x22,0x19	 x22:0x34fbf028  x2=0x0000001a
       44275000	      4426	800050ac	70b87293	andi	x5,x16,1803	 x16:0x8000208f  x5=0x0000000b
       44285000	      4427	800050b0	00bd5193	srli	x3,x26,0xb	 x26:0x2fffff05  x3=0x0005ffff
       44295000	      4428	800050b4	416cdd13	srai	x26,x25,0x16	 x25:0x00000001 x26=0x00000000
       44305000	      4429	800050b8	01a10ab3	add	x21,x2,x26	  x2:0x0000001a x26:0x00000000 x21=0x0000001a
       44315000	      4430	800050bc	01461c93	slli	x25,x12,0x14	 x12:0x00000000 x25=0x00000000
       44325000	      4431	800050c0	c79fea6f	jal	x20,800050c0	 x20=0x800050c0
       44335000	      4432	00000000	00000013	addi	x0,x0,0	  x0:0x00000000
       44345000	      4433	80003d34	00000013	addi	x0,x0,0	  x0:0x00000000
       44355000	      4434	80003d38	ff450513	addi	x10,x10,-12	 x10:0x80009f34 x10=0x80009f28
       44365000	      4435	80003d3c	0c243393	sltiu	x7,x8,194	  x8:0xd376f000  x7=0x00000000
       44375000	      4436	80003d40	41f1d033	sra	x0,x3,x31	  x3:0x0005ffff x31:0x80002038
       44385000	      4437	80003d44	ed162d13	slti	x26,x12,-303	 x12:0x00000000 x26=0x00000000
       44395000	      4438	80003d48	00db5d13	srli	x26,x22,0xd	 x22:0x34fbf028 x26=0x0001a7df
       44405000	      4439	80003d4c	01452223	sw	x20,4(x10)	 x10:0x80009f28 x20:0x800050c0 PA:0x80009f2c
       44415000	      4440	80003d50	4026d693	srai	x13,x13,0x2	 x13:0x80009f34 x13=0xe00027cd
       44425000	      4441	80003d54	015bb333	sltu	x6,x23,x21	 x23:0x0000000d x21:0x0000001a  x6=0x00000001
       44435000	      4442	80003d58	00d61d13	slli	x26,x12,0xd	 x12:0x00000000 x26=0x00000000
       44445000	      4443	80003d5c	01a49113	slli	x2,x9,0x1a	  x9:0x00040002  x2=0x08000000
       44455000	      4444	80003d60	00005117	auipc	x2,0x5	  x2=0x80008d5c
       44465000	      4445	80003d64	a2510113	addi	x2,x2,-1499	  x2:0x80008d5c  x2=0x80008781
       44475000	      4446	80003d68	b4d11e83	lh	x29,-1203(x2)	  x2:0x80008781 x29=0xffffc2a2 PA:0x800082ce
       44485000	      4447	80003d6c	018aeb33	or	x22,x21,x24	 x21:0x0000001a x24:0x303c7000 x22=0x303c701a
       44495000	      4448	80003d70	0147f6b3	and	x13,x15,x20	 x15:0xec1cac8c x20:0x800050c0 x13=0x80000080
       44505000	      4449	80003d74	b766e717	auipc	x14,0xb766e	 x14=0x37671d70
       44515000	      4450	80003d78	00502433	slt	x8,x0,x5	  x0:0x00000000  x5:0x0000000b  x8=0x00000001
       44525000	      4451	80003d7c	76f18493	addi	x9,x3,1903	  x3:0x0005ffff  x9=0x0006076e
       44535000	      4452	80003d80	b8312a83	lw	x21,-1149(x2)	  x2:0x80008781 x21=0xc0fb95ba PA:0x80008304
       44545000	      4453	00000000	00000013	addi	x0,x0,0	  x0:0x00000000
       44555000	      4454	80003d84	d1511203	lh	x4,-747(x2)	  x2:0x80008781  x4=0xffffc8d4 PA:0x80008496
       44565000	      4455	80003d88	015ed833	srl	x16,x29,x21	 x29:0xffffc2a2 x21:0xc0fb95ba x16=0x0000003f
       44575000	      4456	80003d8c	4132db33	sra	x22,x5,x19	  x5:0x0000000b x19:0xfffbfded x22=0x00000000
       44585000	      4457	80003d90	bb2f3493	sltiu	x9,x30,-1102	 x30:0x00000000  x9=0x00000001
       44595000	      4458	80003d94	007309b3	add	x19,x6,x7	  x6:0x00000001  x7:0x00000000 x19=0x00000001
       44605000	      4459	80003d98	00066e33	or	x28,x12,x0	 x12:0x00000000  x0:0x00000000 x28=0x00000000
       44615000	      4460	80003d9c	0144be33	sltu	x28,x9,x20	  x9:0x00000001 x20:0x800050c0 x28=0x00000001
       44625000	      4461	80003da0	41860333	sub	x6,x12,x24	 x12:0x00000000 x24:0x303c7000  x6=0xcfc39000
       44635000	      4462	80003da4	904107a3	sb	x4,-1777(x2)	  x2:0x80008781  x4:0xffffc8d4 PA:0x80008090
       44645000	      4463	80003da8	af810683	lb	x13,-1288(x2)	  x2:0x80008781 x13=0xffffff88 PA:0x80008279
       44655000	      4464	80003dac	02014083	lbu	x1,32(x2)	  x2:0x80008781  x1=0x00000000 PA:0x800087a1
       44665000	      4465	80003db0	bd514f03	lbu	x30,-1067(x2)	  x2:0x80008781 x30=0x00000004 PA:0x80008356
       44675000	      4466	80003db4	9c710d83	lb	x27,-1593(x2)	  x2:0x80008781 x27=0x0000000d PA:0x80008148
       44685000	      4467	80003db8	00c89733	sll	x14,x17,x12	 x17:0x80005098 x12:0x00000000 x14=0x80005098
       44695000	      4468	80003dbc	00000013	addi	x0,x0,0	  x0:0x00000000
       44705000	      4469	80003dc0	c6410a83	lb	x21,-924(x2)	  x2:0x80008781 x21=0x00000046 PA:0x800083e5
       44715000	      4470	80003dc4	3ee73ab7	lui	x21,0x3ee73	 x21=0x3ee73000
       44725000	      4471	80003dc8	be433a13	sltiu	x20,x6,-1052	  x6:0xcfc39000 x20=0x00000001
       44735000	      4472	80003dcc	98111283	lh	x5,-1663(x2)	  x2:0x80008781  x5=0xfffffcad PA:0x80008102
       44745000	      4473	80003dd0	ef814f03	lbu	x30,-264(x2)	  x2:0x80008781 x30=0x00000011 PA:0x80008679
       44755000	      4474	80003dd4	ee312fa3	sw	x3,-257(x2)	  x2:0x80008781  x3:0x0005ffff PA:0x80008680
       44765000	      4475	80003dd8	dc614e03	lbu	x28,-570(x2)	  x2:0x80008781 x28=0x00000079 PA:0x80008547
       44775000	      4476	80003ddc	0042f8b3	and	x17,x5,x4	  x5:0xfffffcad  x4:0xffffc8d4 x17=0xffffc884
       44785000	      4477	80003de0	01cabd33	sltu	x26,x21,x28	 x21:0x3ee73000 x28:0x00000079 x26=0x00000000
       44795000	      4478	80003de4	1feb2693	slti	x13,x22,510	 x22:0x00000000 x13=0x00000001
       44805000	      4479	80003de8	92c105a3	sb	x12,-1749(x2)	  x2:0x80008781 x12:0x00000000 PA:0x800080ac
       44815000	      4480	80003dec	8e511203	lh	x4,-1819(x2)	  x2:0x80008781  x4=0x000045e3 PA:0x80008066
       44825000	      4481	80003df0	d3714203	lbu	x4,-713(x2)	  x2:0x80008781  x4=0x00000049 PA:0x800084b8
       44835000	      4482	80003df4	00004117	auipc	x2,0x4	  x2=0x80007df0
       44845000	      4483	80003df8	33910113	addi	x2,x2,825	  x2:0x80007df0  x2=0x80008129
       44855000	      4484	80003dfc	7dd31917	auipc	x18,0x7dd31	 x18=0xfdd34df8
       44865000	      4485	80003e00	416d0e33	sub	x28,x26,x22	 x26:0x00000000 x22:0x00000000 x28=0x00000000
       44875000	      4486	80003e04	03d15803	lhu	x16,61(x2)	  x2:0x80008129 x16=0x00000d52 PA:0x80008166
       44885000	      4487	80003e08	cd696193	ori	x3,x18,-810	 x18:0xfdd34df8  x3=0xfffffdfe
       44895000	      4488	80003e0c	0cb15883	lhu	x17,203(x2)	  x2:0x80008129 x17=0x0000a165 PA:0x800081f4
       44905000	      4489	80003e10	fc712603	lw	x12,-57(x2)	  x2:0x80008129 x12=0x7778af61 PA:0x800080f0
       44915000	      4490	80003e14	0bb10223	sb	x27,164(x2)	  x2:0x80008129 x27:0x0000000d PA:0x800081cd
       44925000	      4491	80003e18	0f810d03	lb	x26,248(x2)	  x2:0x80008129 x26=0xffffffd2 PA:0x80008221
       44935000	      4492	80003e1c	03710923	sb	x23,50(x2)	  x2:0x80008129 x23:0x0000000d PA:0x8000815b
       44945000	      4493	80003e20	9751d037	lui	x0,0x9751d	
       44955000	      4494	80003e24	fbb10783	lb	x15,-69(x2)	  x2:0x80008129 x15=0x0000002b PA:0x800080e4
       44965000	      4495	80003e28	05414b03	lbu	x22,84(x2)	  x2:0x80008129 x22=0x000000bb PA:0x8000817d
       44975000	      4496	80003e2c	03410803	lb	x16,52(x2)	  x2:0x80008129 x16=0xffffffb5 PA:0x8000815d
       44985000	      4497	80003e30	403687b3	sub	x15,x13,x3	 x13:0x00000001  x3:0xfffffdfe x15=0x00000203
       44995000	      4498	80003e34	4068d713	srai	x14,x17,0x6	 x17:0x0000a165 x14=0x00000285
       45005000	      4499	80003e38	02510b23	sb	x5,54(x2)	  x2:0x80008129  x5:0xfffffcad PA:0x8000815f
       45015000	      4500	80003e3c	32d93493	sltiu	x9,x18,813	 x18:0xfdd34df8  x9=0x00000000
       45025000	      4501	80003e40	fdc10923	sb	x28,-46(x2)	  x2:0x80008129 x28:0x00000000 PA:0x800080fb
       45035000	      4502	80003e44	01711fa3	sh	x23,31(x2)	  x2:0x80008129 x23:0x0000000d PA:0x80008148
       45045000	      4503	80003e48	f8e14303	lbu	x6,-114(x2)	  x2:0x80008129  x6=0x000000e4 PA:0x800080b7
       45055000	      4504	80003e4c	00a10303	lb	x6,10(x2)	  x2:0x80008129  x6=0x00000005 PA:0x80008133
       45065000	      4505	80003e50	24050713	addi	x14,x10,576	 x10:0x80009f28 x14=0x8000a168
       45075000	      4506	80003e54	05814483	lbu	x9,88(x2)	  x2:0x80008129  x9=0x000000a7 PA:0x80008181
       45085000	      4507	80003e58	1ada9c97	auipc	x25,0x1ada9	 x25=0x9adace54
       45095000	      4508	80003e5c	05614683	lbu	x13,86(x2)	  x2:0x80008129 x13=0x000000a4 PA:0x8000817f
       45105000	      4509	80003e60	f36a7db7	lui	x27,0xf36a7	 x27=0xf36a7000
       45115000	      4510	80003e64	4143d993	srai	x19,x7,0x14	  x7:0x00000000 x19=0x00000000
       45125000	      4511	80003e68	0d914883	lbu	x17,217(x2)	  x2:0x80008129 x17=0x0000006e PA:0x80008202
       45135000	      4512	80003e6c	ffd114a3	sh	x29,-23(x2)	  x2:0x80008129 x29:0xffffc2a2 PA:0x80008112
       45145000	      4513	80003e70	40acdf13	srai	x30,x25,0xa	 x25:0x9adace54 x30=0xffe6b6b3
       45155000	      4514	80003e74	02d10403	lb	x8,45(x2)	  x2:0x80008129  x8=0x0000003e PA:0x80008156
       45165000	      4515	80003e78	01649793	slli	x15,x9,0x16	  x9:0x000000a7 x15=0x29c00000
       45175000	      4516	80003e7c	fba10883	lb	x17,-70(x2)	  x2:0x80008129 x17=0x00000000 PA:0x800080e3
       45185000	      4517	80003e80	416484b3	sub	x9,x9,x22	  x9:0x000000a7 x22:0x000000bb  x9=0xffffffec
       45195000	      4518	80003e84	04014f83	lbu	x31,64(x2)	  x2:0x80008129 x31=0x00000015 PA:0x80008169
       45205000	      4519	80003e88	00478733	add	x14,x15,x4	 x15:0x29c00000  x4:0x00000049 x14=0x29c00049
       45215000	      4520	80003e8c	90df0297	auipc	x5,0x90df0	  x5=0x10df3e88
       45225000	      4521	80003e90	fb914483	lbu	x9,-71(x2)	  x2:0x80008129  x9=0x00000027 PA:0x800080e2
       45235000	      4522	80003e94	01c5dcb3	srl	x25,x11,x28	 x11:0x80009fc4 x28:0x00000000 x25=0x80009fc4
       45245000	      4523	80003e98	ff410823	sb	x20,-16(x2)	  x2:0x80008129 x20:0x00000001 PA:0x80008119
       45255000	      4524	80003e9c	fc715a03	lhu	x20,-57(x2)	  x2:0x80008129 x20=0x0000af61 PA:0x800080f0
       45265000	      4525	00000000	00000013	addi	x0,x0,0	  x0:0x00000000
       45275000	      4526	80003ea0	f7410b23	sb	x20,-138(x2)	  x2:0x80008129 x20:0x0000af61 PA:0x8000809f
       45285000	      4527	80003ea4	f3f123a3	sw	x31,-217(x2)	  x2:0x80008129 x31:0x00000015 PA:0x80008050
       45295000	      4528	80003ea8	0fb15303	lhu	x6,251(x2)	  x2:0x80008129  x6=0x0000c7f2 PA:0x80008224
       45305000	      4529	80003eac	00005117	auipc	x2,0x5	  x2=0x80008ea8
       45315000	      4530	80003eb0	90910113	addi	x2,x2,-1783	  x2:0x80008ea8  x2=0x800087b1
       45325000	      4531	80003eb4	06583613	sltiu	x12,x16,101	 x16:0xffffffb5 x12=0x00000000
       45335000	      4532	80003eb8	00915803	lhu	x16,9(x2)	  x2:0x800087b1 x16=0x00006c76 PA:0x800087ba
       45345000	      4533	80003ebc	03210723	sb	x18,46(x2)	  x2:0x800087b1 x18:0xfdd34df8 PA:0x800087df
       45355000	      4534	80003ec0	fd712283	lw	x5,-41(x2)	  x2:0x800087b1  x5=0xb4b47e0a PA:0x80008788
       45365000	      4535	80003ec4	41de83b3	sub	x7,x29,x29	 x29:0xffffc2a2 x29:0xffffc2a2  x7=0x00000000
       45375000	      4536	80003ec8	74972e93	slti	x29,x14,1865	 x14:0x29c00049 x29=0x00000000
       45385000	      4537	80003ecc	0054d733	srl	x14,x9,x5	  x9:0x00000027  x5:0xb4b47e0a x14=0x00000000
       45395000	      4538	80003ed0	00b12d83	lw	x27,11(x2)	  x2:0x800087b1 x27=0xe8351201 PA:0x800087bc
       45405000	      4539	80003ed4	fc911903	lh	x18,-55(x2)	  x2:0x800087b1 x18=0xffff863a PA:0x8000877a
       45415000	      4540	80003ed8	00a10023	sb	x10,0(x2)	  x2:0x800087b1 x10:0x80009f28 PA:0x800087b1
       45425000	      4541	80003edc	40b7d9b3	sra	x19,x15,x11	 x15:0x29c00000 x11:0x80009fc4 x19=0x029c0000
       45435000	      4542	80003ee0	001b91b3	sll	x3,x23,x1	 x23:0x0000000d  x1:0x00000000  x3=0x0000000d
       45445000	      4543	80003ee4	402359b3	sra	x19,x6,x2	  x6:0x0000c7f2  x2:0x800087b1 x19=0x00000000
       45455000	      4544	80003ee8	ff012ba3	sw	x16,-9(x2)	  x2:0x800087b1 x16:0x00006c76 PA:0x800087a8
       45465000	      4545	80003eec	00da3f33	sltu	x30,x20,x13	 x20:0x0000af61 x13:0x000000a4 x30=0x00000000
       45475000	      4546	80003ef0	40a704b3	sub	x9,x14,x10	 x14:0x00000000 x10:0x80009f28  x9=0x7fff60d8
       45485000	      4547	80003ef4	622e3913	sltiu	x18,x28,1570	 x28:0x00000000 x18=0x00000001
       45495000	      4548	80003ef8	d23db317	auipc	x6,0xd23db	  x6=0x523deef4
       45505000	      4549	80003efc	01410223	sb	x20,4(x2)	  x2:0x800087b1 x20:0x0000af61 PA:0x800087b5
       45515000	      4550	80003f00	00680233	add	x4,x16,x6	 x16:0x00006c76  x6:0x523deef4  x4=0x523e5b6a
       45525000	      4551	80003f04	177af793	andi	x15,x21,375	 x21:0x3ee73000 x15=0x00000000
       45535000	      4552	80003f08	fc410b03	lb	x22,-60(x2)	  x2:0x800087b1 x22=0x00000031 PA:0x80008775
       45545000	      4553	80003f0c	01bbe4b3	or	x9,x23,x27	 x23:0x0000000d x27:0xe8351201  x9=0xe835120d
       45555000	      4554	80003f10	be910c93	addi	x25,x2,-1047	  x2:0x800087b1 x25=0x8000839a
       45565000	      4555	80003f14	03610ea3	sb	x22,61(x2)	  x2:0x800087b1 x22:0x00000031 PA:0x800087ee
       45575000	      4556	80003f18	f6044493	xori	x9,x8,-160	  x8:0x0000003e  x9=0xffffff5e
       45585000	      4557	80003f1c	4c03ec93	ori	x25,x7,1216	  x7:0x00000000 x25=0x000004c0
       45595000	      4558	80003f20	f24b0a13	addi	x20,x22,-220	 x22:0x00000031 x20=0xffffff55
       45605000	      4559	80003f24	fe010703	lb	x14,-32(x2)	  x2:0x800087b1 x14=0x00000050 PA:0x80008791
       45615000	      4560	80003f28	fe3101a3	sb	x3,-29(x2)	  x2:0x800087b1  x3:0x0000000d PA:0x80008794
       45625000	      4561	80003f2c	00005117	auipc	x2,0x5	  x2=0x80008f28
       45635000	      4562	80003f30	dbc10113	addi	x2,x2,-580	  x2:0x80008f28  x2=0x80008ce4
       45645000	      4563	80003f34	01ddd9b3	srl	x19,x27,x29	 x27:0xe8351201 x29:0x00000000 x19=0xe8351201
       45655000	      4564	80003f38	f2810b23	sb	x8,-202(x2)	  x2:0x80008ce4  x8:0x0000003e PA:0x80008c1a
       45665000	      4565	80003f3c	00000013	addi	x0,x0,0	  x0:0x00000000
       45675000	      4566	80003f40	92c22a13	slti	x20,x4,-1748	  x4:0x523e5b6a x20=0x00000000
       45685000	      4567	80003f44	00b21233	sll	x4,x4,x11	  x4:0x523e5b6a x11:0x80009fc4  x4=0x23e5b6a0
       45695000	      4568	80003f48	f5611783	lh	x15,-170(x2)	  x2:0x80008ce4 x15=0x00000f67 PA:0x80008c3a
       45705000	      4569	80003f4c	00233eb3	sltu	x29,x6,x2	  x6:0x523deef4  x2:0x80008ce4 x29=0x00000001
       45715000	      4570	80003f50	7570b893	sltiu	x17,x1,1879	  x1:0x00000000 x17=0x00000001
       45725000	      4571	80003f54	0c810ea3	sb	x8,221(x2)	  x2:0x80008ce4  x8:0x0000003e PA:0x80008dc1
       45735000	      4572	80003f58	f61107a3	sb	x1,-145(x2)	  x2:0x80008ce4  x1:0x00000000 PA:0x80008c53
       45745000	      4573	80003f5c	c7c8e813	ori	x16,x17,-900	 x17:0x00000001 x16=0xfffffc7d
       45755000	      4574	80003f60	fc710f83	lb	x31,-57(x2)	  x2:0x80008ce4 x31=0xffffffc9 PA:0x80008cab
       45765000	      4575	80003f64	9e4d4813	xori	x16,x26,-1564	 x26:0xffffffd2 x16=0x00000636
       45775000	      4576	80003f68	f7710e83	lb	x29,-137(x2)	  x2:0x80008ce4 x29=0xffffffe8 PA:0x80008c5b
       45785000	      4577	80003f6c	03310c83	lb	x25,51(x2)	  x2:0x80008ce4 x25=0x00000048 PA:0x80008d17
       45795000	      4578	80003f70	fe714083	lbu	x1,-25(x2)	  x2:0x80008ce4  x1=0x00000046 PA:0x80008ccb
       45805000	      4579	80003f74	0078a0b3	slt	x1,x17,x7	 x17:0x00000001  x7:0x00000000  x1=0x00000000
       45815000	      4580	80003f78	0d510a83	lb	x21,213(x2)	  x2:0x80008ce4 x21=0xfffffff4 PA:0x80008db9
       45825000	      4581	80003f7c	06514903	lbu	x18,101(x2)	  x2:0x80008ce4 x18=0x000000f4 PA:0x80008d49
       45835000	      4582	80003f80	f2210003	lb	x0,-222(x2)	  x2:0x80008ce4 PA:0x80008c06
       45845000	      4583	80003f84	000cda33	srl	x20,x25,x0	 x25:0x00000048  x0:0x00000000 x20=0x00000048
       45855000	      4584	80003f88	ff014603	lbu	x12,-16(x2)	  x2:0x80008ce4 x12=0x000000f3 PA:0x80008cd4
       45865000	      4585	80003f8c	feb82493	slti	x9,x16,-21	 x16:0x00000636  x9=0x00000000
       45875000	      4586	80003f90	fc110803	lb	x16,-63(x2)	  x2:0x80008ce4 x16=0x00000013 PA:0x80008ca5
       45885000	      4587	80003f94	f7614303	lbu	x6,-138(x2)	  x2:0x80008ce4  x6=0x00000038 PA:0x80008c5a
       45895000	      4588	80003f98	00c276b3	and	x13,x4,x12	  x4:0x23e5b6a0 x12:0x000000f3 x13=0x000000a0
       45905000	      4589	80003f9c	f8111d23	sh	x1,-102(x2)	  x2:0x80008ce4  x1:0x00000000 PA:0x80008c7e
       45915000	      4590	80003fa0	f1310883	lb	x17,-237(x2)	  x2:0x80008ce4 x17=0xffffffd9 PA:0x80008bf7
       45925000	      4591	80003fa4	42b52613	slti	x12,x10,1067	 x10:0x80009f28 x12=0x00000001
       45935000	      4592	80003fa8	0043bdb3	sltu	x27,x7,x4	  x7:0x00000000  x4:0x23e5b6a0 x27=0x00000001
       45945000	      4593	80003fac	411fd433	sra	x8,x31,x17	 x31:0xffffffc9 x17:0xffffffd9  x8=0xffffffff
       45955000	      4594	80003fb0	f2214f83	lbu	x31,-222(x2)	  x2:0x80008ce4 x31=0x0000006e PA:0x80008c06
       45965000	      4595	80003fb4	f6b14683	lbu	x13,-149(x2)	  x2:0x80008ce4 x13=0x0000006b PA:0x80008c4f
       45975000	      4596	80003fb8	c057af13	slti	x30,x15,-1019	 x15:0x00000f67 x30=0x00000000
       45985000	      4597	80003fbc	403a0633	sub	x12,x20,x3	 x20:0x00000048  x3:0x0000000d x12=0x0000003b
       45995000	      4598	80003fc0	3a4f2113	slti	x2,x30,932	 x30:0x00000000  x2=0x00000001
       46005000	      4599	80003fc4	01bca1b3	slt	x3,x25,x27	 x25:0x00000048 x27:0x00000001  x3=0x00000000
       46015000	      4600	80003fc8	04770663	beq	x14,x7,80004014	 x14:0x00000050  x7:0x00000000
       46025000	      4601	80003fcc	1dcdeab7	lui	x21,0x1dcde	 x21=0x1dcde000
       46035000	      4602	80003fd0	011a1933	sll	x18,x20,x17	 x20:0x00000048 x17:0xffffffd9 x18=0x90000000
       46045000	      4603	80003fd4	003af2b3	and	x5,x21,x3	 x21:0x1dcde000  x3:0x00000000  x5=0x00000000
       46055000	      4604	80003fd8	01e49ab3	sll	x21,x9,x30	  x9:0x00000000 x30:0x00000000 x21=0x00000000
       46065000	      4605	80003fdc	40520eb3	sub	x29,x4,x5	  x4:0x23e5b6a0  x5:0x00000000 x29=0x23e5b6a0
       46075000	      4606	80003fe0	0115ed33	or	x26,x11,x17	 x11:0x80009fc4 x17:0xffffffd9 x26=0xffffffdd
       46085000	      4607	80003fe4	d7240e13	addi	x28,x8,-654	  x8:0xffffffff x28=0xfffffd71
       46095000	      4608	80003fe8	018b3a33	sltu	x20,x22,x24	 x22:0x00000031 x24:0x303c7000 x20=0x00000001
       46105000	      4609	80003fec	00de49b3	xor	x19,x28,x13	 x28:0xfffffd71 x13:0x0000006b x19=0xfffffd1a
       46115000	      4610	80003ff0	40285993	srai	x19,x16,0x2	 x16:0x00000013 x19=0x00000004
       46125000	      4611	80003ff4	40cc5b33	sra	x22,x24,x12	 x24:0x303c7000 x12:0x0000003b x22=0x00000006
       46135000	      4612	80003ff8	40ee5e13	srai	x28,x28,0xe	 x28:0xfffffd71 x28=0xffffffff
       46145000	      4613	80003ffc	01492d33	slt	x26,x18,x20	 x18:0x90000000 x20:0x00000001 x26=0x00000001
       46155000	      4614	80004000	5f49ed93	ori	x27,x19,1524	 x19:0x00000004 x27=0x000005f4
       46165000	      4615	80004004	01d1edb3	or	x27,x3,x29	  x3:0x00000000 x29:0x23e5b6a0 x27=0x23e5b6a0
       46175000	      4616	80004008	002e1eb3	sll	x29,x28,x2	 x28:0xffffffff  x2:0x00000001 x29=0xfffffffe
       46185000	      4617	8000400c	90996693	ori	x13,x18,-1783	 x18:0x90000000 x13=0xfffff909
       46195000	      4618	80004010	004778b3	and	x17,x14,x4	 x14:0x00000050  x4:0x23e5b6a0 x17=0x00000000
       46205000	      4619	80004014	4057d213	srai	x4,x15,0x5	 x15:0x00000f67  x4=0x0000007b
       46215000	      4620	80004018	00679a13	slli	x20,x15,0x6	 x15:0x00000f67 x20=0x0003d9c0
       46225000	      4621	8000401c	001e9233	sll	x4,x29,x1	 x29:0xfffffffe  x1:0x00000000  x4=0xfffffffe
       46235000	      4622	80004020	4125f793	andi	x15,x11,1042	 x11:0x80009fc4 x15=0x00000400
       46245000	      4623	80004024	1105e393	ori	x7,x11,272	 x11:0x80009fc4  x7=0x80009fd4
       46255000	      4624	80004028	00000013	addi	x0,x0,0	  x0:0x00000000
       46265000	      4625	8000402c	f7883113	sltiu	x2,x16,-136	 x16:0x00000013  x2=0x00000001
       46275000	      4626	80004030	dbd41237	lui	x4,0xdbd41	  x4=0xdbd41000
       46285000	      4627	80004034	9a880693	addi	x13,x16,-1624	 x16:0x00000013 x13=0xfffff9bb
       46295000	      4628	80004038	009feb33	or	x22,x31,x9	 x31:0x0000006e  x9:0x00000000 x22=0x0000006e
       46305000	      4629	8000403c	129cac13	slti	x24,x25,297	 x25:0x00000048 x24=0x00000001
       46315000	      4630	80004040	e77b4417	auipc	x8,0xe77b4	  x8=0x677b803c
       46325000	      4631	80004044	0183beb3	sltu	x29,x7,x24	  x7:0x80009fd4 x24:0x00000001 x29=0x00000000
       46335000	      4632	80004048	009554b3	srl	x9,x10,x9	 x10:0x80009f28  x9:0x00000000  x9=0x80009f28
       46345000	      4633	8000404c	d56b8893	addi	x17,x23,-682	 x23:0x0000000d x17=0xfffffd63
       46355000	      4634	80004050	0377c263	blt	x15,x23,80004074	 x15:0x00000400 x23:0x0000000d
       46365000	      4635	80004054	6e64e293	ori	x5,x9,1766	  x9:0x80009f28  x5=0x80009fee
       46375000	      4636	80004058	003b59b3	srl	x19,x22,x3	 x22:0x0000006e  x3:0x00000000 x19=0x0000006e
       46385000	      4637	8000405c	01438c33	add	x24,x7,x20	  x7:0x80009fd4 x20:0x0003d9c0 x24=0x80047994
       46395000	      4638	80004060	00915733	srl	x14,x2,x9	  x2:0x00000001  x9:0x80009f28 x14=0x00000000
       46405000	      4639	80004064	008f5b13	srli	x22,x30,0x8	 x30:0x00000000 x22=0x00000000
       46415000	      4640	80004068	250fff93	andi	x31,x31,592	 x31:0x0000006e x31=0x00000040
       46425000	      4641	8000406c	01cffc63	bgeu	x31,x28,80004084	 x31:0x00000040 x28:0xffffffff
       46435000	      4642	80004070	7404a213	slti	x4,x9,1856	  x9:0x80009f28  x4=0x00000001
       46445000	      4643	80004074	41ecdeb3	sra	x29,x25,x30	 x25:0x00000048 x30:0x00000000 x29=0x00000048
       46455000	      4644	80004078	022cf463	bgeu	x25,x2,800040a0	 x25:0x00000048  x2:0x00000001
       46465000	      4645	00000000	00000013	addi	x0,x0,0	  x0:0x00000000
       46475000	      4646	8000409c	00000013	addi	x0,x0,0	  x0:0x00000000
       46485000	      4647	800040a0	00f35663	bge	x6,x15,800040ac	  x6:0x00000038 x15:0x00000400
       46495000	      4648	800040a4	0187a3b3	slt	x7,x15,x24	 x15:0x00000400 x24:0x80047994  x7=0x00000000
       46505000	      4649	800040a8	00e1fdb3	and	x27,x3,x14	  x3:0x00000000 x14:0x00000000 x27=0x00000000
       46515000	      4650	800040ac	01449e63	bne	x9,x20,800040c8	  x9:0x80009f28 x20:0x0003d9c0
       46525000	      4651	00000000	00000013	addi	x0,x0,0	  x0:0x00000000
       46535000	      4652	800040c4	00000013	addi	x0,x0,0	  x0:0x00000000
       46545000	      4653	800040c8	41c15193	srai	x3,x2,0x1c	  x2:0x00000001  x3=0x00000000
       46555000	      4654	800040cc	012129b3	slt	x19,x2,x18	  x2:0x00000001 x18:0x90000000 x19=0x00000000
       46565000	      4655	800040d0	013dee63	bltu	x27,x19,800040ec	 x27:0x00000000 x19:0x00000000
       46575000	      4656	800040d4	013d8ab3	add	x21,x27,x19	 x27:0x00000000 x19:0x00000000 x21=0x00000000
       46585000	      4657	800040d8	018b6a63	bltu	x22,x24,800040ec	 x22:0x00000000 x24:0x80047994
       46595000	      4658	00000000	00000013	addi	x0,x0,0	  x0:0x00000000
       46605000	      4659	800040e8	00000013	addi	x0,x0,0	  x0:0x00000000
       46615000	      4660	800040ec	01c07eb3	and	x29,x0,x28	  x0:0x00000000 x28:0xffffffff x29=0x00000000
       46625000	      4661	800040f0	01a61793	slli	x15,x12,0x1a	 x12:0x0000003b x15=0xec000000
       46635000	      4662	800040f4	00000013	addi	x0,x0,0	  x0:0x00000000
       46645000	      4663	800040f8	01894c63	blt	x18,x24,80004110	 x18:0x90000000 x24:0x80047994
       46655000	      4664	800040fc	01744db3	xor	x27,x8,x23	  x8:0x677b803c x23:0x0000000d x27=0x677b8031
       46665000	      4665	80004100	00988eb3	add	x29,x17,x9	 x17:0xfffffd63  x9:0x80009f28 x29=0x80009c8b
       46675000	      4666	80004104	00fe46b3	xor	x13,x28,x15	 x28:0xffffffff x15:0xec000000 x13=0x13ffffff
       46685000	      4667	80004108	403d00b3	sub	x1,x26,x3	 x26:0x00000001  x3:0x00000000  x1=0x00000001
       46695000	      4668	8000410c	78d8f913	andi	x18,x17,1933	 x17:0xfffffd63 x18=0x00000501
       46705000	      4669	80004110	01349093	slli	x1,x9,0x13	  x9:0x80009f28  x1=0xf9400000
       46715000	      4670	80004114	00e44663	blt	x8,x14,80004120	  x8:0x677b803c x14:0x00000000
       46725000	      4671	80004118	4106de13	srai	x28,x13,0x10	 x13:0x13ffffff x28=0x000013ff
       46735000	      4672	8000411c	00000013	addi	x0,x0,0	  x0:0x00000000
       46745000	      4673	80004120	004d1793	slli	x15,x26,0x4	 x26:0x00000001 x15=0x00000010
       46755000	      4674	80004124	01c3e2b3	or	x5,x7,x28	  x7:0x00000000 x28:0x000013ff  x5=0x000013ff
       46765000	      4675	80004128	4130db13	srai	x22,x1,0x13	  x1:0xf9400000 x22=0xffffff28
       46775000	      4676	8000412c	40805ab3	sra	x21,x0,x8	  x0:0x00000000  x8:0x677b803c x21=0x00000000
       46785000	      4677	80004130	05ab4663	blt	x22,x26,8000417c	 x22:0xffffff28 x26:0x00000001
       46795000	      4678	00000000	00000013	addi	x0,x0,0	  x0:0x00000000
       46805000	      4679	80004178	00000013	addi	x0,x0,0	  x0:0x00000000
       46815000	      4680	8000417c	0210cc63	blt	x1,x1,800041b4	  x1:0xf9400000  x1:0xf9400000
       46825000	      4681	80004180	001f9f13	slli	x30,x31,0x1	 x31:0x00000040 x30=0x00000080
       46835000	      4682	80004184	015f5f93	srli	x31,x30,0x15	 x30:0x00000080 x31=0x00000000
       46845000	      4683	80004188	022fc863	blt	x31,x2,800041b8	 x31:0x00000000  x2:0x00000001
       46855000	      4684	00000000	00000013	addi	x0,x0,0	  x0:0x00000000
       46865000	      4685	800041b4	00000013	addi	x0,x0,0	  x0:0x00000000
       46875000	      4686	800041b8	00ae8eb3	add	x29,x29,x10	 x29:0x80009c8b x10:0x80009f28 x29=0x00013bb3
       46885000	      4687	800041bc	0042ddb3	srl	x27,x5,x4	  x5:0x000013ff  x4:0x00000001 x27=0x000009ff
       46895000	      4688	800041c0	017ac1b3	xor	x3,x21,x23	 x21:0x00000000 x23:0x0000000d  x3=0x0000000d
       46905000	      4689	800041c4	4fceb113	sltiu	x2,x29,1276	 x29:0x00013bb3  x2=0x00000000
       46915000	      4690	800041c8	04044463	blt	x8,x0,80004210	  x8:0x677b803c  x0:0x00000000
       46925000	      4691	800041cc	026d8063	beq	x27,x6,800041ec	 x27:0x000009ff  x6:0x00000038
       46935000	      4692	800041d0	01f382b3	add	x5,x7,x31	  x7:0x00000000 x31:0x00000000  x5=0x00000000
       46945000	      4693	800041d4	01ecd3b3	srl	x7,x25,x30	 x25:0x00000048 x30:0x00000080  x7=0x00000048
       46955000	      4694	800041d8	9a4dff97	auipc	x31,0x9a4df	 x31=0x1a4e31d4
       46965000	      4695	800041dc	03bf4263	blt	x30,x27,80004200	 x30:0x00000080 x27:0x000009ff
       46975000	      4696	00000000	00000013	addi	x0,x0,0	  x0:0x00000000
       46985000	      4697	800041fc	00000013	addi	x0,x0,0	  x0:0x00000000
       46995000	      4698	80004200	784dfa93	andi	x21,x27,1924	 x27:0x000009ff x21=0x00000184
       47005000	      4699	80004204	00000013	addi	x0,x0,0	  x0:0x00000000
       47015000	      4700	80004208	014ae433	or	x8,x21,x20	 x21:0x00000184 x20:0x0003d9c0  x8=0x0003d9c4
       47025000	      4701	8000420c	039a6263	bltu	x20,x25,80004230	 x20:0x0003d9c0 x25:0x00000048
       47035000	      4702	80004210	002c8a63	beq	x25,x2,80004224	 x25:0x00000048  x2:0x00000000
       47045000	      4703	80004214	3d4bea13	ori	x20,x23,980	 x23:0x0000000d x20=0x000003dd
       47055000	      4704	80004218	01859393	slli	x7,x11,0x18	 x11:0x80009fc4  x7=0xc4000000
       47065000	      4705	8000421c	0056f033	and	x0,x13,x5	 x13:0x13ffffff  x5:0x00000000
       47075000	      4706	80004220	00f88663	beq	x17,x15,8000422c	 x17:0xfffffd63 x15:0x00000010
       47085000	      4707	80004224	41855133	sra	x2,x10,x24	 x10:0x80009f28 x24:0x80047994  x2=0xfffff800
       47095000	      4708	80004228	0596d663	bge	x13,x25,80004274	 x13:0x13ffffff x25:0x00000048
       47105000	      4709	00000000	00000013	addi	x0,x0,0	  x0:0x00000000
       47115000	      4710	80004270	00000013	addi	x0,x0,0	  x0:0x00000000
       47125000	      4711	80004274	00000013	addi	x0,x0,0	  x0:0x00000000
       47135000	      4712	80004278	001d6633	or	x12,x26,x1	 x26:0x00000001  x1:0xf9400000 x12=0xf9400001
       47145000	      4713	8000427c	00a19f13	slli	x30,x3,0xa	  x3:0x0000000d x30=0x00003400
       47155000	      4714	80004280	01d201b3	add	x3,x4,x29	  x4:0x00000001 x29:0x00013bb3  x3=0x00013bb4
       47165000	      4715	80004284	0357d463	bge	x15,x21,800042ac	 x15:0x00000010 x21:0x00000184
       47175000	      4716	80004288	41fa5613	srai	x12,x20,0x1f	 x20:0x000003dd x12=0x00000000
       47185000	      4717	8000428c	01ee48b3	xor	x17,x28,x30	 x28:0x000013ff x30:0x00003400 x17=0x000027ff
       47195000	      4718	80004290	00b36ab3	or	x21,x6,x11	  x6:0x00000038 x11:0x80009fc4 x21=0x80009ffc
       47205000	      4719	80004294	010881b3	add	x3,x17,x16	 x17:0x000027ff x16:0x00000013  x3=0x00002812
       47215000	      4720	80004298	0d168a13	addi	x20,x13,209	 x13:0x13ffffff x20=0x140000d0
       47225000	      4721	8000429c	5be9c293	xori	x5,x19,1470	 x19:0x00000000  x5=0x000005be
       47235000	      4722	800042a0	00058fb3	add	x31,x11,x0	 x11:0x80009fc4  x0:0x00000000 x31=0x80009fc4
       47245000	      4723	800042a4	ac4a0a13	addi	x20,x20,-1340	 x20:0x140000d0 x20=0x13fffb94
       47255000	      4724	800042a8	466b6113	ori	x2,x22,1126	 x22:0xffffff28  x2=0xffffff6e
       47265000	      4725	800042ac	41645693	srai	x13,x8,0x16	  x8:0x0003d9c4 x13=0x00000000
       47275000	      4726	800042b0	00000013	addi	x0,x0,0	  x0:0x00000000
       47285000	      4727	800042b4	40cd8db3	sub	x27,x27,x12	 x27:0x000009ff x12:0x00000000 x27=0x000009ff
       47295000	      4728	800042b8	01d75f93	srli	x31,x14,0x1d	 x14:0x00000000 x31=0x00000000
       47305000	      4729	800042bc	00c977b3	and	x15,x18,x12	 x18:0x00000501 x12:0x00000000 x15=0x00000000
       47315000	      4730	800042c0	02105d37	lui	x26,0x2105	 x26=0x02105000
       47325000	      4731	800042c4	19b623b7	lui	x7,0x19b62	  x7=0x19b62000
       47335000	      4732	800042c8	00938a33	add	x20,x7,x9	  x7:0x19b62000  x9:0x80009f28 x20=0x99b6bf28
       47345000	      4733	800042cc	017ffa63	bgeu	x31,x23,800042e0	 x31:0x00000000 x23:0x0000000d
       47355000	      4734	800042d0	042b9463	bne	x23,x2,80004318	 x23:0x0000000d  x2:0xffffff6e
       47365000	      4735	00000000	00000013	addi	x0,x0,0	  x0:0x00000000
       47375000	      4736	80004314	00000013	addi	x0,x0,0	  x0:0x00000000
       47385000	      4737	80004318	008ea133	slt	x2,x29,x8	 x29:0x00013bb3  x8:0x0003d9c4  x2=0x00000001
       47395000	      4738	8000431c	001f8b33	add	x22,x31,x1	 x31:0x00000000  x1:0xf9400000 x22=0xf9400000
       47405000	      4739	80004320	f65c8b13	addi	x22,x25,-155	 x25:0x00000048 x22=0xffffffad
       47415000	      4740	80004324	a9fd6193	ori	x3,x26,-1377	 x26:0x02105000  x3=0xfffffa9f
       47425000	      4741	80004328	003f96b3	sll	x13,x31,x3	 x31:0x00000000  x3:0xfffffa9f x13=0x00000000
       47435000	      4742	8000432c	00072933	slt	x18,x14,x0	 x14:0x00000000  x0:0x00000000 x18=0x00000000
       47445000	      4743	80004330	41785013	srai	x0,x16,0x17	 x16:0x00000013
       47455000	      4744	80004334	00b026b3	slt	x13,x0,x11	  x0:0x00000000 x11:0x80009fc4 x13=0x00000000
       47465000	      4745	80004338	03d39e63	bne	x7,x29,80004374	  x7:0x19b62000 x29:0x00013bb3
       47475000	      4746	00000000	00000013	addi	x0,x0,0	  x0:0x00000000
       47485000	      4747	80004370	00000013	addi	x0,x0,0	  x0:0x00000000
       47495000	      4748	80004374	3f168417	auipc	x8,0x3f168	  x8=0xbf16c370
       47505000	      4749	80004378	41b4d013	srai	x0,x9,0x1b	  x9:0x80009f28
       47515000	      4750	8000437c	41d68d33	sub	x26,x13,x29	 x13:0x00000000 x29:0x00013bb3 x26=0xfffec44d
       47525000	      4751	80004380	e11ec797	auipc	x15,0xe11ec	 x15=0x611f037c
       47535000	      4752	80004384	f5999d37	lui	x26,0xf5999	 x26=0xf5999000
       47545000	      4753	80004388	97a43c37	lui	x24,0x97a43	 x24=0x97a43000
       47555000	      4754	8000438c	009c8f33	add	x30,x25,x9	 x25:0x00000048  x9:0x80009f28 x30=0x80009f70
       47565000	      4755	80004390	82fc1d97	auipc	x27,0x82fc1	 x27=0x02fc538c
       47575000	      4756	80004394	401dd6b3	sra	x13,x27,x1	 x27:0x02fc538c  x1:0xf9400000 x13=0x02fc538c
       47585000	      4757	80004398	4174d713	srai	x14,x9,0x17	  x9:0x80009f28 x14=0xffffff00
       47595000	      4758	8000439c	52940413	addi	x8,x8,1321	  x8:0xbf16c370  x8=0xbf16c899
       47605000	      4759	800043a0	012883b3	add	x7,x17,x18	 x17:0x000027ff x18:0x00000000  x7=0x000027ff
       47615000	      4760	800043a4	00a109b3	add	x19,x2,x10	  x2:0x00000001 x10:0x80009f28 x19=0x80009f29
       47625000	      4761	800043a8	0127b2b3	sltu	x5,x15,x18	 x15:0x611f037c x18:0x00000000  x5=0x00000000
       47635000	      4762	800043ac	01dcf4b3	and	x9,x25,x29	 x25:0x00000048 x29:0x00013bb3  x9=0x00000000
       47645000	      4763	800043b0	05a34463	blt	x6,x26,800043f8	  x6:0x00000038 x26:0xf5999000
       47655000	      4764	800043b4	c6102c93	slti	x25,x0,-927	  x0:0x00000000 x25=0x00000000
       47665000	      4765	800043b8	94904913	xori	x18,x0,-1719	  x0:0x00000000 x18=0xfffff949
       47675000	      4766	800043bc	0504f693	andi	x13,x9,80	  x9:0x00000000 x13=0x00000000
       47685000	      4767	800043c0	00000013	addi	x0,x0,0	  x0:0x00000000
       47695000	      4768	800043c4	0006d213	srli	x4,x13,0x0	 x13:0x00000000  x4=0x00000000
       47705000	      4769	800043c8	00bf5693	srli	x13,x30,0xb	 x30:0x80009f70 x13=0x00100013
       47715000	      4770	800043cc	41fa8a33	sub	x20,x21,x31	 x21:0x80009ffc x31:0x00000000 x20=0x80009ffc
       47725000	      4771	800043d0	ca5f4493	xori	x9,x30,-859	 x30:0x80009f70  x9=0x7fff63d5
       47735000	      4772	800043d4	00000013	addi	x0,x0,0	  x0:0x00000000
       47745000	      4773	800043d8	3c900213	addi	x4,x0,969	  x0:0x00000000  x4=0x000003c9
       47755000	      4774	800043dc	01061433	sll	x8,x12,x16	 x12:0x00000000 x16:0x00000013  x8=0x00000000
       47765000	      4775	800043e0	01ccc633	xor	x12,x25,x28	 x25:0x00000000 x28:0x000013ff x12=0x000013ff
       47775000	      4776	800043e4	01e394b3	sll	x9,x7,x30	  x7:0x000027ff x30:0x80009f70  x9=0x27ff0000
       47785000	      4777	800043e8	40b0ac17	auipc	x24,0x40b0a	 x24=0xc0b0e3e4
       47795000	      4778	800043ec	3bfa4613	xori	x12,x20,959	 x20:0x80009ffc x12=0x80009c43
       47805000	      4779	800043f0	0faafd37	lui	x26,0xfaaf	 x26=0x0faaf000
       47815000	      4780	800043f4	01165b33	srl	x22,x12,x17	 x12:0x80009c43 x17:0x000027ff x22=0x00000001
       47825000	      4781	800043f8	00c65d13	srli	x26,x12,0xc	 x12:0x80009c43 x26=0x00080009
       47835000	      4782	800043fc	975a6113	ori	x2,x20,-1675	 x20:0x80009ffc  x2=0xfffffffd
       47845000	      4783	80004400	006c4eb3	xor	x29,x24,x6	 x24:0xc0b0e3e4  x6:0x00000038 x29=0xc0b0e3dc
       47855000	      4784	80004404	03e4c263	blt	x9,x30,80004428	  x9:0x27ff0000 x30:0x80009f70
       47865000	      4785	80004408	70878c93	addi	x25,x15,1800	 x15:0x611f037c x25=0x611f0a84
       47875000	      4786	8000440c	009c2733	slt	x14,x24,x9	 x24:0xc0b0e3e4  x9:0x27ff0000 x14=0x00000001
       47885000	      4787	80004410	00829c13	slli	x24,x5,0x8	  x5:0x00000000 x24=0x00000000
       47895000	      4788	80004414	41ebd633	sra	x12,x23,x30	 x23:0x0000000d x30:0x80009f70 x12=0x00000000
       47905000	      4789	80004418	009dd193	srli	x3,x27,0x9	 x27:0x02fc538c  x3=0x00017e29
       47915000	      4790	8000441c	40aad013	srai	x0,x21,0xa	 x21:0x80009ffc
       47925000	      4791	80004420	c3363a37	lui	x20,0xc3363	 x20=0xc3363000
       47935000	      4792	80004424	013e9213	slli	x4,x29,0x13	 x29:0xc0b0e3dc  x4=0x1ee00000
       47945000	      4793	80004428	6008b993	sltiu	x19,x17,1536	 x17:0x000027ff x19=0x00000000
       47955000	      4794	8000442c	01486663	bltu	x16,x20,80004438	 x16:0x00000013 x20:0xc3363000
       47965000	      4795	00000000	00000013	addi	x0,x0,0	  x0:0x00000000
       47975000	      4796	80004434	00000013	addi	x0,x0,0	  x0:0x00000000
       47985000	      4797	80004438	00efa4b3	slt	x9,x31,x14	 x31:0x00000000 x14:0x00000001  x9=0x00000001
       47995000	      4798	8000443c	03955c63	bge	x10,x25,80004474	 x10:0x80009f28 x25:0x611f0a84
       48005000	      4799	80004440	0094e3b3	or	x7,x9,x9	  x9:0x00000001  x9:0x00000001  x7=0x00000001
       48015000	      4800	80004444	01a89233	sll	x4,x17,x26	 x17:0x000027ff x26:0x00080009  x4=0x004ffe00
       48025000	      4801	80004448	30ea8693	addi	x13,x21,782	 x21:0x80009ffc x13=0x8000a30a
       48035000	      4802	8000444c	9219c113	xori	x2,x19,-1759	 x19:0x00000000  x2=0xfffff921
       48045000	      4803	80004450	017103b3	add	x7,x2,x23	  x2:0xfffff921 x23:0x0000000d  x7=0xfffff92e
       48055000	      4804	80004454	0010d433	srl	x8,x1,x1	  x1:0xf9400000  x1:0xf9400000  x8=0xf9400000
       48065000	      4805	80004458	41f98433	sub	x8,x19,x31	 x19:0x00000000 x31:0x00000000  x8=0x00000000
       48075000	      4806	8000445c	44a32c93	slti	x25,x6,1098	  x6:0x00000038 x25=0x00000001
       48085000	      4807	80004460	00bd34b3	sltu	x9,x26,x11	 x26:0x00080009 x11:0x80009fc4  x9=0x00000001
       48095000	      4808	80004464	00cac833	xor	x16,x21,x12	 x21:0x80009ffc x12:0x00000000 x16=0x80009ffc
       48105000	      4809	80004468	40dc54b3	sra	x9,x24,x13	 x24:0x00000000 x13:0x8000a30a  x9=0x00000000
       48115000	      4810	8000446c	caa2a293	slti	x5,x5,-854	  x5:0x00000000  x5=0x00000000
       48125000	      4811	80004470	1b4124b7	lui	x9,0x1b412	  x9=0x1b412000
       48135000	      4812	80004474	006297b3	sll	x15,x5,x6	  x5:0x00000000  x6:0x00000038 x15=0x00000000
       48145000	      4813	80004478	01d431b3	sltu	x3,x8,x29	  x8:0x00000000 x29:0xc0b0e3dc  x3=0x00000001
       48155000	      4814	8000447c	56a4f097	auipc	x1,0x56a4f	  x1=0xd6a53478
       48165000	      4815	80004480	01c14733	xor	x14,x2,x28	  x2:0xfffff921 x28:0x000013ff x14=0xffffeade
       48175000	      4816	80004484	00b61613	slli	x12,x12,0xb	 x12:0x00000000 x12=0x00000000
       48185000	      4817	80004488	40558f33	sub	x30,x11,x5	 x11:0x80009fc4  x5:0x00000000 x30=0x80009fc4
       48195000	      4818	8000448c	00000013	addi	x0,x0,0	  x0:0x00000000
       48205000	      4819	80004490	00d04cb3	xor	x25,x0,x13	  x0:0x00000000 x13:0x8000a30a x25=0x8000a30a
       48215000	      4820	80004494	00000013	addi	x0,x0,0	  x0:0x00000000
       48225000	      4821	80004498	21369d37	lui	x26,0x21369	 x26=0x21369000
       48235000	      4822	8000449c	387d0393	addi	x7,x26,903	 x26:0x21369000  x7=0x21369387
       48245000	      4823	800044a0	01061663	bne	x12,x16,800044ac	 x12:0x00000000 x16:0x80009ffc
       48255000	      4824	00000000	00000013	addi	x0,x0,0	  x0:0x00000000
       48265000	      4825	800044a8	00000013	addi	x0,x0,0	  x0:0x00000000
       48275000	      4826	800044ac	01b06833	or	x16,x0,x27	  x0:0x00000000 x27:0x02fc538c x16=0x02fc538c
       48285000	      4827	800044b0	35dcec93	ori	x25,x25,861	 x25:0x8000a30a x25=0x8000a35f
       48295000	      4828	800044b4	00c8beb3	sltu	x29,x17,x12	 x17:0x000027ff x12:0x00000000 x29=0x00000000
       48305000	      4829	800044b8	a17eb913	sltiu	x18,x29,-1513	 x29:0x00000000 x18=0x00000001
       48315000	      4830	800044bc	419b0cb3	sub	x25,x22,x25	 x22:0x00000001 x25:0x8000a35f x25=0x7fff5ca2
       48325000	      4831	800044c0	00320b33	add	x22,x4,x3	  x4:0x004ffe00  x3:0x00000001 x22=0x004ffe01
       48335000	      4832	800044c4	d5087813	andi	x16,x16,-688	 x16:0x02fc538c x16=0x02fc5100
       48345000	      4833	800044c8	4050df93	srai	x31,x1,0x5	  x1:0xd6a53478 x31=0xfeb529a3
       48355000	      4834	800044cc	0093cf33	xor	x30,x7,x9	  x7:0x21369387  x9:0x1b412000 x30=0x3a77b387
       48365000	      4835	800044d0	05a21463	bne	x4,x26,80004518	  x4:0x004ffe00 x26:0x21369000
       48375000	      4836	00000000	00000013	addi	x0,x0,0	  x0:0x00000000
       48385000	      4837	80004514	00000013	addi	x0,x0,0	  x0:0x00000000
       48395000	      4838	80004518	01a08263	beq	x1,x26,8000451c	  x1:0xd6a53478 x26:0x21369000
       48405000	      4839	8000451c	03817063	bgeu	x2,x24,8000453c	  x2:0xfffff921 x24:0x00000000
       48415000	      4840	00000000	00000013	addi	x0,x0,0	  x0:0x00000000
       48425000	      4841	80004538	00000013	addi	x0,x0,0	  x0:0x00000000
       48435000	      4842	8000453c	04d1ce13	xori	x28,x3,77	  x3:0x00000001 x28=0x0000004c
       48445000	      4843	80004540	eb21c9b7	lui	x19,0xeb21c	 x19=0xeb21c000
       48455000	      4844	80004544	00e544b3	xor	x9,x10,x14	 x10:0x80009f28 x14:0xffffeade  x9=0x7fff75f6
       48465000	      4845	80004548	33267993	andi	x19,x12,818	 x12:0x00000000 x19=0x00000000
       48475000	      4846	8000454c	0277fe63	bgeu	x15,x7,80004588	 x15:0x00000000  x7:0x21369387
       48485000	      4847	80004550	033b8e63	beq	x23,x19,8000458c	 x23:0x0000000d x19:0x00000000
       48495000	      4848	80004554	400c5ab3	sra	x21,x24,x0	 x24:0x00000000  x0:0x00000000 x21=0x00000000
       48505000	      4849	80004558	00f64f33	xor	x30,x12,x15	 x12:0x00000000 x15:0x00000000 x30=0x00000000
       48515000	      4850	8000455c	00325263	bge	x4,x3,80004560	  x4:0x004ffe00  x3:0x00000001
       48525000	      4851	00000000	00000013	addi	x0,x0,0	  x0:0x00000000
       48535000	      4852	8000455c	00000013	addi	x0,x0,0	  x0:0x00000000
       48545000	      4853	80004560	01385eb3	srl	x29,x16,x19	 x16:0x02fc5100 x19:0x00000000 x29=0x02fc5100
       48555000	      4854	80004564	55a62a13	slti	x20,x12,1370	 x12:0x00000000 x20=0x00000001
       48565000	      4855	80004568	00518fb3	add	x31,x3,x5	  x3:0x00000001  x5:0x00000000 x31=0x00000001
       48575000	      4856	8000456c	03a0d263	bge	x1,x26,80004590	  x1:0xd6a53478 x26:0x21369000
       48585000	      4857	80004570	60d8a913	slti	x18,x17,1549	 x17:0x000027ff x18=0x00000000
       48595000	      4858	80004574	074a8863	beq	x21,x20,800045e4	 x21:0x00000000 x20:0x00000001
       48605000	      4859	80004578	e66de393	ori	x7,x27,-410	 x27:0x02fc538c  x7=0xffffffee
       48615000	      4860	8000457c	00241663	bne	x8,x2,80004588	  x8:0x00000000  x2:0xfffff921
       48625000	      4861	00000000	00000013	addi	x0,x0,0	  x0:0x00000000
       48635000	      4862	80004584	00000013	addi	x0,x0,0	  x0:0x00000000
       48645000	      4863	80004588	020ff813	andi	x16,x31,32	 x31:0x00000001 x16=0x00000000
       48655000	      4864	8000458c	0854f063	bgeu	x9,x5,8000460c	  x9:0x7fff75f6  x5:0x00000000
       48665000	      4865	00000000	00000013	addi	x0,x0,0	  x0:0x00000000
       48675000	      4866	80004608	00000013	addi	x0,x0,0	  x0:0x00000000
       48685000	      4867	8000460c	018e69b3	or	x19,x28,x24	 x28:0x0000004c x24:0x00000000 x19=0x0000004c
       48695000	      4868	80004610	40fb57b3	sra	x15,x22,x15	 x22:0x004ffe01 x15:0x00000000 x15=0x004ffe01
       48705000	      4869	80004614	00db1793	slli	x15,x22,0xd	 x22:0x004ffe01 x15=0xffc02000
       48715000	      4870	80004618	00a26e63	bltu	x4,x10,80004634	  x4:0x004ffe00 x10:0x80009f28
       48725000	      4871	00000000	00000013	addi	x0,x0,0	  x0:0x00000000
       48735000	      4872	80004630	00000013	addi	x0,x0,0	  x0:0x00000000
       48745000	      4873	80004634	02214c63	blt	x2,x2,8000466c	  x2:0xfffff921  x2:0xfffff921
       48755000	      4874	80004638	00000013	addi	x0,x0,0	  x0:0x00000000
       48765000	      4875	8000463c	02d84463	blt	x16,x13,80004664	 x16:0x00000000 x13:0x8000a30a
       48775000	      4876	80004640	014449b3	xor	x19,x8,x20	  x8:0x00000000 x20:0x00000001 x19=0x00000001
       48785000	      4877	80004644	00000013	addi	x0,x0,0	  x0:0x00000000
       48795000	      4878	80004648	01486233	or	x4,x16,x20	 x16:0x00000000 x20:0x00000001  x4=0x00000001
       48805000	      4879	8000464c	63922993	slti	x19,x4,1593	  x4:0x00000001 x19=0x00000001
       48815000	      4880	80004650	d563b793	sltiu	x15,x7,-682	  x7:0xffffffee x15=0x00000000
       48825000	      4881	80004654	001fd493	srli	x9,x31,0x1	 x31:0x00000001  x9=0x00000000
       48835000	      4882	80004658	00725413	srli	x8,x4,0x7	  x4:0x00000001  x8=0x00000000
       48845000	      4883	8000465c	b6163013	sltiu	x0,x12,-1183	 x12:0x00000000
       48855000	      4884	80004660	0111ecb3	or	x25,x3,x17	  x3:0x00000001 x17:0x000027ff x25=0x000027ff
       48865000	      4885	80004664	a399e993	ori	x19,x19,-1479	 x19:0x00000001 x19=0xfffffa39
       48875000	      4886	80004668	01fdc7b3	xor	x15,x27,x31	 x27:0x02fc538c x31:0x00000001 x15=0x02fc538d
       48885000	      4887	8000466c	0054e0b3	or	x1,x9,x5	  x9:0x00000000  x5:0x00000000  x1=0x00000000
       48895000	      4888	80004670	cfc1da37	lui	x20,0xcfc1d	 x20=0xcfc1d000
       48905000	      4889	80004674	00003933	sltu	x18,x0,x0	  x0:0x00000000  x0:0x00000000 x18=0x00000000
       48915000	      4890	80004678	00075e13	srli	x28,x14,0x0	 x14:0xffffeade x28=0xffffeade
       48925000	      4891	8000467c	84bcc293	xori	x5,x25,-1973	 x25:0x000027ff  x5=0xffffdfb4
       48935000	      4892	80004680	01127933	and	x18,x4,x17	  x4:0x00000001 x17:0x000027ff x18=0x00000001
       48945000	      4893	80004684	00f010b3	sll	x1,x0,x15	  x0:0x00000000 x15:0x02fc538d  x1=0x00000000
       48955000	      4894	80004688	05380063	beq	x16,x19,800046c8	 x16:0x00000000 x19:0xfffffa39
       48965000	      4895	8000468c	01989833	sll	x16,x17,x25	 x17:0x000027ff x25:0x000027ff x16=0x80000000
       48975000	      4896	80004690	5ae47d37	lui	x26,0x5ae47	 x26=0x5ae47000
       48985000	      4897	80004694	9ed528b7	lui	x17,0x9ed52	 x17=0x9ed52000
       48995000	      4898	80004698	01791c33	sll	x24,x18,x23	 x18:0x00000001 x23:0x0000000d x24=0x00002000
       49005000	      4899	8000469c	000cfc63	bgeu	x25,x0,800046b4	 x25:0x000027ff  x0:0x00000000
       49015000	      4900	00000000	00000013	addi	x0,x0,0	  x0:0x00000000
       49025000	      4901	800046b0	00000013	addi	x0,x0,0	  x0:0x00000000
       49035000	      4902	800046b4	00c4f433	and	x8,x9,x12	  x9:0x00000000 x12:0x00000000  x8=0x00000000
       49045000	      4903	800046b8	512d2013	slti	x0,x26,1298	 x26:0x5ae47000
       49055000	      4904	800046bc	0340e863	bltu	x1,x20,800046ec	  x1:0x00000000 x20:0xcfc1d000
       49065000	      4905	00000000	00000013	addi	x0,x0,0	  x0:0x00000000
       49075000	      4906	800046e8	00000013	addi	x0,x0,0	  x0:0x00000000
       49085000	      4907	800046ec	00000013	addi	x0,x0,0	  x0:0x00000000
       49095000	      4908	800046f0	12906f13	ori	x30,x0,297	  x0:0x00000000 x30=0x00000129
       49105000	      4909	800046f4	db868913	addi	x18,x13,-584	 x13:0x8000a30a x18=0x8000a0c2
       49115000	      4910	800046f8	00dfb717	auipc	x14,0xdfb	 x14=0x80dff6f4
       49125000	      4911	800046fc	dbefd897	auipc	x17,0xdbefd	 x17=0x5bf016f8
       49135000	      4912	80004700	01cfca63	blt	x31,x28,80004714	 x31:0x00000001 x28:0xffffeade
       49145000	      4913	80004704	011d9093	slli	x1,x27,0x11	 x27:0x02fc538c  x1=0xa7180000
       49155000	      4914	80004708	04bec463	blt	x29,x11,80004750	 x29:0x02fc5100 x11:0x80009fc4
       49165000	      4915	8000470c	e9a32013	slti	x0,x6,-358	  x6:0x00000038
       49175000	      4916	80004710	01561663	bne	x12,x21,8000471c	 x12:0x00000000 x21:0x00000000
       49185000	      4917	80004714	050e8663	beq	x29,x16,80004760	 x29:0x02fc5100 x16:0x80000000
       49195000	      4918	80004718	00d1e863	bltu	x3,x13,80004728	  x3:0x00000001 x13:0x8000a30a
       49205000	      4919	00000000	00000013	addi	x0,x0,0	  x0:0x00000000
       49215000	      4920	80004724	00000013	addi	x0,x0,0	  x0:0x00000000
       49225000	      4921	80004728	409b5c33	sra	x24,x22,x9	 x22:0x004ffe01  x9:0x00000000 x24=0x004ffe01
       49235000	      4922	8000472c	001aa833	slt	x16,x21,x1	 x21:0x00000000  x1:0xa7180000 x16=0x00000000
       49245000	      4923	80004730	019e09b3	add	x19,x28,x25	 x28:0xffffeade x25:0x000027ff x19=0x000012dd
       49255000	      4924	80004734	7e1db093	sltiu	x1,x27,2017	 x27:0x02fc538c  x1=0x00000000
       49265000	      4925	80004738	00b5db13	srli	x22,x11,0xb	 x11:0x80009fc4 x22=0x00100013
       49275000	      4926	8000473c	008e5a63	bge	x28,x8,80004750	 x28:0xffffeade  x8:0x00000000
       49285000	      4927	80004740	014dda13	srli	x20,x27,0x14	 x27:0x02fc538c x20=0x0000002f
       49295000	      4928	80004744	02339463	bne	x7,x3,8000476c	  x7:0xffffffee  x3:0x00000001
       49305000	      4929	00000000	00000013	addi	x0,x0,0	  x0:0x00000000
       49315000	      4930	80004768	00000013	addi	x0,x0,0	  x0:0x00000000
       49325000	      4931	8000476c	01389c63	bne	x17,x19,80004784	 x17:0x5bf016f8 x19:0x000012dd
       49335000	      4932	00000000	00000013	addi	x0,x0,0	  x0:0x00000000
       49345000	      4933	80004780	00000013	addi	x0,x0,0	  x0:0x00000000
       49355000	      4934	80004784	01b40263	beq	x8,x27,80004788	  x8:0x00000000 x27:0x02fc538c
       49365000	      4935	80004788	955f2d13	slti	x26,x30,-1707	 x30:0x00000129 x26=0x00000000
       49375000	      4936	8000478c	410c0cb3	sub	x25,x24,x16	 x24:0x004ffe01 x16:0x00000000 x25=0x004ffe01
       49385000	      4937	80004790	00f48663	beq	x9,x15,8000479c	  x9:0x00000000 x15:0x02fc538d
       49395000	      4938	80004794	00000013	addi	x0,x0,0	  x0:0x00000000
       49405000	      4939	80004798	00b05663	bge	x0,x11,800047a4	  x0:0x00000000 x11:0x80009fc4
       49415000	      4940	00000000	00000013	addi	x0,x0,0	  x0:0x00000000
       49425000	      4941	800047a0	00000013	addi	x0,x0,0	  x0:0x00000000
       49435000	      4942	800047a4	01d3aeb3	slt	x29,x7,x29	  x7:0xffffffee x29:0x02fc5100 x29=0x00000001
       49445000	      4943	800047a8	f15fcf93	xori	x31,x31,-235	 x31:0x00000001 x31=0xffffff14
       49455000	      4944	800047ac	9135c993	xori	x19,x11,-1773	 x11:0x80009fc4 x19=0x7fff66d7
       49465000	      4945	800047b0	008769b3	or	x19,x14,x8	 x14:0x80dff6f4  x8:0x00000000 x19=0x80dff6f4
       49475000	      4946	800047b4	00000013	addi	x0,x0,0	  x0:0x00000000
       49485000	      4947	800047b8	001f8333	add	x6,x31,x1	 x31:0xffffff14  x1:0x00000000  x6=0xffffff14
       49495000	      4948	800047bc	266d8a93	addi	x21,x27,614	 x27:0x02fc538c x21=0x02fc55f2
       49505000	      4949	800047c0	8c1dc493	xori	x9,x27,-1855	 x27:0x02fc538c  x9=0xfd03ab4d
       49515000	      4950	800047c4	b85b8f13	addi	x30,x23,-1147	 x23:0x0000000d x30=0xfffffb92
       49525000	      4951	800047c8	410c8033	sub	x0,x25,x16	 x25:0x004ffe01 x16:0x00000000
       49535000	      4952	800047cc	01717663	bgeu	x2,x23,800047d8	  x2:0xfffff921 x23:0x0000000d
       49545000	      4953	00000000	00000013	addi	x0,x0,0	  x0:0x00000000
       49555000	      4954	800047d4	00000013	addi	x0,x0,0	  x0:0x00000000
       49565000	      4955	800047d8	75d32493	slti	x9,x6,1885	  x6:0xffffff14  x9=0x00000001
       49575000	      4956	800047dc	01e26833	or	x16,x4,x30	  x4:0x00000001 x30:0xfffffb92 x16=0xfffffb93
       49585000	      4957	800047e0	00587263	bgeu	x16,x5,800047e4	 x16:0xfffffb93  x5:0xffffdfb4
       49595000	      4958	00000000	00000013	addi	x0,x0,0	  x0:0x00000000
       49605000	      4959	800047e0	00000013	addi	x0,x0,0	  x0:0x00000000
       49615000	      4960	800047e4	afb4fb13	andi	x22,x9,-1285	  x9:0x00000001 x22=0x00000001
       49625000	      4961	800047e8	032a4863	blt	x20,x18,80004818	 x20:0x0000002f x18:0x8000a0c2
       49635000	      4962	800047ec	415c0e33	sub	x28,x24,x21	 x24:0x004ffe01 x21:0x02fc55f2 x28=0xfd53a80f
       49645000	      4963	800047f0	003fa6b3	slt	x13,x31,x3	 x31:0xffffff14  x3:0x00000001 x13=0x00000001
       49655000	      4964	800047f4	0101da63	bge	x3,x16,80004808	  x3:0x00000001 x16:0xfffffb93
       49665000	      4965	00000000	00000013	addi	x0,x0,0	  x0:0x00000000
       49675000	      4966	80004804	00000013	addi	x0,x0,0	  x0:0x00000000
       49685000	      4967	80004808	04200663	beq	x0,x2,80004854	  x0:0x00000000  x2:0xfffff921
       49695000	      4968	8000480c	2210b413	sltiu	x8,x1,545	  x1:0x00000000  x8=0x00000001
       49705000	      4969	80004810	0467e463	bltu	x15,x6,80004858	 x15:0x02fc538d  x6:0xffffff14
       49715000	      4970	00000000	00000013	addi	x0,x0,0	  x0:0x00000000
       49725000	      4971	80004854	00000013	addi	x0,x0,0	  x0:0x00000000
       49735000	      4972	80004858	f1303213	sltiu	x4,x0,-237	  x0:0x00000000  x4=0x00000001
       49745000	      4973	8000485c	410189b3	sub	x19,x3,x16	  x3:0x00000001 x16:0xfffffb93 x19=0x0000046e
       49755000	      4974	80004860	56563313	sltiu	x6,x12,1381	 x12:0x00000000  x6=0x00000001
       49765000	      4975	80004864	00dee8b3	or	x17,x29,x13	 x29:0x00000001 x13:0x00000001 x17=0x00000001
       49775000	      4976	80004868	40d60933	sub	x18,x12,x13	 x12:0x00000000 x13:0x00000001 x18=0xffffffff
       49785000	      4977	8000486c	01f74eb3	xor	x29,x14,x31	 x14:0x80dff6f4 x31:0xffffff14 x29=0x7f2009e0
       49795000	      4978	80004870	0369f263	bgeu	x19,x22,80004894	 x19:0x0000046e x22:0x00000001
       49805000	      4979	00000000	00000013	addi	x0,x0,0	  x0:0x00000000
       49815000	      4980	80004890	00000013	addi	x0,x0,0	  x0:0x00000000
       49825000	      4981	80004894	41740133	sub	x2,x8,x23	  x8:0x00000001 x23:0x0000000d  x2=0xfffffff4
       49835000	      4982	80004898	40100433	sub	x8,x0,x1	  x0:0x00000000  x1:0x00000000  x8=0x00000000
       49845000	      4983	8000489c	5f833817	auipc	x16,0x5f833	 x16=0xdf837898
       49855000	      4984	800048a0	9cbfe737	lui	x14,0x9cbfe	 x14=0x9cbfe000
       49865000	      4985	800048a4	d79662b7	lui	x5,0xd7966	  x5=0xd7966000
       49875000	      4986	800048a8	a9516997	auipc	x19,0xa9516	 x19=0x2951a8a4
       49885000	      4987	800048ac	407cd433	sra	x8,x25,x7	 x25:0x004ffe01  x7:0xffffffee  x8=0x0000013f
       49895000	      4988	800048b0	00b0d493	srli	x9,x1,0xb	  x1:0x00000000  x9=0x00000000
       49905000	      4989	800048b4	007b71b3	and	x3,x22,x7	 x22:0x00000001  x7:0xffffffee  x3=0x00000000
       49915000	      4990	800048b8	040bc463	blt	x23,x0,80004900	 x23:0x0000000d  x0:0x00000000
       49925000	      4991	800048bc	0078ceb3	xor	x29,x17,x7	 x17:0x00000001  x7:0xffffffee x29=0xffffffef
       49935000	      4992	800048c0	41b2df33	sra	x30,x5,x27	  x5:0xd7966000 x27:0x02fc538c x30=0xfffd7966
       49945000	      4993	800048c4	00000013	addi	x0,x0,0	  x0:0x00000000
       49955000	      4994	800048c8	b3202a93	slti	x21,x0,-1230	  x0:0x00000000 x21=0x00000000
       49965000	      4995	800048cc	04005063	bge	x0,x0,8000490c	  x0:0x00000000  x0:0x00000000
       49975000	      4996	00000000	00000013	addi	x0,x0,0	  x0:0x00000000
       49985000	      4997	80004908	00000013	addi	x0,x0,0	  x0:0x00000000
       49995000	      4998	8000490c	b6fe7117	auipc	x2,0xb6fe7	  x2=0x36feb908
       50005000	      4999	80004910	0020ad33	slt	x26,x1,x2	  x1:0x00000000  x2:0x36feb908 x26=0x00000001
       50015000	      5000	80004914	0032a133	slt	x2,x5,x3	  x5:0xd7966000  x3:0x00000000  x2=0x00000001
       50025000	      5001	80004918	98038913	addi	x18,x7,-1664	  x7:0xffffffee x18=0xfffff96e
       50035000	      5002	8000491c	01bdfeb3	and	x29,x27,x27	 x27:0x02fc538c x27:0x02fc538c x29=0x02fc538c
       50045000	      5003	80004920	007c1913	slli	x18,x24,0x7	 x24:0x004ffe01 x18=0x27ff0080
       50055000	      5004	80004924	004ce733	or	x14,x25,x4	 x25:0x004ffe01  x4:0x00000001 x14=0x004ffe01
       50065000	      5005	80004928	03984c63	blt	x16,x25,80004960	 x16:0xdf837898 x25:0x004ffe01
       50075000	      5006	00000000	00000013	addi	x0,x0,0	  x0:0x00000000
       50085000	      5007	8000495c	00000013	addi	x0,x0,0	  x0:0x00000000
       50095000	      5008	80004960	01d5cd33	xor	x26,x11,x29	 x11:0x80009fc4 x29:0x02fc538c x26=0x82fccc48
       50105000	      5009	80004964	03ade263	bltu	x27,x26,80004988	 x27:0x02fc538c x26:0x82fccc48
       50115000	      5010	00000000	00000013	addi	x0,x0,0	  x0:0x00000000
       50125000	      5011	80004984	00000013	addi	x0,x0,0	  x0:0x00000000
       50135000	      5012	80004988	0195aa33	slt	x20,x11,x25	 x11:0x80009fc4 x25:0x004ffe01 x20=0x00000001
       50145000	      5013	8000498c	05a90663	beq	x18,x26,800049d8	 x18:0x27ff0080 x26:0x82fccc48
       50155000	      5014	80004990	016bd933	srl	x18,x23,x22	 x23:0x0000000d x22:0x00000001 x18=0x00000006
       50165000	      5015	80004994	00e8f263	bgeu	x17,x14,80004998	 x17:0x00000001 x14:0x004ffe01
       50175000	      5016	80004998	fdee6d13	ori	x26,x28,-34	 x28:0xfd53a80f x26=0xffffffdf
       50185000	      5017	8000499c	018d1e33	sll	x28,x26,x24	 x26:0xffffffdf x24:0x004ffe01 x28=0xffffffbe
       50195000	      5018	800049a0	00891663	bne	x18,x8,800049ac	 x18:0x00000006  x8:0x0000013f
       50205000	      5019	00000000	00000013	addi	x0,x0,0	  x0:0x00000000
       50215000	      5020	800049a8	00000013	addi	x0,x0,0	  x0:0x00000000
       50225000	      5021	800049ac	01e27033	and	x0,x4,x30	  x4:0x00000001 x30:0xfffd7966
       50235000	      5022	800049b0	418ed0b3	sra	x1,x29,x24	 x29:0x02fc538c x24:0x004ffe01  x1=0x017e29c6
       50245000	      5023	800049b4	008592b3	sll	x5,x11,x8	 x11:0x80009fc4  x8:0x0000013f  x5=0x00000000
       50255000	      5024	800049b8	a251bf93	sltiu	x31,x3,-1499	  x3:0x00000000 x31=0x00000001
       50265000	      5025	800049bc	3cb2bd13	sltiu	x26,x5,971	  x5:0x00000000 x26=0x00000001
       50275000	      5026	800049c0	41305833	sra	x16,x0,x19	  x0:0x00000000 x19:0x2951a8a4 x16=0x00000000
       50285000	      5027	800049c4	01b5df33	srl	x30,x11,x27	 x11:0x80009fc4 x27:0x02fc538c x30=0x00080009
       50295000	      5028	800049c8	3bfcacb7	lui	x25,0x3bfca	 x25=0x3bfca000
       50305000	      5029	800049cc	4098d693	srai	x13,x17,0x9	 x17:0x00000001 x13=0x00000000
       50315000	      5030	800049d0	ba241017	auipc	x0,0xba241	
       50325000	      5031	800049d4	01e6d263	bge	x13,x30,800049d8	 x13:0x00000000 x30:0x00080009
       50335000	      5032	800049d8	a354af93	slti	x31,x9,-1483	  x9:0x00000000 x31=0x00000000
       50345000	      5033	800049dc	023a4863	blt	x20,x3,80004a0c	 x20:0x00000001  x3:0x00000000
       50355000	      5034	800049e0	14b78193	addi	x3,x15,331	 x15:0x02fc538d  x3=0x02fc54d8
       50365000	      5035	800049e4	00429733	sll	x14,x5,x4	  x5:0x00000000  x4:0x00000001 x14=0x00000000
       50375000	      5036	800049e8	04cfc6b7	lui	x13,0x4cfc	 x13=0x04cfc000
       50385000	      5037	800049ec	41ac0733	sub	x14,x24,x26	 x24:0x004ffe01 x26:0x00000001 x14=0x004ffe00
       50395000	      5038	800049f0	00151493	slli	x9,x10,0x1	 x10:0x80009f28  x9=0x00013e50
       50405000	      5039	800049f4	01123db3	sltu	x27,x4,x17	  x4:0x00000001 x17:0x00000001 x27=0x00000000
       50415000	      5040	800049f8	00835fb3	srl	x31,x6,x8	  x6:0x00000001  x8:0x0000013f x31=0x00000000
       50425000	      5041	800049fc	014c74b3	and	x9,x24,x20	 x24:0x004ffe01 x20:0x00000001  x9=0x00000001
       50435000	      5042	80004a00	008b5c63	bge	x22,x8,80004a18	 x22:0x00000001  x8:0x0000013f
       50445000	      5043	80004a04	412356b3	sra	x13,x6,x18	  x6:0x00000001 x18:0x00000006 x13=0x00000000
       50455000	      5044	80004a08	009198b3	sll	x17,x3,x9	  x3:0x02fc54d8  x9:0x00000001 x17=0x05f8a9b0
       50465000	      5045	80004a0c	00309d33	sll	x26,x1,x3	  x1:0x017e29c6  x3:0x02fc54d8 x26=0xc6000000
       50475000	      5046	80004a10	de578e13	addi	x28,x15,-539	 x15:0x02fc538d x28=0x02fc5172
       50485000	      5047	80004a14	0fd6f263	bgeu	x13,x29,80004af8	 x13:0x00000000 x29:0x02fc538c
       50495000	      5048	80004a18	403c5133	sra	x2,x24,x3	 x24:0x004ffe01  x3:0x02fc54d8  x2=0x00000000
       50505000	      5049	80004a1c	41b580b3	sub	x1,x11,x27	 x11:0x80009fc4 x27:0x00000000  x1=0x80009fc4
       50515000	      5050	80004a20	40df5433	sra	x8,x30,x13	 x30:0x00080009 x13:0x00000000  x8=0x00080009
       50525000	      5051	80004a24	e5463293	sltiu	x5,x12,-428	 x12:0x00000000  x5=0x00000001
       50535000	      5052	80004a28	90f57093	andi	x1,x10,-1777	 x10:0x80009f28  x1=0x80009908
       50545000	      5053	80004a2c	00003a97	auipc	x21,0x3	 x21=0x80007a28
       50555000	      5054	80004a30	6b6a8a93	addi	x21,x21,1718	 x21:0x80007a28 x21=0x800080de
       50565000	      5055	80004a34	ffdacf83	lbu	x31,-3(x21)	 x21:0x800080de x31=0x00000000 PA:0x800080db
       50575000	      5056	80004a38	008a8e83	lb	x29,8(x21)	 x21:0x800080de x29=0xffffffe4 PA:0x800080e6
       50585000	      5057	80004a3c	ffaa9283	lh	x5,-6(x21)	 x21:0x800080de  x5=0xffffd139 PA:0x800080d8
       50595000	      5058	80004a40	00000013	addi	x0,x0,0	  x0:0x00000000
       50605000	      5059	80004a44	4125d733	sra	x14,x11,x18	 x11:0x80009fc4 x18:0x00000006 x14=0xfe00027f
       50615000	      5060	80004a48	0037d313	srli	x6,x15,0x3	 x15:0x02fc538d  x6=0x005f8a71
       50625000	      5061	80004a4c	00da80a3	sb	x13,1(x21)	 x21:0x800080de x13:0x00000000 PA:0x800080df
       50635000	      5062	80004a50	005acf03	lbu	x30,5(x21)	 x21:0x800080de x30=0x00000000 PA:0x800080e3
       50645000	      5063	80004a54	00aa81a3	sb	x10,3(x21)	 x21:0x800080de x10:0x80009f28 PA:0x800080e1
       50655000	      5064	80004a58	ffcadd83	lhu	x27,-4(x21)	 x21:0x800080de x27=0x00000093 PA:0x800080da
       50665000	      5065	80004a5c	000a8983	lb	x19,0(x21)	 x21:0x800080de x19=0xffffffbb PA:0x800080de
       50675000	      5066	80004a60	005a8783	lb	x15,5(x21)	 x21:0x800080de x15=0x00000000 PA:0x800080e3
       50685000	      5067	80004a64	00d892b3	sll	x5,x17,x13	 x17:0x05f8a9b0 x13:0x00000000  x5=0x05f8a9b0
       50695000	      5068	80004a68	01605d13	srli	x26,x0,0x16	  x0:0x00000000 x26=0x00000000
       50705000	      5069	80004a6c	00583c33	sltu	x24,x16,x5	 x16:0x00000000  x5:0x05f8a9b0 x24=0x00000001
       50715000	      5070	80004a70	002ac903	lbu	x18,2(x21)	 x21:0x800080de x18=0x0000004a PA:0x800080e0
       50725000	      5071	80004a74	ffaa9b03	lh	x22,-6(x21)	 x21:0x800080de x22=0xffffd139 PA:0x800080d8
       50735000	      5072	80004a78	00d5e133	or	x2,x11,x13	 x11:0x80009fc4 x13:0x00000000  x2=0x80009fc4
       50745000	      5073	80004a7c	fe2a89a3	sb	x2,-13(x21)	 x21:0x800080de  x2:0x80009fc4 PA:0x800080d1
       50755000	      5074	80004a80	d9566f17	auipc	x30,0xd9566	 x30=0x5956aa7c
       50765000	      5075	80004a84	40365233	sra	x4,x12,x3	 x12:0x00000000  x3:0x02fc54d8  x4=0x00000000
       50775000	      5076	80004a88	ff5a8ea3	sb	x21,-3(x21)	 x21:0x800080de x21:0x800080de PA:0x800080db
       50785000	      5077	80004a8c	00c78a33	add	x20,x15,x12	 x15:0x00000000 x12:0x00000000 x20=0x00000000
       50795000	      5078	80004a90	ff7ac103	lbu	x2,-9(x21)	 x21:0x800080de  x2=0x000000fb PA:0x800080d5
       50805000	      5079	80004a94	fe5a8f23	sb	x5,-2(x21)	 x21:0x800080de  x5:0x05f8a9b0 PA:0x800080dc
       50815000	      5080	80004a98	e92f24b7	lui	x9,0xe92f2	  x9=0xe92f2000
       50825000	      5081	80004a9c	4ec410b7	lui	x1,0x4ec41	  x1=0x4ec41000
       50835000	      5082	80004aa0	43938193	addi	x3,x7,1081	  x7:0xffffffee  x3=0x00000427
       50845000	      5083	80004aa4	00000013	addi	x0,x0,0	  x0:0x00000000
       50855000	      5084	80004aa8	00000013	addi	x0,x0,0	  x0:0x00000000
       50865000	      5085	80004aac	37adb413	sltiu	x8,x27,890	 x27:0x00000093  x8=0x00000001
       50875000	      5086	80004ab0	ffaa8ea3	sb	x26,-3(x21)	 x21:0x800080de x26:0x00000000 PA:0x800080db
       50885000	      5087	80004ab4	00bb81b3	add	x3,x23,x11	 x23:0x0000000d x11:0x80009fc4  x3=0x80009fd1
       50895000	      5088	80004ab8	9b570713	addi	x14,x14,-1611	 x14:0xfe00027f x14=0xfdfffc34
       50905000	      5089	80004abc	d662a213	slti	x4,x5,-666	  x5:0x05f8a9b0  x4=0x00000000
       50915000	      5090	80004ac0	21f64313	xori	x6,x12,543	 x12:0x00000000  x6=0x0000021f
       50925000	      5091	80004ac4	00000013	addi	x0,x0,0	  x0:0x00000000
       50935000	      5092	80004ac8	ff1acd03	lbu	x26,-15(x21)	 x21:0x800080de x26=0x0000001c PA:0x800080cf
       50945000	      5093	80004acc	005a82a3	sb	x5,5(x21)	 x21:0x800080de  x5:0x05f8a9b0 PA:0x800080e3
       50955000	      5094	80004ad0	007a8783	lb	x15,7(x21)	 x21:0x800080de x15=0xffffffc7 PA:0x800080e5
       50965000	      5095	80004ad4	e2ee6413	ori	x8,x28,-466	 x28:0x02fc5172  x8=0xffffff7e
       50975000	      5096	80004ad8	00fa85a3	sb	x15,11(x21)	 x21:0x800080de x15:0xffffffc7 PA:0x800080e9
       50985000	      5097	80004adc	0024f263	bgeu	x9,x2,80004ae0	  x9:0xe92f2000  x2:0x000000fb
       50995000	      5098	00000000	00000013	addi	x0,x0,0	  x0:0x00000000
       51005000	      5099	80004adc	00000013	addi	x0,x0,0	  x0:0x00000000
       51015000	      5100	80004ae0	00cce6b3	or	x13,x25,x12	 x25:0x3bfca000 x12:0x00000000 x13=0x3bfca000
       51025000	      5101	80004ae4	003f7a63	bgeu	x30,x3,80004af8	 x30:0x5956aa7c  x3:0x80009fd1
       51035000	      5102	80004ae8	40a15413	srai	x8,x2,0xa	  x2:0x000000fb  x8=0x00000000
       51045000	      5103	80004aec	40b2d6b3	sra	x13,x5,x11	  x5:0x05f8a9b0 x11:0x80009fc4 x13=0x005f8a9b
       51055000	      5104	80004af0	e74708b7	lui	x17,0xe7470	 x17=0xe7470000
       51065000	      5105	80004af4	39a6a013	slti	x0,x13,922	 x13:0x005f8a9b
       51075000	      5106	80004af8	418450b3	sra	x1,x8,x24	  x8:0x00000000 x24:0x00000001  x1=0x00000000
       51085000	      5107	80004afc	00452a03	lw	x20,4(x10)	 x10:0x80009f28 x20=0x800050c0 PA:0x80009f2c
       51095000	      5108	80004b00	01aedeb3	srl	x29,x29,x26	 x29:0xffffffe4 x26:0x0000001c x29=0x0000000f
       51105000	      5109	80004b04	00154f33	xor	x30,x10,x1	 x10:0x80009f28  x1:0x00000000 x30=0x80009f28
       51115000	      5110	80004b08	00c50513	addi	x10,x10,12	 x10:0x80009f28 x10=0x80009f34
       51125000	      5111	80004b0c	01e45313	srli	x6,x8,0x1e	  x8:0x00000000  x6=0x00000000
       51135000	      5112	80004b10	001a0c93	addi	x25,x20,1	 x20:0x800050c0 x25=0x800050c1
       51145000	      5113	80004b14	000c8ce7	jalr	x25,x25,0	 x25:0x800050c1 x25=0x80004b14
       51155000	      5114	00000000	00000013	addi	x0,x0,0	  x0:0x00000000
       51165000	      5115	800050c0	00000013	addi	x0,x0,0	  x0:0x00000000
       51175000	      5116	800050c4	01495e63	bge	x18,x20,800050e0	 x18:0x0000004a x20:0x800050c0
       51185000	      5117	00000000	00000013	addi	x0,x0,0	  x0:0x00000000
       51195000	      5118	800050dc	00000013	addi	x0,x0,0	  x0:0x00000000
       51205000	      5119	800050e0	c59fea6f	jal	x20,800050e0	 x20=0x800050e0
       51215000	      5120	00000000	00000013	addi	x0,x0,0	  x0:0x00000000
       51225000	      5121	80003d34	00000013	addi	x0,x0,0	  x0:0x00000000
       51235000	      5122	80003d38	ff450513	addi	x10,x10,-12	 x10:0x80009f34 x10=0x80009f28
       51245000	      5123	80003d3c	0c243393	sltiu	x7,x8,194	  x8:0x00000000  x7=0x00000001
       51255000	      5124	80003d40	41f1d033	sra	x0,x3,x31	  x3:0x80009fd1 x31:0x00000000
       51265000	      5125	80003d44	ed162d13	slti	x26,x12,-303	 x12:0x00000000 x26=0x00000000
       51275000	      5126	80003d48	00db5d13	srli	x26,x22,0xd	 x22:0xffffd139 x26=0x0007fffe
       51285000	      5127	80003d4c	01452223	sw	x20,4(x10)	 x10:0x80009f28 x20:0x800050e0 PA:0x80009f2c
       51295000	      5128	80003d50	4026d693	srai	x13,x13,0x2	 x13:0x005f8a9b x13=0x0017e2a6
       51305000	      5129	80003d54	015bb333	sltu	x6,x23,x21	 x23:0x0000000d x21:0x800080de  x6=0x00000001
       51315000	      5130	80003d58	00d61d13	slli	x26,x12,0xd	 x12:0x00000000 x26=0x00000000
       51325000	      5131	80003d5c	01a49113	slli	x2,x9,0x1a	  x9:0xe92f2000  x2=0x00000000
       51335000	      5132	80003d60	00005117	auipc	x2,0x5	  x2=0x80008d5c
       51345000	      5133	80003d64	a2510113	addi	x2,x2,-1499	  x2:0x80008d5c  x2=0x80008781
       51355000	      5134	80003d68	b4d11e83	lh	x29,-1203(x2)	  x2:0x80008781 x29=0xffffc2a2 PA:0x800082ce
       51365000	      5135	80003d6c	018aeb33	or	x22,x21,x24	 x21:0x800080de x24:0x00000001 x22=0x800080df
       51375000	      5136	80003d70	0147f6b3	and	x13,x15,x20	 x15:0xffffffc7 x20:0x800050e0 x13=0x800050c0
       51385000	      5137	80003d74	b766e717	auipc	x14,0xb766e	 x14=0x37671d70
       51395000	      5138	80003d78	00502433	slt	x8,x0,x5	  x0:0x00000000  x5:0x05f8a9b0  x8=0x00000001
       51405000	      5139	80003d7c	76f18493	addi	x9,x3,1903	  x3:0x80009fd1  x9=0x8000a740
       51415000	      5140	80003d80	b8312a83	lw	x21,-1149(x2)	  x2:0x80008781 x21=0xc0fb95ba PA:0x80008304
       51425000	      5141	00000000	00000013	addi	x0,x0,0	  x0:0x00000000
       51435000	      5142	80003d84	d1511203	lh	x4,-747(x2)	  x2:0x80008781  x4=0xffffc8d4 PA:0x80008496
       51445000	      5143	80003d88	015ed833	srl	x16,x29,x21	 x29:0xffffc2a2 x21:0xc0fb95ba x16=0x0000003f
       51455000	      5144	80003d8c	4132db33	sra	x22,x5,x19	  x5:0x05f8a9b0 x19:0xffffffbb x22=0x00000000
       51465000	      5145	80003d90	bb2f3493	sltiu	x9,x30,-1102	 x30:0x80009f28  x9=0x00000001
       51475000	      5146	80003d94	007309b3	add	x19,x6,x7	  x6:0x00000001  x7:0x00000001 x19=0x00000002
       51485000	      5147	80003d98	00066e33	or	x28,x12,x0	 x12:0x00000000  x0:0x00000000 x28=0x00000000
       51495000	      5148	80003d9c	0144be33	sltu	x28,x9,x20	  x9:0x00000001 x20:0x800050e0 x28=0x00000001
       51505000	      5149	80003da0	41860333	sub	x6,x12,x24	 x12:0x00000000 x24:0x00000001  x6=0xffffffff
       51515000	      5150	80003da4	904107a3	sb	x4,-1777(x2)	  x2:0x80008781  x4:0xffffc8d4 PA:0x80008090
       51525000	      5151	80003da8	af810683	lb	x13,-1288(x2)	  x2:0x80008781 x13=0xffffff88 PA:0x80008279
       51535000	      5152	80003dac	02014083	lbu	x1,32(x2)	  x2:0x80008781  x1=0x00000000 PA:0x800087a1
       51545000	      5153	80003db0	bd514f03	lbu	x30,-1067(x2)	  x2:0x80008781 x30=0x00000004 PA:0x80008356
       51555000	      5154	80003db4	9c710d83	lb	x27,-1593(x2)	  x2:0x80008781 x27=0x0000000d PA:0x80008148
       51565000	      5155	80003db8	00c89733	sll	x14,x17,x12	 x17:0xe7470000 x12:0x00000000 x14=0xe7470000
       51575000	      5156	80003dbc	00000013	addi	x0,x0,0	  x0:0x00000000
       51585000	      5157	80003dc0	c6410a83	lb	x21,-924(x2)	  x2:0x80008781 x21=0x00000046 PA:0x800083e5
       51595000	      5158	80003dc4	3ee73ab7	lui	x21,0x3ee73	 x21=0x3ee73000
       51605000	      5159	80003dc8	be433a13	sltiu	x20,x6,-1052	  x6:0xffffffff x20=0x00000000
       51615000	      5160	80003dcc	98111283	lh	x5,-1663(x2)	  x2:0x80008781  x5=0xfffffcad PA:0x80008102
       51625000	      5161	80003dd0	ef814f03	lbu	x30,-264(x2)	  x2:0x80008781 x30=0x00000011 PA:0x80008679
       51635000	      5162	80003dd4	ee312fa3	sw	x3,-257(x2)	  x2:0x80008781  x3:0x80009fd1 PA:0x80008680
       51645000	      5163	80003dd8	dc614e03	lbu	x28,-570(x2)	  x2:0x80008781 x28=0x00000079 PA:0x80008547
       51655000	      5164	80003ddc	0042f8b3	and	x17,x5,x4	  x5:0xfffffcad  x4:0xffffc8d4 x17=0xffffc884
       51665000	      5165	80003de0	01cabd33	sltu	x26,x21,x28	 x21:0x3ee73000 x28:0x00000079 x26=0x00000000
       51675000	      5166	80003de4	1feb2693	slti	x13,x22,510	 x22:0x00000000 x13=0x00000001
       51685000	      5167	80003de8	92c105a3	sb	x12,-1749(x2)	  x2:0x80008781 x12:0x00000000 PA:0x800080ac
       51695000	      5168	80003dec	8e511203	lh	x4,-1819(x2)	  x2:0x80008781  x4=0x000045e3 PA:0x80008066
       51705000	      5169	80003df0	d3714203	lbu	x4,-713(x2)	  x2:0x80008781  x4=0x00000049 PA:0x800084b8
       51715000	      5170	80003df4	00004117	auipc	x2,0x4	  x2=0x80007df0
       51725000	      5171	80003df8	33910113	addi	x2,x2,825	  x2:0x80007df0  x2=0x80008129
       51735000	      5172	80003dfc	7dd31917	auipc	x18,0x7dd31	 x18=0xfdd34df8
       51745000	      5173	80003e00	416d0e33	sub	x28,x26,x22	 x26:0x00000000 x22:0x00000000 x28=0x00000000
       51755000	      5174	80003e04	03d15803	lhu	x16,61(x2)	  x2:0x80008129 x16=0x00000d52 PA:0x80008166
       51765000	      5175	80003e08	cd696193	ori	x3,x18,-810	 x18:0xfdd34df8  x3=0xfffffdfe
       51775000	      5176	80003e0c	0cb15883	lhu	x17,203(x2)	  x2:0x80008129 x17=0x0000a165 PA:0x800081f4
       51785000	      5177	80003e10	fc712603	lw	x12,-57(x2)	  x2:0x80008129 x12=0x7778af61 PA:0x800080f0
       51795000	      5178	80003e14	0bb10223	sb	x27,164(x2)	  x2:0x80008129 x27:0x0000000d PA:0x800081cd
       51805000	      5179	80003e18	0f810d03	lb	x26,248(x2)	  x2:0x80008129 x26=0xffffffd2 PA:0x80008221
       51815000	      5180	80003e1c	03710923	sb	x23,50(x2)	  x2:0x80008129 x23:0x0000000d PA:0x8000815b
       51825000	      5181	80003e20	9751d037	lui	x0,0x9751d	
       51835000	      5182	80003e24	fbb10783	lb	x15,-69(x2)	  x2:0x80008129 x15=0x0000002b PA:0x800080e4
       51845000	      5183	80003e28	05414b03	lbu	x22,84(x2)	  x2:0x80008129 x22=0x000000bb PA:0x8000817d
       51855000	      5184	80003e2c	03410803	lb	x16,52(x2)	  x2:0x80008129 x16=0xffffffb5 PA:0x8000815d
       51865000	      5185	80003e30	403687b3	sub	x15,x13,x3	 x13:0x00000001  x3:0xfffffdfe x15=0x00000203
       51875000	      5186	80003e34	4068d713	srai	x14,x17,0x6	 x17:0x0000a165 x14=0x00000285
       51885000	      5187	80003e38	02510b23	sb	x5,54(x2)	  x2:0x80008129  x5:0xfffffcad PA:0x8000815f
       51895000	      5188	80003e3c	32d93493	sltiu	x9,x18,813	 x18:0xfdd34df8  x9=0x00000000
       51905000	      5189	80003e40	fdc10923	sb	x28,-46(x2)	  x2:0x80008129 x28:0x00000000 PA:0x800080fb
       51915000	      5190	80003e44	01711fa3	sh	x23,31(x2)	  x2:0x80008129 x23:0x0000000d PA:0x80008148
       51925000	      5191	80003e48	f8e14303	lbu	x6,-114(x2)	  x2:0x80008129  x6=0x000000e4 PA:0x800080b7
       51935000	      5192	80003e4c	00a10303	lb	x6,10(x2)	  x2:0x80008129  x6=0x00000005 PA:0x80008133
       51945000	      5193	80003e50	24050713	addi	x14,x10,576	 x10:0x80009f28 x14=0x8000a168
       51955000	      5194	80003e54	05814483	lbu	x9,88(x2)	  x2:0x80008129  x9=0x000000a7 PA:0x80008181
       51965000	      5195	80003e58	1ada9c97	auipc	x25,0x1ada9	 x25=0x9adace54
       51975000	      5196	80003e5c	05614683	lbu	x13,86(x2)	  x2:0x80008129 x13=0x000000a4 PA:0x8000817f
       51985000	      5197	80003e60	f36a7db7	lui	x27,0xf36a7	 x27=0xf36a7000
       51995000	      5198	80003e64	4143d993	srai	x19,x7,0x14	  x7:0x00000001 x19=0x00000000
       52005000	      5199	80003e68	0d914883	lbu	x17,217(x2)	  x2:0x80008129 x17=0x0000006e PA:0x80008202
       52015000	      5200	80003e6c	ffd114a3	sh	x29,-23(x2)	  x2:0x80008129 x29:0xffffc2a2 PA:0x80008112
       52025000	      5201	80003e70	40acdf13	srai	x30,x25,0xa	 x25:0x9adace54 x30=0xffe6b6b3
       52035000	      5202	80003e74	02d10403	lb	x8,45(x2)	  x2:0x80008129  x8=0x0000003e PA:0x80008156
       52045000	      5203	80003e78	01649793	slli	x15,x9,0x16	  x9:0x000000a7 x15=0x29c00000
       52055000	      5204	80003e7c	fba10883	lb	x17,-70(x2)	  x2:0x80008129 x17=0xffffffb0 PA:0x800080e3
       52065000	      5205	80003e80	416484b3	sub	x9,x9,x22	  x9:0x000000a7 x22:0x000000bb  x9=0xffffffec
       52075000	      5206	80003e84	04014f83	lbu	x31,64(x2)	  x2:0x80008129 x31=0x00000015 PA:0x80008169
       52085000	      5207	80003e88	00478733	add	x14,x15,x4	 x15:0x29c00000  x4:0x00000049 x14=0x29c00049
       52095000	      5208	80003e8c	90df0297	auipc	x5,0x90df0	  x5=0x10df3e88
       52105000	      5209	80003e90	fb914483	lbu	x9,-71(x2)	  x2:0x80008129  x9=0x00000027 PA:0x800080e2
       52115000	      5210	80003e94	01c5dcb3	srl	x25,x11,x28	 x11:0x80009fc4 x28:0x00000000 x25=0x80009fc4
       52125000	      5211	80003e98	ff410823	sb	x20,-16(x2)	  x2:0x80008129 x20:0x00000000 PA:0x80008119
       52135000	      5212	80003e9c	fc715a03	lhu	x20,-57(x2)	  x2:0x80008129 x20=0x0000af61 PA:0x800080f0
       52145000	      5213	00000000	00000013	addi	x0,x0,0	  x0:0x00000000
       52155000	      5214	80003ea0	f7410b23	sb	x20,-138(x2)	  x2:0x80008129 x20:0x0000af61 PA:0x8000809f
       52165000	      5215	80003ea4	f3f123a3	sw	x31,-217(x2)	  x2:0x80008129 x31:0x00000015 PA:0x80008050
       52175000	      5216	80003ea8	0fb15303	lhu	x6,251(x2)	  x2:0x80008129  x6=0x0000c7f2 PA:0x80008224
       52185000	      5217	80003eac	00005117	auipc	x2,0x5	  x2=0x80008ea8
       52195000	      5218	80003eb0	90910113	addi	x2,x2,-1783	  x2:0x80008ea8  x2=0x800087b1
       52205000	      5219	80003eb4	06583613	sltiu	x12,x16,101	 x16:0xffffffb5 x12=0x00000000
       52215000	      5220	80003eb8	00915803	lhu	x16,9(x2)	  x2:0x800087b1 x16=0x00006c76 PA:0x800087ba
       52225000	      5221	80003ebc	03210723	sb	x18,46(x2)	  x2:0x800087b1 x18:0xfdd34df8 PA:0x800087df
       52235000	      5222	80003ec0	fd712283	lw	x5,-41(x2)	  x2:0x800087b1  x5=0xb4b47e0a PA:0x80008788
       52245000	      5223	80003ec4	41de83b3	sub	x7,x29,x29	 x29:0xffffc2a2 x29:0xffffc2a2  x7=0x00000000
       52255000	      5224	80003ec8	74972e93	slti	x29,x14,1865	 x14:0x29c00049 x29=0x00000000
       52265000	      5225	80003ecc	0054d733	srl	x14,x9,x5	  x9:0x00000027  x5:0xb4b47e0a x14=0x00000000
       52275000	      5226	80003ed0	00b12d83	lw	x27,11(x2)	  x2:0x800087b1 x27=0xe8351201 PA:0x800087bc
       52285000	      5227	80003ed4	fc911903	lh	x18,-55(x2)	  x2:0x800087b1 x18=0xffff863a PA:0x8000877a
       52295000	      5228	80003ed8	00a10023	sb	x10,0(x2)	  x2:0x800087b1 x10:0x80009f28 PA:0x800087b1
       52305000	      5229	80003edc	40b7d9b3	sra	x19,x15,x11	 x15:0x29c00000 x11:0x80009fc4 x19=0x029c0000
       52315000	      5230	80003ee0	001b91b3	sll	x3,x23,x1	 x23:0x0000000d  x1:0x00000000  x3=0x0000000d
       52325000	      5231	80003ee4	402359b3	sra	x19,x6,x2	  x6:0x0000c7f2  x2:0x800087b1 x19=0x00000000
       52335000	      5232	80003ee8	ff012ba3	sw	x16,-9(x2)	  x2:0x800087b1 x16:0x00006c76 PA:0x800087a8
       52345000	      5233	80003eec	00da3f33	sltu	x30,x20,x13	 x20:0x0000af61 x13:0x000000a4 x30=0x00000000
       52355000	      5234	80003ef0	40a704b3	sub	x9,x14,x10	 x14:0x00000000 x10:0x80009f28  x9=0x7fff60d8
       52365000	      5235	80003ef4	622e3913	sltiu	x18,x28,1570	 x28:0x00000000 x18=0x00000001
       52375000	      5236	80003ef8	d23db317	auipc	x6,0xd23db	  x6=0x523deef4
       52385000	      5237	80003efc	01410223	sb	x20,4(x2)	  x2:0x800087b1 x20:0x0000af61 PA:0x800087b5
       52395000	      5238	80003f00	00680233	add	x4,x16,x6	 x16:0x00006c76  x6:0x523deef4  x4=0x523e5b6a
       52405000	      5239	80003f04	177af793	andi	x15,x21,375	 x21:0x3ee73000 x15=0x00000000
       52415000	      5240	80003f08	fc410b03	lb	x22,-60(x2)	  x2:0x800087b1 x22=0x00000031 PA:0x80008775
       52425000	      5241	80003f0c	01bbe4b3	or	x9,x23,x27	 x23:0x0000000d x27:0xe8351201  x9=0xe835120d
       52435000	      5242	80003f10	be910c93	addi	x25,x2,-1047	  x2:0x800087b1 x25=0x8000839a
       52445000	      5243	80003f14	03610ea3	sb	x22,61(x2)	  x2:0x800087b1 x22:0x00000031 PA:0x800087ee
       52455000	      5244	80003f18	f6044493	xori	x9,x8,-160	  x8:0x0000003e  x9=0xffffff5e
       52465000	      5245	80003f1c	4c03ec93	ori	x25,x7,1216	  x7:0x00000000 x25=0x000004c0
       52475000	      5246	80003f20	f24b0a13	addi	x20,x22,-220	 x22:0x00000031 x20=0xffffff55
       52485000	      5247	80003f24	fe010703	lb	x14,-32(x2)	  x2:0x800087b1 x14=0x00000050 PA:0x80008791
       52495000	      5248	80003f28	fe3101a3	sb	x3,-29(x2)	  x2:0x800087b1  x3:0x0000000d PA:0x80008794
       52505000	      5249	80003f2c	00005117	auipc	x2,0x5	  x2=0x80008f28
       52515000	      5250	80003f30	dbc10113	addi	x2,x2,-580	  x2:0x80008f28  x2=0x80008ce4
       52525000	      5251	80003f34	01ddd9b3	srl	x19,x27,x29	 x27:0xe8351201 x29:0x00000000 x19=0xe8351201
       52535000	      5252	80003f38	f2810b23	sb	x8,-202(x2)	  x2:0x80008ce4  x8:0x0000003e PA:0x80008c1a
       52545000	      5253	80003f3c	00000013	addi	x0,x0,0	  x0:0x00000000
       52555000	      5254	80003f40	92c22a13	slti	x20,x4,-1748	  x4:0x523e5b6a x20=0x00000000
       52565000	      5255	80003f44	00b21233	sll	x4,x4,x11	  x4:0x523e5b6a x11:0x80009fc4  x4=0x23e5b6a0
       52575000	      5256	80003f48	f5611783	lh	x15,-170(x2)	  x2:0x80008ce4 x15=0x00000f67 PA:0x80008c3a
       52585000	      5257	80003f4c	00233eb3	sltu	x29,x6,x2	  x6:0x523deef4  x2:0x80008ce4 x29=0x00000001
       52595000	      5258	80003f50	7570b893	sltiu	x17,x1,1879	  x1:0x00000000 x17=0x00000001
       52605000	      5259	80003f54	0c810ea3	sb	x8,221(x2)	  x2:0x80008ce4  x8:0x0000003e PA:0x80008dc1
       52615000	      5260	80003f58	f61107a3	sb	x1,-145(x2)	  x2:0x80008ce4  x1:0x00000000 PA:0x80008c53
       52625000	      5261	80003f5c	c7c8e813	ori	x16,x17,-900	 x17:0x00000001 x16=0xfffffc7d
       52635000	      5262	80003f60	fc710f83	lb	x31,-57(x2)	  x2:0x80008ce4 x31=0xffffffc9 PA:0x80008cab
       52645000	      5263	80003f64	9e4d4813	xori	x16,x26,-1564	 x26:0xffffffd2 x16=0x00000636
       52655000	      5264	80003f68	f7710e83	lb	x29,-137(x2)	  x2:0x80008ce4 x29=0xffffffe8 PA:0x80008c5b
       52665000	      5265	80003f6c	03310c83	lb	x25,51(x2)	  x2:0x80008ce4 x25=0x00000048 PA:0x80008d17
       52675000	      5266	80003f70	fe714083	lbu	x1,-25(x2)	  x2:0x80008ce4  x1=0x00000046 PA:0x80008ccb
       52685000	      5267	80003f74	0078a0b3	slt	x1,x17,x7	 x17:0x00000001  x7:0x00000000  x1=0x00000000
       52695000	      5268	80003f78	0d510a83	lb	x21,213(x2)	  x2:0x80008ce4 x21=0xfffffff4 PA:0x80008db9
       52705000	      5269	80003f7c	06514903	lbu	x18,101(x2)	  x2:0x80008ce4 x18=0x000000f4 PA:0x80008d49
       52715000	      5270	80003f80	f2210003	lb	x0,-222(x2)	  x2:0x80008ce4 PA:0x80008c06
       52725000	      5271	80003f84	000cda33	srl	x20,x25,x0	 x25:0x00000048  x0:0x00000000 x20=0x00000048
       52735000	      5272	80003f88	ff014603	lbu	x12,-16(x2)	  x2:0x80008ce4 x12=0x000000f3 PA:0x80008cd4
       52745000	      5273	80003f8c	feb82493	slti	x9,x16,-21	 x16:0x00000636  x9=0x00000000
       52755000	      5274	80003f90	fc110803	lb	x16,-63(x2)	  x2:0x80008ce4 x16=0x00000013 PA:0x80008ca5
       52765000	      5275	80003f94	f7614303	lbu	x6,-138(x2)	  x2:0x80008ce4  x6=0x00000038 PA:0x80008c5a
       52775000	      5276	80003f98	00c276b3	and	x13,x4,x12	  x4:0x23e5b6a0 x12:0x000000f3 x13=0x000000a0
       52785000	      5277	80003f9c	f8111d23	sh	x1,-102(x2)	  x2:0x80008ce4  x1:0x00000000 PA:0x80008c7e
       52795000	      5278	80003fa0	f1310883	lb	x17,-237(x2)	  x2:0x80008ce4 x17=0xffffffd9 PA:0x80008bf7
       52805000	      5279	80003fa4	42b52613	slti	x12,x10,1067	 x10:0x80009f28 x12=0x00000001
       52815000	      5280	80003fa8	0043bdb3	sltu	x27,x7,x4	  x7:0x00000000  x4:0x23e5b6a0 x27=0x00000001
       52825000	      5281	80003fac	411fd433	sra	x8,x31,x17	 x31:0xffffffc9 x17:0xffffffd9  x8=0xffffffff
       52835000	      5282	80003fb0	f2214f83	lbu	x31,-222(x2)	  x2:0x80008ce4 x31=0x0000006e PA:0x80008c06
       52845000	      5283	80003fb4	f6b14683	lbu	x13,-149(x2)	  x2:0x80008ce4 x13=0x0000006b PA:0x80008c4f
       52855000	      5284	80003fb8	c057af13	slti	x30,x15,-1019	 x15:0x00000f67 x30=0x00000000
       52865000	      5285	80003fbc	403a0633	sub	x12,x20,x3	 x20:0x00000048  x3:0x0000000d x12=0x0000003b
       52875000	      5286	80003fc0	3a4f2113	slti	x2,x30,932	 x30:0x00000000  x2=0x00000001
       52885000	      5287	80003fc4	01bca1b3	slt	x3,x25,x27	 x25:0x00000048 x27:0x00000001  x3=0x00000000
       52895000	      5288	80003fc8	04770663	beq	x14,x7,80004014	 x14:0x00000050  x7:0x00000000
       52905000	      5289	80003fcc	1dcdeab7	lui	x21,0x1dcde	 x21=0x1dcde000
       52915000	      5290	80003fd0	011a1933	sll	x18,x20,x17	 x20:0x00000048 x17:0xffffffd9 x18=0x90000000
       52925000	      5291	80003fd4	003af2b3	and	x5,x21,x3	 x21:0x1dcde000  x3:0x00000000  x5=0x00000000
       52935000	      5292	80003fd8	01e49ab3	sll	x21,x9,x30	  x9:0x00000000 x30:0x00000000 x21=0x00000000
       52945000	      5293	80003fdc	40520eb3	sub	x29,x4,x5	  x4:0x23e5b6a0  x5:0x00000000 x29=0x23e5b6a0
       52955000	      5294	80003fe0	0115ed33	or	x26,x11,x17	 x11:0x80009fc4 x17:0xffffffd9 x26=0xffffffdd
       52965000	      5295	80003fe4	d7240e13	addi	x28,x8,-654	  x8:0xffffffff x28=0xfffffd71
       52975000	      5296	80003fe8	018b3a33	sltu	x20,x22,x24	 x22:0x00000031 x24:0x00000001 x20=0x00000000
       52985000	      5297	80003fec	00de49b3	xor	x19,x28,x13	 x28:0xfffffd71 x13:0x0000006b x19=0xfffffd1a
       52995000	      5298	80003ff0	40285993	srai	x19,x16,0x2	 x16:0x00000013 x19=0x00000004
       53005000	      5299	80003ff4	40cc5b33	sra	x22,x24,x12	 x24:0x00000001 x12:0x0000003b x22=0x00000000
       53015000	      5300	80003ff8	40ee5e13	srai	x28,x28,0xe	 x28:0xfffffd71 x28=0xffffffff
       53025000	      5301	80003ffc	01492d33	slt	x26,x18,x20	 x18:0x90000000 x20:0x00000000 x26=0x00000001
       53035000	      5302	80004000	5f49ed93	ori	x27,x19,1524	 x19:0x00000004 x27=0x000005f4
       53045000	      5303	80004004	01d1edb3	or	x27,x3,x29	  x3:0x00000000 x29:0x23e5b6a0 x27=0x23e5b6a0
       53055000	      5304	80004008	002e1eb3	sll	x29,x28,x2	 x28:0xffffffff  x2:0x00000001 x29=0xfffffffe
       53065000	      5305	8000400c	90996693	ori	x13,x18,-1783	 x18:0x90000000 x13=0xfffff909
       53075000	      5306	80004010	004778b3	and	x17,x14,x4	 x14:0x00000050  x4:0x23e5b6a0 x17=0x00000000
       53085000	      5307	80004014	4057d213	srai	x4,x15,0x5	 x15:0x00000f67  x4=0x0000007b
       53095000	      5308	80004018	00679a13	slli	x20,x15,0x6	 x15:0x00000f67 x20=0x0003d9c0
       53105000	      5309	8000401c	001e9233	sll	x4,x29,x1	 x29:0xfffffffe  x1:0x00000000  x4=0xfffffffe
       53115000	      5310	80004020	4125f793	andi	x15,x11,1042	 x11:0x80009fc4 x15=0x00000400
       53125000	      5311	80004024	1105e393	ori	x7,x11,272	 x11:0x80009fc4  x7=0x80009fd4
       53135000	      5312	80004028	00000013	addi	x0,x0,0	  x0:0x00000000
       53145000	      5313	8000402c	f7883113	sltiu	x2,x16,-136	 x16:0x00000013  x2=0x00000001
       53155000	      5314	80004030	dbd41237	lui	x4,0xdbd41	  x4=0xdbd41000
       53165000	      5315	80004034	9a880693	addi	x13,x16,-1624	 x16:0x00000013 x13=0xfffff9bb
       53175000	      5316	80004038	009feb33	or	x22,x31,x9	 x31:0x0000006e  x9:0x00000000 x22=0x0000006e
       53185000	      5317	8000403c	129cac13	slti	x24,x25,297	 x25:0x00000048 x24=0x00000001
       53195000	      5318	80004040	e77b4417	auipc	x8,0xe77b4	  x8=0x677b803c
       53205000	      5319	80004044	0183beb3	sltu	x29,x7,x24	  x7:0x80009fd4 x24:0x00000001 x29=0x00000000
       53215000	      5320	80004048	009554b3	srl	x9,x10,x9	 x10:0x80009f28  x9:0x00000000  x9=0x80009f28
       53225000	      5321	8000404c	d56b8893	addi	x17,x23,-682	 x23:0x0000000d x17=0xfffffd63
       53235000	      5322	80004050	0377c263	blt	x15,x23,80004074	 x15:0x00000400 x23:0x0000000d
       53245000	      5323	80004054	6e64e293	ori	x5,x9,1766	  x9:0x80009f28  x5=0x80009fee
       53255000	      5324	80004058	003b59b3	srl	x19,x22,x3	 x22:0x0000006e  x3:0x00000000 x19=0x0000006e
       53265000	      5325	8000405c	01438c33	add	x24,x7,x20	  x7:0x80009fd4 x20:0x0003d9c0 x24=0x80047994
       53275000	      5326	80004060	00915733	srl	x14,x2,x9	  x2:0x00000001  x9:0x80009f28 x14=0x00000000
       53285000	      5327	80004064	008f5b13	srli	x22,x30,0x8	 x30:0x00000000 x22=0x00000000
       53295000	      5328	80004068	250fff93	andi	x31,x31,592	 x31:0x0000006e x31=0x00000040
       53305000	      5329	8000406c	01cffc63	bgeu	x31,x28,80004084	 x31:0x00000040 x28:0xffffffff
       53315000	      5330	80004070	7404a213	slti	x4,x9,1856	  x9:0x80009f28  x4=0x00000001
       53325000	      5331	80004074	41ecdeb3	sra	x29,x25,x30	 x25:0x00000048 x30:0x00000000 x29=0x00000048
       53335000	      5332	80004078	022cf463	bgeu	x25,x2,800040a0	 x25:0x00000048  x2:0x00000001
       53345000	      5333	00000000	00000013	addi	x0,x0,0	  x0:0x00000000
       53355000	      5334	8000409c	00000013	addi	x0,x0,0	  x0:0x00000000
       53365000	      5335	800040a0	00f35663	bge	x6,x15,800040ac	  x6:0x00000038 x15:0x00000400
       53375000	      5336	800040a4	0187a3b3	slt	x7,x15,x24	 x15:0x00000400 x24:0x80047994  x7=0x00000000
       53385000	      5337	800040a8	00e1fdb3	and	x27,x3,x14	  x3:0x00000000 x14:0x00000000 x27=0x00000000
       53395000	      5338	800040ac	01449e63	bne	x9,x20,800040c8	  x9:0x80009f28 x20:0x0003d9c0
       53405000	      5339	00000000	00000013	addi	x0,x0,0	  x0:0x00000000
       53415000	      5340	800040c4	00000013	addi	x0,x0,0	  x0:0x00000000
       53425000	      5341	800040c8	41c15193	srai	x3,x2,0x1c	  x2:0x00000001  x3=0x00000000
       53435000	      5342	800040cc	012129b3	slt	x19,x2,x18	  x2:0x00000001 x18:0x90000000 x19=0x00000000
       53445000	      5343	800040d0	013dee63	bltu	x27,x19,800040ec	 x27:0x00000000 x19:0x00000000
       53455000	      5344	800040d4	013d8ab3	add	x21,x27,x19	 x27:0x00000000 x19:0x00000000 x21=0x00000000
       53465000	      5345	800040d8	018b6a63	bltu	x22,x24,800040ec	 x22:0x00000000 x24:0x80047994
       53475000	      5346	00000000	00000013	addi	x0,x0,0	  x0:0x00000000
       53485000	      5347	800040e8	00000013	addi	x0,x0,0	  x0:0x00000000
       53495000	      5348	800040ec	01c07eb3	and	x29,x0,x28	  x0:0x00000000 x28:0xffffffff x29=0x00000000
       53505000	      5349	800040f0	01a61793	slli	x15,x12,0x1a	 x12:0x0000003b x15=0xec000000
       53515000	      5350	800040f4	00000013	addi	x0,x0,0	  x0:0x00000000
       53525000	      5351	800040f8	01894c63	blt	x18,x24,80004110	 x18:0x90000000 x24:0x80047994
       53535000	      5352	800040fc	01744db3	xor	x27,x8,x23	  x8:0x677b803c x23:0x0000000d x27=0x677b8031
       53545000	      5353	80004100	00988eb3	add	x29,x17,x9	 x17:0xfffffd63  x9:0x80009f28 x29=0x80009c8b
       53555000	      5354	80004104	00fe46b3	xor	x13,x28,x15	 x28:0xffffffff x15:0xec000000 x13=0x13ffffff
       53565000	      5355	80004108	403d00b3	sub	x1,x26,x3	 x26:0x00000001  x3:0x00000000  x1=0x00000001
       53575000	      5356	8000410c	78d8f913	andi	x18,x17,1933	 x17:0xfffffd63 x18=0x00000501
       53585000	      5357	80004110	01349093	slli	x1,x9,0x13	  x9:0x80009f28  x1=0xf9400000
       53595000	      5358	80004114	00e44663	blt	x8,x14,80004120	  x8:0x677b803c x14:0x00000000
       53605000	      5359	80004118	4106de13	srai	x28,x13,0x10	 x13:0x13ffffff x28=0x000013ff
       53615000	      5360	8000411c	00000013	addi	x0,x0,0	  x0:0x00000000
       53625000	      5361	80004120	004d1793	slli	x15,x26,0x4	 x26:0x00000001 x15=0x00000010
       53635000	      5362	80004124	01c3e2b3	or	x5,x7,x28	  x7:0x00000000 x28:0x000013ff  x5=0x000013ff
       53645000	      5363	80004128	4130db13	srai	x22,x1,0x13	  x1:0xf9400000 x22=0xffffff28
       53655000	      5364	8000412c	40805ab3	sra	x21,x0,x8	  x0:0x00000000  x8:0x677b803c x21=0x00000000
       53665000	      5365	80004130	05ab4663	blt	x22,x26,8000417c	 x22:0xffffff28 x26:0x00000001
       53675000	      5366	00000000	00000013	addi	x0,x0,0	  x0:0x00000000
       53685000	      5367	80004178	00000013	addi	x0,x0,0	  x0:0x00000000
       53695000	      5368	8000417c	0210cc63	blt	x1,x1,800041b4	  x1:0xf9400000  x1:0xf9400000
       53705000	      5369	80004180	001f9f13	slli	x30,x31,0x1	 x31:0x00000040 x30=0x00000080
       53715000	      5370	80004184	015f5f93	srli	x31,x30,0x15	 x30:0x00000080 x31=0x00000000
       53725000	      5371	80004188	022fc863	blt	x31,x2,800041b8	 x31:0x00000000  x2:0x00000001
       53735000	      5372	00000000	00000013	addi	x0,x0,0	  x0:0x00000000
       53745000	      5373	800041b4	00000013	addi	x0,x0,0	  x0:0x00000000
       53755000	      5374	800041b8	00ae8eb3	add	x29,x29,x10	 x29:0x80009c8b x10:0x80009f28 x29=0x00013bb3
       53765000	      5375	800041bc	0042ddb3	srl	x27,x5,x4	  x5:0x000013ff  x4:0x00000001 x27=0x000009ff
       53775000	      5376	800041c0	017ac1b3	xor	x3,x21,x23	 x21:0x00000000 x23:0x0000000d  x3=0x0000000d
       53785000	      5377	800041c4	4fceb113	sltiu	x2,x29,1276	 x29:0x00013bb3  x2=0x00000000
       53795000	      5378	800041c8	04044463	blt	x8,x0,80004210	  x8:0x677b803c  x0:0x00000000
       53805000	      5379	800041cc	026d8063	beq	x27,x6,800041ec	 x27:0x000009ff  x6:0x00000038
       53815000	      5380	800041d0	01f382b3	add	x5,x7,x31	  x7:0x00000000 x31:0x00000000  x5=0x00000000
       53825000	      5381	800041d4	01ecd3b3	srl	x7,x25,x30	 x25:0x00000048 x30:0x00000080  x7=0x00000048
       53835000	      5382	800041d8	9a4dff97	auipc	x31,0x9a4df	 x31=0x1a4e31d4
       53845000	      5383	800041dc	03bf4263	blt	x30,x27,80004200	 x30:0x00000080 x27:0x000009ff
       53855000	      5384	00000000	00000013	addi	x0,x0,0	  x0:0x00000000
       53865000	      5385	800041fc	00000013	addi	x0,x0,0	  x0:0x00000000
       53875000	      5386	80004200	784dfa93	andi	x21,x27,1924	 x27:0x000009ff x21=0x00000184
       53885000	      5387	80004204	00000013	addi	x0,x0,0	  x0:0x00000000
       53895000	      5388	80004208	014ae433	or	x8,x21,x20	 x21:0x00000184 x20:0x0003d9c0  x8=0x0003d9c4
       53905000	      5389	8000420c	039a6263	bltu	x20,x25,80004230	 x20:0x0003d9c0 x25:0x00000048
       53915000	      5390	80004210	002c8a63	beq	x25,x2,80004224	 x25:0x00000048  x2:0x00000000
       53925000	      5391	80004214	3d4bea13	ori	x20,x23,980	 x23:0x0000000d x20=0x000003dd
       53935000	      5392	80004218	01859393	slli	x7,x11,0x18	 x11:0x80009fc4  x7=0xc4000000
       53945000	      5393	8000421c	0056f033	and	x0,x13,x5	 x13:0x13ffffff  x5:0x00000000
       53955000	      5394	80004220	00f88663	beq	x17,x15,8000422c	 x17:0xfffffd63 x15:0x00000010
       53965000	      5395	80004224	41855133	sra	x2,x10,x24	 x10:0x80009f28 x24:0x80047994  x2=0xfffff800
       53975000	      5396	80004228	0596d663	bge	x13,x25,80004274	 x13:0x13ffffff x25:0x00000048
       53985000	      5397	00000000	00000013	addi	x0,x0,0	  x0:0x00000000
       53995000	      5398	80004270	00000013	addi	x0,x0,0	  x0:0x00000000
       54005000	      5399	80004274	00000013	addi	x0,x0,0	  x0:0x00000000
       54015000	      5400	80004278	001d6633	or	x12,x26,x1	 x26:0x00000001  x1:0xf9400000 x12=0xf9400001
       54025000	      5401	8000427c	00a19f13	slli	x30,x3,0xa	  x3:0x0000000d x30=0x00003400
       54035000	      5402	80004280	01d201b3	add	x3,x4,x29	  x4:0x00000001 x29:0x00013bb3  x3=0x00013bb4
       54045000	      5403	80004284	0357d463	bge	x15,x21,800042ac	 x15:0x00000010 x21:0x00000184
       54055000	      5404	80004288	41fa5613	srai	x12,x20,0x1f	 x20:0x000003dd x12=0x00000000
       54065000	      5405	8000428c	01ee48b3	xor	x17,x28,x30	 x28:0x000013ff x30:0x00003400 x17=0x000027ff
       54075000	      5406	80004290	00b36ab3	or	x21,x6,x11	  x6:0x00000038 x11:0x80009fc4 x21=0x80009ffc
       54085000	      5407	80004294	010881b3	add	x3,x17,x16	 x17:0x000027ff x16:0x00000013  x3=0x00002812
       54095000	      5408	80004298	0d168a13	addi	x20,x13,209	 x13:0x13ffffff x20=0x140000d0
       54105000	      5409	8000429c	5be9c293	xori	x5,x19,1470	 x19:0x00000000  x5=0x000005be
       54115000	      5410	800042a0	00058fb3	add	x31,x11,x0	 x11:0x80009fc4  x0:0x00000000 x31=0x80009fc4
       54125000	      5411	800042a4	ac4a0a13	addi	x20,x20,-1340	 x20:0x140000d0 x20=0x13fffb94
       54135000	      5412	800042a8	466b6113	ori	x2,x22,1126	 x22:0xffffff28  x2=0xffffff6e
       54145000	      5413	800042ac	41645693	srai	x13,x8,0x16	  x8:0x0003d9c4 x13=0x00000000
       54155000	      5414	800042b0	00000013	addi	x0,x0,0	  x0:0x00000000
       54165000	      5415	800042b4	40cd8db3	sub	x27,x27,x12	 x27:0x000009ff x12:0x00000000 x27=0x000009ff
       54175000	      5416	800042b8	01d75f93	srli	x31,x14,0x1d	 x14:0x00000000 x31=0x00000000
       54185000	      5417	800042bc	00c977b3	and	x15,x18,x12	 x18:0x00000501 x12:0x00000000 x15=0x00000000
       54195000	      5418	800042c0	02105d37	lui	x26,0x2105	 x26=0x02105000
       54205000	      5419	800042c4	19b623b7	lui	x7,0x19b62	  x7=0x19b62000
       54215000	      5420	800042c8	00938a33	add	x20,x7,x9	  x7:0x19b62000  x9:0x80009f28 x20=0x99b6bf28
       54225000	      5421	800042cc	017ffa63	bgeu	x31,x23,800042e0	 x31:0x00000000 x23:0x0000000d
       54235000	      5422	800042d0	042b9463	bne	x23,x2,80004318	 x23:0x0000000d  x2:0xffffff6e
       54245000	      5423	00000000	00000013	addi	x0,x0,0	  x0:0x00000000
       54255000	      5424	80004314	00000013	addi	x0,x0,0	  x0:0x00000000
       54265000	      5425	80004318	008ea133	slt	x2,x29,x8	 x29:0x00013bb3  x8:0x0003d9c4  x2=0x00000001
       54275000	      5426	8000431c	001f8b33	add	x22,x31,x1	 x31:0x00000000  x1:0xf9400000 x22=0xf9400000
       54285000	      5427	80004320	f65c8b13	addi	x22,x25,-155	 x25:0x00000048 x22=0xffffffad
       54295000	      5428	80004324	a9fd6193	ori	x3,x26,-1377	 x26:0x02105000  x3=0xfffffa9f
       54305000	      5429	80004328	003f96b3	sll	x13,x31,x3	 x31:0x00000000  x3:0xfffffa9f x13=0x00000000
       54315000	      5430	8000432c	00072933	slt	x18,x14,x0	 x14:0x00000000  x0:0x00000000 x18=0x00000000
       54325000	      5431	80004330	41785013	srai	x0,x16,0x17	 x16:0x00000013
       54335000	      5432	80004334	00b026b3	slt	x13,x0,x11	  x0:0x00000000 x11:0x80009fc4 x13=0x00000000
       54345000	      5433	80004338	03d39e63	bne	x7,x29,80004374	  x7:0x19b62000 x29:0x00013bb3
       54355000	      5434	00000000	00000013	addi	x0,x0,0	  x0:0x00000000
       54365000	      5435	80004370	00000013	addi	x0,x0,0	  x0:0x00000000
       54375000	      5436	80004374	3f168417	auipc	x8,0x3f168	  x8=0xbf16c370
       54385000	      5437	80004378	41b4d013	srai	x0,x9,0x1b	  x9:0x80009f28
       54395000	      5438	8000437c	41d68d33	sub	x26,x13,x29	 x13:0x00000000 x29:0x00013bb3 x26=0xfffec44d
       54405000	      5439	80004380	e11ec797	auipc	x15,0xe11ec	 x15=0x611f037c
       54415000	      5440	80004384	f5999d37	lui	x26,0xf5999	 x26=0xf5999000
       54425000	      5441	80004388	97a43c37	lui	x24,0x97a43	 x24=0x97a43000
       54435000	      5442	8000438c	009c8f33	add	x30,x25,x9	 x25:0x00000048  x9:0x80009f28 x30=0x80009f70
       54445000	      5443	80004390	82fc1d97	auipc	x27,0x82fc1	 x27=0x02fc538c
       54455000	      5444	80004394	401dd6b3	sra	x13,x27,x1	 x27:0x02fc538c  x1:0xf9400000 x13=0x02fc538c
       54465000	      5445	80004398	4174d713	srai	x14,x9,0x17	  x9:0x80009f28 x14=0xffffff00
       54475000	      5446	8000439c	52940413	addi	x8,x8,1321	  x8:0xbf16c370  x8=0xbf16c899
       54485000	      5447	800043a0	012883b3	add	x7,x17,x18	 x17:0x000027ff x18:0x00000000  x7=0x000027ff
       54495000	      5448	800043a4	00a109b3	add	x19,x2,x10	  x2:0x00000001 x10:0x80009f28 x19=0x80009f29
       54505000	      5449	800043a8	0127b2b3	sltu	x5,x15,x18	 x15:0x611f037c x18:0x00000000  x5=0x00000000
       54515000	      5450	800043ac	01dcf4b3	and	x9,x25,x29	 x25:0x00000048 x29:0x00013bb3  x9=0x00000000
       54525000	      5451	800043b0	05a34463	blt	x6,x26,800043f8	  x6:0x00000038 x26:0xf5999000
       54535000	      5452	800043b4	c6102c93	slti	x25,x0,-927	  x0:0x00000000 x25=0x00000000
       54545000	      5453	800043b8	94904913	xori	x18,x0,-1719	  x0:0x00000000 x18=0xfffff949
       54555000	      5454	800043bc	0504f693	andi	x13,x9,80	  x9:0x00000000 x13=0x00000000
       54565000	      5455	800043c0	00000013	addi	x0,x0,0	  x0:0x00000000
       54575000	      5456	800043c4	0006d213	srli	x4,x13,0x0	 x13:0x00000000  x4=0x00000000
       54585000	      5457	800043c8	00bf5693	srli	x13,x30,0xb	 x30:0x80009f70 x13=0x00100013
       54595000	      5458	800043cc	41fa8a33	sub	x20,x21,x31	 x21:0x80009ffc x31:0x00000000 x20=0x80009ffc
       54605000	      5459	800043d0	ca5f4493	xori	x9,x30,-859	 x30:0x80009f70  x9=0x7fff63d5
       54615000	      5460	800043d4	00000013	addi	x0,x0,0	  x0:0x00000000
       54625000	      5461	800043d8	3c900213	addi	x4,x0,969	  x0:0x00000000  x4=0x000003c9
       54635000	      5462	800043dc	01061433	sll	x8,x12,x16	 x12:0x00000000 x16:0x00000013  x8=0x00000000
       54645000	      5463	800043e0	01ccc633	xor	x12,x25,x28	 x25:0x00000000 x28:0x000013ff x12=0x000013ff
       54655000	      5464	800043e4	01e394b3	sll	x9,x7,x30	  x7:0x000027ff x30:0x80009f70  x9=0x27ff0000
       54665000	      5465	800043e8	40b0ac17	auipc	x24,0x40b0a	 x24=0xc0b0e3e4
       54675000	      5466	800043ec	3bfa4613	xori	x12,x20,959	 x20:0x80009ffc x12=0x80009c43
       54685000	      5467	800043f0	0faafd37	lui	x26,0xfaaf	 x26=0x0faaf000
       54695000	      5468	800043f4	01165b33	srl	x22,x12,x17	 x12:0x80009c43 x17:0x000027ff x22=0x00000001
       54705000	      5469	800043f8	00c65d13	srli	x26,x12,0xc	 x12:0x80009c43 x26=0x00080009
       54715000	      5470	800043fc	975a6113	ori	x2,x20,-1675	 x20:0x80009ffc  x2=0xfffffffd
       54725000	      5471	80004400	006c4eb3	xor	x29,x24,x6	 x24:0xc0b0e3e4  x6:0x00000038 x29=0xc0b0e3dc
       54735000	      5472	80004404	03e4c263	blt	x9,x30,80004428	  x9:0x27ff0000 x30:0x80009f70
       54745000	      5473	80004408	70878c93	addi	x25,x15,1800	 x15:0x611f037c x25=0x611f0a84
       54755000	      5474	8000440c	009c2733	slt	x14,x24,x9	 x24:0xc0b0e3e4  x9:0x27ff0000 x14=0x00000001
       54765000	      5475	80004410	00829c13	slli	x24,x5,0x8	  x5:0x00000000 x24=0x00000000
       54775000	      5476	80004414	41ebd633	sra	x12,x23,x30	 x23:0x0000000d x30:0x80009f70 x12=0x00000000
       54785000	      5477	80004418	009dd193	srli	x3,x27,0x9	 x27:0x02fc538c  x3=0x00017e29
       54795000	      5478	8000441c	40aad013	srai	x0,x21,0xa	 x21:0x80009ffc
       54805000	      5479	80004420	c3363a37	lui	x20,0xc3363	 x20=0xc3363000
       54815000	      5480	80004424	013e9213	slli	x4,x29,0x13	 x29:0xc0b0e3dc  x4=0x1ee00000
       54825000	      5481	80004428	6008b993	sltiu	x19,x17,1536	 x17:0x000027ff x19=0x00000000
       54835000	      5482	8000442c	01486663	bltu	x16,x20,80004438	 x16:0x00000013 x20:0xc3363000
       54845000	      5483	00000000	00000013	addi	x0,x0,0	  x0:0x00000000
       54855000	      5484	80004434	00000013	addi	x0,x0,0	  x0:0x00000000
       54865000	      5485	80004438	00efa4b3	slt	x9,x31,x14	 x31:0x00000000 x14:0x00000001  x9=0x00000001
       54875000	      5486	8000443c	03955c63	bge	x10,x25,80004474	 x10:0x80009f28 x25:0x611f0a84
       54885000	      5487	80004440	0094e3b3	or	x7,x9,x9	  x9:0x00000001  x9:0x00000001  x7=0x00000001
       54895000	      5488	80004444	01a89233	sll	x4,x17,x26	 x17:0x000027ff x26:0x00080009  x4=0x004ffe00
       54905000	      5489	80004448	30ea8693	addi	x13,x21,782	 x21:0x80009ffc x13=0x8000a30a
       54915000	      5490	8000444c	9219c113	xori	x2,x19,-1759	 x19:0x00000000  x2=0xfffff921
       54925000	      5491	80004450	017103b3	add	x7,x2,x23	  x2:0xfffff921 x23:0x0000000d  x7=0xfffff92e
       54935000	      5492	80004454	0010d433	srl	x8,x1,x1	  x1:0xf9400000  x1:0xf9400000  x8=0xf9400000
       54945000	      5493	80004458	41f98433	sub	x8,x19,x31	 x19:0x00000000 x31:0x00000000  x8=0x00000000
       54955000	      5494	8000445c	44a32c93	slti	x25,x6,1098	  x6:0x00000038 x25=0x00000001
       54965000	      5495	80004460	00bd34b3	sltu	x9,x26,x11	 x26:0x00080009 x11:0x80009fc4  x9=0x00000001
       54975000	      5496	80004464	00cac833	xor	x16,x21,x12	 x21:0x80009ffc x12:0x00000000 x16=0x80009ffc
       54985000	      5497	80004468	40dc54b3	sra	x9,x24,x13	 x24:0x00000000 x13:0x8000a30a  x9=0x00000000
       54995000	      5498	8000446c	caa2a293	slti	x5,x5,-854	  x5:0x00000000  x5=0x00000000
       55005000	      5499	80004470	1b4124b7	lui	x9,0x1b412	  x9=0x1b412000
       55015000	      5500	80004474	006297b3	sll	x15,x5,x6	  x5:0x00000000  x6:0x00000038 x15=0x00000000
       55025000	      5501	80004478	01d431b3	sltu	x3,x8,x29	  x8:0x00000000 x29:0xc0b0e3dc  x3=0x00000001
       55035000	      5502	8000447c	56a4f097	auipc	x1,0x56a4f	  x1=0xd6a53478
       55045000	      5503	80004480	01c14733	xor	x14,x2,x28	  x2:0xfffff921 x28:0x000013ff x14=0xffffeade
       55055000	      5504	80004484	00b61613	slli	x12,x12,0xb	 x12:0x00000000 x12=0x00000000
       55065000	      5505	80004488	40558f33	sub	x30,x11,x5	 x11:0x80009fc4  x5:0x00000000 x30=0x80009fc4
       55075000	      5506	8000448c	00000013	addi	x0,x0,0	  x0:0x00000000
       55085000	      5507	80004490	00d04cb3	xor	x25,x0,x13	  x0:0x00000000 x13:0x8000a30a x25=0x8000a30a
       55095000	      5508	80004494	00000013	addi	x0,x0,0	  x0:0x00000000
       55105000	      5509	80004498	21369d37	lui	x26,0x21369	 x26=0x21369000
       55115000	      5510	8000449c	387d0393	addi	x7,x26,903	 x26:0x21369000  x7=0x21369387
       55125000	      5511	800044a0	01061663	bne	x12,x16,800044ac	 x12:0x00000000 x16:0x80009ffc
       55135000	      5512	00000000	00000013	addi	x0,x0,0	  x0:0x00000000
       55145000	      5513	800044a8	00000013	addi	x0,x0,0	  x0:0x00000000
       55155000	      5514	800044ac	01b06833	or	x16,x0,x27	  x0:0x00000000 x27:0x02fc538c x16=0x02fc538c
       55165000	      5515	800044b0	35dcec93	ori	x25,x25,861	 x25:0x8000a30a x25=0x8000a35f
       55175000	      5516	800044b4	00c8beb3	sltu	x29,x17,x12	 x17:0x000027ff x12:0x00000000 x29=0x00000000
       55185000	      5517	800044b8	a17eb913	sltiu	x18,x29,-1513	 x29:0x00000000 x18=0x00000001
       55195000	      5518	800044bc	419b0cb3	sub	x25,x22,x25	 x22:0x00000001 x25:0x8000a35f x25=0x7fff5ca2
       55205000	      5519	800044c0	00320b33	add	x22,x4,x3	  x4:0x004ffe00  x3:0x00000001 x22=0x004ffe01
       55215000	      5520	800044c4	d5087813	andi	x16,x16,-688	 x16:0x02fc538c x16=0x02fc5100
       55225000	      5521	800044c8	4050df93	srai	x31,x1,0x5	  x1:0xd6a53478 x31=0xfeb529a3
       55235000	      5522	800044cc	0093cf33	xor	x30,x7,x9	  x7:0x21369387  x9:0x1b412000 x30=0x3a77b387
       55245000	      5523	800044d0	05a21463	bne	x4,x26,80004518	  x4:0x004ffe00 x26:0x21369000
       55255000	      5524	00000000	00000013	addi	x0,x0,0	  x0:0x00000000
       55265000	      5525	80004514	00000013	addi	x0,x0,0	  x0:0x00000000
       55275000	      5526	80004518	01a08263	beq	x1,x26,8000451c	  x1:0xd6a53478 x26:0x21369000
       55285000	      5527	8000451c	03817063	bgeu	x2,x24,8000453c	  x2:0xfffff921 x24:0x00000000
       55295000	      5528	00000000	00000013	addi	x0,x0,0	  x0:0x00000000
       55305000	      5529	80004538	00000013	addi	x0,x0,0	  x0:0x00000000
       55315000	      5530	8000453c	04d1ce13	xori	x28,x3,77	  x3:0x00000001 x28=0x0000004c
       55325000	      5531	80004540	eb21c9b7	lui	x19,0xeb21c	 x19=0xeb21c000
       55335000	      5532	80004544	00e544b3	xor	x9,x10,x14	 x10:0x80009f28 x14:0xffffeade  x9=0x7fff75f6
       55345000	      5533	80004548	33267993	andi	x19,x12,818	 x12:0x00000000 x19=0x00000000
       55355000	      5534	8000454c	0277fe63	bgeu	x15,x7,80004588	 x15:0x00000000  x7:0x21369387
       55365000	      5535	80004550	033b8e63	beq	x23,x19,8000458c	 x23:0x0000000d x19:0x00000000
       55375000	      5536	80004554	400c5ab3	sra	x21,x24,x0	 x24:0x00000000  x0:0x00000000 x21=0x00000000
       55385000	      5537	80004558	00f64f33	xor	x30,x12,x15	 x12:0x00000000 x15:0x00000000 x30=0x00000000
       55395000	      5538	8000455c	00325263	bge	x4,x3,80004560	  x4:0x004ffe00  x3:0x00000001
       55405000	      5539	00000000	00000013	addi	x0,x0,0	  x0:0x00000000
       55415000	      5540	8000455c	00000013	addi	x0,x0,0	  x0:0x00000000
       55425000	      5541	80004560	01385eb3	srl	x29,x16,x19	 x16:0x02fc5100 x19:0x00000000 x29=0x02fc5100
       55435000	      5542	80004564	55a62a13	slti	x20,x12,1370	 x12:0x00000000 x20=0x00000001
       55445000	      5543	80004568	00518fb3	add	x31,x3,x5	  x3:0x00000001  x5:0x00000000 x31=0x00000001
       55455000	      5544	8000456c	03a0d263	bge	x1,x26,80004590	  x1:0xd6a53478 x26:0x21369000
       55465000	      5545	80004570	60d8a913	slti	x18,x17,1549	 x17:0x000027ff x18=0x00000000
       55475000	      5546	80004574	074a8863	beq	x21,x20,800045e4	 x21:0x00000000 x20:0x00000001
       55485000	      5547	80004578	e66de393	ori	x7,x27,-410	 x27:0x02fc538c  x7=0xffffffee
       55495000	      5548	8000457c	00241663	bne	x8,x2,80004588	  x8:0x00000000  x2:0xfffff921
       55505000	      5549	00000000	00000013	addi	x0,x0,0	  x0:0x00000000
       55515000	      5550	80004584	00000013	addi	x0,x0,0	  x0:0x00000000
       55525000	      5551	80004588	020ff813	andi	x16,x31,32	 x31:0x00000001 x16=0x00000000
       55535000	      5552	8000458c	0854f063	bgeu	x9,x5,8000460c	  x9:0x7fff75f6  x5:0x00000000
       55545000	      5553	00000000	00000013	addi	x0,x0,0	  x0:0x00000000
       55555000	      5554	80004608	00000013	addi	x0,x0,0	  x0:0x00000000
       55565000	      5555	8000460c	018e69b3	or	x19,x28,x24	 x28:0x0000004c x24:0x00000000 x19=0x0000004c
       55575000	      5556	80004610	40fb57b3	sra	x15,x22,x15	 x22:0x004ffe01 x15:0x00000000 x15=0x004ffe01
       55585000	      5557	80004614	00db1793	slli	x15,x22,0xd	 x22:0x004ffe01 x15=0xffc02000
       55595000	      5558	80004618	00a26e63	bltu	x4,x10,80004634	  x4:0x004ffe00 x10:0x80009f28
       55605000	      5559	00000000	00000013	addi	x0,x0,0	  x0:0x00000000
       55615000	      5560	80004630	00000013	addi	x0,x0,0	  x0:0x00000000
       55625000	      5561	80004634	02214c63	blt	x2,x2,8000466c	  x2:0xfffff921  x2:0xfffff921
       55635000	      5562	80004638	00000013	addi	x0,x0,0	  x0:0x00000000
       55645000	      5563	8000463c	02d84463	blt	x16,x13,80004664	 x16:0x00000000 x13:0x8000a30a
       55655000	      5564	80004640	014449b3	xor	x19,x8,x20	  x8:0x00000000 x20:0x00000001 x19=0x00000001
       55665000	      5565	80004644	00000013	addi	x0,x0,0	  x0:0x00000000
       55675000	      5566	80004648	01486233	or	x4,x16,x20	 x16:0x00000000 x20:0x00000001  x4=0x00000001
       55685000	      5567	8000464c	63922993	slti	x19,x4,1593	  x4:0x00000001 x19=0x00000001
       55695000	      5568	80004650	d563b793	sltiu	x15,x7,-682	  x7:0xffffffee x15=0x00000000
       55705000	      5569	80004654	001fd493	srli	x9,x31,0x1	 x31:0x00000001  x9=0x00000000
       55715000	      5570	80004658	00725413	srli	x8,x4,0x7	  x4:0x00000001  x8=0x00000000
       55725000	      5571	8000465c	b6163013	sltiu	x0,x12,-1183	 x12:0x00000000
       55735000	      5572	80004660	0111ecb3	or	x25,x3,x17	  x3:0x00000001 x17:0x000027ff x25=0x000027ff
       55745000	      5573	80004664	a399e993	ori	x19,x19,-1479	 x19:0x00000001 x19=0xfffffa39
       55755000	      5574	80004668	01fdc7b3	xor	x15,x27,x31	 x27:0x02fc538c x31:0x00000001 x15=0x02fc538d
       55765000	      5575	8000466c	0054e0b3	or	x1,x9,x5	  x9:0x00000000  x5:0x00000000  x1=0x00000000
       55775000	      5576	80004670	cfc1da37	lui	x20,0xcfc1d	 x20=0xcfc1d000
       55785000	      5577	80004674	00003933	sltu	x18,x0,x0	  x0:0x00000000  x0:0x00000000 x18=0x00000000
       55795000	      5578	80004678	00075e13	srli	x28,x14,0x0	 x14:0xffffeade x28=0xffffeade
       55805000	      5579	8000467c	84bcc293	xori	x5,x25,-1973	 x25:0x000027ff  x5=0xffffdfb4
       55815000	      5580	80004680	01127933	and	x18,x4,x17	  x4:0x00000001 x17:0x000027ff x18=0x00000001
       55825000	      5581	80004684	00f010b3	sll	x1,x0,x15	  x0:0x00000000 x15:0x02fc538d  x1=0x00000000
       55835000	      5582	80004688	05380063	beq	x16,x19,800046c8	 x16:0x00000000 x19:0xfffffa39
       55845000	      5583	8000468c	01989833	sll	x16,x17,x25	 x17:0x000027ff x25:0x000027ff x16=0x80000000
       55855000	      5584	80004690	5ae47d37	lui	x26,0x5ae47	 x26=0x5ae47000
       55865000	      5585	80004694	9ed528b7	lui	x17,0x9ed52	 x17=0x9ed52000
       55875000	      5586	80004698	01791c33	sll	x24,x18,x23	 x18:0x00000001 x23:0x0000000d x24=0x00002000
       55885000	      5587	8000469c	000cfc63	bgeu	x25,x0,800046b4	 x25:0x000027ff  x0:0x00000000
       55895000	      5588	00000000	00000013	addi	x0,x0,0	  x0:0x00000000
       55905000	      5589	800046b0	00000013	addi	x0,x0,0	  x0:0x00000000
       55915000	      5590	800046b4	00c4f433	and	x8,x9,x12	  x9:0x00000000 x12:0x00000000  x8=0x00000000
       55925000	      5591	800046b8	512d2013	slti	x0,x26,1298	 x26:0x5ae47000
       55935000	      5592	800046bc	0340e863	bltu	x1,x20,800046ec	  x1:0x00000000 x20:0xcfc1d000
       55945000	      5593	00000000	00000013	addi	x0,x0,0	  x0:0x00000000
       55955000	      5594	800046e8	00000013	addi	x0,x0,0	  x0:0x00000000
       55965000	      5595	800046ec	00000013	addi	x0,x0,0	  x0:0x00000000
       55975000	      5596	800046f0	12906f13	ori	x30,x0,297	  x0:0x00000000 x30=0x00000129
       55985000	      5597	800046f4	db868913	addi	x18,x13,-584	 x13:0x8000a30a x18=0x8000a0c2
       55995000	      5598	800046f8	00dfb717	auipc	x14,0xdfb	 x14=0x80dff6f4
       56005000	      5599	800046fc	dbefd897	auipc	x17,0xdbefd	 x17=0x5bf016f8
       56015000	      5600	80004700	01cfca63	blt	x31,x28,80004714	 x31:0x00000001 x28:0xffffeade
       56025000	      5601	80004704	011d9093	slli	x1,x27,0x11	 x27:0x02fc538c  x1=0xa7180000
       56035000	      5602	80004708	04bec463	blt	x29,x11,80004750	 x29:0x02fc5100 x11:0x80009fc4
       56045000	      5603	8000470c	e9a32013	slti	x0,x6,-358	  x6:0x00000038
       56055000	      5604	80004710	01561663	bne	x12,x21,8000471c	 x12:0x00000000 x21:0x00000000
       56065000	      5605	80004714	050e8663	beq	x29,x16,80004760	 x29:0x02fc5100 x16:0x80000000
       56075000	      5606	80004718	00d1e863	bltu	x3,x13,80004728	  x3:0x00000001 x13:0x8000a30a
       56085000	      5607	00000000	00000013	addi	x0,x0,0	  x0:0x00000000
       56095000	      5608	80004724	00000013	addi	x0,x0,0	  x0:0x00000000
       56105000	      5609	80004728	409b5c33	sra	x24,x22,x9	 x22:0x004ffe01  x9:0x00000000 x24=0x004ffe01
       56115000	      5610	8000472c	001aa833	slt	x16,x21,x1	 x21:0x00000000  x1:0xa7180000 x16=0x00000000
       56125000	      5611	80004730	019e09b3	add	x19,x28,x25	 x28:0xffffeade x25:0x000027ff x19=0x000012dd
       56135000	      5612	80004734	7e1db093	sltiu	x1,x27,2017	 x27:0x02fc538c  x1=0x00000000
       56145000	      5613	80004738	00b5db13	srli	x22,x11,0xb	 x11:0x80009fc4 x22=0x00100013
       56155000	      5614	8000473c	008e5a63	bge	x28,x8,80004750	 x28:0xffffeade  x8:0x00000000
       56165000	      5615	80004740	014dda13	srli	x20,x27,0x14	 x27:0x02fc538c x20=0x0000002f
       56175000	      5616	80004744	02339463	bne	x7,x3,8000476c	  x7:0xffffffee  x3:0x00000001
       56185000	      5617	00000000	00000013	addi	x0,x0,0	  x0:0x00000000
       56195000	      5618	80004768	00000013	addi	x0,x0,0	  x0:0x00000000
       56205000	      5619	8000476c	01389c63	bne	x17,x19,80004784	 x17:0x5bf016f8 x19:0x000012dd
       56215000	      5620	00000000	00000013	addi	x0,x0,0	  x0:0x00000000
       56225000	      5621	80004780	00000013	addi	x0,x0,0	  x0:0x00000000
       56235000	      5622	80004784	01b40263	beq	x8,x27,80004788	  x8:0x00000000 x27:0x02fc538c
       56245000	      5623	80004788	955f2d13	slti	x26,x30,-1707	 x30:0x00000129 x26=0x00000000
       56255000	      5624	8000478c	410c0cb3	sub	x25,x24,x16	 x24:0x004ffe01 x16:0x00000000 x25=0x004ffe01
       56265000	      5625	80004790	00f48663	beq	x9,x15,8000479c	  x9:0x00000000 x15:0x02fc538d
       56275000	      5626	80004794	00000013	addi	x0,x0,0	  x0:0x00000000
       56285000	      5627	80004798	00b05663	bge	x0,x11,800047a4	  x0:0x00000000 x11:0x80009fc4
       56295000	      5628	00000000	00000013	addi	x0,x0,0	  x0:0x00000000
       56305000	      5629	800047a0	00000013	addi	x0,x0,0	  x0:0x00000000
       56315000	      5630	800047a4	01d3aeb3	slt	x29,x7,x29	  x7:0xffffffee x29:0x02fc5100 x29=0x00000001
       56325000	      5631	800047a8	f15fcf93	xori	x31,x31,-235	 x31:0x00000001 x31=0xffffff14
       56335000	      5632	800047ac	9135c993	xori	x19,x11,-1773	 x11:0x80009fc4 x19=0x7fff66d7
       56345000	      5633	800047b0	008769b3	or	x19,x14,x8	 x14:0x80dff6f4  x8:0x00000000 x19=0x80dff6f4
       56355000	      5634	800047b4	00000013	addi	x0,x0,0	  x0:0x00000000
       56365000	      5635	800047b8	001f8333	add	x6,x31,x1	 x31:0xffffff14  x1:0x00000000  x6=0xffffff14
       56375000	      5636	800047bc	266d8a93	addi	x21,x27,614	 x27:0x02fc538c x21=0x02fc55f2
       56385000	      5637	800047c0	8c1dc493	xori	x9,x27,-1855	 x27:0x02fc538c  x9=0xfd03ab4d
       56395000	      5638	800047c4	b85b8f13	addi	x30,x23,-1147	 x23:0x0000000d x30=0xfffffb92
       56405000	      5639	800047c8	410c8033	sub	x0,x25,x16	 x25:0x004ffe01 x16:0x00000000
       56415000	      5640	800047cc	01717663	bgeu	x2,x23,800047d8	  x2:0xfffff921 x23:0x0000000d
       56425000	      5641	00000000	00000013	addi	x0,x0,0	  x0:0x00000000
       56435000	      5642	800047d4	00000013	addi	x0,x0,0	  x0:0x00000000
       56445000	      5643	800047d8	75d32493	slti	x9,x6,1885	  x6:0xffffff14  x9=0x00000001
       56455000	      5644	800047dc	01e26833	or	x16,x4,x30	  x4:0x00000001 x30:0xfffffb92 x16=0xfffffb93
       56465000	      5645	800047e0	00587263	bgeu	x16,x5,800047e4	 x16:0xfffffb93  x5:0xffffdfb4
       56475000	      5646	00000000	00000013	addi	x0,x0,0	  x0:0x00000000
       56485000	      5647	800047e0	00000013	addi	x0,x0,0	  x0:0x00000000
       56495000	      5648	800047e4	afb4fb13	andi	x22,x9,-1285	  x9:0x00000001 x22=0x00000001
       56505000	      5649	800047e8	032a4863	blt	x20,x18,80004818	 x20:0x0000002f x18:0x8000a0c2
       56515000	      5650	800047ec	415c0e33	sub	x28,x24,x21	 x24:0x004ffe01 x21:0x02fc55f2 x28=0xfd53a80f
       56525000	      5651	800047f0	003fa6b3	slt	x13,x31,x3	 x31:0xffffff14  x3:0x00000001 x13=0x00000001
       56535000	      5652	800047f4	0101da63	bge	x3,x16,80004808	  x3:0x00000001 x16:0xfffffb93
       56545000	      5653	00000000	00000013	addi	x0,x0,0	  x0:0x00000000
       56555000	      5654	80004804	00000013	addi	x0,x0,0	  x0:0x00000000
       56565000	      5655	80004808	04200663	beq	x0,x2,80004854	  x0:0x00000000  x2:0xfffff921
       56575000	      5656	8000480c	2210b413	sltiu	x8,x1,545	  x1:0x00000000  x8=0x00000001
       56585000	      5657	80004810	0467e463	bltu	x15,x6,80004858	 x15:0x02fc538d  x6:0xffffff14
       56595000	      5658	00000000	00000013	addi	x0,x0,0	  x0:0x00000000
       56605000	      5659	80004854	00000013	addi	x0,x0,0	  x0:0x00000000
       56615000	      5660	80004858	f1303213	sltiu	x4,x0,-237	  x0:0x00000000  x4=0x00000001
       56625000	      5661	8000485c	410189b3	sub	x19,x3,x16	  x3:0x00000001 x16:0xfffffb93 x19=0x0000046e
       56635000	      5662	80004860	56563313	sltiu	x6,x12,1381	 x12:0x00000000  x6=0x00000001
       56645000	      5663	80004864	00dee8b3	or	x17,x29,x13	 x29:0x00000001 x13:0x00000001 x17=0x00000001
       56655000	      5664	80004868	40d60933	sub	x18,x12,x13	 x12:0x00000000 x13:0x00000001 x18=0xffffffff
       56665000	      5665	8000486c	01f74eb3	xor	x29,x14,x31	 x14:0x80dff6f4 x31:0xffffff14 x29=0x7f2009e0
       56675000	      5666	80004870	0369f263	bgeu	x19,x22,80004894	 x19:0x0000046e x22:0x00000001
       56685000	      5667	00000000	00000013	addi	x0,x0,0	  x0:0x00000000
       56695000	      5668	80004890	00000013	addi	x0,x0,0	  x0:0x00000000
       56705000	      5669	80004894	41740133	sub	x2,x8,x23	  x8:0x00000001 x23:0x0000000d  x2=0xfffffff4
       56715000	      5670	80004898	40100433	sub	x8,x0,x1	  x0:0x00000000  x1:0x00000000  x8=0x00000000
       56725000	      5671	8000489c	5f833817	auipc	x16,0x5f833	 x16=0xdf837898
       56735000	      5672	800048a0	9cbfe737	lui	x14,0x9cbfe	 x14=0x9cbfe000
       56745000	      5673	800048a4	d79662b7	lui	x5,0xd7966	  x5=0xd7966000
       56755000	      5674	800048a8	a9516997	auipc	x19,0xa9516	 x19=0x2951a8a4
       56765000	      5675	800048ac	407cd433	sra	x8,x25,x7	 x25:0x004ffe01  x7:0xffffffee  x8=0x0000013f
       56775000	      5676	800048b0	00b0d493	srli	x9,x1,0xb	  x1:0x00000000  x9=0x00000000
       56785000	      5677	800048b4	007b71b3	and	x3,x22,x7	 x22:0x00000001  x7:0xffffffee  x3=0x00000000
       56795000	      5678	800048b8	040bc463	blt	x23,x0,80004900	 x23:0x0000000d  x0:0x00000000
       56805000	      5679	800048bc	0078ceb3	xor	x29,x17,x7	 x17:0x00000001  x7:0xffffffee x29=0xffffffef
       56815000	      5680	800048c0	41b2df33	sra	x30,x5,x27	  x5:0xd7966000 x27:0x02fc538c x30=0xfffd7966
       56825000	      5681	800048c4	00000013	addi	x0,x0,0	  x0:0x00000000
       56835000	      5682	800048c8	b3202a93	slti	x21,x0,-1230	  x0:0x00000000 x21=0x00000000
       56845000	      5683	800048cc	04005063	bge	x0,x0,8000490c	  x0:0x00000000  x0:0x00000000
       56855000	      5684	00000000	00000013	addi	x0,x0,0	  x0:0x00000000
       56865000	      5685	80004908	00000013	addi	x0,x0,0	  x0:0x00000000
       56875000	      5686	8000490c	b6fe7117	auipc	x2,0xb6fe7	  x2=0x36feb908
       56885000	      5687	80004910	0020ad33	slt	x26,x1,x2	  x1:0x00000000  x2:0x36feb908 x26=0x00000001
       56895000	      5688	80004914	0032a133	slt	x2,x5,x3	  x5:0xd7966000  x3:0x00000000  x2=0x00000001
       56905000	      5689	80004918	98038913	addi	x18,x7,-1664	  x7:0xffffffee x18=0xfffff96e
       56915000	      5690	8000491c	01bdfeb3	and	x29,x27,x27	 x27:0x02fc538c x27:0x02fc538c x29=0x02fc538c
       56925000	      5691	80004920	007c1913	slli	x18,x24,0x7	 x24:0x004ffe01 x18=0x27ff0080
       56935000	      5692	80004924	004ce733	or	x14,x25,x4	 x25:0x004ffe01  x4:0x00000001 x14=0x004ffe01
       56945000	      5693	80004928	03984c63	blt	x16,x25,80004960	 x16:0xdf837898 x25:0x004ffe01
       56955000	      5694	00000000	00000013	addi	x0,x0,0	  x0:0x00000000
       56965000	      5695	8000495c	00000013	addi	x0,x0,0	  x0:0x00000000
       56975000	      5696	80004960	01d5cd33	xor	x26,x11,x29	 x11:0x80009fc4 x29:0x02fc538c x26=0x82fccc48
       56985000	      5697	80004964	03ade263	bltu	x27,x26,80004988	 x27:0x02fc538c x26:0x82fccc48
       56995000	      5698	00000000	00000013	addi	x0,x0,0	  x0:0x00000000
       57005000	      5699	80004984	00000013	addi	x0,x0,0	  x0:0x00000000
       57015000	      5700	80004988	0195aa33	slt	x20,x11,x25	 x11:0x80009fc4 x25:0x004ffe01 x20=0x00000001
       57025000	      5701	8000498c	05a90663	beq	x18,x26,800049d8	 x18:0x27ff0080 x26:0x82fccc48
       57035000	      5702	80004990	016bd933	srl	x18,x23,x22	 x23:0x0000000d x22:0x00000001 x18=0x00000006
       57045000	      5703	80004994	00e8f263	bgeu	x17,x14,80004998	 x17:0x00000001 x14:0x004ffe01
       57055000	      5704	80004998	fdee6d13	ori	x26,x28,-34	 x28:0xfd53a80f x26=0xffffffdf
       57065000	      5705	8000499c	018d1e33	sll	x28,x26,x24	 x26:0xffffffdf x24:0x004ffe01 x28=0xffffffbe
       57075000	      5706	800049a0	00891663	bne	x18,x8,800049ac	 x18:0x00000006  x8:0x0000013f
       57085000	      5707	00000000	00000013	addi	x0,x0,0	  x0:0x00000000
       57095000	      5708	800049a8	00000013	addi	x0,x0,0	  x0:0x00000000
       57105000	      5709	800049ac	01e27033	and	x0,x4,x30	  x4:0x00000001 x30:0xfffd7966
       57115000	      5710	800049b0	418ed0b3	sra	x1,x29,x24	 x29:0x02fc538c x24:0x004ffe01  x1=0x017e29c6
       57125000	      5711	800049b4	008592b3	sll	x5,x11,x8	 x11:0x80009fc4  x8:0x0000013f  x5=0x00000000
       57135000	      5712	800049b8	a251bf93	sltiu	x31,x3,-1499	  x3:0x00000000 x31=0x00000001
       57145000	      5713	800049bc	3cb2bd13	sltiu	x26,x5,971	  x5:0x00000000 x26=0x00000001
       57155000	      5714	800049c0	41305833	sra	x16,x0,x19	  x0:0x00000000 x19:0x2951a8a4 x16=0x00000000
       57165000	      5715	800049c4	01b5df33	srl	x30,x11,x27	 x11:0x80009fc4 x27:0x02fc538c x30=0x00080009
       57175000	      5716	800049c8	3bfcacb7	lui	x25,0x3bfca	 x25=0x3bfca000
       57185000	      5717	800049cc	4098d693	srai	x13,x17,0x9	 x17:0x00000001 x13=0x00000000
       57195000	      5718	800049d0	ba241017	auipc	x0,0xba241	
       57205000	      5719	800049d4	01e6d263	bge	x13,x30,800049d8	 x13:0x00000000 x30:0x00080009
       57215000	      5720	800049d8	a354af93	slti	x31,x9,-1483	  x9:0x00000000 x31=0x00000000
       57225000	      5721	800049dc	023a4863	blt	x20,x3,80004a0c	 x20:0x00000001  x3:0x00000000
       57235000	      5722	800049e0	14b78193	addi	x3,x15,331	 x15:0x02fc538d  x3=0x02fc54d8
       57245000	      5723	800049e4	00429733	sll	x14,x5,x4	  x5:0x00000000  x4:0x00000001 x14=0x00000000
       57255000	      5724	800049e8	04cfc6b7	lui	x13,0x4cfc	 x13=0x04cfc000
       57265000	      5725	800049ec	41ac0733	sub	x14,x24,x26	 x24:0x004ffe01 x26:0x00000001 x14=0x004ffe00
       57275000	      5726	800049f0	00151493	slli	x9,x10,0x1	 x10:0x80009f28  x9=0x00013e50
       57285000	      5727	800049f4	01123db3	sltu	x27,x4,x17	  x4:0x00000001 x17:0x00000001 x27=0x00000000
       57295000	      5728	800049f8	00835fb3	srl	x31,x6,x8	  x6:0x00000001  x8:0x0000013f x31=0x00000000
       57305000	      5729	800049fc	014c74b3	and	x9,x24,x20	 x24:0x004ffe01 x20:0x00000001  x9=0x00000001
       57315000	      5730	80004a00	008b5c63	bge	x22,x8,80004a18	 x22:0x00000001  x8:0x0000013f
       57325000	      5731	80004a04	412356b3	sra	x13,x6,x18	  x6:0x00000001 x18:0x00000006 x13=0x00000000
       57335000	      5732	80004a08	009198b3	sll	x17,x3,x9	  x3:0x02fc54d8  x9:0x00000001 x17=0x05f8a9b0
       57345000	      5733	80004a0c	00309d33	sll	x26,x1,x3	  x1:0x017e29c6  x3:0x02fc54d8 x26=0xc6000000
       57355000	      5734	80004a10	de578e13	addi	x28,x15,-539	 x15:0x02fc538d x28=0x02fc5172
       57365000	      5735	80004a14	0fd6f263	bgeu	x13,x29,80004af8	 x13:0x00000000 x29:0x02fc538c
       57375000	      5736	80004a18	403c5133	sra	x2,x24,x3	 x24:0x004ffe01  x3:0x02fc54d8  x2=0x00000000
       57385000	      5737	80004a1c	41b580b3	sub	x1,x11,x27	 x11:0x80009fc4 x27:0x00000000  x1=0x80009fc4
       57395000	      5738	80004a20	40df5433	sra	x8,x30,x13	 x30:0x00080009 x13:0x00000000  x8=0x00080009
       57405000	      5739	80004a24	e5463293	sltiu	x5,x12,-428	 x12:0x00000000  x5=0x00000001
       57415000	      5740	80004a28	90f57093	andi	x1,x10,-1777	 x10:0x80009f28  x1=0x80009908
       57425000	      5741	80004a2c	00003a97	auipc	x21,0x3	 x21=0x80007a28
       57435000	      5742	80004a30	6b6a8a93	addi	x21,x21,1718	 x21:0x80007a28 x21=0x800080de
       57445000	      5743	80004a34	ffdacf83	lbu	x31,-3(x21)	 x21:0x800080de x31=0x00000000 PA:0x800080db
       57455000	      5744	80004a38	008a8e83	lb	x29,8(x21)	 x21:0x800080de x29=0xffffffe4 PA:0x800080e6
       57465000	      5745	80004a3c	ffaa9283	lh	x5,-6(x21)	 x21:0x800080de  x5=0xffffd139 PA:0x800080d8
       57475000	      5746	80004a40	00000013	addi	x0,x0,0	  x0:0x00000000
       57485000	      5747	80004a44	4125d733	sra	x14,x11,x18	 x11:0x80009fc4 x18:0x00000006 x14=0xfe00027f
       57495000	      5748	80004a48	0037d313	srli	x6,x15,0x3	 x15:0x02fc538d  x6=0x005f8a71
       57505000	      5749	80004a4c	00da80a3	sb	x13,1(x21)	 x21:0x800080de x13:0x00000000 PA:0x800080df
       57515000	      5750	80004a50	005acf03	lbu	x30,5(x21)	 x21:0x800080de x30=0x000000b0 PA:0x800080e3
       57525000	      5751	80004a54	00aa81a3	sb	x10,3(x21)	 x21:0x800080de x10:0x80009f28 PA:0x800080e1
       57535000	      5752	80004a58	ffcadd83	lhu	x27,-4(x21)	 x21:0x800080de x27=0x00000093 PA:0x800080da
       57545000	      5753	80004a5c	000a8983	lb	x19,0(x21)	 x21:0x800080de x19=0xffffffbb PA:0x800080de
       57555000	      5754	80004a60	005a8783	lb	x15,5(x21)	 x21:0x800080de x15=0xffffffb0 PA:0x800080e3
       57565000	      5755	80004a64	00d892b3	sll	x5,x17,x13	 x17:0x05f8a9b0 x13:0x00000000  x5=0x05f8a9b0
       57575000	      5756	80004a68	01605d13	srli	x26,x0,0x16	  x0:0x00000000 x26=0x00000000
       57585000	      5757	80004a6c	00583c33	sltu	x24,x16,x5	 x16:0x00000000  x5:0x05f8a9b0 x24=0x00000001
       57595000	      5758	80004a70	002ac903	lbu	x18,2(x21)	 x21:0x800080de x18=0x0000004a PA:0x800080e0
       57605000	      5759	80004a74	ffaa9b03	lh	x22,-6(x21)	 x21:0x800080de x22=0xffffd139 PA:0x800080d8
       57615000	      5760	80004a78	00d5e133	or	x2,x11,x13	 x11:0x80009fc4 x13:0x00000000  x2=0x80009fc4
       57625000	      5761	80004a7c	fe2a89a3	sb	x2,-13(x21)	 x21:0x800080de  x2:0x80009fc4 PA:0x800080d1
       57635000	      5762	80004a80	d9566f17	auipc	x30,0xd9566	 x30=0x5956aa7c
       57645000	      5763	80004a84	40365233	sra	x4,x12,x3	 x12:0x00000000  x3:0x02fc54d8  x4=0x00000000
       57655000	      5764	80004a88	ff5a8ea3	sb	x21,-3(x21)	 x21:0x800080de x21:0x800080de PA:0x800080db
       57665000	      5765	80004a8c	00c78a33	add	x20,x15,x12	 x15:0xffffffb0 x12:0x00000000 x20=0xffffffb0
       57675000	      5766	80004a90	ff7ac103	lbu	x2,-9(x21)	 x21:0x800080de  x2=0x000000fb PA:0x800080d5
       57685000	      5767	80004a94	fe5a8f23	sb	x5,-2(x21)	 x21:0x800080de  x5:0x05f8a9b0 PA:0x800080dc
       57695000	      5768	80004a98	e92f24b7	lui	x9,0xe92f2	  x9=0xe92f2000
       57705000	      5769	80004a9c	4ec410b7	lui	x1,0x4ec41	  x1=0x4ec41000
       57715000	      5770	80004aa0	43938193	addi	x3,x7,1081	  x7:0xffffffee  x3=0x00000427
       57725000	      5771	80004aa4	00000013	addi	x0,x0,0	  x0:0x00000000
       57735000	      5772	80004aa8	00000013	addi	x0,x0,0	  x0:0x00000000
       57745000	      5773	80004aac	37adb413	sltiu	x8,x27,890	 x27:0x00000093  x8=0x00000001
       57755000	      5774	80004ab0	ffaa8ea3	sb	x26,-3(x21)	 x21:0x800080de x26:0x00000000 PA:0x800080db
       57765000	      5775	80004ab4	00bb81b3	add	x3,x23,x11	 x23:0x0000000d x11:0x80009fc4  x3=0x80009fd1
       57775000	      5776	80004ab8	9b570713	addi	x14,x14,-1611	 x14:0xfe00027f x14=0xfdfffc34
       57785000	      5777	80004abc	d662a213	slti	x4,x5,-666	  x5:0x05f8a9b0  x4=0x00000000
       57795000	      5778	80004ac0	21f64313	xori	x6,x12,543	 x12:0x00000000  x6=0x0000021f
       57805000	      5779	80004ac4	00000013	addi	x0,x0,0	  x0:0x00000000
       57815000	      5780	80004ac8	ff1acd03	lbu	x26,-15(x21)	 x21:0x800080de x26=0x0000001c PA:0x800080cf
       57825000	      5781	80004acc	005a82a3	sb	x5,5(x21)	 x21:0x800080de  x5:0x05f8a9b0 PA:0x800080e3
       57835000	      5782	80004ad0	007a8783	lb	x15,7(x21)	 x21:0x800080de x15=0xffffffc7 PA:0x800080e5
       57845000	      5783	80004ad4	e2ee6413	ori	x8,x28,-466	 x28:0x02fc5172  x8=0xffffff7e
       57855000	      5784	80004ad8	00fa85a3	sb	x15,11(x21)	 x21:0x800080de x15:0xffffffc7 PA:0x800080e9
       57865000	      5785	80004adc	0024f263	bgeu	x9,x2,80004ae0	  x9:0xe92f2000  x2:0x000000fb
       57875000	      5786	00000000	00000013	addi	x0,x0,0	  x0:0x00000000
       57885000	      5787	80004adc	00000013	addi	x0,x0,0	  x0:0x00000000
       57895000	      5788	80004ae0	00cce6b3	or	x13,x25,x12	 x25:0x3bfca000 x12:0x00000000 x13=0x3bfca000
       57905000	      5789	80004ae4	003f7a63	bgeu	x30,x3,80004af8	 x30:0x5956aa7c  x3:0x80009fd1
       57915000	      5790	80004ae8	40a15413	srai	x8,x2,0xa	  x2:0x000000fb  x8=0x00000000
       57925000	      5791	80004aec	40b2d6b3	sra	x13,x5,x11	  x5:0x05f8a9b0 x11:0x80009fc4 x13=0x005f8a9b
       57935000	      5792	80004af0	e74708b7	lui	x17,0xe7470	 x17=0xe7470000
       57945000	      5793	80004af4	39a6a013	slti	x0,x13,922	 x13:0x005f8a9b
       57955000	      5794	80004af8	418450b3	sra	x1,x8,x24	  x8:0x00000000 x24:0x00000001  x1=0x00000000
       57965000	      5795	80004afc	00452a03	lw	x20,4(x10)	 x10:0x80009f28 x20=0x800050e0 PA:0x80009f2c
       57975000	      5796	80004b00	01aedeb3	srl	x29,x29,x26	 x29:0xffffffe4 x26:0x0000001c x29=0x0000000f
       57985000	      5797	80004b04	00154f33	xor	x30,x10,x1	 x10:0x80009f28  x1:0x00000000 x30=0x80009f28
       57995000	      5798	80004b08	00c50513	addi	x10,x10,12	 x10:0x80009f28 x10=0x80009f34
       58005000	      5799	80004b0c	01e45313	srli	x6,x8,0x1e	  x8:0x00000000  x6=0x00000000
       58015000	      5800	80004b10	001a0c93	addi	x25,x20,1	 x20:0x800050e0 x25=0x800050e1
       58025000	      5801	80004b14	000c8ce7	jalr	x25,x25,0	 x25:0x800050e1 x25=0x80004b14
       58035000	      5802	00000000	00000013	addi	x0,x0,0	  x0:0x00000000
       58045000	      5803	800050e0	00000013	addi	x0,x0,0	  x0:0x00000000
       58055000	      5804	800050e4	ffffc997	auipc	x19,0xffffc	 x19=0x800010e0
       58065000	      5805	800050e8	30c98993	addi	x19,x19,780	 x19:0x800010e0 x19=0x800013ec
       58075000	      5806	800050ec	41c4d033	sra	x0,x9,x28	  x9:0xe92f2000 x28:0x02fc5172
       58085000	      5807	800050f0	37754713	xori	x14,x10,887	 x10:0x80009f34 x14=0x80009c43
       58095000	      5808	800050f4	716ebd93	sltiu	x27,x29,1814	 x29:0x0000000f x27=0x00000001
       58105000	      5809	800050f8	40d6db13	srai	x22,x13,0xd	 x13:0x005f8a9b x22=0x000002fc
       58115000	      5810	800050fc	00161493	slli	x9,x12,0x1	 x12:0x00000000  x9=0x00000000
       58125000	      5811	80005100	fd998993	addi	x19,x19,-39	 x19:0x800013ec x19=0x800013c5
       58135000	      5812	80005104	01526db3	or	x27,x4,x21	  x4:0x00000000 x21:0x800080de x27=0x800080de
       58145000	      5813	80005108	41f0d913	srai	x18,x1,0x1f	  x1:0x00000000 x18=0x00000000
       58155000	      5814	8000510c	439cb913	sltiu	x18,x25,1081	 x25:0x80004b14 x18=0x00000000
       58165000	      5815	80005110	02898a67	jalr	x20,x19,40	 x19:0x800013c5 x20=0x80005110
       58175000	      5816	00000000	00000013	addi	x0,x0,0	  x0:0x00000000
       58185000	      5817	800013ec	00000013	addi	x0,x0,0	  x0:0x00000000
       58195000	      5818	800013f0	fe050513	addi	x10,x10,-32	 x10:0x80009f34 x10=0x80009f14
       58205000	      5819	800013f4	afde7a93	andi	x21,x28,-1283	 x28:0x02fc5172 x21=0x02fc5070
       58215000	      5820	800013f8	01452223	sw	x20,4(x10)	 x10:0x80009f14 x20:0x80005110 PA:0x80009f18
       58225000	      5821	800013fc	416b5693	srai	x13,x22,0x16	 x22:0x000002fc x13=0x00000000
       58235000	      5822	80001400	ca79b013	sltiu	x0,x19,-857	 x19:0x800013c5
       58245000	      5823	80001404	412e82b3	sub	x5,x29,x18	 x29:0x0000000f x18:0x00000000  x5=0x0000000f
       58255000	      5824	80001408	40ed8633	sub	x12,x27,x14	 x27:0x800080de x14:0x80009c43 x12=0xffffe49b
       58265000	      5825	8000140c	00000013	addi	x0,x0,0	  x0:0x00000000
       58275000	      5826	80001410	00007817	auipc	x16,0x7	 x16=0x8000840c
       58285000	      5827	80001414	50180813	addi	x16,x16,1281	 x16:0x8000840c x16=0x8000890d
       58295000	      5828	80001418	f5080da3	sb	x16,-165(x16)	 x16:0x8000890d x16:0x8000890d PA:0x80008868
       58305000	      5829	8000141c	41288d33	sub	x26,x17,x18	 x17:0xe7470000 x18:0x00000000 x26=0xe7470000
       58315000	      5830	80001420	00549413	slli	x8,x9,0x5	  x9:0x00000000  x8=0x00000000
       58325000	      5831	80001424	55680a23	sb	x22,1364(x16)	 x16:0x8000890d x22:0x000002fc PA:0x80008e61
       58335000	      5832	80001428	4e680e23	sb	x6,1276(x16)	 x16:0x8000890d  x6:0x00000000 PA:0x80008e09
       58345000	      5833	8000142c	a6ea0013	addi	x0,x20,-1426	 x20:0x80005110
       58355000	      5834	80001430	19d81a03	lh	x20,413(x16)	 x16:0x8000890d x20=0x00006b5e PA:0x80008aaa
       58365000	      5835	80001434	2f781d03	lh	x26,759(x16)	 x16:0x8000890d x26=0x000000bc PA:0x80008c04
       58375000	      5836	80001438	17284983	lbu	x19,370(x16)	 x16:0x8000890d x19=0x00000076 PA:0x80008a7f
       58385000	      5837	8000143c	b6060913	addi	x18,x12,-1184	 x12:0xffffe49b x18=0xffffdffb
       58395000	      5838	80001440	00d558b3	srl	x17,x10,x13	 x10:0x80009f14 x13:0x00000000 x17=0x80009f14
       58405000	      5839	80001444	04d85e83	lhu	x29,77(x16)	 x16:0x8000890d x29=0x000029c1 PA:0x8000895a
       58415000	      5840	80001448	54b81fa3	sh	x11,1375(x16)	 x16:0x8000890d x11:0x80009fc4 PA:0x80008e6c
       58425000	      5841	8000144c	f8185703	lhu	x14,-127(x16)	 x16:0x8000890d x14=0x000057be PA:0x8000888e
       58435000	      5842	80001450	123c3013	sltiu	x0,x24,291	 x24:0x00000001
       58445000	      5843	80001454	e6d24797	auipc	x15,0xe6d24	 x15=0x66d25450
       58455000	      5844	80001458	10180e83	lb	x29,257(x16)	 x16:0x8000890d x29=0x00000063 PA:0x80008a0e
       58465000	      5845	8000145c	44350c13	addi	x24,x10,1091	 x10:0x80009f14 x24=0x8000a357
       58475000	      5846	80001460	06f85e03	lhu	x28,111(x16)	 x16:0x8000890d x28=0x0000e400 PA:0x8000897c
       58485000	      5847	80001464	f4880403	lb	x8,-184(x16)	 x16:0x8000890d  x8=0xffffff9d PA:0x80008855
       58495000	      5848	80001468	0152cd33	xor	x26,x5,x21	  x5:0x0000000f x21:0x02fc5070 x26=0x02fc507f
       58505000	      5849	8000146c	52f82a83	lw	x21,1327(x16)	 x16:0x8000890d x21=0xc29ed89d PA:0x80008e3c
       58515000	      5850	80001470	40290733	sub	x14,x18,x2	 x18:0xffffdffb  x2:0x000000fb x14=0xffffdf00
       58525000	      5851	80001474	00000013	addi	x0,x0,0	  x0:0x00000000
       58535000	      5852	80001478	003618b3	sll	x17,x12,x3	 x12:0xffffe49b  x3:0x80009fd1 x17=0xc9360000
       58545000	      5853	8000147c	00c381b3	add	x3,x7,x12	  x7:0xffffffee x12:0xffffe49b  x3=0xffffe489
       58555000	      5854	80001480	68581183	lh	x3,1669(x16)	 x16:0x8000890d  x3=0xffffcde8 PA:0x80008f92
       58565000	      5855	80001484	4158de33	sra	x28,x17,x21	 x17:0xc9360000 x21:0xc29ed89d x28=0xfffffffe
       58575000	      5856	80001488	53880f03	lb	x30,1336(x16)	 x16:0x8000890d x30=0x00000044 PA:0x80008e45
       58585000	      5857	8000148c	63384f83	lbu	x31,1587(x16)	 x16:0x8000890d x31=0x000000aa PA:0x80008f40
       58595000	      5858	80001490	006a0433	add	x8,x20,x6	 x20:0x00006b5e  x6:0x00000000  x8=0x00006b5e
       58605000	      5859	80001494	1b180023	sb	x17,416(x16)	 x16:0x8000890d x17:0xc9360000 PA:0x80008aad
       58615000	      5860	80001498	1c884883	lbu	x17,456(x16)	 x16:0x8000890d x17=0x000000b5 PA:0x80008ad5
       58625000	      5861	8000149c	418d56b3	sra	x13,x26,x24	 x26:0x02fc507f x24:0x8000a357 x13=0x00000005
       58635000	      5862	800014a0	00408f33	add	x30,x1,x4	  x1:0x00000000  x4:0x00000000 x30=0x00000000
       58645000	      5863	800014a4	40b81d83	lh	x27,1035(x16)	 x16:0x8000890d x27=0xffff8c97 PA:0x80008d18
       58655000	      5864	800014a8	21880323	sb	x24,518(x16)	 x16:0x8000890d x24:0x8000a357 PA:0x80008b13
       58665000	      5865	800014ac	20180ca3	sb	x1,537(x16)	 x16:0x8000890d  x1:0x00000000 PA:0x80008b26
       58675000	      5866	800014b0	00000013	addi	x0,x0,0	  x0:0x00000000
       58685000	      5867	800014b4	5bd829a3	sw	x29,1459(x16)	 x16:0x8000890d x29:0x00000063 PA:0x80008ec0
       58695000	      5868	800014b8	f5c07937	lui	x18,0xf5c07	 x18=0xf5c07000
       58705000	      5869	800014bc	007c3413	sltiu	x8,x24,7	 x24:0x8000a357  x8=0x00000000
       58715000	      5870	800014c0	f6280883	lb	x17,-158(x16)	 x16:0x8000890d x17=0x00000032 PA:0x8000886f
       58725000	      5871	800014c4	00aca6b3	slt	x13,x25,x10	 x25:0x80004b14 x10:0x80009f14 x13=0x00000001
       58735000	      5872	800014c8	55580323	sb	x21,1350(x16)	 x16:0x8000890d x21:0xc29ed89d PA:0x80008e53
       58745000	      5873	800014cc	00000013	addi	x0,x0,0	  x0:0x00000000
       58755000	      5874	800014d0	d6b27e93	andi	x29,x4,-661	  x4:0x00000000 x29=0x00000000
       58765000	      5875	800014d4	5c181603	lh	x12,1473(x16)	 x16:0x8000890d x12=0x000052c8 PA:0x80008ece
       58775000	      5876	800014d8	13a4a397	auipc	x7,0x13a4a	  x7=0x93a4b4d4
       58785000	      5877	800014dc	00000013	addi	x0,x0,0	  x0:0x00000000
       58795000	      5878	800014e0	01945293	srli	x5,x8,0x19	  x8:0x00000000  x5=0x00000000
       58805000	      5879	800014e4	50084e83	lbu	x29,1280(x16)	 x16:0x8000890d x29=0x00000094 PA:0x80008e0d
       58815000	      5880	800014e8	417f5133	sra	x2,x30,x23	 x30:0x00000000 x23:0x0000000d  x2=0x00000000
       58825000	      5881	800014ec	01b07033	and	x0,x0,x27	  x0:0x00000000 x27:0xffff8c97
       58835000	      5882	800014f0	00382f03	lw	x30,3(x16)	 x16:0x8000890d x30=0x35f380b3 PA:0x80008910
       58845000	      5883	800014f4	60782303	lw	x6,1543(x16)	 x16:0x8000890d  x6=0x3cea4c02 PA:0x80008f14
       58855000	      5884	800014f8	00007a17	auipc	x20,0x7	 x20=0x800084f4
       58865000	      5885	800014fc	c93a0a13	addi	x20,x20,-877	 x20:0x800084f4 x20=0x80008187
       58875000	      5886	80001500	40add413	srai	x8,x27,0xa	 x27:0xffff8c97  x8=0xffffffe3
       58885000	      5887	80001504	f08a0f23	sb	x8,-226(x20)	 x20:0x80008187  x8:0xffffffe3 PA:0x800080a5
       58895000	      5888	80001508	01dad333	srl	x6,x21,x29	 x21:0xc29ed89d x29:0x00000094  x6=0x00000c29
       58905000	      5889	8000150c	0b9f8f37	lui	x30,0xb9f8	 x30=0x0b9f8000
       58915000	      5890	80001510	9ff36f13	ori	x30,x6,-1537	  x6:0x00000c29 x30=0xfffffdff
       58925000	      5891	80001514	0d4a4083	lbu	x1,212(x20)	 x20:0x80008187  x1=0x000000a9 PA:0x8000825b
       58935000	      5892	80001518	fa2a0203	lb	x4,-94(x20)	 x20:0x80008187  x4=0xffffffa1 PA:0x80008129
       58945000	      5893	8000151c	00b47933	and	x18,x8,x11	  x8:0xffffffe3 x11:0x80009fc4 x18=0x80009fc0
       58955000	      5894	80001520	fd6a4e03	lbu	x28,-42(x20)	 x20:0x80008187 x28=0x000000b5 PA:0x8000815d
       58965000	      5895	80001524	f6ba1903	lh	x18,-149(x20)	 x20:0x80008187 x18=0x00007778 PA:0x800080f2
       58975000	      5896	80001528	fbfa1ca3	sh	x31,-71(x20)	 x20:0x80008187 x31:0x000000aa PA:0x80008140
       58985000	      5897	8000152c	f49a0e23	sb	x9,-164(x20)	 x20:0x80008187  x9:0x00000000 PA:0x800080e3
       58995000	      5898	80001530	0a4a1ba3	sh	x4,183(x20)	 x20:0x80008187  x4:0xffffffa1 PA:0x8000823e
       59005000	      5899	80001534	41b3d4b3	sra	x9,x7,x27	  x7:0x93a4b4d4 x27:0xffff8c97  x9=0xffffff27
       59015000	      5900	80001538	077a0483	lb	x9,119(x20)	 x20:0x80008187  x9=0xffffffe6 PA:0x800081fe
       59025000	      5901	8000153c	d84ce813	ori	x16,x25,-636	 x25:0x80004b14 x16=0xffffff94
       59035000	      5902	80001540	f4fa0983	lb	x19,-177(x20)	 x20:0x80008187 x19=0x00000051 PA:0x800080d6
       59045000	      5903	80001544	0e9a0a23	sb	x9,244(x20)	 x20:0x80008187  x9:0xffffffe6 PA:0x8000827b
       59055000	      5904	80001548	2f390893	addi	x17,x18,755	 x18:0x00007778 x17=0x00007a6b
       59065000	      5905	8000154c	0158acb3	slt	x25,x17,x21	 x17:0x00007a6b x21:0xc29ed89d x25=0x00000000
       59075000	      5906	80001550	01264133	xor	x2,x12,x18	 x12:0x000052c8 x18:0x00007778  x2=0x000025b0
       59085000	      5907	80001554	f51a06a3	sb	x17,-179(x20)	 x20:0x80008187 x17:0x00007a6b PA:0x800080d4
       59095000	      5908	80001558	0a2a0623	sb	x2,172(x20)	 x20:0x80008187  x2:0x000025b0 PA:0x80008233
       59105000	      5909	8000155c	a7678d13	addi	x26,x15,-1418	 x15:0x66d25450 x26=0x66d24ec6
       59115000	      5910	80001560	f07a4803	lbu	x16,-249(x20)	 x20:0x80008187 x16=0x0000008c PA:0x8000808e
       59125000	      5911	80001564	00ea4283	lbu	x5,14(x20)	 x20:0x80008187  x5=0x0000000c PA:0x80008195
       59135000	      5912	80001568	d2ef3093	sltiu	x1,x30,-722	 x30:0xfffffdff  x1=0x00000000
       59145000	      5913	8000156c	ff9a2303	lw	x6,-7(x20)	 x20:0x80008187  x6=0x627aa7f4 PA:0x80008180
       59155000	      5914	80001570	feaa0523	sb	x10,-22(x20)	 x20:0x80008187 x10:0x80009f14 PA:0x80008171
       59165000	      5915	80001574	f80a0623	sb	x0,-116(x20)	 x20:0x80008187  x0:0x00000000 PA:0x80008113
       59175000	      5916	80001578	da03ba13	sltiu	x20,x7,-608	  x7:0x93a4b4d4 x20=0x00000001
       59185000	      5917	8000157c	0032e733	or	x14,x5,x3	  x5:0x0000000c  x3:0xffffcde8 x14=0xffffcdec
       59195000	      5918	80001580	00000013	addi	x0,x0,0	  x0:0x00000000
       59205000	      5919	80001584	00edc1b3	xor	x3,x27,x14	 x27:0xffff8c97 x14:0xffffcdec  x3=0x0000417b
       59215000	      5920	80001588	f9d4f293	andi	x5,x9,-99	  x9:0xffffffe6  x5=0xffffff84
       59225000	      5921	8000158c	01daa733	slt	x14,x21,x29	 x21:0xc29ed89d x29:0x00000094 x14=0x00000001
       59235000	      5922	80001590	0583f263	bgeu	x7,x24,800015d4	  x7:0x93a4b4d4 x24:0x8000a357
       59245000	      5923	00000000	00000013	addi	x0,x0,0	  x0:0x00000000
       59255000	      5924	800015d0	00000013	addi	x0,x0,0	  x0:0x00000000
       59265000	      5925	800015d4	00000013	addi	x0,x0,0	  x0:0x00000000
       59275000	      5926	800015d8	404e0fb3	sub	x31,x28,x4	 x28:0x000000b5  x4:0xffffffa1 x31=0x00000114
       59285000	      5927	800015dc	01d7a033	slt	x0,x15,x29	 x15:0x66d25450 x29:0x00000094
       59295000	      5928	800015e0	01271113	slli	x2,x14,0x12	 x14:0x00000001  x2=0x00040000
       59305000	      5929	800015e4	0025c333	xor	x6,x11,x2	 x11:0x80009fc4  x2:0x00040000  x6=0x80049fc4
       59315000	      5930	800015e8	00000013	addi	x0,x0,0	  x0:0x00000000
       59325000	      5931	800015ec	00fc0d33	add	x26,x24,x15	 x24:0x8000a357 x15:0x66d25450 x26=0xe6d2f7a7
       59335000	      5932	800015f0	01e05b33	srl	x22,x0,x30	  x0:0x00000000 x30:0xfffffdff x22=0x00000000
       59345000	      5933	800015f4	40ad5eb3	sra	x29,x26,x10	 x26:0xe6d2f7a7 x10:0x80009f14 x29=0xfffffe6d
       59355000	      5934	800015f8	41790933	sub	x18,x18,x23	 x18:0x00007778 x23:0x0000000d x18=0x0000776b
       59365000	      5935	800015fc	90807113	andi	x2,x0,-1784	  x0:0x00000000  x2=0x00000000
       59375000	      5936	80001600	00da9d93	slli	x27,x21,0xd	 x21:0xc29ed89d x27=0xdb13a000
       59385000	      5937	80001604	01e89f13	slli	x30,x17,0x1e	 x17:0x00007a6b x30=0xc0000000
       59395000	      5938	80001608	00007097	auipc	x1,0x7	  x1=0x80008604
       59405000	      5939	8000160c	02008093	addi	x1,x1,32	  x1:0x80008604  x1=0x80008624
       59415000	      5940	80001610	fc109c23	sh	x1,-40(x1)	  x1:0x80008624  x1:0x80008624 PA:0x800085fc
       59425000	      5941	80001614	01330fb3	add	x31,x6,x19	  x6:0x80049fc4 x19:0x00000051 x31=0x8004a015
       59435000	      5942	80001618	fa708903	lb	x18,-89(x1)	  x1:0x80008624 x18=0x00000001 PA:0x800085cb
       59445000	      5943	8000161c	00a2da13	srli	x20,x5,0xa	  x5:0xffffff84 x20=0x003fffff
       59455000	      5944	80001620	f9e08f03	lb	x30,-98(x1)	  x1:0x80008624 x30=0x0000004f PA:0x800085c2
       59465000	      5945	80001624	0100dd83	lhu	x27,16(x1)	  x1:0x80008624 x27=0x00001045 PA:0x80008634
       59475000	      5946	80001628	08b08da3	sb	x11,155(x1)	  x1:0x80008624 x11:0x80009fc4 PA:0x800086bf
       59485000	      5947	8000162c	016f9993	slli	x19,x31,0x16	 x31:0x8004a015 x19=0x05400000
       59495000	      5948	80001630	68dd3493	sltiu	x9,x26,1677	 x26:0xe6d2f7a7  x9=0x00000000
       59505000	      5949	80001634	dc2faf13	slti	x30,x31,-574	 x31:0x8004a015 x30=0x00000001
       59515000	      5950	80001638	41a65913	srai	x18,x12,0x1a	 x12:0x000052c8 x18=0x00000000
       59525000	      5951	8000163c	f3b0c603	lbu	x12,-197(x1)	  x1:0x80008624 x12=0x0000002e PA:0x8000855f
       59535000	      5952	80001640	fe90cc83	lbu	x25,-23(x1)	  x1:0x80008624 x25=0x00000010 PA:0x8000860d
       59545000	      5953	80001644	011fecb3	or	x25,x31,x17	 x31:0x8004a015 x17:0x00007a6b x25=0x8004fa7f
       59555000	      5954	80001648	01eec233	xor	x4,x29,x30	 x29:0xfffffe6d x30:0x00000001  x4=0xfffffe6c
       59565000	      5955	8000164c	01c46733	or	x14,x8,x28	  x8:0xffffffe3 x28:0x000000b5 x14=0xfffffff7
       59575000	      5956	80001650	40c95fb3	sra	x31,x18,x12	 x18:0x00000000 x12:0x0000002e x31=0x00000000
       59585000	      5957	80001654	0e708203	lb	x4,231(x1)	  x1:0x80008624  x4=0xffffff91 PA:0x8000870b
       59595000	      5958	80001658	7c6ea693	slti	x13,x29,1990	 x29:0xfffffe6d x13=0x00000001
       59605000	      5959	8000165c	01097fb3	and	x31,x18,x16	 x18:0x00000000 x16:0x0000008c x31=0x00000000
       59615000	      5960	80001660	4d8dbc13	sltiu	x24,x27,1240	 x27:0x00001045 x24=0x00000000
       59625000	      5961	80001664	015c2833	slt	x16,x24,x21	 x24:0x00000000 x21:0xc29ed89d x16=0x00000000
       59635000	      5962	80001668	f6708383	lb	x7,-153(x1)	  x1:0x80008624  x7=0xffffffa7 PA:0x8000858b
       59645000	      5963	00000000	00000013	addi	x0,x0,0	  x0:0x00000000
       59655000	      5964	8000166c	f870c183	lbu	x3,-121(x1)	  x1:0x80008624  x3=0x00000080 PA:0x800085ab
       59665000	      5965	80001670	010e5d93	srli	x27,x28,0x10	 x28:0x000000b5 x27=0x00000000
       59675000	      5966	80001674	fa408183	lb	x3,-92(x1)	  x1:0x80008624  x3=0xffffffd4 PA:0x800085c8
       59685000	      5967	80001678	06908ca3	sb	x9,121(x1)	  x1:0x80008624  x9:0x00000000 PA:0x8000869d
       59695000	      5968	8000167c	01e178b3	and	x17,x2,x30	  x2:0x00000000 x30:0x00000001 x17=0x00000000
       59705000	      5969	80001680	00c74f33	xor	x30,x14,x12	 x14:0xfffffff7 x12:0x0000002e x30=0xffffffd9
       59715000	      5970	80001684	0b508283	lb	x5,181(x1)	  x1:0x80008624  x5=0x00000070 PA:0x800086d9
       59725000	      5971	80001688	9accaa13	slti	x20,x25,-1620	 x25:0x8004fa7f x20=0x00000001
       59735000	      5972	8000168c	f7608303	lb	x6,-138(x1)	  x1:0x80008624  x6=0xffffffc5 PA:0x8000859a
       59745000	      5973	00000000	00000013	addi	x0,x0,0	  x0:0x00000000
       59755000	      5974	80001690	0e6081a3	sb	x6,227(x1)	  x1:0x80008624  x6:0xffffffc5 PA:0x80008707
       59765000	      5975	80001694	33f31fb7	lui	x31,0x33f31	 x31=0x33f31000
       59775000	      5976	80001698	fd00c483	lbu	x9,-48(x1)	  x1:0x80008624  x9=0x00000033 PA:0x800085f4
       59785000	      5977	8000169c	0089d813	srli	x16,x19,0x8	 x19:0x05400000 x16=0x00054000
       59795000	      5978	800016a0	0f30ce03	lbu	x28,243(x1)	  x1:0x80008624 x28=0x0000005e PA:0x80008717
       59805000	      5979	800016a4	5656fd13	andi	x26,x13,1381	 x13:0x00000001 x26=0x00000001
       59815000	      5980	800016a8	ebdbcc13	xori	x24,x23,-323	 x23:0x0000000d x24=0xfffffeb0
       59825000	      5981	800016ac	41f25b13	srai	x22,x4,0x1f	  x4:0xffffff91 x22=0xffffffff
       59835000	      5982	800016b0	eafdae13	slti	x28,x27,-337	 x27:0x00000000 x28=0x00000000
       59845000	      5983	800016b4	fad083a3	sb	x13,-89(x1)	  x1:0x80008624 x13:0x00000001 PA:0x800085cb
       59855000	      5984	800016b8	01a31d13	slli	x26,x6,0x1a	  x6:0xffffffc5 x26=0x14000000
       59865000	      5985	800016bc	014043b3	xor	x7,x0,x20	  x0:0x00000000 x20:0x00000001  x7=0x00000001
       59875000	      5986	800016c0	09708803	lb	x16,151(x1)	  x1:0x80008624 x16=0xffffffab PA:0x800086bb
       59885000	      5987	800016c4	00b08003	lb	x0,11(x1)	  x1:0x80008624 PA:0x8000862f
       59895000	      5988	800016c8	fb208d03	lb	x26,-78(x1)	  x1:0x80008624 x26=0x0000002c PA:0x800085d6
       59905000	      5989	800016cc	fa20d283	lhu	x5,-94(x1)	  x1:0x80008624  x5=0x00005efa PA:0x800085c6
       59915000	      5990	800016d0	0ac0d203	lhu	x4,172(x1)	  x1:0x80008624  x4=0x0000a19f PA:0x800086d0
       59925000	      5991	800016d4	408f5613	srai	x12,x30,0x8	 x30:0xffffffd9 x12=0xffffffff
       59935000	      5992	800016d8	01908723	sb	x25,14(x1)	  x1:0x80008624 x25:0x8004fa7f PA:0x80008632
       59945000	      5993	800016dc	b669b313	sltiu	x6,x19,-1178	 x19:0x05400000  x6=0x00000001
       59955000	      5994	800016e0	012e7fb3	and	x31,x28,x18	 x28:0x00000000 x18:0x00000000 x31=0x00000000
       59965000	      5995	800016e4	09e09623	sh	x30,140(x1)	  x1:0x80008624 x30:0xffffffd9 PA:0x800086b0
       59975000	      5996	800016e8	0042beb3	sltu	x29,x5,x4	  x5:0x00005efa  x4:0x0000a19f x29=0x00000001
       59985000	      5997	800016ec	00c09d03	lh	x26,12(x1)	  x1:0x80008624 x26=0x00000568 PA:0x80008630
       59995000	      5998	800016f0	00000013	addi	x0,x0,0	  x0:0x00000000
       60005000	      5999	800016f4	7ff30193	addi	x3,x6,2047	  x6:0x00000001  x3=0x00000800
       60015000	      6000	800016f8	9fdb6837	lui	x16,0x9fdb6	 x16=0x9fdb6000
       60025000	      6001	800016fc	03204e63	blt	x0,x18,80001738	  x0:0x00000000 x18:0x00000000
       60035000	      6002	80001700	00961093	slli	x1,x12,0x9	 x12:0xffffffff  x1=0xfffffe00
       60045000	      6003	80001704	0086ffb3	and	x31,x13,x8	 x13:0x00000001  x8:0xffffffe3 x31=0x00000001
       60055000	      6004	80001708	6c604317	auipc	x6,0x6c604	  x6=0xec605704
       60065000	      6005	8000170c	00000013	addi	x0,x0,0	  x0:0x00000000
       60075000	      6006	80001710	d5914417	auipc	x8,0xd5914	  x8=0x5591570c
       60085000	      6007	80001714	00a367b3	or	x15,x6,x10	  x6:0xec605704 x10:0x80009f14 x15=0xec60df14
       60095000	      6008	80001718	00d67663	bgeu	x12,x13,80001724	 x12:0xffffffff x13:0x00000001
       60105000	      6009	00000000	00000013	addi	x0,x0,0	  x0:0x00000000
       60115000	      6010	80001720	00000013	addi	x0,x0,0	  x0:0x00000000
       60125000	      6011	80001724	00a438b3	sltu	x17,x8,x10	  x8:0x5591570c x10:0x80009f14 x17=0x00000001
       60135000	      6012	80001728	94946a13	ori	x20,x8,-1719	  x8:0x5591570c x20=0xffffff4d
       60145000	      6013	8000172c	00f9c463	blt	x19,x15,80001734	 x19:0x05400000 x15:0xec60df14
       60155000	      6014	80001730	02efec63	bltu	x31,x14,80001768	 x31:0x00000001 x14:0xfffffff7
       60165000	      6015	00000000	00000013	addi	x0,x0,0	  x0:0x00000000
       60175000	      6016	80001764	00000013	addi	x0,x0,0	  x0:0x00000000
       60185000	      6017	80001768	019de433	or	x8,x27,x25	 x27:0x00000000 x25:0x8004fa7f  x8=0x8004fa7f
       60195000	      6018	8000176c	73d3f913	andi	x18,x7,1853	  x7:0x00000001 x18=0x00000001
       60205000	      6019	80001770	015256b3	srl	x13,x4,x21	  x4:0x0000a19f x21:0xc29ed89d x13=0x00000000
       60215000	      6020	80001774	013c1c63	bne	x24,x19,8000178c	 x24:0xfffffeb0 x19:0x05400000
       60225000	      6021	00000000	00000013	addi	x0,x0,0	  x0:0x00000000
       60235000	      6022	80001788	00000013	addi	x0,x0,0	  x0:0x00000000
       60245000	      6023	8000178c	00000013	addi	x0,x0,0	  x0:0x00000000
       60255000	      6024	80001790	017933b3	sltu	x7,x18,x23	 x18:0x00000001 x23:0x0000000d  x7=0x00000001
       60265000	      6025	80001794	00385a13	srli	x20,x16,0x3	 x16:0x9fdb6000 x20=0x13fb6c00
       60275000	      6026	80001798	cf206f93	ori	x31,x0,-782	  x0:0x00000000 x31=0xfffffcf2
       60285000	      6027	8000179c	412081b3	sub	x3,x1,x18	  x1:0xfffffe00 x18:0x00000001  x3=0xfffffdff
       60295000	      6028	800017a0	00000013	addi	x0,x0,0	  x0:0x00000000
       60305000	      6029	800017a4	deb4e113	ori	x2,x9,-533	  x9:0x00000033  x2=0xfffffdfb
       60315000	      6030	800017a8	01626863	bltu	x4,x22,800017b8	  x4:0x0000a19f x22:0xffffffff
       60325000	      6031	00000000	00000013	addi	x0,x0,0	  x0:0x00000000
       60335000	      6032	800017b4	00000013	addi	x0,x0,0	  x0:0x00000000
       60345000	      6033	800017b8	af183713	sltiu	x14,x16,-1295	 x16:0x9fdb6000 x14=0x00000001
       60355000	      6034	800017bc	00efd713	srli	x14,x31,0xe	 x31:0xfffffcf2 x14=0x0003ffff
       60365000	      6035	800017c0	ee427793	andi	x15,x4,-284	  x4:0x0000a19f x15=0x0000a084
       60375000	      6036	800017c4	41fe5133	sra	x2,x28,x31	 x28:0x00000000 x31:0xfffffcf2  x2=0x00000000
       60385000	      6037	800017c8	03e60a63	beq	x12,x30,800017fc	 x12:0xffffffff x30:0xffffffd9
       60395000	      6038	800017cc	005f3933	sltu	x18,x30,x5	 x30:0xffffffd9  x5:0x00005efa x18=0x00000000
       60405000	      6039	800017d0	48917d93	andi	x27,x2,1161	  x2:0x00000000 x27=0x00000000
       60415000	      6040	800017d4	dac82c13	slti	x24,x16,-596	 x16:0x9fdb6000 x24=0x00000001
       60425000	      6041	800017d8	054f0863	beq	x30,x20,80001828	 x30:0xffffffd9 x20:0x13fb6c00
       60435000	      6042	800017dc	009f87b3	add	x15,x31,x9	 x31:0xfffffcf2  x9:0x00000033 x15=0xfffffd25
       60445000	      6043	800017e0	cf64e713	ori	x14,x9,-778	  x9:0x00000033 x14=0xfffffcf7
       60455000	      6044	800017e4	00879463	bne	x15,x8,800017ec	 x15:0xfffffd25  x8:0x8004fa7f
       60465000	      6045	00000000	00000013	addi	x0,x0,0	  x0:0x00000000
       60475000	      6046	800017e8	00000013	addi	x0,x0,0	  x0:0x00000000
       60485000	      6047	800017ec	00e7c4b3	xor	x9,x15,x14	 x15:0xfffffd25 x14:0xfffffcf7  x9=0x000001d2
       60495000	      6048	800017f0	01d22ab3	slt	x21,x4,x29	  x4:0x0000a19f x29:0x00000001 x21=0x00000000
       60505000	      6049	800017f4	036ece63	blt	x29,x22,80001830	 x29:0x00000001 x22:0xffffffff
       60515000	      6050	800017f8	05f39063	bne	x7,x31,80001838	  x7:0x00000001 x31:0xfffffcf2
       60525000	      6051	00000000	00000013	addi	x0,x0,0	  x0:0x00000000
       60535000	      6052	80001834	00000013	addi	x0,x0,0	  x0:0x00000000
       60545000	      6053	80001838	4602a813	slti	x16,x5,1120	  x5:0x00005efa x16=0x00000000
       60555000	      6054	8000183c	013f7733	and	x14,x30,x19	 x30:0xffffffd9 x19:0x05400000 x14=0x05400000
       60565000	      6055	80001840	43d34293	xori	x5,x6,1085	  x6:0xec605704  x5=0xec605339
       60575000	      6056	80001844	000f4c63	blt	x30,x0,8000185c	 x30:0xffffffd9  x0:0x00000000
       60585000	      6057	00000000	00000013	addi	x0,x0,0	  x0:0x00000000
       60595000	      6058	80001858	00000013	addi	x0,x0,0	  x0:0x00000000
       60605000	      6059	8000185c	00f502b3	add	x5,x10,x15	 x10:0x80009f14 x15:0xfffffd25  x5=0x80009c39
       60615000	      6060	80001860	28042c13	slti	x24,x8,640	  x8:0x8004fa7f x24=0x00000001
       60625000	      6061	80001864	005f5c63	bge	x30,x5,8000187c	 x30:0xffffffd9  x5:0x80009c39
       60635000	      6062	00000000	00000013	addi	x0,x0,0	  x0:0x00000000
       60645000	      6063	80001878	00000013	addi	x0,x0,0	  x0:0x00000000
       60655000	      6064	8000187c	010cdf33	srl	x30,x25,x16	 x25:0x8004fa7f x16:0x00000000 x30=0x8004fa7f
       60665000	      6065	80001880	0c495263	bge	x18,x4,80001944	 x18:0x00000000  x4:0x0000a19f
       60675000	      6066	80001884	41750133	sub	x2,x10,x23	 x10:0x80009f14 x23:0x0000000d  x2=0x80009f07
       60685000	      6067	80001888	0e98e063	bltu	x17,x9,80001968	 x17:0x00000001  x9:0x000001d2
       60695000	      6068	00000000	00000013	addi	x0,x0,0	  x0:0x00000000
       60705000	      6069	80001964	00000013	addi	x0,x0,0	  x0:0x00000000
       60715000	      6070	80001968	010f5f33	srl	x30,x30,x16	 x30:0x8004fa7f x16:0x00000000 x30=0x8004fa7f
       60725000	      6071	8000196c	00635313	srli	x6,x6,0x6	  x6:0xec605704  x6=0x03b1815c
       60735000	      6072	80001970	041e9063	bne	x29,x1,800019b0	 x29:0x00000001  x1:0xfffffe00
       60745000	      6073	00000000	00000013	addi	x0,x0,0	  x0:0x00000000
       60755000	      6074	800019ac	00000013	addi	x0,x0,0	  x0:0x00000000
       60765000	      6075	800019b0	00000013	addi	x0,x0,0	  x0:0x00000000
       60775000	      6076	800019b4	004a4733	xor	x14,x20,x4	 x20:0x13fb6c00  x4:0x0000a19f x14=0x13fbcd9f
       60785000	      6077	800019b8	026d7263	bgeu	x26,x6,800019dc	 x26:0x00000568  x6:0x03b1815c
       60795000	      6078	800019bc	403d01b3	sub	x3,x26,x3	 x26:0x00000568  x3:0xfffffdff  x3=0x00000769
       60805000	      6079	800019c0	0130cdb3	xor	x27,x1,x19	  x1:0xfffffe00 x19:0x05400000 x27=0xfabffe00
       60815000	      6080	800019c4	419708b3	sub	x17,x14,x25	 x14:0x13fbcd9f x25:0x8004fa7f x17=0x93f6d320
       60825000	      6081	800019c8	011d8733	add	x14,x27,x17	 x27:0xfabffe00 x17:0x93f6d320 x14=0x8eb6d120
       60835000	      6082	800019cc	05bc5863	bge	x24,x27,80001a1c	 x24:0x00000001 x27:0xfabffe00
       60845000	      6083	00000000	00000013	addi	x0,x0,0	  x0:0x00000000
       60855000	      6084	80001a18	00000013	addi	x0,x0,0	  x0:0x00000000
       60865000	      6085	80001a1c	00ebaab3	slt	x21,x23,x14	 x23:0x0000000d x14:0x8eb6d120 x21=0x00000000
       60875000	      6086	80001a20	25b071b7	lui	x3,0x25b07	  x3=0x25b07000
       60885000	      6087	80001a24	f488e393	ori	x7,x17,-184	 x17:0x93f6d320  x7=0xffffff68
       60895000	      6088	80001a28	5b86cc13	xori	x24,x13,1464	 x13:0x00000000 x24=0x000005b8
       60905000	      6089	80001a2c	03adee63	bltu	x27,x26,80001a68	 x27:0xfabffe00 x26:0x00000568
       60915000	      6090	80001a30	00b04e33	xor	x28,x0,x11	  x0:0x00000000 x11:0x80009fc4 x28=0x80009fc4
       60925000	      6091	80001a34	004b5e63	bge	x22,x4,80001a50	 x22:0xffffffff  x4:0x0000a19f
       60935000	      6092	80001a38	04f37063	bgeu	x6,x15,80001a78	  x6:0x03b1815c x15:0xfffffd25
       60945000	      6093	80001a3c	01125833	srl	x16,x4,x17	  x4:0x0000a19f x17:0x93f6d320 x16=0x0000a19f
       60955000	      6094	80001a40	6e356313	ori	x6,x10,1763	 x10:0x80009f14  x6=0x80009ff7
       60965000	      6095	80001a44	051b7663	bgeu	x22,x17,80001a90	 x22:0xffffffff x17:0x93f6d320
       60975000	      6096	00000000	00000013	addi	x0,x0,0	  x0:0x00000000
       60985000	      6097	80001a8c	00000013	addi	x0,x0,0	  x0:0x00000000
       60995000	      6098	80001a90	aeb53a13	sltiu	x20,x10,-1301	 x10:0x80009f14 x20=0x00000001
       61005000	      6099	80001a94	00285413	srli	x8,x16,0x2	 x16:0x0000a19f  x8=0x00002867
       61015000	      6100	80001a98	6b330237	lui	x4,0x6b330	  x4=0x6b330000
       61025000	      6101	80001a9c	40dd8ab3	sub	x21,x27,x13	 x27:0xfabffe00 x13:0x00000000 x21=0xfabffe00
       61035000	      6102	80001aa0	01152a33	slt	x20,x10,x17	 x10:0x80009f14 x17:0x93f6d320 x20=0x00000001
       61045000	      6103	80001aa4	ec7e4693	xori	x13,x28,-313	 x28:0x80009fc4 x13=0x7fff6103
       61055000	      6104	80001aa8	00de8863	beq	x29,x13,80001ab8	 x29:0x00000001 x13:0x7fff6103
       61065000	      6105	80001aac	bd6a8b13	addi	x22,x21,-1066	 x21:0xfabffe00 x22=0xfabff9d6
       61075000	      6106	80001ab0	41fd0933	sub	x18,x26,x31	 x26:0x00000568 x31:0xfffffcf2 x18=0x00000876
       61085000	      6107	80001ab4	003fb833	sltu	x16,x31,x3	 x31:0xfffffcf2  x3:0x25b07000 x16=0x00000000
       61095000	      6108	80001ab8	41b40e33	sub	x28,x8,x27	  x8:0x00002867 x27:0xfabffe00 x28=0x05402a67
       61105000	      6109	80001abc	01ba1d33	sll	x26,x20,x27	 x20:0x00000001 x27:0xfabffe00 x26=0x00000001
       61115000	      6110	80001ac0	400204b3	sub	x9,x4,x0	  x4:0x6b330000  x0:0x00000000  x9=0x6b330000
       61125000	      6111	80001ac4	410d0e33	sub	x28,x26,x16	 x26:0x00000001 x16:0x00000000 x28=0x00000001
       61135000	      6112	80001ac8	01726d33	or	x26,x4,x23	  x4:0x6b330000 x23:0x0000000d x26=0x6b33000d
       61145000	      6113	80001acc	2b1ead13	slti	x26,x29,689	 x29:0x00000001 x26=0x00000001
       61155000	      6114	80001ad0	032e0463	beq	x28,x18,80001af8	 x28:0x00000001 x18:0x00000876
       61165000	      6115	80001ad4	00000013	addi	x0,x0,0	  x0:0x00000000
       61175000	      6116	80001ad8	40500033	sub	x0,x0,x5	  x0:0x00000000  x5:0x80009c39
       61185000	      6117	80001adc	01b67633	and	x12,x12,x27	 x12:0xffffffff x27:0xfabffe00 x12=0xfabffe00
       61195000	      6118	80001ae0	00445113	srli	x2,x8,0x4	  x8:0x00002867  x2=0x00000286
       61205000	      6119	80001ae4	f558e497	auipc	x9,0xf558e	  x9=0x7558fae0
       61215000	      6120	80001ae8	2a042d13	slti	x26,x8,672	  x8:0x00002867 x26=0x00000000
       61225000	      6121	80001aec	00000013	addi	x0,x0,0	  x0:0x00000000
       61235000	      6122	80001af0	fe01b793	sltiu	x15,x3,-32	  x3:0x25b07000 x15=0x00000001
       61245000	      6123	80001af4	014412b3	sll	x5,x8,x20	  x8:0x00002867 x20:0x00000001  x5=0x000050ce
       61255000	      6124	80001af8	41bed8b3	sra	x17,x29,x27	 x29:0x00000001 x27:0xfabffe00 x17=0x00000001
       61265000	      6125	80001afc	f4ddc093	xori	x1,x27,-179	 x27:0xfabffe00  x1=0x0540014d
       61275000	      6126	80001b00	01ac5b13	srli	x22,x24,0x1a	 x24:0x000005b8 x22=0x00000000
       61285000	      6127	80001b04	4002d7b3	sra	x15,x5,x0	  x5:0x000050ce  x0:0x00000000 x15=0x000050ce
       61295000	      6128	80001b08	f54ac893	xori	x17,x21,-172	 x21:0xfabffe00 x17=0x05400154
       61305000	      6129	80001b0c	02802437	lui	x8,0x2802	  x8=0x02802000
       61315000	      6130	80001b10	01289413	slli	x8,x17,0x12	 x17:0x05400154  x8=0x05500000
       61325000	      6131	80001b14	cbd76b13	ori	x22,x14,-835	 x14:0x8eb6d120 x22=0xfffffdbd
       61335000	      6132	80001b18	014ae233	or	x4,x21,x20	 x21:0xfabffe00 x20:0x00000001  x4=0xfabffe01
       61345000	      6133	80001b1c	009a4d33	xor	x26,x20,x9	 x20:0x00000001  x9:0x7558fae0 x26=0x7558fae1
       61355000	      6134	80001b20	94d03437	lui	x8,0x94d03	  x8=0x94d03000
       61365000	      6135	80001b24	00000013	addi	x0,x0,0	  x0:0x00000000
       61375000	      6136	80001b28	9c432493	slti	x9,x6,-1596	  x6:0x80009ff7  x9=0x00000001
       61385000	      6137	80001b2c	0155d893	srli	x17,x11,0x15	 x11:0x80009fc4 x17=0x00000400
       61395000	      6138	80001b30	004678b3	and	x17,x12,x4	 x12:0xfabffe00  x4:0xfabffe01 x17=0xfabffe00
       61405000	      6139	80001b34	d943ba17	auipc	x20,0xd943b	 x20=0x5943cb30
       61415000	      6140	80001b38	03ceea63	bltu	x29,x28,80001b6c	 x29:0x00000001 x28:0x00000001
       61425000	      6141	80001b3c	0109a8b3	slt	x17,x19,x16	 x19:0x05400000 x16:0x00000000 x17=0x00000000
       61435000	      6142	80001b40	e4ea3a13	sltiu	x20,x20,-434	 x20:0x5943cb30 x20=0x00000001
       61445000	      6143	80001b44	01435f33	srl	x30,x6,x20	  x6:0x80009ff7 x20:0x00000001 x30=0x40004ffb
       61455000	      6144	80001b48	d901b337	lui	x6,0xd901b	  x6=0xd901b000
       61465000	      6145	80001b4c	01ccd113	srli	x2,x25,0x1c	 x25:0x8004fa7f  x2=0x00000008
       61475000	      6146	80001b50	01e30c63	beq	x6,x30,80001b68	  x6:0xd901b000 x30:0x40004ffb
       61485000	      6147	80001b54	0013db13	srli	x22,x7,0x1	  x7:0xffffff68 x22=0x7fffffb4
       61495000	      6148	80001b58	403700b3	sub	x1,x14,x3	 x14:0x8eb6d120  x3:0x25b07000  x1=0x69066120
       61505000	      6149	80001b5c	01986463	bltu	x16,x25,80001b64	 x16:0x00000000 x25:0x8004fa7f
       61515000	      6150	00000000	00000013	addi	x0,x0,0	  x0:0x00000000
       61525000	      6151	80001b60	00000013	addi	x0,x0,0	  x0:0x00000000
       61535000	      6152	80001b64	006ced33	or	x26,x25,x6	 x25:0x8004fa7f  x6:0xd901b000 x26=0xd905fa7f
       61545000	      6153	80001b68	41758233	sub	x4,x11,x23	 x11:0x80009fc4 x23:0x0000000d  x4=0x80009fb7
       61555000	      6154	80001b6c	01b238b3	sltu	x17,x4,x27	  x4:0x80009fb7 x27:0xfabffe00 x17=0x00000001
       61565000	      6155	80001b70	003b5663	bge	x22,x3,80001b7c	 x22:0x7fffffb4  x3:0x25b07000
       61575000	      6156	00000000	00000013	addi	x0,x0,0	  x0:0x00000000
       61585000	      6157	80001b78	00000013	addi	x0,x0,0	  x0:0x00000000
       61595000	      6158	80001b7c	013c6133	or	x2,x24,x19	 x24:0x000005b8 x19:0x05400000  x2=0x054005b8
       61605000	      6159	80001b80	af87ca13	xori	x20,x15,-1288	 x15:0x000050ce x20=0xffffaa36
       61615000	      6160	80001b84	01b68c63	beq	x13,x27,80001b9c	 x13:0x7fff6103 x27:0xfabffe00
       61625000	      6161	80001b88	4199d093	srai	x1,x19,0x19	 x19:0x05400000  x1=0x00000002
       61635000	      6162	80001b8c	04c39063	bne	x7,x12,80001bcc	  x7:0xffffff68 x12:0xfabffe00
       61645000	      6163	00000000	00000013	addi	x0,x0,0	  x0:0x00000000
       61655000	      6164	80001bc8	00000013	addi	x0,x0,0	  x0:0x00000000
       61665000	      6165	80001bcc	01342833	slt	x16,x8,x19	  x8:0x94d03000 x19:0x05400000 x16=0x00000001
       61675000	      6166	80001bd0	009c4c63	blt	x24,x9,80001be8	 x24:0x000005b8  x9:0x00000001
       61685000	      6167	80001bd4	41afdc93	srai	x25,x31,0x1a	 x31:0xfffffcf2 x25=0xffffffff
       61695000	      6168	80001bd8	5bf1b613	sltiu	x12,x3,1471	  x3:0x25b07000 x12=0x00000000
       61705000	      6169	80001bdc	00be9a93	slli	x21,x29,0xb	 x29:0x00000001 x21=0x00000800
       61715000	      6170	80001be0	02197e63	bgeu	x18,x1,80001c1c	 x18:0x00000876  x1:0x00000002
       61725000	      6171	00000000	00000013	addi	x0,x0,0	  x0:0x00000000
       61735000	      6172	80001c18	00000013	addi	x0,x0,0	  x0:0x00000000
       61745000	      6173	80001c1c	00145e33	srl	x28,x8,x1	  x8:0x94d03000  x1:0x00000002 x28=0x25340c00
       61755000	      6174	80001c20	aca4f8b7	lui	x17,0xaca4f	 x17=0xaca4f000
       61765000	      6175	80001c24	40365613	srai	x12,x12,0x3	 x12:0x00000000 x12=0x00000000
       61775000	      6176	80001c28	04eec863	blt	x29,x14,80001c78	 x29:0x00000001 x14:0x8eb6d120
       61785000	      6177	80001c2c	00669c13	slli	x24,x13,0x6	 x13:0x7fff6103 x24=0xffd840c0
       61795000	      6178	80001c30	0172d093	srli	x1,x5,0x17	  x5:0x000050ce  x1=0x00000000
       61805000	      6179	80001c34	0108f433	and	x8,x17,x16	 x17:0xaca4f000 x16:0x00000001  x8=0x00000000
       61815000	      6180	80001c38	00f3d413	srli	x8,x7,0xf	  x7:0xffffff68  x8=0x0001ffff
       61825000	      6181	80001c3c	00044733	xor	x14,x8,x0	  x8:0x0001ffff  x0:0x00000000 x14=0x0001ffff
       61835000	      6182	80001c40	03efce63	blt	x31,x30,80001c7c	 x31:0xfffffcf2 x30:0x40004ffb
       61845000	      6183	00000000	00000013	addi	x0,x0,0	  x0:0x00000000
       61855000	      6184	80001c78	00000013	addi	x0,x0,0	  x0:0x00000000
       61865000	      6185	80001c7c	00dbfc63	bgeu	x23,x13,80001c94	 x23:0x0000000d x13:0x7fff6103
       61875000	      6186	80001c80	01efc7b3	xor	x15,x31,x30	 x31:0xfffffcf2 x30:0x40004ffb x15=0xbfffb309
       61885000	      6187	80001c84	01c49c63	bne	x9,x28,80001c9c	  x9:0x00000001 x28:0x25340c00
       61895000	      6188	00000000	00000013	addi	x0,x0,0	  x0:0x00000000
       61905000	      6189	80001c98	00000013	addi	x0,x0,0	  x0:0x00000000
       61915000	      6190	80001c9c	a0924393	xori	x7,x4,-1527	  x4:0x80009fb7  x7=0x7fff65be
       61925000	      6191	80001ca0	477e7d93	andi	x27,x28,1143	 x28:0x25340c00 x27=0x00000400
       61935000	      6192	80001ca4	005ab9b3	sltu	x19,x21,x5	 x21:0x00000800  x5:0x000050ce x19=0x00000001
       61945000	      6193	80001ca8	26a9a893	slti	x17,x19,618	 x19:0x00000001 x17=0x00000001
       61955000	      6194	80001cac	00394a33	xor	x20,x18,x3	 x18:0x00000876  x3:0x25b07000 x20=0x25b07876
       61965000	      6195	80001cb0	00d0b3b3	sltu	x7,x1,x13	  x1:0x00000000 x13:0x7fff6103  x7=0x00000001
       61975000	      6196	80001cb4	00000013	addi	x0,x0,0	  x0:0x00000000
       61985000	      6197	80001cb8	46e97113	andi	x2,x18,1134	 x18:0x00000876  x2=0x00000066
       61995000	      6198	80001cbc	00000013	addi	x0,x0,0	  x0:0x00000000
       62005000	      6199	80001cc0	ddde86b7	lui	x13,0xddde8	 x13=0xddde8000
       62015000	      6200	80001cc4	00000013	addi	x0,x0,0	  x0:0x00000000
       62025000	      6201	80001cc8	60ee7493	andi	x9,x28,1550	 x28:0x25340c00  x9=0x00000400
       62035000	      6202	80001ccc	408b5333	sra	x6,x22,x8	 x22:0x7fffffb4  x8:0x0001ffff  x6=0x00000000
       62045000	      6203	80001cd0	41448b33	sub	x22,x9,x20	  x9:0x00000400 x20:0x25b07876 x22=0xda4f8b8a
       62055000	      6204	80001cd4	765f2a93	slti	x21,x30,1893	 x30:0x40004ffb x21=0x00000000
       62065000	      6205	80001cd8	413f5c93	srai	x25,x30,0x13	 x30:0x40004ffb x25=0x00000800
       62075000	      6206	80001cdc	5a302093	slti	x1,x0,1443	  x0:0x00000000  x1=0x00000001
       62085000	      6207	80001ce0	40be0c33	sub	x24,x28,x11	 x28:0x25340c00 x11:0x80009fc4 x24=0xa5336c3c
       62095000	      6208	80001ce4	01437e63	bgeu	x6,x20,80001d00	  x6:0x00000000 x20:0x25b07876
       62105000	      6209	80001ce8	0244da63	bge	x9,x4,80001d1c	  x9:0x00000400  x4:0x80009fb7
       62115000	      6210	00000000	00000013	addi	x0,x0,0	  x0:0x00000000
       62125000	      6211	80001d18	00000013	addi	x0,x0,0	  x0:0x00000000
       62135000	      6212	80001d1c	02c7d263	bge	x15,x12,80001d40	 x15:0xbfffb309 x12:0x00000000
       62145000	      6213	80001d20	00ffb433	sltu	x8,x31,x15	 x31:0xfffffcf2 x15:0xbfffb309  x8=0x00000000
       62155000	      6214	80001d24	02228063	beq	x5,x2,80001d44	  x5:0x000050ce  x2:0x00000066
       62165000	      6215	80001d28	039c8463	beq	x25,x25,80001d50	 x25:0x00000800 x25:0x00000800
       62175000	      6216	00000000	00000013	addi	x0,x0,0	  x0:0x00000000
       62185000	      6217	80001d4c	00000013	addi	x0,x0,0	  x0:0x00000000
       62195000	      6218	80001d50	05bec063	blt	x29,x27,80001d90	 x29:0x00000001 x27:0x00000400
       62205000	      6219	00000000	00000013	addi	x0,x0,0	  x0:0x00000000
       62215000	      6220	80001d8c	00000013	addi	x0,x0,0	  x0:0x00000000
       62225000	      6221	80001d90	00000013	addi	x0,x0,0	  x0:0x00000000
       62235000	      6222	80001d94	078f8e13	addi	x28,x31,120	 x31:0xfffffcf2 x28=0xfffffd6a
       62245000	      6223	80001d98	412fdf93	srai	x31,x31,0x12	 x31:0xfffffcf2 x31=0xffffffff
       62255000	      6224	80001d9c	b071a113	slti	x2,x3,-1273	  x3:0x25b07000  x2=0x00000000
       62265000	      6225	80001da0	15a0b813	sltiu	x16,x1,346	  x1:0x00000001 x16=0x00000001
       62275000	      6226	80001da4	017b3e33	sltu	x28,x22,x23	 x22:0xda4f8b8a x23:0x0000000d x28=0x00000000
       62285000	      6227	80001da8	40ca8ab3	sub	x21,x21,x12	 x21:0x00000000 x12:0x00000000 x21=0x00000000
       62295000	      6228	80001dac	01fc7463	bgeu	x24,x31,80001db4	 x24:0xa5336c3c x31:0xffffffff
       62305000	      6229	80001db0	c45d4293	xori	x5,x26,-955	 x26:0xd905fa7f  x5=0x26fa063a
       62315000	      6230	80001db4	016218b3	sll	x17,x4,x22	  x4:0x80009fb7 x22:0xda4f8b8a x17=0x027edc00
       62325000	      6231	80001db8	018193b3	sll	x7,x3,x24	  x3:0x25b07000 x24:0xa5336c3c  x7=0x00000000
       62335000	      6232	80001dbc	40d7d613	srai	x12,x15,0xd	 x15:0xbfffb309 x12=0xfffdfffd
       62345000	      6233	80001dc0	05874263	blt	x14,x24,80001e04	 x14:0x0001ffff x24:0xa5336c3c
       62355000	      6234	80001dc4	40885493	srai	x9,x16,0x8	 x16:0x00000001  x9=0x00000000
       62365000	      6235	80001dc8	0135cc63	blt	x11,x19,80001de0	 x11:0x80009fc4 x19:0x00000001
       62375000	      6236	00000000	00000013	addi	x0,x0,0	  x0:0x00000000
       62385000	      6237	80001ddc	00000013	addi	x0,x0,0	  x0:0x00000000
       62395000	      6238	80001de0	01cad833	srl	x16,x21,x28	 x21:0x00000000 x28:0x00000000 x16=0x00000000
       62405000	      6239	80001de4	0187efb3	or	x31,x15,x24	 x15:0xbfffb309 x24:0xa5336c3c x31=0xbfffff3d
       62415000	      6240	80001de8	00f7bf33	sltu	x30,x15,x15	 x15:0xbfffb309 x15:0xbfffb309 x30=0x00000000
       62425000	      6241	80001dec	0416f663	bgeu	x13,x1,80001e38	 x13:0xddde8000  x1:0x00000001
       62435000	      6242	00000000	00000013	addi	x0,x0,0	  x0:0x00000000
       62445000	      6243	80001e34	00000013	addi	x0,x0,0	  x0:0x00000000
       62455000	      6244	80001e38	01e7d4b3	srl	x9,x15,x30	 x15:0xbfffb309 x30:0x00000000  x9=0xbfffb309
       62465000	      6245	80001e3c	2e553117	auipc	x2,0x2e553	  x2=0xae554e38
       62475000	      6246	80001e40	03661263	bne	x12,x22,80001e64	 x12:0xfffdfffd x22:0xda4f8b8a
       62485000	      6247	00000000	00000013	addi	x0,x0,0	  x0:0x00000000
       62495000	      6248	80001e60	00000013	addi	x0,x0,0	  x0:0x00000000
       62505000	      6249	80001e64	43bf3eb7	lui	x29,0x43bf3	 x29=0x43bf3000
       62515000	      6250	80001e68	01fdd9b3	srl	x19,x27,x31	 x27:0x00000400 x31:0xbfffff3d x19=0x00000000
       62525000	      6251	80001e6c	03dede63	bge	x29,x29,80001ea8	 x29:0x43bf3000 x29:0x43bf3000
       62535000	      6252	00000000	00000013	addi	x0,x0,0	  x0:0x00000000
       62545000	      6253	80001ea4	00000013	addi	x0,x0,0	  x0:0x00000000
       62555000	      6254	80001ea8	019b2733	slt	x14,x22,x25	 x22:0xda4f8b8a x25:0x00000800 x14=0x00000001
       62565000	      6255	80001eac	8ed43293	sltiu	x5,x8,-1811	  x8:0x00000000  x5=0x00000001
       62575000	      6256	80001eb0	00000013	addi	x0,x0,0	  x0:0x00000000
       62585000	      6257	80001eb4	b9a77a93	andi	x21,x14,-1126	 x14:0x00000001 x21=0x00000000
       62595000	      6258	80001eb8	01e87463	bgeu	x16,x30,80001ec0	 x16:0x00000000 x30:0x00000000
       62605000	      6259	00000000	00000013	addi	x0,x0,0	  x0:0x00000000
       62615000	      6260	80001ebc	00000013	addi	x0,x0,0	  x0:0x00000000
       62625000	      6261	80001ec0	40b35e93	srai	x29,x6,0xb	  x6:0x00000000 x29=0x00000000
       62635000	      6262	80001ec4	05e6d863	bge	x13,x30,80001f14	 x13:0xddde8000 x30:0x00000000
       62645000	      6263	80001ec8	01145a33	srl	x20,x8,x17	  x8:0x00000000 x17:0x027edc00 x20=0x00000000
       62655000	      6264	80001ecc	7d3da493	slti	x9,x27,2003	 x27:0x00000400  x9=0x00000001
       62665000	      6265	80001ed0	00f06463	bltu	x0,x15,80001ed8	  x0:0x00000000 x15:0xbfffb309
       62675000	      6266	00000000	00000013	addi	x0,x0,0	  x0:0x00000000
       62685000	      6267	80001ed4	00000013	addi	x0,x0,0	  x0:0x00000000
       62695000	      6268	80001ed8	3f5d6993	ori	x19,x26,1013	 x26:0xd905fa7f x19=0xd905fbff
       62705000	      6269	80001edc	6f25e493	ori	x9,x11,1778	 x11:0x80009fc4  x9=0x80009ff6
       62715000	      6270	80001ee0	007fde13	srli	x28,x31,0x7	 x31:0xbfffff3d x28=0x017ffffe
       62725000	      6271	80001ee4	ac702b17	auipc	x22,0xac702	 x22=0x2c703ee0
       62735000	      6272	80001ee8	9d2eea93	ori	x21,x29,-1582	 x29:0x00000000 x21=0xfffff9d2
       62745000	      6273	80001eec	019023b3	slt	x7,x0,x25	  x0:0x00000000 x25:0x00000800  x7=0x00000001
       62755000	      6274	80001ef0	7a68ad37	lui	x26,0x7a68a	 x26=0x7a68a000
       62765000	      6275	80001ef4	03995c63	bge	x18,x25,80001f2c	 x18:0x00000876 x25:0x00000800
       62775000	      6276	00000000	00000013	addi	x0,x0,0	  x0:0x00000000
       62785000	      6277	80001f28	00000013	addi	x0,x0,0	  x0:0x00000000
       62795000	      6278	80001f2c	ee48b813	sltiu	x16,x17,-284	 x17:0x027edc00 x16=0x00000001
       62805000	      6279	80001f30	3fb42a13	slti	x20,x8,1019	  x8:0x00000000 x20=0x00000001
       62815000	      6280	80001f34	0058ffb3	and	x31,x17,x5	 x17:0x027edc00  x5:0x00000001 x31=0x00000000
       62825000	      6281	80001f38	001b7e63	bgeu	x22,x1,80001f54	 x22:0x2c703ee0  x1:0x00000001
       62835000	      6282	00000000	00000013	addi	x0,x0,0	  x0:0x00000000
       62845000	      6283	80001f50	00000013	addi	x0,x0,0	  x0:0x00000000
       62855000	      6284	80001f54	01e45d13	srli	x26,x8,0x1e	  x8:0x00000000 x26=0x00000000
       62865000	      6285	80001f58	01a11893	slli	x17,x2,0x1a	  x2:0xae554e38 x17=0xe0000000
       62875000	      6286	80001f5c	00b25133	srl	x2,x4,x11	  x4:0x80009fb7 x11:0x80009fc4  x2=0x080009fb
       62885000	      6287	80001f60	017af033	and	x0,x21,x23	 x21:0xfffff9d2 x23:0x0000000d
       62895000	      6288	80001f64	01ca9a93	slli	x21,x21,0x1c	 x21:0xfffff9d2 x21=0x20000000
       62905000	      6289	80001f68	403804b3	sub	x9,x16,x3	 x16:0x00000001  x3:0x25b07000  x9=0xda4f9001
       62915000	      6290	80001f6c	014224b3	slt	x9,x4,x20	  x4:0x80009fb7 x20:0x00000001  x9=0x00000001
       62925000	      6291	80001f70	012856b3	srl	x13,x16,x18	 x16:0x00000001 x18:0x00000876 x13=0x00000000
       62935000	      6292	80001f74	00aa5e63	bge	x20,x10,80001f90	 x20:0x00000001 x10:0x80009f14
       62945000	      6293	00000000	00000013	addi	x0,x0,0	  x0:0x00000000
       62955000	      6294	80001f8c	00000013	addi	x0,x0,0	  x0:0x00000000
       62965000	      6295	80001f90	002e4833	xor	x16,x28,x2	 x28:0x017ffffe  x2:0x080009fb x16=0x097ff605
       62975000	      6296	80001f94	019be033	or	x0,x23,x25	 x23:0x0000000d x25:0x00000800
       62985000	      6297	80001f98	00e32133	slt	x2,x6,x14	  x6:0x00000000 x14:0x00000001  x2=0x00000001
       62995000	      6298	80001f9c	00452a03	lw	x20,4(x10)	 x10:0x80009f14 x20=0x80005110 PA:0x80009f18
       63005000	      6299	00000000	00000013	addi	x0,x0,0	  x0:0x00000000
       63015000	      6300	80001fa0	801a0613	addi	x12,x20,-2047	 x20:0x80005110 x12=0x80004911
       63025000	      6301	80001fa4	403b0c33	sub	x24,x22,x3	 x22:0x2c703ee0  x3:0x25b07000 x24=0x06bfcee0
       63035000	      6302	80001fa8	02050513	addi	x10,x10,32	 x10:0x80009f14 x10=0x80009f34
       63045000	      6303	80001fac	8b0eb913	sltiu	x18,x29,-1872	 x29:0x00000000 x18=0x00000001
       63055000	      6304	80001fb0	000a0713	addi	x14,x20,0	 x20:0x80005110 x14=0x80005110
       63065000	      6305	80001fb4	00070767	jalr	x14,x14,0	 x14:0x80005110 x14=0x80001fb4
       63075000	      6306	00000000	00000013	addi	x0,x0,0	  x0:0x00000000
       63085000	      6307	80005110	00000013	addi	x0,x0,0	  x0:0x00000000
       63095000	      6308	80005114	00f3f6b3	and	x13,x7,x15	  x7:0x00000001 x15:0xbfffb309 x13=0x00000001
       63105000	      6309	80005118	6091ab13	slti	x22,x3,1545	  x3:0x25b07000 x22=0x00000000
       63115000	      6310	8000511c	26fb3637	lui	x12,0x26fb3	 x12=0x26fb3000
       63125000	      6311	80005120	31681917	auipc	x18,0x31681	 x18=0xb168611c
       63135000	      6312	80005124	14193993	sltiu	x19,x18,321	 x18:0xb168611c x19=0x00000000
       63145000	      6313	80005128	01cfda63	bge	x31,x28,8000513c	 x31:0x00000000 x28:0x017ffffe
       63155000	      6314	8000512c	41b15c13	srai	x24,x2,0x1b	  x2:0x00000001 x24=0x00000000
       63165000	      6315	80005130	a98b3693	sltiu	x13,x22,-1384	 x22:0x00000000 x13=0x00000001
       63175000	      6316	80005134	01cbe8b3	or	x17,x23,x28	 x23:0x0000000d x28:0x017ffffe x17=0x017fffff
       63185000	      6317	80005138	78674013	xori	x0,x14,1926	 x14:0x80001fb4
       63195000	      6318	8000513c	47400a6f	jal	x20,8000513c	 x20=0x8000513c
       63205000	      6319	00000000	00000013	addi	x0,x0,0	  x0:0x00000000
       63215000	      6320	800055ac	00000013	addi	x0,x0,0	  x0:0x00000000
       63225000	      6321	800055b0	b70d0e93	addi	x29,x26,-1168	 x26:0x00000000 x29=0xfffffb70
       63235000	      6322	800055b4	01845863	bge	x8,x24,800055c4	  x8:0x00000000 x24:0x00000000
       63245000	      6323	00000000	00000013	addi	x0,x0,0	  x0:0x00000000
       63255000	      6324	800055c0	00000013	addi	x0,x0,0	  x0:0x00000000
       63265000	      6325	800055c4	fec50513	addi	x10,x10,-20	 x10:0x80009f34 x10=0x80009f20
       63275000	      6326	800055c8	fc017697	auipc	x13,0xfc017	 x13=0x7c01c5c4
       63285000	      6327	800055cc	707a2413	slti	x8,x20,1799	 x20:0x8000513c  x8=0x00000001
       63295000	      6328	800055d0	01452223	sw	x20,4(x10)	 x10:0x80009f20 x20:0x8000513c PA:0x80009f24
       63305000	      6329	800055d4	c6622793	slti	x15,x4,-922	  x4:0x80009fb7 x15=0x00000001
       63315000	      6330	800055d8	41d45393	srai	x7,x8,0x1d	  x8:0x00000001  x7=0x00000000
       63325000	      6331	800055dc	00954133	xor	x2,x10,x9	 x10:0x80009f20  x9:0x00000001  x2=0x80009f21
       63335000	      6332	800055e0	00003117	auipc	x2,0x3	  x2=0x800085dc
       63345000	      6333	800055e4	59010113	addi	x2,x2,1424	  x2:0x800085dc  x2=0x80008b6c
       63355000	      6334	800055e8	00a11683	lh	x13,10(x2)	  x2:0x80008b6c x13=0xffffb400 PA:0x80008b76
       63365000	      6335	800055ec	01610523	sb	x22,10(x2)	  x2:0x80008b6c x22:0x00000000 PA:0x80008b76
       63375000	      6336	800055f0	ffb10303	lb	x6,-5(x2)	  x2:0x80008b6c  x6=0x00000000 PA:0x80008b67
       63385000	      6337	800055f4	ff412a23	sw	x20,-12(x2)	  x2:0x80008b6c x20:0x8000513c PA:0x80008b60
       63395000	      6338	800055f8	fda15403	lhu	x8,-38(x2)	  x2:0x80008b6c  x8=0x00001dbb PA:0x80008b46
       63405000	      6339	800055fc	90f3fc13	andi	x24,x7,-1777	  x7:0x00000000 x24=0x00000000
       63415000	      6340	80005600	ff912823	sw	x25,-16(x2)	  x2:0x80008b6c x25:0x00000800 PA:0x80008b5c
       63425000	      6341	80005604	00bba0b3	slt	x1,x23,x11	 x23:0x0000000d x11:0x80009fc4  x1=0x00000000
       63435000	      6342	80005608	00610703	lb	x14,6(x2)	  x2:0x80008b6c x14=0x00000042 PA:0x80008b72
       63445000	      6343	8000560c	412ade13	srai	x28,x21,0x12	 x21:0x20000000 x28=0x00000800
       63455000	      6344	80005610	ff510da3	sb	x21,-5(x2)	  x2:0x80008b6c x21:0x20000000 PA:0x80008b67
       63465000	      6345	80005614	00000013	addi	x0,x0,0	  x0:0x00000000
       63475000	      6346	80005618	fc910823	sb	x9,-48(x2)	  x2:0x80008b6c  x9:0x00000001 PA:0x80008b3c
       63485000	      6347	8000561c	ff6100a3	sb	x22,-31(x2)	  x2:0x80008b6c x22:0x00000000 PA:0x80008b4d
       63495000	      6348	80005620	02910e23	sb	x9,60(x2)	  x2:0x80008b6c  x9:0x00000001 PA:0x80008ba8
       63505000	      6349	80005624	00290033	add	x0,x18,x2	 x18:0xb168611c  x2:0x80008b6c
       63515000	      6350	80005628	cf15fb13	andi	x22,x11,-783	 x11:0x80009fc4 x22=0x80009cc0
       63525000	      6351	8000562c	ffd14203	lbu	x4,-3(x2)	  x2:0x80008b6c  x4=0x0000007b PA:0x80008b69
       63535000	      6352	80005630	03710303	lb	x6,55(x2)	  x2:0x80008b6c  x6=0xfffffffc PA:0x80008ba3
       63545000	      6353	80005634	010f93b3	sll	x7,x31,x16	 x31:0x00000000 x16:0x097ff605  x7=0x00000000
       63555000	      6354	80005638	0025ba33	sltu	x20,x11,x2	 x11:0x80009fc4  x2:0x80008b6c x20=0x00000000
       63565000	      6355	8000563c	02914703	lbu	x14,41(x2)	  x2:0x80008b6c x14=0x000000f5 PA:0x80008b95
       63575000	      6356	80005640	02111f23	sh	x1,62(x2)	  x2:0x80008b6c  x1:0x00000000 PA:0x80008baa
       63585000	      6357	80005644	ff210c23	sb	x18,-8(x2)	  x2:0x80008b6c x18:0xb168611c PA:0x80008b64
       63595000	      6358	80005648	ffc108a3	sb	x28,-15(x2)	  x2:0x80008b6c x28:0x00000800 PA:0x80008b5d
       63605000	      6359	8000564c	01ab3233	sltu	x4,x22,x26	 x22:0x80009cc0 x26:0x00000000  x4=0x00000000
       63615000	      6360	80005650	01114683	lbu	x13,17(x2)	  x2:0x80008b6c x13=0x00000036 PA:0x80008b7d
       63625000	      6361	80005654	fe3101a3	sb	x3,-29(x2)	  x2:0x80008b6c  x3:0x25b07000 PA:0x80008b4f
       63635000	      6362	80005658	03d10183	lb	x3,61(x2)	  x2:0x80008b6c  x3=0xffffffe3 PA:0x80008ba9
       63645000	      6363	8000565c	03b10003	lb	x0,59(x2)	  x2:0x80008b6c PA:0x80008ba7
       63655000	      6364	80005660	00de8433	add	x8,x29,x13	 x29:0xfffffb70 x13:0x00000036  x8=0xfffffba6
       63665000	      6365	80005664	00114183	lbu	x3,1(x2)	  x2:0x80008b6c  x3=0x000000fb PA:0x80008b6d
       63675000	      6366	80005668	fec10ca3	sb	x12,-7(x2)	  x2:0x80008b6c x12:0x26fb3000 PA:0x80008b65
       63685000	      6367	8000566c	00003117	auipc	x2,0x3	  x2=0x80008668
       63695000	      6368	80005670	ff810113	addi	x2,x2,-8	  x2:0x80008668  x2=0x80008660
       63705000	      6369	80005674	fff11823	sh	x31,-16(x2)	  x2:0x80008660 x31:0x00000000 PA:0x80008650
       63715000	      6370	80005678	00314703	lbu	x14,3(x2)	  x2:0x80008660 x14=0x00000000 PA:0x80008663
       63725000	      6371	8000567c	27e18013	addi	x0,x3,638	  x3:0x000000fb
       63735000	      6372	80005680	ffd14203	lbu	x4,-3(x2)	  x2:0x80008660  x4=0x00000002 PA:0x8000865d
       63745000	      6373	80005684	b9144613	xori	x12,x8,-1135	  x8:0xfffffba6 x12=0x00000037
       63755000	      6374	80005688	410a57b3	sra	x15,x20,x16	 x20:0x00000000 x16:0x097ff605 x15=0x00000000
       63765000	      6375	8000568c	00310b03	lb	x22,3(x2)	  x2:0x80008660 x22=0x00000000 PA:0x80008663
       63775000	      6376	80005690	fea10b23	sb	x10,-10(x2)	  x2:0x80008660 x10:0x80009f20 PA:0x80008656
       63785000	      6377	80005694	00c10803	lb	x16,12(x2)	  x2:0x80008660 x16=0x00000028 PA:0x8000866c
       63795000	      6378	80005698	00000013	addi	x0,x0,0	  x0:0x00000000
       63805000	      6379	8000569c	01388b33	add	x22,x17,x19	 x17:0x017fffff x19:0x00000000 x22=0x017fffff
       63815000	      6380	800056a0	ffb10803	lb	x16,-5(x2)	  x2:0x80008660 x16=0x00000046 PA:0x8000865b
       63825000	      6381	800056a4	65f0bc13	sltiu	x24,x1,1631	  x1:0x00000000 x24=0x00000001
       63835000	      6382	800056a8	000102a3	sb	x0,5(x2)	  x2:0x80008660  x0:0x00000000 PA:0x80008665
       63845000	      6383	800056ac	0031beb3	sltu	x29,x3,x3	  x3:0x000000fb  x3:0x000000fb x29=0x00000000
       63855000	      6384	800056b0	00000013	addi	x0,x0,0	  x0:0x00000000
       63865000	      6385	800056b4	2dabef93	ori	x31,x23,730	 x23:0x0000000d x31=0x000002df
       63875000	      6386	800056b8	01b74933	xor	x18,x14,x27	 x14:0x00000000 x27:0x00000400 x18=0x00000400
       63885000	      6387	800056bc	01b6c733	xor	x14,x13,x27	 x13:0x00000036 x27:0x00000400 x14=0x00000436
       63895000	      6388	800056c0	00110203	lb	x4,1(x2)	  x2:0x80008660  x4=0x00000064 PA:0x80008661
       63905000	      6389	800056c4	d1d97093	andi	x1,x18,-739	 x18:0x00000400  x1=0x00000400
       63915000	      6390	800056c8	00c102a3	sb	x12,5(x2)	  x2:0x80008660 x12:0x00000037 PA:0x80008665
       63925000	      6391	800056cc	00000013	addi	x0,x0,0	  x0:0x00000000
       63935000	      6392	800056d0	00d14c83	lbu	x25,13(x2)	  x2:0x80008660 x25=0x000000b1 PA:0x8000866d
       63945000	      6393	800056d4	01fdcd33	xor	x26,x27,x31	 x27:0x00000400 x31:0x000002df x26=0x000006df
       63955000	      6394	800056d8	00301413	slli	x8,x0,0x3	  x0:0x00000000  x8=0x00000000
       63965000	      6395	800056dc	ff614f03	lbu	x30,-10(x2)	  x2:0x80008660 x30=0x00000020 PA:0x80008656
       63975000	      6396	800056e0	ff610d83	lb	x27,-10(x2)	  x2:0x80008660 x27=0x00000020 PA:0x80008656
       63985000	      6397	800056e4	00615a03	lhu	x20,6(x2)	  x2:0x80008660 x20=0x00002d2e PA:0x80008666
       63995000	      6398	800056e8	00810723	sb	x8,14(x2)	  x2:0x80008660  x8:0x00000000 PA:0x8000866e
       64005000	      6399	800056ec	00003f97	auipc	x31,0x3	 x31=0x800086e8
       64015000	      6400	800056f0	c23f8f93	addi	x31,x31,-989	 x31:0x800086e8 x31=0x8000830b
       64025000	      6401	800056f4	01099493	slli	x9,x19,0x10	 x19:0x00000000  x9=0x00000000
       64035000	      6402	800056f8	11c530b7	lui	x1,0x11c53	  x1=0x11c53000
       64045000	      6403	800056fc	01201993	slli	x19,x0,0x12	  x0:0x00000000 x19=0x00000000
       64055000	      6404	80005700	00c99993	slli	x19,x19,0xc	 x19:0x00000000 x19=0x00000000
       64065000	      6405	80005704	0e1fa903	lw	x18,225(x31)	 x31:0x8000830b x18=0x9607a8eb PA:0x800083ec
       64075000	      6406	80005708	00000013	addi	x0,x0,0	  x0:0x00000000
       64085000	      6407	8000570c	f0bf99a3	sh	x11,-237(x31)	 x31:0x8000830b x11:0x80009fc4 PA:0x8000821e
       64095000	      6408	80005710	9470c093	xori	x1,x1,-1721	  x1:0x11c53000  x1=0xee3ac947
       64105000	      6409	80005714	fddf9a03	lh	x20,-35(x31)	 x31:0x8000830b x20=0xffffa64d PA:0x800082e8
       64115000	      6410	80005718	0c2fa4a3	sw	x2,201(x31)	 x31:0x8000830b  x2:0x80008660 PA:0x800083d4
       64125000	      6411	8000571c	7189ab13	slti	x22,x19,1816	 x19:0x00000000 x22=0x00000001
       64135000	      6412	80005720	1f6a9937	lui	x18,0x1f6a9	 x18=0x1f6a9000
       64145000	      6413	80005724	f44fcd03	lbu	x26,-188(x31)	 x31:0x8000830b x26=0x000000ef PA:0x8000824f
       64155000	      6414	00000000	00000013	addi	x0,x0,0	  x0:0x00000000
       64165000	      6415	80005728	010d5893	srli	x17,x26,0x10	 x26:0x000000ef x17=0x00000000
       64175000	      6416	8000572c	0d0f8d23	sb	x16,218(x31)	 x31:0x8000830b x16:0x00000046 PA:0x800083e5
       64185000	      6417	80005730	fb6fc783	lbu	x15,-74(x31)	 x31:0x8000830b x15=0x0000004e PA:0x800082c1
       64195000	      6418	80005734	019f9893	slli	x17,x31,0x19	 x31:0x8000830b x17=0x16000000
       64205000	      6419	80005738	6b4a8613	addi	x12,x21,1716	 x21:0x20000000 x12=0x200006b4
       64215000	      6420	8000573c	fb8f8883	lb	x17,-72(x31)	 x31:0x8000830b x17=0x0000007a PA:0x800082c3
       64225000	      6421	80005740	fcdfaa83	lw	x21,-51(x31)	 x31:0x8000830b x21=0xa6ec1e10 PA:0x800082d8
       64235000	      6422	80005744	f5649a97	auipc	x21,0xf5649	 x21=0x7564e740
       64245000	      6423	80005748	f86fc803	lbu	x16,-122(x31)	 x31:0x8000830b x16=0x00000058 PA:0x80008291
       64255000	      6424	8000574c	0120c933	xor	x18,x1,x18	  x1:0xee3ac947 x18:0x1f6a9000 x18=0xf1505947
       64265000	      6425	80005750	0bef8203	lb	x4,190(x31)	 x31:0x8000830b  x4=0x0000004a PA:0x800083c9
       64275000	      6426	80005754	0a153713	sltiu	x14,x10,161	 x10:0x80009f20 x14=0x00000000
       64285000	      6427	80005758	ff2fcd83	lbu	x27,-14(x31)	 x31:0x8000830b x27=0x000000da PA:0x800082fd
       64295000	      6428	8000575c	20cc4497	auipc	x9,0x20cc4	  x9=0xa0cc9758
       64305000	      6429	80005760	71fcbe13	sltiu	x28,x25,1823	 x25:0x000000b1 x28=0x00000001
       64315000	      6430	80005764	008e2eb3	slt	x29,x28,x8	 x28:0x00000001  x8:0x00000000 x29=0x00000000
       64325000	      6431	80005768	f8bf8523	sb	x11,-118(x31)	 x31:0x8000830b x11:0x80009fc4 PA:0x80008295
       64335000	      6432	8000576c	04ff8d83	lb	x27,79(x31)	 x31:0x8000830b x27=0xffffffb1 PA:0x8000835a
       64345000	      6433	80005770	fdafcd83	lbu	x27,-38(x31)	 x31:0x8000830b x27=0x00000036 PA:0x800082e5
       64355000	      6434	80005774	068f8023	sb	x8,96(x31)	 x31:0x8000830b  x8:0x00000000 PA:0x8000836b
       64365000	      6435	80005778	076f8b03	lb	x22,118(x31)	 x31:0x8000830b x22=0x00000000 PA:0x80008381
       64375000	      6436	8000577c	07bee093	ori	x1,x29,123	 x29:0x00000000  x1=0x0000007b
       64385000	      6437	80005780	07cf9aa3	sh	x28,117(x31)	 x31:0x8000830b x28:0x00000001 PA:0x80008380
       64395000	      6438	80005784	9e488eb7	lui	x29,0x9e488	 x29=0x9e488000
       64405000	      6439	80005788	f50f8da3	sb	x16,-165(x31)	 x31:0x8000830b x16:0x00000058 PA:0x80008266
       64415000	      6440	8000578c	7062ac93	slti	x25,x5,1798	  x5:0x00000001 x25=0x00000001
       64425000	      6441	80005790	0dbfc703	lbu	x14,219(x31)	 x31:0x8000830b x14=0x0000003b PA:0x800083e6
       64435000	      6442	80005794	fe3fd783	lhu	x15,-29(x31)	 x31:0x8000830b x15=0x000098d2 PA:0x800082ee
       64445000	      6443	80005798	fe9fd083	lhu	x1,-23(x31)	 x31:0x8000830b  x1=0x0000f083 PA:0x800082f4
       64455000	      6444	8000579c	f04f8a03	lb	x20,-252(x31)	 x31:0x8000830b x20=0x00000079 PA:0x8000820f
       64465000	      6445	800057a0	00000013	addi	x0,x0,0	  x0:0x00000000
       64475000	      6446	800057a4	f98f8303	lb	x6,-104(x31)	 x31:0x8000830b  x6=0x00000062 PA:0x800082a3
       64485000	      6447	800057a8	01df8f23	sb	x29,30(x31)	 x31:0x8000830b x29:0x9e488000 PA:0x80008329
       64495000	      6448	800057ac	03ffce83	lbu	x29,63(x31)	 x31:0x8000830b x29=0x00000082 PA:0x8000834a
       64505000	      6449	800057b0	00003117	auipc	x2,0x3	  x2=0x800087ac
       64515000	      6450	800057b4	a6910113	addi	x2,x2,-1431	  x2:0x800087ac  x2=0x80008215
       64525000	      6451	800057b8	ff414683	lbu	x13,-12(x2)	  x2:0x80008215 x13=0x00000050 PA:0x80008209
       64535000	      6452	00000000	00000013	addi	x0,x0,0	  x0:0x00000000
       64545000	      6453	800057bc	02d11fa3	sh	x13,63(x2)	  x2:0x80008215 x13:0x00000050 PA:0x80008254
       64555000	      6454	800057c0	010140b3	xor	x1,x2,x16	  x2:0x80008215 x16:0x00000058  x1=0x8000824d
       64565000	      6455	800057c4	fed11903	lh	x18,-19(x2)	  x2:0x80008215 x18=0xffffe66e PA:0x80008202
       64575000	      6456	800057c8	fcb15d03	lhu	x26,-53(x2)	  x2:0x80008215 x26=0x00007108 PA:0x800081e0
       64585000	      6457	800057cc	ce65ee93	ori	x29,x11,-794	 x11:0x80009fc4 x29=0xffffffe6
       64595000	      6458	800057d0	5b52bc93	sltiu	x25,x5,1461	  x5:0x00000001 x25=0x00000001
       64605000	      6459	800057d4	fd210883	lb	x17,-46(x2)	  x2:0x80008215 x17=0xffffff98 PA:0x800081e7
       64615000	      6460	800057d8	fd614d03	lbu	x26,-42(x2)	  x2:0x80008215 x26=0x000000c6 PA:0x800081eb
       64625000	      6461	00000000	00000013	addi	x0,x0,0	  x0:0x00000000
       64635000	      6462	800057dc	21a06493	ori	x9,x0,538	  x0:0x00000000  x9=0x0000021a
       64645000	      6463	800057e0	ffd104a3	sb	x29,-23(x2)	  x2:0x80008215 x29:0xffffffe6 PA:0x800081fe
       64655000	      6464	800057e4	ff810a83	lb	x21,-8(x2)	  x2:0x80008215 x21=0x00000040 PA:0x8000820d
       64665000	      6465	800057e8	02110a83	lb	x21,33(x2)	  x2:0x80008215 x21=0xffffffcf PA:0x80008236
       64675000	      6466	800057ec	67eba8b7	lui	x17,0x67eba	 x17=0x67eba000
       64685000	      6467	800057f0	26463713	sltiu	x14,x12,612	 x12:0x200006b4 x14=0x00000000
       64695000	      6468	800057f4	01910083	lb	x1,25(x2)	  x2:0x80008215  x1=0x00000011 PA:0x8000822e
       64705000	      6469	800057f8	00310303	lb	x6,3(x2)	  x2:0x80008215  x6=0x00000032 PA:0x80008218
       64715000	      6470	800057fc	02c10a23	sb	x12,52(x2)	  x2:0x80008215 x12:0x200006b4 PA:0x80008249
       64725000	      6471	80005800	fd614e03	lbu	x28,-42(x2)	  x2:0x80008215 x28=0x000000c6 PA:0x800081eb
       64735000	      6472	80005804	7e9b6a93	ori	x21,x22,2025	 x22:0x00000000 x21=0x000007e9
       64745000	      6473	80005808	01b14283	lbu	x5,27(x2)	  x2:0x80008215  x5=0x000000eb PA:0x80008230
       64755000	      6474	8000580c	ac7da993	slti	x19,x27,-1337	 x27:0x00000036 x19=0x00000000
       64765000	      6475	80005810	00114383	lbu	x7,1(x2)	  x2:0x80008215  x7=0x000000cd PA:0x80008216
       64775000	      6476	80005814	02810b03	lb	x22,40(x2)	  x2:0x80008215 x22=0xffffff87 PA:0x8000823d
       64785000	      6477	80005818	01f91d13	slli	x26,x18,0x1f	 x18:0xffffe66e x26=0x00000000
       64795000	      6478	8000581c	00210483	lb	x9,2(x2)	  x2:0x80008215  x9=0xffffff93 PA:0x80008217
       64805000	      6479	80005820	d05c7817	auipc	x16,0xd05c7	 x16=0x505cc81c
       64815000	      6480	80005824	fa1d6b13	ori	x22,x26,-95	 x26:0x00000000 x22=0xffffffa1
       64825000	      6481	80005828	03711683	lh	x13,55(x2)	  x2:0x80008215 x13=0xffffaf99 PA:0x8000824c
       64835000	      6482	8000582c	00003117	auipc	x2,0x3	  x2=0x80008828
       64845000	      6483	80005830	47610113	addi	x2,x2,1142	  x2:0x80008828  x2=0x80008c9e
       64855000	      6484	80005834	35f13013	sltiu	x0,x2,863	  x2:0x80008c9e
       64865000	      6485	80005838	f4a108a3	sb	x10,-175(x2)	  x2:0x80008c9e x10:0x80009f20 PA:0x80008bef
       64875000	      6486	8000583c	007cf2b3	and	x5,x25,x7	 x25:0x00000001  x7:0x000000cd  x5=0x00000001
       64885000	      6487	80005840	11c10803	lb	x16,284(x2)	  x2:0x80008c9e x16=0x00000013 PA:0x80008dba
       64895000	      6488	80005844	001700b3	add	x1,x14,x1	 x14:0x00000000  x1:0x00000011  x1=0x00000011
       64905000	      6489	80005848	00b95793	srli	x15,x18,0xb	 x18:0xffffe66e x15=0x001ffffc
       64915000	      6490	8000584c	62f66a17	auipc	x20,0x62f66	 x20=0xe2f6b848
       64925000	      6491	80005850	0014d033	srl	x0,x9,x1	  x9:0xffffff93  x1:0x00000011
       64935000	      6492	80005854	35911323	sh	x25,838(x2)	  x2:0x80008c9e x25:0x00000001 PA:0x80008fe4
       64945000	      6493	80005858	00184e33	xor	x28,x16,x1	 x16:0x00000013  x1:0x00000011 x28=0x00000002
       64955000	      6494	8000585c	00000013	addi	x0,x0,0	  x0:0x00000000
       64965000	      6495	80005860	c9015f83	lhu	x31,-880(x2)	  x2:0x80008c9e x31=0x0000004d PA:0x8000892e
       64975000	      6496	80005864	01c17433	and	x8,x2,x28	  x2:0x80008c9e x28:0x00000002  x8=0x00000002
       64985000	      6497	80005868	13910903	lb	x18,313(x2)	  x2:0x80008c9e x18=0xffffff8c PA:0x80008dd7
       64995000	      6498	8000586c	00c69b33	sll	x22,x13,x12	 x13:0xffffaf99 x12:0x200006b4 x22=0xf9900000
       65005000	      6499	80005870	00631d93	slli	x27,x6,0x6	  x6:0x00000032 x27=0x00000c80
       65015000	      6500	80005874	00000013	addi	x0,x0,0	  x0:0x00000000
       65025000	      6501	80005878	28710e03	lb	x28,647(x2)	  x2:0x80008c9e x28=0x00000058 PA:0x80008f25
       65035000	      6502	8000587c	014a0e33	add	x28,x20,x20	 x20:0xe2f6b848 x20:0xe2f6b848 x28=0xc5ed7090
       65045000	      6503	80005880	00171a13	slli	x20,x14,0x1	 x14:0x00000000 x20=0x00000000
       65055000	      6504	80005884	d0130f13	addi	x30,x6,-767	  x6:0x00000032 x30=0xfffffd33
       65065000	      6505	80005888	e142ec13	ori	x24,x5,-492	  x5:0x00000001 x24=0xfffffe15
       65075000	      6506	8000588c	0e310c03	lb	x24,227(x2)	  x2:0x80008c9e x24=0xffffff84 PA:0x80008d81
       65085000	      6507	80005890	0109af33	slt	x30,x19,x16	 x19:0x00000000 x16:0x00000013 x30=0x00000001
       65095000	      6508	80005894	be211e83	lh	x29,-1054(x2)	  x2:0x80008c9e x29=0xffffa34e PA:0x80008880
       65105000	      6509	80005898	dfb10ba3	sb	x27,-521(x2)	  x2:0x80008c9e x27:0x00000c80 PA:0x80008a95
       65115000	      6510	8000589c	c0014283	lbu	x5,-1024(x2)	  x2:0x80008c9e  x5=0x00000052 PA:0x8000889e
       65125000	      6511	800058a0	0ea12683	lw	x13,234(x2)	  x2:0x80008c9e x13=0xb98fea62 PA:0x80008d88
       65135000	      6512	800058a4	017ede93	srli	x29,x29,0x17	 x29:0xffffa34e x29=0x000001ff
       65145000	      6513	800058a8	53a46013	ori	x0,x8,1338	  x8:0x00000002
       65155000	      6514	800058ac	28610ca3	sb	x6,665(x2)	  x2:0x80008c9e  x6:0x00000032 PA:0x80008f37
       65165000	      6515	800058b0	6ed03993	sltiu	x19,x0,1773	  x0:0x00000000 x19=0x00000001
       65175000	      6516	800058b4	2ae10903	lb	x18,686(x2)	  x2:0x80008c9e x18=0xffffffc6 PA:0x80008f4c
       65185000	      6517	800058b8	00003117	auipc	x2,0x3	  x2=0x800088b4
       65195000	      6518	800058bc	e7c10113	addi	x2,x2,-388	  x2:0x800088b4  x2=0x80008730
       65205000	      6519	800058c0	40e75813	srai	x16,x14,0xe	 x14:0x00000000 x16=0x00000000
       65215000	      6520	800058c4	f6211303	lh	x6,-158(x2)	  x2:0x80008730  x6=0x000029a7 PA:0x80008692
       65225000	      6521	800058c8	0c015203	lhu	x4,192(x2)	  x2:0x80008730  x4=0x0000bef1 PA:0x800087f0
       65235000	      6522	800058cc	f5f10ea3	sb	x31,-163(x2)	  x2:0x80008730 x31:0x0000004d PA:0x8000868d
       65245000	      6523	800058d0	01c23a33	sltu	x20,x4,x28	  x4:0x0000bef1 x28:0xc5ed7090 x20=0x00000001
       65255000	      6524	800058d4	0b010c83	lb	x25,176(x2)	  x2:0x80008730 x25=0xffffff9d PA:0x800087e0
       65265000	      6525	800058d8	01441db3	sll	x27,x8,x20	  x8:0x00000002 x20:0x00000001 x27=0x00000004
       65275000	      6526	800058dc	012ca3b3	slt	x7,x25,x18	 x25:0xffffff9d x18:0xffffffc6  x7=0x00000001
       65285000	      6527	800058e0	0022f0b3	and	x1,x5,x2	  x5:0x00000052  x2:0x80008730  x1=0x00000010
       65295000	      6528	800058e4	f71105a3	sb	x17,-149(x2)	  x2:0x80008730 x17:0x67eba000 PA:0x8000869b
       65305000	      6529	800058e8	06b14d03	lbu	x26,107(x2)	  x2:0x80008730 x26=0x0000000d PA:0x8000879b
       65315000	      6530	800058ec	09815983	lhu	x19,152(x2)	  x2:0x80008730 x19=0x000052b9 PA:0x800087c8
       65325000	      6531	800058f0	32602f93	slti	x31,x0,806	  x0:0x00000000 x31=0x00000001
       65335000	      6532	800058f4	00082933	slt	x18,x16,x0	 x16:0x00000000  x0:0x00000000 x18=0x00000000
       65345000	      6533	800058f8	f2c10a83	lb	x21,-212(x2)	  x2:0x80008730 x21=0xffffffbb PA:0x8000865c
       65355000	      6534	800058fc	40f45d33	sra	x26,x8,x15	  x8:0x00000002 x15:0x001ffffc x26=0x00000000
       65365000	      6535	80005900	0080db33	srl	x22,x1,x8	  x1:0x00000010  x8:0x00000002 x22=0x00000004
       65375000	      6536	80005904	01611483	lh	x9,22(x2)	  x2:0x80008730  x9=0x0000556c PA:0x80008746
       65385000	      6537	80005908	005389b3	add	x19,x7,x5	  x7:0x00000001  x5:0x00000052 x19=0x00000053
       65395000	      6538	8000590c	fa614083	lbu	x1,-90(x2)	  x2:0x80008730  x1=0x00000049 PA:0x800086d6
       65405000	      6539	80005910	f1c103a3	sb	x28,-249(x2)	  x2:0x80008730 x28:0xc5ed7090 PA:0x80008637
       65415000	      6540	80005914	fc014d03	lbu	x26,-64(x2)	  x2:0x80008730 x26=0x0000003f PA:0x800086f0
       65425000	      6541	80005918	08e14203	lbu	x4,142(x2)	  x2:0x80008730  x4=0x00000035 PA:0x800087be
       65435000	      6542	8000591c	40c951b3	sra	x3,x18,x12	 x18:0x00000000 x12:0x200006b4  x3=0x00000000
       65445000	      6543	80005920	ed640893	addi	x17,x8,-298	  x8:0x00000002 x17=0xfffffed8
       65455000	      6544	80005924	5daec213	xori	x4,x29,1498	 x29:0x000001ff  x4=0x00000425
       65465000	      6545	80005928	05210303	lb	x6,82(x2)	  x2:0x80008730  x6=0x0000002a PA:0x80008782
       65475000	      6546	8000592c	f4710aa3	sb	x7,-171(x2)	  x2:0x80008730  x7:0x00000001 PA:0x80008685
       65485000	      6547	80005930	05314d03	lbu	x26,83(x2)	  x2:0x80008730 x26=0x0000007d PA:0x80008783
       65495000	      6548	80005934	fcd10423	sb	x13,-56(x2)	  x2:0x80008730 x13:0xb98fea62 PA:0x800086f8
       65505000	      6549	80005938	0df156b7	lui	x13,0xdf15	 x13=0x0df15000
       65515000	      6550	8000593c	019699b3	sll	x19,x13,x25	 x13:0x0df15000 x25:0xffffff9d x19=0x00000000
       65525000	      6551	80005940	f0514a83	lbu	x21,-251(x2)	  x2:0x80008730 x21=0x00000010 PA:0x80008635
       65535000	      6552	80005944	404e5e13	srai	x28,x28,0x4	 x28:0xc5ed7090 x28=0xfc5ed709
       65545000	      6553	80005948	4e458f93	addi	x31,x11,1252	 x11:0x80009fc4 x31=0x8000a4a8
       65555000	      6554	8000594c	f7314483	lbu	x9,-141(x2)	  x2:0x80008730  x9=0x000000c6 PA:0x800086a3
       65565000	      6555	80005950	00000013	addi	x0,x0,0	  x0:0x00000000
       65575000	      6556	80005954	02b10483	lb	x9,43(x2)	  x2:0x80008730  x9=0x00000061 PA:0x8000875b
       65585000	      6557	00000000	00000013	addi	x0,x0,0	  x0:0x00000000
       65595000	      6558	80005958	40915f93	srai	x31,x2,0x9	  x2:0x80008730 x31=0xffc00043
       65605000	      6559	8000595c	0cd10c83	lb	x25,205(x2)	  x2:0x80008730 x25=0x00000073 PA:0x800087fd
       65615000	      6560	80005960	0773cdb7	lui	x27,0x773c	 x27=0x0773c000
       65625000	      6561	80005964	f8811f83	lh	x31,-120(x2)	  x2:0x80008730 x31=0x00000664 PA:0x800086b8
       65635000	      6562	80005968	fc710e03	lb	x28,-57(x2)	  x2:0x80008730 x28=0x0000004c PA:0x800086f7
       65645000	      6563	8000596c	528cb793	sltiu	x15,x25,1320	 x25:0x00000073 x15=0x00000001
       65655000	      6564	80005970	f4d14083	lbu	x1,-179(x2)	  x2:0x80008730  x1=0x0000002b PA:0x8000867d
       65665000	      6565	80005974	00919013	slli	x0,x3,0x9	  x3:0x00000000
       65675000	      6566	80005978	407b04b3	sub	x9,x22,x7	 x22:0x00000004  x7:0x00000001  x9=0x00000003
       65685000	      6567	8000597c	01345db3	srl	x27,x8,x19	  x8:0x00000002 x19:0x00000000 x27=0x00000002
       65695000	      6568	80005980	01982db3	slt	x27,x16,x25	 x16:0x00000000 x25:0x00000073 x27=0x00000001
       65705000	      6569	80005984	01b034b3	sltu	x9,x0,x27	  x0:0x00000000 x27:0x00000001  x9=0x00000001
       65715000	      6570	80005988	00a49c33	sll	x24,x9,x10	  x9:0x00000001 x10:0x80009f20 x24=0x00000001
       65725000	      6571	8000598c	0057a7b3	slt	x15,x15,x5	 x15:0x00000001  x5:0x00000052 x15=0x00000001
       65735000	      6572	80005990	ac16b637	lui	x12,0xac16b	 x12=0xac16b000
       65745000	      6573	80005994	02d67463	bgeu	x12,x13,800059bc	 x12:0xac16b000 x13:0x0df15000
       65755000	      6574	00000000	00000013	addi	x0,x0,0	  x0:0x00000000
       65765000	      6575	800059b8	00000013	addi	x0,x0,0	  x0:0x00000000
       65775000	      6576	800059bc	00d14333	xor	x6,x2,x13	  x2:0x80008730 x13:0x0df15000  x6=0x8df1d730
       65785000	      6577	800059c0	03b30863	beq	x6,x27,800059f0	  x6:0x8df1d730 x27:0x00000001
       65795000	      6578	800059c4	416a88b3	sub	x17,x21,x22	 x21:0x00000010 x22:0x00000004 x17=0x0000000c
       65805000	      6579	800059c8	5fa82e93	slti	x29,x16,1530	 x16:0x00000000 x29=0x00000001
       65815000	      6580	800059cc	407303b3	sub	x7,x6,x7	  x6:0x8df1d730  x7:0x00000001  x7=0x8df1d72f
       65825000	      6581	800059d0	000cdb33	srl	x22,x25,x0	 x25:0x00000073  x0:0x00000000 x22=0x00000073
       65835000	      6582	800059d4	01bb01b3	add	x3,x22,x27	 x22:0x00000073 x27:0x00000001  x3=0x00000074
       65845000	      6583	800059d8	00a170b3	and	x1,x2,x10	  x2:0x80008730 x10:0x80009f20  x1=0x80008720
       65855000	      6584	800059dc	00bec133	xor	x2,x29,x11	 x29:0x00000001 x11:0x80009fc4  x2=0x80009fc5
       65865000	      6585	800059e0	01ffd7b3	srl	x15,x31,x31	 x31:0x00000664 x31:0x00000664 x15=0x00000066
       65875000	      6586	800059e4	3ba52137	lui	x2,0x3ba52	  x2=0x3ba52000
       65885000	      6587	800059e8	4392ad13	slti	x26,x5,1081	  x5:0x00000052 x26=0x00000001
       65895000	      6588	800059ec	01adbfb3	sltu	x31,x27,x26	 x27:0x00000001 x26:0x00000001 x31=0x00000000
       65905000	      6589	800059f0	cb90cfb7	lui	x31,0xcb90c	 x31=0xcb90c000
       65915000	      6590	800059f4	cf79ea93	ori	x21,x19,-777	 x19:0x00000000 x21=0xfffffcf7
       65925000	      6591	800059f8	42664b13	xori	x22,x12,1062	 x12:0xac16b000 x22=0xac16b426
       65935000	      6592	800059fc	00ac5213	srli	x4,x24,0xa	 x24:0x00000001  x4=0x00000000
       65945000	      6593	80005a00	c8c67713	andi	x14,x12,-884	 x12:0xac16b000 x14=0xac16b000
       65955000	      6594	80005a04	0058ed33	or	x26,x17,x5	 x17:0x0000000c  x5:0x00000052 x26=0x0000005e
       65965000	      6595	80005a08	04aec263	blt	x29,x10,80005a4c	 x29:0x00000001 x10:0x80009f20
       65975000	      6596	80005a0c	f956c637	lui	x12,0xf956c	 x12=0xf956c000
       65985000	      6597	80005a10	00982433	slt	x8,x16,x9	 x16:0x00000000  x9:0x00000001  x8=0x00000001
       65995000	      6598	80005a14	01df8c33	add	x24,x31,x29	 x31:0xcb90c000 x29:0x00000001 x24=0xcb90c001
       66005000	      6599	80005a18	00439eb3	sll	x29,x7,x4	  x7:0x8df1d72f  x4:0x00000000 x29=0x8df1d72f
       66015000	      6600	80005a1c	00644e63	blt	x8,x6,80005a38	  x8:0x00000001  x6:0x8df1d730
       66025000	      6601	80005a20	01391263	bne	x18,x19,80005a24	 x18:0x00000000 x19:0x00000000
       66035000	      6602	80005a24	00ae3233	sltu	x4,x28,x10	 x28:0x0000004c x10:0x80009f20  x4=0x00000001
       66045000	      6603	80005a28	00317463	bgeu	x2,x3,80005a30	  x2:0x3ba52000  x3:0x00000074
       66055000	      6604	00000000	00000013	addi	x0,x0,0	  x0:0x00000000
       66065000	      6605	80005a2c	00000013	addi	x0,x0,0	  x0:0x00000000
       66075000	      6606	80005a30	03c3e663	bltu	x7,x28,80005a5c	  x7:0x8df1d72f x28:0x0000004c
       66085000	      6607	80005a34	02fa5063	bge	x20,x15,80005a54	 x20:0x00000001 x15:0x00000066
       66095000	      6608	80005a38	8f0b7113	andi	x2,x22,-1808	 x22:0xac16b426  x2=0xac16b020
       66105000	      6609	80005a3c	010ef933	and	x18,x29,x16	 x29:0x8df1d72f x16:0x00000000 x18=0x00000000
       66115000	      6610	80005a40	01b73e33	sltu	x28,x14,x27	 x14:0xac16b000 x27:0x00000001 x28=0x00000000
       66125000	      6611	80005a44	12b0f893	andi	x17,x1,299	  x1:0x80008720 x17=0x00000120
       66135000	      6612	80005a48	2eed3d13	sltiu	x26,x26,750	 x26:0x0000005e x26=0x00000001
       66145000	      6613	80005a4c	00e11e33	sll	x28,x2,x14	  x2:0xac16b020 x14:0xac16b000 x28=0xac16b020
       66155000	      6614	80005a50	00bc6663	bltu	x24,x11,80005a5c	 x24:0xcb90c001 x11:0x80009fc4
       66165000	      6615	80005a54	01d02833	slt	x16,x0,x29	  x0:0x00000000 x29:0x8df1d72f x16=0x00000000
       66175000	      6616	80005a58	04b15663	bge	x2,x11,80005aa4	  x2:0xac16b020 x11:0x80009fc4
       66185000	      6617	00000000	00000013	addi	x0,x0,0	  x0:0x00000000
       66195000	      6618	80005aa0	00000013	addi	x0,x0,0	  x0:0x00000000
       66205000	      6619	80005aa4	0152fc63	bgeu	x5,x21,80005abc	  x5:0x00000052 x21:0xfffffcf7
       66215000	      6620	80005aa8	0043bb33	sltu	x22,x7,x4	  x7:0x8df1d72f  x4:0x00000001 x22=0x00000000
       66225000	      6621	80005aac	b81aceb7	lui	x29,0xb81ac	 x29=0xb81ac000
       66235000	      6622	80005ab0	41308fb3	sub	x31,x1,x19	  x1:0x80008720 x19:0x00000000 x31=0x80008720
       66245000	      6623	80005ab4	39bbf213	andi	x4,x23,923	 x23:0x0000000d  x4=0x00000009
       66255000	      6624	80005ab8	00bfd493	srli	x9,x31,0xb	 x31:0x80008720  x9=0x00100010
       66265000	      6625	80005abc	a0684f37	lui	x30,0xa0684	 x30=0xa0684000
       66275000	      6626	80005ac0	9ed37a13	andi	x20,x6,-1555	  x6:0x8df1d730 x20=0x8df1d120
       66285000	      6627	80005ac4	01e41e63	bne	x8,x30,80005ae0	  x8:0x00000001 x30:0xa0684000
       66295000	      6628	00000000	00000013	addi	x0,x0,0	  x0:0x00000000
       66305000	      6629	80005adc	00000013	addi	x0,x0,0	  x0:0x00000000
       66315000	      6630	80005ae0	006c1013	slli	x0,x24,0x6	 x24:0xcb90c001
       66325000	      6631	80005ae4	00a6d933	srl	x18,x13,x10	 x13:0x0df15000 x10:0x80009f20 x18=0x0df15000
       66335000	      6632	80005ae8	00000013	addi	x0,x0,0	  x0:0x00000000
       66345000	      6633	80005aec	000df4b3	and	x9,x27,x0	 x27:0x00000001  x0:0x00000000  x9=0x00000000
       66355000	      6634	80005af0	000da933	slt	x18,x27,x0	 x27:0x00000001  x0:0x00000000 x18=0x00000000
       66365000	      6635	80005af4	03dc1263	bne	x24,x29,80005b18	 x24:0xcb90c001 x29:0xb81ac000
       66375000	      6636	00000000	00000013	addi	x0,x0,0	  x0:0x00000000
       66385000	      6637	80005b14	00000013	addi	x0,x0,0	  x0:0x00000000
       66395000	      6638	80005b18	61fce813	ori	x16,x25,1567	 x25:0x00000073 x16=0x0000067f
       66405000	      6639	80005b1c	41c98cb3	sub	x25,x19,x28	 x19:0x00000000 x28:0xac16b020 x25=0x53e94fe0
       66415000	      6640	80005b20	013561b3	or	x3,x10,x19	 x10:0x80009f20 x19:0x00000000  x3=0x80009f20
       66425000	      6641	80005b24	0008ff33	and	x30,x17,x0	 x17:0x00000120  x0:0x00000000 x30=0x00000000
       66435000	      6642	80005b28	6cb57e93	andi	x29,x10,1739	 x10:0x80009f20 x29=0x00000600
       66445000	      6643	80005b2c	01906f33	or	x30,x0,x25	  x0:0x00000000 x25:0x53e94fe0 x30=0x53e94fe0
       66455000	      6644	80005b30	ea7e51b7	lui	x3,0xea7e5	  x3=0xea7e5000
       66465000	      6645	80005b34	0116e463	bltu	x13,x17,80005b3c	 x13:0x0df15000 x17:0x00000120
       66475000	      6646	80005b38	00000013	addi	x0,x0,0	  x0:0x00000000
       66485000	      6647	80005b3c	416e5113	srai	x2,x28,0x16	 x28:0xac16b020  x2=0xfffffeb0
       66495000	      6648	80005b40	06502313	slti	x6,x0,101	  x0:0x00000000  x6=0x00000001
       66505000	      6649	80005b44	b8fd8613	addi	x12,x27,-1137	 x27:0x00000001 x12=0xfffffb90
       66515000	      6650	80005b48	00a113b3	sll	x7,x2,x10	  x2:0xfffffeb0 x10:0x80009f20  x7=0xfffffeb0
       66525000	      6651	80005b4c	41bb5a33	sra	x20,x22,x27	 x22:0x00000000 x27:0x00000001 x20=0x00000000
       66535000	      6652	80005b50	01766c63	bltu	x12,x23,80005b68	 x12:0xfffffb90 x23:0x0000000d
       66545000	      6653	80005b54	40c0d2b3	sra	x5,x1,x12	  x1:0x80008720 x12:0xfffffb90  x5=0xffff8000
       66555000	      6654	80005b58	053f0463	beq	x30,x19,80005ba0	 x30:0x53e94fe0 x19:0x00000000
       66565000	      6655	80005b5c	f0567913	andi	x18,x12,-251	 x12:0xfffffb90 x18=0xfffffb00
       66575000	      6656	80005b60	6337c313	xori	x6,x15,1587	 x15:0x00000066  x6=0x00000655
       66585000	      6657	80005b64	0e23feb7	lui	x29,0xe23f	 x29=0x0e23f000
       66595000	      6658	80005b68	01c2ca33	xor	x20,x5,x28	  x5:0xffff8000 x28:0xac16b020 x20=0x53e93020
       66605000	      6659	80005b6c	01397333	and	x6,x18,x19	 x18:0xfffffb00 x19:0x00000000  x6=0x00000000
       66615000	      6660	80005b70	41f05813	srai	x16,x0,0x1f	  x0:0x00000000 x16=0x00000000
       66625000	      6661	80005b74	002529b3	slt	x19,x10,x2	 x10:0x80009f20  x2:0xfffffeb0 x19=0x00000001
       66635000	      6662	80005b78	0049de93	srli	x29,x19,0x4	 x19:0x00000001 x29=0x00000000
       66645000	      6663	80005b7c	009e8233	add	x4,x29,x9	 x29:0x00000000  x9:0x00000000  x4=0x00000000
       66655000	      6664	80005b80	00b11613	slli	x12,x2,0xb	  x2:0xfffffeb0 x12=0xfff58000
       66665000	      6665	80005b84	44e24893	xori	x17,x4,1102	  x4:0x00000000 x17=0x0000044e
       66675000	      6666	80005b88	005e5993	srli	x19,x28,0x5	 x28:0xac16b020 x19=0x0560b581
       66685000	      6667	80005b8c	0527e463	bltu	x15,x18,80005bd4	 x15:0x00000066 x18:0xfffffb00
       66695000	      6668	00000000	00000013	addi	x0,x0,0	  x0:0x00000000
       66705000	      6669	80005bd0	00000013	addi	x0,x0,0	  x0:0x00000000
       66715000	      6670	80005bd4	93643c93	sltiu	x25,x8,-1738	  x8:0x00000001 x25=0x00000001
       66725000	      6671	80005bd8	1316b813	sltiu	x16,x13,305	 x13:0x0df15000 x16=0x00000000
       66735000	      6672	80005bdc	02b29263	bne	x5,x11,80005c00	  x5:0xffff8000 x11:0x80009fc4
       66745000	      6673	00000000	00000013	addi	x0,x0,0	  x0:0x00000000
       66755000	      6674	80005bfc	00000013	addi	x0,x0,0	  x0:0x00000000
       66765000	      6675	80005c00	00cff1b3	and	x3,x31,x12	 x31:0x80008720 x12:0xfff58000  x3=0x80008000
       66775000	      6676	80005c04	5fdf4b13	xori	x22,x30,1533	 x30:0x53e94fe0 x22=0x53e94a1d
       66785000	      6677	80005c08	009192b3	sll	x5,x3,x9	  x3:0x80008000  x9:0x00000000  x5=0x80008000
       66795000	      6678	80005c0c	0417f263	bgeu	x15,x1,80005c50	 x15:0x00000066  x1:0x80008720
       66805000	      6679	80005c10	017c43b3	xor	x7,x24,x23	 x24:0xcb90c001 x23:0x0000000d  x7=0xcb90c00c
       66815000	      6680	80005c14	005d07b3	add	x15,x26,x5	 x26:0x00000001  x5:0x80008000 x15=0x80008001
       66825000	      6681	80005c18	02ad8263	beq	x27,x10,80005c3c	 x27:0x00000001 x10:0x80009f20
       66835000	      6682	80005c1c	00000013	addi	x0,x0,0	  x0:0x00000000
       66845000	      6683	80005c20	404adeb3	sra	x29,x21,x4	 x21:0xfffffcf7  x4:0x00000000 x29=0xfffffcf7
       66855000	      6684	80005c24	00000013	addi	x0,x0,0	  x0:0x00000000
       66865000	      6685	80005c28	013be8b3	or	x17,x23,x19	 x23:0x0000000d x19:0x0560b581 x17=0x0560b58d
       66875000	      6686	80005c2c	0031de93	srli	x29,x3,0x3	  x3:0x80008000 x29=0x10001000
       66885000	      6687	80005c30	41a00b33	sub	x22,x0,x26	  x0:0x00000000 x26:0x00000001 x22=0xffffffff
       66895000	      6688	80005c34	4140d393	srai	x7,x1,0x14	  x1:0x80008720  x7=0xfffff800
       66905000	      6689	80005c38	01e9eb33	or	x22,x19,x30	 x19:0x0560b581 x30:0x53e94fe0 x22=0x57e9ffe1
       66915000	      6690	80005c3c	d9104f93	xori	x31,x0,-623	  x0:0x00000000 x31=0xfffffd91
       66925000	      6691	80005c40	01b25c63	bge	x4,x27,80005c58	  x4:0x00000000 x27:0x00000001
       66935000	      6692	80005c44	013fceb3	xor	x29,x31,x19	 x31:0xfffffd91 x19:0x0560b581 x29=0xfa9f4810
       66945000	      6693	80005c48	c3cece13	xori	x28,x29,-964	 x29:0xfa9f4810 x28=0x0560b42c
       66955000	      6694	80005c4c	c3d93e13	sltiu	x28,x18,-963	 x18:0xfffffb00 x28=0x00000001
       66965000	      6695	80005c50	0239c263	blt	x19,x3,80005c74	 x19:0x0560b581  x3:0x80008000
       66975000	      6696	80005c54	03560863	beq	x12,x21,80005c84	 x12:0xfff58000 x21:0xfffffcf7
       66985000	      6697	80005c58	03e39e63	bne	x7,x30,80005c94	  x7:0xfffff800 x30:0x53e94fe0
       66995000	      6698	00000000	00000013	addi	x0,x0,0	  x0:0x00000000
       67005000	      6699	80005c90	00000013	addi	x0,x0,0	  x0:0x00000000
       67015000	      6700	80005c94	40ac0a33	sub	x20,x24,x10	 x24:0xcb90c001 x10:0x80009f20 x20=0x4b9020e1
       67025000	      6701	80005c98	bb953293	sltiu	x5,x10,-1095	 x10:0x80009f20  x5=0x00000001
       67035000	      6702	80005c9c	01249833	sll	x16,x9,x18	  x9:0x00000000 x18:0xfffffb00 x16=0x00000000
       67045000	      6703	80005ca0	002d0233	add	x4,x26,x2	 x26:0x00000001  x2:0xfffffeb0  x4=0xfffffeb1
       67055000	      6704	80005ca4	1df07337	lui	x6,0x1df07	  x6=0x1df07000
       67065000	      6705	80005ca8	00bb5413	srli	x8,x22,0xb	 x22:0x57e9ffe1  x8=0x000afd3f
       67075000	      6706	80005cac	a7c0b713	sltiu	x14,x1,-1412	  x1:0x80008720 x14=0x00000001
       67085000	      6707	80005cb0	00c80463	beq	x16,x12,80005cb8	 x16:0x00000000 x12:0xfff58000
       67095000	      6708	80005cb4	05cef463	bgeu	x29,x28,80005cfc	 x29:0xfa9f4810 x28:0x00000001
       67105000	      6709	00000000	00000013	addi	x0,x0,0	  x0:0x00000000
       67115000	      6710	80005cf8	00000013	addi	x0,x0,0	  x0:0x00000000
       67125000	      6711	80005cfc	414e0733	sub	x14,x28,x20	 x28:0x00000001 x20:0x4b9020e1 x14=0xb46fdf20
       67135000	      6712	80005d00	49627e13	andi	x28,x4,1174	  x4:0xfffffeb1 x28=0x00000490
       67145000	      6713	80005d04	bc0a9997	auipc	x19,0xbc0a9	 x19=0x3c0aed00
       67155000	      6714	80005d08	2ed58a13	addi	x20,x11,749	 x11:0x80009fc4 x20=0x8000a2b1
       67165000	      6715	80005d0c	001f2f33	slt	x30,x30,x1	 x30:0x53e94fe0  x1:0x80008720 x30=0x00000000
       67175000	      6716	80005d10	00061f33	sll	x30,x12,x0	 x12:0xfff58000  x0:0x00000000 x30=0xfff58000
       67185000	      6717	80005d14	a201f9b7	lui	x19,0xa201f	 x19=0xa201f000
       67195000	      6718	80005d18	03b8ee63	bltu	x17,x27,80005d54	 x17:0x0560b58d x27:0x00000001
       67205000	      6719	80005d1c	00000013	addi	x0,x0,0	  x0:0x00000000
       67215000	      6720	80005d20	30778b13	addi	x22,x15,775	 x15:0x80008001 x22=0x80008308
       67225000	      6721	80005d24	ced90d93	addi	x27,x18,-787	 x18:0xfffffb00 x27=0xfffff7ed
       67235000	      6722	80005d28	00000013	addi	x0,x0,0	  x0:0x00000000
       67245000	      6723	80005d2c	40e45a13	srai	x20,x8,0xe	  x8:0x000afd3f x20=0x0000002b
       67255000	      6724	80005d30	e6e21997	auipc	x19,0xe6e21	 x19=0x66e26d2c
       67265000	      6725	80005d34	1a5e7393	andi	x7,x28,421	 x28:0x00000490  x7=0x00000080
       67275000	      6726	80005d38	00000013	addi	x0,x0,0	  x0:0x00000000
       67285000	      6727	80005d3c	01be6db3	or	x27,x28,x27	 x28:0x00000490 x27:0xfffff7ed x27=0xfffff7fd
       67295000	      6728	80005d40	40bcdf13	srai	x30,x25,0xb	 x25:0x00000001 x30=0x00000000
       67305000	      6729	80005d44	02231663	bne	x6,x2,80005d70	  x6:0x1df07000  x2:0xfffffeb0
       67315000	      6730	00000000	00000013	addi	x0,x0,0	  x0:0x00000000
       67325000	      6731	80005d6c	00000013	addi	x0,x0,0	  x0:0x00000000
       67335000	      6732	80005d70	0038d113	srli	x2,x17,0x3	 x17:0x0560b58d  x2=0x00ac16b1
       67345000	      6733	80005d74	009019b3	sll	x19,x0,x9	  x0:0x00000000  x9:0x00000000 x19=0x00000000
       67355000	      6734	80005d78	010cc833	xor	x16,x25,x16	 x25:0x00000001 x16:0x00000000 x16=0x00000001
       67365000	      6735	80005d7c	84cf2213	slti	x4,x30,-1972	 x30:0x00000000  x4=0x00000000
       67375000	      6736	80005d80	008e0ab3	add	x21,x28,x8	 x28:0x00000490  x8:0x000afd3f x21=0x000b01cf
       67385000	      6737	80005d84	02ea7863	bgeu	x20,x14,80005db4	 x20:0x0000002b x14:0xb46fdf20
       67395000	      6738	80005d88	75ed7c93	andi	x25,x26,1886	 x26:0x00000001 x25=0x00000000
       67405000	      6739	80005d8c	01708a33	add	x20,x1,x23	  x1:0x80008720 x23:0x0000000d x20=0x8000872d
       67415000	      6740	80005d90	77bfacb7	lui	x25,0x77bfa	 x25=0x77bfa000
       67425000	      6741	80005d94	40f6da33	sra	x20,x13,x15	 x13:0x0df15000 x15:0x80008001 x20=0x06f8a800
       67435000	      6742	80005d98	9a12ef13	ori	x30,x5,-1631	  x5:0x00000001 x30=0xfffff9a1
       67445000	      6743	80005d9c	01e8b633	sltu	x12,x17,x30	 x17:0x0560b58d x30:0xfffff9a1 x12=0x00000001
       67455000	      6744	80005da0	01cac933	xor	x18,x21,x28	 x21:0x000b01cf x28:0x00000490 x18=0x000b055f
       67465000	      6745	80005da4	01271463	bne	x14,x18,80005dac	 x14:0xb46fdf20 x18:0x000b055f
       67475000	      6746	00000000	00000013	addi	x0,x0,0	  x0:0x00000000
       67485000	      6747	80005da8	00000013	addi	x0,x0,0	  x0:0x00000000
       67495000	      6748	80005dac	072fe193	ori	x3,x31,114	 x31:0xfffffd91  x3=0xfffffdf3
       67505000	      6749	80005db0	01fc41b3	xor	x3,x24,x31	 x24:0xcb90c001 x31:0xfffffd91  x3=0x346f3d90
       67515000	      6750	80005db4	0198ceb3	xor	x29,x17,x25	 x17:0x0560b58d x25:0x77bfa000 x29=0x72df158d
       67525000	      6751	80005db8	01687c63	bgeu	x16,x22,80005dd0	 x16:0x00000001 x22:0x80008308
       67535000	      6752	80005dbc	002006b3	add	x13,x0,x2	  x0:0x00000000  x2:0x00ac16b1 x13=0x00ac16b1
       67545000	      6753	80005dc0	431bf113	andi	x2,x23,1073	 x23:0x0000000d  x2=0x00000001
       67555000	      6754	80005dc4	00583b33	sltu	x22,x16,x5	 x16:0x00000001  x5:0x00000001 x22=0x00000000
       67565000	      6755	80005dc8	007cd293	srli	x5,x25,0x7	 x25:0x77bfa000  x5=0x00ef7f40
       67575000	      6756	80005dcc	0146a8b3	slt	x17,x13,x20	 x13:0x00ac16b1 x20:0x06f8a800 x17=0x00000001
       67585000	      6757	80005dd0	01295d33	srl	x26,x18,x18	 x18:0x000b055f x18:0x000b055f x26=0x00000000
       67595000	      6758	80005dd4	403fdc93	srai	x25,x31,0x3	 x31:0xfffffd91 x25=0xffffffb2
       67605000	      6759	80005dd8	00000013	addi	x0,x0,0	  x0:0x00000000
       67615000	      6760	80005ddc	922d3413	sltiu	x8,x26,-1758	 x26:0x00000000  x8=0x00000001
       67625000	      6761	80005de0	007c89b3	add	x19,x25,x7	 x25:0xffffffb2  x7:0x00000080 x19=0x00000032
       67635000	      6762	80005de4	954ece13	xori	x28,x29,-1708	 x29:0x72df158d x28=0x8d20ecd9
       67645000	      6763	80005de8	0019de63	bge	x19,x1,80005e04	 x19:0x00000032  x1:0x80008720
       67655000	      6764	00000000	00000013	addi	x0,x0,0	  x0:0x00000000
       67665000	      6765	80005e00	00000013	addi	x0,x0,0	  x0:0x00000000
       67675000	      6766	80005e04	286f7913	andi	x18,x30,646	 x30:0xfffff9a1 x18=0x00000080
       67685000	      6767	80005e08	011a2633	slt	x12,x20,x17	 x20:0x06f8a800 x17:0x00000001 x12=0x00000000
       67695000	      6768	80005e0c	0085e263	bltu	x11,x8,80005e10	 x11:0x80009fc4  x8:0x00000001
       67705000	      6769	80005e10	40b3dd93	srai	x27,x7,0xb	  x7:0x00000080 x27=0x00000000
       67715000	      6770	80005e14	0086c463	blt	x13,x8,80005e1c	 x13:0x00ac16b1  x8:0x00000001
       67725000	      6771	80005e18	04660663	beq	x12,x6,80005e64	 x12:0x00000000  x6:0x1df07000
       67735000	      6772	80005e1c	01e46633	or	x12,x8,x30	  x8:0x00000001 x30:0xfffff9a1 x12=0xfffff9a1
       67745000	      6773	80005e20	b377ad37	lui	x26,0xb377a	 x26=0xb377a000
       67755000	      6774	80005e24	01ecb6b3	sltu	x13,x25,x30	 x25:0xffffffb2 x30:0xfffff9a1 x13=0x00000000
       67765000	      6775	80005e28	00000013	addi	x0,x0,0	  x0:0x00000000
       67775000	      6776	80005e2c	00eccf33	xor	x30,x25,x14	 x25:0xffffffb2 x14:0xb46fdf20 x30=0x4b902092
       67785000	      6777	80005e30	204bf493	andi	x9,x23,516	 x23:0x0000000d  x9=0x00000004
       67795000	      6778	80005e34	01316933	or	x18,x2,x19	  x2:0x00000001 x19:0x00000032 x18=0x00000033
       67805000	      6779	80005e38	001d8663	beq	x27,x1,80005e44	 x27:0x00000000  x1:0x80008720
       67815000	      6780	80005e3c	01d6b0b3	sltu	x1,x13,x29	 x13:0x00000000 x29:0x72df158d  x1=0x00000001
       67825000	      6781	80005e40	131b2cb7	lui	x25,0x131b2	 x25=0x131b2000
       67835000	      6782	80005e44	1b610e97	auipc	x29,0x1b610	 x29=0x9b615e40
       67845000	      6783	80005e48	4d343937	lui	x18,0x4d343	 x18=0x4d343000
       67855000	      6784	80005e4c	00b4aab3	slt	x21,x9,x11	  x9:0x00000004 x11:0x80009fc4 x21=0x00000000
       67865000	      6785	80005e50	bb021817	auipc	x16,0xbb021	 x16=0x3b026e4c
       67875000	      6786	80005e54	0e240e63	beq	x8,x2,80005f50	  x8:0x00000001  x2:0x00000001
       67885000	      6787	00000000	00000013	addi	x0,x0,0	  x0:0x00000000
       67895000	      6788	80005f4c	00000013	addi	x0,x0,0	  x0:0x00000000
       67905000	      6789	80005f50	01658e33	add	x28,x11,x22	 x11:0x80009fc4 x22:0x00000000 x28=0x80009fc4
       67915000	      6790	80005f54	01742a33	slt	x20,x8,x23	  x8:0x00000001 x23:0x0000000d x20=0x00000001
       67925000	      6791	80005f58	655e4093	xori	x1,x28,1621	 x28:0x80009fc4  x1=0x80009991
       67935000	      6792	80005f5c	00515c13	srli	x24,x2,0x5	  x2:0x00000001 x24=0x00000000
       67945000	      6793	80005f60	41595633	sra	x12,x18,x21	 x18:0x4d343000 x21:0x00000000 x12=0x4d343000
       67955000	      6794	80005f64	738b2897	auipc	x17,0x738b2	 x17=0xf38b7f60
       67965000	      6795	80005f68	00a0a4b3	slt	x9,x1,x10	  x1:0x80009991 x10:0x80009f20  x9=0x00000001
       67975000	      6796	80005f6c	41958b33	sub	x22,x11,x25	 x11:0x80009fc4 x25:0x131b2000 x22=0x6ce57fc4
       67985000	      6797	80005f70	00000013	addi	x0,x0,0	  x0:0x00000000
       67995000	      6798	80005f74	004f27b3	slt	x15,x30,x4	 x30:0x4b902092  x4:0x00000000 x15=0x00000000
       68005000	      6799	80005f78	49242013	slti	x0,x8,1170	  x8:0x00000001
       68015000	      6800	80005f7c	00af5713	srli	x14,x30,0xa	 x30:0x4b902092 x14=0x0012e408
       68025000	      6801	80005f80	03e37263	bgeu	x6,x30,80005fa4	  x6:0x1df07000 x30:0x4b902092
       68035000	      6802	80005f84	00000013	addi	x0,x0,0	  x0:0x00000000
       68045000	      6803	80005f88	000ebeb3	sltu	x29,x29,x0	 x29:0x9b615e40  x0:0x00000000 x29=0x00000000
       68055000	      6804	80005f8c	f1696f37	lui	x30,0xf1696	 x30=0xf1696000
       68065000	      6805	80005f90	00b5d4b3	srl	x9,x11,x11	 x11:0x80009fc4 x11:0x80009fc4  x9=0x080009fc
       68075000	      6806	80005f94	0030d693	srli	x13,x1,0x3	  x1:0x80009991 x13=0x10001332
       68085000	      6807	80005f98	009ee4b3	or	x9,x29,x9	 x29:0x00000000  x9:0x080009fc  x9=0x080009fc
       68095000	      6808	80005f9c	256c2b13	slti	x22,x24,598	 x24:0x00000000 x22=0x00000001
       68105000	      6809	80005fa0	99182213	slti	x4,x16,-1647	 x16:0x3b026e4c  x4=0x00000000
       68115000	      6810	80005fa4	00398db3	add	x27,x19,x3	 x19:0x00000032  x3:0x346f3d90 x27=0x346f3dc2
       68125000	      6811	80005fa8	aff62293	slti	x5,x12,-1281	 x12:0x4d343000  x5=0x00000000
       68135000	      6812	80005fac	010f56b3	srl	x13,x30,x16	 x30:0xf1696000 x16:0x3b026e4c x13=0x000f1696
       68145000	      6813	80005fb0	6e2a58b7	lui	x17,0x6e2a5	 x17=0x6e2a5000
       68155000	      6814	80005fb4	041d9863	bne	x27,x1,80006004	 x27:0x346f3dc2  x1:0x80009991
       68165000	      6815	00000000	00000013	addi	x0,x0,0	  x0:0x00000000
       68175000	      6816	80006000	00000013	addi	x0,x0,0	  x0:0x00000000
       68185000	      6817	80006004	41095613	srai	x12,x18,0x10	 x18:0x4d343000 x12=0x00004d34
       68195000	      6818	80006008	8f39fc13	andi	x24,x19,-1805	 x19:0x00000032 x24=0x00000032
       68205000	      6819	8000600c	01156f33	or	x30,x10,x17	 x10:0x80009f20 x17:0x6e2a5000 x30=0xee2adf20
       68215000	      6820	80006010	0011df13	srli	x30,x3,0x1	  x3:0x346f3d90 x30=0x1a379ec8
       68225000	      6821	80006014	1d0d4a13	xori	x20,x26,464	 x26:0xb377a000 x20=0xb377a1d0
       68235000	      6822	80006018	01504d33	xor	x26,x0,x21	  x0:0x00000000 x21:0x00000000 x26=0x00000000
       68245000	      6823	8000601c	40f9d8b3	sra	x17,x19,x15	 x19:0x00000032 x15:0x00000000 x17=0x00000032
       68255000	      6824	80006020	0174df93	srli	x31,x9,0x17	  x9:0x080009fc x31=0x00000010
       68265000	      6825	80006024	0450c463	blt	x1,x5,8000606c	  x1:0x80009991  x5:0x00000000
       68275000	      6826	00000000	00000013	addi	x0,x0,0	  x0:0x00000000
       68285000	      6827	80006068	00000013	addi	x0,x0,0	  x0:0x00000000
       68295000	      6828	8000606c	86b33493	sltiu	x9,x6,-1941	  x6:0x1df07000  x9=0x00000001
       68305000	      6829	80006070	00000013	addi	x0,x0,0	  x0:0x00000000
       68315000	      6830	80006074	02ac6e63	bltu	x24,x10,800060b0	 x24:0x00000032 x10:0x80009f20
       68325000	      6831	00000000	00000013	addi	x0,x0,0	  x0:0x00000000
       68335000	      6832	800060ac	00000013	addi	x0,x0,0	  x0:0x00000000
       68345000	      6833	800060b0	5e316a13	ori	x20,x2,1507	  x2:0x00000001 x20=0x000005e3
       68355000	      6834	800060b4	00fa4c93	xori	x25,x20,15	 x20:0x000005e3 x25=0x000005ec
       68365000	      6835	800060b8	012cadb3	slt	x27,x25,x18	 x25:0x000005ec x18:0x4d343000 x27=0x00000001
       68375000	      6836	800060bc	f595e317	auipc	x6,0xf595e	  x6=0x759640b8
       68385000	      6837	800060c0	99a80893	addi	x17,x16,-1638	 x16:0x3b026e4c x17=0x3b0267e6
       68395000	      6838	800060c4	4f4eb097	auipc	x1,0x4f4eb	  x1=0xcf4f10c0
       68405000	      6839	800060c8	1a5a7c13	andi	x24,x20,421	 x20:0x000005e3 x24=0x000001a1
       68415000	      6840	800060cc	04657663	bgeu	x10,x6,80006118	 x10:0x80009f20  x6:0x759640b8
       68425000	      6841	00000000	00000013	addi	x0,x0,0	  x0:0x00000000
       68435000	      6842	80006114	00000013	addi	x0,x0,0	  x0:0x00000000
       68445000	      6843	80006118	00000013	addi	x0,x0,0	  x0:0x00000000
       68455000	      6844	8000611c	fcfc3793	sltiu	x15,x24,-49	 x24:0x000001a1 x15=0x00000001
       68465000	      6845	80006120	08eacf13	xori	x30,x21,142	 x21:0x00000000 x30=0x0000008e
       68475000	      6846	80006124	b907ec93	ori	x25,x15,-1136	 x15:0x00000001 x25=0xfffffb91
       68485000	      6847	80006128	06650db7	lui	x27,0x6650	 x27=0x06650000
       68495000	      6848	8000612c	017060b3	or	x1,x0,x23	  x0:0x00000000 x23:0x0000000d  x1=0x0000000d
       68505000	      6849	80006130	415cd333	sra	x6,x25,x21	 x25:0xfffffb91 x21:0x00000000  x6=0xfffffb91
       68515000	      6850	80006134	011ee133	or	x2,x29,x17	 x29:0x00000000 x17:0x3b0267e6  x2=0x3b0267e6
       68525000	      6851	80006138	fcc4b497	auipc	x9,0xfcc4b	  x9=0x7cc51134
       68535000	      6852	8000613c	5e3ab393	sltiu	x7,x21,1507	 x21:0x00000000  x7=0x00000001
       68545000	      6853	80006140	042d9063	bne	x27,x2,80006180	 x27:0x06650000  x2:0x3b0267e6
       68555000	      6854	00000000	00000013	addi	x0,x0,0	  x0:0x00000000
       68565000	      6855	8000617c	00000013	addi	x0,x0,0	  x0:0x00000000
       68575000	      6856	80006180	007740b3	xor	x1,x14,x7	 x14:0x0012e408  x7:0x00000001  x1=0x0012e409
       68585000	      6857	80006184	402f5013	srai	x0,x30,0x2	 x30:0x0000008e
       68595000	      6858	80006188	002d2a33	slt	x20,x26,x2	 x26:0x00000000  x2:0x3b0267e6 x20=0x00000001
       68605000	      6859	8000618c	37853d93	sltiu	x27,x10,888	 x10:0x80009f20 x27=0x00000000
       68615000	      6860	80006190	01815a13	srli	x20,x2,0x18	  x2:0x3b0267e6 x20=0x0000003b
       68625000	      6861	80006194	069b1c63	bne	x22,x9,8000620c	 x22:0x00000001  x9:0x7cc51134
       68635000	      6862	00000000	00000013	addi	x0,x0,0	  x0:0x00000000
       68645000	      6863	80006208	00000013	addi	x0,x0,0	  x0:0x00000000
       68655000	      6864	8000620c	02356463	bltu	x10,x3,80006234	 x10:0x80009f20  x3:0x346f3d90
       68665000	      6865	80006210	40ca00b3	sub	x1,x20,x12	 x20:0x0000003b x12:0x00004d34  x1=0xffffb307
       68675000	      6866	80006214	001f6c63	bltu	x30,x1,8000622c	 x30:0x0000008e  x1:0xffffb307
       68685000	      6867	00000000	00000013	addi	x0,x0,0	  x0:0x00000000
       68695000	      6868	80006228	00000013	addi	x0,x0,0	  x0:0x00000000
       68705000	      6869	8000622c	01384d33	xor	x26,x16,x19	 x16:0x3b026e4c x19:0x00000032 x26=0x3b026e7e
       68715000	      6870	80006230	007506b3	add	x13,x10,x7	 x10:0x80009f20  x7:0x00000001 x13=0x80009f21
       68725000	      6871	80006234	00000013	addi	x0,x0,0	  x0:0x00000000
       68735000	      6872	80006238	00742433	slt	x8,x8,x7	  x8:0x00000001  x7:0x00000001  x8=0x00000000
       68745000	      6873	8000623c	00019613	slli	x12,x3,0x0	  x3:0x346f3d90 x12=0x346f3d90
       68755000	      6874	80006240	001c1233	sll	x4,x24,x1	 x24:0x000001a1  x1:0xffffb307  x4=0x0000d080
       68765000	      6875	80006244	00000013	addi	x0,x0,0	  x0:0x00000000
       68775000	      6876	80006248	80c3de37	lui	x28,0x80c3d	 x28=0x80c3d000
       68785000	      6877	8000624c	0239ce63	blt	x19,x3,80006288	 x19:0x00000032  x3:0x346f3d90
       68795000	      6878	00000000	00000013	addi	x0,x0,0	  x0:0x00000000
       68805000	      6879	80006284	00000013	addi	x0,x0,0	  x0:0x00000000
       68815000	      6880	80006288	02048e63	beq	x9,x0,800062c4	  x9:0x7cc51134  x0:0x00000000
       68825000	      6881	8000628c	40935fb3	sra	x31,x6,x9	  x6:0xfffffb91  x9:0x7cc51134 x31=0xffffffff
       68835000	      6882	80006290	0171d913	srli	x18,x3,0x17	  x3:0x346f3d90 x18=0x00000068
       68845000	      6883	80006294	40f8d233	sra	x4,x17,x15	 x17:0x3b0267e6 x15:0x00000001  x4=0x1d8133f3
       68855000	      6884	80006298	00601fb3	sll	x31,x0,x6	  x0:0x00000000  x6:0xfffffb91 x31=0x00000000
       68865000	      6885	8000629c	08df6693	ori	x13,x30,141	 x30:0x0000008e x13=0x0000008f
       68875000	      6886	800062a0	3f5ec493	xori	x9,x29,1013	 x29:0x00000000  x9=0x000003f5
       68885000	      6887	800062a4	00459633	sll	x12,x11,x4	 x11:0x80009fc4  x4:0x1d8133f3 x12=0xfe200000
       68895000	      6888	800062a8	028a4263	blt	x20,x8,800062cc	 x20:0x0000003b  x8:0x00000000
       68905000	      6889	800062ac	40ad0733	sub	x14,x26,x10	 x26:0x3b026e7e x10:0x80009f20 x14=0xbb01cf5e
       68915000	      6890	800062b0	0156ccb3	xor	x25,x13,x21	 x13:0x0000008f x21:0x00000000 x25=0x0000008f
       68925000	      6891	800062b4	0510f463	bgeu	x1,x17,800062fc	  x1:0xffffb307 x17:0x3b0267e6
       68935000	      6892	00000000	00000013	addi	x0,x0,0	  x0:0x00000000
       68945000	      6893	800062f8	00000013	addi	x0,x0,0	  x0:0x00000000
       68955000	      6894	800062fc	03200663	beq	x0,x18,80006328	  x0:0x00000000 x18:0x00000068
       68965000	      6895	80006300	4e886713	ori	x14,x16,1256	 x16:0x3b026e4c x14=0x3b026eec
       68975000	      6896	80006304	0274c263	blt	x9,x7,80006328	  x9:0x000003f5  x7:0x00000001
       68985000	      6897	80006308	03848463	beq	x9,x24,80006330	  x9:0x000003f5 x24:0x000001a1
       68995000	      6898	8000630c	015aaab3	slt	x21,x21,x21	 x21:0x00000000 x21:0x00000000 x21=0x00000000
       69005000	      6899	80006310	00506333	or	x6,x0,x5	  x0:0x00000000  x5:0x00000000  x6=0x00000000
       69015000	      6900	80006314	007c88b3	add	x17,x25,x7	 x25:0x0000008f  x7:0x00000001 x17=0x00000090
       69025000	      6901	80006318	001b8463	beq	x23,x1,80006320	 x23:0x0000000d  x1:0xffffb307
       69035000	      6902	8000631c	01adfc63	bgeu	x27,x26,80006334	 x27:0x00000000 x26:0x3b026e7e
       69045000	      6903	80006320	798a4f93	xori	x31,x20,1944	 x20:0x0000003b x31=0x000007a3
       69055000	      6904	80006324	00cb67b3	or	x15,x22,x12	 x22:0x00000001 x12:0xfe200000 x15=0xfe200001
       69065000	      6905	80006328	011016b3	sll	x13,x0,x17	  x0:0x00000000 x17:0x00000090 x13=0x00000000
       69075000	      6906	8000632c	005f79b3	and	x19,x30,x5	 x30:0x0000008e  x5:0x00000000 x19=0x00000000
       69085000	      6907	80006330	00576c63	bltu	x14,x5,80006348	 x14:0x3b026eec  x5:0x00000000
       69095000	      6908	80006334	2b7aac13	slti	x24,x21,695	 x21:0x00000000 x24=0x00000001
       69105000	      6909	80006338	6f0fc3b7	lui	x7,0x6f0fc	  x7=0x6f0fc000
       69115000	      6910	8000633c	af87ac37	lui	x24,0xaf87a	 x24=0xaf87a000
       69125000	      6911	80006340	05641463	bne	x8,x22,80006388	  x8:0x00000000 x22:0x00000001
       69135000	      6912	00000000	00000013	addi	x0,x0,0	  x0:0x00000000
       69145000	      6913	80006384	00000013	addi	x0,x0,0	  x0:0x00000000
       69155000	      6914	80006388	01ab5ab3	srl	x21,x22,x26	 x22:0x00000001 x26:0x3b026e7e x21=0x00000000
       69165000	      6915	8000638c	00a6ed33	or	x26,x13,x10	 x13:0x00000000 x10:0x80009f20 x26=0x80009f20
       69175000	      6916	80006390	cb89af13	slti	x30,x19,-840	 x19:0x00000000 x30=0x00000000
       69185000	      6917	80006394	009683b3	add	x7,x13,x9	 x13:0x00000000  x9:0x000003f5  x7=0x000003f5
       69195000	      6918	80006398	d68a6413	ori	x8,x20,-664	 x20:0x0000003b  x8=0xfffffd7b
       69205000	      6919	8000639c	018f41b3	xor	x3,x30,x24	 x30:0x00000000 x24:0xaf87a000  x3=0xaf87a000
       69215000	      6920	800063a0	047cd463	bge	x25,x7,800063e8	 x25:0x0000008f  x7:0x000003f5
       69225000	      6921	800063a4	7e40ff97	auipc	x31,0x7e40f	 x31=0xfe4153a0
       69235000	      6922	800063a8	01945393	srli	x7,x8,0x19	  x8:0xfffffd7b  x7=0x0000007f
       69245000	      6923	800063ac	e2dd4493	xori	x9,x26,-467	 x26:0x80009f20  x9=0x7fff610d
       69255000	      6924	800063b0	01850e33	add	x28,x10,x24	 x10:0x80009f20 x24:0xaf87a000 x28=0x2f883f20
       69265000	      6925	800063b4	01b46c63	bltu	x8,x27,800063cc	  x8:0xfffffd7b x27:0x00000000
       69275000	      6926	800063b8	45018713	addi	x14,x3,1104	  x3:0xaf87a000 x14=0xaf87a450
       69285000	      6927	800063bc	9098bb37	lui	x22,0x9098b	 x22=0x9098b000
       69295000	      6928	800063c0	01049e13	slli	x28,x9,0x10	  x9:0x7fff610d x28=0x610d0000
       69305000	      6929	800063c4	01275a13	srli	x20,x14,0x12	 x14:0xaf87a450 x20=0x00002be1
       69315000	      6930	800063c8	404cd933	sra	x18,x25,x4	 x25:0x0000008f  x4:0x1d8133f3 x18=0x00000000
       69325000	      6931	800063cc	002b3fb3	sltu	x31,x22,x2	 x22:0x9098b000  x2:0x3b0267e6 x31=0x00000000
       69335000	      6932	800063d0	00241813	slli	x16,x8,0x2	  x8:0xfffffd7b x16=0xfffff5ec
       69345000	      6933	800063d4	00756633	or	x12,x10,x7	 x10:0x80009f20  x7:0x0000007f x12=0x80009f7f
       69355000	      6934	800063d8	eff88793	addi	x15,x17,-257	 x17:0x00000090 x15=0xffffff8f
       69365000	      6935	800063dc	0182d013	srli	x0,x5,0x18	  x5:0x00000000
       69375000	      6936	800063e0	03bc1863	bne	x24,x27,80006410	 x24:0xaf87a000 x27:0x00000000
       69385000	      6937	00000000	00000013	addi	x0,x0,0	  x0:0x00000000
       69395000	      6938	8000640c	00000013	addi	x0,x0,0	  x0:0x00000000
       69405000	      6939	80006410	01c70233	add	x4,x14,x28	 x14:0xaf87a450 x28:0x610d0000  x4=0x1094a450
       69415000	      6940	80006414	02920063	beq	x4,x9,80006434	  x4:0x1094a450  x9:0x7fff610d
       69425000	      6941	80006418	0145e1b3	or	x3,x11,x20	 x11:0x80009fc4 x20:0x00002be1  x3=0x8000bfe5
       69435000	      6942	8000641c	00000013	addi	x0,x0,0	  x0:0x00000000
       69445000	      6943	80006420	00d95893	srli	x17,x18,0xd	 x18:0x00000000 x17=0x00000000
       69455000	      6944	80006424	1d622017	auipc	x0,0x1d622	
       69465000	      6945	80006428	158ec213	xori	x4,x29,344	 x29:0x00000000  x4=0x00000158
       69475000	      6946	8000642c	00044333	xor	x6,x8,x0	  x8:0xfffffd7b  x0:0x00000000  x6=0xfffffd7b
       69485000	      6947	80006430	01929f13	slli	x30,x5,0x19	  x5:0x00000000 x30=0x00000000
       69495000	      6948	80006434	01969793	slli	x15,x13,0x19	 x13:0x00000000 x15=0x00000000
       69505000	      6949	80006438	03fd8463	beq	x27,x31,80006460	 x27:0x00000000 x31:0x00000000
       69515000	      6950	00000000	00000013	addi	x0,x0,0	  x0:0x00000000
       69525000	      6951	8000645c	00000013	addi	x0,x0,0	  x0:0x00000000
       69535000	      6952	80006460	0054da13	srli	x20,x9,0x5	  x9:0x7fff610d x20=0x03fffb08
       69545000	      6953	80006464	03571263	bne	x14,x21,80006488	 x14:0xaf87a450 x21:0x00000000
       69555000	      6954	00000000	00000013	addi	x0,x0,0	  x0:0x00000000
       69565000	      6955	80006484	00000013	addi	x0,x0,0	  x0:0x00000000
       69575000	      6956	80006488	01352b33	slt	x22,x10,x19	 x10:0x80009f20 x19:0x00000000 x22=0x00000001
       69585000	      6957	8000648c	010268b3	or	x17,x4,x16	  x4:0x00000158 x16:0xfffff5ec x17=0xfffff5fc
       69595000	      6958	80006490	01f18f33	add	x30,x3,x31	  x3:0x8000bfe5 x31:0x00000000 x30=0x8000bfe5
       69605000	      6959	80006494	41d15113	srai	x2,x2,0x1d	  x2:0x3b0267e6  x2=0x00000001
       69615000	      6960	80006498	be463317	auipc	x6,0xbe463	  x6=0x3e469494
       69625000	      6961	8000649c	003c94b3	sll	x9,x25,x3	 x25:0x0000008f  x3:0x8000bfe5  x9=0x000011e0
       69635000	      6962	800064a0	417e8ab3	sub	x21,x29,x23	 x29:0x00000000 x23:0x0000000d x21=0xfffffff3
       69645000	      6963	800064a4	019163b3	or	x7,x2,x25	  x2:0x00000001 x25:0x0000008f  x7=0x0000008f
       69655000	      6964	800064a8	8d8de713	ori	x14,x27,-1832	 x27:0x00000000 x14=0xfffff8d8
       69665000	      6965	800064ac	014d4933	xor	x18,x26,x20	 x26:0x80009f20 x20:0x03fffb08 x18=0x83ff6428
       69675000	      6966	800064b0	c50c7613	andi	x12,x24,-944	 x24:0xaf87a000 x12=0xaf87a000
       69685000	      6967	800064b4	38575e17	auipc	x28,0x38575	 x28=0xb857b4b0
       69695000	      6968	800064b8	413656b3	sra	x13,x12,x19	 x12:0xaf87a000 x19:0x00000000 x13=0xaf87a000
       69705000	      6969	800064bc	0065acb3	slt	x25,x11,x6	 x11:0x80009fc4  x6:0x3e469494 x25=0x00000001
       69715000	      6970	800064c0	40c00db3	sub	x27,x0,x12	  x0:0x00000000 x12:0xaf87a000 x27=0x50786000
       69725000	      6971	800064c4	004b18b3	sll	x17,x22,x4	 x22:0x00000001  x4:0x00000158 x17=0x01000000
       69735000	      6972	800064c8	00000013	addi	x0,x0,0	  x0:0x00000000
       69745000	      6973	800064cc	1154b313	sltiu	x6,x9,277	  x9:0x000011e0  x6=0x00000000
       69755000	      6974	800064d0	013e3133	sltu	x2,x28,x19	 x28:0xb857b4b0 x19:0x00000000  x2=0x00000000
       69765000	      6975	800064d4	00855e63	bge	x10,x8,800064f0	 x10:0x80009f20  x8:0xfffffd7b
       69775000	      6976	800064d8	00c85613	srli	x12,x16,0xc	 x16:0xfffff5ec x12=0x000fffff
       69785000	      6977	800064dc	00b3cb33	xor	x22,x7,x11	  x7:0x0000008f x11:0x80009fc4 x22=0x80009f4b
       69795000	      6978	800064e0	410986b3	sub	x13,x19,x16	 x19:0x00000000 x16:0xfffff5ec x13=0x00000a14
       69805000	      6979	800064e4	00e58c33	add	x24,x11,x14	 x11:0x80009fc4 x14:0xfffff8d8 x24=0x8000989c
       69815000	      6980	800064e8	02e16e63	bltu	x2,x14,80006524	  x2:0x00000000 x14:0xfffff8d8
       69825000	      6981	00000000	00000013	addi	x0,x0,0	  x0:0x00000000
       69835000	      6982	80006520	00000013	addi	x0,x0,0	  x0:0x00000000
       69845000	      6983	80006524	01585193	srli	x3,x16,0x15	 x16:0xfffff5ec  x3=0x000007ff
       69855000	      6984	80006528	010257b3	srl	x15,x4,x16	  x4:0x00000158 x16:0xfffff5ec x15=0x00000000
       69865000	      6985	8000652c	41db5313	srai	x6,x22,0x1d	 x22:0x80009f4b  x6=0xfffffffc
       69875000	      6986	80006530	0167a833	slt	x16,x15,x22	 x15:0x00000000 x22:0x80009f4b x16=0x00000000
       69885000	      6987	80006534	01b350b3	srl	x1,x6,x27	  x6:0xfffffffc x27:0x50786000  x1=0xfffffffc
       69895000	      6988	80006538	cc892337	lui	x6,0xcc892	  x6=0xcc892000
       69905000	      6989	8000653c	00681033	sll	x0,x16,x6	 x16:0x00000000  x6:0xcc892000
       69915000	      6990	80006540	00fd5193	srli	x3,x26,0xf	 x26:0x80009f20  x3=0x00010001
       69925000	      6991	80006544	41dbdcb3	sra	x25,x23,x29	 x23:0x0000000d x29:0x00000000 x25=0x0000000d
       69935000	      6992	80006548	0062dc63	bge	x5,x6,80006560	  x5:0x00000000  x6:0xcc892000
       69945000	      6993	00000000	00000013	addi	x0,x0,0	  x0:0x00000000
       69955000	      6994	8000655c	00000013	addi	x0,x0,0	  x0:0x00000000
       69965000	      6995	80006560	00b4dc63	bge	x9,x11,80006578	  x9:0x000011e0 x11:0x80009fc4
       69975000	      6996	00000000	00000013	addi	x0,x0,0	  x0:0x00000000
       69985000	      6997	80006574	00000013	addi	x0,x0,0	  x0:0x00000000
       69995000	      6998	80006578	00595463	bge	x18,x5,80006580	 x18:0x83ff6428  x5:0x00000000
       70005000	      6999	8000657c	01e6dcb3	srl	x25,x13,x30	 x13:0x00000a14 x30:0x8000bfe5 x25=0x00000050
       70015000	      7000	80006580	415fd313	srai	x6,x31,0x15	 x31:0x00000000  x6=0x00000000
       70025000	      7001	80006584	110c1e37	lui	x28,0x110c1	 x28=0x110c1000
       70035000	      7002	80006588	a534ad93	slti	x27,x9,-1453	  x9:0x000011e0 x27=0x00000000
       70045000	      7003	8000658c	0dbffd13	andi	x26,x31,219	 x31:0x00000000 x26=0x00000000
       70055000	      7004	80006590	015f7733	and	x14,x30,x21	 x30:0x8000bfe5 x21:0xfffffff3 x14=0x8000bfe1
       70065000	      7005	80006594	41ecdf33	sra	x30,x25,x30	 x25:0x00000050 x30:0x8000bfe5 x30=0x00000002
       70075000	      7006	80006598	011c7033	and	x0,x24,x17	 x24:0x8000989c x17:0x01000000
       70085000	      7007	8000659c	018fda93	srli	x21,x31,0x18	 x31:0x00000000 x21=0x00000000
       70095000	      7008	800065a0	34b72c93	slti	x25,x14,843	 x14:0x8000bfe1 x25=0x00000001
       70105000	      7009	800065a4	02ff5863	bge	x30,x15,800065d4	 x30:0x00000002 x15:0x00000000
       70115000	      7010	00000000	00000013	addi	x0,x0,0	  x0:0x00000000
       70125000	      7011	800065d0	00000013	addi	x0,x0,0	  x0:0x00000000
       70135000	      7012	800065d4	020ee263	bltu	x29,x0,800065f8	 x29:0x00000000  x0:0x00000000
       70145000	      7013	800065d8	01398ab3	add	x21,x19,x19	 x19:0x00000000 x19:0x00000000 x21=0x00000000
       70155000	      7014	800065dc	0084a2b3	slt	x5,x9,x8	  x9:0x000011e0  x8:0xfffffd7b  x5=0x00000000
       70165000	      7015	800065e0	055be063	bltu	x23,x21,80006620	 x23:0x0000000d x21:0x00000000
       70175000	      7016	800065e4	01f921b3	slt	x3,x18,x31	 x18:0x83ff6428 x31:0x00000000  x3=0x00000001
       70185000	      7017	800065e8	ec1da993	slti	x19,x27,-319	 x27:0x00000000 x19=0x00000000
       70195000	      7018	800065ec	00bac0b3	xor	x1,x21,x11	 x21:0x00000000 x11:0x80009fc4  x1=0x80009fc4
       70205000	      7019	800065f0	00dbd893	srli	x17,x23,0xd	 x23:0x0000000d x17=0x00000000
       70215000	      7020	800065f4	04188463	beq	x17,x1,8000663c	 x17:0x00000000  x1:0x80009fc4
       70225000	      7021	800065f8	00478463	beq	x15,x4,80006600	 x15:0x00000000  x4:0x00000158
       70235000	      7022	800065fc	001d8463	beq	x27,x1,80006604	 x27:0x00000000  x1:0x80009fc4
       70245000	      7023	80006600	e5106713	ori	x14,x0,-431	  x0:0x00000000 x14=0xfffffe51
       70255000	      7024	80006604	00b19e93	slli	x29,x3,0xb	  x3:0x00000001 x29=0x00000800
       70265000	      7025	80006608	000d16b3	sll	x13,x26,x0	 x26:0x00000000  x0:0x00000000 x13=0x00000000
       70275000	      7026	8000660c	00a73833	sltu	x16,x14,x10	 x14:0xfffffe51 x10:0x80009f20 x16=0x00000000
       70285000	      7027	80006610	01fafa33	and	x20,x21,x31	 x21:0x00000000 x31:0x00000000 x20=0x00000000
       70295000	      7028	80006614	eaf2e393	ori	x7,x5,-337	  x5:0x00000000  x7=0xfffffeaf
       70305000	      7029	80006618	04797463	bgeu	x18,x7,80006660	 x18:0x83ff6428  x7:0xfffffeaf
       70315000	      7030	8000661c	02864863	blt	x12,x8,8000664c	 x12:0x000fffff  x8:0xfffffd7b
       70325000	      7031	80006620	9b8f3f37	lui	x30,0x9b8f3	 x30=0x9b8f3000
       70335000	      7032	80006624	00e1dd13	srli	x26,x3,0xe	  x3:0x00000001 x26=0x00000000
       70345000	      7033	80006628	40cbdc33	sra	x24,x23,x12	 x23:0x0000000d x12:0x000fffff x24=0x00000000
       70355000	      7034	8000662c	c771b793	sltiu	x15,x3,-905	  x3:0x00000001 x15=0x00000001
       70365000	      7035	80006630	40bfde33	sra	x28,x31,x11	 x31:0x00000000 x11:0x80009fc4 x28=0x00000000
       70375000	      7036	80006634	41615233	sra	x4,x2,x22	  x2:0x00000000 x22:0x80009f4b  x4=0x00000000
       70385000	      7037	80006638	e1758793	addi	x15,x11,-489	 x11:0x80009fc4 x15=0x80009ddb
       70395000	      7038	8000663c	1abee093	ori	x1,x29,427	 x29:0x00000800  x1=0x000009ab
       70405000	      7039	80006640	06cb6793	ori	x15,x22,108	 x22:0x80009f4b x15=0x80009f6f
       70415000	      7040	80006644	29436813	ori	x16,x6,660	  x6:0x00000000 x16=0x00000294
       70425000	      7041	80006648	40c7dcb3	sra	x25,x15,x12	 x15:0x80009f6f x12:0x000fffff x25=0xffffffff
       70435000	      7042	8000664c	00000013	addi	x0,x0,0	  x0:0x00000000
       70445000	      7043	80006650	018e5013	srli	x0,x28,0x18	 x28:0x00000000
       70455000	      7044	80006654	0022a733	slt	x14,x5,x2	  x5:0x00000000  x2:0x00000000 x14=0x00000000
       70465000	      7045	80006658	011f4c63	blt	x30,x17,80006670	 x30:0x9b8f3000 x17:0x00000000
       70475000	      7046	00000000	00000013	addi	x0,x0,0	  x0:0x00000000
       70485000	      7047	8000666c	00000013	addi	x0,x0,0	  x0:0x00000000
       70495000	      7048	80006670	00000013	addi	x0,x0,0	  x0:0x00000000
       70505000	      7049	80006674	adc02f13	slti	x30,x0,-1316	  x0:0x00000000 x30=0x00000000
       70515000	      7050	80006678	01561e63	bne	x12,x21,80006694	 x12:0x000fffff x21:0x00000000
       70525000	      7051	00000000	00000013	addi	x0,x0,0	  x0:0x00000000
       70535000	      7052	80006690	00000013	addi	x0,x0,0	  x0:0x00000000
       70545000	      7053	80006694	77068d93	addi	x27,x13,1904	 x13:0x00000000 x27=0x00000770
       70555000	      7054	80006698	40dc5ab3	sra	x21,x24,x13	 x24:0x00000000 x13:0x00000000 x21=0x00000000
       70565000	      7055	8000669c	40bdd293	srai	x5,x27,0xb	 x27:0x00000770  x5=0x00000000
       70575000	      7056	800066a0	4083de33	sra	x28,x7,x8	  x7:0xfffffeaf  x8:0xfffffd7b x28=0xffffffff
       70585000	      7057	800066a4	0122d463	bge	x5,x18,800066ac	  x5:0x00000000 x18:0x83ff6428
       70595000	      7058	00000000	00000013	addi	x0,x0,0	  x0:0x00000000
       70605000	      7059	800066a8	00000013	addi	x0,x0,0	  x0:0x00000000
       70615000	      7060	800066ac	234e8f13	addi	x30,x29,564	 x29:0x00000800 x30=0x00000a34
       70625000	      7061	800066b0	00364eb3	xor	x29,x12,x3	 x12:0x000fffff  x3:0x00000001 x29=0x000ffffe
       70635000	      7062	800066b4	01c0d6b3	srl	x13,x1,x28	  x1:0x000009ab x28:0xffffffff x13=0x00000000
       70645000	      7063	800066b8	01c054b3	srl	x9,x0,x28	  x0:0x00000000 x28:0xffffffff  x9=0x00000000
       70655000	      7064	800066bc	91e93713	sltiu	x14,x18,-1762	 x18:0x83ff6428 x14=0x00000001
       70665000	      7065	800066c0	41345a93	srai	x21,x8,0x13	  x8:0xfffffd7b x21=0xffffffff
       70675000	      7066	800066c4	00c399b3	sll	x19,x7,x12	  x7:0xfffffeaf x12:0x000fffff x19=0x80000000
       70685000	      7067	800066c8	8790fc13	andi	x24,x1,-1927	  x1:0x000009ab x24=0x00000829
       70695000	      7068	800066cc	ca152393	slti	x7,x10,-863	 x10:0x80009f20  x7=0x00000001
       70705000	      7069	800066d0	88b7b737	lui	x14,0x88b7b	 x14=0x88b7b000
       70715000	      7070	800066d4	00ac6c63	bltu	x24,x10,800066ec	 x24:0x00000829 x10:0x80009f20
       70725000	      7071	00000000	00000013	addi	x0,x0,0	  x0:0x00000000
       70735000	      7072	800066e8	00000013	addi	x0,x0,0	  x0:0x00000000
       70745000	      7073	800066ec	00cbc4b3	xor	x9,x23,x12	 x23:0x0000000d x12:0x000fffff  x9=0x000ffff2
       70755000	      7074	800066f0	405fd993	srai	x19,x31,0x5	 x31:0x00000000 x19=0x00000000
       70765000	      7075	800066f4	004f9033	sll	x0,x31,x4	 x31:0x00000000  x4:0x00000000
       70775000	      7076	800066f8	01947eb3	and	x29,x8,x25	  x8:0xfffffd7b x25:0xffffffff x29=0xfffffd7b
       70785000	      7077	800066fc	00793933	sltu	x18,x18,x7	 x18:0x83ff6428  x7:0x00000001 x18=0x00000000
       70795000	      7078	80006700	018b9c63	bne	x23,x24,80006718	 x23:0x0000000d x24:0x00000829
       70805000	      7079	00000000	00000013	addi	x0,x0,0	  x0:0x00000000
       70815000	      7080	80006714	00000013	addi	x0,x0,0	  x0:0x00000000
       70825000	      7081	80006718	41ee5c93	srai	x25,x28,0x1e	 x28:0xffffffff x25=0xffffffff
       70835000	      7082	8000671c	41be83b3	sub	x7,x29,x27	 x29:0xfffffd7b x27:0x00000770  x7=0xfffff60b
       70845000	      7083	80006720	04c77463	bgeu	x14,x12,80006768	 x14:0x88b7b000 x12:0x000fffff
       70855000	      7084	00000000	00000013	addi	x0,x0,0	  x0:0x00000000
       70865000	      7085	80006764	00000013	addi	x0,x0,0	  x0:0x00000000
       70875000	      7086	80006768	0398c863	blt	x17,x25,80006798	 x17:0x00000000 x25:0xffffffff
       70885000	      7087	8000676c	01af6c33	or	x24,x30,x26	 x30:0x00000a34 x26:0x00000000 x24=0x00000a34
       70895000	      7088	80006770	01080463	beq	x16,x16,80006778	 x16:0x00000294 x16:0x00000294
       70905000	      7089	00000000	00000013	addi	x0,x0,0	  x0:0x00000000
       70915000	      7090	80006774	00000013	addi	x0,x0,0	  x0:0x00000000
       70925000	      7091	80006778	00f35e63	bge	x6,x15,80006794	  x6:0x00000000 x15:0x80009f6f
       70935000	      7092	00000000	00000013	addi	x0,x0,0	  x0:0x00000000
       70945000	      7093	80006790	00000013	addi	x0,x0,0	  x0:0x00000000
       70955000	      7094	80006794	7e55e493	ori	x9,x11,2021	 x11:0x80009fc4  x9=0x80009fe5
       70965000	      7095	80006798	01844663	blt	x8,x24,800067a4	  x8:0xfffffd7b x24:0x00000a34
       70975000	      7096	00000000	00000013	addi	x0,x0,0	  x0:0x00000000
       70985000	      7097	800067a0	00000013	addi	x0,x0,0	  x0:0x00000000
       70995000	      7098	800067a4	004357b3	srl	x15,x6,x4	  x6:0x00000000  x4:0x00000000 x15=0x00000000
       71005000	      7099	800067a8	41e4d713	srai	x14,x9,0x1e	  x9:0x80009fe5 x14=0xfffffffe
       71015000	      7100	800067ac	41fbd0b3	sra	x1,x23,x31	 x23:0x0000000d x31:0x00000000  x1=0x0000000d
       71025000	      7101	800067b0	004f13b3	sll	x7,x30,x4	 x30:0x00000a34  x4:0x00000000  x7=0x00000a34
       71035000	      7102	800067b4	d074b337	lui	x6,0xd074b	  x6=0xd074b000
       71045000	      7103	800067b8	004064b3	or	x9,x0,x4	  x0:0x00000000  x4:0x00000000  x9=0x00000000
       71055000	      7104	800067bc	0102d133	srl	x2,x5,x16	  x5:0x00000000 x16:0x00000294  x2=0x00000000
       71065000	      7105	800067c0	2fa16f17	auipc	x30,0x2fa16	 x30=0xafa1c7bc
       71075000	      7106	800067c4	0026fd33	and	x26,x13,x2	 x13:0x00000000  x2:0x00000000 x26=0x00000000
       71085000	      7107	800067c8	40718a33	sub	x20,x3,x7	  x3:0x00000001  x7:0x00000a34 x20=0xfffff5cd
       71095000	      7108	800067cc	007132b3	sltu	x5,x2,x7	  x2:0x00000000  x7:0x00000a34  x5=0x00000001
       71105000	      7109	800067d0	aca2bf13	sltiu	x30,x5,-1334	  x5:0x00000001 x30=0x00000001
       71115000	      7110	800067d4	01b09193	slli	x3,x1,0x1b	  x1:0x0000000d  x3=0x68000000
       71125000	      7111	800067d8	0290f063	bgeu	x1,x9,800067f8	  x1:0x0000000d  x9:0x00000000
       71135000	      7112	00000000	00000013	addi	x0,x0,0	  x0:0x00000000
       71145000	      7113	800067f4	00000013	addi	x0,x0,0	  x0:0x00000000
       71155000	      7114	800067f8	fc17ddb7	lui	x27,0xfc17d	 x27=0xfc17d000
       71165000	      7115	800067fc	00b11d33	sll	x26,x2,x11	  x2:0x00000000 x11:0x80009fc4 x26=0x00000000
       71175000	      7116	80006800	01d6d233	srl	x4,x13,x29	 x13:0x00000000 x29:0xfffffd7b  x4=0x00000000
       71185000	      7117	80006804	d1a616b7	lui	x13,0xd1a61	 x13=0xd1a61000
       71195000	      7118	80006808	e809b193	sltiu	x3,x19,-384	 x19:0x00000000  x3=0x00000001
       71205000	      7119	8000680c	0327ce63	blt	x15,x18,80006848	 x15:0x00000000 x18:0x00000000
       71215000	      7120	80006810	04818063	beq	x3,x8,80006850	  x3:0x00000001  x8:0xfffffd7b
       71225000	      7121	80006814	0309d863	bge	x19,x16,80006844	 x19:0x00000000 x16:0x00000294
       71235000	      7122	80006818	05b10463	beq	x2,x27,80006860	  x2:0x00000000 x27:0xfc17d000
       71245000	      7123	8000681c	01499c63	bne	x19,x20,80006834	 x19:0x00000000 x20:0xfffff5cd
       71255000	      7124	00000000	00000013	addi	x0,x0,0	  x0:0x00000000
       71265000	      7125	80006830	00000013	addi	x0,x0,0	  x0:0x00000000
       71275000	      7126	80006834	00025913	srli	x18,x4,0x0	  x4:0x00000000 x18=0x00000000
       71285000	      7127	80006838	28cd6f13	ori	x30,x26,652	 x26:0x00000000 x30=0x0000028c
       71295000	      7128	8000683c	49223c93	sltiu	x25,x4,1170	  x4:0x00000000 x25=0x00000001
       71305000	      7129	80006840	015d8f33	add	x30,x27,x21	 x27:0xfc17d000 x21:0xffffffff x30=0xfc17cfff
       71315000	      7130	80006844	01919813	slli	x16,x3,0x19	  x3:0x00000001 x16=0x02000000
       71325000	      7131	80006848	62f7cc13	xori	x24,x15,1583	 x15:0x00000000 x24=0x0000062f
       71335000	      7132	8000684c	00b4f133	and	x2,x9,x11	  x9:0x00000000 x11:0x80009fc4  x2=0x00000000
       71345000	      7133	80006850	05f1d463	bge	x3,x31,80006898	  x3:0x00000001 x31:0x00000000
       71355000	      7134	00000000	00000013	addi	x0,x0,0	  x0:0x00000000
       71365000	      7135	80006894	00000013	addi	x0,x0,0	  x0:0x00000000
       71375000	      7136	80006898	006f8e33	add	x28,x31,x6	 x31:0x00000000  x6:0xd074b000 x28=0xd074b000
       71385000	      7137	8000689c	00ebdf93	srli	x31,x23,0xe	 x23:0x0000000d x31=0x00000000
       71395000	      7138	800068a0	02a86463	bltu	x16,x10,800068c8	 x16:0x02000000 x10:0x80009f20
       71405000	      7139	00000000	00000013	addi	x0,x0,0	  x0:0x00000000
       71415000	      7140	800068c4	00000013	addi	x0,x0,0	  x0:0x00000000
       71425000	      7141	800068c8	01071e93	slli	x29,x14,0x10	 x14:0xfffffffe x29=0xfffe0000
       71435000	      7142	800068cc	00cbd263	bge	x23,x12,800068d0	 x23:0x0000000d x12:0x000fffff
       71445000	      7143	800068d0	416352b3	sra	x5,x6,x22	  x6:0xd074b000 x22:0x80009f4b  x5=0xfffa0e96
       71455000	      7144	800068d4	9613d497	auipc	x9,0x9613d	  x9=0x161438d0
       71465000	      7145	800068d8	00ea0133	add	x2,x20,x14	 x20:0xfffff5cd x14:0xfffffffe  x2=0xfffff5cb
       71475000	      7146	800068dc	01801913	slli	x18,x0,0x18	  x0:0x00000000 x18=0x00000000
       71485000	      7147	800068e0	5e2ef637	lui	x12,0x5e2ef	 x12=0x5e2ef000
       71495000	      7148	800068e4	004dde63	bge	x27,x4,80006900	 x27:0xfc17d000  x4:0x00000000
       71505000	      7149	800068e8	012074b3	and	x9,x0,x18	  x0:0x00000000 x18:0x00000000  x9=0x00000000
       71515000	      7150	800068ec	45cca113	slti	x2,x25,1116	 x25:0x00000001  x2=0x00000001
       71525000	      7151	800068f0	d2338eb7	lui	x29,0xd2338	 x29=0xd2338000
       71535000	      7152	800068f4	01e39913	slli	x18,x7,0x1e	  x7:0x00000a34 x18=0x00000000
       71545000	      7153	800068f8	29d9e013	ori	x0,x19,669	 x19:0x00000000
       71555000	      7154	800068fc	008df7b3	and	x15,x27,x8	 x27:0xfc17d000  x8:0xfffffd7b x15=0xfc17d000
       71565000	      7155	80006900	00be5a33	srl	x20,x28,x11	 x28:0xd074b000 x11:0x80009fc4 x20=0x0d074b00
       71575000	      7156	80006904	016ac833	xor	x16,x21,x22	 x21:0xffffffff x22:0x80009f4b x16=0x7fff60b4
       71585000	      7157	80006908	01fd72b3	and	x5,x26,x31	 x26:0x00000000 x31:0x00000000  x5=0x00000000
       71595000	      7158	8000690c	00452a03	lw	x20,4(x10)	 x10:0x80009f20 x20=0x8000513c PA:0x80009f24
       71605000	      7159	80006910	00d2b633	sltu	x12,x5,x13	  x5:0x00000000 x13:0xd1a61000 x12=0x00000001
       71615000	      7160	80006914	417c0333	sub	x6,x24,x23	 x24:0x0000062f x23:0x0000000d  x6=0x00000622
       71625000	      7161	80006918	410483b3	sub	x7,x9,x16	  x9:0x00000000 x16:0x7fff60b4  x7=0x80009f4c
       71635000	      7162	8000691c	01450513	addi	x10,x10,20	 x10:0x80009f20 x10=0x80009f34
       71645000	      7163	80006920	7833c893	xori	x17,x7,1923	  x7:0x80009f4c x17=0x800098cf
       71655000	      7164	80006924	018c5d13	srli	x26,x24,0x18	 x24:0x0000062f x26=0x00000000
       71665000	      7165	80006928	01e39193	slli	x3,x7,0x1e	  x7:0x80009f4c  x3=0x00000000
       71675000	      7166	8000692c	40e48833	sub	x16,x9,x14	  x9:0x00000000 x14:0xfffffffe x16=0x00000002
       71685000	      7167	80006930	01001693	slli	x13,x0,0x10	  x0:0x00000000 x13=0x00000000
       71695000	      7168	80006934	000a0a13	addi	x20,x20,0	 x20:0x8000513c x20=0x8000513c
       71705000	      7169	80006938	000a0a67	jalr	x20,x20,0	 x20:0x8000513c x20=0x80006938
       71715000	      7170	00000000	00000013	addi	x0,x0,0	  x0:0x00000000
       71725000	      7171	8000513c	00000013	addi	x0,x0,0	  x0:0x00000000
       71735000	      7172	80005140	00004117	auipc	x2,0x4	  x2=0x8000913c
       71745000	      7173	80005144	9be10113	addi	x2,x2,-1602	  x2:0x8000913c  x2=0x80008afa
       71755000	      7174	80005148	00110783	lb	x15,1(x2)	  x2:0x80008afa x15=0x0000001c PA:0x80008afb
       71765000	      7175	8000514c	604a3c93	sltiu	x25,x20,1540	 x20:0x80006938 x25=0x00000000
       71775000	      7176	80005150	03e11703	lh	x14,62(x2)	  x2:0x80008afa x14=0x00002ad0 PA:0x80008b38
       71785000	      7177	80005154	58497913	andi	x18,x18,1412	 x18:0x00000000 x18=0x00000000
       71795000	      7178	80005158	00347d33	and	x26,x8,x3	  x8:0xfffffd7b  x3:0x00000000 x26=0x00000000
       71805000	      7179	8000515c	fd810483	lb	x9,-40(x2)	  x2:0x80008afa  x9=0x0000007b PA:0x80008ad2
       71815000	      7180	80005160	fe410f83	lb	x31,-28(x2)	  x2:0x80008afa x31=0xffffff9c PA:0x80008ade
       71825000	      7181	80005164	025105a3	sb	x5,43(x2)	  x2:0x80008afa  x5:0x00000000 PA:0x80008b25
       71835000	      7182	80005168	fc214703	lbu	x14,-62(x2)	  x2:0x80008afa x14=0x000000e6 PA:0x80008abc
       71845000	      7183	8000516c	fd514183	lbu	x3,-43(x2)	  x2:0x80008afa  x3=0x000000b5 PA:0x80008acf
       71855000	      7184	80005170	011dad33	slt	x26,x27,x17	 x27:0xfc17d000 x17:0x800098cf x26=0x00000000
       71865000	      7185	80005174	04910023	sb	x9,64(x2)	  x2:0x80008afa  x9:0x0000007b PA:0x80008b3a
       71875000	      7186	80005178	9b0f7a93	andi	x21,x30,-1616	 x30:0xfc17cfff x21=0xfc17c9b0
       71885000	      7187	8000517c	fcd10403	lb	x8,-51(x2)	  x2:0x80008afa  x8=0x00000065 PA:0x80008ac7
       71895000	      7188	80005180	00c28db3	add	x27,x5,x12	  x5:0x00000000 x12:0x00000001 x27=0x00000001
       71905000	      7189	80005184	fec11b03	lh	x22,-20(x2)	  x2:0x80008afa x22=0x00002c34 PA:0x80008ae6
       71915000	      7190	80005188	fce15b03	lhu	x22,-50(x2)	  x2:0x80008afa x22=0x00008b87 PA:0x80008ac8
       71925000	      7191	8000518c	009e1f93	slli	x31,x28,0x9	 x28:0xd074b000 x31=0xe9600000
       71935000	      7192	80005190	478b1217	auipc	x4,0x478b1	  x4=0xc78b618c
       71945000	      7193	80005194	fcc11923	sh	x12,-46(x2)	  x2:0x80008afa x12:0x00000001 PA:0x80008acc
       71955000	      7194	80005198	00000013	addi	x0,x0,0	  x0:0x00000000
       71965000	      7195	8000519c	03314c83	lbu	x25,51(x2)	  x2:0x80008afa x25=0x00000034 PA:0x80008b2d
       71975000	      7196	800051a0	0096d693	srli	x13,x13,0x9	 x13:0x00000000 x13=0x00000000
       71985000	      7197	800051a4	40cb5293	srai	x5,x22,0xc	 x22:0x00008b87  x5=0x00000008
       71995000	      7198	800051a8	03f10723	sb	x31,46(x2)	  x2:0x80008afa x31:0xe9600000 PA:0x80008b28
       72005000	      7199	800051ac	0136b3b3	sltu	x7,x13,x19	 x13:0x00000000 x19:0x00000000  x7=0x00000000
       72015000	      7200	800051b0	01abda93	srli	x21,x23,0x1a	 x23:0x0000000d x21=0x00000000
       72025000	      7201	800051b4	fc411023	sh	x4,-64(x2)	  x2:0x80008afa  x4:0xc78b618c PA:0x80008aba
       72035000	      7202	800051b8	77fd2f13	slti	x30,x26,1919	 x26:0x00000000 x30=0x00000001
       72045000	      7203	800051bc	02f10283	lb	x5,47(x2)	  x2:0x80008afa  x5=0x00000078 PA:0x80008b29
       72055000	      7204	800051c0	00bf3633	sltu	x12,x30,x11	 x30:0x00000001 x11:0x80009fc4 x12=0x00000001
       72065000	      7205	800051c4	780cca13	xori	x20,x25,1920	 x25:0x00000034 x20=0x000007b4
       72075000	      7206	800051c8	40990733	sub	x14,x18,x9	 x18:0x00000000  x9:0x0000007b x14=0xffffff85
       72085000	      7207	800051cc	007cfeb3	and	x29,x25,x7	 x25:0x00000034  x7:0x00000000 x29=0x00000000
       72095000	      7208	800051d0	300efa93	andi	x21,x29,768	 x29:0x00000000 x21=0x00000000
       72105000	      7209	800051d4	fc215983	lhu	x19,-62(x2)	  x2:0x80008afa x19=0x00005de6 PA:0x80008abc
       72115000	      7210	800051d8	67adba13	sltiu	x20,x27,1658	 x27:0x00000001 x20=0x00000001
       72125000	      7211	800051dc	0014d893	srli	x17,x9,0x1	  x9:0x0000007b x17=0x0000003d
       72135000	      7212	800051e0	002a76b3	and	x13,x20,x2	 x20:0x00000001  x2:0x80008afa x13=0x00000000
       72145000	      7213	800051e4	014edc93	srli	x25,x29,0x14	 x29:0x00000000 x25=0x00000000
       72155000	      7214	800051e8	00416333	or	x6,x2,x4	  x2:0x80008afa  x4:0xc78b618c  x6=0xc78bebfe
       72165000	      7215	800051ec	03110083	lb	x1,49(x2)	  x2:0x80008afa  x1=0x00000059 PA:0x80008b2b
       72175000	      7216	800051f0	00feec33	or	x24,x29,x15	 x29:0x00000000 x15:0x0000001c x24=0x0000001c
       72185000	      7217	800051f4	00000013	addi	x0,x0,0	  x0:0x00000000
       72195000	      7218	800051f8	98596313	ori	x6,x18,-1659	 x18:0x00000000  x6=0xfffff985
       72205000	      7219	800051fc	40325393	srai	x7,x4,0x3	  x4:0xc78b618c  x7=0xf8f16c31
       72215000	      7220	80005200	403cddb3	sra	x27,x25,x3	 x25:0x00000000  x3:0x000000b5 x27=0x00000000
       72225000	      7221	80005204	fc714183	lbu	x3,-57(x2)	  x2:0x80008afa  x3=0x000000b9 PA:0x80008ac1
       72235000	      7222	80005208	00a2ba33	sltu	x20,x5,x10	  x5:0x00000078 x10:0x80009f34 x20=0x00000001
       72245000	      7223	8000520c	00411223	sh	x4,4(x2)	  x2:0x80008afa  x4:0xc78b618c PA:0x80008afe
       72255000	      7224	80005210	03810423	sb	x24,40(x2)	  x2:0x80008afa x24:0x0000001c PA:0x80008b22
       72265000	      7225	80005214	01590033	add	x0,x18,x21	 x18:0x00000000 x21:0x00000000
       72275000	      7226	80005218	03f06e63	bltu	x0,x31,80005254	  x0:0x00000000 x31:0xe9600000
       72285000	      7227	00000000	00000013	addi	x0,x0,0	  x0:0x00000000
       72295000	      7228	80005250	00000013	addi	x0,x0,0	  x0:0x00000000
       72305000	      7229	80005254	012c27b3	slt	x15,x24,x18	 x24:0x0000001c x18:0x00000000 x15=0x00000000
       72315000	      7230	80005258	4dbe3cb7	lui	x25,0x4dbe3	 x25=0x4dbe3000
       72325000	      7231	8000525c	14328b13	addi	x22,x5,323	  x5:0x00000078 x22=0x000001bb
       72335000	      7232	80005260	00aa02b3	add	x5,x20,x10	 x20:0x00000001 x10:0x80009f34  x5=0x80009f35
       72345000	      7233	80005264	40045693	srai	x13,x8,0x0	  x8:0x00000065 x13=0x00000065
       72355000	      7234	80005268	01c26c33	or	x24,x4,x28	  x4:0xc78b618c x28:0xd074b000 x24=0xd7fff18c
       72365000	      7235	8000526c	0002f333	and	x6,x5,x0	  x5:0x80009f35  x0:0x00000000  x6=0x00000000
       72375000	      7236	80005270	01733eb3	sltu	x29,x6,x23	  x6:0x00000000 x23:0x0000000d x29=0x00000001
       72385000	      7237	80005274	02267a63	bgeu	x12,x2,800052a8	 x12:0x00000001  x2:0x80008afa
       72395000	      7238	80005278	0120fd33	and	x26,x1,x18	  x1:0x00000059 x18:0x00000000 x26=0x00000000
       72405000	      7239	8000527c	00b92633	slt	x12,x18,x11	 x18:0x00000000 x11:0x80009fc4 x12=0x00000000
       72415000	      7240	80005280	01a7a733	slt	x14,x15,x26	 x15:0x00000000 x26:0x00000000 x14=0x00000000
       72425000	      7241	80005284	00640463	beq	x8,x6,8000528c	  x8:0x00000065  x6:0x00000000
       72435000	      7242	80005288	7f8e8493	addi	x9,x29,2040	 x29:0x00000001  x9=0x000007f9
       72445000	      7243	8000528c	feac7a13	andi	x20,x24,-22	 x24:0xd7fff18c x20=0xd7fff188
       72455000	      7244	80005290	00618b33	add	x22,x3,x6	  x3:0x000000b9  x6:0x00000000 x22=0x000000b9
       72465000	      7245	80005294	f1dbe213	ori	x4,x23,-227	 x23:0x0000000d  x4=0xffffff1d
       72475000	      7246	80005298	418584b3	sub	x9,x11,x24	 x11:0x80009fc4 x24:0xd7fff18c  x9=0xa800ae38
       72485000	      7247	8000529c	70904993	xori	x19,x0,1801	  x0:0x00000000 x19=0x00000709
       72495000	      7248	800052a0	00da7a63	bgeu	x20,x13,800052b4	 x20:0xd7fff188 x13:0x00000065
       72505000	      7249	00000000	00000013	addi	x0,x0,0	  x0:0x00000000
       72515000	      7250	800052b0	00000013	addi	x0,x0,0	  x0:0x00000000
       72525000	      7251	800052b4	018bbf33	sltu	x30,x23,x24	 x23:0x0000000d x24:0xd7fff18c x30=0x00000001
       72535000	      7252	800052b8	002424b3	slt	x9,x8,x2	  x8:0x00000065  x2:0x80008afa  x9=0x00000000
       72545000	      7253	800052bc	0017da33	srl	x20,x15,x1	 x15:0x00000000  x1:0x00000059 x20=0x00000000
       72555000	      7254	800052c0	075afe63	bgeu	x21,x21,8000533c	 x21:0x00000000 x21:0x00000000
       72565000	      7255	00000000	00000013	addi	x0,x0,0	  x0:0x00000000
       72575000	      7256	80005338	00000013	addi	x0,x0,0	  x0:0x00000000
       72585000	      7257	8000533c	a9553b13	sltiu	x22,x10,-1387	 x10:0x80009f34 x22=0x00000001
       72595000	      7258	80005340	027af863	bgeu	x21,x7,80005370	 x21:0x00000000  x7:0xf8f16c31
       72605000	      7259	80005344	02608c63	beq	x1,x6,8000537c	  x1:0x00000059  x6:0x00000000
       72615000	      7260	80005348	004fcc63	blt	x31,x4,80005360	 x31:0xe9600000  x4:0xffffff1d
       72625000	      7261	00000000	00000013	addi	x0,x0,0	  x0:0x00000000
       72635000	      7262	8000535c	00000013	addi	x0,x0,0	  x0:0x00000000
       72645000	      7263	80005360	5fa5b213	sltiu	x4,x11,1530	 x11:0x80009fc4  x4=0x00000000
       72655000	      7264	80005364	01bb9393	slli	x7,x23,0x1b	 x23:0x0000000d  x7=0x68000000
       72665000	      7265	80005368	001b2f33	slt	x30,x22,x1	 x22:0x00000001  x1:0x00000059 x30=0x00000001
       72675000	      7266	8000536c	048f1263	bne	x30,x8,800053b0	 x30:0x00000001  x8:0x00000065
       72685000	      7267	00000000	00000013	addi	x0,x0,0	  x0:0x00000000
       72695000	      7268	800053ac	00000013	addi	x0,x0,0	  x0:0x00000000
       72705000	      7269	800053b0	b065f813	andi	x16,x11,-1274	 x11:0x80009fc4 x16=0x80009b04
       72715000	      7270	800053b4	01fe93b3	sll	x7,x29,x31	 x29:0x00000001 x31:0xe9600000  x7=0x00000001
       72725000	      7271	800053b8	00fc0c63	beq	x24,x15,800053d0	 x24:0xd7fff18c x15:0x00000000
       72735000	      7272	800053bc	41e4d1b3	sra	x3,x9,x30	  x9:0x00000000 x30:0x00000001  x3=0x00000000
       72745000	      7273	800053c0	0259f263	bgeu	x19,x5,800053e4	 x19:0x00000709  x5:0x80009f35
       72755000	      7274	800053c4	ce64cf13	xori	x30,x9,-794	  x9:0x00000000 x30=0xfffffce6
       72765000	      7275	800053c8	c4d2fe13	andi	x28,x5,-947	  x5:0x80009f35 x28=0x80009c05
       72775000	      7276	800053cc	3e99a113	slti	x2,x19,1001	 x19:0x00000709  x2=0x00000000
       72785000	      7277	800053d0	016433b3	sltu	x7,x8,x22	  x8:0x00000065 x22:0x00000001  x7=0x00000000
       72795000	      7278	800053d4	03b3f263	bgeu	x7,x27,800053f8	  x7:0x00000000 x27:0x00000000
       72805000	      7279	00000000	00000013	addi	x0,x0,0	  x0:0x00000000
       72815000	      7280	800053f4	00000013	addi	x0,x0,0	  x0:0x00000000
       72825000	      7281	800053f8	04a99463	bne	x19,x10,80005440	 x19:0x00000709 x10:0x80009f34
       72835000	      7282	00000000	00000013	addi	x0,x0,0	  x0:0x00000000
       72845000	      7283	8000543c	00000013	addi	x0,x0,0	  x0:0x00000000
       72855000	      7284	80005440	72d24c97	auipc	x25,0x72d24	 x25=0xf2d2943c
       72865000	      7285	80005444	6f22ac17	auipc	x24,0x6f22a	 x24=0xef22f440
       72875000	      7286	80005448	403e0ab3	sub	x21,x28,x3	 x28:0x80009c05  x3:0x00000000 x21=0x80009c05
       72885000	      7287	8000544c	01d96eb3	or	x29,x18,x29	 x18:0x00000000 x29:0x00000001 x29=0x00000001
       72895000	      7288	80005450	01b92333	slt	x6,x18,x27	 x18:0x00000000 x27:0x00000000  x6=0x00000000
       72905000	      7289	80005454	41d35a13	srai	x20,x6,0x1d	  x6:0x00000000 x20=0x00000000
       72915000	      7290	80005458	7a7d3197	auipc	x3,0x7a7d3	  x3=0xfa7d8454
       72925000	      7291	8000545c	04ec9263	bne	x25,x14,800054a0	 x25:0xf2d2943c x14:0x00000000
       72935000	      7292	00000000	00000013	addi	x0,x0,0	  x0:0x00000000
       72945000	      7293	8000549c	00000013	addi	x0,x0,0	  x0:0x00000000
       72955000	      7294	800054a0	01384ab3	xor	x21,x16,x19	 x16:0x80009b04 x19:0x00000709 x21=0x80009c0d
       72965000	      7295	800054a4	0269d463	bge	x19,x6,800054cc	 x19:0x00000709  x6:0x00000000
       72975000	      7296	00000000	00000013	addi	x0,x0,0	  x0:0x00000000
       72985000	      7297	800054c8	00000013	addi	x0,x0,0	  x0:0x00000000
       72995000	      7298	800054cc	00d4c7b3	xor	x15,x9,x13	  x9:0x00000000 x13:0x00000065 x15=0x00000065
       73005000	      7299	800054d0	03f39e63	bne	x7,x31,8000550c	  x7:0x00000000 x31:0xe9600000
       73015000	      7300	00000000	00000013	addi	x0,x0,0	  x0:0x00000000
       73025000	      7301	80005508	00000013	addi	x0,x0,0	  x0:0x00000000
       73035000	      7302	8000550c	005e4663	blt	x28,x5,80005518	 x28:0x80009c05  x5:0x80009f35
       73045000	      7303	00000000	00000013	addi	x0,x0,0	  x0:0x00000000
       73055000	      7304	80005514	00000013	addi	x0,x0,0	  x0:0x00000000
       73065000	      7305	80005518	cf35ca13	xori	x20,x11,-781	 x11:0x80009fc4 x20=0x7fff6337
       73075000	      7306	8000551c	01cc3233	sltu	x4,x24,x28	 x24:0xef22f440 x28:0x80009c05  x4=0x00000000
       73085000	      7307	80005520	0576f493	andi	x9,x13,87	 x13:0x00000065  x9=0x00000045
       73095000	      7308	80005524	415f0033	sub	x0,x30,x21	 x30:0xfffffce6 x21:0x80009c0d
       73105000	      7309	80005528	9dd06d93	ori	x27,x0,-1571	  x0:0x00000000 x27=0xfffff9dd
       73115000	      7310	8000552c	0038dd13	srli	x26,x17,0x3	 x17:0x0000003d x26=0x00000007
       73125000	      7311	80005530	40e68c33	sub	x24,x13,x14	 x13:0x00000065 x14:0x00000000 x24=0x00000065
       73135000	      7312	80005534	002bf9b3	and	x19,x23,x2	 x23:0x0000000d  x2:0x00000000 x19=0x00000000
       73145000	      7313	80005538	0187d7b3	srl	x15,x15,x24	 x15:0x00000065 x24:0x00000065 x15=0x00000003
       73155000	      7314	8000553c	73972f13	slti	x30,x14,1849	 x14:0x00000000 x30=0x00000001
       73165000	      7315	80005540	018138b3	sltu	x17,x2,x24	  x2:0x00000000 x24:0x00000065 x17=0x00000001
       73175000	      7316	80005544	00a0dc63	bge	x1,x10,8000555c	  x1:0x00000059 x10:0x80009f34
       73185000	      7317	00000000	00000013	addi	x0,x0,0	  x0:0x00000000
       73195000	      7318	80005558	00000013	addi	x0,x0,0	  x0:0x00000000
       73205000	      7319	8000555c	be07af13	slti	x30,x15,-1056	 x15:0x00000003 x30=0x00000000
       73215000	      7320	80005560	002d7463	bgeu	x26,x2,80005568	 x26:0x00000007  x2:0x00000000
       73225000	      7321	00000000	00000013	addi	x0,x0,0	  x0:0x00000000
       73235000	      7322	80005564	00000013	addi	x0,x0,0	  x0:0x00000000
       73245000	      7323	80005568	418382b3	sub	x5,x7,x24	  x7:0x00000000 x24:0x00000065  x5=0xffffff9b
       73255000	      7324	8000556c	41da06b3	sub	x13,x20,x29	 x20:0x7fff6337 x29:0x00000001 x13=0x7fff6336
       73265000	      7325	80005570	00000013	addi	x0,x0,0	  x0:0x00000000
       73275000	      7326	80005574	00b56a63	bltu	x10,x11,80005588	 x10:0x80009f34 x11:0x80009fc4
       73285000	      7327	00000000	00000013	addi	x0,x0,0	  x0:0x00000000
       73295000	      7328	80005584	00000013	addi	x0,x0,0	  x0:0x00000000
       73305000	      7329	80005588	00000013	addi	x0,x0,0	  x0:0x00000000
       73315000	      7330	8000558c	00452a03	lw	x20,4(x10)	 x10:0x80009f34 x20=0x80000d08 PA:0x80009f38
       73325000	      7331	80005590	00f33ab3	sltu	x21,x6,x15	  x6:0x00000000 x15:0x00000003 x21=0x00000001
       73335000	      7332	80005594	03450513	addi	x10,x10,52	 x10:0x80009f34 x10=0x80009f68
       73345000	      7333	80005598	00da89b3	add	x19,x21,x13	 x21:0x00000001 x13:0x7fff6336 x19=0x7fff6337
       73355000	      7334	8000559c	009239b3	sltu	x19,x4,x9	  x4:0x00000000  x9:0x00000045 x19=0x00000001
       73365000	      7335	800055a0	2e4bfb17	auipc	x22,0x2e4bf	 x22=0xae4c459c
       73375000	      7336	800055a4	ca9b7393	andi	x7,x22,-855	 x22:0xae4c459c  x7=0xae4c4488
       73385000	      7337	800055a8	001a0893	addi	x17,x20,1	 x20:0x80000d08 x17=0x80000d09
       73395000	      7338	800055ac	000888e7	jalr	x17,x17,0	 x17:0x80000d09 x17=0x800055ac
       73405000	      7339	00000000	00000013	addi	x0,x0,0	  x0:0x00000000
       73415000	      7340	80000d08	00000013	addi	x0,x0,0	  x0:0x00000000
       73425000	      7341	80000d0c	00000013	addi	x0,x0,0	  x0:0x00000000
       73435000	      7342	80000d10	01927263	bgeu	x4,x25,80000d14	  x4:0x00000000 x25:0xf2d2943c
       73445000	      7343	80000d14	0165d333	srl	x6,x11,x22	 x11:0x80009fc4 x22:0xae4c459c  x6=0x00000008
       73455000	      7344	80000d18	00de8a33	add	x20,x29,x13	 x29:0x00000001 x13:0x7fff6336 x20=0x7fff6337
       73465000	      7345	80000d1c	00639193	slli	x3,x7,0x6	  x7:0xae4c4488  x3=0x93112200
       73475000	      7346	80000d20	01f25c33	srl	x24,x4,x31	  x4:0x00000000 x31:0xe9600000 x24=0x00000000
       73485000	      7347	80000d24	7eb56113	ori	x2,x10,2027	 x10:0x80009f68  x2=0x80009feb
       73495000	      7348	80000d28	01ff3db3	sltu	x27,x30,x31	 x30:0x00000000 x31:0xe9600000 x27=0x00000001
       73505000	      7349	80000d2c	01fa9713	slli	x14,x21,0x1f	 x21:0x00000001 x14=0x80000000
       73515000	      7350	80000d30	41ff87b3	sub	x15,x31,x31	 x31:0xe9600000 x31:0xe9600000 x15=0x00000000
       73525000	      7351	80000d34	01f4da63	bge	x9,x31,80000d48	  x9:0x00000045 x31:0xe9600000
       73535000	      7352	00000000	00000013	addi	x0,x0,0	  x0:0x00000000
       73545000	      7353	80000d44	00000013	addi	x0,x0,0	  x0:0x00000000
       73555000	      7354	80000d48	0131d113	srli	x2,x3,0x13	  x3:0x93112200  x2=0x00001262
       73565000	      7355	80000d4c	0126de93	srli	x29,x13,0x12	 x13:0x7fff6336 x29=0x00001fff
       73575000	      7356	80000d50	05aac463	blt	x21,x26,80000d98	 x21:0x00000001 x26:0x00000007
       73585000	      7357	00000000	00000013	addi	x0,x0,0	  x0:0x00000000
       73595000	      7358	80000d94	00000013	addi	x0,x0,0	  x0:0x00000000
       73605000	      7359	80000d98	013d0c33	add	x24,x26,x19	 x26:0x00000007 x19:0x00000001 x24=0x00000008
       73615000	      7360	80000d9c	050d0113	addi	x2,x26,80	 x26:0x00000007  x2=0x00000057
       73625000	      7361	80000da0	40415713	srai	x14,x2,0x4	  x2:0x00000057 x14=0x00000005
       73635000	      7362	80000da4	00f86433	or	x8,x16,x15	 x16:0x80009b04 x15:0x00000000  x8=0x80009b04
       73645000	      7363	80000da8	03949063	bne	x9,x25,80000dc8	  x9:0x00000045 x25:0xf2d2943c
       73655000	      7364	00000000	00000013	addi	x0,x0,0	  x0:0x00000000
       73665000	      7365	80000dc4	00000013	addi	x0,x0,0	  x0:0x00000000
       73675000	      7366	80000dc8	00074863	blt	x14,x0,80000dd8	 x14:0x00000005  x0:0x00000000
       73685000	      7367	80000dcc	b9e13917	auipc	x18,0xb9e13	 x18=0x39e13dc8
       73695000	      7368	80000dd0	9f627a13	andi	x20,x4,-1546	  x4:0x00000000 x20=0x00000000
       73705000	      7369	80000dd4	005843b3	xor	x7,x16,x5	 x16:0x80009b04  x5:0xffffff9b  x7=0x7fff649f
       73715000	      7370	80000dd8	002dc863	blt	x27,x2,80000de8	 x27:0x00000001  x2:0x00000057
       73725000	      7371	00000000	00000013	addi	x0,x0,0	  x0:0x00000000
       73735000	      7372	80000de4	00000013	addi	x0,x0,0	  x0:0x00000000
       73745000	      7373	80000de8	01322133	slt	x2,x4,x19	  x4:0x00000000 x19:0x00000001  x2=0x00000001
       73755000	      7374	80000dec	00b5d663	bge	x11,x11,80000df8	 x11:0x80009fc4 x11:0x80009fc4
       73765000	      7375	00000000	00000013	addi	x0,x0,0	  x0:0x00000000
       73775000	      7376	80000df4	00000013	addi	x0,x0,0	  x0:0x00000000
       73785000	      7377	80000df8	019c86b3	add	x13,x25,x25	 x25:0xf2d2943c x25:0xf2d2943c x13=0xe5a52878
       73795000	      7378	80000dfc	00aca133	slt	x2,x25,x10	 x25:0xf2d2943c x10:0x80009f68  x2=0x00000000
       73805000	      7379	80000e00	03cd9263	bne	x27,x28,80000e24	 x27:0x00000001 x28:0x80009c05
       73815000	      7380	00000000	00000013	addi	x0,x0,0	  x0:0x00000000
       73825000	      7381	80000e20	00000013	addi	x0,x0,0	  x0:0x00000000
       73835000	      7382	80000e24	02005e63	bge	x0,x0,80000e60	  x0:0x00000000  x0:0x00000000
       73845000	      7383	00000000	00000013	addi	x0,x0,0	  x0:0x00000000
       73855000	      7384	80000e5c	00000013	addi	x0,x0,0	  x0:0x00000000
       73865000	      7385	80000e60	00e394b3	sll	x9,x7,x14	  x7:0x7fff649f x14:0x00000005  x9=0xffec93e0
       73875000	      7386	80000e64	30ffad13	slti	x26,x31,783	 x31:0xe9600000 x26=0x00000001
       73885000	      7387	80000e68	03ecfc63	bgeu	x25,x30,80000ea0	 x25:0xf2d2943c x30:0x00000000
       73895000	      7388	00000000	00000013	addi	x0,x0,0	  x0:0x00000000
       73905000	      7389	80000e9c	00000013	addi	x0,x0,0	  x0:0x00000000
       73915000	      7390	80000ea0	041f5063	bge	x30,x1,80000ee0	 x30:0x00000000  x1:0x00000059
       73925000	      7391	80000ea4	025c0a63	beq	x24,x5,80000ed8	 x24:0x00000008  x5:0xffffff9b
       73935000	      7392	80000ea8	014f9cb3	sll	x25,x31,x20	 x31:0xe9600000 x20:0x00000000 x25=0xe9600000
       73945000	      7393	80000eac	011dd833	srl	x16,x27,x17	 x27:0x00000001 x17:0x800055ac x16=0x00000000
       73955000	      7394	80000eb0	01f69a63	bne	x13,x31,80000ec4	 x13:0xe5a52878 x31:0xe9600000
       73965000	      7395	00000000	00000013	addi	x0,x0,0	  x0:0x00000000
       73975000	      7396	80000ec0	00000013	addi	x0,x0,0	  x0:0x00000000
       73985000	      7397	80000ec4	01eb9093	slli	x1,x23,0x1e	 x23:0x0000000d  x1=0x40000000
       73995000	      7398	80000ec8	f74fb093	sltiu	x1,x31,-140	 x31:0xe9600000  x1=0x00000001
       74005000	      7399	80000ecc	006dc2b3	xor	x5,x27,x6	 x27:0x00000001  x6:0x00000008  x5=0x00000009
       74015000	      7400	80000ed0	017eeab3	or	x21,x29,x23	 x29:0x00001fff x23:0x0000000d x21=0x00001fff
       74025000	      7401	80000ed4	01c74263	blt	x14,x28,80000ed8	 x14:0x00000005 x28:0x80009c05
       74035000	      7402	80000ed8	03b08063	beq	x1,x27,80000ef8	  x1:0x00000001 x27:0x00000001
       74045000	      7403	00000000	00000013	addi	x0,x0,0	  x0:0x00000000
       74055000	      7404	80000ef4	00000013	addi	x0,x0,0	  x0:0x00000000
       74065000	      7405	80000ef8	02b0d263	bge	x1,x11,80000f1c	  x1:0x00000001 x11:0x80009fc4
       74075000	      7406	00000000	00000013	addi	x0,x0,0	  x0:0x00000000
       74085000	      7407	80000f18	00000013	addi	x0,x0,0	  x0:0x00000000
       74095000	      7408	80000f1c	40698b33	sub	x22,x19,x6	 x19:0x00000001  x6:0x00000008 x22=0xfffffff9
       74105000	      7409	80000f20	017f52b3	srl	x5,x30,x23	 x30:0x00000000 x23:0x0000000d  x5=0x00000000
       74115000	      7410	80000f24	0043de93	srli	x29,x7,0x4	  x7:0x7fff649f x29=0x07fff649
       74125000	      7411	80000f28	00af0eb3	add	x29,x30,x10	 x30:0x00000000 x10:0x80009f68 x29=0x80009f68
       74135000	      7412	80000f2c	118c6463	bltu	x24,x24,80001034	 x24:0x00000008 x24:0x00000008
       74145000	      7413	80000f30	12c6e063	bltu	x13,x12,80001050	 x13:0xe5a52878 x12:0x00000000
       74155000	      7414	80000f34	1392d463	bge	x5,x25,8000105c	  x5:0x00000000 x25:0xe9600000
       74165000	      7415	00000000	00000013	addi	x0,x0,0	  x0:0x00000000
       74175000	      7416	80001058	00000013	addi	x0,x0,0	  x0:0x00000000
       74185000	      7417	8000105c	0265c263	blt	x11,x6,80001080	 x11:0x80009fc4  x6:0x00000008
       74195000	      7418	00000000	00000013	addi	x0,x0,0	  x0:0x00000000
       74205000	      7419	8000107c	00000013	addi	x0,x0,0	  x0:0x00000000
       74215000	      7420	80001080	012d7cb3	and	x25,x26,x18	 x26:0x00000001 x18:0x39e13dc8 x25=0x00000000
       74225000	      7421	80001084	0409f663	bgeu	x19,x0,800010d0	 x19:0x00000001  x0:0x00000000
       74235000	      7422	00000000	00000013	addi	x0,x0,0	  x0:0x00000000
       74245000	      7423	800010cc	00000013	addi	x0,x0,0	  x0:0x00000000
       74255000	      7424	800010d0	009f5233	srl	x4,x30,x9	 x30:0x00000000  x9:0xffec93e0  x4=0x00000000
       74265000	      7425	800010d4	014e4433	xor	x8,x28,x20	 x28:0x80009c05 x20:0x00000000  x8=0x80009c05
       74275000	      7426	800010d8	00d15663	bge	x2,x13,800010e4	  x2:0x00000000 x13:0xe5a52878
       74285000	      7427	00000000	00000013	addi	x0,x0,0	  x0:0x00000000
       74295000	      7428	800010e0	00000013	addi	x0,x0,0	  x0:0x00000000
       74305000	      7429	800010e4	406d6793	ori	x15,x26,1030	 x26:0x00000001 x15=0x00000407
       74315000	      7430	800010e8	60b23393	sltiu	x7,x4,1547	  x4:0x00000000  x7=0x00000001
       74325000	      7431	800010ec	017bde33	srl	x28,x23,x23	 x23:0x0000000d x23:0x0000000d x28=0x00000000
       74335000	      7432	800010f0	481bb217	auipc	x4,0x481bb	  x4=0xc81bc0ec
       74345000	      7433	800010f4	00165993	srli	x19,x12,0x1	 x12:0x00000000 x19=0x00000000
       74355000	      7434	800010f8	00d91cb3	sll	x25,x18,x13	 x18:0x39e13dc8 x13:0xe5a52878 x25=0xc8000000
       74365000	      7435	800010fc	4127d233	sra	x4,x15,x18	 x15:0x00000407 x18:0x39e13dc8  x4=0x00000004
       74375000	      7436	80001100	407b8ab3	sub	x21,x23,x7	 x23:0x0000000d  x7:0x00000001 x21=0x0000000c
       74385000	      7437	80001104	7a226093	ori	x1,x4,1954	  x4:0x00000004  x1=0x000007a6
       74395000	      7438	80001108	01fee9b3	or	x19,x29,x31	 x29:0x80009f68 x31:0xe9600000 x19=0xe9609f68
       74405000	      7439	8000110c	005cfdb3	and	x27,x25,x5	 x25:0xc8000000  x5:0x00000000 x27=0x00000000
       74415000	      7440	80001110	00baf833	and	x16,x21,x11	 x21:0x0000000c x11:0x80009fc4 x16=0x00000004
       74425000	      7441	80001114	40375db3	sra	x27,x14,x3	 x14:0x00000005  x3:0x93112200 x27=0x00000005
       74435000	      7442	80001118	00037db3	and	x27,x6,x0	  x6:0x00000008  x0:0x00000000 x27=0x00000000
       74445000	      7443	8000111c	e2a62d93	slti	x27,x12,-470	 x12:0x00000000 x27=0x00000000
       74455000	      7444	80001120	00f2ce33	xor	x28,x5,x15	  x5:0x00000000 x15:0x00000407 x28=0x00000407
       74465000	      7445	80001124	04d39463	bne	x7,x13,8000116c	  x7:0x00000001 x13:0xe5a52878
       74475000	      7446	00000000	00000013	addi	x0,x0,0	  x0:0x00000000
       74485000	      7447	80001168	00000013	addi	x0,x0,0	  x0:0x00000000
       74495000	      7448	8000116c	02f39263	bne	x7,x15,80001190	  x7:0x00000001 x15:0x00000407
       74505000	      7449	00000000	00000013	addi	x0,x0,0	  x0:0x00000000
       74515000	      7450	8000118c	00000013	addi	x0,x0,0	  x0:0x00000000
       74525000	      7451	80001190	a7030413	addi	x8,x6,-1424	  x6:0x00000008  x8=0xfffffa78
       74535000	      7452	80001194	01b972b3	and	x5,x18,x27	 x18:0x39e13dc8 x27:0x00000000  x5=0x00000000
       74545000	      7453	80001198	a0a383b7	lui	x7,0xa0a38	  x7=0xa0a38000
       74555000	      7454	8000119c	00b12033	slt	x0,x2,x11	  x2:0x00000000 x11:0x80009fc4
       74565000	      7455	800011a0	40c0d313	srai	x6,x1,0xc	  x1:0x000007a6  x6=0x00000000
       74575000	      7456	800011a4	41dd5c13	srai	x24,x26,0x1d	 x26:0x00000001 x24=0x00000000
       74585000	      7457	800011a8	006be433	or	x8,x23,x6	 x23:0x0000000d  x6:0x00000000  x8=0x0000000d
       74595000	      7458	800011ac	004a9293	slli	x5,x21,0x4	 x21:0x0000000c  x5=0x000000c0
       74605000	      7459	800011b0	003e8863	beq	x29,x3,800011c0	 x29:0x80009f68  x3:0x93112200
       74615000	      7460	800011b4	4b0e7c13	andi	x24,x28,1200	 x28:0x00000407 x24=0x00000400
       74625000	      7461	800011b8	414a89b3	sub	x19,x21,x20	 x21:0x0000000c x20:0x00000000 x19=0x0000000c
       74635000	      7462	800011bc	05f8f063	bgeu	x17,x31,800011fc	 x17:0x800055ac x31:0xe9600000
       74645000	      7463	800011c0	006e6ab3	or	x21,x28,x6	 x28:0x00000407  x6:0x00000000 x21=0x00000407
       74655000	      7464	800011c4	c07877b7	lui	x15,0xc0787	 x15=0xc0787000
       74665000	      7465	800011c8	403f00b3	sub	x1,x30,x3	 x30:0x00000000  x3:0x93112200  x1=0x6ceede00
       74675000	      7466	800011cc	3455acb7	lui	x25,0x3455a	 x25=0x3455a000
       74685000	      7467	800011d0	01949e33	sll	x28,x9,x25	  x9:0xffec93e0 x25:0x3455a000 x28=0xffec93e0
       74695000	      7468	800011d4	011a6933	or	x18,x20,x17	 x20:0x00000000 x17:0x800055ac x18=0x800055ac
       74705000	      7469	800011d8	6b08f637	lui	x12,0x6b08f	 x12=0x6b08f000
       74715000	      7470	800011dc	0ed29863	bne	x5,x13,800012cc	  x5:0x000000c0 x13:0xe5a52878
       74725000	      7471	00000000	00000013	addi	x0,x0,0	  x0:0x00000000
       74735000	      7472	800012c8	00000013	addi	x0,x0,0	  x0:0x00000000
       74745000	      7473	800012cc	01471863	bne	x14,x20,800012dc	 x14:0x00000005 x20:0x00000000
       74755000	      7474	00000000	00000013	addi	x0,x0,0	  x0:0x00000000
       74765000	      7475	800012d8	00000013	addi	x0,x0,0	  x0:0x00000000
       74775000	      7476	800012dc	01499f33	sll	x30,x19,x20	 x19:0x0000000c x20:0x00000000 x30=0x0000000c
       74785000	      7477	800012e0	7e84a293	slti	x5,x9,2024	  x9:0xffec93e0  x5=0x00000001
       74795000	      7478	800012e4	00c44c63	blt	x8,x12,800012fc	  x8:0x0000000d x12:0x6b08f000
       74805000	      7479	00000000	00000013	addi	x0,x0,0	  x0:0x00000000
       74815000	      7480	800012f8	00000013	addi	x0,x0,0	  x0:0x00000000
       74825000	      7481	800012fc	00eb0333	add	x6,x22,x14	 x22:0xfffffff9 x14:0x00000005  x6=0xfffffffe
       74835000	      7482	80001300	71a86637	lui	x12,0x71a86	 x12=0x71a86000
       74845000	      7483	80001304	01b33cb3	sltu	x25,x6,x27	  x6:0xfffffffe x27:0x00000000 x25=0x00000000
       74855000	      7484	80001308	b8b66113	ori	x2,x12,-1141	 x12:0x71a86000  x2=0xfffffb8b
       74865000	      7485	8000130c	4051df93	srai	x31,x3,0x5	  x3:0x93112200 x31=0xfc988910
       74875000	      7486	80001310	02724263	blt	x4,x7,80001334	  x4:0x00000004  x7:0xa0a38000
       74885000	      7487	80001314	03536a63	bltu	x6,x21,80001348	  x6:0xfffffffe x21:0x00000407
       74895000	      7488	80001318	e2dd1197	auipc	x3,0xe2dd1	  x3=0x62dd2314
       74905000	      7489	8000131c	efe7b713	sltiu	x14,x15,-258	 x15:0xc0787000 x14=0x00000001
       74915000	      7490	80001320	03a5e263	bltu	x11,x26,80001344	 x11:0x80009fc4 x26:0x00000001
       74925000	      7491	80001324	045fc463	blt	x31,x5,8000136c	 x31:0xfc988910  x5:0x00000001
       74935000	      7492	00000000	00000013	addi	x0,x0,0	  x0:0x00000000
       74945000	      7493	80001368	00000013	addi	x0,x0,0	  x0:0x00000000
       74955000	      7494	8000136c	00000013	addi	x0,x0,0	  x0:0x00000000
       74965000	      7495	80001370	0092ccb3	xor	x25,x5,x9	  x5:0x00000001  x9:0xffec93e0 x25=0xffec93e1
       74975000	      7496	80001374	00918933	add	x18,x3,x9	  x3:0x62dd2314  x9:0xffec93e0 x18=0x62c9b6f4
       74985000	      7497	80001378	032f8c63	beq	x31,x18,800013b0	 x31:0xfc988910 x18:0x62c9b6f4
       74995000	      7498	8000137c	01503db3	sltu	x27,x0,x21	  x0:0x00000000 x21:0x00000407 x27=0x00000001
       75005000	      7499	80001380	01bf7463	bgeu	x30,x27,80001388	 x30:0x0000000c x27:0x00000001
       75015000	      7500	00000000	00000013	addi	x0,x0,0	  x0:0x00000000
       75025000	      7501	80001384	00000013	addi	x0,x0,0	  x0:0x00000000
       75035000	      7502	80001388	eb2b74b7	lui	x9,0xeb2b7	  x9=0xeb2b7000
       75045000	      7503	8000138c	41395c13	srai	x24,x18,0x13	 x18:0x62c9b6f4 x24=0x00000c59
       75055000	      7504	80001390	01bb4033	xor	x0,x22,x27	 x22:0xfffffff9 x27:0x00000001
       75065000	      7505	80001394	40525f93	srai	x31,x4,0x5	  x4:0x00000004 x31=0x00000000
       75075000	      7506	80001398	ae30ef13	ori	x30,x1,-1309	  x1:0x6ceede00 x30=0xfffffee3
       75085000	      7507	8000139c	00000013	addi	x0,x0,0	  x0:0x00000000
       75095000	      7508	800013a0	f1f2ae13	slti	x28,x5,-225	  x5:0x00000001 x28=0x00000000
       75105000	      7509	800013a4	002b9a63	bne	x23,x2,800013b8	 x23:0x0000000d  x2:0xfffffb8b
       75115000	      7510	00000000	00000013	addi	x0,x0,0	  x0:0x00000000
       75125000	      7511	800013b4	00000013	addi	x0,x0,0	  x0:0x00000000
       75135000	      7512	800013b8	4128dc33	sra	x24,x17,x18	 x17:0x800055ac x18:0x62c9b6f4 x24=0xfffff800
       75145000	      7513	800013bc	00452a03	lw	x20,4(x10)	 x10:0x80009f68 x20=0x80000170 PA:0x80009f6c
       75155000	      7514	800013c0	40f883b3	sub	x7,x17,x15	 x17:0x800055ac x15:0xc0787000  x7=0xbf87e5ac
       75165000	      7515	800013c4	00784133	xor	x2,x16,x7	 x16:0x00000004  x7:0xbf87e5ac  x2=0xbf87e5a8
       75175000	      7516	800013c8	01431933	sll	x18,x6,x20	  x6:0xfffffffe x20:0x80000170 x18=0xfffe0000
       75185000	      7517	800013cc	00d19fb3	sll	x31,x3,x13	  x3:0x62dd2314 x13:0xe5a52878 x31=0x14000000
       75195000	      7518	800013d0	ee388e93	addi	x29,x17,-285	 x17:0x800055ac x29=0x8000548f
       75205000	      7519	800013d4	fa66f913	andi	x18,x13,-90	 x13:0xe5a52878 x18=0xe5a52820
       75215000	      7520	800013d8	417487b3	sub	x15,x9,x23	  x9:0xeb2b7000 x23:0x0000000d x15=0xeb2b6ff3
       75225000	      7521	800013dc	004bd1b3	srl	x3,x23,x4	 x23:0x0000000d  x4:0x00000004  x3=0x00000000
       75235000	      7522	800013e0	01c50513	addi	x10,x10,28	 x10:0x80009f68 x10=0x80009f84
       75245000	      7523	800013e4	16733693	sltiu	x13,x6,359	  x6:0xfffffffe x13=0x00000000
       75255000	      7524	800013e8	000a0913	addi	x18,x20,0	 x20:0x80000170 x18=0x80000170
       75265000	      7525	800013ec	00090967	jalr	x18,x18,0	 x18:0x80000170 x18=0x800013ec
       75275000	      7526	00000000	00000013	addi	x0,x0,0	  x0:0x00000000
       75285000	      7527	80000170	00000013	addi	x0,x0,0	  x0:0x00000000
       75295000	      7528	80000174	00008117	auipc	x2,0x8	  x2=0x80008170
       75305000	      7529	80000178	f1910113	addi	x2,x2,-231	  x2:0x80008170  x2=0x80008089
       75315000	      7530	8000017c	bb33f337	lui	x6,0xbb33f	  x6=0xbb33f000
       75325000	      7531	80000180	73814883	lbu	x17,1848(x2)	  x2:0x80008089 x17=0x00000078 PA:0x800087c1
       75335000	      7532	80000184	1e311a03	lh	x20,483(x2)	  x2:0x80008089 x20=0xfffff67c PA:0x8000826c
       75345000	      7533	80000188	56414a83	lbu	x21,1380(x2)	  x2:0x80008089 x21=0x0000002d PA:0x800085ed
       75355000	      7534	8000018c	0091d693	srli	x13,x3,0x9	  x3:0x00000000 x13=0x00000000
       75365000	      7535	80000190	00f3d633	srl	x12,x7,x15	  x7:0xbf87e5ac x15:0xeb2b6ff3 x12=0x000017f0
       75375000	      7536	80000194	018c9d13	slli	x26,x25,0x18	 x25:0xffec93e1 x26=0xe1000000
       75385000	      7537	80000198	b3defc13	andi	x24,x29,-1219	 x29:0x8000548f x24=0x8000500d
       75395000	      7538	8000019c	06511783	lh	x15,101(x2)	  x2:0x80008089 x15=0x00004deb PA:0x800080ee
       75405000	      7539	800001a0	012372b3	and	x5,x6,x18	  x6:0xbb33f000 x18:0x800013ec  x5=0x80001000
       75415000	      7540	800001a4	db72e817	auipc	x16,0xdb72e	 x16=0x5b72e1a0
       75425000	      7541	800001a8	01b90eb3	add	x29,x18,x27	 x18:0x800013ec x27:0x00000001 x29=0x800013ed
       75435000	      7542	800001ac	23115e03	lhu	x28,561(x2)	  x2:0x80008089 x28=0x000072fc PA:0x800082ba
       75445000	      7543	800001b0	3c310fa3	sb	x3,991(x2)	  x2:0x80008089  x3:0x00000000 PA:0x80008468
       75455000	      7544	800001b4	70f10b23	sb	x15,1814(x2)	  x2:0x80008089 x15:0x00004deb PA:0x8000879f
       75465000	      7545	800001b8	5d410983	lb	x19,1492(x2)	  x2:0x80008089 x19=0x00000002 PA:0x8000865d
       75475000	      7546	800001bc	2ca8a493	slti	x9,x17,714	 x17:0x00000078  x9=0x00000001
       75485000	      7547	800001c0	aba44813	xori	x16,x8,-1350	  x8:0x0000000d x16=0xfffffab7
       75495000	      7548	800001c4	00823f33	sltu	x30,x4,x8	  x4:0x00000004  x8:0x0000000d x30=0x00000001
       75505000	      7549	800001c8	534104a3	sb	x20,1321(x2)	  x2:0x80008089 x20:0xfffff67c PA:0x800085b2
       75515000	      7550	800001cc	747115a3	sh	x7,1867(x2)	  x2:0x80008089  x7:0xbf87e5ac PA:0x800087d4
       75525000	      7551	800001d0	64c112a3	sh	x12,1605(x2)	  x2:0x80008089 x12:0x000017f0 PA:0x800086ce
       75535000	      7552	800001d4	5131b093	sltiu	x1,x3,1299	  x3:0x00000000  x1=0x00000001
       75545000	      7553	800001d8	402e53b3	sra	x7,x28,x2	 x28:0x000072fc  x2:0x80008089  x7=0x00000039
       75555000	      7554	800001dc	005aecb3	or	x25,x21,x5	 x21:0x0000002d  x5:0x80001000 x25=0x8000102d
       75565000	      7555	800001e0	4f3b6613	ori	x12,x22,1267	 x22:0xfffffff9 x12=0xfffffffb
       75575000	      7556	800001e4	00000013	addi	x0,x0,0	  x0:0x00000000
       75585000	      7557	800001e8	93787f37	lui	x30,0x93787	 x30=0x93787000
       75595000	      7558	800001ec	c0e73193	sltiu	x3,x14,-1010	 x14:0x00000001  x3=0x00000001
       75605000	      7559	800001f0	23010a03	lb	x20,560(x2)	  x2:0x80008089 x20=0xffffffa5 PA:0x800082b9
       75615000	      7560	800001f4	14810e23	sb	x8,348(x2)	  x2:0x80008089  x8:0x0000000d PA:0x800081e5
       75625000	      7561	800001f8	b4c2f793	andi	x15,x5,-1204	  x5:0x80001000 x15=0x80001000
       75635000	      7562	800001fc	35c10a23	sb	x28,852(x2)	  x2:0x80008089 x28:0x000072fc PA:0x800083dd
       75645000	      7563	80000200	2ac110a3	sh	x12,673(x2)	  x2:0x80008089 x12:0xfffffffb PA:0x8000832a
       75655000	      7564	80000204	01951d93	slli	x27,x10,0x19	 x10:0x80009f84 x27=0x08000000
       75665000	      7565	80000208	ca0c58b7	lui	x17,0xca0c5	 x17=0xca0c5000
       75675000	      7566	8000020c	41310ca3	sb	x19,1049(x2)	  x2:0x80008089 x19:0x00000002 PA:0x800084a2
       75685000	      7567	80000210	41fedf93	srai	x31,x29,0x1f	 x29:0x800013ed x31=0xffffffff
       75695000	      7568	80000214	6e969637	lui	x12,0x6e969	 x12=0x6e969000
       75705000	      7569	80000218	fce14d03	lbu	x26,-50(x2)	  x2:0x80008089 x26=0x00000099 PA:0x80008057
       75715000	      7570	8000021c	85716f93	ori	x31,x2,-1961	  x2:0x80008089 x31=0xfffff8df
       75725000	      7571	80000220	46414e83	lbu	x29,1124(x2)	  x2:0x80008089 x29=0x0000004f PA:0x800084ed
       75735000	      7572	80000224	00009117	auipc	x2,0x9	  x2=0x80009220
       75745000	      7573	80000228	a1010113	addi	x2,x2,-1520	  x2:0x80009220  x2=0x80008c30
       75755000	      7574	8000022c	03511423	sh	x21,40(x2)	  x2:0x80008c30 x21:0x0000002d PA:0x80008c58
       75765000	      7575	80000230	02110ba3	sb	x1,55(x2)	  x2:0x80008c30  x1:0x00000001 PA:0x80008c67
       75775000	      7576	80000234	fdf10fa3	sb	x31,-33(x2)	  x2:0x80008c30 x31:0xfffff8df PA:0x80008c0f
       75785000	      7577	80000238	ffc14803	lbu	x16,-4(x2)	  x2:0x80008c30 x16=0x000000ae PA:0x80008c2c
       75795000	      7578	00000000	00000013	addi	x0,x0,0	  x0:0x00000000
       75805000	      7579	8000023c	c10e5f37	lui	x30,0xc10e5	 x30=0xc10e5000
       75815000	      7580	80000240	4cf6a493	slti	x9,x13,1231	 x13:0x00000000  x9=0x00000001
       75825000	      7581	80000244	fd812983	lw	x19,-40(x2)	  x2:0x80008c30 x19=0x032a8e4e PA:0x80008c08
       75835000	      7582	80000248	03a14183	lbu	x3,58(x2)	  x2:0x80008c30  x3=0x000000f8 PA:0x80008c6a
       75845000	      7583	8000024c	0153de93	srli	x29,x7,0x15	  x7:0x00000039 x29=0x00000000
       75855000	      7584	80000250	cf6f2437	lui	x8,0xcf6f2	  x8=0xcf6f2000
       75865000	      7585	80000254	fe910a83	lb	x21,-23(x2)	  x2:0x80008c30 x21=0xffffff88 PA:0x80008c19
       75875000	      7586	80000258	03614383	lbu	x7,54(x2)	  x2:0x80008c30  x7=0x000000c8 PA:0x80008c66
       75885000	      7587	8000025c	40ff5a13	srai	x20,x30,0xf	 x30:0xc10e5000 x20=0xffff821c
       75895000	      7588	80000260	8d0c6613	ori	x12,x24,-1840	 x24:0x8000500d x12=0xfffff8dd
       75905000	      7589	80000264	78a36c13	ori	x24,x6,1930	  x6:0xbb33f000 x24=0xbb33f78a
       75915000	      7590	80000268	4087d713	srai	x14,x15,0x8	 x15:0x80001000 x14=0xff800010
       75925000	      7591	8000026c	a0abba17	auipc	x20,0xa0abb	 x20=0x20abb268
       75935000	      7592	80000270	ffb14f83	lbu	x31,-5(x2)	  x2:0x80008c30 x31=0x000000a8 PA:0x80008c2b
       75945000	      7593	80000274	fdb10e03	lb	x28,-37(x2)	  x2:0x80008c30 x28=0x00000003 PA:0x80008c0b
       75955000	      7594	80000278	01a10803	lb	x16,26(x2)	  x2:0x80008c30 x16=0xffffff98 PA:0x80008c4a
       75965000	      7595	8000027c	00000013	addi	x0,x0,0	  x0:0x00000000
       75975000	      7596	80000280	00391313	slli	x6,x18,0x3	 x18:0x800013ec  x6=0x00009f60
       75985000	      7597	80000284	01039493	slli	x9,x7,0x10	  x7:0x000000c8  x9=0x00c80000
       75995000	      7598	80000288	02514783	lbu	x15,37(x2)	  x2:0x80008c30 x15=0x00000019 PA:0x80008c55
       76005000	      7599	8000028c	ff714c03	lbu	x24,-9(x2)	  x2:0x80008c30 x24=0x000000ce PA:0x80008c27
       76015000	      7600	80000290	4065dd13	srai	x26,x11,0x6	 x11:0x80009fc4 x26=0xfe00027f
       76025000	      7601	80000294	03015303	lhu	x6,48(x2)	  x2:0x80008c30  x6=0x00002075 PA:0x80008c60
       76035000	      7602	80000298	01314983	lbu	x19,19(x2)	  x2:0x80008c30 x19=0x00000047 PA:0x80008c43
       76045000	      7603	8000029c	02114283	lbu	x5,33(x2)	  x2:0x80008c30  x5=0x00000023 PA:0x80008c51
       76055000	      7604	800002a0	04014903	lbu	x18,64(x2)	  x2:0x80008c30 x18=0x00000057 PA:0x80008c70
       76065000	      7605	800002a4	00000013	addi	x0,x0,0	  x0:0x00000000
       76075000	      7606	800002a8	00cbfdb3	and	x27,x23,x12	 x23:0x0000000d x12:0xfffff8dd x27=0x0000000d
       76085000	      7607	800002ac	22bf4313	xori	x6,x30,555	 x30:0xc10e5000  x6=0xc10e522b
       76095000	      7608	800002b0	40c05c13	srai	x24,x0,0xc	  x0:0x00000000 x24=0x00000000
       76105000	      7609	800002b4	01713133	sltu	x2,x2,x23	  x2:0x80008c30 x23:0x0000000d  x2=0x00000000
       76115000	      7610	800002b8	00f7e863	bltu	x15,x15,800002c8	 x15:0x00000019 x15:0x00000019
       76125000	      7611	800002bc	012500b3	add	x1,x10,x18	 x10:0x80009f84 x18:0x00000057  x1=0x80009fdb
       76135000	      7612	800002c0	03417a63	bgeu	x2,x20,800002f4	  x2:0x00000000 x20:0x20abb268
       76145000	      7613	800002c4	40f4d293	srai	x5,x9,0xf	  x9:0x00c80000  x5=0x00000190
       76155000	      7614	800002c8	01fc5a33	srl	x20,x24,x31	 x24:0x00000000 x31:0x000000a8 x20=0x00000000
       76165000	      7615	800002cc	00eaa8b3	slt	x17,x21,x14	 x21:0xffffff88 x14:0xff800010 x17=0x00000000
       76175000	      7616	800002d0	008d0e63	beq	x26,x8,800002ec	 x26:0xfe00027f  x8:0xcf6f2000
       76185000	      7617	800002d4	59d60013	addi	x0,x12,1437	 x12:0xfffff8dd
       76195000	      7618	800002d8	00094433	xor	x8,x18,x0	 x18:0x00000057  x0:0x00000000  x8=0x00000057
       76205000	      7619	800002dc	00e7d0b3	srl	x1,x15,x14	 x15:0x00000019 x14:0xff800010  x1=0x00000000
       76215000	      7620	800002e0	01dcdc93	srli	x25,x25,0x1d	 x25:0x8000102d x25=0x00000004
       76225000	      7621	800002e4	0001f633	and	x12,x3,x0	  x3:0x000000f8  x0:0x00000000 x12=0x00000000
       76235000	      7622	800002e8	00000013	addi	x0,x0,0	  x0:0x00000000
       76245000	      7623	800002ec	00383e33	sltu	x28,x16,x3	 x16:0xffffff98  x3:0x000000f8 x28=0x00000000
       76255000	      7624	800002f0	0444c663	blt	x9,x4,8000033c	  x9:0x00c80000  x4:0x00000004
       76265000	      7625	800002f4	012c9113	slli	x2,x25,0x12	 x25:0x00000004  x2=0x00100000
       76275000	      7626	800002f8	c8314393	xori	x7,x2,-893	  x2:0x00100000  x7=0xffeffc83
       76285000	      7627	800002fc	01099eb3	sll	x29,x19,x16	 x19:0x00000047 x16:0xffffff98 x29=0x47000000
       76295000	      7628	80000300	67c16193	ori	x3,x2,1660	  x2:0x00100000  x3=0x0010067c
       76305000	      7629	80000304	62bee993	ori	x19,x29,1579	 x29:0x47000000 x19=0x4700062b
       76315000	      7630	80000308	04ce4663	blt	x28,x12,80000354	 x28:0x00000000 x12:0x00000000
       76325000	      7631	8000030c	03ba0263	beq	x20,x27,80000330	 x20:0x00000000 x27:0x0000000d
       76335000	      7632	80000310	00000013	addi	x0,x0,0	  x0:0x00000000
       76345000	      7633	80000314	01580c63	beq	x16,x21,8000032c	 x16:0xffffff98 x21:0xffffff88
       76355000	      7634	80000318	41b98133	sub	x2,x19,x27	 x19:0x4700062b x27:0x0000000d  x2=0x4700061e
       76365000	      7635	8000031c	05270263	beq	x14,x18,80000360	 x14:0xff800010 x18:0x00000057
       76375000	      7636	80000320	00408463	beq	x1,x4,80000328	  x1:0x00000000  x4:0x00000004
       76385000	      7637	80000324	403e5113	srai	x2,x28,0x3	 x28:0x00000000  x2=0x00000000
       76395000	      7638	80000328	050c0263	beq	x24,x16,8000036c	 x24:0x00000000 x16:0xffffff98
       76405000	      7639	8000032c	00a806b3	add	x13,x16,x10	 x16:0xffffff98 x10:0x80009f84 x13=0x80009f1c
       76415000	      7640	80000330	40985733	sra	x14,x16,x9	 x16:0xffffff98  x9:0x00c80000 x14=0xffffff98
       76425000	      7641	80000334	5b6b6f17	auipc	x30,0x5b6b6	 x30=0xdb6b6330
       76435000	      7642	80000338	00bc1a33	sll	x20,x24,x11	 x24:0x00000000 x11:0x80009fc4 x20=0x00000000
       76445000	      7643	8000033c	03229e63	bne	x5,x18,80000378	  x5:0x00000190 x18:0x00000057
       76455000	      7644	00000000	00000013	addi	x0,x0,0	  x0:0x00000000
       76465000	      7645	80000374	00000013	addi	x0,x0,0	  x0:0x00000000
       76475000	      7646	80000378	41935e33	sra	x28,x6,x25	  x6:0xc10e522b x25:0x00000004 x28=0xfc10e522
       76485000	      7647	8000037c	050ef063	bgeu	x29,x16,800003bc	 x29:0x47000000 x16:0xffffff98
       76495000	      7648	80000380	01f29e93	slli	x29,x5,0x1f	  x5:0x00000190 x29=0x00000000
       76505000	      7649	80000384	407d5933	sra	x18,x26,x7	 x26:0xfe00027f  x7:0xffeffc83 x18=0xffc0004f
       76515000	      7650	80000388	887b2d13	slti	x26,x22,-1913	 x22:0xfffffff9 x26=0x00000000
       76525000	      7651	8000038c	e07d4313	xori	x6,x26,-505	 x26:0x00000000  x6=0xfffffe07
       76535000	      7652	80000390	248e3c93	sltiu	x25,x28,584	 x28:0xfc10e522 x25=0x00000000
       76545000	      7653	80000394	01c28e63	beq	x5,x28,800003b0	  x5:0x00000190 x28:0xfc10e522
       76555000	      7654	80000398	00c25333	srl	x6,x4,x12	  x4:0x00000004 x12:0x00000000  x6=0x00000004
       76565000	      7655	8000039c	5df32d13	slti	x26,x6,1503	  x6:0x00000004 x26=0x00000001
       76575000	      7656	800003a0	00f49893	slli	x17,x9,0xf	  x9:0x00c80000 x17=0x00000000
       76585000	      7657	800003a4	00b8e433	or	x8,x17,x11	 x17:0x00000000 x11:0x80009fc4  x8=0x80009fc4
       76595000	      7658	800003a8	012471b3	and	x3,x8,x18	  x8:0x80009fc4 x18:0xffc0004f  x3=0x80000044
       76605000	      7659	800003ac	01179333	sll	x6,x15,x17	 x15:0x00000019 x17:0x00000000  x6=0x00000019
       76615000	      7660	800003b0	060d5663	bge	x26,x0,8000041c	 x26:0x00000001  x0:0x00000000
       76625000	      7661	00000000	00000013	addi	x0,x0,0	  x0:0x00000000
       76635000	      7662	80000418	00000013	addi	x0,x0,0	  x0:0x00000000
       76645000	      7663	8000041c	051a0a63	beq	x20,x17,80000470	 x20:0x00000000 x17:0x00000000
       76655000	      7664	00000000	00000013	addi	x0,x0,0	  x0:0x00000000
       76665000	      7665	8000046c	00000013	addi	x0,x0,0	  x0:0x00000000
       76675000	      7666	80000470	40058333	sub	x6,x11,x0	 x11:0x80009fc4  x0:0x00000000  x6=0x80009fc4
       76685000	      7667	80000474	8797d7b7	lui	x15,0x8797d	 x15=0x8797d000
       76695000	      7668	80000478	01032f33	slt	x30,x6,x16	  x6:0x80009fc4 x16:0xffffff98 x30=0x00000001
       76705000	      7669	8000047c	00c95ab3	srl	x21,x18,x12	 x18:0xffc0004f x12:0x00000000 x21=0xffc0004f
       76715000	      7670	80000480	0220d263	bge	x1,x2,800004a4	  x1:0x00000000  x2:0x00000000
       76725000	      7671	00000000	00000013	addi	x0,x0,0	  x0:0x00000000
       76735000	      7672	800004a0	00000013	addi	x0,x0,0	  x0:0x00000000
       76745000	      7673	800004a4	011e17b3	sll	x15,x28,x17	 x28:0xfc10e522 x17:0x00000000 x15=0xfc10e522
       76755000	      7674	800004a8	48582913	slti	x18,x16,1157	 x16:0xffffff98 x18=0x00000001
       76765000	      7675	800004ac	40f88133	sub	x2,x17,x15	 x17:0x00000000 x15:0xfc10e522  x2=0x03ef1ade
       76775000	      7676	800004b0	00000013	addi	x0,x0,0	  x0:0x00000000
       76785000	      7677	800004b4	404adf93	srai	x31,x21,0x4	 x21:0xffc0004f x31=0xfffc0004
       76795000	      7678	800004b8	00000013	addi	x0,x0,0	  x0:0x00000000
       76805000	      7679	800004bc	01935c93	srli	x25,x6,0x19	  x6:0x80009fc4 x25=0x00000040
       76815000	      7680	800004c0	05b06463	bltu	x0,x27,80000508	  x0:0x00000000 x27:0x0000000d
       76825000	      7681	00000000	00000013	addi	x0,x0,0	  x0:0x00000000
       76835000	      7682	80000504	00000013	addi	x0,x0,0	  x0:0x00000000
       76845000	      7683	80000508	e11ea113	slti	x2,x29,-495	 x29:0x00000000  x2=0x00000000
       76855000	      7684	8000050c	654b47b7	lui	x15,0x654b4	 x15=0x654b4000
       76865000	      7685	80000510	00000013	addi	x0,x0,0	  x0:0x00000000
       76875000	      7686	80000514	41625fb3	sra	x31,x4,x22	  x4:0x00000004 x22:0xfffffff9 x31=0x00000000
       76885000	      7687	80000518	404c5913	srai	x18,x24,0x4	 x24:0x00000000 x18=0x00000000
       76895000	      7688	8000051c	e0a3b837	lui	x16,0xe0a3b	 x16=0xe0a3b000
       76905000	      7689	80000520	00a15833	srl	x16,x2,x10	  x2:0x00000000 x10:0x80009f84 x16=0x00000000
       76915000	      7690	80000524	26c5a713	slti	x14,x11,620	 x11:0x80009fc4 x14=0x00000001
       76925000	      7691	80000528	c6e159b7	lui	x19,0xc6e15	 x19=0xc6e15000
       76935000	      7692	8000052c	412487b3	sub	x15,x9,x18	  x9:0x00c80000 x18:0x00000000 x15=0x00c80000
       76945000	      7693	80000530	ff3a2413	slti	x8,x20,-13	 x20:0x00000000  x8=0x00000000
       76955000	      7694	80000534	01284033	xor	x0,x16,x18	 x16:0x00000000 x18:0x00000000
       76965000	      7695	80000538	01a89293	slli	x5,x17,0x1a	 x17:0x00000000  x5=0x00000000
       76975000	      7696	8000053c	01bf8133	add	x2,x31,x27	 x31:0x00000000 x27:0x0000000d  x2=0x0000000d
       76985000	      7697	80000540	8f9f8a93	addi	x21,x31,-1799	 x31:0x00000000 x21=0xfffff8f9
       76995000	      7698	80000544	2ecaab13	slti	x22,x21,748	 x21:0xfffff8f9 x22=0x00000001
       77005000	      7699	80000548	0176ef33	or	x30,x13,x23	 x13:0x80009f1c x23:0x0000000d x30=0x80009f1d
       77015000	      7700	8000054c	00705733	srl	x14,x0,x7	  x0:0x00000000  x7:0xffeffc83 x14=0x00000000
       77025000	      7701	80000550	00000013	addi	x0,x0,0	  x0:0x00000000
       77035000	      7702	80000554	00000013	addi	x0,x0,0	  x0:0x00000000
       77045000	      7703	80000558	0029df33	srl	x30,x19,x2	 x19:0xc6e15000  x2:0x0000000d x30=0x0006370a
       77055000	      7704	8000055c	01e00233	add	x4,x0,x30	  x0:0x00000000 x30:0x0006370a  x4=0x0006370a
       77065000	      7705	80000560	01d68fb3	add	x31,x13,x29	 x13:0x80009f1c x29:0x00000000 x31=0x80009f1c
       77075000	      7706	80000564	00135733	srl	x14,x6,x1	  x6:0x80009fc4  x1:0x00000000 x14=0x80009fc4
       77085000	      7707	80000568	e9058213	addi	x4,x11,-368	 x11:0x80009fc4  x4=0x80009e54
       77095000	      7708	8000056c	02ffc663	blt	x31,x15,80000598	 x31:0x80009f1c x15:0x00c80000
       77105000	      7709	00000000	00000013	addi	x0,x0,0	  x0:0x00000000
       77115000	      7710	80000594	00000013	addi	x0,x0,0	  x0:0x00000000
       77125000	      7711	80000598	00f594b3	sll	x9,x11,x15	 x11:0x80009fc4 x15:0x00c80000  x9=0x80009fc4
       77135000	      7712	8000059c	40dbdf33	sra	x30,x23,x13	 x23:0x0000000d x13:0x80009f1c x30=0x00000000
       77145000	      7713	800005a0	029f1a63	bne	x30,x9,800005d4	 x30:0x00000000  x9:0x80009fc4
       77155000	      7714	00000000	00000013	addi	x0,x0,0	  x0:0x00000000
       77165000	      7715	800005d0	00000013	addi	x0,x0,0	  x0:0x00000000
       77175000	      7716	800005d4	5ebcbe93	sltiu	x29,x25,1515	 x25:0x00000040 x29=0x00000001
       77185000	      7717	800005d8	00d51393	slli	x7,x10,0xd	 x10:0x80009f84  x7=0x13f08000
       77195000	      7718	800005dc	00000013	addi	x0,x0,0	  x0:0x00000000
       77205000	      7719	800005e0	00634c33	xor	x24,x6,x6	  x6:0x80009fc4  x6:0x80009fc4 x24=0x00000000
       77215000	      7720	800005e4	ff48fc13	andi	x24,x17,-12	 x17:0x00000000 x24=0x00000000
       77225000	      7721	800005e8	6978ec93	ori	x25,x17,1687	 x17:0x00000000 x25=0x00000697
       77235000	      7722	800005ec	805b0893	addi	x17,x22,-2043	 x22:0x00000001 x17=0xfffff806
       77245000	      7723	800005f0	02dd4263	blt	x26,x13,80000614	 x26:0x00000001 x13:0x80009f1c
       77255000	      7724	800005f4	1135ea63	bltu	x11,x19,80000708	 x11:0x80009fc4 x19:0xc6e15000
       77265000	      7725	00000000	00000013	addi	x0,x0,0	  x0:0x00000000
       77275000	      7726	80000704	00000013	addi	x0,x0,0	  x0:0x00000000
       77285000	      7727	80000708	4041dcb3	sra	x25,x3,x4	  x3:0x80000044  x4:0x80009e54 x25=0xfffff800
       77295000	      7728	8000070c	7673dc37	lui	x24,0x7673d	 x24=0x7673d000
       77305000	      7729	80000710	01482eb3	slt	x29,x16,x20	 x16:0x00000000 x20:0x00000000 x29=0x00000000
       77315000	      7730	80000714	93dd4193	xori	x3,x26,-1731	 x26:0x00000001  x3=0xfffff93c
       77325000	      7731	80000718	01efde33	srl	x28,x31,x30	 x31:0x80009f1c x30:0x00000000 x28=0x80009f1c
       77335000	      7732	8000071c	009fbcb3	sltu	x25,x31,x9	 x31:0x80009f1c  x9:0x80009fc4 x25=0x00000001
       77345000	      7733	80000720	001dd7b3	srl	x15,x27,x1	 x27:0x0000000d  x1:0x00000000 x15=0x0000000d
       77355000	      7734	80000724	038a0263	beq	x20,x24,80000748	 x20:0x00000000 x24:0x7673d000
       77365000	      7735	80000728	f0b69a17	auipc	x20,0xf0b69	 x20=0x70b69724
       77375000	      7736	8000072c	00be9193	slli	x3,x29,0xb	 x29:0x00000000  x3=0x00000000
       77385000	      7737	80000730	40a48eb3	sub	x29,x9,x10	  x9:0x80009fc4 x10:0x80009f84 x29=0x00000040
       77395000	      7738	80000734	40dadeb3	sra	x29,x21,x13	 x21:0xfffff8f9 x13:0x80009f1c x29=0xffffffff
       77405000	      7739	80000738	04394663	blt	x18,x3,80000784	 x18:0x00000000  x3:0x00000000
       77415000	      7740	8000073c	03b1e263	bltu	x3,x27,80000760	  x3:0x00000000 x27:0x0000000d
       77425000	      7741	00000000	00000013	addi	x0,x0,0	  x0:0x00000000
       77435000	      7742	8000075c	00000013	addi	x0,x0,0	  x0:0x00000000
       77445000	      7743	80000760	00000013	addi	x0,x0,0	  x0:0x00000000
       77455000	      7744	80000764	01e31463	bne	x6,x30,8000076c	  x6:0x80009fc4 x30:0x00000000
       77465000	      7745	00000000	00000013	addi	x0,x0,0	  x0:0x00000000
       77475000	      7746	80000768	00000013	addi	x0,x0,0	  x0:0x00000000
       77485000	      7747	8000076c	00d23d33	sltu	x26,x4,x13	  x4:0x80009e54 x13:0x80009f1c x26=0x00000001
       77495000	      7748	80000770	006e9e63	bne	x29,x6,8000078c	 x29:0xffffffff  x6:0x80009fc4
       77505000	      7749	00000000	00000013	addi	x0,x0,0	  x0:0x00000000
       77515000	      7750	80000788	00000013	addi	x0,x0,0	  x0:0x00000000
       77525000	      7751	8000078c	01c0f1b3	and	x3,x1,x28	  x1:0x00000000 x28:0x80009f1c  x3=0x00000000
       77535000	      7752	80000790	0165ee33	or	x28,x11,x22	 x11:0x80009fc4 x22:0x00000001 x28=0x80009fc5
       77545000	      7753	80000794	00539613	slli	x12,x7,0x5	  x7:0x13f08000 x12=0x7e100000
       77555000	      7754	80000798	006a9c63	bne	x21,x6,800007b0	 x21:0xfffff8f9  x6:0x80009fc4
       77565000	      7755	00000000	00000013	addi	x0,x0,0	  x0:0x00000000
       77575000	      7756	800007ac	00000013	addi	x0,x0,0	  x0:0x00000000
       77585000	      7757	800007b0	00365b33	srl	x22,x12,x3	 x12:0x7e100000  x3:0x00000000 x22=0x7e100000
       77595000	      7758	800007b4	01d41693	slli	x13,x8,0x1d	  x8:0x00000000 x13=0x00000000
       77605000	      7759	800007b8	04bc7663	bgeu	x24,x11,80000804	 x24:0x7673d000 x11:0x80009fc4
       77615000	      7760	800007bc	04b48663	beq	x9,x11,80000808	  x9:0x80009fc4 x11:0x80009fc4
       77625000	      7761	00000000	00000013	addi	x0,x0,0	  x0:0x00000000
       77635000	      7762	80000804	00000013	addi	x0,x0,0	  x0:0x00000000
       77645000	      7763	80000808	b2823813	sltiu	x16,x4,-1240	  x4:0x80009e54 x16=0x00000001
       77655000	      7764	8000080c	0033bf33	sltu	x30,x7,x3	  x7:0x13f08000  x3:0x00000000 x30=0x00000000
       77665000	      7765	80000810	04b9e663	bltu	x19,x11,8000085c	 x19:0xc6e15000 x11:0x80009fc4
       77675000	      7766	80000814	01cc9393	slli	x7,x25,0x1c	 x25:0x00000001  x7=0x10000000
       77685000	      7767	80000818	b616fc13	andi	x24,x13,-1183	 x13:0x00000000 x24=0x00000000
       77695000	      7768	8000081c	46bb2013	slti	x0,x22,1131	 x22:0x7e100000
       77705000	      7769	80000820	71d98693	addi	x13,x19,1821	 x19:0xc6e15000 x13=0xc6e1571d
       77715000	      7770	80000824	00c4acb3	slt	x25,x9,x12	  x9:0x80009fc4 x12:0x7e100000 x25=0x00000001
       77725000	      7771	80000828	007b6733	or	x14,x22,x7	 x22:0x7e100000  x7:0x10000000 x14=0x7e100000
       77735000	      7772	8000082c	01dd1633	sll	x12,x26,x29	 x26:0x00000001 x29:0xffffffff x12=0x80000000
       77745000	      7773	80000830	403ad393	srai	x7,x21,0x3	 x21:0xfffff8f9  x7=0xffffff1f
       77755000	      7774	80000834	00ee33b3	sltu	x7,x28,x14	 x28:0x80009fc5 x14:0x7e100000  x7=0x00000000
       77765000	      7775	80000838	009c6cb3	or	x25,x24,x9	 x24:0x00000000  x9:0x80009fc4 x25=0x80009fc4
       77775000	      7776	8000083c	00000013	addi	x0,x0,0	  x0:0x00000000
       77785000	      7777	80000840	01898893	addi	x17,x19,24	 x19:0xc6e15000 x17=0xc6e15018
       77795000	      7778	80000844	40fd89b3	sub	x19,x27,x15	 x27:0x0000000d x15:0x0000000d x19=0x00000000
       77805000	      7779	80000848	00fa2b33	slt	x22,x20,x15	 x20:0x70b69724 x15:0x0000000d x22=0x00000000
       77815000	      7780	8000084c	01ca6d33	or	x26,x20,x28	 x20:0x70b69724 x28:0x80009fc5 x26=0xf0b69fe5
       77825000	      7781	80000850	05d51063	bne	x10,x29,80000890	 x10:0x80009f84 x29:0xffffffff
       77835000	      7782	00000000	00000013	addi	x0,x0,0	  x0:0x00000000
       77845000	      7783	8000088c	00000013	addi	x0,x0,0	  x0:0x00000000
       77855000	      7784	80000890	00000013	addi	x0,x0,0	  x0:0x00000000
       77865000	      7785	80000894	00000013	addi	x0,x0,0	  x0:0x00000000
       77875000	      7786	80000898	01781db3	sll	x27,x16,x23	 x16:0x00000001 x23:0x0000000d x27=0x00002000
       77885000	      7787	8000089c	05d76263	bltu	x14,x29,800008e0	 x14:0x7e100000 x29:0xffffffff
       77895000	      7788	00000000	00000013	addi	x0,x0,0	  x0:0x00000000
       77905000	      7789	800008dc	00000013	addi	x0,x0,0	  x0:0x00000000
       77915000	      7790	800008e0	63d2a413	slti	x8,x5,1597	  x5:0x00000000  x8=0x00000001
       77925000	      7791	800008e4	05920463	beq	x4,x25,8000092c	  x4:0x80009e54 x25:0x80009fc4
       77935000	      7792	800008e8	017f1833	sll	x16,x30,x23	 x30:0x00000000 x23:0x0000000d x16=0x00000000
       77945000	      7793	800008ec	001838b3	sltu	x17,x16,x1	 x16:0x00000000  x1:0x00000000 x17=0x00000000
       77955000	      7794	800008f0	053e8263	beq	x29,x19,80000934	 x29:0xffffffff x19:0x00000000
       77965000	      7795	800008f4	40375d33	sra	x26,x14,x3	 x14:0x7e100000  x3:0x00000000 x26=0x7e100000
       77975000	      7796	800008f8	984f7817	auipc	x16,0x984f7	 x16=0x184f78f4
       77985000	      7797	800008fc	f064ad93	slti	x27,x9,-250	  x9:0x80009fc4 x27=0x00000001
       77995000	      7798	80000900	00938833	add	x16,x7,x9	  x7:0x00000000  x9:0x80009fc4 x16=0x80009fc4
       78005000	      7799	80000904	000ad033	srl	x0,x21,x0	 x21:0xfffff8f9  x0:0x00000000
       78015000	      7800	80000908	8b5ab713	sltiu	x14,x21,-1867	 x21:0xfffff8f9 x14=0x00000000
       78025000	      7801	8000090c	414ad433	sra	x8,x21,x20	 x21:0xfffff8f9 x20:0x70b69724  x8=0xffffff8f
       78035000	      7802	80000910	41670e33	sub	x28,x14,x22	 x14:0x00000000 x22:0x00000000 x28=0x00000000
       78045000	      7803	80000914	00ca9613	slli	x12,x21,0xc	 x21:0xfffff8f9 x12=0xff8f9000
       78055000	      7804	80000918	ca2a4313	xori	x6,x20,-862	 x20:0x70b69724  x6=0x8f496b86
       78065000	      7805	8000091c	00000013	addi	x0,x0,0	  x0:0x00000000
       78075000	      7806	80000920	01887433	and	x8,x16,x24	 x16:0x80009fc4 x24:0x00000000  x8=0x00000000
       78085000	      7807	80000924	10a8cc63	blt	x17,x10,80000a3c	 x17:0x00000000 x10:0x80009f84
       78095000	      7808	80000928	0e1fce63	blt	x31,x1,80000a24	 x31:0x80009f1c  x1:0x00000000
       78105000	      7809	00000000	00000013	addi	x0,x0,0	  x0:0x00000000
       78115000	      7810	80000a20	00000013	addi	x0,x0,0	  x0:0x00000000
       78125000	      7811	80000a24	8c54cc13	xori	x24,x9,-1851	  x9:0x80009fc4 x24=0x7fff6701
       78135000	      7812	80000a28	d26ef693	andi	x13,x29,-730	 x29:0xffffffff x13=0xfffffd26
       78145000	      7813	80000a2c	002dd413	srli	x8,x27,0x2	 x27:0x00000001  x8=0x00000000
       78155000	      7814	80000a30	00011413	slli	x8,x2,0x0	  x2:0x0000000d  x8=0x0000000d
       78165000	      7815	80000a34	010ede63	bge	x29,x16,80000a50	 x29:0xffffffff x16:0x80009fc4
       78175000	      7816	00000000	00000013	addi	x0,x0,0	  x0:0x00000000
       78185000	      7817	80000a4c	00000013	addi	x0,x0,0	  x0:0x00000000
       78195000	      7818	80000a50	03aa8a63	beq	x21,x26,80000a84	 x21:0xfffff8f9 x26:0x7e100000
       78205000	      7819	80000a54	9b940d93	addi	x27,x8,-1607	  x8:0x0000000d x27=0xfffff9c6
       78215000	      7820	80000a58	00b124b3	slt	x9,x2,x11	  x2:0x0000000d x11:0x80009fc4  x9=0x00000000
       78225000	      7821	80000a5c	008e5d93	srli	x27,x28,0x8	 x28:0x00000000 x27=0x00000000
       78235000	      7822	80000a60	b81e6493	ori	x9,x28,-1151	 x28:0x00000000  x9=0xfffffb81
       78245000	      7823	80000a64	004534b3	sltu	x9,x10,x4	 x10:0x80009f84  x4:0x80009e54  x9=0x00000000
       78255000	      7824	80000a68	04f54663	blt	x10,x15,80000ab4	 x10:0x80009f84 x15:0x0000000d
       78265000	      7825	00000000	00000013	addi	x0,x0,0	  x0:0x00000000
       78275000	      7826	80000ab0	00000013	addi	x0,x0,0	  x0:0x00000000
       78285000	      7827	80000ab4	413f5193	srai	x3,x30,0x13	 x30:0x00000000  x3=0x00000000
       78295000	      7828	80000ab8	00ede7b3	or	x15,x27,x14	 x27:0x00000000 x14:0x00000000 x15=0x00000000
       78305000	      7829	80000abc	0417e263	bltu	x15,x1,80000b00	 x15:0x00000000  x1:0x00000000
       78315000	      7830	80000ac0	00596e33	or	x28,x18,x5	 x18:0x00000000  x5:0x00000000 x28=0x00000000
       78325000	      7831	80000ac4	40b05d33	sra	x26,x0,x11	  x0:0x00000000 x11:0x80009fc4 x26=0x00000000
       78335000	      7832	80000ac8	4059dc13	srai	x24,x19,0x5	 x19:0x00000000 x24=0x00000000
       78345000	      7833	80000acc	044b4663	blt	x22,x4,80000b18	 x22:0x00000000  x4:0x80009e54
       78355000	      7834	80000ad0	be7f0493	addi	x9,x30,-1049	 x30:0x00000000  x9=0xfffffbe7
       78365000	      7835	80000ad4	00000013	addi	x0,x0,0	  x0:0x00000000
       78375000	      7836	80000ad8	73274d93	xori	x27,x14,1842	 x14:0x00000000 x27=0x00000732
       78385000	      7837	80000adc	418907b3	sub	x15,x18,x24	 x18:0x00000000 x24:0x00000000 x15=0x00000000
       78395000	      7838	80000ae0	4116d393	srai	x7,x13,0x11	 x13:0xfffffd26  x7=0xffffffff
       78405000	      7839	80000ae4	05f26063	bltu	x4,x31,80000b24	  x4:0x80009e54 x31:0x80009f1c
       78415000	      7840	00000000	00000013	addi	x0,x0,0	  x0:0x00000000
       78425000	      7841	80000b20	00000013	addi	x0,x0,0	  x0:0x00000000
       78435000	      7842	80000b24	05acc663	blt	x25,x26,80000b70	 x25:0x80009fc4 x26:0x00000000
       78445000	      7843	00000000	00000013	addi	x0,x0,0	  x0:0x00000000
       78455000	      7844	80000b6c	00000013	addi	x0,x0,0	  x0:0x00000000
       78465000	      7845	80000b70	818eee13	ori	x28,x29,-2024	 x29:0xffffffff x28=0xffffffff
       78475000	      7846	80000b74	01794c63	blt	x18,x23,80000b8c	 x18:0x00000000 x23:0x0000000d
       78485000	      7847	00000000	00000013	addi	x0,x0,0	  x0:0x00000000
       78495000	      7848	80000b88	00000013	addi	x0,x0,0	  x0:0x00000000
       78505000	      7849	80000b8c	4013d3b3	sra	x7,x7,x1	  x7:0xffffffff  x1:0x00000000  x7=0xffffffff
       78515000	      7850	80000b90	01bec9b3	xor	x19,x29,x27	 x29:0xffffffff x27:0x00000732 x19=0xfffff8cd
       78525000	      7851	80000b94	03345663	bge	x8,x19,80000bc0	  x8:0x0000000d x19:0xfffff8cd
       78535000	      7852	00000000	00000013	addi	x0,x0,0	  x0:0x00000000
       78545000	      7853	80000bbc	00000013	addi	x0,x0,0	  x0:0x00000000
       78555000	      7854	80000bc0	c7752113	slti	x2,x10,-905	 x10:0x80009f84  x2=0x00000001
       78565000	      7855	80000bc4	014af033	and	x0,x21,x20	 x21:0xfffff8f9 x20:0x70b69724
       78575000	      7856	80000bc8	7efabfb7	lui	x31,0x7efab	 x31=0x7efab000
       78585000	      7857	80000bcc	00000013	addi	x0,x0,0	  x0:0x00000000
       78595000	      7858	80000bd0	00e6d7b3	srl	x15,x13,x14	 x13:0xfffffd26 x14:0x00000000 x15=0xfffffd26
       78605000	      7859	80000bd4	012f9393	slli	x7,x31,0x12	 x31:0x7efab000  x7=0xc0000000
       78615000	      7860	80000bd8	03587db7	lui	x27,0x3587	 x27=0x03587000
       78625000	      7861	80000bdc	01419eb3	sll	x29,x3,x20	  x3:0x00000000 x20:0x70b69724 x29=0x00000000
       78635000	      7862	80000be0	01e11b33	sll	x22,x2,x30	  x2:0x00000001 x30:0x00000000 x22=0x00000001
       78645000	      7863	80000be4	013531b3	sltu	x3,x10,x19	 x10:0x80009f84 x19:0xfffff8cd  x3=0x00000001
       78655000	      7864	80000be8	01d2d8b3	srl	x17,x5,x29	  x5:0x00000000 x29:0x00000000 x17=0x00000000
       78665000	      7865	80000bec	10632a93	slti	x21,x6,262	  x6:0x8f496b86 x21=0x00000001
       78675000	      7866	80000bf0	28057993	andi	x19,x10,640	 x10:0x80009f84 x19=0x00000280
       78685000	      7867	80000bf4	055ce263	bltu	x25,x21,80000c38	 x25:0x80009fc4 x21:0x00000001
       78695000	      7868	80000bf8	0110d9b3	srl	x19,x1,x17	  x1:0x00000000 x17:0x00000000 x19=0x00000000
       78705000	      7869	80000bfc	05255463	bge	x10,x18,80000c44	 x10:0x80009f84 x18:0x00000000
       78715000	      7870	80000c00	01d2eeb3	or	x29,x5,x29	  x5:0x00000000 x29:0x00000000 x29=0x00000000
       78725000	      7871	80000c04	0119c6b3	xor	x13,x19,x17	 x19:0x00000000 x17:0x00000000 x13=0x00000000
       78735000	      7872	80000c08	c3998c93	addi	x25,x19,-967	 x19:0x00000000 x25=0xfffffc39
       78745000	      7873	80000c0c	005751b3	srl	x3,x14,x5	 x14:0x00000000  x5:0x00000000  x3=0x00000000
       78755000	      7874	80000c10	56268113	addi	x2,x13,1378	 x13:0x00000000  x2=0x00000562
       78765000	      7875	80000c14	00a16f33	or	x30,x2,x10	  x2:0x00000562 x10:0x80009f84 x30=0x80009fe6
       78775000	      7876	80000c18	00878463	beq	x15,x8,80000c20	 x15:0xfffffd26  x8:0x0000000d
       78785000	      7877	80000c1c	0132c633	xor	x12,x5,x19	  x5:0x00000000 x19:0x00000000 x12=0x00000000
       78795000	      7878	80000c20	8643aa93	slti	x21,x7,-1948	  x7:0xc0000000 x21=0x00000001
       78805000	      7879	80000c24	00285f93	srli	x31,x16,0x2	 x16:0x80009fc4 x31=0x200027f1
       78815000	      7880	80000c28	418002b3	sub	x5,x0,x24	  x0:0x00000000 x24:0x00000000  x5=0x00000000
       78825000	      7881	80000c2c	0094ec63	bltu	x9,x9,80000c44	  x9:0xfffffbe7  x9:0xfffffbe7
       78835000	      7882	80000c30	01037833	and	x16,x6,x16	  x6:0x8f496b86 x16:0x80009fc4 x16=0x80000b84
       78845000	      7883	80000c34	7daef113	andi	x2,x29,2010	 x29:0x00000000  x2=0x00000000
       78855000	      7884	80000c38	40dc5d13	srai	x26,x24,0xd	 x24:0x00000000 x26=0x00000000
       78865000	      7885	80000c3c	0036aa33	slt	x20,x13,x3	 x13:0x00000000  x3:0x00000000 x20=0x00000000
       78875000	      7886	80000c40	345d2a37	lui	x20,0x345d2	 x20=0x345d2000
       78885000	      7887	80000c44	0076d093	srli	x1,x13,0x7	 x13:0x00000000  x1=0x00000000
       78895000	      7888	80000c48	00181293	slli	x5,x16,0x1	 x16:0x80000b84  x5=0x00001708
       78905000	      7889	80000c4c	41240d33	sub	x26,x8,x18	  x8:0x0000000d x18:0x00000000 x26=0x0000000d
       78915000	      7890	80000c50	016bf1b3	and	x3,x23,x22	 x23:0x0000000d x22:0x00000001  x3=0x00000001
       78925000	      7891	80000c54	003084b3	add	x9,x1,x3	  x1:0x00000000  x3:0x00000001  x9=0x00000001
       78935000	      7892	80000c58	0034bfb3	sltu	x31,x9,x3	  x9:0x00000001  x3:0x00000001 x31=0x00000000
       78945000	      7893	80000c5c	00729f33	sll	x30,x5,x7	  x5:0x00001708  x7:0xc0000000 x30=0x00001708
       78955000	      7894	80000c60	00b03633	sltu	x12,x0,x11	  x0:0x00000000 x11:0x80009fc4 x12=0x00000001
       78965000	      7895	80000c64	0054e8b3	or	x17,x9,x5	  x9:0x00000001  x5:0x00001708 x17=0x00001709
       78975000	      7896	80000c68	00b7dc33	srl	x24,x15,x11	 x15:0xfffffd26 x11:0x80009fc4 x24=0x0fffffd2
       78985000	      7897	80000c6c	7983f113	andi	x2,x7,1944	  x7:0xc0000000  x2=0x00000000
       78995000	      7898	80000c70	017aa833	slt	x16,x21,x23	 x21:0x00000001 x23:0x0000000d x16=0x00000001
       79005000	      7899	80000c74	acf37d37	lui	x26,0xacf37	 x26=0xacf37000
       79015000	      7900	80000c78	04bf0463	beq	x30,x11,80000cc0	 x30:0x00001708 x11:0x80009fc4
       79025000	      7901	80000c7c	001ed0b3	srl	x1,x29,x1	 x29:0x00000000  x1:0x00000000  x1=0x00000000
       79035000	      7902	80000c80	05c69263	bne	x13,x28,80000cc4	 x13:0x00000000 x28:0xffffffff
       79045000	      7903	00000000	00000013	addi	x0,x0,0	  x0:0x00000000
       79055000	      7904	80000cc0	00000013	addi	x0,x0,0	  x0:0x00000000
       79065000	      7905	80000cc4	001acd33	xor	x26,x21,x1	 x21:0x00000001  x1:0x00000000 x26=0x00000001
       79075000	      7906	80000cc8	00000b97	auipc	x23,0x0	 x23=0x80000cc4
       79085000	      7907	80000ccc	00cb8b93	addi	x23,x23,12	 x23:0x80000cc4 x23=0x80000cd0
       79095000	      7908	80000cd0	000b8067	jalr	x0,x23,0	 x23:0x80000cd0
       79105000	      7909	00000000	00000013	addi	x0,x0,0	  x0:0x00000000
       79115000	      7910	80000cd0	00000013	addi	x0,x0,0	  x0:0x00000000
       79125000	      7911	80000cd4	00100193	addi	x3,x0,1	  x0:0x00000000  x3=0x00000001
       79135000	      7912	80000cd8	00000073	ecall	
       79145000	      7913	80000cdc	fe450513	addi	x10,x10,-28	 x10:0x80009f84 x10=0x80009f68
