		Time			Cycle	PC		Insn	Decoded instruction	Register and memory contents
          65000	         5	80000004	00000293	addi	x5,x0,0	  x0:0x00000000  x5=0x00000000
          75000	         6	80000008	00000313	addi	x6,x0,0	  x0:0x00000000  x6=0x00000000
          85000	         7	8000000c	00628263	beq	x5,x6,80000010	  x5:0x00000000  x6:0x00000000
          95000	         8	00000000	00000013	addi	x0,x0,0	  x0:0x00000000
         105000	         9	8000000c	00000013	addi	x0,x0,0	  x0:0x00000000
         115000	        10	80000010	00000c17	auipc	x24,0x0	 x24=0x8000000c
         125000	        11	80000014	00cc0c13	addi	x24,x24,12	 x24:0x8000000c x24=0x80000018
         135000	        12	80000018	000c0067	jalr	x0,x24,0	 x24:0x80000018
         145000	        13	00000000	00000013	addi	x0,x0,0	  x0:0x00000000
         155000	        14	80000018	00000013	addi	x0,x0,0	  x0:0x00000000
         165000	        15	8000001c	40000137	lui	x2,0x40000	  x2=0x40000000
         175000	        16	80000020	10010113	addi	x2,x2,256	  x2:0x40000000  x2=0x40000100
         185000	        17	80000024	00000013	addi	x0,x0,0	  x0:0x00000000
         195000	        18	80000028	0000ac97	auipc	x25,0xa	 x25=0x8000a024
         205000	        19	8000002c	fa0c8c93	addi	x25,x25,-96	 x25:0x8000a024 x25=0x80009fc4
         215000	        20	80000030	00007117	auipc	x2,0x7	  x2=0x8000702c
         225000	        21	80000034	c3810113	addi	x2,x2,-968	  x2:0x8000702c  x2=0x80006c64
         235000	        22	80000038	00016113	ori	x2,x2,0	  x2:0x80006c64  x2=0x80006c64
         245000	        23	8000003c	00000013	addi	x0,x0,0	  x0:0x00000000
         255000	        24	80000040	00000117	auipc	x2,0x0	  x2=0x8000003c
         265000	        25	80000044	02010113	addi	x2,x2,32	  x2:0x8000003c  x2=0x8000005c
         275000	        26	80000048	00000013	addi	x0,x0,0	  x0:0x00000000
         285000	        27	8000004c	00000013	addi	x0,x0,0	  x0:0x00000000
         295000	        28	80000050	00002137	lui	x2,0x2	  x2=0x00002000
         305000	        29	80000054	80010113	addi	x2,x2,-2048	  x2:0x00002000  x2=0x00001800
         315000	        30	80000058	00000013	addi	x0,x0,0	  x0:0x00000000
         325000	        31	8000005c	00000013	addi	x0,x0,0	  x0:0x00000000
         335000	        32	80000060	00000013	addi	x0,x0,0	  x0:0x00000000
         345000	        33	80000064	00000093	addi	x1,x0,0	  x0:0x00000000  x1=0x00000000
         355000	        34	80000068	00000113	addi	x2,x0,0	  x0:0x00000000  x2=0x00000000
         365000	        35	8000006c	800001b7	lui	x3,0x80000	  x3=0x80000000
         375000	        36	80000070	00300213	addi	x4,x0,3	  x0:0x00000000  x4=0x00000003
         385000	        37	80000074	800002b7	lui	x5,0x80000	  x5=0x80000000
         395000	        38	80000078	00000313	addi	x6,x0,0	  x0:0x00000000  x6=0x00000000
         405000	        39	8000007c	00000393	addi	x7,x0,0	  x0:0x00000000  x7=0x00000000
         415000	        40	80000080	00000413	addi	x8,x0,0	  x0:0x00000000  x8=0x00000000
         425000	        41	80000084	800004b7	lui	x9,0x80000	  x9=0x80000000
         435000	        42	80000088	e7883537	lui	x10,0xe7883	 x10=0xe7883000
         445000	        43	8000008c	e3c50513	addi	x10,x10,-452	 x10:0xe7883000 x10=0xe7882e3c
         455000	        44	80000090	f11bc5b7	lui	x11,0xf11bc	 x11=0xf11bc000
         465000	        45	80000094	6e558593	addi	x11,x11,1765	 x11:0xf11bc000 x11=0xf11bc6e5
         475000	        46	80000098	80000637	lui	x12,0x80000	 x12=0x80000000
         485000	        47	8000009c	41ad46b7	lui	x13,0x41ad4	 x13=0x41ad4000
         495000	        48	800000a0	e7f68693	addi	x13,x13,-385	 x13:0x41ad4000 x13=0x41ad3e7f
         505000	        49	800000a4	ee13c7b7	lui	x15,0xee13c	 x15=0xee13c000
         515000	        50	800000a8	1e678793	addi	x15,x15,486	 x15:0xee13c000 x15=0xee13c1e6
         525000	        51	800000ac	80000837	lui	x16,0x80000	 x16=0x80000000
         535000	        52	800000b0	00500893	addi	x17,x0,5	  x0:0x00000000 x17=0x00000005
         545000	        53	800000b4	6b355937	lui	x18,0x6b355	 x18=0x6b355000
         555000	        54	800000b8	96e90913	addi	x18,x18,-1682	 x18:0x6b355000 x18=0x6b35496e
         565000	        55	800000bc	fd08c9b7	lui	x19,0xfd08c	 x19=0xfd08c000
         575000	        56	800000c0	43f98993	addi	x19,x19,1087	 x19:0xfd08c000 x19=0xfd08c43f
         585000	        57	800000c4	00700a13	addi	x20,x0,7	  x0:0x00000000 x20=0x00000007
         595000	        58	800000c8	80000ab7	lui	x21,0x80000	 x21=0x80000000
         605000	        59	800000cc	00e00b13	addi	x22,x0,14	  x0:0x00000000 x22=0x0000000e
         615000	        60	800000d0	80000bb7	lui	x23,0x80000	 x23=0x80000000
         625000	        61	800000d4	80000c37	lui	x24,0x80000	 x24=0x80000000
         635000	        62	800000d8	27918d37	lui	x26,0x27918	 x26=0x27918000
         645000	        63	800000dc	bf7d0d13	addi	x26,x26,-1033	 x26:0x27918000 x26=0x27917bf7
         655000	        64	800000e0	00000d93	addi	x27,x0,0	  x0:0x00000000 x27=0x00000000
         665000	        65	800000e4	80000e37	lui	x28,0x80000	 x28=0x80000000
         675000	        66	800000e8	fff6feb7	lui	x29,0xfff6f	 x29=0xfff6f000
         685000	        67	800000ec	ba7e8e93	addi	x29,x29,-1113	 x29:0xfff6f000 x29=0xfff6eba7
         695000	        68	800000f0	00900f13	addi	x30,x0,9	  x0:0x00000000 x30=0x00000009
         705000	        69	800000f4	4bf22fb7	lui	x31,0x4bf22	 x31=0x4bf22000
         715000	        70	800000f8	39ef8f93	addi	x31,x31,926	 x31:0x4bf22000 x31=0x4bf2239e
         725000	        71	800000fc	0000a717	auipc	x14,0xa	 x14=0x8000a0f8
         735000	        72	80000100	e8c70713	addi	x14,x14,-372	 x14:0x8000a0f8 x14=0x80009f84
         745000	        73	80000104	00004517	auipc	x10,0x4	 x10=0x80004100
         755000	        74	80000108	a2c50513	addi	x10,x10,-1492	 x10:0x80004100 x10=0x80003b2c
         765000	        75	8000010c	017fd4b3	srl	x9,x31,x23	 x31:0x4bf2239e x23:0x80000000  x9=0x4bf2239e
         775000	        76	80000110	eea4b637	lui	x12,0xeea4b	 x12=0xeea4b000
         785000	        77	80000114	40dc0fb3	sub	x31,x24,x13	 x24:0x80000000 x13:0x41ad3e7f x31=0x3e52c181
         795000	        78	80000118	415f0ab3	sub	x21,x30,x21	 x30:0x00000009 x21:0x80000000 x21=0x80000009
         805000	        79	8000011c	013330b3	sltu	x1,x6,x19	  x6:0x00000000 x19:0xfd08c43f  x1=0x00000001
         815000	        80	80000120	28244493	xori	x9,x8,642	  x8:0x00000000  x9=0x00000282
         825000	        81	80000124	1c150513	addi	x10,x10,449	 x10:0x80003b2c x10=0x80003ced
         835000	        82	80000128	40a85b93	srai	x23,x16,0xa	 x16:0x80000000 x23=0xffe00000
         845000	        83	8000012c	3b2ab4b7	lui	x9,0x3b2ab	  x9=0x3b2ab000
         855000	        84	80000130	e4050967	jalr	x18,x10,-448	 x10:0x80003ced x18=0x80000130
         865000	        85	00000000	00000013	addi	x0,x0,0	  x0:0x00000000
         875000	        86	80003b2c	00000013	addi	x0,x0,0	  x0:0x00000000
         885000	        87	80003b30	01867263	bgeu	x12,x24,80003b34	 x12:0xeea4b000 x24:0x80000000
         895000	        88	00000000	00000013	addi	x0,x0,0	  x0:0x00000000
         905000	        89	80003b30	00000013	addi	x0,x0,0	  x0:0x00000000
         915000	        90	80003b34	fd870713	addi	x14,x14,-40	 x14:0x80009f84 x14=0x80009f5c
         925000	        91	80003b38	7e34d837	lui	x16,0x7e34d	 x16=0x7e34d000
         935000	        92	80003b3c	406051b3	sra	x3,x0,x6	  x0:0x00000000  x6:0x00000000  x3=0x00000000
         945000	        93	80003b40	a6768893	addi	x17,x13,-1433	 x13:0x41ad3e7f x17=0x41ad38e6
         955000	        94	80003b44	0074c233	xor	x4,x9,x7	  x9:0x3b2ab000  x7:0x00000000  x4=0x3b2ab000
         965000	        95	80003b48	01272223	sw	x18,4(x14)	 x14:0x80009f5c x18:0x80000130 PA:0x80009f60
         975000	        96	80003b4c	01e45fb3	srl	x31,x8,x30	  x8:0x00000000 x30:0x00000009 x31=0x00000000
         985000	        97	80003b50	81a8b613	sltiu	x12,x17,-2022	 x17:0x41ad38e6 x12=0x00000001
         995000	        98	80003b54	00000013	addi	x0,x0,0	  x0:0x00000000
        1005000	        99	80003b58	401f06b3	sub	x13,x30,x1	 x30:0x00000009  x1:0x00000001 x13=0x00000008
        1015000	       100	80003b5c	01c6feb3	and	x29,x13,x28	 x13:0x00000008 x28:0x80000000 x29=0x00000000
        1025000	       101	80003b60	00671113	slli	x2,x14,0x6	 x14:0x80009f5c  x2=0x0027d700
        1035000	       102	80003b64	40655d93	srai	x27,x10,0x6	 x10:0x80003ced x27=0xfe0000f3
        1045000	       103	80003b68	0188cdb3	xor	x27,x17,x24	 x17:0x41ad38e6 x24:0x80000000 x27=0xc1ad38e6
        1055000	       104	80003b6c	01478533	add	x10,x15,x20	 x15:0xee13c1e6 x20:0x00000007 x10=0xee13c1ed
        1065000	       105	80003b70	01f71493	slli	x9,x14,0x1f	 x14:0x80009f5c  x9=0x00000000
        1075000	       106	80003b74	40555b33	sra	x22,x10,x5	 x10:0xee13c1ed  x5:0x80000000 x22=0xee13c1ed
        1085000	       107	80003b78	ba9fc96f	jal	x18,80003b78	 x18=0x80003b78
        1095000	       108	00000000	00000013	addi	x0,x0,0	  x0:0x00000000
        1105000	       109	8000071c	00000013	addi	x0,x0,0	  x0:0x00000000
        1115000	       110	80000720	fd070713	addi	x14,x14,-48	 x14:0x80009f5c x14=0x80009f2c
        1125000	       111	80000724	01272223	sw	x18,4(x14)	 x14:0x80009f2c x18:0x80003b78 PA:0x80009f30
        1135000	       112	80000728	00715513	srli	x10,x2,0x7	  x2:0x0027d700 x10=0x00004fae
        1145000	       113	8000072c	002259b3	srl	x19,x4,x2	  x4:0x3b2ab000  x2:0x0027d700 x19=0x3b2ab000
        1155000	       114	80000730	018de833	or	x16,x27,x24	 x27:0xc1ad38e6 x24:0x80000000 x16=0xc1ad38e6
        1165000	       115	80000734	01329c63	bne	x5,x19,8000074c	  x5:0x80000000 x19:0x3b2ab000
        1175000	       116	00000000	00000013	addi	x0,x0,0	  x0:0x00000000
        1185000	       117	80000748	00000013	addi	x0,x0,0	  x0:0x00000000
        1195000	       118	8000074c	5150396f	jal	x18,8000074c	 x18=0x8000074c
        1205000	       119	00000000	00000013	addi	x0,x0,0	  x0:0x00000000
        1215000	       120	8000445c	00000013	addi	x0,x0,0	  x0:0x00000000
        1225000	       121	80004460	0036e433	or	x8,x13,x3	 x13:0x00000008  x3:0x00000000  x8=0x00000008
        1235000	       122	80004464	01b78833	add	x16,x15,x27	 x15:0xee13c1e6 x27:0xc1ad38e6 x16=0xafc0facc
        1245000	       123	80004468	00e9e3b3	or	x7,x19,x14	 x19:0x3b2ab000 x14:0x80009f2c  x7=0xbb2abf2c
        1255000	       124	8000446c	fc470713	addi	x14,x14,-60	 x14:0x80009f2c x14=0x80009ef0
        1265000	       125	80004470	8339c993	xori	x19,x19,-1997	 x19:0x3b2ab000 x19=0xc4d54833
        1275000	       126	80004474	007cc333	xor	x6,x25,x7	 x25:0x80009fc4  x7:0xbb2abf2c  x6=0x3b2a20e8
        1285000	       127	80004478	4196de13	srai	x28,x13,0x19	 x13:0x00000008 x28=0x00000000
        1295000	       128	8000447c	01272223	sw	x18,4(x14)	 x14:0x80009ef0 x18:0x8000074c PA:0x80009ef4
        1305000	       129	80004480	f8556193	ori	x3,x10,-123	 x10:0x00004fae  x3=0xffffffaf
        1315000	       130	80004484	40320533	sub	x10,x4,x3	  x4:0x3b2ab000  x3:0xffffffaf x10=0x3b2ab051
        1325000	       131	80004488	0008c9b3	xor	x19,x17,x0	 x17:0x41ad38e6  x0:0x00000000 x19=0x41ad38e6
        1335000	       132	8000448c	ffffc297	auipc	x5,0xffffc	  x5=0x80000488
        1345000	       133	80004490	1a028293	addi	x5,x5,416	  x5:0x80000488  x5=0x80000628
        1355000	       134	80004494	014b8633	add	x12,x23,x20	 x23:0xffe00000 x20:0x00000007 x12=0xffe00007
        1365000	       135	80004498	b1c1c3b7	lui	x7,0xb1c1c	  x7=0xb1c1c000
        1375000	       136	8000449c	01d19533	sll	x10,x3,x29	  x3:0xffffffaf x29:0x00000000 x10=0xffffffaf
        1385000	       137	800044a0	25128293	addi	x5,x5,593	  x5:0x80000628  x5=0x80000879
        1395000	       138	800044a4	007817b3	sll	x15,x16,x7	 x16:0xafc0facc  x7:0xb1c1c000 x15=0xafc0facc
        1405000	       139	800044a8	016f6463	bltu	x30,x22,800044b0	 x30:0x00000009 x22:0xee13c1ed
        1415000	       140	00000000	00000013	addi	x0,x0,0	  x0:0x00000000
        1425000	       141	800044ac	00000013	addi	x0,x0,0	  x0:0x00000000
        1435000	       142	800044b0	db028967	jalr	x18,x5,-592	  x5:0x80000879 x18=0x800044b0
        1445000	       143	00000000	00000013	addi	x0,x0,0	  x0:0x00000000
        1455000	       144	80000628	00000013	addi	x0,x0,0	  x0:0x00000000
        1465000	       145	8000062c	00f205b3	add	x11,x4,x15	  x4:0x3b2ab000 x15:0xafc0facc x11=0xeaebaacc
        1475000	       146	80000630	008d24b3	slt	x9,x26,x8	 x26:0x27917bf7  x8:0x00000008  x9=0x00000000
        1485000	       147	80000634	ff470713	addi	x14,x14,-12	 x14:0x80009ef0 x14=0x80009ee4
        1495000	       148	80000638	4fd20813	addi	x16,x4,1277	  x4:0x3b2ab000 x16=0x3b2ab4fd
        1505000	       149	8000063c	00aa1413	slli	x8,x20,0xa	 x20:0x00000007  x8=0x00001c00
        1515000	       150	80000640	410752b3	sra	x5,x14,x16	 x14:0x80009ee4 x16:0x3b2ab4fd  x5=0xfffffffc
        1525000	       151	80000644	01272223	sw	x18,4(x14)	 x14:0x80009ee4 x18:0x800044b0 PA:0x80009ee8
        1535000	       152	80000648	48e4f613	andi	x12,x9,1166	  x9:0x00000000 x12=0x00000000
        1545000	       153	8000064c	ba996417	auipc	x8,0xba996	  x8=0x3a996648
        1555000	       154	80000650	01a122b3	slt	x5,x2,x26	  x2:0x0027d700 x26:0x27917bf7  x5=0x00000001
        1565000	       155	80000654	00000097	auipc	x1,0x0	  x1=0x80000650
        1575000	       156	80000658	ebc08093	addi	x1,x1,-324	  x1:0x80000650  x1=0x8000050c
        1585000	       157	8000065c	00431b93	slli	x23,x6,0x4	  x6:0x3b2a20e8 x23=0xb2a20e80
        1595000	       158	80000660	e5e08093	addi	x1,x1,-418	  x1:0x8000050c  x1=0x8000036a
        1605000	       159	80000664	01c70863	beq	x14,x28,80000674	 x14:0x80009ee4 x28:0x00000000
        1615000	       160	80000668	418581b3	sub	x3,x11,x24	 x11:0xeaebaacc x24:0x80000000  x3=0x6aebaacc
        1625000	       161	8000066c	010a4133	xor	x2,x20,x16	 x20:0x00000007 x16:0x3b2ab4fd  x2=0x3b2ab4fa
        1635000	       162	80000670	903d2e13	slti	x28,x26,-1789	 x26:0x27917bf7 x28=0x00000000
        1645000	       163	80000674	1a208967	jalr	x18,x1,418	  x1:0x8000036a x18=0x80000674
        1655000	       164	00000000	00000013	addi	x0,x0,0	  x0:0x00000000
        1665000	       165	8000050c	00000013	addi	x0,x0,0	  x0:0x00000000
        1675000	       166	80000510	0012d263	bge	x5,x1,80000514	  x5:0x00000001  x1:0x8000036a
        1685000	       167	00000000	00000013	addi	x0,x0,0	  x0:0x00000000
        1695000	       168	80000510	00000013	addi	x0,x0,0	  x0:0x00000000
        1705000	       169	80000514	fec70713	addi	x14,x14,-20	 x14:0x80009ee4 x14=0x80009ed0
        1715000	       170	80000518	c4dd4f93	xori	x31,x26,-947	 x26:0x27917bf7 x31=0xd86e87ba
        1725000	       171	8000051c	5cfdc213	xori	x4,x27,1487	 x27:0xc1ad38e6  x4=0xc1ad3d29
        1735000	       172	80000520	01272223	sw	x18,4(x14)	 x14:0x80009ed0 x18:0x80000674 PA:0x80009ed4
        1745000	       173	80000524	2f7c8113	addi	x2,x25,759	 x25:0x80009fc4  x2=0x8000a2bb
        1755000	       174	80000528	9cab7e13	andi	x28,x22,-1590	 x22:0xee13c1ed x28=0xee13c1c8
        1765000	       175	8000052c	00f22f33	slt	x30,x4,x15	  x4:0xc1ad3d29 x15:0xafc0facc x30=0x00000000
        1775000	       176	80000530	00005d17	auipc	x26,0x5	 x26=0x8000552c
        1785000	       177	80000534	e88d0d13	addi	x26,x26,-376	 x26:0x8000552c x26=0x800053b4
        1795000	       178	80000538	0054c4b3	xor	x9,x9,x5	  x9:0x00000000  x5:0x00000001  x9=0x00000001
        1805000	       179	8000053c	00b89e33	sll	x28,x17,x11	 x17:0x41ad38e6 x11:0xeaebaacc x28=0xd38e6000
        1815000	       180	80000540	0c1d0d13	addi	x26,x26,193	 x26:0x800053b4 x26=0x80005475
        1825000	       181	80000544	810f2613	slti	x12,x30,-2032	 x30:0x00000000 x12=0x00000000
        1835000	       182	80000548	70cd0293	addi	x5,x26,1804	 x26:0x80005475  x5=0x80005b81
        1845000	       183	8000054c	4059df33	sra	x30,x19,x5	 x19:0x41ad38e6  x5:0x80005b81 x30=0x20d69c73
        1855000	       184	80000550	40f0d313	srai	x6,x1,0xf	  x1:0x8000036a  x6=0xffff0000
        1865000	       185	80000554	01cbfeb3	and	x29,x23,x28	 x23:0xb2a20e80 x28:0xd38e6000 x29=0x92820000
        1875000	       186	80000558	01279463	bne	x15,x18,80000560	 x15:0xafc0facc x18:0x80000674
        1885000	       187	00000000	00000013	addi	x0,x0,0	  x0:0x00000000
        1895000	       188	8000055c	00000013	addi	x0,x0,0	  x0:0x00000000
        1905000	       189	80000560	f3fd0967	jalr	x18,x26,-193	 x26:0x80005475 x18=0x80000560
        1915000	       190	00000000	00000013	addi	x0,x0,0	  x0:0x00000000
        1925000	       191	800053b4	00000013	addi	x0,x0,0	  x0:0x00000000
        1935000	       192	800053b8	20c77517	auipc	x10,0x20c77	 x10=0xa0c7c3b4
        1945000	       193	800053bc	0145ddb3	srl	x27,x11,x20	 x11:0xeaebaacc x20:0x00000007 x27=0x01d5d755
        1955000	       194	800053c0	fc870713	addi	x14,x14,-56	 x14:0x80009ed0 x14=0x80009e98
        1965000	       195	800053c4	001f4633	xor	x12,x30,x1	 x30:0x20d69c73  x1:0x8000036a x12=0xa0d69f19
        1975000	       196	800053c8	00000013	addi	x0,x0,0	  x0:0x00000000
        1985000	       197	800053cc	01272223	sw	x18,4(x14)	 x14:0x80009e98 x18:0x80000560 PA:0x80009e9c
        1995000	       198	800053d0	4057df93	srai	x31,x15,0x5	 x15:0xafc0facc x31=0xfd7e07d6
        2005000	       199	800053d4	402057b3	sra	x15,x0,x2	  x0:0x00000000  x2:0x8000a2bb x15=0x00000000
        2015000	       200	800053d8	00003217	auipc	x4,0x3	  x4=0x800083d4
        2025000	       201	800053dc	e9320213	addi	x4,x4,-365	  x4:0x800083d4  x4=0x80008267
        2035000	       202	800053e0	00265113	srli	x2,x12,0x2	 x12:0xa0d69f19  x2=0x2835a7c6
        2045000	       203	800053e4	f4320723	sb	x3,-178(x4)	  x4:0x80008267  x3:0x6aebaacc PA:0x800081b5
        2055000	       204	800053e8	00b09d33	sll	x26,x1,x11	  x1:0x8000036a x11:0xeaebaacc x26=0x0036a000
        2065000	       205	800053ec	0130ebb3	or	x23,x1,x19	  x1:0x8000036a x19:0x41ad38e6 x23=0xc1ad3bee
        2075000	       206	800053f0	404f08b3	sub	x17,x30,x4	 x30:0x20d69c73  x4:0x80008267 x17=0xa0d61a0c
        2085000	       207	800053f4	01120223	sb	x17,4(x4)	  x4:0x80008267 x17:0xa0d61a0c PA:0x8000826b
        2095000	       208	800053f8	fd6bc413	xori	x8,x23,-42	 x23:0xc1ad3bee  x8=0x3e52c438
        2105000	       209	800053fc	41cbea13	ori	x20,x23,1052	 x23:0xc1ad3bee x20=0xc1ad3ffe
        2115000	       210	80005400	28d9cb13	xori	x22,x19,653	 x19:0x41ad38e6 x22=0x41ad3a6b
        2125000	       211	80005404	4e633793	sltiu	x15,x6,1254	  x6:0xffff0000 x15=0x00000000
        2135000	       212	80005408	03921683	lh	x13,57(x4)	  x4:0x80008267 x13=0x00000000 PA:0x800082a0
        2145000	       213	8000540c	f7620023	sb	x22,-160(x4)	  x4:0x80008267 x22:0x41ad3a6b PA:0x800081c7
        2155000	       214	80005410	0018c433	xor	x8,x17,x1	 x17:0xa0d61a0c  x1:0x8000036a  x8=0x20d61966
        2165000	       215	80005414	53262bb7	lui	x23,0x53262	 x23=0x53262000
        2175000	       216	80005418	09725d83	lhu	x27,151(x4)	  x4:0x80008267 x27=0x00000000 PA:0x800082fe
        2185000	       217	8000541c	01c8d633	srl	x12,x17,x28	 x17:0xa0d61a0c x28:0xd38e6000 x12=0xa0d61a0c
        2195000	       218	80005420	00000013	addi	x0,x0,0	  x0:0x00000000
        2205000	       219	80005424	40345193	srai	x3,x8,0x3	  x8:0x20d61966  x3=0x041ac32c
        2215000	       220	80005428	00859093	slli	x1,x11,0x8	 x11:0xeaebaacc  x1=0xebaacc00
        2225000	       221	8000542c	41ad86b3	sub	x13,x27,x26	 x27:0x00000000 x26:0x0036a000 x13=0xffc96000
        2235000	       222	80005430	43787693	andi	x13,x16,1079	 x16:0x3b2ab4fd x13=0x00000435
        2245000	       223	80005434	47707593	andi	x11,x0,1143	  x0:0x00000000 x11=0x00000000
        2255000	       224	80005438	05d25183	lhu	x3,93(x4)	  x4:0x80008267  x3=0x00000000 PA:0x800082c4
        2265000	       225	8000543c	5cc93b97	auipc	x23,0x5cc93	 x23=0xdcc98438
        2275000	       226	80005440	0166f833	and	x16,x13,x22	 x13:0x00000435 x22:0x41ad3a6b x16=0x00000021
        2285000	       227	80005444	0f224103	lbu	x2,242(x4)	  x4:0x80008267  x2=0x00000000 PA:0x80008359
        2295000	       228	80005448	03224d03	lbu	x26,50(x4)	  x4:0x80008267 x26=0x00000000 PA:0x80008299
        2305000	       229	8000544c	08920383	lb	x7,137(x4)	  x4:0x80008267  x7=0x00000000 PA:0x800082f0
        2315000	       230	00000000	00000013	addi	x0,x0,0	  x0:0x00000000
        2325000	       231	80005450	007c41b3	xor	x3,x24,x7	 x24:0x80000000  x7:0x00000000  x3=0x80000000
        2335000	       232	80005454	f7c20623	sb	x28,-148(x4)	  x4:0x80008267 x28:0xd38e6000 PA:0x800081d3
        2345000	       233	80005458	00003897	auipc	x17,0x3	 x17=0x80008454
        2355000	       234	8000545c	1b488893	addi	x17,x17,436	 x17:0x80008454 x17=0x80008608
        2365000	       235	80005460	003b3933	sltu	x18,x22,x3	 x22:0x41ad3a6b  x3:0x80000000 x18=0x00000001
        2375000	       236	80005464	00289d03	lh	x26,2(x17)	 x17:0x80008608 x26=0x00000000 PA:0x8000860a
        2385000	       237	80005468	5a545097	auipc	x1,0x5a545	  x1=0xda54a464
        2395000	       238	8000546c	00988103	lb	x2,9(x17)	 x17:0x80008608  x2=0x00000000 PA:0x80008611
        2405000	       239	80005470	ff08c083	lbu	x1,-16(x17)	 x17:0x80008608  x1=0x00000000 PA:0x800085f8
        2415000	       240	80005474	01463b33	sltu	x22,x12,x20	 x12:0xa0d61a0c x20:0xc1ad3ffe x22=0x00000001
        2425000	       241	80005478	01ed55b3	srl	x11,x26,x30	 x26:0x00000000 x30:0x20d69c73 x11=0x00000000
        2435000	       242	8000547c	4053d5b3	sra	x11,x7,x5	  x7:0x00000000  x5:0x80005b81 x11=0x00000000
        2445000	       243	80005480	405bdf93	srai	x31,x23,0x5	 x23:0xdcc98438 x31=0xfee64c21
        2455000	       244	80005484	fe288ea3	sb	x2,-3(x17)	 x17:0x80008608  x2:0x00000000 PA:0x80008605
        2465000	       245	80005488	5777a813	slti	x16,x15,1399	 x15:0x00000000 x16=0x00000001
        2475000	       246	8000548c	41a8dd33	sra	x26,x17,x26	 x17:0x80008608 x26:0x00000000 x26=0x80008608
        2485000	       247	80005490	00b8cd83	lbu	x27,11(x17)	 x17:0x80008608 x27=0x00000000 PA:0x80008613
        2495000	       248	00000000	00000013	addi	x0,x0,0	  x0:0x00000000
        2505000	       249	80005494	406ddb93	srai	x23,x27,0x6	 x27:0x00000000 x23=0x00000000
        2515000	       250	80005498	fe188923	sb	x1,-14(x17)	 x17:0x80008608  x1:0x00000000 PA:0x800085fa
        2525000	       251	8000549c	ff78c303	lbu	x6,-9(x17)	 x17:0x80008608  x6=0x00000000 PA:0x800085ff
        2535000	       252	00000000	00000013	addi	x0,x0,0	  x0:0x00000000
        2545000	       253	800054a0	00689583	lh	x11,6(x17)	 x17:0x80008608 x11=0x00000000 PA:0x8000860e
        2555000	       254	800054a4	01b45813	srli	x16,x8,0x1b	  x8:0x20d61966 x16=0x00000004
        2565000	       255	800054a8	445e3e93	sltiu	x29,x28,1093	 x28:0xd38e6000 x29=0x00000000
        2575000	       256	800054ac	73aaba93	sltiu	x21,x21,1850	 x21:0x80000009 x21=0x00000000
        2585000	       257	800054b0	4180d6b3	sra	x13,x1,x24	  x1:0x00000000 x24:0x80000000 x13=0x00000000
        2595000	       258	800054b4	f8feb3b7	lui	x7,0xf8feb	  x7=0xf8feb000
        2605000	       259	800054b8	018789b3	add	x19,x15,x24	 x15:0x00000000 x24:0x80000000 x19=0x80000000
        2615000	       260	800054bc	ff989b23	sh	x25,-10(x17)	 x17:0x80008608 x25:0x80009fc4 PA:0x800085fe
        2625000	       261	800054c0	007b27b3	slt	x15,x22,x7	 x22:0x00000001  x7:0xf8feb000 x15=0x00000000
        2635000	       262	800054c4	00b887a3	sb	x11,15(x17)	 x17:0x80008608 x11:0x00000000 PA:0x80008617
        2645000	       263	800054c8	015881a3	sb	x21,3(x17)	 x17:0x80008608 x21:0x00000000 PA:0x8000860b
        2655000	       264	800054cc	00d88e83	lb	x29,13(x17)	 x17:0x80008608 x29=0x00000000 PA:0x80008615
        2665000	       265	00000000	00000013	addi	x0,x0,0	  x0:0x00000000
        2675000	       266	800054d0	01d93eb3	sltu	x29,x18,x29	 x18:0x00000001 x29:0x00000000 x29=0x00000000
        2685000	       267	800054d4	fee88923	sb	x14,-14(x17)	 x17:0x80008608 x14:0x80009e98 PA:0x800085fa
        2695000	       268	800054d8	41a6d213	srai	x4,x13,0x1a	 x13:0x00000000  x4=0x00000000
        2705000	       269	800054dc	00e89503	lh	x10,14(x17)	 x17:0x80008608 x10=0x00000000 PA:0x80008616
        2715000	       270	800054e0	ffe89a83	lh	x21,-2(x17)	 x17:0x80008608 x21=0x00000000 PA:0x80008606
        2725000	       271	800054e4	a71d3113	sltiu	x2,x26,-1423	 x26:0x80008608  x2=0x00000001
        2735000	       272	800054e8	0058cd03	lbu	x26,5(x17)	 x17:0x80008608 x26=0x00000000 PA:0x8000860d
        2745000	       273	800054ec	acc49b17	auipc	x22,0xacc49	 x22=0x2cc4e4e8
        2755000	       274	800054f0	01a882a3	sb	x26,5(x17)	 x17:0x80008608 x26:0x00000000 PA:0x8000860d
        2765000	       275	800054f4	40b9de13	srai	x28,x19,0xb	 x19:0x80000000 x28=0xfff00000
        2775000	       276	800054f8	00609a93	slli	x21,x1,0x6	  x1:0x00000000 x21=0x00000000
        2785000	       277	800054fc	ff28cb83	lbu	x23,-14(x17)	 x17:0x80008608 x23=0x00000098 PA:0x800085fa
        2795000	       278	80005500	01276db3	or	x27,x14,x18	 x14:0x80009e98 x18:0x00000001 x27=0x80009e99
        2805000	       279	80005504	01b75a13	srli	x20,x14,0x1b	 x14:0x80009e98 x20=0x00000010
        2815000	       280	80005508	ff58c383	lbu	x7,-11(x17)	 x17:0x80008608  x7=0x00000000 PA:0x800085fd
        2825000	       281	8000550c	ff18cd83	lbu	x27,-15(x17)	 x17:0x80008608 x27=0x00000000 PA:0x800085f9
        2835000	       282	80005510	00000013	addi	x0,x0,0	  x0:0x00000000
        2845000	       283	80005514	00788f83	lb	x31,7(x17)	 x17:0x80008608 x31=0x00000000 PA:0x8000860f
        2855000	       284	80005518	ff288ca3	sb	x18,-7(x17)	 x17:0x80008608 x18:0x00000001 PA:0x80008601
        2865000	       285	8000551c	41e509b3	sub	x19,x10,x30	 x10:0x00000000 x30:0x20d69c73 x19=0xdf29638d
        2875000	       286	80005520	007509b3	add	x19,x10,x7	 x10:0x00000000  x7:0x00000000 x19=0x00000000
        2885000	       287	80005524	402fdfb3	sra	x31,x31,x2	 x31:0x00000000  x2:0x00000001 x31=0x00000000
        2895000	       288	80005528	00e8c683	lbu	x13,14(x17)	 x17:0x80008608 x13=0x00000000 PA:0x80008616
        2905000	       289	8000552c	00003817	auipc	x16,0x3	 x16=0x80008528
        2915000	       290	80005530	bd680813	addi	x16,x16,-1066	 x16:0x80008528 x16=0x800080fe
        2925000	       291	80005534	0f881583	lh	x11,248(x16)	 x16:0x800080fe x11=0x00000000 PA:0x800081f6
        2935000	       292	80005538	0d784d83	lbu	x27,215(x16)	 x16:0x800080fe x27=0x00000000 PA:0x800081d5
        2945000	       293	8000553c	06981e23	sh	x9,124(x16)	 x16:0x800080fe  x9:0x00000001 PA:0x8000817a
        2955000	       294	80005540	005728b3	slt	x17,x14,x5	 x14:0x80009e98  x5:0x80005b81 x17=0x00000000
        2965000	       295	80005544	0da808a3	sb	x26,209(x16)	 x16:0x800080fe x26:0x00000000 PA:0x800081cf
        2975000	       296	80005548	7c593113	sltiu	x2,x18,1989	 x18:0x00000001  x2=0x00000001
        2985000	       297	8000554c	00f816b3	sll	x13,x16,x15	 x16:0x800080fe x15:0x00000000 x13=0x800080fe
        2995000	       298	80005550	fc284383	lbu	x7,-62(x16)	 x16:0x800080fe  x7=0x00000000 PA:0x800080c0
        3005000	       299	80005554	f74801a3	sb	x20,-157(x16)	 x16:0x800080fe x20:0x00000010 PA:0x80008061
        3015000	       300	80005558	6acace13	xori	x28,x21,1708	 x21:0x00000000 x28=0x000006ac
        3025000	       301	8000555c	f6f81e23	sh	x15,-132(x16)	 x16:0x800080fe x15:0x00000000 PA:0x8000807a
        3035000	       302	80005560	413b5993	srai	x19,x22,0x13	 x22:0x2cc4e4e8 x19=0x00000598
        3045000	       303	80005564	0e882123	sw	x8,226(x16)	 x16:0x800080fe  x8:0x20d61966 PA:0x800081e0
        3055000	       304	80005568	0105d413	srli	x8,x11,0x10	 x11:0x00000000  x8=0x00000000
        3065000	       305	8000556c	00000013	addi	x0,x0,0	  x0:0x00000000
        3075000	       306	80005570	fb380503	lb	x10,-77(x16)	 x16:0x800080fe x10=0x00000000 PA:0x800080b1
        3085000	       307	80005574	00fb50b3	srl	x1,x22,x15	 x22:0x2cc4e4e8 x15:0x00000000  x1=0x2cc4e4e8
        3095000	       308	80005578	03282003	lw	x0,50(x16)	 x16:0x800080fe PA:0x80008130
        3105000	       309	8000557c	41c2d293	srai	x5,x5,0x1c	  x5:0x80005b81  x5=0xfffffff8
        3115000	       310	80005580	0e380ea3	sb	x3,253(x16)	 x16:0x800080fe  x3:0x80000000 PA:0x800081fb
        3125000	       311	80005584	40a0d893	srai	x17,x1,0xa	  x1:0x2cc4e4e8 x17=0x000b3139
        3135000	       312	80005588	055806a3	sb	x21,77(x16)	 x16:0x800080fe x21:0x00000000 PA:0x8000814b
        3145000	       313	8000558c	00003117	auipc	x2,0x3	  x2=0x80008588
        3155000	       314	80005590	20d10113	addi	x2,x2,525	  x2:0x80008588  x2=0x80008795
        3165000	       315	80005594	409f5d93	srai	x27,x30,0x9	 x30:0x20d69c73 x27=0x00106b4e
        3175000	       316	80005598	00310023	sb	x3,0(x2)	  x2:0x80008795  x3:0x80000000 PA:0x80008795
        3185000	       317	8000559c	548e6b97	auipc	x23,0x548e6	 x23=0xd48eb598
        3195000	       318	800055a0	0184d7b3	srl	x15,x9,x24	  x9:0x00000001 x24:0x80000000 x15=0x00000001
        3205000	       319	800055a4	ff711003	lh	x0,-9(x2)	  x2:0x80008795 PA:0x8000878c
        3215000	       320	800055a8	016be333	or	x6,x23,x22	 x23:0xd48eb598 x22:0x2cc4e4e8  x6=0xfccef5f8
        3225000	       321	800055ac	00e41d13	slli	x26,x8,0xe	  x8:0x00000000 x26=0x00000000
        3235000	       322	800055b0	00010403	lb	x8,0(x2)	  x2:0x80008795  x8=0x00000000 PA:0x80008795
        3245000	       323	800055b4	41e6d9b3	sra	x19,x13,x30	 x13:0x800080fe x30:0x20d69c73 x19=0xfffff000
        3255000	       324	800055b8	00e10a83	lb	x21,14(x2)	  x2:0x80008795 x21=0x00000000 PA:0x800087a3
        3265000	       325	800055bc	c721ed13	ori	x26,x3,-910	  x3:0x80000000 x26=0xfffffc72
        3275000	       326	800055c0	997cb417	auipc	x8,0x997cb	  x8=0x197d05bc
        3285000	       327	800055c4	00a10783	lb	x15,10(x2)	  x2:0x80008795 x15=0x00000000 PA:0x8000879f
        3295000	       328	800055c8	01f25033	srl	x0,x4,x31	  x4:0x00000000 x31:0x00000000
        3305000	       329	800055cc	00d9bab3	sltu	x21,x19,x13	 x19:0xfffff000 x13:0x800080fe x21=0x00000000
        3315000	       330	800055d0	fef10e23	sb	x15,-4(x2)	  x2:0x80008795 x15:0x00000000 PA:0x80008791
        3325000	       331	800055d4	00b10983	lb	x19,11(x2)	  x2:0x80008795 x19=0x00000000 PA:0x800087a0
        3335000	       332	800055d8	ffa14883	lbu	x17,-6(x2)	  x2:0x80008795 x17=0x00000000 PA:0x8000878f
        3345000	       333	800055dc	ffd15183	lhu	x3,-3(x2)	  x2:0x80008795  x3=0x00000000 PA:0x80008792
        3355000	       334	800055e0	0139d013	srli	x0,x19,0x13	 x19:0x00000000
        3365000	       335	800055e4	00810a03	lb	x20,8(x2)	  x2:0x80008795 x20=0x00000000 PA:0x8000879d
        3375000	       336	800055e8	01cadf13	srli	x30,x21,0x1c	 x21:0x00000000 x30=0x00000000
        3385000	       337	800055ec	00ced7b3	srl	x15,x29,x12	 x29:0x00000000 x12:0xa0d61a0c x15=0x00000000
        3395000	       338	800055f0	00110223	sb	x1,4(x2)	  x2:0x80008795  x1:0x2cc4e4e8 PA:0x80008799
        3405000	       339	800055f4	ff910e03	lb	x28,-7(x2)	  x2:0x80008795 x28=0x00000000 PA:0x8000878e
        3415000	       340	800055f8	015116a3	sh	x21,13(x2)	  x2:0x80008795 x21:0x00000000 PA:0x800087a2
        3425000	       341	800055fc	22828213	addi	x4,x5,552	  x5:0xfffffff8  x4=0x00000220
        3435000	       342	80005600	00b10d83	lb	x27,11(x2)	  x2:0x80008795 x27=0x00000000 PA:0x800087a0
        3445000	       343	80005604	014ac833	xor	x16,x21,x20	 x21:0x00000000 x20:0x00000000 x16=0x00000000
        3455000	       344	80005608	0186fa33	and	x20,x13,x24	 x13:0x800080fe x24:0x80000000 x20=0x80000000
        3465000	       345	8000560c	c5f98313	addi	x6,x19,-929	 x19:0x00000000  x6=0xfffffc5f
        3475000	       346	80005610	01e824b3	slt	x9,x16,x30	 x16:0x00000000 x30:0x00000000  x9=0x00000000
        3485000	       347	80005614	00d4bdb3	sltu	x27,x9,x13	  x9:0x00000000 x13:0x800080fe x27=0x00000001
        3495000	       348	80005618	00210683	lb	x13,2(x2)	  x2:0x80008795 x13=0x00000000 PA:0x80008797
        3505000	       349	8000561c	315a7d13	andi	x26,x20,789	 x20:0x80000000 x26=0x00000000
        3515000	       350	80005620	b3763b93	sltiu	x23,x12,-1225	 x12:0xa0d61a0c x23=0x00000001
        3525000	       351	80005624	00000013	addi	x0,x0,0	  x0:0x00000000
        3535000	       352	80005628	3d71b093	sltiu	x1,x3,983	  x3:0x00000000  x1=0x00000001
        3545000	       353	8000562c	db334513	xori	x10,x6,-589	  x6:0xfffffc5f x10=0x000001ec
        3555000	       354	80005630	8e3f5817	auipc	x16,0x8e3f5	 x16=0x0e3fa62c
        3565000	       355	80005634	81354d93	xori	x27,x10,-2029	 x10:0x000001ec x27=0xfffff9ff
        3575000	       356	80005638	01333933	sltu	x18,x6,x19	  x6:0xfffffc5f x19:0x00000000 x18=0x00000000
        3585000	       357	8000563c	c2fe2f93	slti	x31,x28,-977	 x28:0x00000000 x31=0x00000000
        3595000	       358	80005640	40268233	sub	x4,x13,x2	 x13:0x00000000  x2:0x80008795  x4=0x7fff786b
        3605000	       359	80005644	95e5ab93	slti	x23,x11,-1698	 x11:0x00000000 x23=0x00000000
        3615000	       360	80005648	ff110a23	sb	x17,-12(x2)	  x2:0x80008795 x17:0x00000000 PA:0x80008789
        3625000	       361	8000564c	00003117	auipc	x2,0x3	  x2=0x80008648
        3635000	       362	80005650	f9d10113	addi	x2,x2,-99	  x2:0x80008648  x2=0x800085e5
        3645000	       363	80005654	b7b87897	auipc	x17,0xb7b87	 x17=0x37b8c650
        3655000	       364	80005658	835e02b7	lui	x5,0x835e0	  x5=0x835e0000
        3665000	       365	8000565c	16d14403	lbu	x8,365(x2)	  x2:0x800085e5  x8=0x00000000 PA:0x80008752
        3675000	       366	80005660	011c2533	slt	x10,x24,x17	 x24:0x80000000 x17:0x37b8c650 x10=0x00000001
        3685000	       367	80005664	ef167013	andi	x0,x12,-271	 x12:0xa0d61a0c
        3695000	       368	80005668	ede14603	lbu	x12,-290(x2)	  x2:0x800085e5 x12=0x00000000 PA:0x800084c3
        3705000	       369	8000566c	4039ddb3	sra	x27,x19,x3	 x19:0x00000000  x3:0x00000000 x27=0x00000000
        3715000	       370	80005670	e4384493	xori	x9,x16,-445	 x16:0x0e3fa62c  x9=0xf1c0586f
        3725000	       371	80005674	23210a03	lb	x20,562(x2)	  x2:0x800085e5 x20=0x00000000 PA:0x80008817
        3735000	       372	80005678	ef114983	lbu	x19,-271(x2)	  x2:0x800085e5 x19=0x00000000 PA:0x800084d6
        3745000	       373	8000567c	008ff233	and	x4,x31,x8	 x31:0x00000000  x8:0x00000000  x4=0x00000000
        3755000	       374	80005680	22610b83	lb	x23,550(x2)	  x2:0x800085e5 x23=0x00000000 PA:0x8000880b
        3765000	       375	00000000	00000013	addi	x0,x0,0	  x0:0x00000000
        3775000	       376	80005684	164bf093	andi	x1,x23,356	 x23:0x00000000  x1=0x00000000
        3785000	       377	80005688	cc014603	lbu	x12,-832(x2)	  x2:0x800085e5 x12=0x00000000 PA:0x800082a5
        3795000	       378	8000568c	cc284813	xori	x16,x16,-830	 x16:0x0e3fa62c x16=0xf1c05aee
        3805000	       379	80005690	004e1b93	slli	x23,x28,0x4	 x28:0x00000000 x23=0x00000000
        3815000	       380	80005694	b341eab7	lui	x21,0xb341e	 x21=0xb341e000
        3825000	       381	80005698	03f10123	sb	x31,34(x2)	  x2:0x800085e5 x31:0x00000000 PA:0x80008607
        3835000	       382	8000569c	e0d58b93	addi	x23,x11,-499	 x11:0x00000000 x23=0xfffffe0d
        3845000	       383	800056a0	007a50b3	srl	x1,x20,x7	 x20:0x00000000  x7:0x00000000  x1=0x00000000
        3855000	       384	800056a4	05e72b17	auipc	x22,0x5e72	 x22=0x85e776a0
        3865000	       385	800056a8	418553b3	sra	x7,x10,x24	 x10:0x00000001 x24:0x80000000  x7=0x00000001
        3875000	       386	800056ac	2c1f4013	xori	x0,x30,705	 x30:0x00000000
        3885000	       387	800056b0	b7d11983	lh	x19,-1155(x2)	  x2:0x800085e5 x19=0x00000000 PA:0x80008162
        3895000	       388	800056b4	0086a933	slt	x18,x13,x8	 x13:0x00000000  x8:0x00000000 x18=0x00000000
        3905000	       389	800056b8	41ecdd33	sra	x26,x25,x30	 x25:0x80009fc4 x30:0x00000000 x26=0x80009fc4
        3915000	       390	800056bc	0104ef33	or	x30,x9,x16	  x9:0xf1c0586f x16:0xf1c05aee x30=0xf1c05aef
        3925000	       391	800056c0	00000013	addi	x0,x0,0	  x0:0x00000000
        3935000	       392	800056c4	003a3033	sltu	x0,x20,x3	 x20:0x00000000  x3:0x00000000
        3945000	       393	800056c8	00b15e33	srl	x28,x2,x11	  x2:0x800085e5 x11:0x00000000 x28=0x800085e5
        3955000	       394	800056cc	e3d11383	lh	x7,-451(x2)	  x2:0x800085e5  x7=0x00000000 PA:0x80008422
        3965000	       395	800056d0	6ec1c413	xori	x8,x3,1772	  x3:0x00000000  x8=0x000006ec
        3975000	       396	800056d4	01ea3333	sltu	x6,x20,x30	 x20:0x00000000 x30:0xf1c05aef  x6=0x00000001
        3985000	       397	800056d8	59595297	auipc	x5,0x59595	  x5=0xd959a6d4
        3995000	       398	800056dc	f5058913	addi	x18,x11,-176	 x11:0x00000000 x18=0xffffff50
        4005000	       399	800056e0	412a55b3	sra	x11,x20,x18	 x20:0x00000000 x18:0xffffff50 x11=0x00000000
        4015000	       400	800056e4	412f59b3	sra	x19,x30,x18	 x30:0xf1c05aef x18:0xffffff50 x19=0xfffff1c0
        4025000	       401	800056e8	0f810803	lb	x16,248(x2)	  x2:0x800085e5 x16=0x00000000 PA:0x800086dd
        4035000	       402	800056ec	f240c393	xori	x7,x1,-220	  x1:0x00000000  x7=0xffffff24
        4045000	       403	800056f0	c9915d83	lhu	x27,-871(x2)	  x2:0x800085e5 x27=0x00000000 PA:0x8000827e
        4055000	       404	800056f4	cc9c3813	sltiu	x16,x24,-823	 x24:0x80000000 x16=0x00000001
        4065000	       405	800056f8	aae10da3	sb	x14,-1349(x2)	  x2:0x800085e5 x14:0x80009e98 PA:0x800080a0
        4075000	       406	800056fc	00003117	auipc	x2,0x3	  x2=0x800086f8
        4085000	       407	80005700	6d210113	addi	x2,x2,1746	  x2:0x800086f8  x2=0x80008dca
        4095000	       408	80005704	fea10b83	lb	x23,-22(x2)	  x2:0x80008dca x23=0x00000000 PA:0x80008db4
        4105000	       409	80005708	fb2a0537	lui	x10,0xfb2a0	 x10=0xfb2a0000
        4115000	       410	8000570c	a578e413	ori	x8,x17,-1449	 x17:0x37b8c650  x8=0xfffffe57
        4125000	       411	80005710	02810d83	lb	x27,40(x2)	  x2:0x80008dca x27=0x00000000 PA:0x80008df2
        4135000	       412	80005714	d51e3f93	sltiu	x31,x28,-687	 x28:0x800085e5 x31=0x00000001
        4145000	       413	80005718	08611583	lh	x11,134(x2)	  x2:0x80008dca x11=0x00000000 PA:0x80008e50
        4155000	       414	8000571c	01410aa3	sb	x20,21(x2)	  x2:0x80008dca x20:0x00000000 PA:0x80008ddf
        4165000	       415	80005720	f9914b83	lbu	x23,-103(x2)	  x2:0x80008dca x23=0x00000000 PA:0x80008d63
        4175000	       416	80005724	0022af33	slt	x30,x5,x2	  x5:0xd959a6d4  x2:0x80008dca x30=0x00000000
        4185000	       417	80005728	408cd013	srai	x0,x25,0x8	 x25:0x80009fc4
        4195000	       418	8000572c	403d5e33	sra	x28,x26,x3	 x26:0x80009fc4  x3:0x00000000 x28=0x80009fc4
        4205000	       419	80005730	438b3517	auipc	x10,0x438b3	 x10=0xc38b872c
        4215000	       420	80005734	4023d833	sra	x16,x7,x2	  x7:0xffffff24  x2:0x80008dca x16=0xffffffff
        4225000	       421	80005738	f6511023	sh	x5,-160(x2)	  x2:0x80008dca  x5:0xd959a6d4 PA:0x80008d2a
        4235000	       422	8000573c	f1d14b03	lbu	x22,-227(x2)	  x2:0x80008dca x22=0x00000000 PA:0x80008ce7
        4245000	       423	80005740	01e2b9b3	sltu	x19,x5,x30	  x5:0xd959a6d4 x30:0x00000000 x19=0x00000000
        4255000	       424	80005744	f9b10e23	sb	x27,-100(x2)	  x2:0x80008dca x27:0x00000000 PA:0x80008d66
        4265000	       425	80005748	f8f14083	lbu	x1,-113(x2)	  x2:0x80008dca  x1=0x00000000 PA:0x80008d59
        4275000	       426	8000574c	0b615803	lhu	x16,182(x2)	  x2:0x80008dca x16=0x00000000 PA:0x80008e80
        4285000	       427	80005750	e67d4393	xori	x7,x26,-409	 x26:0x80009fc4  x7=0x7fff61a3
        4295000	       428	80005754	f04105a3	sb	x4,-245(x2)	  x2:0x80008dca  x4:0x00000000 PA:0x80008cd5
        4305000	       429	80005758	ff010e03	lb	x28,-16(x2)	  x2:0x80008dca x28=0x00000000 PA:0x80008dba
        4315000	       430	8000575c	0b610e23	sb	x22,188(x2)	  x2:0x80008dca x22:0x00000000 PA:0x80008e86
        4325000	       431	80005760	000626b3	slt	x13,x12,x0	 x12:0x00000000  x0:0x00000000 x13=0x00000000
        4335000	       432	80005764	fc810383	lb	x7,-56(x2)	  x2:0x80008dca  x7=0x00000000 PA:0x80008d92
        4345000	       433	80005768	00b764b3	or	x9,x14,x11	 x14:0x80009e98 x11:0x00000000  x9=0x80009e98
        4355000	       434	8000576c	faf10d83	lb	x27,-81(x2)	  x2:0x80008dca x27=0x00000000 PA:0x80008d79
        4365000	       435	80005770	012ada33	srl	x20,x21,x18	 x21:0xb341e000 x18:0xffffff50 x20=0x0000b341
        4375000	       436	80005774	dd8de817	auipc	x16,0xdd8de	 x16=0x5d8e3770
        4385000	       437	80005778	07d14483	lbu	x9,125(x2)	  x2:0x80008dca  x9=0x00000000 PA:0x80008e47
        4395000	       438	8000577c	01714403	lbu	x8,23(x2)	  x2:0x80008dca  x8=0x00000000 PA:0x80008de1
        4405000	       439	80005780	0ed14303	lbu	x6,237(x2)	  x2:0x80008dca  x6=0x00000000 PA:0x80008eb7
        4415000	       440	80005784	09f53493	sltiu	x9,x10,159	 x10:0xc38b872c  x9=0x00000000
        4425000	       441	80005788	1e254d93	xori	x27,x10,482	 x10:0xc38b872c x27=0xc38b86ce
        4435000	       442	8000578c	f0212d03	lw	x26,-254(x2)	  x2:0x80008dca x26=0x00000000 PA:0x80008ccc
        4445000	       443	80005790	02714683	lbu	x13,39(x2)	  x2:0x80008dca x13=0x00000000 PA:0x80008df1
        4455000	       444	80005794	413ede33	sra	x28,x29,x19	 x29:0x00000000 x19:0x00000000 x28=0x00000000
        4465000	       445	80005798	fc1109a3	sb	x1,-45(x2)	  x2:0x80008dca  x1:0x00000000 PA:0x80008d9d
        4475000	       446	8000579c	f1210a03	lb	x20,-238(x2)	  x2:0x80008dca x20=0x00000000 PA:0x80008cdc
        4485000	       447	800057a0	00000013	addi	x0,x0,0	  x0:0x00000000
        4495000	       448	800057a4	004712b3	sll	x5,x14,x4	 x14:0x80009e98  x4:0x00000000  x5=0x80009e98
        4505000	       449	800057a8	9362a597	auipc	x11,0x9362a	 x11=0x1362f7a4
        4515000	       450	800057ac	03011f83	lh	x31,48(x2)	  x2:0x80008dca x31=0x00000000 PA:0x80008dfa
        4525000	       451	800057b0	01910283	lb	x5,25(x2)	  x2:0x80008dca  x5=0x00000000 PA:0x80008de3
        4535000	       452	800057b4	05e15a03	lhu	x20,94(x2)	  x2:0x80008dca x20=0x00000000 PA:0x80008e28
        4545000	       453	800057b8	91542f13	slti	x30,x8,-1771	  x8:0x00000000 x30=0x00000000
        4555000	       454	800057bc	007a04b3	add	x9,x20,x7	 x20:0x00000000  x7:0x00000000  x9=0x00000000
        4565000	       455	800057c0	f48108a3	sb	x8,-175(x2)	  x2:0x80008dca  x8:0x00000000 PA:0x80008d1b
        4575000	       456	800057c4	00311123	sh	x3,2(x2)	  x2:0x80008dca  x3:0x00000000 PA:0x80008dcc
        4585000	       457	800057c8	0ae15283	lhu	x5,174(x2)	  x2:0x80008dca  x5=0x00000000 PA:0x80008e78
        4595000	       458	800057cc	00003497	auipc	x9,0x3	  x9=0x800087c8
        4605000	       459	800057d0	e8048493	addi	x9,x9,-384	  x9:0x800087c8  x9=0x80008648
        4615000	       460	800057d4	fd04cb83	lbu	x23,-48(x9)	  x9:0x80008648 x23=0x00000000 PA:0x80008618
        4625000	       461	800057d8	010880b3	add	x1,x17,x16	 x17:0x37b8c650 x16:0x5d8e3770  x1=0x9546fdc0
        4635000	       462	800057dc	00f093b3	sll	x7,x1,x15	  x1:0x9546fdc0 x15:0x00000000  x7=0x9546fdc0
        4645000	       463	800057e0	fc848903	lb	x18,-56(x9)	  x9:0x80008648 x18=0x00000000 PA:0x80008610
        4655000	       464	800057e4	08c49123	sh	x12,130(x9)	  x9:0x80008648 x12:0x00000000 PA:0x800086ca
        4665000	       465	800057e8	01fe56b3	srl	x13,x28,x31	 x28:0x00000000 x31:0x00000000 x13=0x00000000
        4675000	       466	800057ec	f8049023	sh	x0,-128(x9)	  x9:0x80008648  x0:0x00000000 PA:0x800085c8
        4685000	       467	800057f0	08948383	lb	x7,137(x9)	  x9:0x80008648  x7=0x00000000 PA:0x800086d1
        4695000	       468	800057f4	019b16b3	sll	x13,x22,x25	 x22:0x00000000 x25:0x80009fc4 x13=0x00000000
        4705000	       469	800057f8	00dd08b3	add	x17,x26,x13	 x26:0x00000000 x13:0x00000000 x17=0x00000000
        4715000	       470	800057fc	3b7d0693	addi	x13,x26,951	 x26:0x00000000 x13=0x000003b7
        4725000	       471	80005800	6ce68813	addi	x16,x13,1742	 x13:0x000003b7 x16=0x00000a85
        4735000	       472	80005804	00e91b13	slli	x22,x18,0xe	 x18:0x00000000 x22=0x00000000
        4745000	       473	80005808	f234c383	lbu	x7,-221(x9)	  x9:0x80008648  x7=0x00000000 PA:0x8000856b
        4755000	       474	8000580c	405f5333	sra	x6,x30,x5	 x30:0x00000000  x5:0x00000000  x6=0x00000000
        4765000	       475	80005810	d5a08697	auipc	x13,0xd5a08	 x13=0x55a0d80c
        4775000	       476	80005814	2f620313	addi	x6,x4,758	  x4:0x00000000  x6=0x000002f6
        4785000	       477	80005818	406155b3	sra	x11,x2,x6	  x2:0x80008dca  x6:0x000002f6 x11=0xfffffe00
        4795000	       478	8000581c	f334c603	lbu	x12,-205(x9)	  x9:0x80008648 x12=0x00000000 PA:0x8000857b
        4805000	       479	80005820	0f9480a3	sb	x25,225(x9)	  x9:0x80008648 x25:0x80009fc4 PA:0x80008729
        4815000	       480	80005824	a9f8cf13	xori	x30,x17,-1377	 x17:0x00000000 x30=0xfffffa9f
        4825000	       481	80005828	f9b48503	lb	x10,-101(x9)	  x9:0x80008648 x10=0x00000000 PA:0x800085e3
        4835000	       482	8000582c	70632213	slti	x4,x6,1798	  x6:0x000002f6  x4=0x00000001
        4845000	       483	80005830	01e19e33	sll	x28,x3,x30	  x3:0x00000000 x30:0xfffffa9f x28=0x00000000
        4855000	       484	80005834	00451133	sll	x2,x10,x4	 x10:0x00000000  x4:0x00000001  x2=0x00000000
        4865000	       485	80005838	9f760f93	addi	x31,x12,-1545	 x12:0x00000000 x31=0xfffff9f7
        4875000	       486	8000583c	03548003	lb	x0,53(x9)	  x9:0x80008648 PA:0x8000867d
        4885000	       487	80005840	018bba33	sltu	x20,x23,x24	 x23:0x00000000 x24:0x80000000 x20=0x00000001
        4895000	       488	80005844	002d1db3	sll	x27,x26,x2	 x26:0x00000000  x2:0x00000000 x27=0x00000000
        4905000	       489	80005848	f6f48683	lb	x13,-145(x9)	  x9:0x80008648 x13=0x00000000 PA:0x800085b7
        4915000	       490	8000584c	0a14c003	lbu	x0,161(x9)	  x9:0x80008648 PA:0x800086e9
        4925000	       491	80005850	9ead7793	andi	x15,x26,-1558	 x26:0x00000000 x15=0x00000000
        4935000	       492	80005854	a6724993	xori	x19,x4,-1433	  x4:0x00000001 x19=0xfffffa66
        4945000	       493	80005858	408a5db3	sra	x27,x20,x8	 x20:0x00000001  x8:0x00000000 x27=0x00000001
        4955000	       494	8000585c	01e41133	sll	x2,x8,x30	  x8:0x00000000 x30:0xfffffa9f  x2=0x00000000
        4965000	       495	80005860	002419b3	sll	x19,x8,x2	  x8:0x00000000  x2:0x00000000 x19=0x00000000
        4975000	       496	80005864	2960e293	ori	x5,x1,662	  x1:0x9546fdc0  x5=0x9546ffd6
        4985000	       497	80005868	00210fb3	add	x31,x2,x2	  x2:0x00000000  x2:0x00000000 x31=0x00000000
        4995000	       498	8000586c	02d48303	lb	x6,45(x9)	  x9:0x80008648  x6=0x00000000 PA:0x80008675
        5005000	       499	80005870	01f669b3	or	x19,x12,x31	 x12:0x00000000 x31:0x00000000 x19=0x00000000
        5015000	       500	80005874	00a41633	sll	x12,x8,x10	  x8:0x00000000 x10:0x00000000 x12=0x00000000
        5025000	       501	80005878	0244cd83	lbu	x27,36(x9)	  x9:0x80008648 x27=0x00000000 PA:0x8000866c
        5035000	       502	8000587c	411257b3	sra	x15,x4,x17	  x4:0x00000001 x17:0x00000000 x15=0x00000001
        5045000	       503	80005880	015446b3	xor	x13,x8,x21	  x8:0x00000000 x21:0xb341e000 x13=0xb341e000
        5055000	       504	80005884	415cd013	srai	x0,x25,0x15	 x25:0x80009fc4
        5065000	       505	80005888	fbe0f993	andi	x19,x1,-66	  x1:0x9546fdc0 x19=0x9546fd80
        5075000	       506	8000588c	2efabd13	sltiu	x26,x21,751	 x21:0xb341e000 x26=0x00000000
        5085000	       507	80005890	00c35f93	srli	x31,x6,0xc	  x6:0x00000000 x31=0x00000000
        5095000	       508	80005894	e7def897	auipc	x17,0xe7def	 x17=0x67df4890
        5105000	       509	80005898	03cd9c63	bne	x27,x28,800058d0	 x27:0x00000000 x28:0x00000000
        5115000	       510	8000589c	414581b3	sub	x3,x11,x20	 x11:0xfffffe00 x20:0x00000001  x3=0xfffffdff
        5125000	       511	800058a0	80754313	xori	x6,x10,-2041	 x10:0x00000000  x6=0xfffff807
        5135000	       512	800058a4	00336a63	bltu	x6,x3,800058b8	  x6:0xfffff807  x3:0xfffffdff
        5145000	       513	00000000	00000013	addi	x0,x0,0	  x0:0x00000000
        5155000	       514	800058b4	00000013	addi	x0,x0,0	  x0:0x00000000
        5165000	       515	800058b8	ac0d2313	slti	x6,x26,-1344	 x26:0x00000000  x6=0x00000000
        5175000	       516	800058bc	04895463	bge	x18,x8,80005904	 x18:0x00000000  x8:0x00000000
        5185000	       517	00000000	00000013	addi	x0,x0,0	  x0:0x00000000
        5195000	       518	80005900	00000013	addi	x0,x0,0	  x0:0x00000000
        5205000	       519	80005904	10af4693	xori	x13,x30,266	 x30:0xfffffa9f x13=0xfffffb95
        5215000	       520	80005908	8c31a893	slti	x17,x3,-1853	  x3:0xfffffdff x17=0x00000000
        5225000	       521	8000590c	00ffc9b3	xor	x19,x31,x15	 x31:0x00000000 x15:0x00000001 x19=0x00000001
        5235000	       522	80005910	01a66463	bltu	x12,x26,80005918	 x12:0x00000000 x26:0x00000000
        5245000	       523	80005914	41aad613	srai	x12,x21,0x1a	 x21:0xb341e000 x12=0xffffffec
        5255000	       524	80005918	00000013	addi	x0,x0,0	  x0:0x00000000
        5265000	       525	8000591c	05331063	bne	x6,x19,8000595c	  x6:0x00000000 x19:0x00000001
        5275000	       526	00000000	00000013	addi	x0,x0,0	  x0:0x00000000
        5285000	       527	80005958	00000013	addi	x0,x0,0	  x0:0x00000000
        5295000	       528	8000595c	0153fa63	bgeu	x7,x21,80005970	  x7:0x00000000 x21:0xb341e000
        5305000	       529	80005960	14e57493	andi	x9,x10,334	 x10:0x00000000  x9=0x00000000
        5315000	       530	80005964	04d34463	blt	x6,x13,800059ac	  x6:0x00000000 x13:0xfffffb95
        5325000	       531	80005968	00815a63	bge	x2,x8,8000597c	  x2:0x00000000  x8:0x00000000
        5335000	       532	00000000	00000013	addi	x0,x0,0	  x0:0x00000000
        5345000	       533	80005978	00000013	addi	x0,x0,0	  x0:0x00000000
        5355000	       534	8000597c	6d040193	addi	x3,x8,1744	  x8:0x00000000  x3=0x000006d0
        5365000	       535	80005980	00a7c433	xor	x8,x15,x10	 x15:0x00000001 x10:0x00000000  x8=0x00000001
        5375000	       536	80005984	89a19637	lui	x12,0x89a19	 x12=0x89a19000
        5385000	       537	80005988	0097c3b3	xor	x7,x15,x9	 x15:0x00000001  x9:0x00000000  x7=0x00000001
        5395000	       538	8000598c	00c3fdb3	and	x27,x7,x12	  x7:0x00000001 x12:0x89a19000 x27=0x00000000
        5405000	       539	80005990	00000013	addi	x0,x0,0	  x0:0x00000000
        5415000	       540	80005994	047ef663	bgeu	x29,x7,800059e0	 x29:0x00000000  x7:0x00000001
        5425000	       541	80005998	69c4e693	ori	x13,x9,1692	  x9:0x00000000 x13=0x0000069c
        5435000	       542	8000599c	403c5f33	sra	x30,x24,x3	 x24:0x80000000  x3:0x000006d0 x30=0xffff8000
        5445000	       543	800059a0	03b51a63	bne	x10,x27,800059d4	 x10:0x00000000 x27:0x00000000
        5455000	       544	800059a4	41d4d593	srai	x11,x9,0x1d	  x9:0x00000000 x11=0x00000000
        5465000	       545	800059a8	003a5813	srli	x16,x20,0x3	 x20:0x00000001 x16=0x00000000
        5475000	       546	800059ac	00f149b3	xor	x19,x2,x15	  x2:0x00000000 x15:0x00000001 x19=0x00000001
        5485000	       547	800059b0	00020463	beq	x4,x0,800059b8	  x4:0x00000001  x0:0x00000000
        5495000	       548	800059b4	00d0e1b3	or	x3,x1,x13	  x1:0x9546fdc0 x13:0x0000069c  x3=0x9546ffdc
        5505000	       549	800059b8	40f28433	sub	x8,x5,x15	  x5:0x9546ffd6 x15:0x00000001  x8=0x9546ffd5
        5515000	       550	800059bc	007a5b93	srli	x23,x20,0x7	 x20:0x00000001 x23=0x00000000
        5525000	       551	800059c0	0018e0b3	or	x1,x17,x1	 x17:0x00000000  x1:0x9546fdc0  x1=0x9546fdc0
        5535000	       552	800059c4	41350333	sub	x6,x10,x19	 x10:0x00000000 x19:0x00000001  x6=0xffffffff
        5545000	       553	800059c8	605e3093	sltiu	x1,x28,1541	 x28:0x00000000  x1=0x00000001
        5555000	       554	800059cc	0060c863	blt	x1,x6,800059dc	  x1:0x00000001  x6:0xffffffff
        5565000	       555	800059d0	00e85a33	srl	x20,x16,x14	 x16:0x00000000 x14:0x80009e98 x20=0x00000000
        5575000	       556	800059d4	01920a33	add	x20,x4,x25	  x4:0x00000001 x25:0x80009fc4 x20=0x80009fc5
        5585000	       557	800059d8	41375993	srai	x19,x14,0x13	 x14:0x80009e98 x19=0xfffff000
        5595000	       558	800059dc	941fad13	slti	x26,x31,-1727	 x31:0x00000000 x26=0x00000000
        5605000	       559	800059e0	006249b3	xor	x19,x4,x6	  x4:0x00000001  x6:0xffffffff x19=0xfffffffe
        5615000	       560	800059e4	025cdc63	bge	x25,x5,80005a1c	 x25:0x80009fc4  x5:0x9546ffd6
        5625000	       561	800059e8	4072da93	srai	x21,x5,0x7	  x5:0x9546ffd6 x21=0xff2a8dff
        5635000	       562	800059ec	0332ca63	blt	x5,x19,80005a20	  x5:0x9546ffd6 x19:0xfffffffe
        5645000	       563	00000000	00000013	addi	x0,x0,0	  x0:0x00000000
        5655000	       564	80005a1c	00000013	addi	x0,x0,0	  x0:0x00000000
        5665000	       565	80005a20	0176abb3	slt	x23,x13,x23	 x13:0x0000069c x23:0x00000000 x23=0x00000000
        5675000	       566	80005a24	015095b3	sll	x11,x1,x21	  x1:0x00000001 x21:0xff2a8dff x11=0x80000000
        5685000	       567	80005a28	009a4233	xor	x4,x20,x9	 x20:0x80009fc5  x9:0x00000000  x4=0x80009fc5
        5695000	       568	80005a2c	02430e63	beq	x6,x4,80005a68	  x6:0xffffffff  x4:0x80009fc5
        5705000	       569	80005a30	cb1cab13	slti	x22,x25,-847	 x25:0x80009fc4 x22=0x00000001
        5715000	       570	80005a34	13a9b393	sltiu	x7,x19,314	 x19:0xfffffffe  x7=0x00000000
        5725000	       571	80005a38	b9a6a2b7	lui	x5,0xb9a6a	  x5=0xb9a6a000
        5735000	       572	80005a3c	b0f7e913	ori	x18,x15,-1265	 x15:0x00000001 x18=0xfffffb0f
        5745000	       573	80005a40	01ef1213	slli	x4,x30,0x1e	 x30:0xffff8000  x4=0x00000000
        5755000	       574	80005a44	01fc4233	xor	x4,x24,x31	 x24:0x80000000 x31:0x00000000  x4=0x80000000
        5765000	       575	80005a48	00199593	slli	x11,x19,0x1	 x19:0xfffffffe x11=0xfffffffc
        5775000	       576	80005a4c	01958b33	add	x22,x11,x25	 x11:0xfffffffc x25:0x80009fc4 x22=0x80009fc0
        5785000	       577	80005a50	00000013	addi	x0,x0,0	  x0:0x00000000
        5795000	       578	80005a54	230f3013	sltiu	x0,x30,560	 x30:0xffff8000
        5805000	       579	80005a58	417b83b3	sub	x7,x23,x23	 x23:0x00000000 x23:0x00000000  x7=0x00000000
        5815000	       580	80005a5c	0131c833	xor	x16,x3,x19	  x3:0x9546ffdc x19:0xfffffffe x16=0x6ab90022
        5825000	       581	80005a60	0161d313	srli	x6,x3,0x16	  x3:0x9546ffdc  x6=0x00000255
        5835000	       582	80005a64	00098433	add	x8,x19,x0	 x19:0xfffffffe  x0:0x00000000  x8=0xfffffffe
        5845000	       583	80005a68	4153dd93	srai	x27,x7,0x15	  x7:0x00000000 x27=0x00000000
        5855000	       584	80005a6c	03271e63	bne	x14,x18,80005aa8	 x14:0x80009e98 x18:0xfffffb0f
        5865000	       585	00000000	00000013	addi	x0,x0,0	  x0:0x00000000
        5875000	       586	80005aa4	00000013	addi	x0,x0,0	  x0:0x00000000
        5885000	       587	80005aa8	cc094393	xori	x7,x18,-832	 x18:0xfffffb0f  x7=0x000007cf
        5895000	       588	80005aac	03e94e63	blt	x18,x30,80005ae8	 x18:0xfffffb0f x30:0xffff8000
        5905000	       589	80005ab0	40a7d993	srai	x19,x15,0xa	 x15:0x00000001 x19=0x00000000
        5915000	       590	80005ab4	01f859b3	srl	x19,x16,x31	 x16:0x6ab90022 x31:0x00000000 x19=0x6ab90022
        5925000	       591	80005ab8	40248d33	sub	x26,x9,x2	  x9:0x00000000  x2:0x00000000 x26=0x00000000
        5935000	       592	80005abc	cba28a97	auipc	x21,0xcba28	 x21=0x4ba2dab8
        5945000	       593	80005ac0	023ffa63	bgeu	x31,x3,80005af4	 x31:0x00000000  x3:0x9546ffdc
        5955000	       594	80005ac4	05c8a913	slti	x18,x17,92	 x17:0x00000000 x18=0x00000001
        5965000	       595	80005ac8	016547b3	xor	x15,x10,x22	 x10:0x00000000 x22:0x80009fc0 x15=0x80009fc0
        5975000	       596	80005acc	e04d8113	addi	x2,x27,-508	 x27:0x00000000  x2=0xfffffe04
        5985000	       597	80005ad0	00349633	sll	x12,x9,x3	  x9:0x00000000  x3:0x9546ffdc x12=0x00000000
        5995000	       598	80005ad4	00000013	addi	x0,x0,0	  x0:0x00000000
        6005000	       599	80005ad8	01a6d513	srli	x10,x13,0x1a	 x13:0x0000069c x10=0x00000000
        6015000	       600	80005adc	0369fc63	bgeu	x19,x22,80005b14	 x19:0x6ab90022 x22:0x80009fc0
        6025000	       601	80005ae0	016eabb3	slt	x23,x29,x22	 x29:0x00000000 x22:0x80009fc0 x23=0x00000000
        6035000	       602	80005ae4	003e8933	add	x18,x29,x3	 x29:0x00000000  x3:0x9546ffdc x18=0x9546ffdc
        6045000	       603	80005ae8	05b9e663	bltu	x19,x27,80005b34	 x19:0x6ab90022 x27:0x00000000
        6055000	       604	80005aec	01a09293	slli	x5,x1,0x1a	  x1:0x00000001  x5=0x04000000
        6065000	       605	80005af0	86d32913	slti	x18,x6,-1939	  x6:0x00000255 x18=0x00000000
        6075000	       606	80005af4	01e3fa63	bgeu	x7,x30,80005b08	  x7:0x000007cf x30:0xffff8000
        6085000	       607	80005af8	03a31863	bne	x6,x26,80005b28	  x6:0x00000255 x26:0x00000000
        6095000	       608	00000000	00000013	addi	x0,x0,0	  x0:0x00000000
        6105000	       609	80005b24	00000013	addi	x0,x0,0	  x0:0x00000000
        6115000	       610	80005b28	41d7dfb3	sra	x31,x15,x29	 x15:0x80009fc0 x29:0x00000000 x31=0x80009fc0
        6125000	       611	80005b2c	03741663	bne	x8,x23,80005b58	  x8:0xfffffffe x23:0x00000000
        6135000	       612	00000000	00000013	addi	x0,x0,0	  x0:0x00000000
        6145000	       613	80005b54	00000013	addi	x0,x0,0	  x0:0x00000000
        6155000	       614	80005b58	40f15d13	srai	x26,x2,0xf	  x2:0xfffffe04 x26=0xffffffff
        6165000	       615	80005b5c	326db0b7	lui	x1,0x326db	  x1=0x326db000
        6175000	       616	80005b60	d0356e97	auipc	x29,0xd0356	 x29=0x5035bb5c
        6185000	       617	80005b64	00000013	addi	x0,x0,0	  x0:0x00000000
        6195000	       618	80005b68	343c3897	auipc	x17,0x343c3	 x17=0xb43c8b64
        6205000	       619	80005b6c	00577ab3	and	x21,x14,x5	 x14:0x80009e98  x5:0x04000000 x21=0x00000000
        6215000	       620	80005b70	0127e463	bltu	x15,x18,80005b78	 x15:0x80009fc0 x18:0x00000000
        6225000	       621	80005b74	01f41663	bne	x8,x31,80005b80	  x8:0xfffffffe x31:0x80009fc0
        6235000	       622	00000000	00000013	addi	x0,x0,0	  x0:0x00000000
        6245000	       623	80005b7c	00000013	addi	x0,x0,0	  x0:0x00000000
        6255000	       624	80005b80	86f74393	xori	x7,x14,-1937	 x14:0x80009e98  x7=0x7fff66f7
        6265000	       625	80005b84	2575a093	slti	x1,x11,599	 x11:0xfffffffc  x1=0x00000001
        6275000	       626	80005b88	0001ffb3	and	x31,x3,x0	  x3:0x9546ffdc  x0:0x00000000 x31=0x00000000
        6285000	       627	80005b8c	001116b3	sll	x13,x2,x1	  x2:0xfffffe04  x1:0x00000001 x13=0xfffffc08
        6295000	       628	80005b90	00003897	auipc	x17,0x3	 x17=0x80008b8c
        6305000	       629	80005b94	c9e88893	addi	x17,x17,-866	 x17:0x80008b8c x17=0x8000882a
        6315000	       630	80005b98	0048c983	lbu	x19,4(x17)	 x17:0x8000882a x19=0x00000000 PA:0x8000882e
        6325000	       631	80005b9c	aa502a13	slti	x20,x0,-1371	  x0:0x00000000 x20=0x00000000
        6335000	       632	80005ba0	014143b3	xor	x7,x2,x20	  x2:0xfffffe04 x20:0x00000000  x7=0xfffffe04
        6345000	       633	80005ba4	0788d503	lhu	x10,120(x17)	 x17:0x8000882a x10=0x00000000 PA:0x800088a2
        6355000	       634	80005ba8	01d41313	slli	x6,x8,0x1d	  x8:0xfffffffe  x6=0xc0000000
        6365000	       635	80005bac	08e8ca83	lbu	x21,142(x17)	 x17:0x8000882a x21=0x00000000 PA:0x800088b8
        6375000	       636	00000000	00000013	addi	x0,x0,0	  x0:0x00000000
        6385000	       637	80005bb0	07563793	sltiu	x15,x12,117	 x12:0x00000000 x15=0x00000001
        6395000	       638	80005bb4	41f7dab3	sra	x21,x15,x31	 x15:0x00000001 x31:0x00000000 x21=0x00000001
        6405000	       639	80005bb8	4910ae97	auipc	x29,0x4910a	 x29=0xc910fbb4
        6415000	       640	80005bbc	003837b3	sltu	x15,x16,x3	 x16:0x6ab90022  x3:0x9546ffdc x15=0x00000001
        6425000	       641	80005bc0	0cc8de83	lhu	x29,204(x17)	 x17:0x8000882a x29=0x00000000 PA:0x800088f6
        6435000	       642	80005bc4	0c788723	sb	x7,206(x17)	 x17:0x8000882a  x7:0xfffffe04 PA:0x800088f8
        6445000	       643	80005bc8	0ed88d23	sb	x13,250(x17)	 x17:0x8000882a x13:0xfffffc08 PA:0x80008924
        6455000	       644	80005bcc	00000013	addi	x0,x0,0	  x0:0x00000000
        6465000	       645	80005bd0	ff088ea3	sb	x16,-3(x17)	 x17:0x8000882a x16:0x6ab90022 PA:0x80008827
        6475000	       646	80005bd4	fea88823	sb	x10,-16(x17)	 x17:0x8000882a x10:0x00000000 PA:0x8000881a
        6485000	       647	80005bd8	06e89403	lh	x8,110(x17)	 x17:0x8000882a  x8=0x00000000 PA:0x80008898
        6495000	       648	80005bdc	0f98c803	lbu	x16,249(x17)	 x17:0x8000882a x16=0x00000000 PA:0x80008923
        6505000	       649	80005be0	01273433	sltu	x8,x14,x18	 x14:0x80009e98 x18:0x00000000  x8=0x00000000
        6515000	       650	80005be4	00488403	lb	x8,4(x17)	 x17:0x8000882a  x8=0x00000000 PA:0x8000882e
        6525000	       651	80005be8	007950b3	srl	x1,x18,x7	 x18:0x00000000  x7:0xfffffe04  x1=0x00000000
        6535000	       652	80005bec	07b8c783	lbu	x15,123(x17)	 x17:0x8000882a x15=0x00000000 PA:0x800088a5
        6545000	       653	80005bf0	3830cf13	xori	x30,x1,899	  x1:0x00000000 x30=0x00000383
        6555000	       654	80005bf4	0068a103	lw	x2,6(x17)	 x17:0x8000882a  x2=0x00000000 PA:0x80008830
        6565000	       655	00000000	00000013	addi	x0,x0,0	  x0:0x00000000
        6575000	       656	80005bf8	0024e133	or	x2,x9,x2	  x9:0x00000000  x2:0x00000000  x2=0x00000000
        6585000	       657	80005bfc	908a0617	auipc	x12,0x908a0	 x12=0x108a5bf8
        6595000	       658	80005c00	0fd8cd03	lbu	x26,253(x17)	 x17:0x8000882a x26=0x00000000 PA:0x80008927
        6605000	       659	80005c04	04188f03	lb	x30,65(x17)	 x17:0x8000882a x30=0x00000000 PA:0x8000886b
        6615000	       660	80005c08	f8bc3793	sltiu	x15,x24,-117	 x24:0x80000000 x15=0x00000001
        6625000	       661	80005c0c	08089a23	sh	x0,148(x17)	 x17:0x8000882a  x0:0x00000000 PA:0x800088be
        6635000	       662	80005c10	0dc88103	lb	x2,220(x17)	 x17:0x8000882a  x2=0x00000000 PA:0x80008906
        6645000	       663	80005c14	05788d03	lb	x26,87(x17)	 x17:0x8000882a x26=0x00000000 PA:0x80008881
        6655000	       664	80005c18	74e50693	addi	x13,x10,1870	 x10:0x00000000 x13=0x0000074e
        6665000	       665	80005c1c	0055de33	srl	x28,x11,x5	 x11:0xfffffffc  x5:0x04000000 x28=0xfffffffc
        6675000	       666	80005c20	0182eab3	or	x21,x5,x24	  x5:0x04000000 x24:0x80000000 x21=0x84000000
        6685000	       667	80005c24	0e188e03	lb	x28,225(x17)	 x17:0x8000882a x28=0x00000000 PA:0x8000890b
        6695000	       668	80005c28	01749533	sll	x10,x9,x23	  x9:0x00000000 x23:0x00000000 x10=0x00000000
        6705000	       669	80005c2c	0328a983	lw	x19,50(x17)	 x17:0x8000882a x19=0x00000000 PA:0x8000885c
        6715000	       670	80005c30	0a188283	lb	x5,161(x17)	 x17:0x8000882a  x5=0x00000000 PA:0x800088cb
        6725000	       671	80005c34	51eff693	andi	x13,x31,1310	 x31:0x00000000 x13=0x00000000
        6735000	       672	80005c38	0fb8c383	lbu	x7,251(x17)	 x17:0x8000882a  x7=0x00000000 PA:0x80008925
        6745000	       673	80005c3c	251cd217	auipc	x4,0x251cd	  x4=0xa51d2c38
        6755000	       674	80005c40	41275213	srai	x4,x14,0x12	 x14:0x80009e98  x4=0xffffe000
        6765000	       675	80005c44	00f89523	sh	x15,10(x17)	 x17:0x8000882a x15:0x00000001 PA:0x80008834
        6775000	       676	80005c48	415ad133	sra	x2,x21,x21	 x21:0x84000000 x21:0x84000000  x2=0x84000000
        6785000	       677	80005c4c	3df97a13	andi	x20,x18,991	 x18:0x00000000 x20=0x00000000
        6795000	       678	80005c50	0cd8c603	lbu	x12,205(x17)	 x17:0x8000882a x12=0x00000000 PA:0x800088f7
        6805000	       679	80005c54	010bdbb3	srl	x23,x23,x16	 x23:0x00000000 x16:0x00000000 x23=0x00000000
        6815000	       680	80005c58	0040f933	and	x18,x1,x4	  x1:0x00000000  x4:0xffffe000 x18=0x00000000
        6825000	       681	80005c5c	01f36eb3	or	x29,x6,x31	  x6:0xc0000000 x31:0x00000000 x29=0xc0000000
        6835000	       682	80005c60	a4bc0193	addi	x3,x24,-1461	 x24:0x80000000  x3=0x7ffffa4b
        6845000	       683	80005c64	01d88683	lb	x13,29(x17)	 x17:0x8000882a x13=0x00000000 PA:0x80008847
        6855000	       684	80005c68	01e639b3	sltu	x19,x12,x30	 x12:0x00000000 x30:0x00000000 x19=0x00000000
        6865000	       685	80005c6c	3281e697	auipc	x13,0x3281e	 x13=0xb2823c68
        6875000	       686	80005c70	05c11463	bne	x2,x28,80005cb8	  x2:0x84000000 x28:0x00000000
        6885000	       687	00000000	00000013	addi	x0,x0,0	  x0:0x00000000
        6895000	       688	80005cb4	00000013	addi	x0,x0,0	  x0:0x00000000
        6905000	       689	80005cb8	00bd7033	and	x0,x26,x11	 x26:0x00000000 x11:0xfffffffc
        6915000	       690	80005cbc	10ba6e13	ori	x28,x20,267	 x20:0x00000000 x28=0x0000010b
        6925000	       691	80005cc0	010e31b3	sltu	x3,x28,x16	 x28:0x0000010b x16:0x00000000  x3=0x00000000
        6935000	       692	80005cc4	72c9b993	sltiu	x19,x19,1836	 x19:0x00000000 x19=0x00000001
        6945000	       693	80005cc8	00a03f33	sltu	x30,x0,x10	  x0:0x00000000 x10:0x00000000 x30=0x00000000
        6955000	       694	80005ccc	4181d033	sra	x0,x3,x24	  x3:0x00000000 x24:0x80000000
        6965000	       695	80005cd0	4057d413	srai	x8,x15,0x5	 x15:0x00000001  x8=0x00000000
        6975000	       696	80005cd4	01674663	blt	x14,x22,80005ce0	 x14:0x80009e98 x22:0x80009fc0
        6985000	       697	00000000	00000013	addi	x0,x0,0	  x0:0x00000000
        6995000	       698	80005cdc	00000013	addi	x0,x0,0	  x0:0x00000000
        7005000	       699	80005ce0	af85c6b7	lui	x13,0xaf85c	 x13=0xaf85c000
        7015000	       700	80005ce4	017eb3b3	sltu	x7,x29,x23	 x29:0xc0000000 x23:0x00000000  x7=0x00000000
        7025000	       701	80005ce8	aa87a2b7	lui	x5,0xaa87a	  x5=0xaa87a000
        7035000	       702	80005cec	41ba8433	sub	x8,x21,x27	 x21:0x84000000 x27:0x00000000  x8=0x84000000
        7045000	       703	80005cf0	01f67a63	bgeu	x12,x31,80005d04	 x12:0x00000000 x31:0x00000000
        7055000	       704	00000000	00000013	addi	x0,x0,0	  x0:0x00000000
        7065000	       705	80005d00	00000013	addi	x0,x0,0	  x0:0x00000000
        7075000	       706	80005d04	7a243793	sltiu	x15,x8,1954	  x8:0x84000000 x15=0x00000000
        7085000	       707	80005d08	028e6e63	bltu	x28,x8,80005d44	 x28:0x0000010b  x8:0x84000000
        7095000	       708	00000000	00000013	addi	x0,x0,0	  x0:0x00000000
        7105000	       709	80005d40	00000013	addi	x0,x0,0	  x0:0x00000000
        7115000	       710	80005d44	011bae33	slt	x28,x23,x17	 x23:0x00000000 x17:0x8000882a x28=0x00000000
        7125000	       711	80005d48	01712533	slt	x10,x2,x23	  x2:0x84000000 x23:0x00000000 x10=0x00000001
        7135000	       712	80005d4c	00000013	addi	x0,x0,0	  x0:0x00000000
        7145000	       713	80005d50	adb0c993	xori	x19,x1,-1317	  x1:0x00000000 x19=0xfffffadb
        7155000	       714	80005d54	022d0c63	beq	x26,x2,80005d8c	 x26:0x00000000  x2:0x84000000
        7165000	       715	80005d58	0100d893	srli	x17,x1,0x10	  x1:0x00000000 x17=0x00000000
        7175000	       716	80005d5c	00c730b3	sltu	x1,x14,x12	 x14:0x80009e98 x12:0x00000000  x1=0x00000000
        7185000	       717	80005d60	01a69993	slli	x19,x13,0x1a	 x13:0xaf85c000 x19=0x00000000
        7195000	       718	80005d64	05589463	bne	x17,x21,80005dac	 x17:0x00000000 x21:0x84000000
        7205000	       719	00000000	00000013	addi	x0,x0,0	  x0:0x00000000
        7215000	       720	80005da8	00000013	addi	x0,x0,0	  x0:0x00000000
        7225000	       721	80005dac	00257533	and	x10,x10,x2	 x10:0x00000001  x2:0x84000000 x10=0x00000000
        7235000	       722	80005db0	84974413	xori	x8,x14,-1975	 x14:0x80009e98  x8=0x7fff66d1
        7245000	       723	80005db4	40775533	sra	x10,x14,x7	 x14:0x80009e98  x7:0x00000000 x10=0x80009e98
        7255000	       724	80005db8	21fb3813	sltiu	x16,x22,543	 x22:0x80009fc0 x16=0x00000000
        7265000	       725	80005dbc	01c68993	addi	x19,x13,28	 x13:0xaf85c000 x19=0xaf85c01c
        7275000	       726	80005dc0	ceb58213	addi	x4,x11,-789	 x11:0xfffffffc  x4=0xfffffce7
        7285000	       727	80005dc4	01465b13	srli	x22,x12,0x14	 x12:0x00000000 x22=0x00000000
        7295000	       728	80005dc8	00dfdd33	srl	x26,x31,x13	 x31:0x00000000 x13:0xaf85c000 x26=0x00000000
        7305000	       729	80005dcc	53c875b7	lui	x11,0x53c87	 x11=0x53c87000
        7315000	       730	80005dd0	7427af13	slti	x30,x15,1858	 x15:0x00000000 x30=0x00000001
        7325000	       731	80005dd4	8349a913	slti	x18,x19,-1996	 x19:0xaf85c01c x18=0x00000001
        7335000	       732	80005dd8	01bb0463	beq	x22,x27,80005de0	 x22:0x00000000 x27:0x00000000
        7345000	       733	00000000	00000013	addi	x0,x0,0	  x0:0x00000000
        7355000	       734	80005ddc	00000013	addi	x0,x0,0	  x0:0x00000000
        7365000	       735	80005de0	01490bb3	add	x23,x18,x20	 x18:0x00000001 x20:0x00000000 x23=0x00000001
        7375000	       736	80005de4	d4c82f93	slti	x31,x16,-692	 x16:0x00000000 x31=0x00000000
        7385000	       737	80005de8	03170e63	beq	x14,x17,80005e24	 x14:0x80009e98 x17:0x00000000
        7395000	       738	80005dec	00000013	addi	x0,x0,0	  x0:0x00000000
        7405000	       739	80005df0	f93054b7	lui	x9,0xf9305	  x9=0xf9305000
        7415000	       740	80005df4	412800b3	sub	x1,x16,x18	 x16:0x00000000 x18:0x00000001  x1=0xffffffff
        7425000	       741	80005df8	016cbb33	sltu	x22,x25,x22	 x25:0x80009fc4 x22:0x00000000 x22=0x00000000
        7435000	       742	80005dfc	02915e63	bge	x2,x9,80005e38	  x2:0x84000000  x9:0xf9305000
        7445000	       743	80005e00	002a85b3	add	x11,x21,x2	 x21:0x84000000  x2:0x84000000 x11=0x08000000
        7455000	       744	80005e04	94373293	sltiu	x5,x14,-1725	 x14:0x80009e98  x5=0x00000001
        7465000	       745	80005e08	00964a63	blt	x12,x9,80005e1c	 x12:0x00000000  x9:0xf9305000
        7475000	       746	80005e0c	018c5d93	srli	x27,x24,0x18	 x24:0x80000000 x27=0x00000080
        7485000	       747	80005e10	403501b3	sub	x3,x10,x3	 x10:0x80009e98  x3:0x00000000  x3=0x80009e98
        7495000	       748	80005e14	0101e133	or	x2,x3,x16	  x3:0x80009e98 x16:0x00000000  x2=0x80009e98
        7505000	       749	80005e18	41335293	srai	x5,x6,0x13	  x6:0xc0000000  x5=0xfffff800
        7515000	       750	80005e1c	01f64463	blt	x12,x31,80005e24	 x12:0x00000000 x31:0x00000000
        7525000	       751	80005e20	42cd7893	andi	x17,x26,1068	 x26:0x00000000 x17=0x00000000
        7535000	       752	80005e24	05ecf463	bgeu	x25,x30,80005e6c	 x25:0x80009fc4 x30:0x00000001
        7545000	       753	00000000	00000013	addi	x0,x0,0	  x0:0x00000000
        7555000	       754	80005e68	00000013	addi	x0,x0,0	  x0:0x00000000
        7565000	       755	80005e6c	01ed3fb3	sltu	x31,x26,x30	 x26:0x00000000 x30:0x00000001 x31=0x00000001
        7575000	       756	80005e70	bab3c813	xori	x16,x7,-1109	  x7:0x00000000 x16=0xfffffbab
        7585000	       757	80005e74	02bd8a63	beq	x27,x11,80005ea8	 x27:0x00000080 x11:0x08000000
        7595000	       758	80005e78	00427e63	bgeu	x4,x4,80005e94	  x4:0xfffffce7  x4:0xfffffce7
        7605000	       759	00000000	00000013	addi	x0,x0,0	  x0:0x00000000
        7615000	       760	80005e90	00000013	addi	x0,x0,0	  x0:0x00000000
        7625000	       761	80005e94	00755b93	srli	x23,x10,0x7	 x10:0x80009e98 x23=0x0100013d
        7635000	       762	80005e98	01a75113	srli	x2,x14,0x1a	 x14:0x80009e98  x2=0x00000020
        7645000	       763	80005e9c	01b566b3	or	x13,x10,x27	 x10:0x80009e98 x27:0x00000080 x13=0x80009e98
        7655000	       764	80005ea0	41ec50b3	sra	x1,x24,x30	 x24:0x80000000 x30:0x00000001  x1=0xc0000000
        7665000	       765	80005ea4	017f21b3	slt	x3,x30,x23	 x30:0x00000001 x23:0x0100013d  x3=0x00000001
        7675000	       766	80005ea8	016b5f33	srl	x30,x22,x22	 x22:0x00000000 x22:0x00000000 x30=0x00000000
        7685000	       767	80005eac	03509e63	bne	x1,x21,80005ee8	  x1:0xc0000000 x21:0x84000000
        7695000	       768	00000000	00000013	addi	x0,x0,0	  x0:0x00000000
        7705000	       769	80005ee4	00000013	addi	x0,x0,0	  x0:0x00000000
        7715000	       770	80005ee8	c1472913	slti	x18,x14,-1004	 x14:0x80009e98 x18=0x00000001
        7725000	       771	80005eec	05706063	bltu	x0,x23,80005f2c	  x0:0x00000000 x23:0x0100013d
        7735000	       772	00000000	00000013	addi	x0,x0,0	  x0:0x00000000
        7745000	       773	80005f28	00000013	addi	x0,x0,0	  x0:0x00000000
        7755000	       774	80005f2c	018a78b3	and	x17,x20,x24	 x20:0x00000000 x24:0x80000000 x17=0x00000000
        7765000	       775	80005f30	00231433	sll	x8,x6,x2	  x6:0xc0000000  x2:0x00000020  x8=0xc0000000
        7775000	       776	80005f34	79737513	andi	x10,x6,1943	  x6:0xc0000000 x10=0x00000000
        7785000	       777	80005f38	8c78a493	slti	x9,x17,-1849	 x17:0x00000000  x9=0x00000000
        7795000	       778	80005f3c	186c8f93	addi	x31,x25,390	 x25:0x80009fc4 x31=0x8000a14a
        7805000	       779	80005f40	00000013	addi	x0,x0,0	  x0:0x00000000
        7815000	       780	80005f44	4d656237	lui	x4,0x4d656	  x4=0x4d656000
        7825000	       781	80005f48	00e71393	slli	x7,x14,0xe	 x14:0x80009e98  x7=0x27a60000
        7835000	       782	80005f4c	01df5db3	srl	x27,x30,x29	 x30:0x00000000 x29:0xc0000000 x27=0x00000000
        7845000	       783	80005f50	03820863	beq	x4,x24,80005f80	  x4:0x4d656000 x24:0x80000000
        7855000	       784	80005f54	01a29d93	slli	x27,x5,0x1a	  x5:0xfffff800 x27=0x00000000
        7865000	       785	80005f58	676a2793	slti	x15,x20,1654	 x20:0x00000000 x15=0x00000001
        7875000	       786	80005f5c	027adc63	bge	x21,x7,80005f94	 x21:0x84000000  x7:0x27a60000
        7885000	       787	80005f60	01cbd5b3	srl	x11,x23,x28	 x23:0x0100013d x28:0x00000000 x11=0x0100013d
        7895000	       788	80005f64	012cd693	srli	x13,x25,0x12	 x25:0x80009fc4 x13=0x00002000
        7905000	       789	80005f68	4011da93	srai	x21,x3,0x1	  x3:0x00000001 x21=0x00000000
        7915000	       790	80005f6c	00b99ab3	sll	x21,x19,x11	 x19:0xaf85c01c x11:0x0100013d x21=0x80000000
        7925000	       791	80005f70	00251f13	slli	x30,x10,0x2	 x10:0x00000000 x30=0x00000000
        7935000	       792	80005f74	92b0f013	andi	x0,x1,-1749	  x1:0xc0000000
        7945000	       793	80005f78	4184dfb3	sra	x31,x9,x24	  x9:0x00000000 x24:0x80000000 x31=0x00000000
        7955000	       794	80005f7c	042c8463	beq	x25,x2,80005fc4	 x25:0x80009fc4  x2:0x00000020
        7965000	       795	80005f80	00d58863	beq	x11,x13,80005f90	 x11:0x0100013d x13:0x00002000
        7975000	       796	80005f84	004f1593	slli	x11,x30,0x4	 x30:0x00000000 x11=0x00000000
        7985000	       797	80005f88	00000013	addi	x0,x0,0	  x0:0x00000000
        7995000	       798	80005f8c	013321b3	slt	x3,x6,x19	  x6:0xc0000000 x19:0xaf85c01c  x3=0x00000000
        8005000	       799	80005f90	01310b33	add	x22,x2,x19	  x2:0x00000020 x19:0xaf85c01c x22=0xaf85c03c
        8015000	       800	80005f94	0045f0b3	and	x1,x11,x4	 x11:0x00000000  x4:0x4d656000  x1=0x00000000
        8025000	       801	80005f98	00d60433	add	x8,x12,x13	 x12:0x00000000 x13:0x00002000  x8=0x00002000
        8035000	       802	80005f9c	01171eb3	sll	x29,x14,x17	 x14:0x80009e98 x17:0x00000000 x29=0x80009e98
        8045000	       803	80005fa0	48687493	andi	x9,x16,1158	 x16:0xfffffbab  x9=0x00000082
        8055000	       804	80005fa4	d0d10293	addi	x5,x2,-755	  x2:0x00000020  x5=0xfffffd2d
        8065000	       805	80005fa8	eff17693	andi	x13,x2,-257	  x2:0x00000020 x13=0x00000020
        8075000	       806	80005fac	02a6d663	bge	x13,x10,80005fd8	 x13:0x00000020 x10:0x00000000
        8085000	       807	00000000	00000013	addi	x0,x0,0	  x0:0x00000000
        8095000	       808	80005fd4	00000013	addi	x0,x0,0	  x0:0x00000000
        8105000	       809	80005fd8	0294d663	bge	x9,x9,80006004	  x9:0x00000082  x9:0x00000082
        8115000	       810	00000000	00000013	addi	x0,x0,0	  x0:0x00000000
        8125000	       811	80006000	00000013	addi	x0,x0,0	  x0:0x00000000
        8135000	       812	80006004	01efa5b3	slt	x11,x31,x30	 x31:0x00000000 x30:0x00000000 x11=0x00000000
        8145000	       813	80006008	02c32513	slti	x10,x6,44	  x6:0xc0000000 x10=0x00000001
        8155000	       814	8000600c	41aa5893	srai	x17,x20,0x1a	 x20:0x00000000 x17=0x00000000
        8165000	       815	80006010	02068e63	beq	x13,x0,8000604c	 x13:0x00000020  x0:0x00000000
        8175000	       816	80006014	418dd013	srai	x0,x27,0x18	 x27:0x00000000
        8185000	       817	80006018	92f6e693	ori	x13,x13,-1745	 x13:0x00000020 x13=0xfffff92f
        8195000	       818	8000601c	69a6e393	ori	x7,x13,1690	 x13:0xfffff92f  x7=0xffffffbf
        8205000	       819	80006020	03689c63	bne	x17,x22,80006058	 x17:0x00000000 x22:0xaf85c03c
        8215000	       820	00000000	00000013	addi	x0,x0,0	  x0:0x00000000
        8225000	       821	80006054	00000013	addi	x0,x0,0	  x0:0x00000000
        8235000	       822	80006058	01f63033	sltu	x0,x12,x31	 x12:0x00000000 x31:0x00000000
        8245000	       823	8000605c	4156d7b3	sra	x15,x13,x21	 x13:0xfffff92f x21:0x80000000 x15=0xfffff92f
        8255000	       824	80006060	400fdb13	srai	x22,x31,0x0	 x31:0x00000000 x22=0x00000000
        8265000	       825	80006064	974ae017	auipc	x0,0x974ae	
        8275000	       826	80006068	0386fa63	bgeu	x13,x24,8000609c	 x13:0xfffff92f x24:0x80000000
        8285000	       827	00000000	00000013	addi	x0,x0,0	  x0:0x00000000
        8295000	       828	80006098	00000013	addi	x0,x0,0	  x0:0x00000000
        8305000	       829	8000609c	009b1693	slli	x13,x22,0x9	 x22:0x00000000 x13=0x00000000
        8315000	       830	800060a0	01d128b3	slt	x17,x2,x29	  x2:0x00000020 x29:0x80009e98 x17=0x00000000
        8325000	       831	800060a4	1840a7b7	lui	x15,0x1840a	 x15=0x1840a000
        8335000	       832	800060a8	01b69ab3	sll	x21,x13,x27	 x13:0x00000000 x27:0x00000000 x21=0x00000000
        8345000	       833	800060ac	05144263	blt	x8,x17,800060f0	  x8:0x00002000 x17:0x00000000
        8355000	       834	800060b0	01c51a63	bne	x10,x28,800060c4	 x10:0x00000001 x28:0x00000000
        8365000	       835	00000000	00000013	addi	x0,x0,0	  x0:0x00000000
        8375000	       836	800060c0	00000013	addi	x0,x0,0	  x0:0x00000000
        8385000	       837	800060c4	00edfab3	and	x21,x27,x14	 x27:0x00000000 x14:0x80009e98 x21=0x00000000
        8395000	       838	800060c8	df1d3213	sltiu	x4,x26,-527	 x26:0x00000000  x4=0x00000001
        8405000	       839	800060cc	eb03a693	slti	x13,x7,-336	  x7:0xffffffbf x13=0x00000000
        8415000	       840	800060d0	0095c463	blt	x11,x9,800060d8	 x11:0x00000000  x9:0x00000082
        8425000	       841	00000000	00000013	addi	x0,x0,0	  x0:0x00000000
        8435000	       842	800060d4	00000013	addi	x0,x0,0	  x0:0x00000000
        8445000	       843	800060d8	03df4c63	blt	x30,x29,80006110	 x30:0x00000000 x29:0x80009e98
        8455000	       844	800060dc	b2d16213	ori	x4,x2,-1235	  x2:0x00000020  x4=0xfffffb2d
        8465000	       845	800060e0	b2023213	sltiu	x4,x4,-1248	  x4:0xfffffb2d  x4=0x00000000
        8475000	       846	800060e4	03ec8663	beq	x25,x30,80006110	 x25:0x80009fc4 x30:0x00000000
        8485000	       847	800060e8	056e6663	bltu	x28,x22,80006134	 x28:0x00000000 x22:0x00000000
        8495000	       848	800060ec	01259e63	bne	x11,x18,80006108	 x11:0x00000000 x18:0x00000001
        8505000	       849	00000000	00000013	addi	x0,x0,0	  x0:0x00000000
        8515000	       850	80006104	00000013	addi	x0,x0,0	  x0:0x00000000
        8525000	       851	80006108	3bd50d13	addi	x26,x10,957	 x10:0x00000001 x26=0x000003be
        8535000	       852	8000610c	001816b3	sll	x13,x16,x1	 x16:0xfffffbab  x1:0x00000000 x13=0xfffffbab
        8545000	       853	80006110	01290b33	add	x22,x18,x18	 x18:0x00000001 x18:0x00000001 x22=0x00000002
        8555000	       854	80006114	39267f13	andi	x30,x12,914	 x12:0x00000000 x30=0x00000000
        8565000	       855	80006118	01934533	xor	x10,x6,x25	  x6:0xc0000000 x25:0x80009fc4 x10=0x40009fc4
        8575000	       856	8000611c	014b1f33	sll	x30,x22,x20	 x22:0x00000002 x20:0x00000000 x30=0x00000002
        8585000	       857	80006120	01a9e633	or	x12,x19,x26	 x19:0xaf85c01c x26:0x000003be x12=0xaf85c3be
        8595000	       858	80006124	016752b3	srl	x5,x14,x22	 x14:0x80009e98 x22:0x00000002  x5=0x200027a6
        8605000	       859	80006128	007766b3	or	x13,x14,x7	 x14:0x80009e98  x7:0xffffffbf x13=0xffffffbf
        8615000	       860	8000612c	0108af33	slt	x30,x17,x16	 x17:0x00000000 x16:0xfffffbab x30=0x00000000
        8625000	       861	80006130	015f0ab3	add	x21,x30,x21	 x30:0x00000000 x21:0x00000000 x21=0x00000000
        8635000	       862	80006134	019bddb3	srl	x27,x23,x25	 x23:0x0100013d x25:0x80009fc4 x27=0x00100013
        8645000	       863	80006138	037b0263	beq	x22,x23,8000615c	 x22:0x00000002 x23:0x0100013d
        8655000	       864	8000613c	01130333	add	x6,x6,x17	  x6:0xc0000000 x17:0x00000000  x6=0xc0000000
        8665000	       865	80006140	40b20fb3	sub	x31,x4,x11	  x4:0x00000000 x11:0x00000000 x31=0x00000000
        8675000	       866	80006144	01383fb3	sltu	x31,x16,x19	 x16:0xfffffbab x19:0xaf85c01c x31=0x00000000
        8685000	       867	80006148	009ee433	or	x8,x29,x9	 x29:0x80009e98  x9:0x00000082  x8=0x80009e9a
        8695000	       868	8000614c	0086d993	srli	x19,x13,0x8	 x13:0xffffffbf x19=0x00ffffff
        8705000	       869	80006150	b1b56613	ori	x12,x10,-1253	 x10:0x40009fc4 x12=0xffffffdf
        8715000	       870	80006154	008995b3	sll	x11,x19,x8	 x19:0x00ffffff  x8:0x80009e9a x11=0xfc000000
        8725000	       871	80006158	0569c463	blt	x19,x22,800061a0	 x19:0x00ffffff x22:0x00000002
        8735000	       872	8000615c	41b20233	sub	x4,x4,x27	  x4:0x00000000 x27:0x00100013  x4=0xffefffed
        8745000	       873	80006160	87350093	addi	x1,x10,-1933	 x10:0x40009fc4  x1=0x40009837
        8755000	       874	80006164	01b39bb3	sll	x23,x7,x27	  x7:0xffffffbf x27:0x00100013 x23=0xfdf80000
        8765000	       875	80006168	3b7ba317	auipc	x6,0x3b7ba	  x6=0xbb7c0164
        8775000	       876	8000616c	00e70433	add	x8,x14,x14	 x14:0x80009e98 x14:0x80009e98  x8=0x00013d30
        8785000	       877	80006170	00a8d513	srli	x10,x17,0xa	 x17:0x00000000 x10=0x00000000
        8795000	       878	80006174	dfa73a13	sltiu	x20,x14,-518	 x14:0x80009e98 x20=0x00000001
        8805000	       879	80006178	01078eb3	add	x29,x15,x16	 x15:0x1840a000 x16:0xfffffbab x29=0x18409bab
        8815000	       880	8000617c	00186663	bltu	x16,x1,80006188	 x16:0xfffffbab  x1:0x40009837
        8825000	       881	80006180	11c14063	blt	x2,x28,80006280	  x2:0x00000020 x28:0x00000000
        8835000	       882	80006184	0024ca33	xor	x20,x9,x2	  x9:0x00000082  x2:0x00000020 x20=0x000000a2
        8845000	       883	80006188	013e56b3	srl	x13,x28,x19	 x28:0x00000000 x19:0x00ffffff x13=0x00000000
        8855000	       884	8000618c	41060b33	sub	x22,x12,x16	 x12:0xffffffdf x16:0xfffffbab x22=0x00000434
        8865000	       885	80006190	00e0b8b3	sltu	x17,x1,x14	  x1:0x40009837 x14:0x80009e98 x17=0x00000001
        8875000	       886	80006194	00dcfa33	and	x20,x25,x13	 x25:0x80009fc4 x13:0x00000000 x20=0x00000000
        8885000	       887	80006198	d3db8313	addi	x6,x23,-707	 x23:0xfdf80000  x6=0xfdf7fd3d
        8895000	       888	8000619c	00370bb3	add	x23,x14,x3	 x14:0x80009e98  x3:0x00000000 x23=0x80009e98
        8905000	       889	800061a0	00765693	srli	x13,x12,0x7	 x12:0xffffffdf x13=0x01ffffff
        8915000	       890	800061a4	d7c52613	slti	x12,x10,-644	 x10:0x00000000 x12=0x00000000
        8925000	       891	800061a8	0f9f0c63	beq	x30,x25,800062a0	 x30:0x00000000 x25:0x80009fc4
        8935000	       892	800061ac	11a7da63	bge	x15,x26,800062c0	 x15:0x1840a000 x26:0x000003be
        8945000	       893	00000000	00000013	addi	x0,x0,0	  x0:0x00000000
        8955000	       894	800062bc	00000013	addi	x0,x0,0	  x0:0x00000000
        8965000	       895	800062c0	013403b3	add	x7,x8,x19	  x8:0x00013d30 x19:0x00ffffff  x7=0x01013d2f
        8975000	       896	800062c4	01071793	slli	x15,x14,0x10	 x14:0x80009e98 x15=0x9e980000
        8985000	       897	800062c8	14b31a97	auipc	x21,0x14b31	 x21=0x94b372c4
        8995000	       898	800062cc	bdf3c893	xori	x17,x7,-1057	  x7:0x01013d2f x17=0xfefec6f0
        9005000	       899	800062d0	558e0493	addi	x9,x28,1368	 x28:0x00000000  x9=0x00000558
        9015000	       900	800062d4	e7ae7013	andi	x0,x28,-390	 x28:0x00000000
        9025000	       901	800062d8	00212133	slt	x2,x2,x2	  x2:0x00000020  x2:0x00000020  x2=0x00000000
        9035000	       902	800062dc	00f3f6b3	and	x13,x7,x15	  x7:0x01013d2f x15:0x9e980000 x13=0x00000000
        9045000	       903	800062e0	0098bf33	sltu	x30,x17,x9	 x17:0xfefec6f0  x9:0x00000558 x30=0x00000000
        9055000	       904	800062e4	413cd893	srai	x17,x25,0x13	 x25:0x80009fc4 x17=0xfffff000
        9065000	       905	800062e8	19800b93	addi	x23,x0,408	  x0:0x00000000 x23=0x00000198
        9075000	       906	800062ec	01939933	sll	x18,x7,x25	  x7:0x01013d2f x25:0x80009fc4 x18=0x1013d2f0
        9085000	       907	800062f0	022f9c63	bne	x31,x2,80006328	 x31:0x00000000  x2:0x00000000
        9095000	       908	800062f4	00038a33	add	x20,x7,x0	  x7:0x01013d2f  x0:0x00000000 x20=0x01013d2f
        9105000	       909	800062f8	00f1d193	srli	x3,x3,0xf	  x3:0x00000000  x3=0x00000000
        9115000	       910	800062fc	416adbb3	sra	x23,x21,x22	 x21:0x94b372c4 x22:0x00000434 x23=0xfffff94b
        9125000	       911	80006300	fa89a913	slti	x18,x19,-88	 x19:0x00ffffff x18=0x00000000
        9135000	       912	80006304	44862613	slti	x12,x12,1096	 x12:0x00000000 x12=0x00000001
        9145000	       913	80006308	05d81063	bne	x16,x29,80006348	 x16:0xfffffbab x29:0x18409bab
        9155000	       914	00000000	00000013	addi	x0,x0,0	  x0:0x00000000
        9165000	       915	80006344	00000013	addi	x0,x0,0	  x0:0x00000000
        9175000	       916	80006348	c1942237	lui	x4,0xc1942	  x4=0xc1942000
        9185000	       917	8000634c	4132d293	srai	x5,x5,0x13	  x5:0x200027a6  x5=0x00000400
        9195000	       918	80006350	40525593	srai	x11,x4,0x5	  x4:0xc1942000 x11=0xfe0ca100
        9205000	       919	80006354	ab5f7b13	andi	x22,x30,-1355	 x30:0x00000000 x22=0x00000000
        9215000	       920	80006358	89cd6013	ori	x0,x26,-1892	 x26:0x000003be
        9225000	       921	8000635c	8fc1f813	andi	x16,x3,-1796	  x3:0x00000000 x16=0x00000000
        9235000	       922	80006360	02518e63	beq	x3,x5,8000639c	  x3:0x00000000  x5:0x00000400
        9245000	       923	80006364	01c0b133	sltu	x2,x1,x28	  x1:0x40009837 x28:0x00000000  x2=0x00000000
        9255000	       924	80006368	00dc1a63	bne	x24,x13,8000637c	 x24:0x80000000 x13:0x00000000
        9265000	       925	00000000	00000013	addi	x0,x0,0	  x0:0x00000000
        9275000	       926	80006378	00000013	addi	x0,x0,0	  x0:0x00000000
        9285000	       927	8000637c	e9b37693	andi	x13,x6,-357	  x6:0xfdf7fd3d x13=0xfdf7fc19
        9295000	       928	80006380	001bbab3	sltu	x21,x23,x1	 x23:0xfffff94b  x1:0x40009837 x21=0x00000000
        9305000	       929	80006384	68163b93	sltiu	x23,x12,1665	 x12:0x00000001 x23=0x00000001
        9315000	       930	80006388	41f05093	srai	x1,x0,0x1f	  x0:0x00000000  x1=0x00000000
        9325000	       931	8000638c	03b18c63	beq	x3,x27,800063c4	  x3:0x00000000 x27:0x00100013
        9335000	       932	80006390	01a836b3	sltu	x13,x16,x26	 x16:0x00000000 x26:0x000003be x13=0x00000001
        9345000	       933	80006394	01981413	slli	x8,x16,0x19	 x16:0x00000000  x8=0x00000000
        9355000	       934	80006398	4106d593	srai	x11,x13,0x10	 x13:0x00000001 x11=0x00000000
        9365000	       935	8000639c	00a351b3	srl	x3,x6,x10	  x6:0xfdf7fd3d x10:0x00000000  x3=0xfdf7fd3d
        9375000	       936	800063a0	025fce63	blt	x31,x5,800063dc	 x31:0x00000000  x5:0x00000400
        9385000	       937	00000000	00000013	addi	x0,x0,0	  x0:0x00000000
        9395000	       938	800063d8	00000013	addi	x0,x0,0	  x0:0x00000000
        9405000	       939	800063dc	003d0fb3	add	x31,x26,x3	 x26:0x000003be  x3:0xfdf7fd3d x31=0xfdf800fb
        9415000	       940	800063e0	03a57e63	bgeu	x10,x26,8000641c	 x10:0x00000000 x26:0x000003be
        9425000	       941	800063e4	00301913	slli	x18,x0,0x3	  x0:0x00000000 x18=0x00000000
        9435000	       942	800063e8	01e67fb3	and	x31,x12,x30	 x12:0x00000001 x30:0x00000000 x31=0x00000000
        9445000	       943	800063ec	03cd5e63	bge	x26,x28,80006428	 x26:0x000003be x28:0x00000000
        9455000	       944	00000000	00000013	addi	x0,x0,0	  x0:0x00000000
        9465000	       945	80006424	00000013	addi	x0,x0,0	  x0:0x00000000
        9475000	       946	80006428	df768e93	addi	x29,x13,-521	 x13:0x00000001 x29=0xfffffdf8
        9485000	       947	8000642c	401a8bb3	sub	x23,x21,x1	 x21:0x00000000  x1:0x00000000 x23=0x00000000
        9495000	       948	80006430	00ab4663	blt	x22,x10,8000643c	 x22:0x00000000 x10:0x00000000
        9505000	       949	80006434	8894ae13	slti	x28,x9,-1911	  x9:0x00000558 x28=0x00000000
        9515000	       950	80006438	0091eab3	or	x21,x3,x9	  x3:0xfdf7fd3d  x9:0x00000558 x21=0xfdf7fd7d
        9525000	       951	8000643c	016503b3	add	x7,x10,x22	 x10:0x00000000 x22:0x00000000  x7=0x00000000
        9535000	       952	80006440	00000013	addi	x0,x0,0	  x0:0x00000000
        9545000	       953	80006444	00ec8463	beq	x25,x14,8000644c	 x25:0x80009fc4 x14:0x80009e98
        9555000	       954	80006448	019c8f33	add	x30,x25,x25	 x25:0x80009fc4 x25:0x80009fc4 x30=0x00013f88
        9565000	       955	8000644c	008c8bb3	add	x23,x25,x8	 x25:0x80009fc4  x8:0x00000000 x23=0x80009fc4
        9575000	       956	80006450	02966663	bltu	x12,x9,8000647c	 x12:0x00000001  x9:0x00000558
        9585000	       957	00000000	00000013	addi	x0,x0,0	  x0:0x00000000
        9595000	       958	80006478	00000013	addi	x0,x0,0	  x0:0x00000000
        9605000	       959	8000647c	b7cfb293	sltiu	x5,x31,-1156	 x31:0x00000000  x5=0x00000001
        9615000	       960	80006480	0cd26a93	ori	x21,x4,205	  x4:0xc1942000 x21=0xc19420cd
        9625000	       961	80006484	01dedbb3	srl	x23,x29,x29	 x29:0xfffffdf8 x29:0xfffffdf8 x23=0x000000ff
        9635000	       962	80006488	00391ab3	sll	x21,x18,x3	 x18:0x00000000  x3:0xfdf7fd3d x21=0x00000000
        9645000	       963	8000648c	419d0d33	sub	x26,x26,x25	 x26:0x000003be x25:0x80009fc4 x26=0x7fff63fa
        9655000	       964	80006490	03311c63	bne	x2,x19,800064c8	  x2:0x00000000 x19:0x00ffffff
        9665000	       965	00000000	00000013	addi	x0,x0,0	  x0:0x00000000
        9675000	       966	800064c4	00000013	addi	x0,x0,0	  x0:0x00000000
        9685000	       967	800064c8	00230833	add	x16,x6,x2	  x6:0xfdf7fd3d  x2:0x00000000 x16=0xfdf7fd3d
        9695000	       968	800064cc	01819133	sll	x2,x3,x24	  x3:0xfdf7fd3d x24:0x80000000  x2=0xfdf7fd3d
        9705000	       969	800064d0	00cd1b13	slli	x22,x26,0xc	 x26:0x7fff63fa x22=0xf63fa000
        9715000	       970	800064d4	036a9a63	bne	x21,x22,80006508	 x21:0x00000000 x22:0xf63fa000
        9725000	       971	00000000	00000013	addi	x0,x0,0	  x0:0x00000000
        9735000	       972	80006504	00000013	addi	x0,x0,0	  x0:0x00000000
        9745000	       973	80006508	006e0e33	add	x28,x28,x6	 x28:0x00000000  x6:0xfdf7fd3d x28=0xfdf7fd3d
        9755000	       974	8000650c	01bae4b3	or	x9,x21,x27	 x21:0x00000000 x27:0x00100013  x9=0x00100013
        9765000	       975	80006510	0143f1b3	and	x3,x7,x20	  x7:0x00000000 x20:0x01013d2f  x3=0x00000000
        9775000	       976	80006514	ccaaff17	auipc	x30,0xccaaf	 x30=0x4cab5510
        9785000	       977	80006518	41430433	sub	x8,x6,x20	  x6:0xfdf7fd3d x20:0x01013d2f  x8=0xfcf6c00e
        9795000	       978	8000651c	befe5db7	lui	x27,0xbefe5	 x27=0xbefe5000
        9805000	       979	80006520	0171b3b3	sltu	x7,x3,x23	  x3:0x00000000 x23:0x000000ff  x7=0x00000001
        9815000	       980	80006524	011f1863	bne	x30,x17,80006534	 x30:0x4cab5510 x17:0xfffff000
        9825000	       981	00000000	00000013	addi	x0,x0,0	  x0:0x00000000
        9835000	       982	80006530	00000013	addi	x0,x0,0	  x0:0x00000000
        9845000	       983	80006534	01b7e133	or	x2,x15,x27	 x15:0x9e980000 x27:0xbefe5000  x2=0xbefe5000
        9855000	       984	80006538	044fe463	bltu	x31,x4,80006580	 x31:0x00000000  x4:0xc1942000
        9865000	       985	00000000	00000013	addi	x0,x0,0	  x0:0x00000000
        9875000	       986	8000657c	00000013	addi	x0,x0,0	  x0:0x00000000
        9885000	       987	80006580	0dc36193	ori	x3,x6,220	  x6:0xfdf7fd3d  x3=0xfdf7fdfd
        9895000	       988	80006584	00e35e63	bge	x6,x14,800065a0	  x6:0xfdf7fd3d x14:0x80009e98
        9905000	       989	00000000	00000013	addi	x0,x0,0	  x0:0x00000000
        9915000	       990	8000659c	00000013	addi	x0,x0,0	  x0:0x00000000
        9925000	       991	800065a0	00000013	addi	x0,x0,0	  x0:0x00000000
        9935000	       992	800065a4	000f1e33	sll	x28,x30,x0	 x30:0x4cab5510  x0:0x00000000 x28=0x4cab5510
        9945000	       993	800065a8	412bdb33	sra	x22,x23,x18	 x23:0x000000ff x18:0x00000000 x22=0x000000ff
        9955000	       994	800065ac	41f15193	srai	x3,x2,0x1f	  x2:0xbefe5000  x3=0xffffffff
        9965000	       995	800065b0	5a936313	ori	x6,x6,1449	  x6:0xfdf7fd3d  x6=0xfdf7fdbd
        9975000	       996	800065b4	ab703513	sltiu	x10,x0,-1353	  x0:0x00000000 x10=0x00000001
        9985000	       997	800065b8	00000013	addi	x0,x0,0	  x0:0x00000000
        9995000	       998	800065bc	001506b3	add	x13,x10,x1	 x10:0x00000001  x1:0x00000000 x13=0x00000001
       10005000	       999	800065c0	010e31b3	sltu	x3,x28,x16	 x28:0x4cab5510 x16:0xfdf7fd3d  x3=0x00000001
       10015000	      1000	800065c4	0191a133	slt	x2,x3,x25	  x3:0x00000001 x25:0x80009fc4  x2=0x00000000
       10025000	      1001	800065c8	41445213	srai	x4,x8,0x14	  x8:0xfcf6c00e  x4=0xffffffcf
       10035000	      1002	800065cc	009a42b3	xor	x5,x20,x9	 x20:0x01013d2f  x9:0x00100013  x5=0x01113d3c
       10045000	      1003	800065d0	003ec663	blt	x29,x3,800065dc	 x29:0xfffffdf8  x3:0x00000001
       10055000	      1004	00000000	00000013	addi	x0,x0,0	  x0:0x00000000
       10065000	      1005	800065d8	00000013	addi	x0,x0,0	  x0:0x00000000
       10075000	      1006	800065dc	00000013	addi	x0,x0,0	  x0:0x00000000
       10085000	      1007	800065e0	003e9593	slli	x11,x29,0x3	 x29:0xfffffdf8 x11=0xffffefc0
       10095000	      1008	800065e4	02919a63	bne	x3,x9,80006618	  x3:0x00000001  x9:0x00100013
       10105000	      1009	00000000	00000013	addi	x0,x0,0	  x0:0x00000000
       10115000	      1010	80006614	00000013	addi	x0,x0,0	  x0:0x00000000
       10125000	      1011	80006618	01cf9293	slli	x5,x31,0x1c	 x31:0x00000000  x5=0x00000000
       10135000	      1012	8000661c	00d583b3	add	x7,x11,x13	 x11:0xffffefc0 x13:0x00000001  x7=0xffffefc1
       10145000	      1013	80006620	00a280b3	add	x1,x5,x10	  x5:0x00000000 x10:0x00000001  x1=0x00000001
       10155000	      1014	80006624	03264663	blt	x12,x18,80006650	 x12:0x00000001 x18:0x00000000
       10165000	      1015	80006628	05249463	bne	x9,x18,80006670	  x9:0x00100013 x18:0x00000000
       10175000	      1016	00000000	00000013	addi	x0,x0,0	  x0:0x00000000
       10185000	      1017	8000666c	00000013	addi	x0,x0,0	  x0:0x00000000
       10195000	      1018	80006670	2cf2cd13	xori	x26,x5,719	  x5:0x00000000 x26=0x000002cf
       10205000	      1019	80006674	00621093	slli	x1,x4,0x6	  x4:0xffffffcf  x1=0xfffff3c0
       10215000	      1020	80006678	d3687937	lui	x18,0xd3687	 x18=0xd3687000
       10225000	      1021	8000667c	027e7663	bgeu	x28,x7,800066a8	 x28:0x4cab5510  x7:0xffffefc1
       10235000	      1022	80006680	03e99263	bne	x19,x30,800066a4	 x19:0x00ffffff x30:0x4cab5510
       10245000	      1023	00000000	00000013	addi	x0,x0,0	  x0:0x00000000
       10255000	      1024	800066a0	00000013	addi	x0,x0,0	  x0:0x00000000
       10265000	      1025	800066a4	01df4a33	xor	x20,x30,x29	 x30:0x4cab5510 x29:0xfffffdf8 x20=0xb354a8e8
       10275000	      1026	800066a8	0045eab3	or	x21,x11,x4	 x11:0xffffefc0  x4:0xffffffcf x21=0xffffffcf
       10285000	      1027	800066ac	01c82eb3	slt	x29,x16,x28	 x16:0xfdf7fd3d x28:0x4cab5510 x29=0x00000001
       10295000	      1028	800066b0	0067c663	blt	x15,x6,800066bc	 x15:0x9e980000  x6:0xfdf7fdbd
       10305000	      1029	00000000	00000013	addi	x0,x0,0	  x0:0x00000000
       10315000	      1030	800066b8	00000013	addi	x0,x0,0	  x0:0x00000000
       10325000	      1031	800066bc	03eeea63	bltu	x29,x30,800066f0	 x29:0x00000001 x30:0x4cab5510
       10335000	      1032	00000000	00000013	addi	x0,x0,0	  x0:0x00000000
       10345000	      1033	800066ec	00000013	addi	x0,x0,0	  x0:0x00000000
       10355000	      1034	800066f0	00c8e833	or	x16,x17,x12	 x17:0xfffff000 x12:0x00000001 x16=0xfffff001
       10365000	      1035	800066f4	00b24833	xor	x16,x4,x11	  x4:0xffffffcf x11:0xffffefc0 x16=0x0000100f
       10375000	      1036	800066f8	00a24bb3	xor	x23,x4,x10	  x4:0xffffffcf x10:0x00000001 x23=0xffffffce
       10385000	      1037	800066fc	01fca033	slt	x0,x25,x31	 x25:0x80009fc4 x31:0x00000000
       10395000	      1038	80006700	00000013	addi	x0,x0,0	  x0:0x00000000
       10405000	      1039	80006704	01f12fb3	slt	x31,x2,x31	  x2:0x00000000 x31:0x00000000 x31=0x00000000
       10415000	      1040	80006708	025de663	bltu	x27,x5,80006734	 x27:0xbefe5000  x5:0x00000000
       10425000	      1041	8000670c	bd507e93	andi	x29,x0,-1067	  x0:0x00000000 x29=0x00000000
       10435000	      1042	80006710	01342bb3	slt	x23,x8,x19	  x8:0xfcf6c00e x19:0x00ffffff x23=0x00000001
       10445000	      1043	80006714	01d62633	slt	x12,x12,x29	 x12:0x00000001 x29:0x00000000 x12=0x00000000
       10455000	      1044	80006718	0115c433	xor	x8,x11,x17	 x11:0xffffefc0 x17:0xfffff000  x8=0x00001fc0
       10465000	      1045	8000671c	4011de13	srai	x28,x3,0x1	  x3:0x00000001 x28=0x00000000
       10475000	      1046	80006720	00000013	addi	x0,x0,0	  x0:0x00000000
       10485000	      1047	80006724	002bf533	and	x10,x23,x2	 x23:0x00000001  x2:0x00000000 x10=0x00000000
       10495000	      1048	80006728	006838b3	sltu	x17,x16,x6	 x16:0x0000100f  x6:0xfdf7fdbd x17=0x00000001
       10505000	      1049	8000672c	416e0033	sub	x0,x28,x22	 x28:0x00000000 x22:0x000000ff
       10515000	      1050	80006730	02395e63	bge	x18,x3,8000676c	 x18:0xd3687000  x3:0x00000001
       10525000	      1051	80006734	00666a33	or	x20,x12,x6	 x12:0x00000000  x6:0xfdf7fdbd x20=0xfdf7fdbd
       10535000	      1052	80006738	025ffc63	bgeu	x31,x5,80006770	 x31:0x00000000  x5:0x00000000
       10545000	      1053	00000000	00000013	addi	x0,x0,0	  x0:0x00000000
       10555000	      1054	8000676c	00000013	addi	x0,x0,0	  x0:0x00000000
       10565000	      1055	80006770	400f58b3	sra	x17,x30,x0	 x30:0x4cab5510  x0:0x00000000 x17=0x4cab5510
       10575000	      1056	80006774	41565013	srai	x0,x12,0x15	 x12:0x00000000
       10585000	      1057	80006778	00000013	addi	x0,x0,0	  x0:0x00000000
       10595000	      1058	8000677c	00000013	addi	x0,x0,0	  x0:0x00000000
       10605000	      1059	80006780	a8352113	slti	x2,x10,-1405	 x10:0x00000000  x2=0x00000000
       10615000	      1060	80006784	00d0e4b3	or	x9,x1,x13	  x1:0xfffff3c0 x13:0x00000001  x9=0xfffff3c1
       10625000	      1061	80006788	00bd1633	sll	x12,x26,x11	 x26:0x000002cf x11:0xffffefc0 x12=0x000002cf
       10635000	      1062	8000678c	00c99013	slli	x0,x19,0xc	 x19:0x00ffffff
       10645000	      1063	80006790	404f5a13	srai	x20,x30,0x4	 x30:0x4cab5510 x20=0x04cab551
       10655000	      1064	80006794	0056a333	slt	x6,x13,x5	 x13:0x00000001  x5:0x00000000  x6=0x00000000
       10665000	      1065	80006798	0074e6b3	or	x13,x9,x7	  x9:0xfffff3c1  x7:0xffffefc1 x13=0xffffffc1
       10675000	      1066	8000679c	0098a433	slt	x8,x17,x9	 x17:0x4cab5510  x9:0xfffff3c1  x8=0x00000000
       10685000	      1067	800067a0	0012bbb3	sltu	x23,x5,x1	  x5:0x00000000  x1:0xfffff3c0 x23=0x00000001
       10695000	      1068	800067a4	0075b2b3	sltu	x5,x11,x7	 x11:0xffffefc0  x7:0xffffefc1  x5=0x00000001
       10705000	      1069	800067a8	01c57533	and	x10,x10,x28	 x10:0x00000000 x28:0x00000000 x10=0x00000000
       10715000	      1070	800067ac	014a9863	bne	x21,x20,800067bc	 x21:0xffffffcf x20:0x04cab551
       10725000	      1071	00000000	00000013	addi	x0,x0,0	  x0:0x00000000
       10735000	      1072	800067b8	00000013	addi	x0,x0,0	  x0:0x00000000
       10745000	      1073	800067bc	7dc97e13	andi	x28,x18,2012	 x18:0xd3687000 x28=0x00000000
       10755000	      1074	800067c0	41cadf33	sra	x30,x21,x28	 x21:0xffffffcf x28:0x00000000 x30=0xffffffcf
       10765000	      1075	800067c4	01928a63	beq	x5,x25,800067d8	  x5:0x00000001 x25:0x80009fc4
       10775000	      1076	800067c8	00390b33	add	x22,x18,x3	 x18:0xd3687000  x3:0x00000001 x22=0xd3687001
       10785000	      1077	800067cc	01342533	slt	x10,x8,x19	  x8:0x00000000 x19:0x00ffffff x10=0x00000001
       10795000	      1078	800067d0	00bdb933	sltu	x18,x27,x11	 x27:0xbefe5000 x11:0xffffefc0 x18=0x00000001
       10805000	      1079	800067d4	00fa0663	beq	x20,x15,800067e0	 x20:0x04cab551 x15:0x9e980000
       10815000	      1080	800067d8	00e39b33	sll	x22,x7,x14	  x7:0xffffefc1 x14:0x80009e98 x22=0xc1000000
       10825000	      1081	800067dc	6b888a13	addi	x20,x17,1720	 x17:0x4cab5510 x20=0x4cab5bc8
       10835000	      1082	800067e0	00fbd493	srli	x9,x23,0xf	 x23:0x00000001  x9=0x00000000
       10845000	      1083	800067e4	f22f7f93	andi	x31,x30,-222	 x30:0xffffffcf x31=0xffffff02
       10855000	      1084	800067e8	01460db7	lui	x27,0x1460	 x27=0x01460000
       10865000	      1085	800067ec	03006a63	bltu	x0,x16,80006820	  x0:0x00000000 x16:0x0000100f
       10875000	      1086	00000000	00000013	addi	x0,x0,0	  x0:0x00000000
       10885000	      1087	8000681c	00000013	addi	x0,x0,0	  x0:0x00000000
       10895000	      1088	80006820	d435e797	auipc	x15,0xd435e	 x15=0x5436481c
       10905000	      1089	80006824	570ee813	ori	x16,x29,1392	 x29:0x00000000 x16=0x00000570
       10915000	      1090	80006828	00edf463	bgeu	x27,x14,80006830	 x27:0x01460000 x14:0x80009e98
       10925000	      1091	8000682c	0022fa63	bgeu	x5,x2,80006840	  x5:0x00000001  x2:0x00000000
       10935000	      1092	00000000	00000013	addi	x0,x0,0	  x0:0x00000000
       10945000	      1093	8000683c	00000013	addi	x0,x0,0	  x0:0x00000000
       10955000	      1094	80006840	43e32493	slti	x9,x6,1086	  x6:0x00000000  x9=0x00000001
       10965000	      1095	80006844	4045d133	sra	x2,x11,x4	 x11:0xffffefc0  x4:0xffffffcf  x2=0xffffffff
       10975000	      1096	80006848	c5e1b893	sltiu	x17,x3,-930	  x3:0x00000001 x17=0x00000001
       10985000	      1097	8000684c	00bc6633	or	x12,x24,x11	 x24:0x80000000 x11:0xffffefc0 x12=0xffffefc0
       10995000	      1098	80006850	03a8c663	blt	x17,x26,8000687c	 x17:0x00000001 x26:0x000002cf
       11005000	      1099	00000000	00000013	addi	x0,x0,0	  x0:0x00000000
       11015000	      1100	80006878	00000013	addi	x0,x0,0	  x0:0x00000000
       11025000	      1101	8000687c	05259263	bne	x11,x18,800068c0	 x11:0xffffefc0 x18:0x00000001
       11035000	      1102	00000000	00000013	addi	x0,x0,0	  x0:0x00000000
       11045000	      1103	800068bc	00000013	addi	x0,x0,0	  x0:0x00000000
       11055000	      1104	800068c0	bb721f97	auipc	x31,0xbb721	 x31=0x3b7278bc
       11065000	      1105	800068c4	495ab493	sltiu	x9,x21,1173	 x21:0xffffffcf  x9=0x00000000
       11075000	      1106	800068c8	051d9063	bne	x27,x17,80006908	 x27:0x01460000 x17:0x00000001
       11085000	      1107	00000000	00000013	addi	x0,x0,0	  x0:0x00000000
       11095000	      1108	80006904	00000013	addi	x0,x0,0	  x0:0x00000000
       11105000	      1109	80006908	59d87213	andi	x4,x16,1437	 x16:0x00000570  x4=0x00000510
       11115000	      1110	8000690c	ebf13613	sltiu	x12,x2,-321	  x2:0xffffffff x12=0x00000000
       11125000	      1111	80006910	00ff7e63	bgeu	x30,x15,8000692c	 x30:0xffffffcf x15:0x5436481c
       11135000	      1112	00000000	00000013	addi	x0,x0,0	  x0:0x00000000
       11145000	      1113	80006928	00000013	addi	x0,x0,0	  x0:0x00000000
       11155000	      1114	8000692c	1b857337	lui	x6,0x1b857	  x6=0x1b857000
       11165000	      1115	80006930	016e02b3	add	x5,x28,x22	 x28:0x00000000 x22:0xc1000000  x5=0xc1000000
       11175000	      1116	80006934	e8094993	xori	x19,x18,-384	 x18:0x00000001 x19=0xfffffe81
       11185000	      1117	80006938	a7b3b117	auipc	x2,0xa7b3b	  x2=0x27b41934
       11195000	      1118	8000693c	01fb5d93	srli	x27,x22,0x1f	 x22:0xc1000000 x27=0x00000001
       11205000	      1119	80006940	01eb5513	srli	x10,x22,0x1e	 x22:0xc1000000 x10=0x00000003
       11215000	      1120	80006944	40ad88b3	sub	x17,x27,x10	 x27:0x00000001 x10:0x00000003 x17=0xfffffffe
       11225000	      1121	80006948	a2dae493	ori	x9,x21,-1491	 x21:0xffffffcf  x9=0xffffffef
       11235000	      1122	8000694c	003143b3	xor	x7,x2,x3	  x2:0x27b41934  x3:0x00000001  x7=0x27b41935
       11245000	      1123	80006950	08457293	andi	x5,x10,132	 x10:0x00000003  x5=0x00000000
       11255000	      1124	80006954	13c03813	sltiu	x16,x0,316	  x0:0x00000000 x16=0x00000001
       11265000	      1125	80006958	408b83b3	sub	x7,x23,x8	 x23:0x00000001  x8:0x00000000  x7=0x00000001
       11275000	      1126	8000695c	41f18633	sub	x12,x3,x31	  x3:0x00000001 x31:0x3b7278bc x12=0xc48d8745
       11285000	      1127	80006960	003afa63	bgeu	x21,x3,80006974	 x21:0xffffffcf  x3:0x00000001
       11295000	      1128	00000000	00000013	addi	x0,x0,0	  x0:0x00000000
       11305000	      1129	80006970	00000013	addi	x0,x0,0	  x0:0x00000000
       11315000	      1130	80006974	00bf7ab3	and	x21,x30,x11	 x30:0xffffffcf x11:0xffffefc0 x21=0xffffefc0
       11325000	      1131	80006978	00777233	and	x4,x14,x7	 x14:0x80009e98  x7:0x00000001  x4=0x00000000
       11335000	      1132	8000697c	00285793	srli	x15,x16,0x2	 x16:0x00000001 x15=0x00000000
       11345000	      1133	80006980	025e4663	blt	x28,x5,800069ac	 x28:0x00000000  x5:0x00000000
       11355000	      1134	80006984	054d8063	beq	x27,x20,800069c4	 x27:0x00000001 x20:0x4cab5bc8
       11365000	      1135	80006988	013b9663	bne	x23,x19,80006994	 x23:0x00000001 x19:0xfffffe81
       11375000	      1136	00000000	00000013	addi	x0,x0,0	  x0:0x00000000
       11385000	      1137	80006990	00000013	addi	x0,x0,0	  x0:0x00000000
       11395000	      1138	80006994	75aac113	xori	x2,x21,1882	 x21:0xffffefc0  x2=0xffffe89a
       11405000	      1139	80006998	e8a36f13	ori	x30,x6,-374	  x6:0x1b857000 x30=0xfffffe8a
       11415000	      1140	8000699c	00000013	addi	x0,x0,0	  x0:0x00000000
       11425000	      1141	800069a0	012c14b3	sll	x9,x24,x18	 x24:0x80000000 x18:0x00000001  x9=0x00000000
       11435000	      1142	800069a4	409e0b33	sub	x22,x28,x9	 x28:0x00000000  x9:0x00000000 x22=0x00000000
       11445000	      1143	800069a8	41f8de33	sra	x28,x17,x31	 x17:0xfffffffe x31:0x3b7278bc x28=0xffffffff
       11455000	      1144	800069ac	56e32793	slti	x15,x6,1390	  x6:0x1b857000 x15=0x00000000
       11465000	      1145	800069b0	280d3f93	sltiu	x31,x26,640	 x26:0x000002cf x31=0x00000000
       11475000	      1146	800069b4	00000013	addi	x0,x0,0	  x0:0x00000000
       11485000	      1147	800069b8	00000013	addi	x0,x0,0	  x0:0x00000000
       11495000	      1148	800069bc	0027dbb3	srl	x23,x15,x2	 x15:0x00000000  x2:0xffffe89a x23=0x00000000
       11505000	      1149	800069c0	02e0ec63	bltu	x1,x14,800069f8	  x1:0xfffff3c0 x14:0x80009e98
       11515000	      1150	800069c4	00ad0463	beq	x26,x10,800069cc	 x26:0x000002cf x10:0x00000003
       11525000	      1151	800069c8	4061deb3	sra	x29,x3,x6	  x3:0x00000001  x6:0x1b857000 x29=0x00000001
       11535000	      1152	800069cc	6b35f793	andi	x15,x11,1715	 x11:0xffffefc0 x15=0x00000680
       11545000	      1153	800069d0	0270ee63	bltu	x1,x7,80006a0c	  x1:0xfffff3c0  x7:0x00000001
       11555000	      1154	800069d4	40d052b3	sra	x5,x0,x13	  x0:0x00000000 x13:0xffffffc1  x5=0x00000000
       11565000	      1155	800069d8	05047463	bgeu	x8,x16,80006a20	  x8:0x00000000 x16:0x00000001
       11575000	      1156	800069dc	fca4a793	slti	x15,x9,-54	  x9:0x00000000 x15=0x00000000
       11585000	      1157	800069e0	02f57263	bgeu	x10,x15,80006a04	 x10:0x00000003 x15:0x00000000
       11595000	      1158	00000000	00000013	addi	x0,x0,0	  x0:0x00000000
       11605000	      1159	80006a00	00000013	addi	x0,x0,0	  x0:0x00000000
       11615000	      1160	80006a04	40915393	srai	x7,x2,0x9	  x2:0xffffe89a  x7=0xfffffff4
       11625000	      1161	80006a08	31106f17	auipc	x30,0x31106	 x30=0xb110ca04
       11635000	      1162	80006a0c	41b758b3	sra	x17,x14,x27	 x14:0x80009e98 x27:0x00000001 x17=0xc0004f4c
       11645000	      1163	80006a10	03a27a63	bgeu	x4,x26,80006a44	  x4:0x00000000 x26:0x000002cf
       11655000	      1164	80006a14	b7d27413	andi	x8,x4,-1155	  x4:0x00000000  x8=0x00000000
       11665000	      1165	80006a18	00751593	slli	x11,x10,0x7	 x10:0x00000003 x11=0x00000180
       11675000	      1166	80006a1c	0e8f9e97	auipc	x29,0xe8f9	 x29=0x8e8ffa18
       11685000	      1167	80006a20	fa3de493	ori	x9,x27,-93	 x27:0x00000001  x9=0xffffffa3
       11695000	      1168	80006a24	440aae13	slti	x28,x21,1088	 x21:0xffffefc0 x28=0x00000001
       11705000	      1169	80006a28	01721b93	slli	x23,x4,0x17	  x4:0x00000000 x23=0x00000000
       11715000	      1170	80006a2c	00000013	addi	x0,x0,0	  x0:0x00000000
       11725000	      1171	80006a30	40585933	sra	x18,x16,x5	 x16:0x00000001  x5:0x00000000 x18=0x00000001
       11735000	      1172	80006a34	48b35f97	auipc	x31,0x48b35	 x31=0xc8b3ba30
       11745000	      1173	80006a38	003f1433	sll	x8,x30,x3	 x30:0xb110ca04  x3:0x00000001  x8=0x62219408
       11755000	      1174	80006a3c	419681b3	sub	x3,x13,x25	 x13:0xffffffc1 x25:0x80009fc4  x3=0x7fff5ffd
       11765000	      1175	80006a40	02b35863	bge	x6,x11,80006a70	  x6:0x1b857000 x11:0x00000180
       11775000	      1176	00000000	00000013	addi	x0,x0,0	  x0:0x00000000
       11785000	      1177	80006a6c	00000013	addi	x0,x0,0	  x0:0x00000000
       11795000	      1178	80006a70	01e1b1b3	sltu	x3,x3,x30	  x3:0x7fff5ffd x30:0xb110ca04  x3=0x00000001
       11805000	      1179	80006a74	01498a63	beq	x19,x20,80006a88	 x19:0xfffffe81 x20:0x4cab5bc8
       11815000	      1180	80006a78	99d64f13	xori	x30,x12,-1635	 x12:0xc48d8745 x30=0x3b727ed8
       11825000	      1181	80006a7c	01febbb3	sltu	x23,x29,x31	 x29:0x8e8ffa18 x31:0xc8b3ba30 x23=0x00000001
       11835000	      1182	80006a80	00467633	and	x12,x12,x4	 x12:0xc48d8745  x4:0x00000000 x12=0x00000000
       11845000	      1183	80006a84	026e6663	bltu	x28,x6,80006ab0	 x28:0x00000001  x6:0x1b857000
       11855000	      1184	00000000	00000013	addi	x0,x0,0	  x0:0x00000000
       11865000	      1185	80006aac	00000013	addi	x0,x0,0	  x0:0x00000000
       11875000	      1186	80006ab0	00000013	addi	x0,x0,0	  x0:0x00000000
       11885000	      1187	80006ab4	01057bb3	and	x23,x10,x16	 x10:0x00000003 x16:0x00000001 x23=0x00000001
       11895000	      1188	80006ab8	2a014213	xori	x4,x2,672	  x2:0xffffe89a  x4=0xffffea3a
       11905000	      1189	80006abc	8f978593	addi	x11,x15,-1799	 x15:0x00000000 x11=0xfffff8f9
       11915000	      1190	80006ac0	f9d92e13	slti	x28,x18,-99	 x18:0x00000001 x28=0x00000000
       11925000	      1191	80006ac4	000803b3	add	x7,x16,x0	 x16:0x00000001  x0:0x00000000  x7=0x00000001
       11935000	      1192	80006ac8	19ae0113	addi	x2,x28,410	 x28:0x00000000  x2=0x0000019a
       11945000	      1193	80006acc	0013a1b3	slt	x3,x7,x1	  x7:0x00000001  x1:0xfffff3c0  x3=0x00000000
       11955000	      1194	80006ad0	41448b93	addi	x23,x9,1044	  x9:0xffffffa3 x23=0x000003b7
       11965000	      1195	80006ad4	418c5e13	srai	x28,x24,0x18	 x24:0x80000000 x28=0xffffff80
       11975000	      1196	80006ad8	0974ff93	andi	x31,x9,151	  x9:0xffffffa3 x31=0x00000083
       11985000	      1197	80006adc	01e31593	slli	x11,x6,0x1e	  x6:0x1b857000 x11=0x00000000
       11995000	      1198	80006ae0	016214b3	sll	x9,x4,x22	  x4:0xffffea3a x22:0x00000000  x9=0xffffea3a
       12005000	      1199	80006ae4	5d52e013	ori	x0,x5,1493	  x5:0x00000000
       12015000	      1200	80006ae8	00321bb3	sll	x23,x4,x3	  x4:0xffffea3a  x3:0x00000000 x23=0xffffea3a
       12025000	      1201	80006aec	00735463	bge	x6,x7,80006af4	  x6:0x1b857000  x7:0x00000001
       12035000	      1202	00000000	00000013	addi	x0,x0,0	  x0:0x00000000
       12045000	      1203	80006af0	00000013	addi	x0,x0,0	  x0:0x00000000
       12055000	      1204	80006af4	01249493	slli	x9,x9,0x12	  x9:0xffffea3a  x9=0xa8e80000
       12065000	      1205	80006af8	0189ee63	bltu	x19,x24,80006b14	 x19:0xfffffe81 x24:0x80000000
       12075000	      1206	80006afc	b0ab7a97	auipc	x21,0xb0ab7	 x21=0x30abdaf8
       12085000	      1207	80006b00	0003b6b3	sltu	x13,x7,x0	  x7:0x00000001  x0:0x00000000 x13=0x00000000
       12095000	      1208	80006b04	092fe093	ori	x1,x31,146	 x31:0x00000083  x1=0x00000093
       12105000	      1209	80006b08	014c9333	sll	x6,x25,x20	 x25:0x80009fc4 x20:0x4cab5bc8  x6=0x009fc400
       12115000	      1210	80006b0c	01a425b3	slt	x11,x8,x26	  x8:0x62219408 x26:0x000002cf x11=0x00000000
       12125000	      1211	80006b10	40585213	srai	x4,x16,0x5	 x16:0x00000001  x4=0x00000000
       12135000	      1212	80006b14	01f54d33	xor	x26,x10,x31	 x10:0x00000003 x31:0x00000083 x26=0x00000080
       12145000	      1213	80006b18	00d3fa63	bgeu	x7,x13,80006b2c	  x7:0x00000001 x13:0x00000000
       12155000	      1214	00000000	00000013	addi	x0,x0,0	  x0:0x00000000
       12165000	      1215	80006b28	00000013	addi	x0,x0,0	  x0:0x00000000
       12175000	      1216	80006b2c	01984bb3	xor	x23,x16,x25	 x16:0x00000001 x25:0x80009fc4 x23=0x80009fc5
       12185000	      1217	80006b30	00000013	addi	x0,x0,0	  x0:0x00000000
       12195000	      1218	80006b34	002c6fb3	or	x31,x24,x2	 x24:0x80000000  x2:0x0000019a x31=0x8000019a
       12205000	      1219	80006b38	004d7d33	and	x26,x26,x4	 x26:0x00000080  x4:0x00000000 x26=0x00000000
       12215000	      1220	80006b3c	015bddb3	srl	x27,x23,x21	 x23:0x80009fc5 x21:0x30abdaf8 x27=0x00000080
       12225000	      1221	80006b40	04311263	bne	x2,x3,80006b84	  x2:0x0000019a  x3:0x00000000
       12235000	      1222	00000000	00000013	addi	x0,x0,0	  x0:0x00000000
       12245000	      1223	80006b80	00000013	addi	x0,x0,0	  x0:0x00000000
       12255000	      1224	80006b84	cb9cf113	andi	x2,x25,-839	 x25:0x80009fc4  x2=0x80009c80
       12265000	      1225	80006b88	05480663	beq	x16,x20,80006bd4	 x16:0x00000001 x20:0x4cab5bc8
       12275000	      1226	80006b8c	9d507213	andi	x4,x0,-1579	  x0:0x00000000  x4=0x00000000
       12285000	      1227	80006b90	c6b3e317	auipc	x6,0xc6b3e	  x6=0x46b44b8c
       12295000	      1228	80006b94	014e4a33	xor	x20,x28,x20	 x28:0xffffff80 x20:0x4cab5bc8 x20=0xb354a448
       12305000	      1229	80006b98	000661b3	or	x3,x12,x0	 x12:0x00000000  x0:0x00000000  x3=0x00000000
       12315000	      1230	80006b9c	40110b33	sub	x22,x2,x1	  x2:0x80009c80  x1:0x00000093 x22=0x80009bed
       12325000	      1231	80006ba0	03ae8493	addi	x9,x29,58	 x29:0x8e8ffa18  x9=0x8e8ffa52
       12335000	      1232	80006ba4	00000013	addi	x0,x0,0	  x0:0x00000000
       12345000	      1233	80006ba8	c11eb597	auipc	x11,0xc11eb	 x11=0x411f1ba4
       12355000	      1234	80006bac	406f5ab3	sra	x21,x30,x6	 x30:0x3b727ed8  x6:0x46b44b8c x21=0x0003b727
       12365000	      1235	80006bb0	033ec663	blt	x29,x19,80006bdc	 x29:0x8e8ffa18 x19:0xfffffe81
       12375000	      1236	00000000	00000013	addi	x0,x0,0	  x0:0x00000000
       12385000	      1237	80006bd8	00000013	addi	x0,x0,0	  x0:0x00000000
       12395000	      1238	80006bdc	01fb4933	xor	x18,x22,x31	 x22:0x80009bed x31:0x8000019a x18=0x00009a77
       12405000	      1239	80006be0	c1f86513	ori	x10,x16,-993	 x16:0x00000001 x10=0xfffffc1f
       12415000	      1240	80006be4	00c61f33	sll	x30,x12,x12	 x12:0x00000000 x12:0x00000000 x30=0x00000000
       12425000	      1241	80006be8	017b4463	blt	x22,x23,80006bf0	 x22:0x80009bed x23:0x80009fc5
       12435000	      1242	00000000	00000013	addi	x0,x0,0	  x0:0x00000000
       12445000	      1243	80006bec	00000013	addi	x0,x0,0	  x0:0x00000000
       12455000	      1244	80006bf0	013ede63	bge	x29,x19,80006c0c	 x29:0x8e8ffa18 x19:0xfffffe81
       12465000	      1245	80006bf4	409b06b3	sub	x13,x22,x9	 x22:0x80009bed  x9:0x8e8ffa52 x13=0xf170a19b
       12475000	      1246	80006bf8	00000013	addi	x0,x0,0	  x0:0x00000000
       12485000	      1247	80006bfc	019886b3	add	x13,x17,x25	 x17:0xc0004f4c x25:0x80009fc4 x13=0x4000ef10
       12495000	      1248	80006c00	02107a63	bgeu	x0,x1,80006c34	  x0:0x00000000  x1:0x00000093
       12505000	      1249	80006c04	c0aeb093	sltiu	x1,x29,-1014	 x29:0x8e8ffa18  x1=0x00000001
       12515000	      1250	80006c08	41770db3	sub	x27,x14,x23	 x14:0x80009e98 x23:0x80009fc5 x27=0xfffffed3
       12525000	      1251	80006c0c	fe232293	slti	x5,x6,-30	  x6:0x46b44b8c  x5=0x00000000
       12535000	      1252	80006c10	014b2233	slt	x4,x22,x20	 x22:0x80009bed x20:0xb354a448  x4=0x00000001
       12545000	      1253	80006c14	01379213	slli	x4,x15,0x13	 x15:0x00000000  x4=0x00000000
       12555000	      1254	80006c18	0148d433	srl	x8,x17,x20	 x17:0xc0004f4c x20:0xb354a448  x8=0x00c0004f
       12565000	      1255	80006c1c	007d1c63	bne	x26,x7,80006c34	 x26:0x00000000  x7:0x00000001
       12575000	      1256	00000000	00000013	addi	x0,x0,0	  x0:0x00000000
       12585000	      1257	80006c30	00000013	addi	x0,x0,0	  x0:0x00000000
       12595000	      1258	80006c34	00b4ba33	sltu	x20,x9,x11	  x9:0x8e8ffa52 x11:0x411f1ba4 x20=0x00000000
       12605000	      1259	80006c38	b7ad7fb7	lui	x31,0xb7ad7	 x31=0xb7ad7000
       12615000	      1260	80006c3c	0079cb33	xor	x22,x19,x7	 x19:0xfffffe81  x7:0x00000001 x22=0xfffffe80
       12625000	      1261	80006c40	00472903	lw	x18,4(x14)	 x14:0x80009e98 x18=0x80000560 PA:0x80009e9c
       12635000	      1262	80006c44	03870713	addi	x14,x14,56	 x14:0x80009e98 x14=0x80009ed0
       12645000	      1263	80006c48	4100d1b3	sra	x3,x1,x16	  x1:0x00000001 x16:0x00000001  x3=0x00000000
       12655000	      1264	80006c4c	1e218393	addi	x7,x3,482	  x3:0x00000000  x7=0x000001e2
       12665000	      1265	80006c50	00090513	addi	x10,x18,0	 x18:0x80000560 x10=0x80000560
       12675000	      1266	80006c54	00050567	jalr	x10,x10,0	 x10:0x80000560 x10=0x80006c54
       12685000	      1267	00000000	00000013	addi	x0,x0,0	  x0:0x00000000
       12695000	      1268	80000560	00000013	addi	x0,x0,0	  x0:0x00000000
       12705000	      1269	80000564	00fc9e63	bne	x25,x15,80000580	 x25:0x80009fc4 x15:0x00000000
       12715000	      1270	00000000	00000013	addi	x0,x0,0	  x0:0x00000000
       12725000	      1271	8000057c	00000013	addi	x0,x0,0	  x0:0x00000000
       12735000	      1272	80000580	00a25913	srli	x18,x4,0xa	  x4:0x00000000 x18=0x00000000
       12745000	      1273	80000584	4071d2b3	sra	x5,x3,x7	  x3:0x00000000  x7:0x000001e2  x5=0x00000000
       12755000	      1274	80000588	f525f613	andi	x12,x11,-174	 x11:0x411f1ba4 x12=0x411f1b00
       12765000	      1275	8000058c	007cd0b3	srl	x1,x25,x7	 x25:0x80009fc4  x7:0x000001e2  x1=0x200027f1
       12775000	      1276	80000590	57738193	addi	x3,x7,1399	  x7:0x000001e2  x3=0x00000759
       12785000	      1277	80000594	40670a33	sub	x20,x14,x6	 x14:0x80009ed0  x6:0x46b44b8c x20=0x394c5344
       12795000	      1278	80000598	7a9ff493	andi	x9,x31,1961	 x31:0xb7ad7000  x9=0x00000000
       12805000	      1279	8000059c	606d4e13	xori	x28,x26,1542	 x26:0x00000000 x28=0x00000606
       12815000	      1280	800005a0	013638b3	sltu	x17,x12,x19	 x12:0x411f1b00 x19:0xfffffe81 x17=0x00000001
       12825000	      1281	800005a4	41a3d933	sra	x18,x7,x26	  x7:0x000001e2 x26:0x00000000 x18=0x000001e2
       12835000	      1282	800005a8	00917863	bgeu	x2,x9,800005b8	  x2:0x80009c80  x9:0x00000000
       12845000	      1283	00000000	00000013	addi	x0,x0,0	  x0:0x00000000
       12855000	      1284	800005b4	00000013	addi	x0,x0,0	  x0:0x00000000
       12865000	      1285	800005b8	40d55013	srai	x0,x10,0xd	 x10:0x80006c54
       12875000	      1286	800005bc	41275593	srai	x11,x14,0x12	 x14:0x80009ed0 x11=0xffffe000
       12885000	      1287	800005c0	0099db33	srl	x22,x19,x9	 x19:0xfffffe81  x9:0x00000000 x22=0xfffffe81
       12895000	      1288	800005c4	f5bdd297	auipc	x5,0xf5bdd	  x5=0x75bdd5c0
       12905000	      1289	800005c8	02ee5463	bge	x28,x14,800005f0	 x28:0x00000606 x14:0x80009ed0
       12915000	      1290	00000000	00000013	addi	x0,x0,0	  x0:0x00000000
       12925000	      1291	800005ec	00000013	addi	x0,x0,0	  x0:0x00000000
       12935000	      1292	800005f0	00000013	addi	x0,x0,0	  x0:0x00000000
       12945000	      1293	800005f4	01d24263	blt	x4,x29,800005f8	  x4:0x00000000 x29:0x8e8ffa18
       12955000	      1294	800005f8	dce9f417	auipc	x8,0xdce9f	  x8=0x5ce9f5f4
       12965000	      1295	800005fc	de98c113	xori	x2,x17,-535	 x17:0x00000001  x2=0xfffffde8
       12975000	      1296	80000600	929a3093	sltiu	x1,x20,-1751	 x20:0x394c5344  x1=0x00000001
       12985000	      1297	80000604	5a854193	xori	x3,x10,1448	 x10:0x80006c54  x3=0x800069fc
       12995000	      1298	80000608	00472903	lw	x18,4(x14)	 x14:0x80009ed0 x18=0x80000674 PA:0x80009ed4
       13005000	      1299	8000060c	00f05d93	srli	x27,x0,0xf	  x0:0x00000000 x27=0x00000000
       13015000	      1300	80000610	418cdd13	srai	x26,x25,0x18	 x25:0x80009fc4 x26=0xffffff80
       13025000	      1301	80000614	001386b3	add	x13,x7,x1	  x7:0x000001e2  x1:0x00000001 x13=0x000001e3
       13035000	      1302	80000618	01470713	addi	x14,x14,20	 x14:0x80009ed0 x14=0x80009ee4
       13045000	      1303	8000061c	00791613	slli	x12,x18,0x7	 x18:0x80000674 x12=0x00033a00
       13055000	      1304	80000620	40210fb3	sub	x31,x2,x2	  x2:0xfffffde8  x2:0xfffffde8 x31=0x00000000
       13065000	      1305	80000624	00190e13	addi	x28,x18,1	 x18:0x80000674 x28=0x80000675
       13075000	      1306	80000628	000e0e67	jalr	x28,x28,0	 x28:0x80000675 x28=0x80000628
       13085000	      1307	00000000	00000013	addi	x0,x0,0	  x0:0x00000000
       13095000	      1308	80000674	00000013	addi	x0,x0,0	  x0:0x00000000
       13105000	      1309	80000678	00e39113	slli	x2,x7,0xe	  x7:0x000001e2  x2=0x00788000
       13115000	      1310	8000067c	3f50b313	sltiu	x6,x1,1013	  x1:0x00000001  x6=0x00000001
       13125000	      1311	80000680	ec2c3313	sltiu	x6,x24,-318	 x24:0x80000000  x6=0x00000001
       13135000	      1312	80000684	00f4deb3	srl	x29,x9,x15	  x9:0x00000000 x15:0x00000000 x29=0x00000000
       13145000	      1313	80000688	401c5e93	srai	x29,x24,0x1	 x24:0x80000000 x29=0xc0000000
       13155000	      1314	8000068c	0114f463	bgeu	x9,x17,80000694	  x9:0x00000000 x17:0x00000001
       13165000	      1315	80000690	01bd5b93	srli	x23,x26,0x1b	 x26:0xffffff80 x23=0x0000001f
       13175000	      1316	80000694	6ad0396f	jal	x18,80000694	 x18=0x80000694
       13185000	      1317	00000000	00000013	addi	x0,x0,0	  x0:0x00000000
       13195000	      1318	8000453c	00000013	addi	x0,x0,0	  x0:0x00000000
       13205000	      1319	80004540	ff470713	addi	x14,x14,-12	 x14:0x80009ee4 x14=0x80009ed8
       13215000	      1320	80004544	90cffa93	andi	x21,x31,-1780	 x31:0x00000000 x21=0x00000000
       13225000	      1321	80004548	019e8ab3	add	x21,x29,x25	 x29:0xc0000000 x25:0x80009fc4 x21=0x40009fc4
       13235000	      1322	8000454c	ae4b2a13	slti	x20,x22,-1308	 x22:0xfffffe81 x20=0x00000000
       13245000	      1323	80004550	01272223	sw	x18,4(x14)	 x14:0x80009ed8 x18:0x80000694 PA:0x80009edc
       13255000	      1324	80004554	0030c4b3	xor	x9,x1,x3	  x1:0x00000001  x3:0x800069fc  x9=0x800069fd
       13265000	      1325	80004558	00004a17	auipc	x20,0x4	 x20=0x80008554
       13275000	      1326	8000455c	242a0a13	addi	x20,x20,578	 x20:0x80008554 x20=0x80008796
       13285000	      1327	80004560	00000013	addi	x0,x0,0	  x0:0x00000000
       13295000	      1328	80004564	0049f8b3	and	x17,x19,x4	 x19:0xfffffe81  x4:0x00000000 x17=0x00000000
       13305000	      1329	80004568	ffda0103	lb	x2,-3(x20)	 x20:0x80008796  x2=0x00000000 PA:0x80008793
       13315000	      1330	8000456c	ff0a5b83	lhu	x23,-16(x20)	 x20:0x80008796 x23=0x00000000 PA:0x80008786
       13325000	      1331	80004570	00d5d313	srli	x6,x11,0xd	 x11:0xffffe000  x6=0x0007ffff
       13335000	      1332	80004574	ffaa0b83	lb	x23,-6(x20)	 x20:0x80008796 x23=0x00000000 PA:0x80008790
       13345000	      1333	80004578	fffa4683	lbu	x13,-1(x20)	 x20:0x80008796 x13=0x00000000 PA:0x80008795
       13355000	      1334	8000457c	005a06a3	sb	x5,13(x20)	 x20:0x80008796  x5:0x75bdd5c0 PA:0x800087a3
       13365000	      1335	80004580	001108b3	add	x17,x2,x1	  x2:0x00000000  x1:0x00000001 x17=0x00000001
       13375000	      1336	80004584	4047db93	srai	x23,x15,0x4	 x15:0x00000000 x23=0x00000000
       13385000	      1337	80004588	000d4d33	xor	x26,x26,x0	 x26:0xffffff80  x0:0x00000000 x26=0xffffff80
       13395000	      1338	8000458c	004a2323	sw	x4,6(x20)	 x20:0x80008796  x4:0x00000000 PA:0x8000879c
       13405000	      1339	80004590	ff3a4783	lbu	x15,-13(x20)	 x20:0x80008796 x15=0x00000000 PA:0x80008789
       13415000	      1340	80004594	34ec9417	auipc	x8,0x34ec9	  x8=0xb4ecd590
       13425000	      1341	80004598	24eb8413	addi	x8,x23,590	 x23:0x00000000  x8=0x0000024e
       13435000	      1342	8000459c	2be36693	ori	x13,x6,702	  x6:0x0007ffff x13=0x0007ffff
       13445000	      1343	800045a0	000a4b83	lbu	x23,0(x20)	 x20:0x80008796 x23=0x00000000 PA:0x80008796
       13455000	      1344	800045a4	00aa1723	sh	x10,14(x20)	 x20:0x80008796 x10:0x80006c54 PA:0x800087a4
       13465000	      1345	800045a8	ff5a0803	lb	x16,-11(x20)	 x20:0x80008796 x16=0x00000000 PA:0x8000878b
       13475000	      1346	00000000	00000013	addi	x0,x0,0	  x0:0x00000000
       13485000	      1347	800045ac	ff0a1383	lh	x7,-16(x20)	 x20:0x80008796  x7=0x00000000 PA:0x80008786
       13495000	      1348	800045b0	12b04f93	xori	x31,x0,299	  x0:0x00000000 x31=0x0000012b
       13505000	      1349	800045b4	001a4103	lbu	x2,1(x20)	 x20:0x80008796  x2=0x00000000 PA:0x80008797
       13515000	      1350	800045b8	ff8a09a3	sb	x24,-13(x20)	 x20:0x80008796 x24:0x80000000 PA:0x80008789
       13525000	      1351	800045bc	ff6a2923	sw	x22,-14(x20)	 x20:0x80008796 x22:0xfffffe81 PA:0x80008788
       13535000	      1352	800045c0	41c603b3	sub	x7,x12,x28	 x12:0x00033a00 x28:0x80000628  x7=0x800333d8
       13545000	      1353	800045c4	014a2123	sw	x20,2(x20)	 x20:0x80008796 x20:0x80008796 PA:0x80008798
       13555000	      1354	800045c8	ff1a0003	lb	x0,-15(x20)	 x20:0x80008796 PA:0x80008787
       13565000	      1355	800045cc	012a0323	sb	x18,6(x20)	 x20:0x80008796 x18:0x80000694 PA:0x8000879c
       13575000	      1356	800045d0	008a00a3	sb	x8,1(x20)	 x20:0x80008796  x8:0x0000024e PA:0x80008797
       13585000	      1357	800045d4	018a02a3	sb	x24,5(x20)	 x20:0x80008796 x24:0x80000000 PA:0x8000879b
       13595000	      1358	800045d8	ff8a1883	lh	x17,-8(x20)	 x20:0x80008796 x17=0x00000000 PA:0x8000878e
       13605000	      1359	00000000	00000013	addi	x0,x0,0	  x0:0x00000000
       13615000	      1360	800045dc	011105b3	add	x11,x2,x17	  x2:0x00000000 x17:0x00000000 x11=0x00000000
       13625000	      1361	800045e0	ffca0783	lb	x15,-4(x20)	 x20:0x80008796 x15=0x00000000 PA:0x80008792
       13635000	      1362	800045e4	ff4a4403	lbu	x8,-12(x20)	 x20:0x80008796  x8=0x000000ff PA:0x8000878a
       13645000	      1363	800045e8	005a4403	lbu	x8,5(x20)	 x20:0x80008796  x8=0x00000000 PA:0x8000879b
       13655000	      1364	800045ec	002a5383	lhu	x7,2(x20)	 x20:0x80008796  x7=0x00008796 PA:0x80008798
       13665000	      1365	800045f0	ff3a0283	lb	x5,-13(x20)	 x20:0x80008796  x5=0xfffffffe PA:0x80008789
       13675000	      1366	800045f4	feaa09a3	sb	x10,-13(x20)	 x20:0x80008796 x10:0x80006c54 PA:0x80008789
       13685000	      1367	800045f8	012ed493	srli	x9,x29,0x12	 x29:0xc0000000  x9=0x00003000
       13695000	      1368	800045fc	002a0203	lb	x4,2(x20)	 x20:0x80008796  x4=0xffffff96 PA:0x80008798
       13705000	      1369	80004600	00004117	auipc	x2,0x4	  x2=0x800085fc
       13715000	      1370	80004604	41910113	addi	x2,x2,1049	  x2:0x800085fc  x2=0x80008a15
       13725000	      1371	80004608	9a48b213	sltiu	x4,x17,-1628	 x17:0x00000000  x4=0x00000001
       13735000	      1372	8000460c	f7310d83	lb	x27,-141(x2)	  x2:0x80008a15 x27=0x00000000 PA:0x80008988
       13745000	      1373	80004610	40895d13	srai	x26,x18,0x8	 x18:0x80000694 x26=0xff800006
       13755000	      1374	80004614	0ac10d83	lb	x27,172(x2)	  x2:0x80008a15 x27=0x00000000 PA:0x80008ac1
       13765000	      1375	80004618	484f7813	andi	x16,x30,1156	 x30:0x00000000 x16=0x00000000
       13775000	      1376	8000461c	4087deb3	sra	x29,x15,x8	 x15:0x00000000  x8:0x00000000 x29=0x00000000
       13785000	      1377	80004620	0138d293	srli	x5,x17,0x13	 x17:0x00000000  x5=0x00000000
       13795000	      1378	80004624	f6610a83	lb	x21,-154(x2)	  x2:0x80008a15 x21=0x00000000 PA:0x8000897b
       13805000	      1379	80004628	090121a3	sw	x16,131(x2)	  x2:0x80008a15 x16:0x00000000 PA:0x80008a98
       13815000	      1380	8000462c	f4611da3	sh	x6,-165(x2)	  x2:0x80008a15  x6:0x0007ffff PA:0x80008970
       13825000	      1381	80004630	0af14083	lbu	x1,175(x2)	  x2:0x80008a15  x1=0x00000000 PA:0x80008ac4
       13835000	      1382	80004634	06414403	lbu	x8,100(x2)	  x2:0x80008a15  x8=0x00000000 PA:0x80008a79
       13845000	      1383	80004638	82d54a13	xori	x20,x10,-2003	 x10:0x80006c54 x20=0x7fff9479
       13855000	      1384	8000463c	ddb94893	xori	x17,x18,-549	 x18:0x80000694 x17=0x7ffffb4f
       13865000	      1385	80004640	0034d593	srli	x11,x9,0x3	  x9:0x00003000 x11=0x00000600
       13875000	      1386	80004644	f1910603	lb	x12,-231(x2)	  x2:0x80008a15 x12=0x00000000 PA:0x8000892e
       13885000	      1387	80004648	faf14a03	lbu	x20,-81(x2)	  x2:0x80008a15 x20=0x00000000 PA:0x800089c4
       13895000	      1388	8000464c	b7f77237	lui	x4,0xb7f77	  x4=0xb7f77000
       13905000	      1389	80004650	103b7b13	andi	x22,x22,259	 x22:0xfffffe81 x22=0x00000001
       13915000	      1390	80004654	006bca33	xor	x20,x23,x6	 x23:0x00000000  x6:0x0007ffff x20=0x0007ffff
       13925000	      1391	80004658	0ae14383	lbu	x7,174(x2)	  x2:0x80008a15  x7=0x00000000 PA:0x80008ac3
       13935000	      1392	8000465c	400eda93	srai	x21,x29,0x0	 x29:0x00000000 x21=0x00000000
       13945000	      1393	80004660	ff410d23	sb	x20,-6(x2)	  x2:0x80008a15 x20:0x0007ffff PA:0x80008a0f
       13955000	      1394	80004664	41fa5d93	srai	x27,x20,0x1f	 x20:0x0007ffff x27=0x00000000
       13965000	      1395	80004668	8c892813	slti	x16,x18,-1848	 x18:0x80000694 x16=0x00000001
       13975000	      1396	8000466c	00396f33	or	x30,x18,x3	 x18:0x80000694  x3:0x800069fc x30=0x80006ffc
       13985000	      1397	80004670	241c9db7	lui	x27,0x241c9	 x27=0x241c9000
       13995000	      1398	80004674	fa110503	lb	x10,-95(x2)	  x2:0x80008a15 x10=0x00000000 PA:0x800089b6
       14005000	      1399	80004678	fe910a03	lb	x20,-23(x2)	  x2:0x80008a15 x20=0x00000000 PA:0x800089fe
       14015000	      1400	8000467c	41ecd833	sra	x16,x25,x30	 x25:0x80009fc4 x30:0x80006ffc x16=0xfffffff8
       14025000	      1401	80004680	08f14583	lbu	x11,143(x2)	  x2:0x80008a15 x11=0x00000000 PA:0x80008aa4
       14035000	      1402	80004684	00004f17	auipc	x30,0x4	 x30=0x80008680
       14045000	      1403	80004688	da6f0f13	addi	x30,x30,-602	 x30:0x80008680 x30=0x80008426
       14055000	      1404	8000468c	febf0503	lb	x10,-21(x30)	 x30:0x80008426 x10=0x00000000 PA:0x80008411
       14065000	      1405	80004690	01ff0d03	lb	x26,31(x30)	 x30:0x80008426 x26=0x00000000 PA:0x80008445
       14075000	      1406	80004694	fccf0b23	sb	x12,-42(x30)	 x30:0x80008426 x12:0x00000000 PA:0x800083fc
       14085000	      1407	80004698	fe4f4183	lbu	x3,-28(x30)	 x30:0x80008426  x3=0x00000000 PA:0x8000840a
       14095000	      1408	8000469c	03af2a03	lw	x20,58(x30)	 x30:0x80008426 x20=0x00000000 PA:0x80008460
       14105000	      1409	800046a0	00ceb033	sltu	x0,x29,x12	 x29:0x00000000 x12:0x00000000
       14115000	      1410	800046a4	031f0e23	sb	x17,60(x30)	 x30:0x80008426 x17:0x7ffffb4f PA:0x80008462
       14125000	      1411	800046a8	01af4203	lbu	x4,26(x30)	 x30:0x80008426  x4=0x00000000 PA:0x80008440
       14135000	      1412	800046ac	8afe4813	xori	x16,x28,-1873	 x28:0x80000628 x16=0x7ffffe87
       14145000	      1413	800046b0	013f4e03	lbu	x28,19(x30)	 x30:0x80008426 x28=0x00000000 PA:0x80008439
       14155000	      1414	800046b4	44228593	addi	x11,x5,1090	  x5:0x00000000 x11=0x00000442
       14165000	      1415	800046b8	02cf0583	lb	x11,44(x30)	 x30:0x80008426 x11=0x00000000 PA:0x80008452
       14175000	      1416	800046bc	e6106493	ori	x9,x0,-415	  x0:0x00000000  x9=0xfffffe61
       14185000	      1417	800046c0	32ba8993	addi	x19,x21,811	 x21:0x00000000 x19=0x0000032b
       14195000	      1418	800046c4	00ef08a3	sb	x14,17(x30)	 x30:0x80008426 x14:0x80009ed8 PA:0x80008437
       14205000	      1419	800046c8	5bc5f813	andi	x16,x11,1468	 x11:0x00000000 x16=0x00000000
       14215000	      1420	800046cc	033f4883	lbu	x17,51(x30)	 x30:0x80008426 x17=0x00000000 PA:0x80008459
       14225000	      1421	800046d0	00e73b33	sltu	x22,x14,x14	 x14:0x80009ed8 x14:0x80009ed8 x22=0x00000000
       14235000	      1422	800046d4	fcff0083	lb	x1,-49(x30)	 x30:0x80008426  x1=0x00000000 PA:0x800083f5
       14245000	      1423	800046d8	006f2523	sw	x6,10(x30)	 x30:0x80008426  x6:0x0007ffff PA:0x80008430
       14255000	      1424	800046dc	035f4783	lbu	x15,53(x30)	 x30:0x80008426 x15=0x00000000 PA:0x8000845b
       14265000	      1425	800046e0	40c1ddb3	sra	x27,x3,x12	  x3:0x00000000 x12:0x00000000 x27=0x00000000
       14275000	      1426	800046e4	018f4783	lbu	x15,24(x30)	 x30:0x80008426 x15=0x00000000 PA:0x8000843e
       14285000	      1427	00000000	00000013	addi	x0,x0,0	  x0:0x00000000
       14295000	      1428	800046e8	02ff0ea3	sb	x15,61(x30)	 x30:0x80008426 x15:0x00000000 PA:0x80008463
       14305000	      1429	800046ec	01a30fb3	add	x31,x6,x26	  x6:0x0007ffff x26:0x00000000 x31=0x0007ffff
       14315000	      1430	800046f0	66740797	auipc	x15,0x66740	 x15=0xe67446ec
       14325000	      1431	800046f4	91b57893	andi	x17,x10,-1765	 x10:0x00000000 x17=0x00000000
       14335000	      1432	800046f8	00415933	srl	x18,x2,x4	  x2:0x80008a15  x4:0x00000000 x18=0x80008a15
       14345000	      1433	800046fc	fcef5903	lhu	x18,-50(x30)	 x30:0x80008426 x18=0x00000000 PA:0x800083f4
       14355000	      1434	80004700	49b4e113	ori	x2,x9,1179	  x9:0xfffffe61  x2=0xfffffefb
       14365000	      1435	80004704	fd8f5003	lhu	x0,-40(x30)	 x30:0x80008426 PA:0x800083fe
       14375000	      1436	80004708	fc8f1883	lh	x17,-56(x30)	 x30:0x80008426 x17=0x00000000 PA:0x800083ee
       14385000	      1437	8000470c	02ff1823	sh	x15,48(x30)	 x30:0x80008426 x15:0xe67446ec PA:0x80008456
       14395000	      1438	80004710	01a908b3	add	x17,x18,x26	 x18:0x00000000 x26:0x00000000 x17=0x00000000
       14405000	      1439	80004714	004966b3	or	x13,x18,x4	 x18:0x00000000  x4:0x00000000 x13=0x00000000
       14415000	      1440	80004718	a1ab7f93	andi	x31,x22,-1510	 x22:0x00000000 x31=0x00000000
       14425000	      1441	8000471c	e948c613	xori	x12,x17,-364	 x17:0x00000000 x12=0xfffffe94
       14435000	      1442	80004720	ff7f0623	sb	x23,-20(x30)	 x30:0x80008426 x23:0x00000000 PA:0x80008412
       14445000	      1443	80004724	00004b97	auipc	x23,0x4	 x23=0x80008720
       14455000	      1444	80004728	1b2b8b93	addi	x23,x23,434	 x23:0x80008720 x23=0x800088d2
       14465000	      1445	8000472c	008bcd83	lbu	x27,8(x23)	 x23:0x800088d2 x27=0x00000000 PA:0x800088da
       14475000	      1446	80004730	01aadb13	srli	x22,x21,0x1a	 x21:0x00000000 x22=0x00000000
       14485000	      1447	80004734	00dbce03	lbu	x28,13(x23)	 x23:0x800088d2 x28=0x00000000 PA:0x800088df
       14495000	      1448	80004738	003bc583	lbu	x11,3(x23)	 x23:0x800088d2 x11=0x00000000 PA:0x800088d5
       14505000	      1449	8000473c	ff6b9583	lh	x11,-10(x23)	 x23:0x800088d2 x11=0x00000000 PA:0x800088c8
       14515000	      1450	80004740	008b9e83	lh	x29,8(x23)	 x23:0x800088d2 x29=0x00000000 PA:0x800088da
       14525000	      1451	80004744	ff6bd483	lhu	x9,-10(x23)	 x23:0x800088d2  x9=0x00000000 PA:0x800088c8
       14535000	      1452	80004748	015dfd33	and	x26,x27,x21	 x27:0x00000000 x21:0x00000000 x26=0x00000000
       14545000	      1453	8000474c	006bc183	lbu	x3,6(x23)	 x23:0x800088d2  x3=0x00000000 PA:0x800088d8
       14555000	      1454	80004750	00ffe2b3	or	x5,x31,x15	 x31:0x00000000 x15:0xe67446ec  x5=0xe67446ec
       14565000	      1455	80004754	00952233	slt	x4,x10,x9	 x10:0x00000000  x9:0x00000000  x4=0x00000000
       14575000	      1456	80004758	01a76533	or	x10,x14,x26	 x14:0x80009ed8 x26:0x00000000 x10=0x80009ed8
       14585000	      1457	8000475c	169b4617	auipc	x12,0x169b4	 x12=0x969b8758
       14595000	      1458	80004760	00000013	addi	x0,x0,0	  x0:0x00000000
       14605000	      1459	80004764	011b82a3	sb	x17,5(x23)	 x23:0x800088d2 x17:0x00000000 PA:0x800088d7
       14615000	      1460	80004768	e99c6137	lui	x2,0xe99c6	  x2=0xe99c6000
       14625000	      1461	8000476c	009c6133	or	x2,x24,x9	 x24:0x80000000  x9:0x00000000  x2=0x80000000
       14635000	      1462	80004770	fefb8823	sb	x15,-16(x23)	 x23:0x800088d2 x15:0xe67446ec PA:0x800088c2
       14645000	      1463	80004774	fe7b9923	sh	x7,-14(x23)	 x23:0x800088d2  x7:0x00000000 PA:0x800088c4
       14655000	      1464	80004778	bca2e913	ori	x18,x5,-1078	  x5:0xe67446ec x18=0xffffffee
       14665000	      1465	8000477c	40f58633	sub	x12,x11,x15	 x11:0x00000000 x15:0xe67446ec x12=0x198bb914
       14675000	      1466	80004780	00000013	addi	x0,x0,0	  x0:0x00000000
       14685000	      1467	80004784	ff7b8383	lb	x7,-9(x23)	 x23:0x800088d2  x7=0x00000000 PA:0x800088c9
       14695000	      1468	80004788	0012bfb3	sltu	x31,x5,x1	  x5:0xe67446ec  x1:0x00000000 x31=0x00000000
       14705000	      1469	8000478c	0080a633	slt	x12,x1,x8	  x1:0x00000000  x8:0x00000000 x12=0x00000000
       14715000	      1470	80004790	dd846413	ori	x8,x8,-552	  x8:0x00000000  x8=0xfffffdd8
       14725000	      1471	80004794	ffbb8183	lb	x3,-5(x23)	 x23:0x800088d2  x3=0x00000000 PA:0x800088cd
       14735000	      1472	80004798	01a6e933	or	x18,x13,x26	 x13:0x00000000 x26:0x00000000 x18=0x00000000
       14745000	      1473	8000479c	004b9403	lh	x8,4(x23)	 x23:0x800088d2  x8=0x00000000 PA:0x800088d6
       14755000	      1474	800047a0	00004117	auipc	x2,0x4	  x2=0x8000879c
       14765000	      1475	800047a4	f0a10113	addi	x2,x2,-246	  x2:0x8000879c  x2=0x800086a6
       14775000	      1476	800047a8	9a710803	lb	x16,-1625(x2)	  x2:0x800086a6 x16=0x00000000 PA:0x8000804d
       14785000	      1477	800047ac	f0b10d83	lb	x27,-245(x2)	  x2:0x800086a6 x27=0x00000000 PA:0x800085b1
       14795000	      1478	800047b0	f3f10d23	sb	x31,-198(x2)	  x2:0x800086a6 x31:0x00000000 PA:0x800085e0
       14805000	      1479	800047b4	016b1fb3	sll	x31,x22,x22	 x22:0x00000000 x22:0x00000000 x31=0x00000000
       14815000	      1480	800047b8	00000013	addi	x0,x0,0	  x0:0x00000000
       14825000	      1481	800047bc	00a29313	slli	x6,x5,0xa	  x5:0xe67446ec  x6=0xd11bb000
       14835000	      1482	800047c0	a8110aa3	sb	x1,-1387(x2)	  x2:0x800086a6  x1:0x00000000 PA:0x8000813b
       14845000	      1483	800047c4	e3614d83	lbu	x27,-458(x2)	  x2:0x800086a6 x27=0x00000000 PA:0x800084dc
       14855000	      1484	800047c8	40e085b3	sub	x11,x1,x14	  x1:0x00000000 x14:0x80009ed8 x11=0x7fff6128
       14865000	      1485	800047cc	db714183	lbu	x3,-585(x2)	  x2:0x800086a6  x3=0x00000000 PA:0x8000845d
       14875000	      1486	800047d0	00585893	srli	x17,x16,0x5	 x16:0x00000000 x17=0x00000000
       14885000	      1487	800047d4	13b12b23	sw	x27,310(x2)	  x2:0x800086a6 x27:0x00000000 PA:0x800087dc
       14895000	      1488	800047d8	00cd2db3	slt	x27,x26,x12	 x26:0x00000000 x12:0x00000000 x27=0x00000000
       14905000	      1489	800047dc	dd0102a3	sb	x16,-571(x2)	  x2:0x800086a6 x16:0x00000000 PA:0x8000846b
       14915000	      1490	800047e0	007c1093	slli	x1,x24,0x7	 x24:0x80000000  x1=0x00000000
       14925000	      1491	800047e4	13d10783	lb	x15,317(x2)	  x2:0x800086a6 x15=0x00000000 PA:0x800087e3
       14935000	      1492	800047e8	0c815b03	lhu	x22,200(x2)	  x2:0x800086a6 x22=0x00000000 PA:0x8000876e
       14945000	      1493	800047ec	b4714083	lbu	x1,-1209(x2)	  x2:0x800086a6  x1=0x00000000 PA:0x800081ed
       14955000	      1494	800047f0	333d4013	xori	x0,x26,819	 x26:0x00000000
       14965000	      1495	800047f4	d6514883	lbu	x17,-667(x2)	  x2:0x800086a6 x17=0x00000000 PA:0x8000840b
       14975000	      1496	800047f8	00ae51b3	srl	x3,x28,x10	 x28:0x00000000 x10:0x80009ed8  x3=0x00000000
       14985000	      1497	800047fc	01c32933	slt	x18,x6,x28	  x6:0xd11bb000 x28:0x00000000 x18=0x00000001
       14995000	      1498	80004800	01d11433	sll	x8,x2,x29	  x2:0x800086a6 x29:0x00000000  x8=0x800086a6
       15005000	      1499	80004804	01721a33	sll	x20,x4,x23	  x4:0x00000000 x23:0x800088d2 x20=0x00000000
       15015000	      1500	80004808	dbc14883	lbu	x17,-580(x2)	  x2:0x800086a6 x17=0x0000004f PA:0x80008462
       15025000	      1501	8000480c	a1d12523	sw	x29,-1526(x2)	  x2:0x800086a6 x29:0x00000000 PA:0x800080b0
       15035000	      1502	80004810	0ce15483	lhu	x9,206(x2)	  x2:0x800086a6  x9=0x00000000 PA:0x80008774
       15045000	      1503	80004814	01e79193	slli	x3,x15,0x1e	 x15:0x00000000  x3=0x00000000
       15055000	      1504	80004818	41d905b3	sub	x11,x18,x29	 x18:0x00000001 x29:0x00000000 x11=0x00000001
       15065000	      1505	8000481c	0df107a3	sb	x31,207(x2)	  x2:0x800086a6 x31:0x00000000 PA:0x80008775
       15075000	      1506	80004820	ec810623	sb	x8,-308(x2)	  x2:0x800086a6  x8:0x800086a6 PA:0x80008572
       15085000	      1507	80004824	87646093	ori	x1,x8,-1930	  x8:0x800086a6  x1=0xfffffef6
       15095000	      1508	80004828	004577b3	and	x15,x10,x4	 x10:0x80009ed8  x4:0x00000000 x15=0x00000000
       15105000	      1509	8000482c	e063c213	xori	x4,x7,-506	  x7:0x00000000  x4=0xfffffe06
       15115000	      1510	80004830	0081aeb3	slt	x29,x3,x8	  x3:0x00000000  x8:0x800086a6 x29=0x00000000
       15125000	      1511	80004834	01516ab3	or	x21,x2,x21	  x2:0x800086a6 x21:0x00000000 x21=0x800086a6
       15135000	      1512	80004838	01fc39b3	sltu	x19,x24,x31	 x24:0x80000000 x31:0x00000000 x19=0x00000000
       15145000	      1513	8000483c	40215113	srai	x2,x2,0x2	  x2:0x800086a6  x2=0xe00021a9
       15155000	      1514	80004840	ecd37013	andi	x0,x6,-307	  x6:0xd11bb000
       15165000	      1515	80004844	0585f663	bgeu	x11,x24,80004890	 x11:0x00000001 x24:0x80000000
       15175000	      1516	80004848	00e47663	bgeu	x8,x14,80004854	  x8:0x800086a6 x14:0x80009ed8
       15185000	      1517	8000484c	ca5dcf13	xori	x30,x27,-859	 x27:0x00000000 x30=0xfffffca5
       15195000	      1518	80004850	00385333	srl	x6,x16,x3	 x16:0x00000000  x3:0x00000000  x6=0x00000000
       15205000	      1519	80004854	00015493	srli	x9,x2,0x0	  x2:0xe00021a9  x9=0xe00021a9
       15215000	      1520	80004858	01a81b93	slli	x23,x16,0x1a	 x16:0x00000000 x23=0x00000000
       15225000	      1521	8000485c	04c7e863	bltu	x15,x12,800048ac	 x15:0x00000000 x12:0x00000000
       15235000	      1522	80004860	000dfdb3	and	x27,x27,x0	 x27:0x00000000  x0:0x00000000 x27=0x00000000
       15245000	      1523	80004864	418bd4b3	sra	x9,x23,x24	 x23:0x00000000 x24:0x80000000  x9=0x00000000
       15255000	      1524	80004868	016ffdb3	and	x27,x31,x22	 x31:0x00000000 x22:0x00000000 x27=0x00000000
       15265000	      1525	8000486c	c1fe3e37	lui	x28,0xc1fe3	 x28=0xc1fe3000
       15275000	      1526	80004870	4bc04e13	xori	x28,x0,1212	  x0:0x00000000 x28=0x000004bc
       15285000	      1527	80004874	00ce5e13	srli	x28,x28,0xc	 x28:0x000004bc x28=0x00000000
       15295000	      1528	80004878	f9111ab7	lui	x21,0xf9111	 x21=0xf9111000
       15305000	      1529	8000487c	f528a293	slti	x5,x17,-174	 x17:0x0000004f  x5=0x00000000
       15315000	      1530	80004880	003bce63	blt	x23,x3,8000489c	 x23:0x00000000  x3:0x00000000
       15325000	      1531	80004884	0330f263	bgeu	x1,x19,800048a8	  x1:0xfffffef6 x19:0x00000000
       15335000	      1532	00000000	00000013	addi	x0,x0,0	  x0:0x00000000
       15345000	      1533	800048a4	00000013	addi	x0,x0,0	  x0:0x00000000
       15355000	      1534	800048a8	025d5863	bge	x26,x5,800048d8	 x26:0x00000000  x5:0x00000000
       15365000	      1535	00000000	00000013	addi	x0,x0,0	  x0:0x00000000
       15375000	      1536	800048d4	00000013	addi	x0,x0,0	  x0:0x00000000
       15385000	      1537	800048d8	00502833	slt	x16,x0,x5	  x0:0x00000000  x5:0x00000000 x16=0x00000000
       15395000	      1538	800048dc	0103db93	srli	x23,x7,0x10	  x7:0x00000000 x23=0x00000000
       15405000	      1539	800048e0	41fbd813	srai	x16,x23,0x1f	 x23:0x00000000 x16=0x00000000
       15415000	      1540	800048e4	01c11093	slli	x1,x2,0x1c	  x2:0xe00021a9  x1=0x90000000
       15425000	      1541	800048e8	ac01b197	auipc	x3,0xac01b	  x3=0x2c01f8e4
       15435000	      1542	800048ec	e71ae313	ori	x6,x21,-399	 x21:0xf9111000  x6=0xfffffe71
       15445000	      1543	800048f0	01b1a933	slt	x18,x3,x27	  x3:0x2c01f8e4 x27:0x00000000 x18=0x00000000
       15455000	      1544	800048f4	00000013	addi	x0,x0,0	  x0:0x00000000
       15465000	      1545	800048f8	01eadd33	srl	x26,x21,x30	 x21:0xf9111000 x30:0xfffffca5 x26=0x07c88880
       15475000	      1546	800048fc	01e45393	srli	x7,x8,0x1e	  x8:0x800086a6  x7=0x00000002
       15485000	      1547	80004900	01b55a63	bge	x10,x27,80004914	 x10:0x80009ed8 x27:0x00000000
       15495000	      1548	80004904	01ae75b3	and	x11,x28,x26	 x28:0x00000000 x26:0x07c88880 x11=0x00000000
       15505000	      1549	80004908	41ad5fb3	sra	x31,x26,x26	 x26:0x07c88880 x26:0x07c88880 x31=0x07c88880
       15515000	      1550	8000490c	41838fb3	sub	x31,x7,x24	  x7:0x00000002 x24:0x80000000 x31=0x80000002
       15525000	      1551	80004910	4071df93	srai	x31,x3,0x7	  x3:0x2c01f8e4 x31=0x005803f1
       15535000	      1552	80004914	00000013	addi	x0,x0,0	  x0:0x00000000
       15545000	      1553	80004918	019b44b3	xor	x9,x22,x25	 x22:0x00000000 x25:0x80009fc4  x9=0x80009fc4
       15555000	      1554	8000491c	d6e8f3b7	lui	x7,0xd6e8f	  x7=0xd6e8f000
       15565000	      1555	80004920	012180b3	add	x1,x3,x18	  x3:0x2c01f8e4 x18:0x00000000  x1=0x2c01f8e4
       15575000	      1556	80004924	41cf0a33	sub	x20,x30,x28	 x30:0xfffffca5 x28:0x00000000 x20=0xfffffca5
       15585000	      1557	80004928	273f7693	andi	x13,x30,627	 x30:0xfffffca5 x13=0x00000021
       15595000	      1558	8000492c	00d60a33	add	x20,x12,x13	 x12:0x00000000 x13:0x00000021 x20=0x00000021
       15605000	      1559	80004930	00bdd093	srli	x1,x27,0xb	 x27:0x00000000  x1=0x00000000
       15615000	      1560	80004934	0025c333	xor	x6,x11,x2	 x11:0x00000000  x2:0xe00021a9  x6=0xe00021a9
       15625000	      1561	80004938	020d1063	bne	x26,x0,80004958	 x26:0x07c88880  x0:0x00000000
       15635000	      1562	00000000	00000013	addi	x0,x0,0	  x0:0x00000000
       15645000	      1563	80004954	00000013	addi	x0,x0,0	  x0:0x00000000
       15655000	      1564	80004958	0520c863	blt	x1,x18,800049a8	  x1:0x00000000 x18:0x00000000
       15665000	      1565	8000495c	01b36f33	or	x30,x6,x27	  x6:0xe00021a9 x27:0x00000000 x30=0xe00021a9
       15675000	      1566	80004960	411783b3	sub	x7,x15,x17	 x15:0x00000000 x17:0x0000004f  x7=0xffffffb1
       15685000	      1567	80004964	5298f013	andi	x0,x17,1321	 x17:0x0000004f
       15695000	      1568	80004968	40ba0ab3	sub	x21,x20,x11	 x20:0x00000021 x11:0x00000000 x21=0x00000021
       15705000	      1569	8000496c	5a6d2d93	slti	x27,x26,1446	 x26:0x07c88880 x27=0x00000000
       15715000	      1570	80004970	01a090b3	sll	x1,x1,x26	  x1:0x00000000 x26:0x07c88880  x1=0x00000000
       15725000	      1571	80004974	015bf433	and	x8,x23,x21	 x23:0x00000000 x21:0x00000021  x8=0x00000000
       15735000	      1572	80004978	50b5cf13	xori	x30,x11,1291	 x11:0x00000000 x30=0x0000050b
       15745000	      1573	8000497c	40235193	srai	x3,x6,0x2	  x6:0xe00021a9  x3=0xf800086a
       15755000	      1574	80004980	00608eb3	add	x29,x1,x6	  x1:0x00000000  x6:0xe00021a9 x29=0xe00021a9
       15765000	      1575	80004984	d6603037	lui	x0,0xd6603	
       15775000	      1576	80004988	00a43233	sltu	x4,x8,x10	  x8:0x00000000 x10:0x80009ed8  x4=0x00000001
       15785000	      1577	8000498c	005c5613	srli	x12,x24,0x5	 x24:0x80000000 x12=0x04000000
       15795000	      1578	80004990	028c1a63	bne	x24,x8,800049c4	 x24:0x80000000  x8:0x00000000
       15805000	      1579	00000000	00000013	addi	x0,x0,0	  x0:0x00000000
       15815000	      1580	800049c0	00000013	addi	x0,x0,0	  x0:0x00000000
       15825000	      1581	800049c4	04700263	beq	x0,x7,80004a08	  x0:0x00000000  x7:0xffffffb1
       15835000	      1582	800049c8	88314413	xori	x8,x2,-1917	  x2:0xe00021a9  x8=0x1fffd92a
       15845000	      1583	800049cc	50530613	addi	x12,x6,1285	  x6:0xe00021a9 x12=0xe00026ae
       15855000	      1584	800049d0	01da78b3	and	x17,x20,x29	 x20:0x00000021 x29:0xe00021a9 x17=0x00000021
       15865000	      1585	800049d4	01d35313	srli	x6,x6,0x1d	  x6:0xe00021a9  x6=0x00000007
       15875000	      1586	800049d8	01dbbab3	sltu	x21,x23,x29	 x23:0x00000000 x29:0xe00021a9 x21=0x00000001
       15885000	      1587	800049dc	1c1be037	lui	x0,0x1c1be	
       15895000	      1588	800049e0	0039de63	bge	x19,x3,800049fc	 x19:0x00000000  x3:0xf800086a
       15905000	      1589	00000000	00000013	addi	x0,x0,0	  x0:0x00000000
       15915000	      1590	800049f8	00000013	addi	x0,x0,0	  x0:0x00000000
       15925000	      1591	800049fc	04918663	beq	x3,x9,80004a48	  x3:0xf800086a  x9:0x80009fc4
       15935000	      1592	80004a00	00f0bfb3	sltu	x31,x1,x15	  x1:0x00000000 x15:0x00000000 x31=0x00000000
       15945000	      1593	80004a04	844bf7b7	lui	x15,0x844bf	 x15=0x844bf000
       15955000	      1594	80004a08	b9902637	lui	x12,0xb9902	 x12=0xb9902000
       15965000	      1595	80004a0c	18f54313	xori	x6,x10,399	 x10:0x80009ed8  x6=0x80009f57
       15975000	      1596	80004a10	0126a9b3	slt	x19,x13,x18	 x13:0x00000021 x18:0x00000000 x19=0x00000000
       15985000	      1597	80004a14	48fdc393	xori	x7,x27,1167	 x27:0x00000000  x7=0x0000048f
       15995000	      1598	80004a18	0328c863	blt	x17,x18,80004a48	 x17:0x00000021 x18:0x00000000
       16005000	      1599	80004a1c	007cc333	xor	x6,x25,x7	 x25:0x80009fc4  x7:0x0000048f  x6=0x80009b4b
       16015000	      1600	80004a20	1080c413	xori	x8,x1,264	  x1:0x00000000  x8=0x00000108
       16025000	      1601	80004a24	01ac0b33	add	x22,x24,x26	 x24:0x80000000 x26:0x07c88880 x22=0x87c88880
       16035000	      1602	80004a28	01319eb3	sll	x29,x3,x19	  x3:0xf800086a x19:0x00000000 x29=0xf800086a
       16045000	      1603	80004a2c	40695313	srai	x6,x18,0x6	 x18:0x00000000  x6=0x00000000
       16055000	      1604	80004a30	039d4c63	blt	x26,x25,80004a68	 x26:0x07c88880 x25:0x80009fc4
       16065000	      1605	80004a34	05018463	beq	x3,x16,80004a7c	  x3:0xf800086a x16:0x00000000
       16075000	      1606	80004a38	410d04b3	sub	x9,x26,x16	 x26:0x07c88880 x16:0x00000000  x9=0x07c88880
       16085000	      1607	80004a3c	40e50633	sub	x12,x10,x14	 x10:0x80009ed8 x14:0x80009ed8 x12=0x00000000
       16095000	      1608	80004a40	41d7d1b3	sra	x3,x15,x29	 x15:0x844bf000 x29:0xf800086a  x3=0xffe112fc
       16105000	      1609	80004a44	f6458393	addi	x7,x11,-156	 x11:0x00000000  x7=0xffffff64
       16115000	      1610	80004a48	faf740b7	lui	x1,0xfaf74	  x1=0xfaf74000
       16125000	      1611	80004a4c	ae224b13	xori	x22,x4,-1310	  x4:0x00000001 x22=0xfffffae3
       16135000	      1612	80004a50	011cdc63	bge	x25,x17,80004a68	 x25:0x80009fc4 x17:0x00000021
       16145000	      1613	80004a54	0891c393	xori	x7,x3,137	  x3:0xffe112fc  x7=0xffe11275
       16155000	      1614	80004a58	003da933	slt	x18,x27,x3	 x27:0x00000000  x3:0xffe112fc x18=0x00000000
       16165000	      1615	80004a5c	00764b33	xor	x22,x12,x7	 x12:0x00000000  x7:0xffe11275 x22=0xffe11275
       16175000	      1616	80004a60	02c6f663	bgeu	x13,x12,80004a8c	 x13:0x00000021 x12:0x00000000
       16185000	      1617	00000000	00000013	addi	x0,x0,0	  x0:0x00000000
       16195000	      1618	80004a88	00000013	addi	x0,x0,0	  x0:0x00000000
       16205000	      1619	80004a8c	03136463	bltu	x6,x17,80004ab4	  x6:0x00000000 x17:0x00000021
       16215000	      1620	00000000	00000013	addi	x0,x0,0	  x0:0x00000000
       16225000	      1621	80004ab0	00000013	addi	x0,x0,0	  x0:0x00000000
       16235000	      1622	80004ab4	00fdfdb3	and	x27,x27,x15	 x27:0x00000000 x15:0x844bf000 x27=0x00000000
       16245000	      1623	80004ab8	413c8d33	sub	x26,x25,x19	 x25:0x80009fc4 x19:0x00000000 x26=0x80009fc4
       16255000	      1624	80004abc	043a6863	bltu	x20,x3,80004b0c	 x20:0x00000021  x3:0xffe112fc
       16265000	      1625	00000000	00000013	addi	x0,x0,0	  x0:0x00000000
       16275000	      1626	80004b08	00000013	addi	x0,x0,0	  x0:0x00000000
       16285000	      1627	80004b0c	00657c63	bgeu	x10,x6,80004b24	 x10:0x80009ed8  x6:0x00000000
       16295000	      1628	00000000	00000013	addi	x0,x0,0	  x0:0x00000000
       16305000	      1629	80004b20	00000013	addi	x0,x0,0	  x0:0x00000000
       16315000	      1630	80004b24	00228e63	beq	x5,x2,80004b40	  x5:0x00000000  x2:0xe00021a9
       16325000	      1631	80004b28	daa70a93	addi	x21,x14,-598	 x14:0x80009ed8 x21=0x80009c82
       16335000	      1632	80004b2c	04365463	bge	x12,x3,80004b74	 x12:0x00000000  x3:0xffe112fc
       16345000	      1633	00000000	00000013	addi	x0,x0,0	  x0:0x00000000
       16355000	      1634	80004b70	00000013	addi	x0,x0,0	  x0:0x00000000
       16365000	      1635	80004b74	027c6c63	bltu	x24,x7,80004bac	 x24:0x80000000  x7:0xffe11275
       16375000	      1636	00000000	00000013	addi	x0,x0,0	  x0:0x00000000
       16385000	      1637	80004ba8	00000013	addi	x0,x0,0	  x0:0x00000000
       16395000	      1638	80004bac	00d643b3	xor	x7,x12,x13	 x12:0x00000000 x13:0x00000021  x7=0x00000021
       16405000	      1639	80004bb0	017c1533	sll	x10,x24,x23	 x24:0x80000000 x23:0x00000000 x10=0x80000000
       16415000	      1640	80004bb4	8c290a13	addi	x20,x18,-1854	 x18:0x00000000 x20=0xfffff8c2
       16425000	      1641	80004bb8	612362b7	lui	x5,0x61236	  x5=0x61236000
       16435000	      1642	80004bbc	456df117	auipc	x2,0x456df	  x2=0xc56e3bb8
       16445000	      1643	80004bc0	00eab333	sltu	x6,x21,x14	 x21:0x80009c82 x14:0x80009ed8  x6=0x00000001
       16455000	      1644	80004bc4	01729e93	slli	x29,x5,0x17	  x5:0x61236000 x29=0x00000000
       16465000	      1645	80004bc8	0048a933	slt	x18,x17,x4	 x17:0x00000021  x4:0x00000001 x18=0x00000000
       16475000	      1646	80004bcc	0124a9b3	slt	x19,x9,x18	  x9:0x07c88880 x18:0x00000000 x19=0x00000000
       16485000	      1647	80004bd0	01d18863	beq	x3,x29,80004be0	  x3:0xffe112fc x29:0x00000000
       16495000	      1648	80004bd4	056c8663	beq	x25,x22,80004c20	 x25:0x80009fc4 x22:0xffe11275
       16505000	      1649	80004bd8	029a0c63	beq	x20,x9,80004c10	 x20:0xfffff8c2  x9:0x07c88880
       16515000	      1650	80004bdc	7f82c493	xori	x9,x5,2040	  x5:0x61236000  x9=0x612367f8
       16525000	      1651	80004be0	0d4da393	slti	x7,x27,212	 x27:0x00000000  x7=0x00000001
       16535000	      1652	80004be4	0ac6a693	slti	x13,x13,172	 x13:0x00000021 x13=0x00000001
       16545000	      1653	80004be8	01ea2333	slt	x6,x20,x30	 x20:0xfffff8c2 x30:0x0000050b  x6=0x00000001
       16555000	      1654	80004bec	04c0f863	bgeu	x1,x12,80004c3c	  x1:0xfaf74000 x12:0x00000000
       16565000	      1655	00000000	00000013	addi	x0,x0,0	  x0:0x00000000
       16575000	      1656	80004c38	00000013	addi	x0,x0,0	  x0:0x00000000
       16585000	      1657	80004c3c	01cc94b3	sll	x9,x25,x28	 x25:0x80009fc4 x28:0x00000000  x9=0x80009fc4
       16595000	      1658	80004c40	0160e933	or	x18,x1,x22	  x1:0xfaf74000 x22:0xffe11275 x18=0xfff75275
       16605000	      1659	80004c44	01941033	sll	x0,x8,x25	  x8:0x00000108 x25:0x80009fc4
       16615000	      1660	80004c48	007ae1b3	or	x3,x21,x7	 x21:0x80009c82  x7:0x00000001  x3=0x80009c83
       16625000	      1661	80004c4c	0283fc63	bgeu	x7,x8,80004c84	  x7:0x00000001  x8:0x00000108
       16635000	      1662	80004c50	40678bb3	sub	x23,x15,x6	 x15:0x844bf000  x6:0x00000001 x23=0x844befff
       16645000	      1663	80004c54	04725663	bge	x4,x7,80004ca0	  x4:0x00000001  x7:0x00000001
       16655000	      1664	00000000	00000013	addi	x0,x0,0	  x0:0x00000000
       16665000	      1665	80004c9c	00000013	addi	x0,x0,0	  x0:0x00000000
       16675000	      1666	80004ca0	018e9193	slli	x3,x29,0x18	 x29:0x00000000  x3=0x00000000
       16685000	      1667	80004ca4	03239863	bne	x7,x18,80004cd4	  x7:0x00000001 x18:0xfff75275
       16695000	      1668	00000000	00000013	addi	x0,x0,0	  x0:0x00000000
       16705000	      1669	80004cd0	00000013	addi	x0,x0,0	  x0:0x00000000
       16715000	      1670	80004cd4	6a85f393	andi	x7,x11,1704	 x11:0x00000000  x7=0x00000000
       16725000	      1671	80004cd8	00000013	addi	x0,x0,0	  x0:0x00000000
       16735000	      1672	80004cdc	01973333	sltu	x6,x14,x25	 x14:0x80009ed8 x25:0x80009fc4  x6=0x00000001
       16745000	      1673	80004ce0	409fd813	srai	x16,x31,0x9	 x31:0x00000000 x16=0x00000000
       16755000	      1674	80004ce4	04661463	bne	x12,x6,80004d2c	 x12:0x00000000  x6:0x00000001
       16765000	      1675	00000000	00000013	addi	x0,x0,0	  x0:0x00000000
       16775000	      1676	80004d28	00000013	addi	x0,x0,0	  x0:0x00000000
       16785000	      1677	80004d2c	006c9863	bne	x25,x6,80004d3c	 x25:0x80009fc4  x6:0x00000001
       16795000	      1678	00000000	00000013	addi	x0,x0,0	  x0:0x00000000
       16805000	      1679	80004d38	00000013	addi	x0,x0,0	  x0:0x00000000
       16815000	      1680	80004d3c	051c9263	bne	x25,x17,80004d80	 x25:0x80009fc4 x17:0x00000021
       16825000	      1681	00000000	00000013	addi	x0,x0,0	  x0:0x00000000
       16835000	      1682	80004d7c	00000013	addi	x0,x0,0	  x0:0x00000000
       16845000	      1683	80004d80	0317e863	bltu	x15,x17,80004db0	 x15:0x844bf000 x17:0x00000021
       16855000	      1684	80004d84	000a9d33	sll	x26,x21,x0	 x21:0x80009c82  x0:0x00000000 x26=0x80009c82
       16865000	      1685	80004d88	00212d33	slt	x26,x2,x2	  x2:0xc56e3bb8  x2:0xc56e3bb8 x26=0x00000000
       16875000	      1686	80004d8c	01889d93	slli	x27,x17,0x18	 x17:0x00000021 x27=0x21000000
       16885000	      1687	80004d90	41878ab3	sub	x21,x15,x24	 x15:0x844bf000 x24:0x80000000 x21=0x044bf000
       16895000	      1688	80004d94	119c3413	sltiu	x8,x24,281	 x24:0x80000000  x8=0x00000000
       16905000	      1689	80004d98	05f21263	bne	x4,x31,80004ddc	  x4:0x00000001 x31:0x00000000
       16915000	      1690	00000000	00000013	addi	x0,x0,0	  x0:0x00000000
       16925000	      1691	80004dd8	00000013	addi	x0,x0,0	  x0:0x00000000
       16935000	      1692	80004ddc	cc4f8013	addi	x0,x31,-828	 x31:0x00000000
       16945000	      1693	80004de0	acaaaf13	slti	x30,x21,-1334	 x21:0x044bf000 x30=0x00000000
       16955000	      1694	80004de4	0220ca63	blt	x1,x2,80004e18	  x1:0xfaf74000  x2:0xc56e3bb8
       16965000	      1695	80004de8	00f9c5b3	xor	x11,x19,x15	 x19:0x00000000 x15:0x844bf000 x11=0x844bf000
       16975000	      1696	80004dec	003deab3	or	x21,x27,x3	 x27:0x21000000  x3:0x00000000 x21=0x21000000
       16985000	      1697	80004df0	00915213	srli	x4,x2,0x9	  x2:0xc56e3bb8  x4=0x0062b71d
       16995000	      1698	80004df4	00000013	addi	x0,x0,0	  x0:0x00000000
       17005000	      1699	80004df8	00b9d313	srli	x6,x19,0xb	 x19:0x00000000  x6=0x00000000
       17015000	      1700	80004dfc	01ab1a13	slli	x20,x22,0x1a	 x22:0xffe11275 x20=0xd4000000
       17025000	      1701	80004e00	04024863	blt	x4,x0,80004e50	  x4:0x0062b71d  x0:0x00000000
       17035000	      1702	80004e04	02d08263	beq	x1,x13,80004e28	  x1:0xfaf74000 x13:0x00000001
       17045000	      1703	80004e08	407e0833	sub	x16,x28,x7	 x28:0x00000000  x7:0x00000000 x16=0x00000000
       17055000	      1704	80004e0c	01d89f93	slli	x31,x17,0x1d	 x17:0x00000021 x31=0x20000000
       17065000	      1705	80004e10	00000013	addi	x0,x0,0	  x0:0x00000000
       17075000	      1706	80004e14	00f7c4b3	xor	x9,x15,x15	 x15:0x844bf000 x15:0x844bf000  x9=0x00000000
       17085000	      1707	80004e18	01e05113	srli	x2,x0,0x1e	  x0:0x00000000  x2=0x00000000
       17095000	      1708	80004e1c	036c7663	bgeu	x24,x22,80004e48	 x24:0x80000000 x22:0xffe11275
       17105000	      1709	80004e20	0165b833	sltu	x16,x11,x22	 x11:0x844bf000 x22:0xffe11275 x16=0x00000001
       17115000	      1710	80004e24	028e7063	bgeu	x28,x8,80004e44	 x28:0x00000000  x8:0x00000000
       17125000	      1711	00000000	00000013	addi	x0,x0,0	  x0:0x00000000
       17135000	      1712	80004e40	00000013	addi	x0,x0,0	  x0:0x00000000
       17145000	      1713	80004e44	00ab7333	and	x6,x22,x10	 x22:0xffe11275 x10:0x80000000  x6=0x80000000
       17155000	      1714	80004e48	05c4c463	blt	x9,x28,80004e90	  x9:0x00000000 x28:0x00000000
       17165000	      1715	80004e4c	01ea7e63	bgeu	x20,x30,80004e68	 x20:0xd4000000 x30:0x00000000
       17175000	      1716	00000000	00000013	addi	x0,x0,0	  x0:0x00000000
       17185000	      1717	80004e64	00000013	addi	x0,x0,0	  x0:0x00000000
       17195000	      1718	80004e68	01824233	xor	x4,x4,x24	  x4:0x0062b71d x24:0x80000000  x4=0x8062b71d
       17205000	      1719	80004e6c	004ce6b3	or	x13,x25,x4	 x25:0x80009fc4  x4:0x8062b71d x13=0x8062bfdd
       17215000	      1720	80004e70	012d31b3	sltu	x3,x26,x18	 x26:0x00000000 x18:0xfff75275  x3=0x00000001
       17225000	      1721	80004e74	b625a793	slti	x15,x11,-1182	 x11:0x844bf000 x15=0x00000001
       17235000	      1722	80004e78	00dba033	slt	x0,x23,x13	 x23:0x844befff x13:0x8062bfdd
       17245000	      1723	80004e7c	02874463	blt	x14,x8,80004ea4	 x14:0x80009ed8  x8:0x00000000
       17255000	      1724	00000000	00000013	addi	x0,x0,0	  x0:0x00000000
       17265000	      1725	80004ea0	00000013	addi	x0,x0,0	  x0:0x00000000
       17275000	      1726	80004ea4	001e5833	srl	x16,x28,x1	 x28:0x00000000  x1:0xfaf74000 x16=0x00000000
       17285000	      1727	80004ea8	01337663	bgeu	x6,x19,80004eb4	  x6:0x80000000 x19:0x00000000
       17295000	      1728	00000000	00000013	addi	x0,x0,0	  x0:0x00000000
       17305000	      1729	80004eb0	00000013	addi	x0,x0,0	  x0:0x00000000
       17315000	      1730	80004eb4	007182b3	add	x5,x3,x7	  x3:0x00000001  x7:0x00000000  x5=0x00000001
       17325000	      1731	80004eb8	015da4b3	slt	x9,x27,x21	 x27:0x21000000 x21:0x21000000  x9=0x00000000
       17335000	      1732	80004ebc	00a03ab3	sltu	x21,x0,x10	  x0:0x00000000 x10:0x80000000 x21=0x00000001
       17345000	      1733	80004ec0	01c85663	bge	x16,x28,80004ecc	 x16:0x00000000 x28:0x00000000
       17355000	      1734	00000000	00000013	addi	x0,x0,0	  x0:0x00000000
       17365000	      1735	80004ec8	00000013	addi	x0,x0,0	  x0:0x00000000
       17375000	      1736	80004ecc	41a95bb3	sra	x23,x18,x26	 x18:0xfff75275 x26:0x00000000 x23=0xfff75275
       17385000	      1737	80004ed0	003f9d33	sll	x26,x31,x3	 x31:0x20000000  x3:0x00000001 x26=0x40000000
       17395000	      1738	80004ed4	b292e693	ori	x13,x5,-1239	  x5:0x00000001 x13=0xfffffb29
       17405000	      1739	80004ed8	48c29297	auipc	x5,0x48c29	  x5=0xc8c2ded4
       17415000	      1740	80004edc	5ee2c493	xori	x9,x5,1518	  x5:0xc8c2ded4  x9=0xc8c2db3a
       17425000	      1741	80004ee0	b04ed097	auipc	x1,0xb04ed	  x1=0x304f1edc
       17435000	      1742	80004ee4	004050b3	srl	x1,x0,x4	  x0:0x00000000  x4:0x8062b71d  x1=0x00000000
       17445000	      1743	80004ee8	00719a93	slli	x21,x3,0x7	  x3:0x00000001 x21=0x00000080
       17455000	      1744	80004eec	4a220393	addi	x7,x4,1186	  x4:0x8062b71d  x7=0x8062bbbf
       17465000	      1745	80004ef0	018e8db3	add	x27,x29,x24	 x29:0x00000000 x24:0x80000000 x27=0x80000000
       17475000	      1746	80004ef4	01d6a033	slt	x0,x13,x29	 x13:0xfffffb29 x29:0x00000000
       17485000	      1747	80004ef8	00000013	addi	x0,x0,0	  x0:0x00000000
       17495000	      1748	80004efc	018ed933	srl	x18,x29,x24	 x29:0x00000000 x24:0x80000000 x18=0x00000000
       17505000	      1749	80004f00	008bd193	srli	x3,x23,0x8	 x23:0xfff75275  x3=0x00fff752
       17515000	      1750	80004f04	8ae4b917	auipc	x18,0x8ae4b	 x18=0x0ae4ff00
       17525000	      1751	80004f08	41ccd013	srai	x0,x25,0x1c	 x25:0x80009fc4
       17535000	      1752	80004f0c	0221dc63	bge	x3,x2,80004f44	  x3:0x00fff752  x2:0x00000000
       17545000	      1753	00000000	00000013	addi	x0,x0,0	  x0:0x00000000
       17555000	      1754	80004f40	00000013	addi	x0,x0,0	  x0:0x00000000
       17565000	      1755	80004f44	01aefe63	bgeu	x29,x26,80004f60	 x29:0x00000000 x26:0x40000000
       17575000	      1756	80004f48	01b01433	sll	x8,x0,x27	  x0:0x00000000 x27:0x80000000  x8=0x00000000
       17585000	      1757	80004f4c	8884f293	andi	x5,x9,-1912	  x9:0xc8c2db3a  x5=0xc8c2d808
       17595000	      1758	80004f50	01909093	slli	x1,x1,0x19	  x1:0x00000000  x1=0x00000000
       17605000	      1759	80004f54	012330b3	sltu	x1,x6,x18	  x6:0x80000000 x18:0x0ae4ff00  x1=0x00000000
       17615000	      1760	80004f58	57c23293	sltiu	x5,x4,1404	  x4:0x8062b71d  x5=0x00000000
       17625000	      1761	80004f5c	00fac033	xor	x0,x21,x15	 x21:0x00000080 x15:0x00000001
       17635000	      1762	80004f60	01855663	bge	x10,x24,80004f6c	 x10:0x80000000 x24:0x80000000
       17645000	      1763	00000000	00000013	addi	x0,x0,0	  x0:0x00000000
       17655000	      1764	80004f68	00000013	addi	x0,x0,0	  x0:0x00000000
       17665000	      1765	80004f6c	47de2693	slti	x13,x28,1149	 x28:0x00000000 x13=0x00000001
       17675000	      1766	80004f70	989b3e13	sltiu	x28,x22,-1655	 x22:0xffe11275 x28=0x00000001
       17685000	      1767	80004f74	e13e2297	auipc	x5,0xe13e2	  x5=0x613e6f70
       17695000	      1768	80004f78	015582b3	add	x5,x11,x21	 x11:0x844bf000 x21:0x00000080  x5=0x844bf080
       17705000	      1769	80004f7c	41aa5213	srai	x4,x20,0x1a	 x20:0xd4000000  x4=0xfffffff5
       17715000	      1770	80004f80	01885a13	srli	x20,x16,0x18	 x16:0x00000000 x20=0x00000000
       17725000	      1771	80004f84	3a442f93	slti	x31,x8,932	  x8:0x00000000 x31=0x00000001
       17735000	      1772	80004f88	01779a13	slli	x20,x15,0x17	 x15:0x00000001 x20=0x00800000
       17745000	      1773	80004f8c	01595f93	srli	x31,x18,0x15	 x18:0x0ae4ff00 x31=0x00000057
       17755000	      1774	80004f90	017d4663	blt	x26,x23,80004f9c	 x26:0x40000000 x23:0xfff75275
       17765000	      1775	80004f94	41e6d993	srai	x19,x13,0x1e	 x13:0x00000001 x19=0x00000000
       17775000	      1776	80004f98	01b99b13	slli	x22,x19,0x1b	 x19:0x00000000 x22=0x00000000
       17785000	      1777	80004f9c	00638533	add	x10,x7,x6	  x7:0x8062bbbf  x6:0x80000000 x10=0x0062bbbf
       17795000	      1778	80004fa0	8b26ea13	ori	x20,x13,-1870	 x13:0x00000001 x20=0xfffff8b3
       17805000	      1779	80004fa4	010af533	and	x10,x21,x16	 x21:0x00000080 x16:0x00000000 x10=0x00000000
       17815000	      1780	80004fa8	410805b3	sub	x11,x16,x16	 x16:0x00000000 x16:0x00000000 x11=0x00000000
       17825000	      1781	80004fac	00e10b33	add	x22,x2,x14	  x2:0x00000000 x14:0x80009ed8 x22=0x80009ed8
       17835000	      1782	80004fb0	00757f33	and	x30,x10,x7	 x10:0x00000000  x7:0x8062bbbf x30=0x00000000
       17845000	      1783	80004fb4	c67e99b7	lui	x19,0xc67e9	 x19=0xc67e9000
       17855000	      1784	80004fb8	417cd593	srai	x11,x25,0x17	 x25:0x80009fc4 x11=0xffffff00
       17865000	      1785	80004fbc	41c0d813	srai	x16,x1,0x1c	  x1:0x00000000 x16=0x00000000
       17875000	      1786	80004fc0	009252b3	srl	x5,x4,x9	  x4:0xfffffff5  x9:0xc8c2db3a  x5=0x0000003f
       17885000	      1787	80004fc4	9ab93b93	sltiu	x23,x18,-1621	 x18:0x0ae4ff00 x23=0x00000001
       17895000	      1788	80004fc8	f0230f13	addi	x30,x6,-254	  x6:0x80000000 x30=0x7fffff02
       17905000	      1789	80004fcc	643d7613	andi	x12,x26,1603	 x26:0x40000000 x12=0x00000000
       17915000	      1790	80004fd0	00d56933	or	x18,x10,x13	 x10:0x00000000 x13:0x00000001 x18=0x00000001
       17925000	      1791	80004fd4	e943c793	xori	x15,x7,-364	  x7:0x8062bbbf x15=0x7f9d452b
       17935000	      1792	80004fd8	014d15b3	sll	x11,x26,x20	 x26:0x40000000 x20:0xfffff8b3 x11=0x00000000
       17945000	      1793	80004fdc	42306913	ori	x18,x0,1059	  x0:0x00000000 x18=0x00000423
       17955000	      1794	80004fe0	011119b3	sll	x19,x2,x17	  x2:0x00000000 x17:0x00000021 x19=0x00000000
       17965000	      1795	80004fe4	01fa8e33	add	x28,x21,x31	 x21:0x00000080 x31:0x00000057 x28=0x000000d7
       17975000	      1796	80004fe8	013eeb33	or	x22,x29,x19	 x29:0x00000000 x19:0x00000000 x22=0x00000000
       17985000	      1797	80004fec	b70eb393	sltiu	x7,x29,-1168	 x29:0x00000000  x7=0x00000001
       17995000	      1798	80004ff0	009f6833	or	x16,x30,x9	 x30:0x7fffff02  x9:0xc8c2db3a x16=0xffffff3a
       18005000	      1799	80004ff4	04c44863	blt	x8,x12,80005044	  x8:0x00000000 x12:0x00000000
       18015000	      1800	80004ff8	0111b133	sltu	x2,x3,x17	  x3:0x00fff752 x17:0x00000021  x2=0x00000000
       18025000	      1801	80004ffc	0013c133	xor	x2,x7,x1	  x7:0x00000001  x1:0x00000000  x2=0x00000001
       18035000	      1802	80005000	0073c233	xor	x4,x7,x7	  x7:0x00000001  x7:0x00000001  x4=0x00000000
       18045000	      1803	80005004	7806e213	ori	x4,x13,1920	 x13:0x00000001  x4=0x00000781
       18055000	      1804	80005008	014c3433	sltu	x8,x24,x20	 x24:0x80000000 x20:0xfffff8b3  x8=0x00000001
       18065000	      1805	8000500c	01f8ea33	or	x20,x17,x31	 x17:0x00000021 x31:0x00000057 x20=0x00000077
       18075000	      1806	80005010	00321513	slli	x10,x4,0x3	  x4:0x00000781 x10=0x00003c08
       18085000	      1807	80005014	00593eb3	sltu	x29,x18,x5	 x18:0x00000423  x5:0x0000003f x29=0x00000000
       18095000	      1808	80005018	ed038193	addi	x3,x7,-304	  x7:0x00000001  x3=0xfffffed1
       18105000	      1809	8000501c	00000013	addi	x0,x0,0	  x0:0x00000000
       18115000	      1810	80005020	0496c263	blt	x13,x9,80005064	 x13:0x00000001  x9:0xc8c2db3a
       18125000	      1811	80005024	001791b3	sll	x3,x15,x1	 x15:0x7f9d452b  x1:0x00000000  x3=0x7f9d452b
       18135000	      1812	80005028	60d72693	slti	x13,x14,1549	 x14:0x80009ed8 x13=0x00000001
       18145000	      1813	8000502c	b699e513	ori	x10,x19,-1175	 x19:0x00000000 x10=0xfffffb69
       18155000	      1814	80005030	01e18233	add	x4,x3,x30	  x3:0x7f9d452b x30:0x7fffff02  x4=0xff9d442d
       18165000	      1815	80005034	4042d933	sra	x18,x5,x4	  x5:0x0000003f  x4:0xff9d442d x18=0x00000000
       18175000	      1816	80005038	014af233	and	x4,x21,x20	 x21:0x00000080 x20:0x00000077  x4=0x00000000
       18185000	      1817	8000503c	950b8193	addi	x3,x23,-1712	 x23:0x00000001  x3=0xfffff951
       18195000	      1818	80005040	41da8d33	sub	x26,x21,x29	 x21:0x00000080 x29:0x00000000 x26=0x00000080
       18205000	      1819	80005044	0309da63	bge	x19,x16,80005078	 x19:0x00000000 x16:0xffffff3a
       18215000	      1820	00000000	00000013	addi	x0,x0,0	  x0:0x00000000
       18225000	      1821	80005074	00000013	addi	x0,x0,0	  x0:0x00000000
       18235000	      1822	80005078	05f90663	beq	x18,x31,800050c4	 x18:0x00000000 x31:0x00000057
       18245000	      1823	8000507c	01859663	bne	x11,x24,80005088	 x11:0x00000000 x24:0x80000000
       18255000	      1824	00000000	00000013	addi	x0,x0,0	  x0:0x00000000
       18265000	      1825	80005084	00000013	addi	x0,x0,0	  x0:0x00000000
       18275000	      1826	80005088	03c54863	blt	x10,x28,800050b8	 x10:0xfffffb69 x28:0x000000d7
       18285000	      1827	00000000	00000013	addi	x0,x0,0	  x0:0x00000000
       18295000	      1828	800050b4	00000013	addi	x0,x0,0	  x0:0x00000000
       18305000	      1829	800050b8	017a1993	slli	x19,x20,0x17	 x20:0x00000077 x19=0x3b800000
       18315000	      1830	800050bc	9f5c2493	slti	x9,x24,-1547	 x24:0x80000000  x9=0x00000001
       18325000	      1831	800050c0	41b75e13	srai	x28,x14,0x1b	 x14:0x80009ed8 x28=0xfffffff0
       18335000	      1832	800050c4	008027b3	slt	x15,x0,x8	  x0:0x00000000  x8:0x00000001 x15=0x00000001
       18345000	      1833	800050c8	00db9533	sll	x10,x23,x13	 x23:0x00000001 x13:0x00000001 x10=0x00000002
       18355000	      1834	800050cc	02cb5863	bge	x22,x12,800050fc	 x22:0x00000000 x12:0x00000000
       18365000	      1835	00000000	00000013	addi	x0,x0,0	  x0:0x00000000
       18375000	      1836	800050f8	00000013	addi	x0,x0,0	  x0:0x00000000
       18385000	      1837	800050fc	91c3ea97	auipc	x21,0x91c3e	 x21=0x11c430f8
       18395000	      1838	80005100	efce2113	slti	x2,x28,-260	 x28:0xfffffff0  x2=0x00000000
       18405000	      1839	80005104	6ea34d17	auipc	x26,0x6ea34	 x26=0xeea39100
       18415000	      1840	80005108	01207933	and	x18,x0,x18	  x0:0x00000000 x18:0x00000000 x18=0x00000000
       18425000	      1841	8000510c	0020ca33	xor	x20,x1,x2	  x1:0x00000000  x2:0x00000000 x20=0x00000000
       18435000	      1842	80005110	0153fdb3	and	x27,x7,x21	  x7:0x00000001 x21:0x11c430f8 x27=0x00000000
       18445000	      1843	80005114	f328e1b7	lui	x3,0xf328e	  x3=0xf328e000
       18455000	      1844	80005118	0da96293	ori	x5,x18,218	 x18:0x00000000  x5=0x000000da
       18465000	      1845	8000511c	789c6913	ori	x18,x24,1929	 x24:0x80000000 x18=0x80000789
       18475000	      1846	80005120	05ff9263	bne	x31,x31,80005164	 x31:0x00000057 x31:0x00000057
       18485000	      1847	80005124	3a5f4913	xori	x18,x30,933	 x30:0x7fffff02 x18=0x7ffffca7
       18495000	      1848	80005128	3c447b17	auipc	x22,0x3c447	 x22=0xbc44c124
       18505000	      1849	8000512c	410a8db3	sub	x27,x21,x16	 x21:0x11c430f8 x16:0xffffff3a x27=0x11c431be
       18515000	      1850	80005130	01025e63	bge	x4,x16,8000514c	  x4:0x00000000 x16:0xffffff3a
       18525000	      1851	00000000	00000013	addi	x0,x0,0	  x0:0x00000000
       18535000	      1852	80005148	00000013	addi	x0,x0,0	  x0:0x00000000
       18545000	      1853	8000514c	00000013	addi	x0,x0,0	  x0:0x00000000
       18555000	      1854	80005150	c5883413	sltiu	x8,x16,-936	 x16:0xffffff3a  x8=0x00000000
       18565000	      1855	80005154	86ada093	slti	x1,x27,-1942	 x27:0x11c431be  x1=0x00000000
       18575000	      1856	80005158	014c1913	slli	x18,x24,0x14	 x24:0x80000000 x18=0x00000000
       18585000	      1857	8000515c	00000013	addi	x0,x0,0	  x0:0x00000000
       18595000	      1858	80005160	014d9a33	sll	x20,x27,x20	 x27:0x11c431be x20:0x00000000 x20=0x11c431be
       18605000	      1859	80005164	01999bb3	sll	x23,x19,x25	 x19:0x3b800000 x25:0x80009fc4 x23=0xb8000000
       18615000	      1860	80005168	7673cb93	xori	x23,x7,1895	  x7:0x00000001 x23=0x00000766
       18625000	      1861	8000516c	367a7817	auipc	x16,0x367a7	 x16=0xb67ac168
       18635000	      1862	80005170	02efc063	blt	x31,x14,80005190	 x31:0x00000057 x14:0x80009ed8
       18645000	      1863	80005174	01a8de33	srl	x28,x17,x26	 x17:0x00000021 x26:0xeea39100 x28=0x00000021
       18655000	      1864	80005178	00c97133	and	x2,x18,x12	 x18:0x00000000 x12:0x00000000  x2=0x00000000
       18665000	      1865	8000517c	82676413	ori	x8,x14,-2010	 x14:0x80009ed8  x8=0xfffffefe
       18675000	      1866	80005180	01f6d0b3	srl	x1,x13,x31	 x13:0x00000001 x31:0x00000057  x1=0x00000000
       18685000	      1867	80005184	c9edabb7	lui	x23,0xc9eda	 x23=0xc9eda000
       18695000	      1868	80005188	002e0e63	beq	x28,x2,800051a4	 x28:0x00000021  x2:0x00000000
       18705000	      1869	8000518c	c7b80a93	addi	x21,x16,-901	 x16:0xb67ac168 x21=0xb67abde3
       18715000	      1870	80005190	0107db13	srli	x22,x15,0x10	 x15:0x00000001 x22=0x00000000
       18725000	      1871	80005194	009b1133	sll	x2,x22,x9	 x22:0x00000000  x9:0x00000001  x2=0x00000000
       18735000	      1872	80005198	00315913	srli	x18,x2,0x3	  x2:0x00000000 x18=0x00000000
       18745000	      1873	8000519c	00acd213	srli	x4,x25,0xa	 x25:0x80009fc4  x4=0x00200027
       18755000	      1874	800051a0	073f7c63	bgeu	x30,x19,80005218	 x30:0x7fffff02 x19:0x3b800000
       18765000	      1875	00000000	00000013	addi	x0,x0,0	  x0:0x00000000
       18775000	      1876	80005214	00000013	addi	x0,x0,0	  x0:0x00000000
       18785000	      1877	80005218	57719617	auipc	x12,0x57719	 x12=0xd771e214
       18795000	      1878	8000521c	4792c493	xori	x9,x5,1145	  x5:0x000000da  x9=0x000004a3
       18805000	      1879	80005220	01e05eb3	srl	x29,x0,x30	  x0:0x00000000 x30:0x7fffff02 x29=0x00000000
       18815000	      1880	80005224	a7f80993	addi	x19,x16,-1409	 x16:0xb67ac168 x19=0xb67abbe7
       18825000	      1881	80005228	94488413	addi	x8,x17,-1724	 x17:0x00000021  x8=0xfffff965
       18835000	      1882	8000522c	87f9b037	lui	x0,0x87f9b	
       18845000	      1883	80005230	03d40a63	beq	x8,x29,80005264	  x8:0xfffff965 x29:0x00000000
       18855000	      1884	80005234	01ab36b3	sltu	x13,x22,x26	 x22:0x00000000 x26:0xeea39100 x13=0x00000001
       18865000	      1885	80005238	40d15eb3	sra	x29,x2,x13	  x2:0x00000000 x13:0x00000001 x29=0x00000000
       18875000	      1886	8000523c	00959513	slli	x10,x11,0x9	 x11:0x00000000 x10=0x00000000
       18885000	      1887	80005240	0042fe63	bgeu	x5,x4,8000525c	  x5:0x000000da  x4:0x00200027
       18895000	      1888	80005244	03c8e263	bltu	x17,x28,80005268	 x17:0x00000021 x28:0x00000021
       18905000	      1889	80005248	0387f463	bgeu	x15,x24,80005270	 x15:0x00000001 x24:0x80000000
       18915000	      1890	8000524c	034f7c63	bgeu	x30,x20,80005284	 x30:0x7fffff02 x20:0x11c431be
       18925000	      1891	00000000	00000013	addi	x0,x0,0	  x0:0x00000000
       18935000	      1892	80005280	00000013	addi	x0,x0,0	  x0:0x00000000
       18945000	      1893	80005284	00648663	beq	x9,x6,80005290	  x9:0x000004a3  x6:0x80000000
       18955000	      1894	80005288	02aeb413	sltiu	x8,x29,42	 x29:0x00000000  x8=0x00000001
       18965000	      1895	8000528c	00a5c0b3	xor	x1,x11,x10	 x11:0x00000000 x10:0x00000000  x1=0x00000000
       18975000	      1896	80005290	43755537	lui	x10,0x43755	 x10=0x43755000
       18985000	      1897	80005294	a5abe313	ori	x6,x23,-1446	 x23:0xc9eda000  x6=0xfffffa5a
       18995000	      1898	80005298	400fd393	srai	x7,x31,0x0	 x31:0x00000057  x7=0x00000057
       19005000	      1899	8000529c	00000013	addi	x0,x0,0	  x0:0x00000000
       19015000	      1900	800052a0	003fa3b3	slt	x7,x31,x3	 x31:0x00000057  x3:0xf328e000  x7=0x00000000
       19025000	      1901	800052a4	008cefb3	or	x31,x25,x8	 x25:0x80009fc4  x8:0x00000001 x31=0x80009fc5
       19035000	      1902	800052a8	00c9ce33	xor	x28,x19,x12	 x19:0xb67abbe7 x12:0xd771e214 x28=0x610b59f3
       19045000	      1903	800052ac	015b81b3	add	x3,x23,x21	 x23:0xc9eda000 x21:0xb67abde3  x3=0x80685de3
       19055000	      1904	800052b0	00472903	lw	x18,4(x14)	 x14:0x80009ed8 x18=0x80000694 PA:0x80009edc
       19065000	      1905	800052b4	01eb9893	slli	x17,x23,0x1e	 x23:0xc9eda000 x17=0x00000000
       19075000	      1906	800052b8	c9c0ca37	lui	x20,0xc9c0c	 x20=0xc9c0c000
       19085000	      1907	800052bc	2bdb6513	ori	x10,x22,701	 x22:0x00000000 x10=0x000002bd
       19095000	      1908	800052c0	011ad833	srl	x16,x21,x17	 x21:0xb67abde3 x17:0x00000000 x16=0xb67abde3
       19105000	      1909	800052c4	017ef3b3	and	x7,x29,x23	 x29:0x00000000 x23:0xc9eda000  x7=0x00000000
       19115000	      1910	800052c8	01fc3f33	sltu	x30,x24,x31	 x24:0x80000000 x31:0x80009fc5 x30=0x00000001
       19125000	      1911	800052cc	00c70713	addi	x14,x14,12	 x14:0x80009ed8 x14=0x80009ee4
       19135000	      1912	800052d0	000469b3	or	x19,x8,x0	  x8:0x00000001  x0:0x00000000 x19=0x00000001
       19145000	      1913	800052d4	00000013	addi	x0,x0,0	  x0:0x00000000
       19155000	      1914	800052d8	00090313	addi	x6,x18,0	 x18:0x80000694  x6=0x80000694
       19165000	      1915	800052dc	00030367	jalr	x6,x6,0	  x6:0x80000694  x6=0x800052dc
       19175000	      1916	00000000	00000013	addi	x0,x0,0	  x0:0x00000000
       19185000	      1917	80000694	00000013	addi	x0,x0,0	  x0:0x00000000
       19195000	      1918	80000698	ffbb2093	slti	x1,x22,-5	 x22:0x00000000  x1=0x00000000
       19205000	      1919	8000069c	419186b3	sub	x13,x3,x25	  x3:0x80685de3 x25:0x80009fc4 x13=0x0067be1f
       19215000	      1920	800006a0	015c2eb3	slt	x29,x24,x21	 x24:0x80000000 x21:0xb67abde3 x29=0x00000001
       19225000	      1921	800006a4	01693133	sltu	x2,x18,x22	 x18:0x80000694 x22:0x00000000  x2=0x00000000
       19235000	      1922	800006a8	00000013	addi	x0,x0,0	  x0:0x00000000
       19245000	      1923	800006ac	ccd6fd13	andi	x26,x13,-819	 x13:0x0067be1f x26=0x0067bc0d
       19255000	      1924	800006b0	26d3ed17	auipc	x26,0x26d3e	 x26=0xa6d3e6ac
       19265000	      1925	800006b4	746b0b13	addi	x22,x22,1862	 x22:0x00000000 x22=0x00000746
       19275000	      1926	800006b8	f0402eb7	lui	x29,0xf0402	 x29=0xf0402000
       19285000	      1927	800006bc	6850396f	jal	x18,800006bc	 x18=0x800006bc
       19295000	      1928	00000000	00000013	addi	x0,x0,0	  x0:0x00000000
       19305000	      1929	8000453c	00000013	addi	x0,x0,0	  x0:0x00000000
       19315000	      1930	80004540	ff470713	addi	x14,x14,-12	 x14:0x80009ee4 x14=0x80009ed8
       19325000	      1931	80004544	90cffa93	andi	x21,x31,-1780	 x31:0x80009fc5 x21=0x80009904
       19335000	      1932	80004548	019e8ab3	add	x21,x29,x25	 x29:0xf0402000 x25:0x80009fc4 x21=0x7040bfc4
       19345000	      1933	8000454c	ae4b2a13	slti	x20,x22,-1308	 x22:0x00000746 x20=0x00000000
       19355000	      1934	80004550	01272223	sw	x18,4(x14)	 x14:0x80009ed8 x18:0x800006bc PA:0x80009edc
       19365000	      1935	80004554	0030c4b3	xor	x9,x1,x3	  x1:0x00000000  x3:0x80685de3  x9=0x80685de3
       19375000	      1936	80004558	00004a17	auipc	x20,0x4	 x20=0x80008554
       19385000	      1937	8000455c	242a0a13	addi	x20,x20,578	 x20:0x80008554 x20=0x80008796
       19395000	      1938	80004560	00000013	addi	x0,x0,0	  x0:0x00000000
       19405000	      1939	80004564	0049f8b3	and	x17,x19,x4	 x19:0x00000001  x4:0x00200027 x17=0x00000001
       19415000	      1940	80004568	ffda0103	lb	x2,-3(x20)	 x20:0x80008796  x2=0x00000000 PA:0x80008793
       19425000	      1941	8000456c	ff0a5b83	lhu	x23,-16(x20)	 x20:0x80008796 x23=0x00000000 PA:0x80008786
       19435000	      1942	80004570	00d5d313	srli	x6,x11,0xd	 x11:0x00000000  x6=0x00000000
       19445000	      1943	80004574	ffaa0b83	lb	x23,-6(x20)	 x20:0x80008796 x23=0x00000000 PA:0x80008790
       19455000	      1944	80004578	fffa4683	lbu	x13,-1(x20)	 x20:0x80008796 x13=0x00000000 PA:0x80008795
       19465000	      1945	8000457c	005a06a3	sb	x5,13(x20)	 x20:0x80008796  x5:0x000000da PA:0x800087a3
       19475000	      1946	80004580	001108b3	add	x17,x2,x1	  x2:0x00000000  x1:0x00000000 x17=0x00000000
       19485000	      1947	80004584	4047db93	srai	x23,x15,0x4	 x15:0x00000001 x23=0x00000000
       19495000	      1948	80004588	000d4d33	xor	x26,x26,x0	 x26:0xa6d3e6ac  x0:0x00000000 x26=0xa6d3e6ac
       19505000	      1949	8000458c	004a2323	sw	x4,6(x20)	 x20:0x80008796  x4:0x00200027 PA:0x8000879c
       19515000	      1950	80004590	ff3a4783	lbu	x15,-13(x20)	 x20:0x80008796 x15=0x00000054 PA:0x80008789
       19525000	      1951	80004594	34ec9417	auipc	x8,0x34ec9	  x8=0xb4ecd590
       19535000	      1952	80004598	24eb8413	addi	x8,x23,590	 x23:0x00000000  x8=0x0000024e
       19545000	      1953	8000459c	2be36693	ori	x13,x6,702	  x6:0x00000000 x13=0x000002be
       19555000	      1954	800045a0	000a4b83	lbu	x23,0(x20)	 x20:0x80008796 x23=0x00000000 PA:0x80008796
       19565000	      1955	800045a4	00aa1723	sh	x10,14(x20)	 x20:0x80008796 x10:0x000002bd PA:0x800087a4
       19575000	      1956	800045a8	ff5a0803	lb	x16,-11(x20)	 x20:0x80008796 x16=0xffffffff PA:0x8000878b
       19585000	      1957	00000000	00000013	addi	x0,x0,0	  x0:0x00000000
       19595000	      1958	800045ac	ff0a1383	lh	x7,-16(x20)	 x20:0x80008796  x7=0x00000000 PA:0x80008786
       19605000	      1959	800045b0	12b04f93	xori	x31,x0,299	  x0:0x00000000 x31=0x0000012b
       19615000	      1960	800045b4	001a4103	lbu	x2,1(x20)	 x20:0x80008796  x2=0x0000004e PA:0x80008797
       19625000	      1961	800045b8	ff8a09a3	sb	x24,-13(x20)	 x20:0x80008796 x24:0x80000000 PA:0x80008789
       19635000	      1962	800045bc	ff6a2923	sw	x22,-14(x20)	 x20:0x80008796 x22:0x00000746 PA:0x80008788
       19645000	      1963	800045c0	41c603b3	sub	x7,x12,x28	 x12:0xd771e214 x28:0x610b59f3  x7=0x76668821
       19655000	      1964	800045c4	014a2123	sw	x20,2(x20)	 x20:0x80008796 x20:0x80008796 PA:0x80008798
       19665000	      1965	800045c8	ff1a0003	lb	x0,-15(x20)	 x20:0x80008796 PA:0x80008787
       19675000	      1966	800045cc	012a0323	sb	x18,6(x20)	 x20:0x80008796 x18:0x800006bc PA:0x8000879c
       19685000	      1967	800045d0	008a00a3	sb	x8,1(x20)	 x20:0x80008796  x8:0x0000024e PA:0x80008797
       19695000	      1968	800045d4	018a02a3	sb	x24,5(x20)	 x20:0x80008796 x24:0x80000000 PA:0x8000879b
       19705000	      1969	800045d8	ff8a1883	lh	x17,-8(x20)	 x20:0x80008796 x17=0x00000000 PA:0x8000878e
       19715000	      1970	00000000	00000013	addi	x0,x0,0	  x0:0x00000000
       19725000	      1971	800045dc	011105b3	add	x11,x2,x17	  x2:0x0000004e x17:0x00000000 x11=0x0000004e
       19735000	      1972	800045e0	ffca0783	lb	x15,-4(x20)	 x20:0x80008796 x15=0x00000000 PA:0x80008792
       19745000	      1973	800045e4	ff4a4403	lbu	x8,-12(x20)	 x20:0x80008796  x8=0x00000000 PA:0x8000878a
       19755000	      1974	800045e8	005a4403	lbu	x8,5(x20)	 x20:0x80008796  x8=0x00000000 PA:0x8000879b
       19765000	      1975	800045ec	002a5383	lhu	x7,2(x20)	 x20:0x80008796  x7=0x00008796 PA:0x80008798
       19775000	      1976	800045f0	ff3a0283	lb	x5,-13(x20)	 x20:0x80008796  x5=0x00000007 PA:0x80008789
       19785000	      1977	800045f4	feaa09a3	sb	x10,-13(x20)	 x20:0x80008796 x10:0x000002bd PA:0x80008789
       19795000	      1978	800045f8	012ed493	srli	x9,x29,0x12	 x29:0xf0402000  x9=0x00003c10
       19805000	      1979	800045fc	002a0203	lb	x4,2(x20)	 x20:0x80008796  x4=0xffffff96 PA:0x80008798
       19815000	      1980	80004600	00004117	auipc	x2,0x4	  x2=0x800085fc
       19825000	      1981	80004604	41910113	addi	x2,x2,1049	  x2:0x800085fc  x2=0x80008a15
       19835000	      1982	80004608	9a48b213	sltiu	x4,x17,-1628	 x17:0x00000000  x4=0x00000001
       19845000	      1983	8000460c	f7310d83	lb	x27,-141(x2)	  x2:0x80008a15 x27=0x00000000 PA:0x80008988
       19855000	      1984	80004610	40895d13	srai	x26,x18,0x8	 x18:0x800006bc x26=0xff800006
       19865000	      1985	80004614	0ac10d83	lb	x27,172(x2)	  x2:0x80008a15 x27=0x00000000 PA:0x80008ac1
       19875000	      1986	80004618	484f7813	andi	x16,x30,1156	 x30:0x00000001 x16=0x00000000
       19885000	      1987	8000461c	4087deb3	sra	x29,x15,x8	 x15:0x00000000  x8:0x00000000 x29=0x00000000
       19895000	      1988	80004620	0138d293	srli	x5,x17,0x13	 x17:0x00000000  x5=0x00000000
       19905000	      1989	80004624	f6610a83	lb	x21,-154(x2)	  x2:0x80008a15 x21=0x00000000 PA:0x8000897b
       19915000	      1990	80004628	090121a3	sw	x16,131(x2)	  x2:0x80008a15 x16:0x00000000 PA:0x80008a98
       19925000	      1991	8000462c	f4611da3	sh	x6,-165(x2)	  x2:0x80008a15  x6:0x00000000 PA:0x80008970
       19935000	      1992	80004630	0af14083	lbu	x1,175(x2)	  x2:0x80008a15  x1=0x00000000 PA:0x80008ac4
       19945000	      1993	80004634	06414403	lbu	x8,100(x2)	  x2:0x80008a15  x8=0x00000000 PA:0x80008a79
       19955000	      1994	80004638	82d54a13	xori	x20,x10,-2003	 x10:0x000002bd x20=0xfffffa90
       19965000	      1995	8000463c	ddb94893	xori	x17,x18,-549	 x18:0x800006bc x17=0x7ffffb67
       19975000	      1996	80004640	0034d593	srli	x11,x9,0x3	  x9:0x00003c10 x11=0x00000782
       19985000	      1997	80004644	f1910603	lb	x12,-231(x2)	  x2:0x80008a15 x12=0x00000000 PA:0x8000892e
       19995000	      1998	80004648	faf14a03	lbu	x20,-81(x2)	  x2:0x80008a15 x20=0x00000000 PA:0x800089c4
       20005000	      1999	8000464c	b7f77237	lui	x4,0xb7f77	  x4=0xb7f77000
       20015000	      2000	80004650	103b7b13	andi	x22,x22,259	 x22:0x00000746 x22=0x00000102
       20025000	      2001	80004654	006bca33	xor	x20,x23,x6	 x23:0x00000000  x6:0x00000000 x20=0x00000000
       20035000	      2002	80004658	0ae14383	lbu	x7,174(x2)	  x2:0x80008a15  x7=0x00000000 PA:0x80008ac3
       20045000	      2003	8000465c	400eda93	srai	x21,x29,0x0	 x29:0x00000000 x21=0x00000000
       20055000	      2004	80004660	ff410d23	sb	x20,-6(x2)	  x2:0x80008a15 x20:0x00000000 PA:0x80008a0f
       20065000	      2005	80004664	41fa5d93	srai	x27,x20,0x1f	 x20:0x00000000 x27=0x00000000
       20075000	      2006	80004668	8c892813	slti	x16,x18,-1848	 x18:0x800006bc x16=0x00000001
       20085000	      2007	8000466c	00396f33	or	x30,x18,x3	 x18:0x800006bc  x3:0x80685de3 x30=0x80685fff
       20095000	      2008	80004670	241c9db7	lui	x27,0x241c9	 x27=0x241c9000
       20105000	      2009	80004674	fa110503	lb	x10,-95(x2)	  x2:0x80008a15 x10=0x00000000 PA:0x800089b6
       20115000	      2010	80004678	fe910a03	lb	x20,-23(x2)	  x2:0x80008a15 x20=0x00000000 PA:0x800089fe
       20125000	      2011	8000467c	41ecd833	sra	x16,x25,x30	 x25:0x80009fc4 x30:0x80685fff x16=0xffffffff
       20135000	      2012	80004680	08f14583	lbu	x11,143(x2)	  x2:0x80008a15 x11=0x00000000 PA:0x80008aa4
       20145000	      2013	80004684	00004f17	auipc	x30,0x4	 x30=0x80008680
       20155000	      2014	80004688	da6f0f13	addi	x30,x30,-602	 x30:0x80008680 x30=0x80008426
       20165000	      2015	8000468c	febf0503	lb	x10,-21(x30)	 x30:0x80008426 x10=0x00000000 PA:0x80008411
       20175000	      2016	80004690	01ff0d03	lb	x26,31(x30)	 x30:0x80008426 x26=0x00000000 PA:0x80008445
       20185000	      2017	80004694	fccf0b23	sb	x12,-42(x30)	 x30:0x80008426 x12:0x00000000 PA:0x800083fc
       20195000	      2018	80004698	fe4f4183	lbu	x3,-28(x30)	 x30:0x80008426  x3=0x00000000 PA:0x8000840a
       20205000	      2019	8000469c	03af2a03	lw	x20,58(x30)	 x30:0x80008426 x20=0x004f0000 PA:0x80008460
       20215000	      2020	800046a0	00ceb033	sltu	x0,x29,x12	 x29:0x00000000 x12:0x00000000
       20225000	      2021	800046a4	031f0e23	sb	x17,60(x30)	 x30:0x80008426 x17:0x7ffffb67 PA:0x80008462
       20235000	      2022	800046a8	01af4203	lbu	x4,26(x30)	 x30:0x80008426  x4=0x00000000 PA:0x80008440
       20245000	      2023	800046ac	8afe4813	xori	x16,x28,-1873	 x28:0x610b59f3 x16=0x9ef4a15c
       20255000	      2024	800046b0	013f4e03	lbu	x28,19(x30)	 x30:0x80008426 x28=0x00000000 PA:0x80008439
       20265000	      2025	800046b4	44228593	addi	x11,x5,1090	  x5:0x00000000 x11=0x00000442
       20275000	      2026	800046b8	02cf0583	lb	x11,44(x30)	 x30:0x80008426 x11=0x00000000 PA:0x80008452
       20285000	      2027	800046bc	e6106493	ori	x9,x0,-415	  x0:0x00000000  x9=0xfffffe61
       20295000	      2028	800046c0	32ba8993	addi	x19,x21,811	 x21:0x00000000 x19=0x0000032b
       20305000	      2029	800046c4	00ef08a3	sb	x14,17(x30)	 x30:0x80008426 x14:0x80009ed8 PA:0x80008437
       20315000	      2030	800046c8	5bc5f813	andi	x16,x11,1468	 x11:0x00000000 x16=0x00000000
       20325000	      2031	800046cc	033f4883	lbu	x17,51(x30)	 x30:0x80008426 x17=0x00000000 PA:0x80008459
       20335000	      2032	800046d0	00e73b33	sltu	x22,x14,x14	 x14:0x80009ed8 x14:0x80009ed8 x22=0x00000000
       20345000	      2033	800046d4	fcff0083	lb	x1,-49(x30)	 x30:0x80008426  x1=0x00000000 PA:0x800083f5
       20355000	      2034	800046d8	006f2523	sw	x6,10(x30)	 x30:0x80008426  x6:0x00000000 PA:0x80008430
       20365000	      2035	800046dc	035f4783	lbu	x15,53(x30)	 x30:0x80008426 x15=0x00000000 PA:0x8000845b
       20375000	      2036	800046e0	40c1ddb3	sra	x27,x3,x12	  x3:0x00000000 x12:0x00000000 x27=0x00000000
       20385000	      2037	800046e4	018f4783	lbu	x15,24(x30)	 x30:0x80008426 x15=0x00000000 PA:0x8000843e
       20395000	      2038	00000000	00000013	addi	x0,x0,0	  x0:0x00000000
       20405000	      2039	800046e8	02ff0ea3	sb	x15,61(x30)	 x30:0x80008426 x15:0x00000000 PA:0x80008463
       20415000	      2040	800046ec	01a30fb3	add	x31,x6,x26	  x6:0x00000000 x26:0x00000000 x31=0x00000000
       20425000	      2041	800046f0	66740797	auipc	x15,0x66740	 x15=0xe67446ec
       20435000	      2042	800046f4	91b57893	andi	x17,x10,-1765	 x10:0x00000000 x17=0x00000000
       20445000	      2043	800046f8	00415933	srl	x18,x2,x4	  x2:0x80008a15  x4:0x00000000 x18=0x80008a15
       20455000	      2044	800046fc	fcef5903	lhu	x18,-50(x30)	 x30:0x80008426 x18=0x00000000 PA:0x800083f4
       20465000	      2045	80004700	49b4e113	ori	x2,x9,1179	  x9:0xfffffe61  x2=0xfffffefb
       20475000	      2046	80004704	fd8f5003	lhu	x0,-40(x30)	 x30:0x80008426 PA:0x800083fe
       20485000	      2047	80004708	fc8f1883	lh	x17,-56(x30)	 x30:0x80008426 x17=0x00000000 PA:0x800083ee
       20495000	      2048	8000470c	02ff1823	sh	x15,48(x30)	 x30:0x80008426 x15:0xe67446ec PA:0x80008456
       20505000	      2049	80004710	01a908b3	add	x17,x18,x26	 x18:0x00000000 x26:0x00000000 x17=0x00000000
       20515000	      2050	80004714	004966b3	or	x13,x18,x4	 x18:0x00000000  x4:0x00000000 x13=0x00000000
       20525000	      2051	80004718	a1ab7f93	andi	x31,x22,-1510	 x22:0x00000000 x31=0x00000000
       20535000	      2052	8000471c	e948c613	xori	x12,x17,-364	 x17:0x00000000 x12=0xfffffe94
       20545000	      2053	80004720	ff7f0623	sb	x23,-20(x30)	 x30:0x80008426 x23:0x00000000 PA:0x80008412
       20555000	      2054	80004724	00004b97	auipc	x23,0x4	 x23=0x80008720
       20565000	      2055	80004728	1b2b8b93	addi	x23,x23,434	 x23:0x80008720 x23=0x800088d2
       20575000	      2056	8000472c	008bcd83	lbu	x27,8(x23)	 x23:0x800088d2 x27=0x00000000 PA:0x800088da
       20585000	      2057	80004730	01aadb13	srli	x22,x21,0x1a	 x21:0x00000000 x22=0x00000000
       20595000	      2058	80004734	00dbce03	lbu	x28,13(x23)	 x23:0x800088d2 x28=0x00000000 PA:0x800088df
       20605000	      2059	80004738	003bc583	lbu	x11,3(x23)	 x23:0x800088d2 x11=0x00000000 PA:0x800088d5
       20615000	      2060	8000473c	ff6b9583	lh	x11,-10(x23)	 x23:0x800088d2 x11=0x00000000 PA:0x800088c8
       20625000	      2061	80004740	008b9e83	lh	x29,8(x23)	 x23:0x800088d2 x29=0x00000000 PA:0x800088da
       20635000	      2062	80004744	ff6bd483	lhu	x9,-10(x23)	 x23:0x800088d2  x9=0x00000000 PA:0x800088c8
       20645000	      2063	80004748	015dfd33	and	x26,x27,x21	 x27:0x00000000 x21:0x00000000 x26=0x00000000
       20655000	      2064	8000474c	006bc183	lbu	x3,6(x23)	 x23:0x800088d2  x3=0x00000000 PA:0x800088d8
       20665000	      2065	80004750	00ffe2b3	or	x5,x31,x15	 x31:0x00000000 x15:0xe67446ec  x5=0xe67446ec
       20675000	      2066	80004754	00952233	slt	x4,x10,x9	 x10:0x00000000  x9:0x00000000  x4=0x00000000
       20685000	      2067	80004758	01a76533	or	x10,x14,x26	 x14:0x80009ed8 x26:0x00000000 x10=0x80009ed8
       20695000	      2068	8000475c	169b4617	auipc	x12,0x169b4	 x12=0x969b8758
       20705000	      2069	80004760	00000013	addi	x0,x0,0	  x0:0x00000000
       20715000	      2070	80004764	011b82a3	sb	x17,5(x23)	 x23:0x800088d2 x17:0x00000000 PA:0x800088d7
       20725000	      2071	80004768	e99c6137	lui	x2,0xe99c6	  x2=0xe99c6000
       20735000	      2072	8000476c	009c6133	or	x2,x24,x9	 x24:0x80000000  x9:0x00000000  x2=0x80000000
       20745000	      2073	80004770	fefb8823	sb	x15,-16(x23)	 x23:0x800088d2 x15:0xe67446ec PA:0x800088c2
       20755000	      2074	80004774	fe7b9923	sh	x7,-14(x23)	 x23:0x800088d2  x7:0x00000000 PA:0x800088c4
       20765000	      2075	80004778	bca2e913	ori	x18,x5,-1078	  x5:0xe67446ec x18=0xffffffee
       20775000	      2076	8000477c	40f58633	sub	x12,x11,x15	 x11:0x00000000 x15:0xe67446ec x12=0x198bb914
       20785000	      2077	80004780	00000013	addi	x0,x0,0	  x0:0x00000000
       20795000	      2078	80004784	ff7b8383	lb	x7,-9(x23)	 x23:0x800088d2  x7=0x00000000 PA:0x800088c9
       20805000	      2079	80004788	0012bfb3	sltu	x31,x5,x1	  x5:0xe67446ec  x1:0x00000000 x31=0x00000000
       20815000	      2080	8000478c	0080a633	slt	x12,x1,x8	  x1:0x00000000  x8:0x00000000 x12=0x00000000
       20825000	      2081	80004790	dd846413	ori	x8,x8,-552	  x8:0x00000000  x8=0xfffffdd8
       20835000	      2082	80004794	ffbb8183	lb	x3,-5(x23)	 x23:0x800088d2  x3=0x00000000 PA:0x800088cd
       20845000	      2083	80004798	01a6e933	or	x18,x13,x26	 x13:0x00000000 x26:0x00000000 x18=0x00000000
       20855000	      2084	8000479c	004b9403	lh	x8,4(x23)	 x23:0x800088d2  x8=0x00000000 PA:0x800088d6
       20865000	      2085	800047a0	00004117	auipc	x2,0x4	  x2=0x8000879c
       20875000	      2086	800047a4	f0a10113	addi	x2,x2,-246	  x2:0x8000879c  x2=0x800086a6
       20885000	      2087	800047a8	9a710803	lb	x16,-1625(x2)	  x2:0x800086a6 x16=0x00000000 PA:0x8000804d
       20895000	      2088	800047ac	f0b10d83	lb	x27,-245(x2)	  x2:0x800086a6 x27=0x00000000 PA:0x800085b1
       20905000	      2089	800047b0	f3f10d23	sb	x31,-198(x2)	  x2:0x800086a6 x31:0x00000000 PA:0x800085e0
       20915000	      2090	800047b4	016b1fb3	sll	x31,x22,x22	 x22:0x00000000 x22:0x00000000 x31=0x00000000
       20925000	      2091	800047b8	00000013	addi	x0,x0,0	  x0:0x00000000
       20935000	      2092	800047bc	00a29313	slli	x6,x5,0xa	  x5:0xe67446ec  x6=0xd11bb000
       20945000	      2093	800047c0	a8110aa3	sb	x1,-1387(x2)	  x2:0x800086a6  x1:0x00000000 PA:0x8000813b
       20955000	      2094	800047c4	e3614d83	lbu	x27,-458(x2)	  x2:0x800086a6 x27=0x00000000 PA:0x800084dc
       20965000	      2095	800047c8	40e085b3	sub	x11,x1,x14	  x1:0x00000000 x14:0x80009ed8 x11=0x7fff6128
       20975000	      2096	800047cc	db714183	lbu	x3,-585(x2)	  x2:0x800086a6  x3=0x00000000 PA:0x8000845d
       20985000	      2097	800047d0	00585893	srli	x17,x16,0x5	 x16:0x00000000 x17=0x00000000
       20995000	      2098	800047d4	13b12b23	sw	x27,310(x2)	  x2:0x800086a6 x27:0x00000000 PA:0x800087dc
       21005000	      2099	800047d8	00cd2db3	slt	x27,x26,x12	 x26:0x00000000 x12:0x00000000 x27=0x00000000
       21015000	      2100	800047dc	dd0102a3	sb	x16,-571(x2)	  x2:0x800086a6 x16:0x00000000 PA:0x8000846b
       21025000	      2101	800047e0	007c1093	slli	x1,x24,0x7	 x24:0x80000000  x1=0x00000000
       21035000	      2102	800047e4	13d10783	lb	x15,317(x2)	  x2:0x800086a6 x15=0x00000000 PA:0x800087e3
       21045000	      2103	800047e8	0c815b03	lhu	x22,200(x2)	  x2:0x800086a6 x22=0x00000000 PA:0x8000876e
       21055000	      2104	800047ec	b4714083	lbu	x1,-1209(x2)	  x2:0x800086a6  x1=0x00000000 PA:0x800081ed
       21065000	      2105	800047f0	333d4013	xori	x0,x26,819	 x26:0x00000000
       21075000	      2106	800047f4	d6514883	lbu	x17,-667(x2)	  x2:0x800086a6 x17=0x00000000 PA:0x8000840b
       21085000	      2107	800047f8	00ae51b3	srl	x3,x28,x10	 x28:0x00000000 x10:0x80009ed8  x3=0x00000000
       21095000	      2108	800047fc	01c32933	slt	x18,x6,x28	  x6:0xd11bb000 x28:0x00000000 x18=0x00000001
       21105000	      2109	80004800	01d11433	sll	x8,x2,x29	  x2:0x800086a6 x29:0x00000000  x8=0x800086a6
       21115000	      2110	80004804	01721a33	sll	x20,x4,x23	  x4:0x00000000 x23:0x800088d2 x20=0x00000000
       21125000	      2111	80004808	dbc14883	lbu	x17,-580(x2)	  x2:0x800086a6 x17=0x00000067 PA:0x80008462
       21135000	      2112	8000480c	a1d12523	sw	x29,-1526(x2)	  x2:0x800086a6 x29:0x00000000 PA:0x800080b0
       21145000	      2113	80004810	0ce15483	lhu	x9,206(x2)	  x2:0x800086a6  x9=0x00000000 PA:0x80008774
       21155000	      2114	80004814	01e79193	slli	x3,x15,0x1e	 x15:0x00000000  x3=0x00000000
       21165000	      2115	80004818	41d905b3	sub	x11,x18,x29	 x18:0x00000001 x29:0x00000000 x11=0x00000001
       21175000	      2116	8000481c	0df107a3	sb	x31,207(x2)	  x2:0x800086a6 x31:0x00000000 PA:0x80008775
       21185000	      2117	80004820	ec810623	sb	x8,-308(x2)	  x2:0x800086a6  x8:0x800086a6 PA:0x80008572
       21195000	      2118	80004824	87646093	ori	x1,x8,-1930	  x8:0x800086a6  x1=0xfffffef6
       21205000	      2119	80004828	004577b3	and	x15,x10,x4	 x10:0x80009ed8  x4:0x00000000 x15=0x00000000
       21215000	      2120	8000482c	e063c213	xori	x4,x7,-506	  x7:0x00000000  x4=0xfffffe06
       21225000	      2121	80004830	0081aeb3	slt	x29,x3,x8	  x3:0x00000000  x8:0x800086a6 x29=0x00000000
       21235000	      2122	80004834	01516ab3	or	x21,x2,x21	  x2:0x800086a6 x21:0x00000000 x21=0x800086a6
       21245000	      2123	80004838	01fc39b3	sltu	x19,x24,x31	 x24:0x80000000 x31:0x00000000 x19=0x00000000
       21255000	      2124	8000483c	40215113	srai	x2,x2,0x2	  x2:0x800086a6  x2=0xe00021a9
       21265000	      2125	80004840	ecd37013	andi	x0,x6,-307	  x6:0xd11bb000
       21275000	      2126	80004844	0585f663	bgeu	x11,x24,80004890	 x11:0x00000001 x24:0x80000000
       21285000	      2127	80004848	00e47663	bgeu	x8,x14,80004854	  x8:0x800086a6 x14:0x80009ed8
       21295000	      2128	8000484c	ca5dcf13	xori	x30,x27,-859	 x27:0x00000000 x30=0xfffffca5
       21305000	      2129	80004850	00385333	srl	x6,x16,x3	 x16:0x00000000  x3:0x00000000  x6=0x00000000
       21315000	      2130	80004854	00015493	srli	x9,x2,0x0	  x2:0xe00021a9  x9=0xe00021a9
       21325000	      2131	80004858	01a81b93	slli	x23,x16,0x1a	 x16:0x00000000 x23=0x00000000
       21335000	      2132	8000485c	04c7e863	bltu	x15,x12,800048ac	 x15:0x00000000 x12:0x00000000
       21345000	      2133	80004860	000dfdb3	and	x27,x27,x0	 x27:0x00000000  x0:0x00000000 x27=0x00000000
       21355000	      2134	80004864	418bd4b3	sra	x9,x23,x24	 x23:0x00000000 x24:0x80000000  x9=0x00000000
       21365000	      2135	80004868	016ffdb3	and	x27,x31,x22	 x31:0x00000000 x22:0x00000000 x27=0x00000000
       21375000	      2136	8000486c	c1fe3e37	lui	x28,0xc1fe3	 x28=0xc1fe3000
       21385000	      2137	80004870	4bc04e13	xori	x28,x0,1212	  x0:0x00000000 x28=0x000004bc
       21395000	      2138	80004874	00ce5e13	srli	x28,x28,0xc	 x28:0x000004bc x28=0x00000000
       21405000	      2139	80004878	f9111ab7	lui	x21,0xf9111	 x21=0xf9111000
       21415000	      2140	8000487c	f528a293	slti	x5,x17,-174	 x17:0x00000067  x5=0x00000000
       21425000	      2141	80004880	003bce63	blt	x23,x3,8000489c	 x23:0x00000000  x3:0x00000000
       21435000	      2142	80004884	0330f263	bgeu	x1,x19,800048a8	  x1:0xfffffef6 x19:0x00000000
       21445000	      2143	00000000	00000013	addi	x0,x0,0	  x0:0x00000000
       21455000	      2144	800048a4	00000013	addi	x0,x0,0	  x0:0x00000000
       21465000	      2145	800048a8	025d5863	bge	x26,x5,800048d8	 x26:0x00000000  x5:0x00000000
       21475000	      2146	00000000	00000013	addi	x0,x0,0	  x0:0x00000000
       21485000	      2147	800048d4	00000013	addi	x0,x0,0	  x0:0x00000000
       21495000	      2148	800048d8	00502833	slt	x16,x0,x5	  x0:0x00000000  x5:0x00000000 x16=0x00000000
       21505000	      2149	800048dc	0103db93	srli	x23,x7,0x10	  x7:0x00000000 x23=0x00000000
       21515000	      2150	800048e0	41fbd813	srai	x16,x23,0x1f	 x23:0x00000000 x16=0x00000000
       21525000	      2151	800048e4	01c11093	slli	x1,x2,0x1c	  x2:0xe00021a9  x1=0x90000000
       21535000	      2152	800048e8	ac01b197	auipc	x3,0xac01b	  x3=0x2c01f8e4
       21545000	      2153	800048ec	e71ae313	ori	x6,x21,-399	 x21:0xf9111000  x6=0xfffffe71
       21555000	      2154	800048f0	01b1a933	slt	x18,x3,x27	  x3:0x2c01f8e4 x27:0x00000000 x18=0x00000000
       21565000	      2155	800048f4	00000013	addi	x0,x0,0	  x0:0x00000000
       21575000	      2156	800048f8	01eadd33	srl	x26,x21,x30	 x21:0xf9111000 x30:0xfffffca5 x26=0x07c88880
       21585000	      2157	800048fc	01e45393	srli	x7,x8,0x1e	  x8:0x800086a6  x7=0x00000002
       21595000	      2158	80004900	01b55a63	bge	x10,x27,80004914	 x10:0x80009ed8 x27:0x00000000
       21605000	      2159	80004904	01ae75b3	and	x11,x28,x26	 x28:0x00000000 x26:0x07c88880 x11=0x00000000
       21615000	      2160	80004908	41ad5fb3	sra	x31,x26,x26	 x26:0x07c88880 x26:0x07c88880 x31=0x07c88880
       21625000	      2161	8000490c	41838fb3	sub	x31,x7,x24	  x7:0x00000002 x24:0x80000000 x31=0x80000002
       21635000	      2162	80004910	4071df93	srai	x31,x3,0x7	  x3:0x2c01f8e4 x31=0x005803f1
       21645000	      2163	80004914	00000013	addi	x0,x0,0	  x0:0x00000000
       21655000	      2164	80004918	019b44b3	xor	x9,x22,x25	 x22:0x00000000 x25:0x80009fc4  x9=0x80009fc4
       21665000	      2165	8000491c	d6e8f3b7	lui	x7,0xd6e8f	  x7=0xd6e8f000
       21675000	      2166	80004920	012180b3	add	x1,x3,x18	  x3:0x2c01f8e4 x18:0x00000000  x1=0x2c01f8e4
       21685000	      2167	80004924	41cf0a33	sub	x20,x30,x28	 x30:0xfffffca5 x28:0x00000000 x20=0xfffffca5
       21695000	      2168	80004928	273f7693	andi	x13,x30,627	 x30:0xfffffca5 x13=0x00000021
       21705000	      2169	8000492c	00d60a33	add	x20,x12,x13	 x12:0x00000000 x13:0x00000021 x20=0x00000021
       21715000	      2170	80004930	00bdd093	srli	x1,x27,0xb	 x27:0x00000000  x1=0x00000000
       21725000	      2171	80004934	0025c333	xor	x6,x11,x2	 x11:0x00000000  x2:0xe00021a9  x6=0xe00021a9
       21735000	      2172	80004938	020d1063	bne	x26,x0,80004958	 x26:0x07c88880  x0:0x00000000
       21745000	      2173	00000000	00000013	addi	x0,x0,0	  x0:0x00000000
       21755000	      2174	80004954	00000013	addi	x0,x0,0	  x0:0x00000000
       21765000	      2175	80004958	0520c863	blt	x1,x18,800049a8	  x1:0x00000000 x18:0x00000000
       21775000	      2176	8000495c	01b36f33	or	x30,x6,x27	  x6:0xe00021a9 x27:0x00000000 x30=0xe00021a9
       21785000	      2177	80004960	411783b3	sub	x7,x15,x17	 x15:0x00000000 x17:0x00000067  x7=0xffffff99
       21795000	      2178	80004964	5298f013	andi	x0,x17,1321	 x17:0x00000067
       21805000	      2179	80004968	40ba0ab3	sub	x21,x20,x11	 x20:0x00000021 x11:0x00000000 x21=0x00000021
       21815000	      2180	8000496c	5a6d2d93	slti	x27,x26,1446	 x26:0x07c88880 x27=0x00000000
       21825000	      2181	80004970	01a090b3	sll	x1,x1,x26	  x1:0x00000000 x26:0x07c88880  x1=0x00000000
       21835000	      2182	80004974	015bf433	and	x8,x23,x21	 x23:0x00000000 x21:0x00000021  x8=0x00000000
       21845000	      2183	80004978	50b5cf13	xori	x30,x11,1291	 x11:0x00000000 x30=0x0000050b
       21855000	      2184	8000497c	40235193	srai	x3,x6,0x2	  x6:0xe00021a9  x3=0xf800086a
       21865000	      2185	80004980	00608eb3	add	x29,x1,x6	  x1:0x00000000  x6:0xe00021a9 x29=0xe00021a9
       21875000	      2186	80004984	d6603037	lui	x0,0xd6603	
       21885000	      2187	80004988	00a43233	sltu	x4,x8,x10	  x8:0x00000000 x10:0x80009ed8  x4=0x00000001
       21895000	      2188	8000498c	005c5613	srli	x12,x24,0x5	 x24:0x80000000 x12=0x04000000
       21905000	      2189	80004990	028c1a63	bne	x24,x8,800049c4	 x24:0x80000000  x8:0x00000000
       21915000	      2190	00000000	00000013	addi	x0,x0,0	  x0:0x00000000
       21925000	      2191	800049c0	00000013	addi	x0,x0,0	  x0:0x00000000
       21935000	      2192	800049c4	04700263	beq	x0,x7,80004a08	  x0:0x00000000  x7:0xffffff99
       21945000	      2193	800049c8	88314413	xori	x8,x2,-1917	  x2:0xe00021a9  x8=0x1fffd92a
       21955000	      2194	800049cc	50530613	addi	x12,x6,1285	  x6:0xe00021a9 x12=0xe00026ae
       21965000	      2195	800049d0	01da78b3	and	x17,x20,x29	 x20:0x00000021 x29:0xe00021a9 x17=0x00000021
       21975000	      2196	800049d4	01d35313	srli	x6,x6,0x1d	  x6:0xe00021a9  x6=0x00000007
       21985000	      2197	800049d8	01dbbab3	sltu	x21,x23,x29	 x23:0x00000000 x29:0xe00021a9 x21=0x00000001
       21995000	      2198	800049dc	1c1be037	lui	x0,0x1c1be	
       22005000	      2199	800049e0	0039de63	bge	x19,x3,800049fc	 x19:0x00000000  x3:0xf800086a
       22015000	      2200	00000000	00000013	addi	x0,x0,0	  x0:0x00000000
       22025000	      2201	800049f8	00000013	addi	x0,x0,0	  x0:0x00000000
       22035000	      2202	800049fc	04918663	beq	x3,x9,80004a48	  x3:0xf800086a  x9:0x80009fc4
       22045000	      2203	80004a00	00f0bfb3	sltu	x31,x1,x15	  x1:0x00000000 x15:0x00000000 x31=0x00000000
       22055000	      2204	80004a04	844bf7b7	lui	x15,0x844bf	 x15=0x844bf000
       22065000	      2205	80004a08	b9902637	lui	x12,0xb9902	 x12=0xb9902000
       22075000	      2206	80004a0c	18f54313	xori	x6,x10,399	 x10:0x80009ed8  x6=0x80009f57
       22085000	      2207	80004a10	0126a9b3	slt	x19,x13,x18	 x13:0x00000021 x18:0x00000000 x19=0x00000000
       22095000	      2208	80004a14	48fdc393	xori	x7,x27,1167	 x27:0x00000000  x7=0x0000048f
       22105000	      2209	80004a18	0328c863	blt	x17,x18,80004a48	 x17:0x00000021 x18:0x00000000
       22115000	      2210	80004a1c	007cc333	xor	x6,x25,x7	 x25:0x80009fc4  x7:0x0000048f  x6=0x80009b4b
       22125000	      2211	80004a20	1080c413	xori	x8,x1,264	  x1:0x00000000  x8=0x00000108
       22135000	      2212	80004a24	01ac0b33	add	x22,x24,x26	 x24:0x80000000 x26:0x07c88880 x22=0x87c88880
       22145000	      2213	80004a28	01319eb3	sll	x29,x3,x19	  x3:0xf800086a x19:0x00000000 x29=0xf800086a
       22155000	      2214	80004a2c	40695313	srai	x6,x18,0x6	 x18:0x00000000  x6=0x00000000
       22165000	      2215	80004a30	039d4c63	blt	x26,x25,80004a68	 x26:0x07c88880 x25:0x80009fc4
       22175000	      2216	80004a34	05018463	beq	x3,x16,80004a7c	  x3:0xf800086a x16:0x00000000
       22185000	      2217	80004a38	410d04b3	sub	x9,x26,x16	 x26:0x07c88880 x16:0x00000000  x9=0x07c88880
       22195000	      2218	80004a3c	40e50633	sub	x12,x10,x14	 x10:0x80009ed8 x14:0x80009ed8 x12=0x00000000
       22205000	      2219	80004a40	41d7d1b3	sra	x3,x15,x29	 x15:0x844bf000 x29:0xf800086a  x3=0xffe112fc
       22215000	      2220	80004a44	f6458393	addi	x7,x11,-156	 x11:0x00000000  x7=0xffffff64
       22225000	      2221	80004a48	faf740b7	lui	x1,0xfaf74	  x1=0xfaf74000
       22235000	      2222	80004a4c	ae224b13	xori	x22,x4,-1310	  x4:0x00000001 x22=0xfffffae3
       22245000	      2223	80004a50	011cdc63	bge	x25,x17,80004a68	 x25:0x80009fc4 x17:0x00000021
       22255000	      2224	80004a54	0891c393	xori	x7,x3,137	  x3:0xffe112fc  x7=0xffe11275
       22265000	      2225	80004a58	003da933	slt	x18,x27,x3	 x27:0x00000000  x3:0xffe112fc x18=0x00000000
       22275000	      2226	80004a5c	00764b33	xor	x22,x12,x7	 x12:0x00000000  x7:0xffe11275 x22=0xffe11275
       22285000	      2227	80004a60	02c6f663	bgeu	x13,x12,80004a8c	 x13:0x00000021 x12:0x00000000
       22295000	      2228	00000000	00000013	addi	x0,x0,0	  x0:0x00000000
       22305000	      2229	80004a88	00000013	addi	x0,x0,0	  x0:0x00000000
       22315000	      2230	80004a8c	03136463	bltu	x6,x17,80004ab4	  x6:0x00000000 x17:0x00000021
       22325000	      2231	00000000	00000013	addi	x0,x0,0	  x0:0x00000000
       22335000	      2232	80004ab0	00000013	addi	x0,x0,0	  x0:0x00000000
       22345000	      2233	80004ab4	00fdfdb3	and	x27,x27,x15	 x27:0x00000000 x15:0x844bf000 x27=0x00000000
       22355000	      2234	80004ab8	413c8d33	sub	x26,x25,x19	 x25:0x80009fc4 x19:0x00000000 x26=0x80009fc4
       22365000	      2235	80004abc	043a6863	bltu	x20,x3,80004b0c	 x20:0x00000021  x3:0xffe112fc
       22375000	      2236	00000000	00000013	addi	x0,x0,0	  x0:0x00000000
       22385000	      2237	80004b08	00000013	addi	x0,x0,0	  x0:0x00000000
       22395000	      2238	80004b0c	00657c63	bgeu	x10,x6,80004b24	 x10:0x80009ed8  x6:0x00000000
       22405000	      2239	00000000	00000013	addi	x0,x0,0	  x0:0x00000000
       22415000	      2240	80004b20	00000013	addi	x0,x0,0	  x0:0x00000000
       22425000	      2241	80004b24	00228e63	beq	x5,x2,80004b40	  x5:0x00000000  x2:0xe00021a9
       22435000	      2242	80004b28	daa70a93	addi	x21,x14,-598	 x14:0x80009ed8 x21=0x80009c82
       22445000	      2243	80004b2c	04365463	bge	x12,x3,80004b74	 x12:0x00000000  x3:0xffe112fc
       22455000	      2244	00000000	00000013	addi	x0,x0,0	  x0:0x00000000
       22465000	      2245	80004b70	00000013	addi	x0,x0,0	  x0:0x00000000
       22475000	      2246	80004b74	027c6c63	bltu	x24,x7,80004bac	 x24:0x80000000  x7:0xffe11275
       22485000	      2247	00000000	00000013	addi	x0,x0,0	  x0:0x00000000
       22495000	      2248	80004ba8	00000013	addi	x0,x0,0	  x0:0x00000000
       22505000	      2249	80004bac	00d643b3	xor	x7,x12,x13	 x12:0x00000000 x13:0x00000021  x7=0x00000021
       22515000	      2250	80004bb0	017c1533	sll	x10,x24,x23	 x24:0x80000000 x23:0x00000000 x10=0x80000000
       22525000	      2251	80004bb4	8c290a13	addi	x20,x18,-1854	 x18:0x00000000 x20=0xfffff8c2
       22535000	      2252	80004bb8	612362b7	lui	x5,0x61236	  x5=0x61236000
       22545000	      2253	80004bbc	456df117	auipc	x2,0x456df	  x2=0xc56e3bb8
       22555000	      2254	80004bc0	00eab333	sltu	x6,x21,x14	 x21:0x80009c82 x14:0x80009ed8  x6=0x00000001
       22565000	      2255	80004bc4	01729e93	slli	x29,x5,0x17	  x5:0x61236000 x29=0x00000000
       22575000	      2256	80004bc8	0048a933	slt	x18,x17,x4	 x17:0x00000021  x4:0x00000001 x18=0x00000000
       22585000	      2257	80004bcc	0124a9b3	slt	x19,x9,x18	  x9:0x07c88880 x18:0x00000000 x19=0x00000000
       22595000	      2258	80004bd0	01d18863	beq	x3,x29,80004be0	  x3:0xffe112fc x29:0x00000000
       22605000	      2259	80004bd4	056c8663	beq	x25,x22,80004c20	 x25:0x80009fc4 x22:0xffe11275
       22615000	      2260	80004bd8	029a0c63	beq	x20,x9,80004c10	 x20:0xfffff8c2  x9:0x07c88880
       22625000	      2261	80004bdc	7f82c493	xori	x9,x5,2040	  x5:0x61236000  x9=0x612367f8
       22635000	      2262	80004be0	0d4da393	slti	x7,x27,212	 x27:0x00000000  x7=0x00000001
       22645000	      2263	80004be4	0ac6a693	slti	x13,x13,172	 x13:0x00000021 x13=0x00000001
       22655000	      2264	80004be8	01ea2333	slt	x6,x20,x30	 x20:0xfffff8c2 x30:0x0000050b  x6=0x00000001
       22665000	      2265	80004bec	04c0f863	bgeu	x1,x12,80004c3c	  x1:0xfaf74000 x12:0x00000000
       22675000	      2266	00000000	00000013	addi	x0,x0,0	  x0:0x00000000
       22685000	      2267	80004c38	00000013	addi	x0,x0,0	  x0:0x00000000
       22695000	      2268	80004c3c	01cc94b3	sll	x9,x25,x28	 x25:0x80009fc4 x28:0x00000000  x9=0x80009fc4
       22705000	      2269	80004c40	0160e933	or	x18,x1,x22	  x1:0xfaf74000 x22:0xffe11275 x18=0xfff75275
       22715000	      2270	80004c44	01941033	sll	x0,x8,x25	  x8:0x00000108 x25:0x80009fc4
       22725000	      2271	80004c48	007ae1b3	or	x3,x21,x7	 x21:0x80009c82  x7:0x00000001  x3=0x80009c83
       22735000	      2272	80004c4c	0283fc63	bgeu	x7,x8,80004c84	  x7:0x00000001  x8:0x00000108
       22745000	      2273	80004c50	40678bb3	sub	x23,x15,x6	 x15:0x844bf000  x6:0x00000001 x23=0x844befff
       22755000	      2274	80004c54	04725663	bge	x4,x7,80004ca0	  x4:0x00000001  x7:0x00000001
       22765000	      2275	00000000	00000013	addi	x0,x0,0	  x0:0x00000000
       22775000	      2276	80004c9c	00000013	addi	x0,x0,0	  x0:0x00000000
       22785000	      2277	80004ca0	018e9193	slli	x3,x29,0x18	 x29:0x00000000  x3=0x00000000
       22795000	      2278	80004ca4	03239863	bne	x7,x18,80004cd4	  x7:0x00000001 x18:0xfff75275
       22805000	      2279	00000000	00000013	addi	x0,x0,0	  x0:0x00000000
       22815000	      2280	80004cd0	00000013	addi	x0,x0,0	  x0:0x00000000
       22825000	      2281	80004cd4	6a85f393	andi	x7,x11,1704	 x11:0x00000000  x7=0x00000000
       22835000	      2282	80004cd8	00000013	addi	x0,x0,0	  x0:0x00000000
       22845000	      2283	80004cdc	01973333	sltu	x6,x14,x25	 x14:0x80009ed8 x25:0x80009fc4  x6=0x00000001
       22855000	      2284	80004ce0	409fd813	srai	x16,x31,0x9	 x31:0x00000000 x16=0x00000000
       22865000	      2285	80004ce4	04661463	bne	x12,x6,80004d2c	 x12:0x00000000  x6:0x00000001
       22875000	      2286	00000000	00000013	addi	x0,x0,0	  x0:0x00000000
       22885000	      2287	80004d28	00000013	addi	x0,x0,0	  x0:0x00000000
       22895000	      2288	80004d2c	006c9863	bne	x25,x6,80004d3c	 x25:0x80009fc4  x6:0x00000001
       22905000	      2289	00000000	00000013	addi	x0,x0,0	  x0:0x00000000
       22915000	      2290	80004d38	00000013	addi	x0,x0,0	  x0:0x00000000
       22925000	      2291	80004d3c	051c9263	bne	x25,x17,80004d80	 x25:0x80009fc4 x17:0x00000021
       22935000	      2292	00000000	00000013	addi	x0,x0,0	  x0:0x00000000
       22945000	      2293	80004d7c	00000013	addi	x0,x0,0	  x0:0x00000000
       22955000	      2294	80004d80	0317e863	bltu	x15,x17,80004db0	 x15:0x844bf000 x17:0x00000021
       22965000	      2295	80004d84	000a9d33	sll	x26,x21,x0	 x21:0x80009c82  x0:0x00000000 x26=0x80009c82
       22975000	      2296	80004d88	00212d33	slt	x26,x2,x2	  x2:0xc56e3bb8  x2:0xc56e3bb8 x26=0x00000000
       22985000	      2297	80004d8c	01889d93	slli	x27,x17,0x18	 x17:0x00000021 x27=0x21000000
       22995000	      2298	80004d90	41878ab3	sub	x21,x15,x24	 x15:0x844bf000 x24:0x80000000 x21=0x044bf000
       23005000	      2299	80004d94	119c3413	sltiu	x8,x24,281	 x24:0x80000000  x8=0x00000000
       23015000	      2300	80004d98	05f21263	bne	x4,x31,80004ddc	  x4:0x00000001 x31:0x00000000
       23025000	      2301	00000000	00000013	addi	x0,x0,0	  x0:0x00000000
       23035000	      2302	80004dd8	00000013	addi	x0,x0,0	  x0:0x00000000
       23045000	      2303	80004ddc	cc4f8013	addi	x0,x31,-828	 x31:0x00000000
       23055000	      2304	80004de0	acaaaf13	slti	x30,x21,-1334	 x21:0x044bf000 x30=0x00000000
       23065000	      2305	80004de4	0220ca63	blt	x1,x2,80004e18	  x1:0xfaf74000  x2:0xc56e3bb8
       23075000	      2306	80004de8	00f9c5b3	xor	x11,x19,x15	 x19:0x00000000 x15:0x844bf000 x11=0x844bf000
       23085000	      2307	80004dec	003deab3	or	x21,x27,x3	 x27:0x21000000  x3:0x00000000 x21=0x21000000
       23095000	      2308	80004df0	00915213	srli	x4,x2,0x9	  x2:0xc56e3bb8  x4=0x0062b71d
       23105000	      2309	80004df4	00000013	addi	x0,x0,0	  x0:0x00000000
       23115000	      2310	80004df8	00b9d313	srli	x6,x19,0xb	 x19:0x00000000  x6=0x00000000
       23125000	      2311	80004dfc	01ab1a13	slli	x20,x22,0x1a	 x22:0xffe11275 x20=0xd4000000
       23135000	      2312	80004e00	04024863	blt	x4,x0,80004e50	  x4:0x0062b71d  x0:0x00000000
       23145000	      2313	80004e04	02d08263	beq	x1,x13,80004e28	  x1:0xfaf74000 x13:0x00000001
       23155000	      2314	80004e08	407e0833	sub	x16,x28,x7	 x28:0x00000000  x7:0x00000000 x16=0x00000000
       23165000	      2315	80004e0c	01d89f93	slli	x31,x17,0x1d	 x17:0x00000021 x31=0x20000000
       23175000	      2316	80004e10	00000013	addi	x0,x0,0	  x0:0x00000000
       23185000	      2317	80004e14	00f7c4b3	xor	x9,x15,x15	 x15:0x844bf000 x15:0x844bf000  x9=0x00000000
       23195000	      2318	80004e18	01e05113	srli	x2,x0,0x1e	  x0:0x00000000  x2=0x00000000
       23205000	      2319	80004e1c	036c7663	bgeu	x24,x22,80004e48	 x24:0x80000000 x22:0xffe11275
       23215000	      2320	80004e20	0165b833	sltu	x16,x11,x22	 x11:0x844bf000 x22:0xffe11275 x16=0x00000001
       23225000	      2321	80004e24	028e7063	bgeu	x28,x8,80004e44	 x28:0x00000000  x8:0x00000000
       23235000	      2322	00000000	00000013	addi	x0,x0,0	  x0:0x00000000
       23245000	      2323	80004e40	00000013	addi	x0,x0,0	  x0:0x00000000
       23255000	      2324	80004e44	00ab7333	and	x6,x22,x10	 x22:0xffe11275 x10:0x80000000  x6=0x80000000
       23265000	      2325	80004e48	05c4c463	blt	x9,x28,80004e90	  x9:0x00000000 x28:0x00000000
       23275000	      2326	80004e4c	01ea7e63	bgeu	x20,x30,80004e68	 x20:0xd4000000 x30:0x00000000
       23285000	      2327	00000000	00000013	addi	x0,x0,0	  x0:0x00000000
       23295000	      2328	80004e64	00000013	addi	x0,x0,0	  x0:0x00000000
       23305000	      2329	80004e68	01824233	xor	x4,x4,x24	  x4:0x0062b71d x24:0x80000000  x4=0x8062b71d
       23315000	      2330	80004e6c	004ce6b3	or	x13,x25,x4	 x25:0x80009fc4  x4:0x8062b71d x13=0x8062bfdd
       23325000	      2331	80004e70	012d31b3	sltu	x3,x26,x18	 x26:0x00000000 x18:0xfff75275  x3=0x00000001
       23335000	      2332	80004e74	b625a793	slti	x15,x11,-1182	 x11:0x844bf000 x15=0x00000001
       23345000	      2333	80004e78	00dba033	slt	x0,x23,x13	 x23:0x844befff x13:0x8062bfdd
       23355000	      2334	80004e7c	02874463	blt	x14,x8,80004ea4	 x14:0x80009ed8  x8:0x00000000
       23365000	      2335	00000000	00000013	addi	x0,x0,0	  x0:0x00000000
       23375000	      2336	80004ea0	00000013	addi	x0,x0,0	  x0:0x00000000
       23385000	      2337	80004ea4	001e5833	srl	x16,x28,x1	 x28:0x00000000  x1:0xfaf74000 x16=0x00000000
       23395000	      2338	80004ea8	01337663	bgeu	x6,x19,80004eb4	  x6:0x80000000 x19:0x00000000
       23405000	      2339	00000000	00000013	addi	x0,x0,0	  x0:0x00000000
       23415000	      2340	80004eb0	00000013	addi	x0,x0,0	  x0:0x00000000
       23425000	      2341	80004eb4	007182b3	add	x5,x3,x7	  x3:0x00000001  x7:0x00000000  x5=0x00000001
       23435000	      2342	80004eb8	015da4b3	slt	x9,x27,x21	 x27:0x21000000 x21:0x21000000  x9=0x00000000
       23445000	      2343	80004ebc	00a03ab3	sltu	x21,x0,x10	  x0:0x00000000 x10:0x80000000 x21=0x00000001
       23455000	      2344	80004ec0	01c85663	bge	x16,x28,80004ecc	 x16:0x00000000 x28:0x00000000
       23465000	      2345	00000000	00000013	addi	x0,x0,0	  x0:0x00000000
       23475000	      2346	80004ec8	00000013	addi	x0,x0,0	  x0:0x00000000
       23485000	      2347	80004ecc	41a95bb3	sra	x23,x18,x26	 x18:0xfff75275 x26:0x00000000 x23=0xfff75275
       23495000	      2348	80004ed0	003f9d33	sll	x26,x31,x3	 x31:0x20000000  x3:0x00000001 x26=0x40000000
       23505000	      2349	80004ed4	b292e693	ori	x13,x5,-1239	  x5:0x00000001 x13=0xfffffb29
       23515000	      2350	80004ed8	48c29297	auipc	x5,0x48c29	  x5=0xc8c2ded4
       23525000	      2351	80004edc	5ee2c493	xori	x9,x5,1518	  x5:0xc8c2ded4  x9=0xc8c2db3a
       23535000	      2352	80004ee0	b04ed097	auipc	x1,0xb04ed	  x1=0x304f1edc
       23545000	      2353	80004ee4	004050b3	srl	x1,x0,x4	  x0:0x00000000  x4:0x8062b71d  x1=0x00000000
       23555000	      2354	80004ee8	00719a93	slli	x21,x3,0x7	  x3:0x00000001 x21=0x00000080
       23565000	      2355	80004eec	4a220393	addi	x7,x4,1186	  x4:0x8062b71d  x7=0x8062bbbf
       23575000	      2356	80004ef0	018e8db3	add	x27,x29,x24	 x29:0x00000000 x24:0x80000000 x27=0x80000000
       23585000	      2357	80004ef4	01d6a033	slt	x0,x13,x29	 x13:0xfffffb29 x29:0x00000000
       23595000	      2358	80004ef8	00000013	addi	x0,x0,0	  x0:0x00000000
       23605000	      2359	80004efc	018ed933	srl	x18,x29,x24	 x29:0x00000000 x24:0x80000000 x18=0x00000000
       23615000	      2360	80004f00	008bd193	srli	x3,x23,0x8	 x23:0xfff75275  x3=0x00fff752
       23625000	      2361	80004f04	8ae4b917	auipc	x18,0x8ae4b	 x18=0x0ae4ff00
       23635000	      2362	80004f08	41ccd013	srai	x0,x25,0x1c	 x25:0x80009fc4
       23645000	      2363	80004f0c	0221dc63	bge	x3,x2,80004f44	  x3:0x00fff752  x2:0x00000000
       23655000	      2364	00000000	00000013	addi	x0,x0,0	  x0:0x00000000
       23665000	      2365	80004f40	00000013	addi	x0,x0,0	  x0:0x00000000
       23675000	      2366	80004f44	01aefe63	bgeu	x29,x26,80004f60	 x29:0x00000000 x26:0x40000000
       23685000	      2367	80004f48	01b01433	sll	x8,x0,x27	  x0:0x00000000 x27:0x80000000  x8=0x00000000
       23695000	      2368	80004f4c	8884f293	andi	x5,x9,-1912	  x9:0xc8c2db3a  x5=0xc8c2d808
       23705000	      2369	80004f50	01909093	slli	x1,x1,0x19	  x1:0x00000000  x1=0x00000000
       23715000	      2370	80004f54	012330b3	sltu	x1,x6,x18	  x6:0x80000000 x18:0x0ae4ff00  x1=0x00000000
       23725000	      2371	80004f58	57c23293	sltiu	x5,x4,1404	  x4:0x8062b71d  x5=0x00000000
       23735000	      2372	80004f5c	00fac033	xor	x0,x21,x15	 x21:0x00000080 x15:0x00000001
       23745000	      2373	80004f60	01855663	bge	x10,x24,80004f6c	 x10:0x80000000 x24:0x80000000
       23755000	      2374	00000000	00000013	addi	x0,x0,0	  x0:0x00000000
       23765000	      2375	80004f68	00000013	addi	x0,x0,0	  x0:0x00000000
       23775000	      2376	80004f6c	47de2693	slti	x13,x28,1149	 x28:0x00000000 x13=0x00000001
       23785000	      2377	80004f70	989b3e13	sltiu	x28,x22,-1655	 x22:0xffe11275 x28=0x00000001
       23795000	      2378	80004f74	e13e2297	auipc	x5,0xe13e2	  x5=0x613e6f70
       23805000	      2379	80004f78	015582b3	add	x5,x11,x21	 x11:0x844bf000 x21:0x00000080  x5=0x844bf080
       23815000	      2380	80004f7c	41aa5213	srai	x4,x20,0x1a	 x20:0xd4000000  x4=0xfffffff5
       23825000	      2381	80004f80	01885a13	srli	x20,x16,0x18	 x16:0x00000000 x20=0x00000000
       23835000	      2382	80004f84	3a442f93	slti	x31,x8,932	  x8:0x00000000 x31=0x00000001
       23845000	      2383	80004f88	01779a13	slli	x20,x15,0x17	 x15:0x00000001 x20=0x00800000
       23855000	      2384	80004f8c	01595f93	srli	x31,x18,0x15	 x18:0x0ae4ff00 x31=0x00000057
       23865000	      2385	80004f90	017d4663	blt	x26,x23,80004f9c	 x26:0x40000000 x23:0xfff75275
       23875000	      2386	80004f94	41e6d993	srai	x19,x13,0x1e	 x13:0x00000001 x19=0x00000000
       23885000	      2387	80004f98	01b99b13	slli	x22,x19,0x1b	 x19:0x00000000 x22=0x00000000
       23895000	      2388	80004f9c	00638533	add	x10,x7,x6	  x7:0x8062bbbf  x6:0x80000000 x10=0x0062bbbf
       23905000	      2389	80004fa0	8b26ea13	ori	x20,x13,-1870	 x13:0x00000001 x20=0xfffff8b3
       23915000	      2390	80004fa4	010af533	and	x10,x21,x16	 x21:0x00000080 x16:0x00000000 x10=0x00000000
       23925000	      2391	80004fa8	410805b3	sub	x11,x16,x16	 x16:0x00000000 x16:0x00000000 x11=0x00000000
       23935000	      2392	80004fac	00e10b33	add	x22,x2,x14	  x2:0x00000000 x14:0x80009ed8 x22=0x80009ed8
       23945000	      2393	80004fb0	00757f33	and	x30,x10,x7	 x10:0x00000000  x7:0x8062bbbf x30=0x00000000
       23955000	      2394	80004fb4	c67e99b7	lui	x19,0xc67e9	 x19=0xc67e9000
       23965000	      2395	80004fb8	417cd593	srai	x11,x25,0x17	 x25:0x80009fc4 x11=0xffffff00
       23975000	      2396	80004fbc	41c0d813	srai	x16,x1,0x1c	  x1:0x00000000 x16=0x00000000
       23985000	      2397	80004fc0	009252b3	srl	x5,x4,x9	  x4:0xfffffff5  x9:0xc8c2db3a  x5=0x0000003f
       23995000	      2398	80004fc4	9ab93b93	sltiu	x23,x18,-1621	 x18:0x0ae4ff00 x23=0x00000001
       24005000	      2399	80004fc8	f0230f13	addi	x30,x6,-254	  x6:0x80000000 x30=0x7fffff02
       24015000	      2400	80004fcc	643d7613	andi	x12,x26,1603	 x26:0x40000000 x12=0x00000000
       24025000	      2401	80004fd0	00d56933	or	x18,x10,x13	 x10:0x00000000 x13:0x00000001 x18=0x00000001
       24035000	      2402	80004fd4	e943c793	xori	x15,x7,-364	  x7:0x8062bbbf x15=0x7f9d452b
       24045000	      2403	80004fd8	014d15b3	sll	x11,x26,x20	 x26:0x40000000 x20:0xfffff8b3 x11=0x00000000
       24055000	      2404	80004fdc	42306913	ori	x18,x0,1059	  x0:0x00000000 x18=0x00000423
       24065000	      2405	80004fe0	011119b3	sll	x19,x2,x17	  x2:0x00000000 x17:0x00000021 x19=0x00000000
       24075000	      2406	80004fe4	01fa8e33	add	x28,x21,x31	 x21:0x00000080 x31:0x00000057 x28=0x000000d7
       24085000	      2407	80004fe8	013eeb33	or	x22,x29,x19	 x29:0x00000000 x19:0x00000000 x22=0x00000000
       24095000	      2408	80004fec	b70eb393	sltiu	x7,x29,-1168	 x29:0x00000000  x7=0x00000001
       24105000	      2409	80004ff0	009f6833	or	x16,x30,x9	 x30:0x7fffff02  x9:0xc8c2db3a x16=0xffffff3a
       24115000	      2410	80004ff4	04c44863	blt	x8,x12,80005044	  x8:0x00000000 x12:0x00000000
       24125000	      2411	80004ff8	0111b133	sltu	x2,x3,x17	  x3:0x00fff752 x17:0x00000021  x2=0x00000000
       24135000	      2412	80004ffc	0013c133	xor	x2,x7,x1	  x7:0x00000001  x1:0x00000000  x2=0x00000001
       24145000	      2413	80005000	0073c233	xor	x4,x7,x7	  x7:0x00000001  x7:0x00000001  x4=0x00000000
       24155000	      2414	80005004	7806e213	ori	x4,x13,1920	 x13:0x00000001  x4=0x00000781
       24165000	      2415	80005008	014c3433	sltu	x8,x24,x20	 x24:0x80000000 x20:0xfffff8b3  x8=0x00000001
       24175000	      2416	8000500c	01f8ea33	or	x20,x17,x31	 x17:0x00000021 x31:0x00000057 x20=0x00000077
       24185000	      2417	80005010	00321513	slli	x10,x4,0x3	  x4:0x00000781 x10=0x00003c08
       24195000	      2418	80005014	00593eb3	sltu	x29,x18,x5	 x18:0x00000423  x5:0x0000003f x29=0x00000000
       24205000	      2419	80005018	ed038193	addi	x3,x7,-304	  x7:0x00000001  x3=0xfffffed1
       24215000	      2420	8000501c	00000013	addi	x0,x0,0	  x0:0x00000000
       24225000	      2421	80005020	0496c263	blt	x13,x9,80005064	 x13:0x00000001  x9:0xc8c2db3a
       24235000	      2422	80005024	001791b3	sll	x3,x15,x1	 x15:0x7f9d452b  x1:0x00000000  x3=0x7f9d452b
       24245000	      2423	80005028	60d72693	slti	x13,x14,1549	 x14:0x80009ed8 x13=0x00000001
       24255000	      2424	8000502c	b699e513	ori	x10,x19,-1175	 x19:0x00000000 x10=0xfffffb69
       24265000	      2425	80005030	01e18233	add	x4,x3,x30	  x3:0x7f9d452b x30:0x7fffff02  x4=0xff9d442d
       24275000	      2426	80005034	4042d933	sra	x18,x5,x4	  x5:0x0000003f  x4:0xff9d442d x18=0x00000000
       24285000	      2427	80005038	014af233	and	x4,x21,x20	 x21:0x00000080 x20:0x00000077  x4=0x00000000
       24295000	      2428	8000503c	950b8193	addi	x3,x23,-1712	 x23:0x00000001  x3=0xfffff951
       24305000	      2429	80005040	41da8d33	sub	x26,x21,x29	 x21:0x00000080 x29:0x00000000 x26=0x00000080
       24315000	      2430	80005044	0309da63	bge	x19,x16,80005078	 x19:0x00000000 x16:0xffffff3a
       24325000	      2431	00000000	00000013	addi	x0,x0,0	  x0:0x00000000
       24335000	      2432	80005074	00000013	addi	x0,x0,0	  x0:0x00000000
       24345000	      2433	80005078	05f90663	beq	x18,x31,800050c4	 x18:0x00000000 x31:0x00000057
       24355000	      2434	8000507c	01859663	bne	x11,x24,80005088	 x11:0x00000000 x24:0x80000000
       24365000	      2435	00000000	00000013	addi	x0,x0,0	  x0:0x00000000
       24375000	      2436	80005084	00000013	addi	x0,x0,0	  x0:0x00000000
       24385000	      2437	80005088	03c54863	blt	x10,x28,800050b8	 x10:0xfffffb69 x28:0x000000d7
       24395000	      2438	00000000	00000013	addi	x0,x0,0	  x0:0x00000000
       24405000	      2439	800050b4	00000013	addi	x0,x0,0	  x0:0x00000000
       24415000	      2440	800050b8	017a1993	slli	x19,x20,0x17	 x20:0x00000077 x19=0x3b800000
       24425000	      2441	800050bc	9f5c2493	slti	x9,x24,-1547	 x24:0x80000000  x9=0x00000001
       24435000	      2442	800050c0	41b75e13	srai	x28,x14,0x1b	 x14:0x80009ed8 x28=0xfffffff0
       24445000	      2443	800050c4	008027b3	slt	x15,x0,x8	  x0:0x00000000  x8:0x00000001 x15=0x00000001
       24455000	      2444	800050c8	00db9533	sll	x10,x23,x13	 x23:0x00000001 x13:0x00000001 x10=0x00000002
       24465000	      2445	800050cc	02cb5863	bge	x22,x12,800050fc	 x22:0x00000000 x12:0x00000000
       24475000	      2446	00000000	00000013	addi	x0,x0,0	  x0:0x00000000
       24485000	      2447	800050f8	00000013	addi	x0,x0,0	  x0:0x00000000
       24495000	      2448	800050fc	91c3ea97	auipc	x21,0x91c3e	 x21=0x11c430f8
       24505000	      2449	80005100	efce2113	slti	x2,x28,-260	 x28:0xfffffff0  x2=0x00000000
       24515000	      2450	80005104	6ea34d17	auipc	x26,0x6ea34	 x26=0xeea39100
       24525000	      2451	80005108	01207933	and	x18,x0,x18	  x0:0x00000000 x18:0x00000000 x18=0x00000000
       24535000	      2452	8000510c	0020ca33	xor	x20,x1,x2	  x1:0x00000000  x2:0x00000000 x20=0x00000000
       24545000	      2453	80005110	0153fdb3	and	x27,x7,x21	  x7:0x00000001 x21:0x11c430f8 x27=0x00000000
       24555000	      2454	80005114	f328e1b7	lui	x3,0xf328e	  x3=0xf328e000
       24565000	      2455	80005118	0da96293	ori	x5,x18,218	 x18:0x00000000  x5=0x000000da
       24575000	      2456	8000511c	789c6913	ori	x18,x24,1929	 x24:0x80000000 x18=0x80000789
       24585000	      2457	80005120	05ff9263	bne	x31,x31,80005164	 x31:0x00000057 x31:0x00000057
       24595000	      2458	80005124	3a5f4913	xori	x18,x30,933	 x30:0x7fffff02 x18=0x7ffffca7
       24605000	      2459	80005128	3c447b17	auipc	x22,0x3c447	 x22=0xbc44c124
       24615000	      2460	8000512c	410a8db3	sub	x27,x21,x16	 x21:0x11c430f8 x16:0xffffff3a x27=0x11c431be
       24625000	      2461	80005130	01025e63	bge	x4,x16,8000514c	  x4:0x00000000 x16:0xffffff3a
       24635000	      2462	00000000	00000013	addi	x0,x0,0	  x0:0x00000000
       24645000	      2463	80005148	00000013	addi	x0,x0,0	  x0:0x00000000
       24655000	      2464	8000514c	00000013	addi	x0,x0,0	  x0:0x00000000
       24665000	      2465	80005150	c5883413	sltiu	x8,x16,-936	 x16:0xffffff3a  x8=0x00000000
       24675000	      2466	80005154	86ada093	slti	x1,x27,-1942	 x27:0x11c431be  x1=0x00000000
       24685000	      2467	80005158	014c1913	slli	x18,x24,0x14	 x24:0x80000000 x18=0x00000000
       24695000	      2468	8000515c	00000013	addi	x0,x0,0	  x0:0x00000000
       24705000	      2469	80005160	014d9a33	sll	x20,x27,x20	 x27:0x11c431be x20:0x00000000 x20=0x11c431be
       24715000	      2470	80005164	01999bb3	sll	x23,x19,x25	 x19:0x3b800000 x25:0x80009fc4 x23=0xb8000000
       24725000	      2471	80005168	7673cb93	xori	x23,x7,1895	  x7:0x00000001 x23=0x00000766
       24735000	      2472	8000516c	367a7817	auipc	x16,0x367a7	 x16=0xb67ac168
       24745000	      2473	80005170	02efc063	blt	x31,x14,80005190	 x31:0x00000057 x14:0x80009ed8
       24755000	      2474	80005174	01a8de33	srl	x28,x17,x26	 x17:0x00000021 x26:0xeea39100 x28=0x00000021
       24765000	      2475	80005178	00c97133	and	x2,x18,x12	 x18:0x00000000 x12:0x00000000  x2=0x00000000
       24775000	      2476	8000517c	82676413	ori	x8,x14,-2010	 x14:0x80009ed8  x8=0xfffffefe
       24785000	      2477	80005180	01f6d0b3	srl	x1,x13,x31	 x13:0x00000001 x31:0x00000057  x1=0x00000000
       24795000	      2478	80005184	c9edabb7	lui	x23,0xc9eda	 x23=0xc9eda000
       24805000	      2479	80005188	002e0e63	beq	x28,x2,800051a4	 x28:0x00000021  x2:0x00000000
       24815000	      2480	8000518c	c7b80a93	addi	x21,x16,-901	 x16:0xb67ac168 x21=0xb67abde3
       24825000	      2481	80005190	0107db13	srli	x22,x15,0x10	 x15:0x00000001 x22=0x00000000
       24835000	      2482	80005194	009b1133	sll	x2,x22,x9	 x22:0x00000000  x9:0x00000001  x2=0x00000000
       24845000	      2483	80005198	00315913	srli	x18,x2,0x3	  x2:0x00000000 x18=0x00000000
       24855000	      2484	8000519c	00acd213	srli	x4,x25,0xa	 x25:0x80009fc4  x4=0x00200027
       24865000	      2485	800051a0	073f7c63	bgeu	x30,x19,80005218	 x30:0x7fffff02 x19:0x3b800000
       24875000	      2486	00000000	00000013	addi	x0,x0,0	  x0:0x00000000
       24885000	      2487	80005214	00000013	addi	x0,x0,0	  x0:0x00000000
       24895000	      2488	80005218	57719617	auipc	x12,0x57719	 x12=0xd771e214
       24905000	      2489	8000521c	4792c493	xori	x9,x5,1145	  x5:0x000000da  x9=0x000004a3
       24915000	      2490	80005220	01e05eb3	srl	x29,x0,x30	  x0:0x00000000 x30:0x7fffff02 x29=0x00000000
       24925000	      2491	80005224	a7f80993	addi	x19,x16,-1409	 x16:0xb67ac168 x19=0xb67abbe7
       24935000	      2492	80005228	94488413	addi	x8,x17,-1724	 x17:0x00000021  x8=0xfffff965
       24945000	      2493	8000522c	87f9b037	lui	x0,0x87f9b	
       24955000	      2494	80005230	03d40a63	beq	x8,x29,80005264	  x8:0xfffff965 x29:0x00000000
       24965000	      2495	80005234	01ab36b3	sltu	x13,x22,x26	 x22:0x00000000 x26:0xeea39100 x13=0x00000001
       24975000	      2496	80005238	40d15eb3	sra	x29,x2,x13	  x2:0x00000000 x13:0x00000001 x29=0x00000000
       24985000	      2497	8000523c	00959513	slli	x10,x11,0x9	 x11:0x00000000 x10=0x00000000
       24995000	      2498	80005240	0042fe63	bgeu	x5,x4,8000525c	  x5:0x000000da  x4:0x00200027
       25005000	      2499	80005244	03c8e263	bltu	x17,x28,80005268	 x17:0x00000021 x28:0x00000021
       25015000	      2500	80005248	0387f463	bgeu	x15,x24,80005270	 x15:0x00000001 x24:0x80000000
       25025000	      2501	8000524c	034f7c63	bgeu	x30,x20,80005284	 x30:0x7fffff02 x20:0x11c431be
       25035000	      2502	00000000	00000013	addi	x0,x0,0	  x0:0x00000000
       25045000	      2503	80005280	00000013	addi	x0,x0,0	  x0:0x00000000
       25055000	      2504	80005284	00648663	beq	x9,x6,80005290	  x9:0x000004a3  x6:0x80000000
       25065000	      2505	80005288	02aeb413	sltiu	x8,x29,42	 x29:0x00000000  x8=0x00000001
       25075000	      2506	8000528c	00a5c0b3	xor	x1,x11,x10	 x11:0x00000000 x10:0x00000000  x1=0x00000000
       25085000	      2507	80005290	43755537	lui	x10,0x43755	 x10=0x43755000
       25095000	      2508	80005294	a5abe313	ori	x6,x23,-1446	 x23:0xc9eda000  x6=0xfffffa5a
       25105000	      2509	80005298	400fd393	srai	x7,x31,0x0	 x31:0x00000057  x7=0x00000057
       25115000	      2510	8000529c	00000013	addi	x0,x0,0	  x0:0x00000000
       25125000	      2511	800052a0	003fa3b3	slt	x7,x31,x3	 x31:0x00000057  x3:0xf328e000  x7=0x00000000
       25135000	      2512	800052a4	008cefb3	or	x31,x25,x8	 x25:0x80009fc4  x8:0x00000001 x31=0x80009fc5
       25145000	      2513	800052a8	00c9ce33	xor	x28,x19,x12	 x19:0xb67abbe7 x12:0xd771e214 x28=0x610b59f3
       25155000	      2514	800052ac	015b81b3	add	x3,x23,x21	 x23:0xc9eda000 x21:0xb67abde3  x3=0x80685de3
       25165000	      2515	800052b0	00472903	lw	x18,4(x14)	 x14:0x80009ed8 x18=0x800006bc PA:0x80009edc
       25175000	      2516	800052b4	01eb9893	slli	x17,x23,0x1e	 x23:0xc9eda000 x17=0x00000000
       25185000	      2517	800052b8	c9c0ca37	lui	x20,0xc9c0c	 x20=0xc9c0c000
       25195000	      2518	800052bc	2bdb6513	ori	x10,x22,701	 x22:0x00000000 x10=0x000002bd
       25205000	      2519	800052c0	011ad833	srl	x16,x21,x17	 x21:0xb67abde3 x17:0x00000000 x16=0xb67abde3
       25215000	      2520	800052c4	017ef3b3	and	x7,x29,x23	 x29:0x00000000 x23:0xc9eda000  x7=0x00000000
       25225000	      2521	800052c8	01fc3f33	sltu	x30,x24,x31	 x24:0x80000000 x31:0x80009fc5 x30=0x00000001
       25235000	      2522	800052cc	00c70713	addi	x14,x14,12	 x14:0x80009ed8 x14=0x80009ee4
       25245000	      2523	800052d0	000469b3	or	x19,x8,x0	  x8:0x00000001  x0:0x00000000 x19=0x00000001
       25255000	      2524	800052d4	00000013	addi	x0,x0,0	  x0:0x00000000
       25265000	      2525	800052d8	00090313	addi	x6,x18,0	 x18:0x800006bc  x6=0x800006bc
       25275000	      2526	800052dc	00030367	jalr	x6,x6,0	  x6:0x800006bc  x6=0x800052dc
       25285000	      2527	00000000	00000013	addi	x0,x0,0	  x0:0x00000000
       25295000	      2528	800006bc	00000013	addi	x0,x0,0	  x0:0x00000000
       25305000	      2529	800006c0	04d4d063	bge	x9,x13,80000700	  x9:0x000004a3 x13:0x00000001
       25315000	      2530	00000000	00000013	addi	x0,x0,0	  x0:0x00000000
       25325000	      2531	800006fc	00000013	addi	x0,x0,0	  x0:0x00000000
       25335000	      2532	80000700	40915e33	sra	x28,x2,x9	  x2:0x00000000  x9:0x000004a3 x28=0x00000000
       25345000	      2533	80000704	00472903	lw	x18,4(x14)	 x14:0x80009ee4 x18=0x800044b0 PA:0x80009ee8
       25355000	      2534	80000708	00c70713	addi	x14,x14,12	 x14:0x80009ee4 x14=0x80009ef0
       25365000	      2535	8000070c	8c123293	sltiu	x5,x4,-1855	  x4:0x00200027  x5=0x00000001
       25375000	      2536	80000710	3d250013	addi	x0,x10,978	 x10:0x000002bd
       25385000	      2537	80000714	00000013	addi	x0,x0,0	  x0:0x00000000
       25395000	      2538	80000718	00190513	addi	x10,x18,1	 x18:0x800044b0 x10=0x800044b1
       25405000	      2539	8000071c	00050567	jalr	x10,x10,0	 x10:0x800044b1 x10=0x8000071c
       25415000	      2540	00000000	00000013	addi	x0,x0,0	  x0:0x00000000
       25425000	      2541	800044b0	00000013	addi	x0,x0,0	  x0:0x00000000
       25435000	      2542	800044b4	00000013	addi	x0,x0,0	  x0:0x00000000
       25445000	      2543	800044b8	01a2dd13	srli	x26,x5,0x1a	  x5:0x00000001 x26=0x00000000
       25455000	      2544	800044bc	ffffc317	auipc	x6,0xffffc	  x6=0x800004b8
       25465000	      2545	800044c0	17030313	addi	x6,x6,368	  x6:0x800004b8  x6=0x80000628
       25475000	      2546	800044c4	40ead633	sra	x12,x21,x14	 x21:0xb67abde3 x14:0x80009ef0 x12=0xffffb67a
       25485000	      2547	800044c8	3c377a37	lui	x20,0x3c377	 x20=0x3c377000
       25495000	      2548	800044cc	014667b3	or	x15,x12,x20	 x12:0xffffb67a x20:0x3c377000 x15=0xfffff67a
       25505000	      2549	800044d0	40a25513	srai	x10,x4,0xa	  x4:0x00200027 x10=0x00000800
       25515000	      2550	800044d4	00ff94b3	sll	x9,x31,x15	 x31:0x80009fc5 x15:0xfffff67a  x9=0x14000000
       25525000	      2551	800044d8	0698b613	sltiu	x12,x17,105	 x17:0x00000000 x12=0x00000001
       25535000	      2552	800044dc	faf30313	addi	x6,x6,-81	  x6:0x80000628  x6=0x800005d7
       25545000	      2553	800044e0	fe56e293	ori	x5,x13,-27	 x13:0x00000001  x5=0xffffffe5
       25555000	      2554	800044e4	05130967	jalr	x18,x6,81	  x6:0x800005d7 x18=0x800044e4
       25565000	      2555	00000000	00000013	addi	x0,x0,0	  x0:0x00000000
       25575000	      2556	80000628	00000013	addi	x0,x0,0	  x0:0x00000000
       25585000	      2557	8000062c	00f205b3	add	x11,x4,x15	  x4:0x00200027 x15:0xfffff67a x11=0x001ff6a1
       25595000	      2558	80000630	008d24b3	slt	x9,x26,x8	 x26:0x00000000  x8:0x00000001  x9=0x00000001
       25605000	      2559	80000634	ff470713	addi	x14,x14,-12	 x14:0x80009ef0 x14=0x80009ee4
       25615000	      2560	80000638	4fd20813	addi	x16,x4,1277	  x4:0x00200027 x16=0x00200524
       25625000	      2561	8000063c	00aa1413	slli	x8,x20,0xa	 x20:0x3c377000  x8=0xddc00000
       25635000	      2562	80000640	410752b3	sra	x5,x14,x16	 x14:0x80009ee4 x16:0x00200524  x5=0xf80009ee
       25645000	      2563	80000644	01272223	sw	x18,4(x14)	 x14:0x80009ee4 x18:0x800044e4 PA:0x80009ee8
       25655000	      2564	80000648	48e4f613	andi	x12,x9,1166	  x9:0x00000001 x12=0x00000000
       25665000	      2565	8000064c	ba996417	auipc	x8,0xba996	  x8=0x3a996648
       25675000	      2566	80000650	01a122b3	slt	x5,x2,x26	  x2:0x00000000 x26:0x00000000  x5=0x00000000
       25685000	      2567	80000654	00000097	auipc	x1,0x0	  x1=0x80000650
       25695000	      2568	80000658	ebc08093	addi	x1,x1,-324	  x1:0x80000650  x1=0x8000050c
       25705000	      2569	8000065c	00431b93	slli	x23,x6,0x4	  x6:0x800005d7 x23=0x00005d70
       25715000	      2570	80000660	e5e08093	addi	x1,x1,-418	  x1:0x8000050c  x1=0x8000036a
       25725000	      2571	80000664	01c70863	beq	x14,x28,80000674	 x14:0x80009ee4 x28:0x00000000
       25735000	      2572	80000668	418581b3	sub	x3,x11,x24	 x11:0x001ff6a1 x24:0x80000000  x3=0x801ff6a1
       25745000	      2573	8000066c	010a4133	xor	x2,x20,x16	 x20:0x3c377000 x16:0x00200524  x2=0x3c177524
       25755000	      2574	80000670	903d2e13	slti	x28,x26,-1789	 x26:0x00000000 x28=0x00000000
       25765000	      2575	80000674	1a208967	jalr	x18,x1,418	  x1:0x8000036a x18=0x80000674
       25775000	      2576	00000000	00000013	addi	x0,x0,0	  x0:0x00000000
       25785000	      2577	8000050c	00000013	addi	x0,x0,0	  x0:0x00000000
       25795000	      2578	80000510	0012d263	bge	x5,x1,80000514	  x5:0x00000000  x1:0x8000036a
       25805000	      2579	00000000	00000013	addi	x0,x0,0	  x0:0x00000000
       25815000	      2580	80000510	00000013	addi	x0,x0,0	  x0:0x00000000
       25825000	      2581	80000514	fec70713	addi	x14,x14,-20	 x14:0x80009ee4 x14=0x80009ed0
       25835000	      2582	80000518	c4dd4f93	xori	x31,x26,-947	 x26:0x00000000 x31=0xfffffc4d
       25845000	      2583	8000051c	5cfdc213	xori	x4,x27,1487	 x27:0x11c431be  x4=0x11c43471
       25855000	      2584	80000520	01272223	sw	x18,4(x14)	 x14:0x80009ed0 x18:0x80000674 PA:0x80009ed4
       25865000	      2585	80000524	2f7c8113	addi	x2,x25,759	 x25:0x80009fc4  x2=0x8000a2bb
       25875000	      2586	80000528	9cab7e13	andi	x28,x22,-1590	 x22:0x00000000 x28=0x00000000
       25885000	      2587	8000052c	00f22f33	slt	x30,x4,x15	  x4:0x11c43471 x15:0xfffff67a x30=0x00000000
       25895000	      2588	80000530	00005d17	auipc	x26,0x5	 x26=0x8000552c
       25905000	      2589	80000534	e88d0d13	addi	x26,x26,-376	 x26:0x8000552c x26=0x800053b4
       25915000	      2590	80000538	0054c4b3	xor	x9,x9,x5	  x9:0x00000001  x5:0x00000000  x9=0x00000001
       25925000	      2591	8000053c	00b89e33	sll	x28,x17,x11	 x17:0x00000000 x11:0x001ff6a1 x28=0x00000000
       25935000	      2592	80000540	0c1d0d13	addi	x26,x26,193	 x26:0x800053b4 x26=0x80005475
       25945000	      2593	80000544	810f2613	slti	x12,x30,-2032	 x30:0x00000000 x12=0x00000000
       25955000	      2594	80000548	70cd0293	addi	x5,x26,1804	 x26:0x80005475  x5=0x80005b81
       25965000	      2595	8000054c	4059df33	sra	x30,x19,x5	 x19:0x00000001  x5:0x80005b81 x30=0x00000000
       25975000	      2596	80000550	40f0d313	srai	x6,x1,0xf	  x1:0x8000036a  x6=0xffff0000
       25985000	      2597	80000554	01cbfeb3	and	x29,x23,x28	 x23:0x00005d70 x28:0x00000000 x29=0x00000000
       25995000	      2598	80000558	01279463	bne	x15,x18,80000560	 x15:0xfffff67a x18:0x80000674
       26005000	      2599	00000000	00000013	addi	x0,x0,0	  x0:0x00000000
       26015000	      2600	8000055c	00000013	addi	x0,x0,0	  x0:0x00000000
       26025000	      2601	80000560	f3fd0967	jalr	x18,x26,-193	 x26:0x80005475 x18=0x80000560
       26035000	      2602	00000000	00000013	addi	x0,x0,0	  x0:0x00000000
       26045000	      2603	800053b4	00000013	addi	x0,x0,0	  x0:0x00000000
       26055000	      2604	800053b8	20c77517	auipc	x10,0x20c77	 x10=0xa0c7c3b4
       26065000	      2605	800053bc	0145ddb3	srl	x27,x11,x20	 x11:0x001ff6a1 x20:0x3c377000 x27=0x001ff6a1
       26075000	      2606	800053c0	fc870713	addi	x14,x14,-56	 x14:0x80009ed0 x14=0x80009e98
       26085000	      2607	800053c4	001f4633	xor	x12,x30,x1	 x30:0x00000000  x1:0x8000036a x12=0x8000036a
       26095000	      2608	800053c8	00000013	addi	x0,x0,0	  x0:0x00000000
       26105000	      2609	800053cc	01272223	sw	x18,4(x14)	 x14:0x80009e98 x18:0x80000560 PA:0x80009e9c
       26115000	      2610	800053d0	4057df93	srai	x31,x15,0x5	 x15:0xfffff67a x31=0xffffffb3
       26125000	      2611	800053d4	402057b3	sra	x15,x0,x2	  x0:0x00000000  x2:0x8000a2bb x15=0x00000000
       26135000	      2612	800053d8	00003217	auipc	x4,0x3	  x4=0x800083d4
       26145000	      2613	800053dc	e9320213	addi	x4,x4,-365	  x4:0x800083d4  x4=0x80008267
       26155000	      2614	800053e0	00265113	srli	x2,x12,0x2	 x12:0x8000036a  x2=0x200000da
       26165000	      2615	800053e4	f4320723	sb	x3,-178(x4)	  x4:0x80008267  x3:0x801ff6a1 PA:0x800081b5
       26175000	      2616	800053e8	00b09d33	sll	x26,x1,x11	  x1:0x8000036a x11:0x001ff6a1 x26=0x000006d4
       26185000	      2617	800053ec	0130ebb3	or	x23,x1,x19	  x1:0x8000036a x19:0x00000001 x23=0x8000036b
       26195000	      2618	800053f0	404f08b3	sub	x17,x30,x4	 x30:0x00000000  x4:0x80008267 x17=0x7fff7d99
       26205000	      2619	800053f4	01120223	sb	x17,4(x4)	  x4:0x80008267 x17:0x7fff7d99 PA:0x8000826b
       26215000	      2620	800053f8	fd6bc413	xori	x8,x23,-42	 x23:0x8000036b  x8=0x7ffffcbd
       26225000	      2621	800053fc	41cbea13	ori	x20,x23,1052	 x23:0x8000036b x20=0x8000077f
       26235000	      2622	80005400	28d9cb13	xori	x22,x19,653	 x19:0x00000001 x22=0x0000028c
       26245000	      2623	80005404	4e633793	sltiu	x15,x6,1254	  x6:0xffff0000 x15=0x00000000
       26255000	      2624	80005408	03921683	lh	x13,57(x4)	  x4:0x80008267 x13=0x00000000 PA:0x800082a0
       26265000	      2625	8000540c	f7620023	sb	x22,-160(x4)	  x4:0x80008267 x22:0x0000028c PA:0x800081c7
       26275000	      2626	80005410	0018c433	xor	x8,x17,x1	 x17:0x7fff7d99  x1:0x8000036a  x8=0xffff7ef3
       26285000	      2627	80005414	53262bb7	lui	x23,0x53262	 x23=0x53262000
       26295000	      2628	80005418	09725d83	lhu	x27,151(x4)	  x4:0x80008267 x27=0x00000000 PA:0x800082fe
       26305000	      2629	8000541c	01c8d633	srl	x12,x17,x28	 x17:0x7fff7d99 x28:0x00000000 x12=0x7fff7d99
       26315000	      2630	80005420	00000013	addi	x0,x0,0	  x0:0x00000000
       26325000	      2631	80005424	40345193	srai	x3,x8,0x3	  x8:0xffff7ef3  x3=0xffffefde
       26335000	      2632	80005428	00859093	slli	x1,x11,0x8	 x11:0x001ff6a1  x1=0x1ff6a100
       26345000	      2633	8000542c	41ad86b3	sub	x13,x27,x26	 x27:0x00000000 x26:0x000006d4 x13=0xfffff92c
       26355000	      2634	80005430	43787693	andi	x13,x16,1079	 x16:0x00200524 x13=0x00000424
       26365000	      2635	80005434	47707593	andi	x11,x0,1143	  x0:0x00000000 x11=0x00000000
       26375000	      2636	80005438	05d25183	lhu	x3,93(x4)	  x4:0x80008267  x3=0x00000000 PA:0x800082c4
       26385000	      2637	8000543c	5cc93b97	auipc	x23,0x5cc93	 x23=0xdcc98438
       26395000	      2638	80005440	0166f833	and	x16,x13,x22	 x13:0x00000424 x22:0x0000028c x16=0x00000004
       26405000	      2639	80005444	0f224103	lbu	x2,242(x4)	  x4:0x80008267  x2=0x00000000 PA:0x80008359
       26415000	      2640	80005448	03224d03	lbu	x26,50(x4)	  x4:0x80008267 x26=0x00000000 PA:0x80008299
       26425000	      2641	8000544c	08920383	lb	x7,137(x4)	  x4:0x80008267  x7=0x00000000 PA:0x800082f0
       26435000	      2642	00000000	00000013	addi	x0,x0,0	  x0:0x00000000
       26445000	      2643	80005450	007c41b3	xor	x3,x24,x7	 x24:0x80000000  x7:0x00000000  x3=0x80000000
       26455000	      2644	80005454	f7c20623	sb	x28,-148(x4)	  x4:0x80008267 x28:0x00000000 PA:0x800081d3
       26465000	      2645	80005458	00003897	auipc	x17,0x3	 x17=0x80008454
       26475000	      2646	8000545c	1b488893	addi	x17,x17,436	 x17:0x80008454 x17=0x80008608
       26485000	      2647	80005460	003b3933	sltu	x18,x22,x3	 x22:0x0000028c  x3:0x80000000 x18=0x00000001
       26495000	      2648	80005464	00289d03	lh	x26,2(x17)	 x17:0x80008608 x26=0x00000000 PA:0x8000860a
       26505000	      2649	80005468	5a545097	auipc	x1,0x5a545	  x1=0xda54a464
       26515000	      2650	8000546c	00988103	lb	x2,9(x17)	 x17:0x80008608  x2=0x00000000 PA:0x80008611
       26525000	      2651	80005470	ff08c083	lbu	x1,-16(x17)	 x17:0x80008608  x1=0x00000000 PA:0x800085f8
       26535000	      2652	80005474	01463b33	sltu	x22,x12,x20	 x12:0x7fff7d99 x20:0x8000077f x22=0x00000001
       26545000	      2653	80005478	01ed55b3	srl	x11,x26,x30	 x26:0x00000000 x30:0x00000000 x11=0x00000000
       26555000	      2654	8000547c	4053d5b3	sra	x11,x7,x5	  x7:0x00000000  x5:0x80005b81 x11=0x00000000
       26565000	      2655	80005480	405bdf93	srai	x31,x23,0x5	 x23:0xdcc98438 x31=0xfee64c21
       26575000	      2656	80005484	fe288ea3	sb	x2,-3(x17)	 x17:0x80008608  x2:0x00000000 PA:0x80008605
       26585000	      2657	80005488	5777a813	slti	x16,x15,1399	 x15:0x00000000 x16=0x00000001
       26595000	      2658	8000548c	41a8dd33	sra	x26,x17,x26	 x17:0x80008608 x26:0x00000000 x26=0x80008608
       26605000	      2659	80005490	00b8cd83	lbu	x27,11(x17)	 x17:0x80008608 x27=0x00000000 PA:0x80008613
       26615000	      2660	00000000	00000013	addi	x0,x0,0	  x0:0x00000000
       26625000	      2661	80005494	406ddb93	srai	x23,x27,0x6	 x27:0x00000000 x23=0x00000000
       26635000	      2662	80005498	fe188923	sb	x1,-14(x17)	 x17:0x80008608  x1:0x00000000 PA:0x800085fa
       26645000	      2663	8000549c	ff78c303	lbu	x6,-9(x17)	 x17:0x80008608  x6=0x0000009f PA:0x800085ff
       26655000	      2664	00000000	00000013	addi	x0,x0,0	  x0:0x00000000
       26665000	      2665	800054a0	00689583	lh	x11,6(x17)	 x17:0x80008608 x11=0x00000000 PA:0x8000860e
       26675000	      2666	800054a4	01b45813	srli	x16,x8,0x1b	  x8:0xffff7ef3 x16=0x0000001f
       26685000	      2667	800054a8	445e3e93	sltiu	x29,x28,1093	 x28:0x00000000 x29=0x00000001
       26695000	      2668	800054ac	73aaba93	sltiu	x21,x21,1850	 x21:0xb67abde3 x21=0x00000000
       26705000	      2669	800054b0	4180d6b3	sra	x13,x1,x24	  x1:0x00000000 x24:0x80000000 x13=0x00000000
       26715000	      2670	800054b4	f8feb3b7	lui	x7,0xf8feb	  x7=0xf8feb000
       26725000	      2671	800054b8	018789b3	add	x19,x15,x24	 x15:0x00000000 x24:0x80000000 x19=0x80000000
       26735000	      2672	800054bc	ff989b23	sh	x25,-10(x17)	 x17:0x80008608 x25:0x80009fc4 PA:0x800085fe
       26745000	      2673	800054c0	007b27b3	slt	x15,x22,x7	 x22:0x00000001  x7:0xf8feb000 x15=0x00000000
       26755000	      2674	800054c4	00b887a3	sb	x11,15(x17)	 x17:0x80008608 x11:0x00000000 PA:0x80008617
       26765000	      2675	800054c8	015881a3	sb	x21,3(x17)	 x17:0x80008608 x21:0x00000000 PA:0x8000860b
       26775000	      2676	800054cc	00d88e83	lb	x29,13(x17)	 x17:0x80008608 x29=0x00000000 PA:0x80008615
       26785000	      2677	00000000	00000013	addi	x0,x0,0	  x0:0x00000000
       26795000	      2678	800054d0	01d93eb3	sltu	x29,x18,x29	 x18:0x00000001 x29:0x00000000 x29=0x00000000
       26805000	      2679	800054d4	fee88923	sb	x14,-14(x17)	 x17:0x80008608 x14:0x80009e98 PA:0x800085fa
       26815000	      2680	800054d8	41a6d213	srai	x4,x13,0x1a	 x13:0x00000000  x4=0x00000000
       26825000	      2681	800054dc	00e89503	lh	x10,14(x17)	 x17:0x80008608 x10=0x00000000 PA:0x80008616
       26835000	      2682	800054e0	ffe89a83	lh	x21,-2(x17)	 x17:0x80008608 x21=0x00000000 PA:0x80008606
       26845000	      2683	800054e4	a71d3113	sltiu	x2,x26,-1423	 x26:0x80008608  x2=0x00000001
       26855000	      2684	800054e8	0058cd03	lbu	x26,5(x17)	 x17:0x80008608 x26=0x00000000 PA:0x8000860d
       26865000	      2685	800054ec	acc49b17	auipc	x22,0xacc49	 x22=0x2cc4e4e8
       26875000	      2686	800054f0	01a882a3	sb	x26,5(x17)	 x17:0x80008608 x26:0x00000000 PA:0x8000860d
       26885000	      2687	800054f4	40b9de13	srai	x28,x19,0xb	 x19:0x80000000 x28=0xfff00000
       26895000	      2688	800054f8	00609a93	slli	x21,x1,0x6	  x1:0x00000000 x21=0x00000000
       26905000	      2689	800054fc	ff28cb83	lbu	x23,-14(x17)	 x17:0x80008608 x23=0x00000098 PA:0x800085fa
       26915000	      2690	80005500	01276db3	or	x27,x14,x18	 x14:0x80009e98 x18:0x00000001 x27=0x80009e99
       26925000	      2691	80005504	01b75a13	srli	x20,x14,0x1b	 x14:0x80009e98 x20=0x00000010
       26935000	      2692	80005508	ff58c383	lbu	x7,-11(x17)	 x17:0x80008608  x7=0x00000000 PA:0x800085fd
       26945000	      2693	8000550c	ff18cd83	lbu	x27,-15(x17)	 x17:0x80008608 x27=0x00000000 PA:0x800085f9
       26955000	      2694	80005510	00000013	addi	x0,x0,0	  x0:0x00000000
       26965000	      2695	80005514	00788f83	lb	x31,7(x17)	 x17:0x80008608 x31=0x00000000 PA:0x8000860f
       26975000	      2696	80005518	ff288ca3	sb	x18,-7(x17)	 x17:0x80008608 x18:0x00000001 PA:0x80008601
       26985000	      2697	8000551c	41e509b3	sub	x19,x10,x30	 x10:0x00000000 x30:0x00000000 x19=0x00000000
       26995000	      2698	80005520	007509b3	add	x19,x10,x7	 x10:0x00000000  x7:0x00000000 x19=0x00000000
       27005000	      2699	80005524	402fdfb3	sra	x31,x31,x2	 x31:0x00000000  x2:0x00000001 x31=0x00000000
       27015000	      2700	80005528	00e8c683	lbu	x13,14(x17)	 x17:0x80008608 x13=0x00000000 PA:0x80008616
       27025000	      2701	8000552c	00003817	auipc	x16,0x3	 x16=0x80008528
       27035000	      2702	80005530	bd680813	addi	x16,x16,-1066	 x16:0x80008528 x16=0x800080fe
       27045000	      2703	80005534	0f881583	lh	x11,248(x16)	 x16:0x800080fe x11=0x00000000 PA:0x800081f6
       27055000	      2704	80005538	0d784d83	lbu	x27,215(x16)	 x16:0x800080fe x27=0x00000000 PA:0x800081d5
       27065000	      2705	8000553c	06981e23	sh	x9,124(x16)	 x16:0x800080fe  x9:0x00000001 PA:0x8000817a
       27075000	      2706	80005540	005728b3	slt	x17,x14,x5	 x14:0x80009e98  x5:0x80005b81 x17=0x00000000
       27085000	      2707	80005544	0da808a3	sb	x26,209(x16)	 x16:0x800080fe x26:0x00000000 PA:0x800081cf
       27095000	      2708	80005548	7c593113	sltiu	x2,x18,1989	 x18:0x00000001  x2=0x00000001
       27105000	      2709	8000554c	00f816b3	sll	x13,x16,x15	 x16:0x800080fe x15:0x00000000 x13=0x800080fe
       27115000	      2710	80005550	fc284383	lbu	x7,-62(x16)	 x16:0x800080fe  x7=0x00000000 PA:0x800080c0
       27125000	      2711	80005554	f74801a3	sb	x20,-157(x16)	 x16:0x800080fe x20:0x00000010 PA:0x80008061
       27135000	      2712	80005558	6acace13	xori	x28,x21,1708	 x21:0x00000000 x28=0x000006ac
       27145000	      2713	8000555c	f6f81e23	sh	x15,-132(x16)	 x16:0x800080fe x15:0x00000000 PA:0x8000807a
       27155000	      2714	80005560	413b5993	srai	x19,x22,0x13	 x22:0x2cc4e4e8 x19=0x00000598
       27165000	      2715	80005564	0e882123	sw	x8,226(x16)	 x16:0x800080fe  x8:0xffff7ef3 PA:0x800081e0
       27175000	      2716	80005568	0105d413	srli	x8,x11,0x10	 x11:0x00000000  x8=0x00000000
       27185000	      2717	8000556c	00000013	addi	x0,x0,0	  x0:0x00000000
       27195000	      2718	80005570	fb380503	lb	x10,-77(x16)	 x16:0x800080fe x10=0x00000000 PA:0x800080b1
       27205000	      2719	80005574	00fb50b3	srl	x1,x22,x15	 x22:0x2cc4e4e8 x15:0x00000000  x1=0x2cc4e4e8
       27215000	      2720	80005578	03282003	lw	x0,50(x16)	 x16:0x800080fe PA:0x80008130
       27225000	      2721	8000557c	41c2d293	srai	x5,x5,0x1c	  x5:0x80005b81  x5=0xfffffff8
       27235000	      2722	80005580	0e380ea3	sb	x3,253(x16)	 x16:0x800080fe  x3:0x80000000 PA:0x800081fb
       27245000	      2723	80005584	40a0d893	srai	x17,x1,0xa	  x1:0x2cc4e4e8 x17=0x000b3139
       27255000	      2724	80005588	055806a3	sb	x21,77(x16)	 x16:0x800080fe x21:0x00000000 PA:0x8000814b
       27265000	      2725	8000558c	00003117	auipc	x2,0x3	  x2=0x80008588
       27275000	      2726	80005590	20d10113	addi	x2,x2,525	  x2:0x80008588  x2=0x80008795
       27285000	      2727	80005594	409f5d93	srai	x27,x30,0x9	 x30:0x00000000 x27=0x00000000
       27295000	      2728	80005598	00310023	sb	x3,0(x2)	  x2:0x80008795  x3:0x80000000 PA:0x80008795
       27305000	      2729	8000559c	548e6b97	auipc	x23,0x548e6	 x23=0xd48eb598
       27315000	      2730	800055a0	0184d7b3	srl	x15,x9,x24	  x9:0x00000001 x24:0x80000000 x15=0x00000001
       27325000	      2731	800055a4	ff711003	lh	x0,-9(x2)	  x2:0x80008795 PA:0x8000878c
       27335000	      2732	800055a8	016be333	or	x6,x23,x22	 x23:0xd48eb598 x22:0x2cc4e4e8  x6=0xfccef5f8
       27345000	      2733	800055ac	00e41d13	slli	x26,x8,0xe	  x8:0x00000000 x26=0x00000000
       27355000	      2734	800055b0	00010403	lb	x8,0(x2)	  x2:0x80008795  x8=0x00000000 PA:0x80008795
       27365000	      2735	800055b4	41e6d9b3	sra	x19,x13,x30	 x13:0x800080fe x30:0x00000000 x19=0x800080fe
       27375000	      2736	800055b8	00e10a83	lb	x21,14(x2)	  x2:0x80008795 x21=0xffffffda PA:0x800087a3
       27385000	      2737	800055bc	c721ed13	ori	x26,x3,-910	  x3:0x80000000 x26=0xfffffc72
       27395000	      2738	800055c0	997cb417	auipc	x8,0x997cb	  x8=0x197d05bc
       27405000	      2739	800055c4	00a10783	lb	x15,10(x2)	  x2:0x80008795 x15=0x00000000 PA:0x8000879f
       27415000	      2740	800055c8	01f25033	srl	x0,x4,x31	  x4:0x00000000 x31:0x00000000
       27425000	      2741	800055cc	00d9bab3	sltu	x21,x19,x13	 x19:0x800080fe x13:0x800080fe x21=0x00000000
       27435000	      2742	800055d0	fef10e23	sb	x15,-4(x2)	  x2:0x80008795 x15:0x00000000 PA:0x80008791
       27445000	      2743	800055d4	00b10983	lb	x19,11(x2)	  x2:0x80008795 x19=0x00000000 PA:0x800087a0
       27455000	      2744	800055d8	ffa14883	lbu	x17,-6(x2)	  x2:0x80008795 x17=0x00000000 PA:0x8000878f
       27465000	      2745	800055dc	ffd15183	lhu	x3,-3(x2)	  x2:0x80008795  x3=0x00000000 PA:0x80008792
       27475000	      2746	800055e0	0139d013	srli	x0,x19,0x13	 x19:0x00000000
       27485000	      2747	800055e4	00810a03	lb	x20,8(x2)	  x2:0x80008795 x20=0x00000000 PA:0x8000879d
       27495000	      2748	800055e8	01cadf13	srli	x30,x21,0x1c	 x21:0x00000000 x30=0x00000000
       27505000	      2749	800055ec	00ced7b3	srl	x15,x29,x12	 x29:0x00000000 x12:0x7fff7d99 x15=0x00000000
       27515000	      2750	800055f0	00110223	sb	x1,4(x2)	  x2:0x80008795  x1:0x2cc4e4e8 PA:0x80008799
       27525000	      2751	800055f4	ff910e03	lb	x28,-7(x2)	  x2:0x80008795 x28=0x00000000 PA:0x8000878e
       27535000	      2752	800055f8	015116a3	sh	x21,13(x2)	  x2:0x80008795 x21:0x00000000 PA:0x800087a2
       27545000	      2753	800055fc	22828213	addi	x4,x5,552	  x5:0xfffffff8  x4=0x00000220
       27555000	      2754	80005600	00b10d83	lb	x27,11(x2)	  x2:0x80008795 x27=0x00000000 PA:0x800087a0
       27565000	      2755	80005604	014ac833	xor	x16,x21,x20	 x21:0x00000000 x20:0x00000000 x16=0x00000000
       27575000	      2756	80005608	0186fa33	and	x20,x13,x24	 x13:0x800080fe x24:0x80000000 x20=0x80000000
       27585000	      2757	8000560c	c5f98313	addi	x6,x19,-929	 x19:0x00000000  x6=0xfffffc5f
       27595000	      2758	80005610	01e824b3	slt	x9,x16,x30	 x16:0x00000000 x30:0x00000000  x9=0x00000000
       27605000	      2759	80005614	00d4bdb3	sltu	x27,x9,x13	  x9:0x00000000 x13:0x800080fe x27=0x00000001
       27615000	      2760	80005618	00210683	lb	x13,2(x2)	  x2:0x80008795 x13=0x0000004e PA:0x80008797
       27625000	      2761	8000561c	315a7d13	andi	x26,x20,789	 x20:0x80000000 x26=0x00000000
       27635000	      2762	80005620	b3763b93	sltiu	x23,x12,-1225	 x12:0x7fff7d99 x23=0x00000001
       27645000	      2763	80005624	00000013	addi	x0,x0,0	  x0:0x00000000
       27655000	      2764	80005628	3d71b093	sltiu	x1,x3,983	  x3:0x00000000  x1=0x00000001
       27665000	      2765	8000562c	db334513	xori	x10,x6,-589	  x6:0xfffffc5f x10=0x000001ec
       27675000	      2766	80005630	8e3f5817	auipc	x16,0x8e3f5	 x16=0x0e3fa62c
       27685000	      2767	80005634	81354d93	xori	x27,x10,-2029	 x10:0x000001ec x27=0xfffff9ff
       27695000	      2768	80005638	01333933	sltu	x18,x6,x19	  x6:0xfffffc5f x19:0x00000000 x18=0x00000000
       27705000	      2769	8000563c	c2fe2f93	slti	x31,x28,-977	 x28:0x00000000 x31=0x00000000
       27715000	      2770	80005640	40268233	sub	x4,x13,x2	 x13:0x0000004e  x2:0x80008795  x4=0x7fff78b9
       27725000	      2771	80005644	95e5ab93	slti	x23,x11,-1698	 x11:0x00000000 x23=0x00000000
       27735000	      2772	80005648	ff110a23	sb	x17,-12(x2)	  x2:0x80008795 x17:0x00000000 PA:0x80008789
       27745000	      2773	8000564c	00003117	auipc	x2,0x3	  x2=0x80008648
       27755000	      2774	80005650	f9d10113	addi	x2,x2,-99	  x2:0x80008648  x2=0x800085e5
       27765000	      2775	80005654	b7b87897	auipc	x17,0xb7b87	 x17=0x37b8c650
       27775000	      2776	80005658	835e02b7	lui	x5,0x835e0	  x5=0x835e0000
       27785000	      2777	8000565c	16d14403	lbu	x8,365(x2)	  x2:0x800085e5  x8=0x00000000 PA:0x80008752
       27795000	      2778	80005660	011c2533	slt	x10,x24,x17	 x24:0x80000000 x17:0x37b8c650 x10=0x00000001
       27805000	      2779	80005664	ef167013	andi	x0,x12,-271	 x12:0x7fff7d99
       27815000	      2780	80005668	ede14603	lbu	x12,-290(x2)	  x2:0x800085e5 x12=0x00000000 PA:0x800084c3
       27825000	      2781	8000566c	4039ddb3	sra	x27,x19,x3	 x19:0x00000000  x3:0x00000000 x27=0x00000000
       27835000	      2782	80005670	e4384493	xori	x9,x16,-445	 x16:0x0e3fa62c  x9=0xf1c0586f
       27845000	      2783	80005674	23210a03	lb	x20,562(x2)	  x2:0x800085e5 x20=0x00000000 PA:0x80008817
       27855000	      2784	80005678	ef114983	lbu	x19,-271(x2)	  x2:0x800085e5 x19=0x00000000 PA:0x800084d6
       27865000	      2785	8000567c	008ff233	and	x4,x31,x8	 x31:0x00000000  x8:0x00000000  x4=0x00000000
       27875000	      2786	80005680	22610b83	lb	x23,550(x2)	  x2:0x800085e5 x23=0x00000000 PA:0x8000880b
       27885000	      2787	00000000	00000013	addi	x0,x0,0	  x0:0x00000000
       27895000	      2788	80005684	164bf093	andi	x1,x23,356	 x23:0x00000000  x1=0x00000000
       27905000	      2789	80005688	cc014603	lbu	x12,-832(x2)	  x2:0x800085e5 x12=0x00000000 PA:0x800082a5
       27915000	      2790	8000568c	cc284813	xori	x16,x16,-830	 x16:0x0e3fa62c x16=0xf1c05aee
       27925000	      2791	80005690	004e1b93	slli	x23,x28,0x4	 x28:0x00000000 x23=0x00000000
       27935000	      2792	80005694	b341eab7	lui	x21,0xb341e	 x21=0xb341e000
       27945000	      2793	80005698	03f10123	sb	x31,34(x2)	  x2:0x800085e5 x31:0x00000000 PA:0x80008607
       27955000	      2794	8000569c	e0d58b93	addi	x23,x11,-499	 x11:0x00000000 x23=0xfffffe0d
       27965000	      2795	800056a0	007a50b3	srl	x1,x20,x7	 x20:0x00000000  x7:0x00000000  x1=0x00000000
       27975000	      2796	800056a4	05e72b17	auipc	x22,0x5e72	 x22=0x85e776a0
       27985000	      2797	800056a8	418553b3	sra	x7,x10,x24	 x10:0x00000001 x24:0x80000000  x7=0x00000001
       27995000	      2798	800056ac	2c1f4013	xori	x0,x30,705	 x30:0x00000000
       28005000	      2799	800056b0	b7d11983	lh	x19,-1155(x2)	  x2:0x800085e5 x19=0x00000000 PA:0x80008162
       28015000	      2800	800056b4	0086a933	slt	x18,x13,x8	 x13:0x0000004e  x8:0x00000000 x18=0x00000000
       28025000	      2801	800056b8	41ecdd33	sra	x26,x25,x30	 x25:0x80009fc4 x30:0x00000000 x26=0x80009fc4
       28035000	      2802	800056bc	0104ef33	or	x30,x9,x16	  x9:0xf1c0586f x16:0xf1c05aee x30=0xf1c05aef
       28045000	      2803	800056c0	00000013	addi	x0,x0,0	  x0:0x00000000
       28055000	      2804	800056c4	003a3033	sltu	x0,x20,x3	 x20:0x00000000  x3:0x00000000
       28065000	      2805	800056c8	00b15e33	srl	x28,x2,x11	  x2:0x800085e5 x11:0x00000000 x28=0x800085e5
       28075000	      2806	800056cc	e3d11383	lh	x7,-451(x2)	  x2:0x800085e5  x7=0x00000000 PA:0x80008422
       28085000	      2807	800056d0	6ec1c413	xori	x8,x3,1772	  x3:0x00000000  x8=0x000006ec
       28095000	      2808	800056d4	01ea3333	sltu	x6,x20,x30	 x20:0x00000000 x30:0xf1c05aef  x6=0x00000001
       28105000	      2809	800056d8	59595297	auipc	x5,0x59595	  x5=0xd959a6d4
       28115000	      2810	800056dc	f5058913	addi	x18,x11,-176	 x11:0x00000000 x18=0xffffff50
       28125000	      2811	800056e0	412a55b3	sra	x11,x20,x18	 x20:0x00000000 x18:0xffffff50 x11=0x00000000
       28135000	      2812	800056e4	412f59b3	sra	x19,x30,x18	 x30:0xf1c05aef x18:0xffffff50 x19=0xfffff1c0
       28145000	      2813	800056e8	0f810803	lb	x16,248(x2)	  x2:0x800085e5 x16=0x00000000 PA:0x800086dd
       28155000	      2814	800056ec	f240c393	xori	x7,x1,-220	  x1:0x00000000  x7=0xffffff24
       28165000	      2815	800056f0	c9915d83	lhu	x27,-871(x2)	  x2:0x800085e5 x27=0x00000000 PA:0x8000827e
       28175000	      2816	800056f4	cc9c3813	sltiu	x16,x24,-823	 x24:0x80000000 x16=0x00000001
       28185000	      2817	800056f8	aae10da3	sb	x14,-1349(x2)	  x2:0x800085e5 x14:0x80009e98 PA:0x800080a0
       28195000	      2818	800056fc	00003117	auipc	x2,0x3	  x2=0x800086f8
       28205000	      2819	80005700	6d210113	addi	x2,x2,1746	  x2:0x800086f8  x2=0x80008dca
       28215000	      2820	80005704	fea10b83	lb	x23,-22(x2)	  x2:0x80008dca x23=0x00000000 PA:0x80008db4
       28225000	      2821	80005708	fb2a0537	lui	x10,0xfb2a0	 x10=0xfb2a0000
       28235000	      2822	8000570c	a578e413	ori	x8,x17,-1449	 x17:0x37b8c650  x8=0xfffffe57
       28245000	      2823	80005710	02810d83	lb	x27,40(x2)	  x2:0x80008dca x27=0x00000000 PA:0x80008df2
       28255000	      2824	80005714	d51e3f93	sltiu	x31,x28,-687	 x28:0x800085e5 x31=0x00000001
       28265000	      2825	80005718	08611583	lh	x11,134(x2)	  x2:0x80008dca x11=0x00000000 PA:0x80008e50
       28275000	      2826	8000571c	01410aa3	sb	x20,21(x2)	  x2:0x80008dca x20:0x00000000 PA:0x80008ddf
       28285000	      2827	80005720	f9914b83	lbu	x23,-103(x2)	  x2:0x80008dca x23=0x00000000 PA:0x80008d63
       28295000	      2828	80005724	0022af33	slt	x30,x5,x2	  x5:0xd959a6d4  x2:0x80008dca x30=0x00000000
       28305000	      2829	80005728	408cd013	srai	x0,x25,0x8	 x25:0x80009fc4
       28315000	      2830	8000572c	403d5e33	sra	x28,x26,x3	 x26:0x80009fc4  x3:0x00000000 x28=0x80009fc4
       28325000	      2831	80005730	438b3517	auipc	x10,0x438b3	 x10=0xc38b872c
       28335000	      2832	80005734	4023d833	sra	x16,x7,x2	  x7:0xffffff24  x2:0x80008dca x16=0xffffffff
       28345000	      2833	80005738	f6511023	sh	x5,-160(x2)	  x2:0x80008dca  x5:0xd959a6d4 PA:0x80008d2a
       28355000	      2834	8000573c	f1d14b03	lbu	x22,-227(x2)	  x2:0x80008dca x22=0x00000000 PA:0x80008ce7
       28365000	      2835	80005740	01e2b9b3	sltu	x19,x5,x30	  x5:0xd959a6d4 x30:0x00000000 x19=0x00000000
       28375000	      2836	80005744	f9b10e23	sb	x27,-100(x2)	  x2:0x80008dca x27:0x00000000 PA:0x80008d66
       28385000	      2837	80005748	f8f14083	lbu	x1,-113(x2)	  x2:0x80008dca  x1=0x00000000 PA:0x80008d59
       28395000	      2838	8000574c	0b615803	lhu	x16,182(x2)	  x2:0x80008dca x16=0x00000000 PA:0x80008e80
       28405000	      2839	80005750	e67d4393	xori	x7,x26,-409	 x26:0x80009fc4  x7=0x7fff61a3
       28415000	      2840	80005754	f04105a3	sb	x4,-245(x2)	  x2:0x80008dca  x4:0x00000000 PA:0x80008cd5
       28425000	      2841	80005758	ff010e03	lb	x28,-16(x2)	  x2:0x80008dca x28=0x00000000 PA:0x80008dba
       28435000	      2842	8000575c	0b610e23	sb	x22,188(x2)	  x2:0x80008dca x22:0x00000000 PA:0x80008e86
       28445000	      2843	80005760	000626b3	slt	x13,x12,x0	 x12:0x00000000  x0:0x00000000 x13=0x00000000
       28455000	      2844	80005764	fc810383	lb	x7,-56(x2)	  x2:0x80008dca  x7=0x00000000 PA:0x80008d92
       28465000	      2845	80005768	00b764b3	or	x9,x14,x11	 x14:0x80009e98 x11:0x00000000  x9=0x80009e98
       28475000	      2846	8000576c	faf10d83	lb	x27,-81(x2)	  x2:0x80008dca x27=0x00000000 PA:0x80008d79
       28485000	      2847	80005770	012ada33	srl	x20,x21,x18	 x21:0xb341e000 x18:0xffffff50 x20=0x0000b341
       28495000	      2848	80005774	dd8de817	auipc	x16,0xdd8de	 x16=0x5d8e3770
       28505000	      2849	80005778	07d14483	lbu	x9,125(x2)	  x2:0x80008dca  x9=0x00000000 PA:0x80008e47
       28515000	      2850	8000577c	01714403	lbu	x8,23(x2)	  x2:0x80008dca  x8=0x00000000 PA:0x80008de1
       28525000	      2851	80005780	0ed14303	lbu	x6,237(x2)	  x2:0x80008dca  x6=0x00000000 PA:0x80008eb7
       28535000	      2852	80005784	09f53493	sltiu	x9,x10,159	 x10:0xc38b872c  x9=0x00000000
       28545000	      2853	80005788	1e254d93	xori	x27,x10,482	 x10:0xc38b872c x27=0xc38b86ce
       28555000	      2854	8000578c	f0212d03	lw	x26,-254(x2)	  x2:0x80008dca x26=0x00000000 PA:0x80008ccc
       28565000	      2855	80005790	02714683	lbu	x13,39(x2)	  x2:0x80008dca x13=0x00000000 PA:0x80008df1
       28575000	      2856	80005794	413ede33	sra	x28,x29,x19	 x29:0x00000000 x19:0x00000000 x28=0x00000000
       28585000	      2857	80005798	fc1109a3	sb	x1,-45(x2)	  x2:0x80008dca  x1:0x00000000 PA:0x80008d9d
       28595000	      2858	8000579c	f1210a03	lb	x20,-238(x2)	  x2:0x80008dca x20=0x00000000 PA:0x80008cdc
       28605000	      2859	800057a0	00000013	addi	x0,x0,0	  x0:0x00000000
       28615000	      2860	800057a4	004712b3	sll	x5,x14,x4	 x14:0x80009e98  x4:0x00000000  x5=0x80009e98
       28625000	      2861	800057a8	9362a597	auipc	x11,0x9362a	 x11=0x1362f7a4
       28635000	      2862	800057ac	03011f83	lh	x31,48(x2)	  x2:0x80008dca x31=0x00000000 PA:0x80008dfa
       28645000	      2863	800057b0	01910283	lb	x5,25(x2)	  x2:0x80008dca  x5=0x00000000 PA:0x80008de3
       28655000	      2864	800057b4	05e15a03	lhu	x20,94(x2)	  x2:0x80008dca x20=0x00000000 PA:0x80008e28
       28665000	      2865	800057b8	91542f13	slti	x30,x8,-1771	  x8:0x00000000 x30=0x00000000
       28675000	      2866	800057bc	007a04b3	add	x9,x20,x7	 x20:0x00000000  x7:0x00000000  x9=0x00000000
       28685000	      2867	800057c0	f48108a3	sb	x8,-175(x2)	  x2:0x80008dca  x8:0x00000000 PA:0x80008d1b
       28695000	      2868	800057c4	00311123	sh	x3,2(x2)	  x2:0x80008dca  x3:0x00000000 PA:0x80008dcc
       28705000	      2869	800057c8	0ae15283	lhu	x5,174(x2)	  x2:0x80008dca  x5=0x00000000 PA:0x80008e78
       28715000	      2870	800057cc	00003497	auipc	x9,0x3	  x9=0x800087c8
       28725000	      2871	800057d0	e8048493	addi	x9,x9,-384	  x9:0x800087c8  x9=0x80008648
       28735000	      2872	800057d4	fd04cb83	lbu	x23,-48(x9)	  x9:0x80008648 x23=0x00000000 PA:0x80008618
       28745000	      2873	800057d8	010880b3	add	x1,x17,x16	 x17:0x37b8c650 x16:0x5d8e3770  x1=0x9546fdc0
       28755000	      2874	800057dc	00f093b3	sll	x7,x1,x15	  x1:0x9546fdc0 x15:0x00000000  x7=0x9546fdc0
       28765000	      2875	800057e0	fc848903	lb	x18,-56(x9)	  x9:0x80008648 x18=0x00000000 PA:0x80008610
       28775000	      2876	800057e4	08c49123	sh	x12,130(x9)	  x9:0x80008648 x12:0x00000000 PA:0x800086ca
       28785000	      2877	800057e8	01fe56b3	srl	x13,x28,x31	 x28:0x00000000 x31:0x00000000 x13=0x00000000
       28795000	      2878	800057ec	f8049023	sh	x0,-128(x9)	  x9:0x80008648  x0:0x00000000 PA:0x800085c8
       28805000	      2879	800057f0	08948383	lb	x7,137(x9)	  x9:0x80008648  x7=0x00000000 PA:0x800086d1
       28815000	      2880	800057f4	019b16b3	sll	x13,x22,x25	 x22:0x00000000 x25:0x80009fc4 x13=0x00000000
       28825000	      2881	800057f8	00dd08b3	add	x17,x26,x13	 x26:0x00000000 x13:0x00000000 x17=0x00000000
       28835000	      2882	800057fc	3b7d0693	addi	x13,x26,951	 x26:0x00000000 x13=0x000003b7
       28845000	      2883	80005800	6ce68813	addi	x16,x13,1742	 x13:0x000003b7 x16=0x00000a85
       28855000	      2884	80005804	00e91b13	slli	x22,x18,0xe	 x18:0x00000000 x22=0x00000000
       28865000	      2885	80005808	f234c383	lbu	x7,-221(x9)	  x9:0x80008648  x7=0x00000000 PA:0x8000856b
       28875000	      2886	8000580c	405f5333	sra	x6,x30,x5	 x30:0x00000000  x5:0x00000000  x6=0x00000000
       28885000	      2887	80005810	d5a08697	auipc	x13,0xd5a08	 x13=0x55a0d80c
       28895000	      2888	80005814	2f620313	addi	x6,x4,758	  x4:0x00000000  x6=0x000002f6
       28905000	      2889	80005818	406155b3	sra	x11,x2,x6	  x2:0x80008dca  x6:0x000002f6 x11=0xfffffe00
       28915000	      2890	8000581c	f334c603	lbu	x12,-205(x9)	  x9:0x80008648 x12=0x00000000 PA:0x8000857b
       28925000	      2891	80005820	0f9480a3	sb	x25,225(x9)	  x9:0x80008648 x25:0x80009fc4 PA:0x80008729
       28935000	      2892	80005824	a9f8cf13	xori	x30,x17,-1377	 x17:0x00000000 x30=0xfffffa9f
       28945000	      2893	80005828	f9b48503	lb	x10,-101(x9)	  x9:0x80008648 x10=0x00000000 PA:0x800085e3
       28955000	      2894	8000582c	70632213	slti	x4,x6,1798	  x6:0x000002f6  x4=0x00000001
       28965000	      2895	80005830	01e19e33	sll	x28,x3,x30	  x3:0x00000000 x30:0xfffffa9f x28=0x00000000
       28975000	      2896	80005834	00451133	sll	x2,x10,x4	 x10:0x00000000  x4:0x00000001  x2=0x00000000
       28985000	      2897	80005838	9f760f93	addi	x31,x12,-1545	 x12:0x00000000 x31=0xfffff9f7
       28995000	      2898	8000583c	03548003	lb	x0,53(x9)	  x9:0x80008648 PA:0x8000867d
       29005000	      2899	80005840	018bba33	sltu	x20,x23,x24	 x23:0x00000000 x24:0x80000000 x20=0x00000001
       29015000	      2900	80005844	002d1db3	sll	x27,x26,x2	 x26:0x00000000  x2:0x00000000 x27=0x00000000
       29025000	      2901	80005848	f6f48683	lb	x13,-145(x9)	  x9:0x80008648 x13=0x00000000 PA:0x800085b7
       29035000	      2902	8000584c	0a14c003	lbu	x0,161(x9)	  x9:0x80008648 PA:0x800086e9
       29045000	      2903	80005850	9ead7793	andi	x15,x26,-1558	 x26:0x00000000 x15=0x00000000
       29055000	      2904	80005854	a6724993	xori	x19,x4,-1433	  x4:0x00000001 x19=0xfffffa66
       29065000	      2905	80005858	408a5db3	sra	x27,x20,x8	 x20:0x00000001  x8:0x00000000 x27=0x00000001
       29075000	      2906	8000585c	01e41133	sll	x2,x8,x30	  x8:0x00000000 x30:0xfffffa9f  x2=0x00000000
       29085000	      2907	80005860	002419b3	sll	x19,x8,x2	  x8:0x00000000  x2:0x00000000 x19=0x00000000
       29095000	      2908	80005864	2960e293	ori	x5,x1,662	  x1:0x9546fdc0  x5=0x9546ffd6
       29105000	      2909	80005868	00210fb3	add	x31,x2,x2	  x2:0x00000000  x2:0x00000000 x31=0x00000000
       29115000	      2910	8000586c	02d48303	lb	x6,45(x9)	  x9:0x80008648  x6=0x00000000 PA:0x80008675
       29125000	      2911	80005870	01f669b3	or	x19,x12,x31	 x12:0x00000000 x31:0x00000000 x19=0x00000000
       29135000	      2912	80005874	00a41633	sll	x12,x8,x10	  x8:0x00000000 x10:0x00000000 x12=0x00000000
       29145000	      2913	80005878	0244cd83	lbu	x27,36(x9)	  x9:0x80008648 x27=0x00000000 PA:0x8000866c
       29155000	      2914	8000587c	411257b3	sra	x15,x4,x17	  x4:0x00000001 x17:0x00000000 x15=0x00000001
       29165000	      2915	80005880	015446b3	xor	x13,x8,x21	  x8:0x00000000 x21:0xb341e000 x13=0xb341e000
       29175000	      2916	80005884	415cd013	srai	x0,x25,0x15	 x25:0x80009fc4
       29185000	      2917	80005888	fbe0f993	andi	x19,x1,-66	  x1:0x9546fdc0 x19=0x9546fd80
       29195000	      2918	8000588c	2efabd13	sltiu	x26,x21,751	 x21:0xb341e000 x26=0x00000000
       29205000	      2919	80005890	00c35f93	srli	x31,x6,0xc	  x6:0x00000000 x31=0x00000000
       29215000	      2920	80005894	e7def897	auipc	x17,0xe7def	 x17=0x67df4890
       29225000	      2921	80005898	03cd9c63	bne	x27,x28,800058d0	 x27:0x00000000 x28:0x00000000
       29235000	      2922	8000589c	414581b3	sub	x3,x11,x20	 x11:0xfffffe00 x20:0x00000001  x3=0xfffffdff
       29245000	      2923	800058a0	80754313	xori	x6,x10,-2041	 x10:0x00000000  x6=0xfffff807
       29255000	      2924	800058a4	00336a63	bltu	x6,x3,800058b8	  x6:0xfffff807  x3:0xfffffdff
       29265000	      2925	00000000	00000013	addi	x0,x0,0	  x0:0x00000000
       29275000	      2926	800058b4	00000013	addi	x0,x0,0	  x0:0x00000000
       29285000	      2927	800058b8	ac0d2313	slti	x6,x26,-1344	 x26:0x00000000  x6=0x00000000
       29295000	      2928	800058bc	04895463	bge	x18,x8,80005904	 x18:0x00000000  x8:0x00000000
       29305000	      2929	00000000	00000013	addi	x0,x0,0	  x0:0x00000000
       29315000	      2930	80005900	00000013	addi	x0,x0,0	  x0:0x00000000
       29325000	      2931	80005904	10af4693	xori	x13,x30,266	 x30:0xfffffa9f x13=0xfffffb95
       29335000	      2932	80005908	8c31a893	slti	x17,x3,-1853	  x3:0xfffffdff x17=0x00000000
       29345000	      2933	8000590c	00ffc9b3	xor	x19,x31,x15	 x31:0x00000000 x15:0x00000001 x19=0x00000001
       29355000	      2934	80005910	01a66463	bltu	x12,x26,80005918	 x12:0x00000000 x26:0x00000000
       29365000	      2935	80005914	41aad613	srai	x12,x21,0x1a	 x21:0xb341e000 x12=0xffffffec
       29375000	      2936	80005918	00000013	addi	x0,x0,0	  x0:0x00000000
       29385000	      2937	8000591c	05331063	bne	x6,x19,8000595c	  x6:0x00000000 x19:0x00000001
       29395000	      2938	00000000	00000013	addi	x0,x0,0	  x0:0x00000000
       29405000	      2939	80005958	00000013	addi	x0,x0,0	  x0:0x00000000
       29415000	      2940	8000595c	0153fa63	bgeu	x7,x21,80005970	  x7:0x00000000 x21:0xb341e000
       29425000	      2941	80005960	14e57493	andi	x9,x10,334	 x10:0x00000000  x9=0x00000000
       29435000	      2942	80005964	04d34463	blt	x6,x13,800059ac	  x6:0x00000000 x13:0xfffffb95
       29445000	      2943	80005968	00815a63	bge	x2,x8,8000597c	  x2:0x00000000  x8:0x00000000
       29455000	      2944	00000000	00000013	addi	x0,x0,0	  x0:0x00000000
       29465000	      2945	80005978	00000013	addi	x0,x0,0	  x0:0x00000000
       29475000	      2946	8000597c	6d040193	addi	x3,x8,1744	  x8:0x00000000  x3=0x000006d0
       29485000	      2947	80005980	00a7c433	xor	x8,x15,x10	 x15:0x00000001 x10:0x00000000  x8=0x00000001
       29495000	      2948	80005984	89a19637	lui	x12,0x89a19	 x12=0x89a19000
       29505000	      2949	80005988	0097c3b3	xor	x7,x15,x9	 x15:0x00000001  x9:0x00000000  x7=0x00000001
       29515000	      2950	8000598c	00c3fdb3	and	x27,x7,x12	  x7:0x00000001 x12:0x89a19000 x27=0x00000000
       29525000	      2951	80005990	00000013	addi	x0,x0,0	  x0:0x00000000
       29535000	      2952	80005994	047ef663	bgeu	x29,x7,800059e0	 x29:0x00000000  x7:0x00000001
       29545000	      2953	80005998	69c4e693	ori	x13,x9,1692	  x9:0x00000000 x13=0x0000069c
       29555000	      2954	8000599c	403c5f33	sra	x30,x24,x3	 x24:0x80000000  x3:0x000006d0 x30=0xffff8000
       29565000	      2955	800059a0	03b51a63	bne	x10,x27,800059d4	 x10:0x00000000 x27:0x00000000
       29575000	      2956	800059a4	41d4d593	srai	x11,x9,0x1d	  x9:0x00000000 x11=0x00000000
       29585000	      2957	800059a8	003a5813	srli	x16,x20,0x3	 x20:0x00000001 x16=0x00000000
       29595000	      2958	800059ac	00f149b3	xor	x19,x2,x15	  x2:0x00000000 x15:0x00000001 x19=0x00000001
       29605000	      2959	800059b0	00020463	beq	x4,x0,800059b8	  x4:0x00000001  x0:0x00000000
       29615000	      2960	800059b4	00d0e1b3	or	x3,x1,x13	  x1:0x9546fdc0 x13:0x0000069c  x3=0x9546ffdc
       29625000	      2961	800059b8	40f28433	sub	x8,x5,x15	  x5:0x9546ffd6 x15:0x00000001  x8=0x9546ffd5
       29635000	      2962	800059bc	007a5b93	srli	x23,x20,0x7	 x20:0x00000001 x23=0x00000000
       29645000	      2963	800059c0	0018e0b3	or	x1,x17,x1	 x17:0x00000000  x1:0x9546fdc0  x1=0x9546fdc0
       29655000	      2964	800059c4	41350333	sub	x6,x10,x19	 x10:0x00000000 x19:0x00000001  x6=0xffffffff
       29665000	      2965	800059c8	605e3093	sltiu	x1,x28,1541	 x28:0x00000000  x1=0x00000001
       29675000	      2966	800059cc	0060c863	blt	x1,x6,800059dc	  x1:0x00000001  x6:0xffffffff
       29685000	      2967	800059d0	00e85a33	srl	x20,x16,x14	 x16:0x00000000 x14:0x80009e98 x20=0x00000000
       29695000	      2968	800059d4	01920a33	add	x20,x4,x25	  x4:0x00000001 x25:0x80009fc4 x20=0x80009fc5
       29705000	      2969	800059d8	41375993	srai	x19,x14,0x13	 x14:0x80009e98 x19=0xfffff000
       29715000	      2970	800059dc	941fad13	slti	x26,x31,-1727	 x31:0x00000000 x26=0x00000000
       29725000	      2971	800059e0	006249b3	xor	x19,x4,x6	  x4:0x00000001  x6:0xffffffff x19=0xfffffffe
       29735000	      2972	800059e4	025cdc63	bge	x25,x5,80005a1c	 x25:0x80009fc4  x5:0x9546ffd6
       29745000	      2973	800059e8	4072da93	srai	x21,x5,0x7	  x5:0x9546ffd6 x21=0xff2a8dff
       29755000	      2974	800059ec	0332ca63	blt	x5,x19,80005a20	  x5:0x9546ffd6 x19:0xfffffffe
       29765000	      2975	00000000	00000013	addi	x0,x0,0	  x0:0x00000000
       29775000	      2976	80005a1c	00000013	addi	x0,x0,0	  x0:0x00000000
       29785000	      2977	80005a20	0176abb3	slt	x23,x13,x23	 x13:0x0000069c x23:0x00000000 x23=0x00000000
       29795000	      2978	80005a24	015095b3	sll	x11,x1,x21	  x1:0x00000001 x21:0xff2a8dff x11=0x80000000
       29805000	      2979	80005a28	009a4233	xor	x4,x20,x9	 x20:0x80009fc5  x9:0x00000000  x4=0x80009fc5
       29815000	      2980	80005a2c	02430e63	beq	x6,x4,80005a68	  x6:0xffffffff  x4:0x80009fc5
       29825000	      2981	80005a30	cb1cab13	slti	x22,x25,-847	 x25:0x80009fc4 x22=0x00000001
       29835000	      2982	80005a34	13a9b393	sltiu	x7,x19,314	 x19:0xfffffffe  x7=0x00000000
       29845000	      2983	80005a38	b9a6a2b7	lui	x5,0xb9a6a	  x5=0xb9a6a000
       29855000	      2984	80005a3c	b0f7e913	ori	x18,x15,-1265	 x15:0x00000001 x18=0xfffffb0f
       29865000	      2985	80005a40	01ef1213	slli	x4,x30,0x1e	 x30:0xffff8000  x4=0x00000000
       29875000	      2986	80005a44	01fc4233	xor	x4,x24,x31	 x24:0x80000000 x31:0x00000000  x4=0x80000000
       29885000	      2987	80005a48	00199593	slli	x11,x19,0x1	 x19:0xfffffffe x11=0xfffffffc
       29895000	      2988	80005a4c	01958b33	add	x22,x11,x25	 x11:0xfffffffc x25:0x80009fc4 x22=0x80009fc0
       29905000	      2989	80005a50	00000013	addi	x0,x0,0	  x0:0x00000000
       29915000	      2990	80005a54	230f3013	sltiu	x0,x30,560	 x30:0xffff8000
       29925000	      2991	80005a58	417b83b3	sub	x7,x23,x23	 x23:0x00000000 x23:0x00000000  x7=0x00000000
       29935000	      2992	80005a5c	0131c833	xor	x16,x3,x19	  x3:0x9546ffdc x19:0xfffffffe x16=0x6ab90022
       29945000	      2993	80005a60	0161d313	srli	x6,x3,0x16	  x3:0x9546ffdc  x6=0x00000255
       29955000	      2994	80005a64	00098433	add	x8,x19,x0	 x19:0xfffffffe  x0:0x00000000  x8=0xfffffffe
       29965000	      2995	80005a68	4153dd93	srai	x27,x7,0x15	  x7:0x00000000 x27=0x00000000
       29975000	      2996	80005a6c	03271e63	bne	x14,x18,80005aa8	 x14:0x80009e98 x18:0xfffffb0f
       29985000	      2997	00000000	00000013	addi	x0,x0,0	  x0:0x00000000
       29995000	      2998	80005aa4	00000013	addi	x0,x0,0	  x0:0x00000000
       30005000	      2999	80005aa8	cc094393	xori	x7,x18,-832	 x18:0xfffffb0f  x7=0x000007cf
       30015000	      3000	80005aac	03e94e63	blt	x18,x30,80005ae8	 x18:0xfffffb0f x30:0xffff8000
       30025000	      3001	80005ab0	40a7d993	srai	x19,x15,0xa	 x15:0x00000001 x19=0x00000000
       30035000	      3002	80005ab4	01f859b3	srl	x19,x16,x31	 x16:0x6ab90022 x31:0x00000000 x19=0x6ab90022
       30045000	      3003	80005ab8	40248d33	sub	x26,x9,x2	  x9:0x00000000  x2:0x00000000 x26=0x00000000
       30055000	      3004	80005abc	cba28a97	auipc	x21,0xcba28	 x21=0x4ba2dab8
       30065000	      3005	80005ac0	023ffa63	bgeu	x31,x3,80005af4	 x31:0x00000000  x3:0x9546ffdc
       30075000	      3006	80005ac4	05c8a913	slti	x18,x17,92	 x17:0x00000000 x18=0x00000001
       30085000	      3007	80005ac8	016547b3	xor	x15,x10,x22	 x10:0x00000000 x22:0x80009fc0 x15=0x80009fc0
       30095000	      3008	80005acc	e04d8113	addi	x2,x27,-508	 x27:0x00000000  x2=0xfffffe04
       30105000	      3009	80005ad0	00349633	sll	x12,x9,x3	  x9:0x00000000  x3:0x9546ffdc x12=0x00000000
       30115000	      3010	80005ad4	00000013	addi	x0,x0,0	  x0:0x00000000
       30125000	      3011	80005ad8	01a6d513	srli	x10,x13,0x1a	 x13:0x0000069c x10=0x00000000
       30135000	      3012	80005adc	0369fc63	bgeu	x19,x22,80005b14	 x19:0x6ab90022 x22:0x80009fc0
       30145000	      3013	80005ae0	016eabb3	slt	x23,x29,x22	 x29:0x00000000 x22:0x80009fc0 x23=0x00000000
       30155000	      3014	80005ae4	003e8933	add	x18,x29,x3	 x29:0x00000000  x3:0x9546ffdc x18=0x9546ffdc
       30165000	      3015	80005ae8	05b9e663	bltu	x19,x27,80005b34	 x19:0x6ab90022 x27:0x00000000
       30175000	      3016	80005aec	01a09293	slli	x5,x1,0x1a	  x1:0x00000001  x5=0x04000000
       30185000	      3017	80005af0	86d32913	slti	x18,x6,-1939	  x6:0x00000255 x18=0x00000000
       30195000	      3018	80005af4	01e3fa63	bgeu	x7,x30,80005b08	  x7:0x000007cf x30:0xffff8000
       30205000	      3019	80005af8	03a31863	bne	x6,x26,80005b28	  x6:0x00000255 x26:0x00000000
       30215000	      3020	00000000	00000013	addi	x0,x0,0	  x0:0x00000000
       30225000	      3021	80005b24	00000013	addi	x0,x0,0	  x0:0x00000000
       30235000	      3022	80005b28	41d7dfb3	sra	x31,x15,x29	 x15:0x80009fc0 x29:0x00000000 x31=0x80009fc0
       30245000	      3023	80005b2c	03741663	bne	x8,x23,80005b58	  x8:0xfffffffe x23:0x00000000
       30255000	      3024	00000000	00000013	addi	x0,x0,0	  x0:0x00000000
       30265000	      3025	80005b54	00000013	addi	x0,x0,0	  x0:0x00000000
       30275000	      3026	80005b58	40f15d13	srai	x26,x2,0xf	  x2:0xfffffe04 x26=0xffffffff
       30285000	      3027	80005b5c	326db0b7	lui	x1,0x326db	  x1=0x326db000
       30295000	      3028	80005b60	d0356e97	auipc	x29,0xd0356	 x29=0x5035bb5c
       30305000	      3029	80005b64	00000013	addi	x0,x0,0	  x0:0x00000000
       30315000	      3030	80005b68	343c3897	auipc	x17,0x343c3	 x17=0xb43c8b64
       30325000	      3031	80005b6c	00577ab3	and	x21,x14,x5	 x14:0x80009e98  x5:0x04000000 x21=0x00000000
       30335000	      3032	80005b70	0127e463	bltu	x15,x18,80005b78	 x15:0x80009fc0 x18:0x00000000
       30345000	      3033	80005b74	01f41663	bne	x8,x31,80005b80	  x8:0xfffffffe x31:0x80009fc0
       30355000	      3034	00000000	00000013	addi	x0,x0,0	  x0:0x00000000
       30365000	      3035	80005b7c	00000013	addi	x0,x0,0	  x0:0x00000000
       30375000	      3036	80005b80	86f74393	xori	x7,x14,-1937	 x14:0x80009e98  x7=0x7fff66f7
       30385000	      3037	80005b84	2575a093	slti	x1,x11,599	 x11:0xfffffffc  x1=0x00000001
       30395000	      3038	80005b88	0001ffb3	and	x31,x3,x0	  x3:0x9546ffdc  x0:0x00000000 x31=0x00000000
       30405000	      3039	80005b8c	001116b3	sll	x13,x2,x1	  x2:0xfffffe04  x1:0x00000001 x13=0xfffffc08
       30415000	      3040	80005b90	00003897	auipc	x17,0x3	 x17=0x80008b8c
       30425000	      3041	80005b94	c9e88893	addi	x17,x17,-866	 x17:0x80008b8c x17=0x8000882a
       30435000	      3042	80005b98	0048c983	lbu	x19,4(x17)	 x17:0x8000882a x19=0x00000000 PA:0x8000882e
       30445000	      3043	80005b9c	aa502a13	slti	x20,x0,-1371	  x0:0x00000000 x20=0x00000000
       30455000	      3044	80005ba0	014143b3	xor	x7,x2,x20	  x2:0xfffffe04 x20:0x00000000  x7=0xfffffe04
       30465000	      3045	80005ba4	0788d503	lhu	x10,120(x17)	 x17:0x8000882a x10=0x00000000 PA:0x800088a2
       30475000	      3046	80005ba8	01d41313	slli	x6,x8,0x1d	  x8:0xfffffffe  x6=0xc0000000
       30485000	      3047	80005bac	08e8ca83	lbu	x21,142(x17)	 x17:0x8000882a x21=0x00000000 PA:0x800088b8
       30495000	      3048	00000000	00000013	addi	x0,x0,0	  x0:0x00000000
       30505000	      3049	80005bb0	07563793	sltiu	x15,x12,117	 x12:0x00000000 x15=0x00000001
       30515000	      3050	80005bb4	41f7dab3	sra	x21,x15,x31	 x15:0x00000001 x31:0x00000000 x21=0x00000001
       30525000	      3051	80005bb8	4910ae97	auipc	x29,0x4910a	 x29=0xc910fbb4
       30535000	      3052	80005bbc	003837b3	sltu	x15,x16,x3	 x16:0x6ab90022  x3:0x9546ffdc x15=0x00000001
       30545000	      3053	80005bc0	0cc8de83	lhu	x29,204(x17)	 x17:0x8000882a x29=0x00000000 PA:0x800088f6
       30555000	      3054	80005bc4	0c788723	sb	x7,206(x17)	 x17:0x8000882a  x7:0xfffffe04 PA:0x800088f8
       30565000	      3055	80005bc8	0ed88d23	sb	x13,250(x17)	 x17:0x8000882a x13:0xfffffc08 PA:0x80008924
       30575000	      3056	80005bcc	00000013	addi	x0,x0,0	  x0:0x00000000
       30585000	      3057	80005bd0	ff088ea3	sb	x16,-3(x17)	 x17:0x8000882a x16:0x6ab90022 PA:0x80008827
       30595000	      3058	80005bd4	fea88823	sb	x10,-16(x17)	 x17:0x8000882a x10:0x00000000 PA:0x8000881a
       30605000	      3059	80005bd8	06e89403	lh	x8,110(x17)	 x17:0x8000882a  x8=0x00000000 PA:0x80008898
       30615000	      3060	80005bdc	0f98c803	lbu	x16,249(x17)	 x17:0x8000882a x16=0x00000000 PA:0x80008923
       30625000	      3061	80005be0	01273433	sltu	x8,x14,x18	 x14:0x80009e98 x18:0x00000000  x8=0x00000000
       30635000	      3062	80005be4	00488403	lb	x8,4(x17)	 x17:0x8000882a  x8=0x00000000 PA:0x8000882e
       30645000	      3063	80005be8	007950b3	srl	x1,x18,x7	 x18:0x00000000  x7:0xfffffe04  x1=0x00000000
       30655000	      3064	80005bec	07b8c783	lbu	x15,123(x17)	 x17:0x8000882a x15=0x00000000 PA:0x800088a5
       30665000	      3065	80005bf0	3830cf13	xori	x30,x1,899	  x1:0x00000000 x30=0x00000383
       30675000	      3066	80005bf4	0068a103	lw	x2,6(x17)	 x17:0x8000882a  x2=0x00000000 PA:0x80008830
       30685000	      3067	00000000	00000013	addi	x0,x0,0	  x0:0x00000000
       30695000	      3068	80005bf8	0024e133	or	x2,x9,x2	  x9:0x00000000  x2:0x00000000  x2=0x00000000
       30705000	      3069	80005bfc	908a0617	auipc	x12,0x908a0	 x12=0x108a5bf8
       30715000	      3070	80005c00	0fd8cd03	lbu	x26,253(x17)	 x17:0x8000882a x26=0x00000000 PA:0x80008927
       30725000	      3071	80005c04	04188f03	lb	x30,65(x17)	 x17:0x8000882a x30=0x00000000 PA:0x8000886b
       30735000	      3072	80005c08	f8bc3793	sltiu	x15,x24,-117	 x24:0x80000000 x15=0x00000001
       30745000	      3073	80005c0c	08089a23	sh	x0,148(x17)	 x17:0x8000882a  x0:0x00000000 PA:0x800088be
       30755000	      3074	80005c10	0dc88103	lb	x2,220(x17)	 x17:0x8000882a  x2=0x00000000 PA:0x80008906
       30765000	      3075	80005c14	05788d03	lb	x26,87(x17)	 x17:0x8000882a x26=0x00000000 PA:0x80008881
       30775000	      3076	80005c18	74e50693	addi	x13,x10,1870	 x10:0x00000000 x13=0x0000074e
       30785000	      3077	80005c1c	0055de33	srl	x28,x11,x5	 x11:0xfffffffc  x5:0x04000000 x28=0xfffffffc
       30795000	      3078	80005c20	0182eab3	or	x21,x5,x24	  x5:0x04000000 x24:0x80000000 x21=0x84000000
       30805000	      3079	80005c24	0e188e03	lb	x28,225(x17)	 x17:0x8000882a x28=0x00000000 PA:0x8000890b
       30815000	      3080	80005c28	01749533	sll	x10,x9,x23	  x9:0x00000000 x23:0x00000000 x10=0x00000000
       30825000	      3081	80005c2c	0328a983	lw	x19,50(x17)	 x17:0x8000882a x19=0x00000000 PA:0x8000885c
       30835000	      3082	80005c30	0a188283	lb	x5,161(x17)	 x17:0x8000882a  x5=0x00000000 PA:0x800088cb
       30845000	      3083	80005c34	51eff693	andi	x13,x31,1310	 x31:0x00000000 x13=0x00000000
       30855000	      3084	80005c38	0fb8c383	lbu	x7,251(x17)	 x17:0x8000882a  x7=0x00000000 PA:0x80008925
       30865000	      3085	80005c3c	251cd217	auipc	x4,0x251cd	  x4=0xa51d2c38
       30875000	      3086	80005c40	41275213	srai	x4,x14,0x12	 x14:0x80009e98  x4=0xffffe000
       30885000	      3087	80005c44	00f89523	sh	x15,10(x17)	 x17:0x8000882a x15:0x00000001 PA:0x80008834
       30895000	      3088	80005c48	415ad133	sra	x2,x21,x21	 x21:0x84000000 x21:0x84000000  x2=0x84000000
       30905000	      3089	80005c4c	3df97a13	andi	x20,x18,991	 x18:0x00000000 x20=0x00000000
       30915000	      3090	80005c50	0cd8c603	lbu	x12,205(x17)	 x17:0x8000882a x12=0x00000000 PA:0x800088f7
       30925000	      3091	80005c54	010bdbb3	srl	x23,x23,x16	 x23:0x00000000 x16:0x00000000 x23=0x00000000
       30935000	      3092	80005c58	0040f933	and	x18,x1,x4	  x1:0x00000000  x4:0xffffe000 x18=0x00000000
       30945000	      3093	80005c5c	01f36eb3	or	x29,x6,x31	  x6:0xc0000000 x31:0x00000000 x29=0xc0000000
       30955000	      3094	80005c60	a4bc0193	addi	x3,x24,-1461	 x24:0x80000000  x3=0x7ffffa4b
       30965000	      3095	80005c64	01d88683	lb	x13,29(x17)	 x17:0x8000882a x13=0x00000000 PA:0x80008847
       30975000	      3096	80005c68	01e639b3	sltu	x19,x12,x30	 x12:0x00000000 x30:0x00000000 x19=0x00000000
       30985000	      3097	80005c6c	3281e697	auipc	x13,0x3281e	 x13=0xb2823c68
       30995000	      3098	80005c70	05c11463	bne	x2,x28,80005cb8	  x2:0x84000000 x28:0x00000000
       31005000	      3099	00000000	00000013	addi	x0,x0,0	  x0:0x00000000
       31015000	      3100	80005cb4	00000013	addi	x0,x0,0	  x0:0x00000000
       31025000	      3101	80005cb8	00bd7033	and	x0,x26,x11	 x26:0x00000000 x11:0xfffffffc
       31035000	      3102	80005cbc	10ba6e13	ori	x28,x20,267	 x20:0x00000000 x28=0x0000010b
       31045000	      3103	80005cc0	010e31b3	sltu	x3,x28,x16	 x28:0x0000010b x16:0x00000000  x3=0x00000000
       31055000	      3104	80005cc4	72c9b993	sltiu	x19,x19,1836	 x19:0x00000000 x19=0x00000001
       31065000	      3105	80005cc8	00a03f33	sltu	x30,x0,x10	  x0:0x00000000 x10:0x00000000 x30=0x00000000
       31075000	      3106	80005ccc	4181d033	sra	x0,x3,x24	  x3:0x00000000 x24:0x80000000
       31085000	      3107	80005cd0	4057d413	srai	x8,x15,0x5	 x15:0x00000001  x8=0x00000000
       31095000	      3108	80005cd4	01674663	blt	x14,x22,80005ce0	 x14:0x80009e98 x22:0x80009fc0
       31105000	      3109	00000000	00000013	addi	x0,x0,0	  x0:0x00000000
       31115000	      3110	80005cdc	00000013	addi	x0,x0,0	  x0:0x00000000
       31125000	      3111	80005ce0	af85c6b7	lui	x13,0xaf85c	 x13=0xaf85c000
       31135000	      3112	80005ce4	017eb3b3	sltu	x7,x29,x23	 x29:0xc0000000 x23:0x00000000  x7=0x00000000
       31145000	      3113	80005ce8	aa87a2b7	lui	x5,0xaa87a	  x5=0xaa87a000
       31155000	      3114	80005cec	41ba8433	sub	x8,x21,x27	 x21:0x84000000 x27:0x00000000  x8=0x84000000
       31165000	      3115	80005cf0	01f67a63	bgeu	x12,x31,80005d04	 x12:0x00000000 x31:0x00000000
       31175000	      3116	00000000	00000013	addi	x0,x0,0	  x0:0x00000000
       31185000	      3117	80005d00	00000013	addi	x0,x0,0	  x0:0x00000000
       31195000	      3118	80005d04	7a243793	sltiu	x15,x8,1954	  x8:0x84000000 x15=0x00000000
       31205000	      3119	80005d08	028e6e63	bltu	x28,x8,80005d44	 x28:0x0000010b  x8:0x84000000
       31215000	      3120	00000000	00000013	addi	x0,x0,0	  x0:0x00000000
       31225000	      3121	80005d40	00000013	addi	x0,x0,0	  x0:0x00000000
       31235000	      3122	80005d44	011bae33	slt	x28,x23,x17	 x23:0x00000000 x17:0x8000882a x28=0x00000000
       31245000	      3123	80005d48	01712533	slt	x10,x2,x23	  x2:0x84000000 x23:0x00000000 x10=0x00000001
       31255000	      3124	80005d4c	00000013	addi	x0,x0,0	  x0:0x00000000
       31265000	      3125	80005d50	adb0c993	xori	x19,x1,-1317	  x1:0x00000000 x19=0xfffffadb
       31275000	      3126	80005d54	022d0c63	beq	x26,x2,80005d8c	 x26:0x00000000  x2:0x84000000
       31285000	      3127	80005d58	0100d893	srli	x17,x1,0x10	  x1:0x00000000 x17=0x00000000
       31295000	      3128	80005d5c	00c730b3	sltu	x1,x14,x12	 x14:0x80009e98 x12:0x00000000  x1=0x00000000
       31305000	      3129	80005d60	01a69993	slli	x19,x13,0x1a	 x13:0xaf85c000 x19=0x00000000
       31315000	      3130	80005d64	05589463	bne	x17,x21,80005dac	 x17:0x00000000 x21:0x84000000
       31325000	      3131	00000000	00000013	addi	x0,x0,0	  x0:0x00000000
       31335000	      3132	80005da8	00000013	addi	x0,x0,0	  x0:0x00000000
       31345000	      3133	80005dac	00257533	and	x10,x10,x2	 x10:0x00000001  x2:0x84000000 x10=0x00000000
       31355000	      3134	80005db0	84974413	xori	x8,x14,-1975	 x14:0x80009e98  x8=0x7fff66d1
       31365000	      3135	80005db4	40775533	sra	x10,x14,x7	 x14:0x80009e98  x7:0x00000000 x10=0x80009e98
       31375000	      3136	80005db8	21fb3813	sltiu	x16,x22,543	 x22:0x80009fc0 x16=0x00000000
       31385000	      3137	80005dbc	01c68993	addi	x19,x13,28	 x13:0xaf85c000 x19=0xaf85c01c
       31395000	      3138	80005dc0	ceb58213	addi	x4,x11,-789	 x11:0xfffffffc  x4=0xfffffce7
       31405000	      3139	80005dc4	01465b13	srli	x22,x12,0x14	 x12:0x00000000 x22=0x00000000
       31415000	      3140	80005dc8	00dfdd33	srl	x26,x31,x13	 x31:0x00000000 x13:0xaf85c000 x26=0x00000000
       31425000	      3141	80005dcc	53c875b7	lui	x11,0x53c87	 x11=0x53c87000
       31435000	      3142	80005dd0	7427af13	slti	x30,x15,1858	 x15:0x00000000 x30=0x00000001
       31445000	      3143	80005dd4	8349a913	slti	x18,x19,-1996	 x19:0xaf85c01c x18=0x00000001
       31455000	      3144	80005dd8	01bb0463	beq	x22,x27,80005de0	 x22:0x00000000 x27:0x00000000
       31465000	      3145	00000000	00000013	addi	x0,x0,0	  x0:0x00000000
       31475000	      3146	80005ddc	00000013	addi	x0,x0,0	  x0:0x00000000
       31485000	      3147	80005de0	01490bb3	add	x23,x18,x20	 x18:0x00000001 x20:0x00000000 x23=0x00000001
       31495000	      3148	80005de4	d4c82f93	slti	x31,x16,-692	 x16:0x00000000 x31=0x00000000
       31505000	      3149	80005de8	03170e63	beq	x14,x17,80005e24	 x14:0x80009e98 x17:0x00000000
       31515000	      3150	80005dec	00000013	addi	x0,x0,0	  x0:0x00000000
       31525000	      3151	80005df0	f93054b7	lui	x9,0xf9305	  x9=0xf9305000
       31535000	      3152	80005df4	412800b3	sub	x1,x16,x18	 x16:0x00000000 x18:0x00000001  x1=0xffffffff
       31545000	      3153	80005df8	016cbb33	sltu	x22,x25,x22	 x25:0x80009fc4 x22:0x00000000 x22=0x00000000
       31555000	      3154	80005dfc	02915e63	bge	x2,x9,80005e38	  x2:0x84000000  x9:0xf9305000
       31565000	      3155	80005e00	002a85b3	add	x11,x21,x2	 x21:0x84000000  x2:0x84000000 x11=0x08000000
       31575000	      3156	80005e04	94373293	sltiu	x5,x14,-1725	 x14:0x80009e98  x5=0x00000001
       31585000	      3157	80005e08	00964a63	blt	x12,x9,80005e1c	 x12:0x00000000  x9:0xf9305000
       31595000	      3158	80005e0c	018c5d93	srli	x27,x24,0x18	 x24:0x80000000 x27=0x00000080
       31605000	      3159	80005e10	403501b3	sub	x3,x10,x3	 x10:0x80009e98  x3:0x00000000  x3=0x80009e98
       31615000	      3160	80005e14	0101e133	or	x2,x3,x16	  x3:0x80009e98 x16:0x00000000  x2=0x80009e98
       31625000	      3161	80005e18	41335293	srai	x5,x6,0x13	  x6:0xc0000000  x5=0xfffff800
       31635000	      3162	80005e1c	01f64463	blt	x12,x31,80005e24	 x12:0x00000000 x31:0x00000000
       31645000	      3163	80005e20	42cd7893	andi	x17,x26,1068	 x26:0x00000000 x17=0x00000000
       31655000	      3164	80005e24	05ecf463	bgeu	x25,x30,80005e6c	 x25:0x80009fc4 x30:0x00000001
       31665000	      3165	00000000	00000013	addi	x0,x0,0	  x0:0x00000000
       31675000	      3166	80005e68	00000013	addi	x0,x0,0	  x0:0x00000000
       31685000	      3167	80005e6c	01ed3fb3	sltu	x31,x26,x30	 x26:0x00000000 x30:0x00000001 x31=0x00000001
       31695000	      3168	80005e70	bab3c813	xori	x16,x7,-1109	  x7:0x00000000 x16=0xfffffbab
       31705000	      3169	80005e74	02bd8a63	beq	x27,x11,80005ea8	 x27:0x00000080 x11:0x08000000
       31715000	      3170	80005e78	00427e63	bgeu	x4,x4,80005e94	  x4:0xfffffce7  x4:0xfffffce7
       31725000	      3171	00000000	00000013	addi	x0,x0,0	  x0:0x00000000
       31735000	      3172	80005e90	00000013	addi	x0,x0,0	  x0:0x00000000
       31745000	      3173	80005e94	00755b93	srli	x23,x10,0x7	 x10:0x80009e98 x23=0x0100013d
       31755000	      3174	80005e98	01a75113	srli	x2,x14,0x1a	 x14:0x80009e98  x2=0x00000020
       31765000	      3175	80005e9c	01b566b3	or	x13,x10,x27	 x10:0x80009e98 x27:0x00000080 x13=0x80009e98
       31775000	      3176	80005ea0	41ec50b3	sra	x1,x24,x30	 x24:0x80000000 x30:0x00000001  x1=0xc0000000
       31785000	      3177	80005ea4	017f21b3	slt	x3,x30,x23	 x30:0x00000001 x23:0x0100013d  x3=0x00000001
       31795000	      3178	80005ea8	016b5f33	srl	x30,x22,x22	 x22:0x00000000 x22:0x00000000 x30=0x00000000
       31805000	      3179	80005eac	03509e63	bne	x1,x21,80005ee8	  x1:0xc0000000 x21:0x84000000
       31815000	      3180	00000000	00000013	addi	x0,x0,0	  x0:0x00000000
       31825000	      3181	80005ee4	00000013	addi	x0,x0,0	  x0:0x00000000
       31835000	      3182	80005ee8	c1472913	slti	x18,x14,-1004	 x14:0x80009e98 x18=0x00000001
       31845000	      3183	80005eec	05706063	bltu	x0,x23,80005f2c	  x0:0x00000000 x23:0x0100013d
       31855000	      3184	00000000	00000013	addi	x0,x0,0	  x0:0x00000000
       31865000	      3185	80005f28	00000013	addi	x0,x0,0	  x0:0x00000000
       31875000	      3186	80005f2c	018a78b3	and	x17,x20,x24	 x20:0x00000000 x24:0x80000000 x17=0x00000000
       31885000	      3187	80005f30	00231433	sll	x8,x6,x2	  x6:0xc0000000  x2:0x00000020  x8=0xc0000000
       31895000	      3188	80005f34	79737513	andi	x10,x6,1943	  x6:0xc0000000 x10=0x00000000
       31905000	      3189	80005f38	8c78a493	slti	x9,x17,-1849	 x17:0x00000000  x9=0x00000000
       31915000	      3190	80005f3c	186c8f93	addi	x31,x25,390	 x25:0x80009fc4 x31=0x8000a14a
       31925000	      3191	80005f40	00000013	addi	x0,x0,0	  x0:0x00000000
       31935000	      3192	80005f44	4d656237	lui	x4,0x4d656	  x4=0x4d656000
       31945000	      3193	80005f48	00e71393	slli	x7,x14,0xe	 x14:0x80009e98  x7=0x27a60000
       31955000	      3194	80005f4c	01df5db3	srl	x27,x30,x29	 x30:0x00000000 x29:0xc0000000 x27=0x00000000
       31965000	      3195	80005f50	03820863	beq	x4,x24,80005f80	  x4:0x4d656000 x24:0x80000000
       31975000	      3196	80005f54	01a29d93	slli	x27,x5,0x1a	  x5:0xfffff800 x27=0x00000000
       31985000	      3197	80005f58	676a2793	slti	x15,x20,1654	 x20:0x00000000 x15=0x00000001
       31995000	      3198	80005f5c	027adc63	bge	x21,x7,80005f94	 x21:0x84000000  x7:0x27a60000
       32005000	      3199	80005f60	01cbd5b3	srl	x11,x23,x28	 x23:0x0100013d x28:0x00000000 x11=0x0100013d
       32015000	      3200	80005f64	012cd693	srli	x13,x25,0x12	 x25:0x80009fc4 x13=0x00002000
       32025000	      3201	80005f68	4011da93	srai	x21,x3,0x1	  x3:0x00000001 x21=0x00000000
       32035000	      3202	80005f6c	00b99ab3	sll	x21,x19,x11	 x19:0xaf85c01c x11:0x0100013d x21=0x80000000
       32045000	      3203	80005f70	00251f13	slli	x30,x10,0x2	 x10:0x00000000 x30=0x00000000
       32055000	      3204	80005f74	92b0f013	andi	x0,x1,-1749	  x1:0xc0000000
       32065000	      3205	80005f78	4184dfb3	sra	x31,x9,x24	  x9:0x00000000 x24:0x80000000 x31=0x00000000
       32075000	      3206	80005f7c	042c8463	beq	x25,x2,80005fc4	 x25:0x80009fc4  x2:0x00000020
       32085000	      3207	80005f80	00d58863	beq	x11,x13,80005f90	 x11:0x0100013d x13:0x00002000
       32095000	      3208	80005f84	004f1593	slli	x11,x30,0x4	 x30:0x00000000 x11=0x00000000
       32105000	      3209	80005f88	00000013	addi	x0,x0,0	  x0:0x00000000
       32115000	      3210	80005f8c	013321b3	slt	x3,x6,x19	  x6:0xc0000000 x19:0xaf85c01c  x3=0x00000000
       32125000	      3211	80005f90	01310b33	add	x22,x2,x19	  x2:0x00000020 x19:0xaf85c01c x22=0xaf85c03c
       32135000	      3212	80005f94	0045f0b3	and	x1,x11,x4	 x11:0x00000000  x4:0x4d656000  x1=0x00000000
       32145000	      3213	80005f98	00d60433	add	x8,x12,x13	 x12:0x00000000 x13:0x00002000  x8=0x00002000
       32155000	      3214	80005f9c	01171eb3	sll	x29,x14,x17	 x14:0x80009e98 x17:0x00000000 x29=0x80009e98
       32165000	      3215	80005fa0	48687493	andi	x9,x16,1158	 x16:0xfffffbab  x9=0x00000082
       32175000	      3216	80005fa4	d0d10293	addi	x5,x2,-755	  x2:0x00000020  x5=0xfffffd2d
       32185000	      3217	80005fa8	eff17693	andi	x13,x2,-257	  x2:0x00000020 x13=0x00000020
       32195000	      3218	80005fac	02a6d663	bge	x13,x10,80005fd8	 x13:0x00000020 x10:0x00000000
       32205000	      3219	00000000	00000013	addi	x0,x0,0	  x0:0x00000000
       32215000	      3220	80005fd4	00000013	addi	x0,x0,0	  x0:0x00000000
       32225000	      3221	80005fd8	0294d663	bge	x9,x9,80006004	  x9:0x00000082  x9:0x00000082
       32235000	      3222	00000000	00000013	addi	x0,x0,0	  x0:0x00000000
       32245000	      3223	80006000	00000013	addi	x0,x0,0	  x0:0x00000000
       32255000	      3224	80006004	01efa5b3	slt	x11,x31,x30	 x31:0x00000000 x30:0x00000000 x11=0x00000000
       32265000	      3225	80006008	02c32513	slti	x10,x6,44	  x6:0xc0000000 x10=0x00000001
       32275000	      3226	8000600c	41aa5893	srai	x17,x20,0x1a	 x20:0x00000000 x17=0x00000000
       32285000	      3227	80006010	02068e63	beq	x13,x0,8000604c	 x13:0x00000020  x0:0x00000000
       32295000	      3228	80006014	418dd013	srai	x0,x27,0x18	 x27:0x00000000
       32305000	      3229	80006018	92f6e693	ori	x13,x13,-1745	 x13:0x00000020 x13=0xfffff92f
       32315000	      3230	8000601c	69a6e393	ori	x7,x13,1690	 x13:0xfffff92f  x7=0xffffffbf
       32325000	      3231	80006020	03689c63	bne	x17,x22,80006058	 x17:0x00000000 x22:0xaf85c03c
       32335000	      3232	00000000	00000013	addi	x0,x0,0	  x0:0x00000000
       32345000	      3233	80006054	00000013	addi	x0,x0,0	  x0:0x00000000
       32355000	      3234	80006058	01f63033	sltu	x0,x12,x31	 x12:0x00000000 x31:0x00000000
       32365000	      3235	8000605c	4156d7b3	sra	x15,x13,x21	 x13:0xfffff92f x21:0x80000000 x15=0xfffff92f
       32375000	      3236	80006060	400fdb13	srai	x22,x31,0x0	 x31:0x00000000 x22=0x00000000
       32385000	      3237	80006064	974ae017	auipc	x0,0x974ae	
       32395000	      3238	80006068	0386fa63	bgeu	x13,x24,8000609c	 x13:0xfffff92f x24:0x80000000
       32405000	      3239	00000000	00000013	addi	x0,x0,0	  x0:0x00000000
       32415000	      3240	80006098	00000013	addi	x0,x0,0	  x0:0x00000000
       32425000	      3241	8000609c	009b1693	slli	x13,x22,0x9	 x22:0x00000000 x13=0x00000000
       32435000	      3242	800060a0	01d128b3	slt	x17,x2,x29	  x2:0x00000020 x29:0x80009e98 x17=0x00000000
       32445000	      3243	800060a4	1840a7b7	lui	x15,0x1840a	 x15=0x1840a000
       32455000	      3244	800060a8	01b69ab3	sll	x21,x13,x27	 x13:0x00000000 x27:0x00000000 x21=0x00000000
       32465000	      3245	800060ac	05144263	blt	x8,x17,800060f0	  x8:0x00002000 x17:0x00000000
       32475000	      3246	800060b0	01c51a63	bne	x10,x28,800060c4	 x10:0x00000001 x28:0x00000000
       32485000	      3247	00000000	00000013	addi	x0,x0,0	  x0:0x00000000
       32495000	      3248	800060c0	00000013	addi	x0,x0,0	  x0:0x00000000
       32505000	      3249	800060c4	00edfab3	and	x21,x27,x14	 x27:0x00000000 x14:0x80009e98 x21=0x00000000
       32515000	      3250	800060c8	df1d3213	sltiu	x4,x26,-527	 x26:0x00000000  x4=0x00000001
       32525000	      3251	800060cc	eb03a693	slti	x13,x7,-336	  x7:0xffffffbf x13=0x00000000
       32535000	      3252	800060d0	0095c463	blt	x11,x9,800060d8	 x11:0x00000000  x9:0x00000082
       32545000	      3253	00000000	00000013	addi	x0,x0,0	  x0:0x00000000
       32555000	      3254	800060d4	00000013	addi	x0,x0,0	  x0:0x00000000
       32565000	      3255	800060d8	03df4c63	blt	x30,x29,80006110	 x30:0x00000000 x29:0x80009e98
       32575000	      3256	800060dc	b2d16213	ori	x4,x2,-1235	  x2:0x00000020  x4=0xfffffb2d
       32585000	      3257	800060e0	b2023213	sltiu	x4,x4,-1248	  x4:0xfffffb2d  x4=0x00000000
       32595000	      3258	800060e4	03ec8663	beq	x25,x30,80006110	 x25:0x80009fc4 x30:0x00000000
       32605000	      3259	800060e8	056e6663	bltu	x28,x22,80006134	 x28:0x00000000 x22:0x00000000
       32615000	      3260	800060ec	01259e63	bne	x11,x18,80006108	 x11:0x00000000 x18:0x00000001
       32625000	      3261	00000000	00000013	addi	x0,x0,0	  x0:0x00000000
       32635000	      3262	80006104	00000013	addi	x0,x0,0	  x0:0x00000000
       32645000	      3263	80006108	3bd50d13	addi	x26,x10,957	 x10:0x00000001 x26=0x000003be
       32655000	      3264	8000610c	001816b3	sll	x13,x16,x1	 x16:0xfffffbab  x1:0x00000000 x13=0xfffffbab
       32665000	      3265	80006110	01290b33	add	x22,x18,x18	 x18:0x00000001 x18:0x00000001 x22=0x00000002
       32675000	      3266	80006114	39267f13	andi	x30,x12,914	 x12:0x00000000 x30=0x00000000
       32685000	      3267	80006118	01934533	xor	x10,x6,x25	  x6:0xc0000000 x25:0x80009fc4 x10=0x40009fc4
       32695000	      3268	8000611c	014b1f33	sll	x30,x22,x20	 x22:0x00000002 x20:0x00000000 x30=0x00000002
       32705000	      3269	80006120	01a9e633	or	x12,x19,x26	 x19:0xaf85c01c x26:0x000003be x12=0xaf85c3be
       32715000	      3270	80006124	016752b3	srl	x5,x14,x22	 x14:0x80009e98 x22:0x00000002  x5=0x200027a6
       32725000	      3271	80006128	007766b3	or	x13,x14,x7	 x14:0x80009e98  x7:0xffffffbf x13=0xffffffbf
       32735000	      3272	8000612c	0108af33	slt	x30,x17,x16	 x17:0x00000000 x16:0xfffffbab x30=0x00000000
       32745000	      3273	80006130	015f0ab3	add	x21,x30,x21	 x30:0x00000000 x21:0x00000000 x21=0x00000000
       32755000	      3274	80006134	019bddb3	srl	x27,x23,x25	 x23:0x0100013d x25:0x80009fc4 x27=0x00100013
       32765000	      3275	80006138	037b0263	beq	x22,x23,8000615c	 x22:0x00000002 x23:0x0100013d
       32775000	      3276	8000613c	01130333	add	x6,x6,x17	  x6:0xc0000000 x17:0x00000000  x6=0xc0000000
       32785000	      3277	80006140	40b20fb3	sub	x31,x4,x11	  x4:0x00000000 x11:0x00000000 x31=0x00000000
       32795000	      3278	80006144	01383fb3	sltu	x31,x16,x19	 x16:0xfffffbab x19:0xaf85c01c x31=0x00000000
       32805000	      3279	80006148	009ee433	or	x8,x29,x9	 x29:0x80009e98  x9:0x00000082  x8=0x80009e9a
       32815000	      3280	8000614c	0086d993	srli	x19,x13,0x8	 x13:0xffffffbf x19=0x00ffffff
       32825000	      3281	80006150	b1b56613	ori	x12,x10,-1253	 x10:0x40009fc4 x12=0xffffffdf
       32835000	      3282	80006154	008995b3	sll	x11,x19,x8	 x19:0x00ffffff  x8:0x80009e9a x11=0xfc000000
       32845000	      3283	80006158	0569c463	blt	x19,x22,800061a0	 x19:0x00ffffff x22:0x00000002
       32855000	      3284	8000615c	41b20233	sub	x4,x4,x27	  x4:0x00000000 x27:0x00100013  x4=0xffefffed
       32865000	      3285	80006160	87350093	addi	x1,x10,-1933	 x10:0x40009fc4  x1=0x40009837
       32875000	      3286	80006164	01b39bb3	sll	x23,x7,x27	  x7:0xffffffbf x27:0x00100013 x23=0xfdf80000
       32885000	      3287	80006168	3b7ba317	auipc	x6,0x3b7ba	  x6=0xbb7c0164
       32895000	      3288	8000616c	00e70433	add	x8,x14,x14	 x14:0x80009e98 x14:0x80009e98  x8=0x00013d30
       32905000	      3289	80006170	00a8d513	srli	x10,x17,0xa	 x17:0x00000000 x10=0x00000000
       32915000	      3290	80006174	dfa73a13	sltiu	x20,x14,-518	 x14:0x80009e98 x20=0x00000001
       32925000	      3291	80006178	01078eb3	add	x29,x15,x16	 x15:0x1840a000 x16:0xfffffbab x29=0x18409bab
       32935000	      3292	8000617c	00186663	bltu	x16,x1,80006188	 x16:0xfffffbab  x1:0x40009837
       32945000	      3293	80006180	11c14063	blt	x2,x28,80006280	  x2:0x00000020 x28:0x00000000
       32955000	      3294	80006184	0024ca33	xor	x20,x9,x2	  x9:0x00000082  x2:0x00000020 x20=0x000000a2
       32965000	      3295	80006188	013e56b3	srl	x13,x28,x19	 x28:0x00000000 x19:0x00ffffff x13=0x00000000
       32975000	      3296	8000618c	41060b33	sub	x22,x12,x16	 x12:0xffffffdf x16:0xfffffbab x22=0x00000434
       32985000	      3297	80006190	00e0b8b3	sltu	x17,x1,x14	  x1:0x40009837 x14:0x80009e98 x17=0x00000001
       32995000	      3298	80006194	00dcfa33	and	x20,x25,x13	 x25:0x80009fc4 x13:0x00000000 x20=0x00000000
       33005000	      3299	80006198	d3db8313	addi	x6,x23,-707	 x23:0xfdf80000  x6=0xfdf7fd3d
       33015000	      3300	8000619c	00370bb3	add	x23,x14,x3	 x14:0x80009e98  x3:0x00000000 x23=0x80009e98
       33025000	      3301	800061a0	00765693	srli	x13,x12,0x7	 x12:0xffffffdf x13=0x01ffffff
       33035000	      3302	800061a4	d7c52613	slti	x12,x10,-644	 x10:0x00000000 x12=0x00000000
       33045000	      3303	800061a8	0f9f0c63	beq	x30,x25,800062a0	 x30:0x00000000 x25:0x80009fc4
       33055000	      3304	800061ac	11a7da63	bge	x15,x26,800062c0	 x15:0x1840a000 x26:0x000003be
       33065000	      3305	00000000	00000013	addi	x0,x0,0	  x0:0x00000000
       33075000	      3306	800062bc	00000013	addi	x0,x0,0	  x0:0x00000000
       33085000	      3307	800062c0	013403b3	add	x7,x8,x19	  x8:0x00013d30 x19:0x00ffffff  x7=0x01013d2f
       33095000	      3308	800062c4	01071793	slli	x15,x14,0x10	 x14:0x80009e98 x15=0x9e980000
       33105000	      3309	800062c8	14b31a97	auipc	x21,0x14b31	 x21=0x94b372c4
       33115000	      3310	800062cc	bdf3c893	xori	x17,x7,-1057	  x7:0x01013d2f x17=0xfefec6f0
       33125000	      3311	800062d0	558e0493	addi	x9,x28,1368	 x28:0x00000000  x9=0x00000558
       33135000	      3312	800062d4	e7ae7013	andi	x0,x28,-390	 x28:0x00000000
       33145000	      3313	800062d8	00212133	slt	x2,x2,x2	  x2:0x00000020  x2:0x00000020  x2=0x00000000
       33155000	      3314	800062dc	00f3f6b3	and	x13,x7,x15	  x7:0x01013d2f x15:0x9e980000 x13=0x00000000
       33165000	      3315	800062e0	0098bf33	sltu	x30,x17,x9	 x17:0xfefec6f0  x9:0x00000558 x30=0x00000000
       33175000	      3316	800062e4	413cd893	srai	x17,x25,0x13	 x25:0x80009fc4 x17=0xfffff000
       33185000	      3317	800062e8	19800b93	addi	x23,x0,408	  x0:0x00000000 x23=0x00000198
       33195000	      3318	800062ec	01939933	sll	x18,x7,x25	  x7:0x01013d2f x25:0x80009fc4 x18=0x1013d2f0
       33205000	      3319	800062f0	022f9c63	bne	x31,x2,80006328	 x31:0x00000000  x2:0x00000000
       33215000	      3320	800062f4	00038a33	add	x20,x7,x0	  x7:0x01013d2f  x0:0x00000000 x20=0x01013d2f
       33225000	      3321	800062f8	00f1d193	srli	x3,x3,0xf	  x3:0x00000000  x3=0x00000000
       33235000	      3322	800062fc	416adbb3	sra	x23,x21,x22	 x21:0x94b372c4 x22:0x00000434 x23=0xfffff94b
       33245000	      3323	80006300	fa89a913	slti	x18,x19,-88	 x19:0x00ffffff x18=0x00000000
       33255000	      3324	80006304	44862613	slti	x12,x12,1096	 x12:0x00000000 x12=0x00000001
       33265000	      3325	80006308	05d81063	bne	x16,x29,80006348	 x16:0xfffffbab x29:0x18409bab
       33275000	      3326	00000000	00000013	addi	x0,x0,0	  x0:0x00000000
       33285000	      3327	80006344	00000013	addi	x0,x0,0	  x0:0x00000000
       33295000	      3328	80006348	c1942237	lui	x4,0xc1942	  x4=0xc1942000
       33305000	      3329	8000634c	4132d293	srai	x5,x5,0x13	  x5:0x200027a6  x5=0x00000400
       33315000	      3330	80006350	40525593	srai	x11,x4,0x5	  x4:0xc1942000 x11=0xfe0ca100
       33325000	      3331	80006354	ab5f7b13	andi	x22,x30,-1355	 x30:0x00000000 x22=0x00000000
       33335000	      3332	80006358	89cd6013	ori	x0,x26,-1892	 x26:0x000003be
       33345000	      3333	8000635c	8fc1f813	andi	x16,x3,-1796	  x3:0x00000000 x16=0x00000000
       33355000	      3334	80006360	02518e63	beq	x3,x5,8000639c	  x3:0x00000000  x5:0x00000400
       33365000	      3335	80006364	01c0b133	sltu	x2,x1,x28	  x1:0x40009837 x28:0x00000000  x2=0x00000000
       33375000	      3336	80006368	00dc1a63	bne	x24,x13,8000637c	 x24:0x80000000 x13:0x00000000
       33385000	      3337	00000000	00000013	addi	x0,x0,0	  x0:0x00000000
       33395000	      3338	80006378	00000013	addi	x0,x0,0	  x0:0x00000000
       33405000	      3339	8000637c	e9b37693	andi	x13,x6,-357	  x6:0xfdf7fd3d x13=0xfdf7fc19
       33415000	      3340	80006380	001bbab3	sltu	x21,x23,x1	 x23:0xfffff94b  x1:0x40009837 x21=0x00000000
       33425000	      3341	80006384	68163b93	sltiu	x23,x12,1665	 x12:0x00000001 x23=0x00000001
       33435000	      3342	80006388	41f05093	srai	x1,x0,0x1f	  x0:0x00000000  x1=0x00000000
       33445000	      3343	8000638c	03b18c63	beq	x3,x27,800063c4	  x3:0x00000000 x27:0x00100013
       33455000	      3344	80006390	01a836b3	sltu	x13,x16,x26	 x16:0x00000000 x26:0x000003be x13=0x00000001
       33465000	      3345	80006394	01981413	slli	x8,x16,0x19	 x16:0x00000000  x8=0x00000000
       33475000	      3346	80006398	4106d593	srai	x11,x13,0x10	 x13:0x00000001 x11=0x00000000
       33485000	      3347	8000639c	00a351b3	srl	x3,x6,x10	  x6:0xfdf7fd3d x10:0x00000000  x3=0xfdf7fd3d
       33495000	      3348	800063a0	025fce63	blt	x31,x5,800063dc	 x31:0x00000000  x5:0x00000400
       33505000	      3349	00000000	00000013	addi	x0,x0,0	  x0:0x00000000
       33515000	      3350	800063d8	00000013	addi	x0,x0,0	  x0:0x00000000
       33525000	      3351	800063dc	003d0fb3	add	x31,x26,x3	 x26:0x000003be  x3:0xfdf7fd3d x31=0xfdf800fb
       33535000	      3352	800063e0	03a57e63	bgeu	x10,x26,8000641c	 x10:0x00000000 x26:0x000003be
       33545000	      3353	800063e4	00301913	slli	x18,x0,0x3	  x0:0x00000000 x18=0x00000000
       33555000	      3354	800063e8	01e67fb3	and	x31,x12,x30	 x12:0x00000001 x30:0x00000000 x31=0x00000000
       33565000	      3355	800063ec	03cd5e63	bge	x26,x28,80006428	 x26:0x000003be x28:0x00000000
       33575000	      3356	00000000	00000013	addi	x0,x0,0	  x0:0x00000000
       33585000	      3357	80006424	00000013	addi	x0,x0,0	  x0:0x00000000
       33595000	      3358	80006428	df768e93	addi	x29,x13,-521	 x13:0x00000001 x29=0xfffffdf8
       33605000	      3359	8000642c	401a8bb3	sub	x23,x21,x1	 x21:0x00000000  x1:0x00000000 x23=0x00000000
       33615000	      3360	80006430	00ab4663	blt	x22,x10,8000643c	 x22:0x00000000 x10:0x00000000
       33625000	      3361	80006434	8894ae13	slti	x28,x9,-1911	  x9:0x00000558 x28=0x00000000
       33635000	      3362	80006438	0091eab3	or	x21,x3,x9	  x3:0xfdf7fd3d  x9:0x00000558 x21=0xfdf7fd7d
       33645000	      3363	8000643c	016503b3	add	x7,x10,x22	 x10:0x00000000 x22:0x00000000  x7=0x00000000
       33655000	      3364	80006440	00000013	addi	x0,x0,0	  x0:0x00000000
       33665000	      3365	80006444	00ec8463	beq	x25,x14,8000644c	 x25:0x80009fc4 x14:0x80009e98
       33675000	      3366	80006448	019c8f33	add	x30,x25,x25	 x25:0x80009fc4 x25:0x80009fc4 x30=0x00013f88
       33685000	      3367	8000644c	008c8bb3	add	x23,x25,x8	 x25:0x80009fc4  x8:0x00000000 x23=0x80009fc4
       33695000	      3368	80006450	02966663	bltu	x12,x9,8000647c	 x12:0x00000001  x9:0x00000558
       33705000	      3369	00000000	00000013	addi	x0,x0,0	  x0:0x00000000
       33715000	      3370	80006478	00000013	addi	x0,x0,0	  x0:0x00000000
       33725000	      3371	8000647c	b7cfb293	sltiu	x5,x31,-1156	 x31:0x00000000  x5=0x00000001
       33735000	      3372	80006480	0cd26a93	ori	x21,x4,205	  x4:0xc1942000 x21=0xc19420cd
       33745000	      3373	80006484	01dedbb3	srl	x23,x29,x29	 x29:0xfffffdf8 x29:0xfffffdf8 x23=0x000000ff
       33755000	      3374	80006488	00391ab3	sll	x21,x18,x3	 x18:0x00000000  x3:0xfdf7fd3d x21=0x00000000
       33765000	      3375	8000648c	419d0d33	sub	x26,x26,x25	 x26:0x000003be x25:0x80009fc4 x26=0x7fff63fa
       33775000	      3376	80006490	03311c63	bne	x2,x19,800064c8	  x2:0x00000000 x19:0x00ffffff
       33785000	      3377	00000000	00000013	addi	x0,x0,0	  x0:0x00000000
       33795000	      3378	800064c4	00000013	addi	x0,x0,0	  x0:0x00000000
       33805000	      3379	800064c8	00230833	add	x16,x6,x2	  x6:0xfdf7fd3d  x2:0x00000000 x16=0xfdf7fd3d
       33815000	      3380	800064cc	01819133	sll	x2,x3,x24	  x3:0xfdf7fd3d x24:0x80000000  x2=0xfdf7fd3d
       33825000	      3381	800064d0	00cd1b13	slli	x22,x26,0xc	 x26:0x7fff63fa x22=0xf63fa000
       33835000	      3382	800064d4	036a9a63	bne	x21,x22,80006508	 x21:0x00000000 x22:0xf63fa000
       33845000	      3383	00000000	00000013	addi	x0,x0,0	  x0:0x00000000
       33855000	      3384	80006504	00000013	addi	x0,x0,0	  x0:0x00000000
       33865000	      3385	80006508	006e0e33	add	x28,x28,x6	 x28:0x00000000  x6:0xfdf7fd3d x28=0xfdf7fd3d
       33875000	      3386	8000650c	01bae4b3	or	x9,x21,x27	 x21:0x00000000 x27:0x00100013  x9=0x00100013
       33885000	      3387	80006510	0143f1b3	and	x3,x7,x20	  x7:0x00000000 x20:0x01013d2f  x3=0x00000000
       33895000	      3388	80006514	ccaaff17	auipc	x30,0xccaaf	 x30=0x4cab5510
       33905000	      3389	80006518	41430433	sub	x8,x6,x20	  x6:0xfdf7fd3d x20:0x01013d2f  x8=0xfcf6c00e
       33915000	      3390	8000651c	befe5db7	lui	x27,0xbefe5	 x27=0xbefe5000
       33925000	      3391	80006520	0171b3b3	sltu	x7,x3,x23	  x3:0x00000000 x23:0x000000ff  x7=0x00000001
       33935000	      3392	80006524	011f1863	bne	x30,x17,80006534	 x30:0x4cab5510 x17:0xfffff000
       33945000	      3393	00000000	00000013	addi	x0,x0,0	  x0:0x00000000
       33955000	      3394	80006530	00000013	addi	x0,x0,0	  x0:0x00000000
       33965000	      3395	80006534	01b7e133	or	x2,x15,x27	 x15:0x9e980000 x27:0xbefe5000  x2=0xbefe5000
       33975000	      3396	80006538	044fe463	bltu	x31,x4,80006580	 x31:0x00000000  x4:0xc1942000
       33985000	      3397	00000000	00000013	addi	x0,x0,0	  x0:0x00000000
       33995000	      3398	8000657c	00000013	addi	x0,x0,0	  x0:0x00000000
       34005000	      3399	80006580	0dc36193	ori	x3,x6,220	  x6:0xfdf7fd3d  x3=0xfdf7fdfd
       34015000	      3400	80006584	00e35e63	bge	x6,x14,800065a0	  x6:0xfdf7fd3d x14:0x80009e98
       34025000	      3401	00000000	00000013	addi	x0,x0,0	  x0:0x00000000
       34035000	      3402	8000659c	00000013	addi	x0,x0,0	  x0:0x00000000
       34045000	      3403	800065a0	00000013	addi	x0,x0,0	  x0:0x00000000
       34055000	      3404	800065a4	000f1e33	sll	x28,x30,x0	 x30:0x4cab5510  x0:0x00000000 x28=0x4cab5510
       34065000	      3405	800065a8	412bdb33	sra	x22,x23,x18	 x23:0x000000ff x18:0x00000000 x22=0x000000ff
       34075000	      3406	800065ac	41f15193	srai	x3,x2,0x1f	  x2:0xbefe5000  x3=0xffffffff
       34085000	      3407	800065b0	5a936313	ori	x6,x6,1449	  x6:0xfdf7fd3d  x6=0xfdf7fdbd
       34095000	      3408	800065b4	ab703513	sltiu	x10,x0,-1353	  x0:0x00000000 x10=0x00000001
       34105000	      3409	800065b8	00000013	addi	x0,x0,0	  x0:0x00000000
       34115000	      3410	800065bc	001506b3	add	x13,x10,x1	 x10:0x00000001  x1:0x00000000 x13=0x00000001
       34125000	      3411	800065c0	010e31b3	sltu	x3,x28,x16	 x28:0x4cab5510 x16:0xfdf7fd3d  x3=0x00000001
       34135000	      3412	800065c4	0191a133	slt	x2,x3,x25	  x3:0x00000001 x25:0x80009fc4  x2=0x00000000
       34145000	      3413	800065c8	41445213	srai	x4,x8,0x14	  x8:0xfcf6c00e  x4=0xffffffcf
       34155000	      3414	800065cc	009a42b3	xor	x5,x20,x9	 x20:0x01013d2f  x9:0x00100013  x5=0x01113d3c
       34165000	      3415	800065d0	003ec663	blt	x29,x3,800065dc	 x29:0xfffffdf8  x3:0x00000001
       34175000	      3416	00000000	00000013	addi	x0,x0,0	  x0:0x00000000
       34185000	      3417	800065d8	00000013	addi	x0,x0,0	  x0:0x00000000
       34195000	      3418	800065dc	00000013	addi	x0,x0,0	  x0:0x00000000
       34205000	      3419	800065e0	003e9593	slli	x11,x29,0x3	 x29:0xfffffdf8 x11=0xffffefc0
       34215000	      3420	800065e4	02919a63	bne	x3,x9,80006618	  x3:0x00000001  x9:0x00100013
       34225000	      3421	00000000	00000013	addi	x0,x0,0	  x0:0x00000000
       34235000	      3422	80006614	00000013	addi	x0,x0,0	  x0:0x00000000
       34245000	      3423	80006618	01cf9293	slli	x5,x31,0x1c	 x31:0x00000000  x5=0x00000000
       34255000	      3424	8000661c	00d583b3	add	x7,x11,x13	 x11:0xffffefc0 x13:0x00000001  x7=0xffffefc1
       34265000	      3425	80006620	00a280b3	add	x1,x5,x10	  x5:0x00000000 x10:0x00000001  x1=0x00000001
       34275000	      3426	80006624	03264663	blt	x12,x18,80006650	 x12:0x00000001 x18:0x00000000
       34285000	      3427	80006628	05249463	bne	x9,x18,80006670	  x9:0x00100013 x18:0x00000000
       34295000	      3428	00000000	00000013	addi	x0,x0,0	  x0:0x00000000
       34305000	      3429	8000666c	00000013	addi	x0,x0,0	  x0:0x00000000
       34315000	      3430	80006670	2cf2cd13	xori	x26,x5,719	  x5:0x00000000 x26=0x000002cf
       34325000	      3431	80006674	00621093	slli	x1,x4,0x6	  x4:0xffffffcf  x1=0xfffff3c0
       34335000	      3432	80006678	d3687937	lui	x18,0xd3687	 x18=0xd3687000
       34345000	      3433	8000667c	027e7663	bgeu	x28,x7,800066a8	 x28:0x4cab5510  x7:0xffffefc1
       34355000	      3434	80006680	03e99263	bne	x19,x30,800066a4	 x19:0x00ffffff x30:0x4cab5510
       34365000	      3435	00000000	00000013	addi	x0,x0,0	  x0:0x00000000
       34375000	      3436	800066a0	00000013	addi	x0,x0,0	  x0:0x00000000
       34385000	      3437	800066a4	01df4a33	xor	x20,x30,x29	 x30:0x4cab5510 x29:0xfffffdf8 x20=0xb354a8e8
       34395000	      3438	800066a8	0045eab3	or	x21,x11,x4	 x11:0xffffefc0  x4:0xffffffcf x21=0xffffffcf
       34405000	      3439	800066ac	01c82eb3	slt	x29,x16,x28	 x16:0xfdf7fd3d x28:0x4cab5510 x29=0x00000001
       34415000	      3440	800066b0	0067c663	blt	x15,x6,800066bc	 x15:0x9e980000  x6:0xfdf7fdbd
       34425000	      3441	00000000	00000013	addi	x0,x0,0	  x0:0x00000000
       34435000	      3442	800066b8	00000013	addi	x0,x0,0	  x0:0x00000000
       34445000	      3443	800066bc	03eeea63	bltu	x29,x30,800066f0	 x29:0x00000001 x30:0x4cab5510
       34455000	      3444	00000000	00000013	addi	x0,x0,0	  x0:0x00000000
       34465000	      3445	800066ec	00000013	addi	x0,x0,0	  x0:0x00000000
       34475000	      3446	800066f0	00c8e833	or	x16,x17,x12	 x17:0xfffff000 x12:0x00000001 x16=0xfffff001
       34485000	      3447	800066f4	00b24833	xor	x16,x4,x11	  x4:0xffffffcf x11:0xffffefc0 x16=0x0000100f
       34495000	      3448	800066f8	00a24bb3	xor	x23,x4,x10	  x4:0xffffffcf x10:0x00000001 x23=0xffffffce
       34505000	      3449	800066fc	01fca033	slt	x0,x25,x31	 x25:0x80009fc4 x31:0x00000000
       34515000	      3450	80006700	00000013	addi	x0,x0,0	  x0:0x00000000
       34525000	      3451	80006704	01f12fb3	slt	x31,x2,x31	  x2:0x00000000 x31:0x00000000 x31=0x00000000
       34535000	      3452	80006708	025de663	bltu	x27,x5,80006734	 x27:0xbefe5000  x5:0x00000000
       34545000	      3453	8000670c	bd507e93	andi	x29,x0,-1067	  x0:0x00000000 x29=0x00000000
       34555000	      3454	80006710	01342bb3	slt	x23,x8,x19	  x8:0xfcf6c00e x19:0x00ffffff x23=0x00000001
       34565000	      3455	80006714	01d62633	slt	x12,x12,x29	 x12:0x00000001 x29:0x00000000 x12=0x00000000
       34575000	      3456	80006718	0115c433	xor	x8,x11,x17	 x11:0xffffefc0 x17:0xfffff000  x8=0x00001fc0
       34585000	      3457	8000671c	4011de13	srai	x28,x3,0x1	  x3:0x00000001 x28=0x00000000
       34595000	      3458	80006720	00000013	addi	x0,x0,0	  x0:0x00000000
       34605000	      3459	80006724	002bf533	and	x10,x23,x2	 x23:0x00000001  x2:0x00000000 x10=0x00000000
       34615000	      3460	80006728	006838b3	sltu	x17,x16,x6	 x16:0x0000100f  x6:0xfdf7fdbd x17=0x00000001
       34625000	      3461	8000672c	416e0033	sub	x0,x28,x22	 x28:0x00000000 x22:0x000000ff
       34635000	      3462	80006730	02395e63	bge	x18,x3,8000676c	 x18:0xd3687000  x3:0x00000001
       34645000	      3463	80006734	00666a33	or	x20,x12,x6	 x12:0x00000000  x6:0xfdf7fdbd x20=0xfdf7fdbd
       34655000	      3464	80006738	025ffc63	bgeu	x31,x5,80006770	 x31:0x00000000  x5:0x00000000
       34665000	      3465	00000000	00000013	addi	x0,x0,0	  x0:0x00000000
       34675000	      3466	8000676c	00000013	addi	x0,x0,0	  x0:0x00000000
       34685000	      3467	80006770	400f58b3	sra	x17,x30,x0	 x30:0x4cab5510  x0:0x00000000 x17=0x4cab5510
       34695000	      3468	80006774	41565013	srai	x0,x12,0x15	 x12:0x00000000
       34705000	      3469	80006778	00000013	addi	x0,x0,0	  x0:0x00000000
       34715000	      3470	8000677c	00000013	addi	x0,x0,0	  x0:0x00000000
       34725000	      3471	80006780	a8352113	slti	x2,x10,-1405	 x10:0x00000000  x2=0x00000000
       34735000	      3472	80006784	00d0e4b3	or	x9,x1,x13	  x1:0xfffff3c0 x13:0x00000001  x9=0xfffff3c1
       34745000	      3473	80006788	00bd1633	sll	x12,x26,x11	 x26:0x000002cf x11:0xffffefc0 x12=0x000002cf
       34755000	      3474	8000678c	00c99013	slli	x0,x19,0xc	 x19:0x00ffffff
       34765000	      3475	80006790	404f5a13	srai	x20,x30,0x4	 x30:0x4cab5510 x20=0x04cab551
       34775000	      3476	80006794	0056a333	slt	x6,x13,x5	 x13:0x00000001  x5:0x00000000  x6=0x00000000
       34785000	      3477	80006798	0074e6b3	or	x13,x9,x7	  x9:0xfffff3c1  x7:0xffffefc1 x13=0xffffffc1
       34795000	      3478	8000679c	0098a433	slt	x8,x17,x9	 x17:0x4cab5510  x9:0xfffff3c1  x8=0x00000000
       34805000	      3479	800067a0	0012bbb3	sltu	x23,x5,x1	  x5:0x00000000  x1:0xfffff3c0 x23=0x00000001
       34815000	      3480	800067a4	0075b2b3	sltu	x5,x11,x7	 x11:0xffffefc0  x7:0xffffefc1  x5=0x00000001
       34825000	      3481	800067a8	01c57533	and	x10,x10,x28	 x10:0x00000000 x28:0x00000000 x10=0x00000000
       34835000	      3482	800067ac	014a9863	bne	x21,x20,800067bc	 x21:0xffffffcf x20:0x04cab551
       34845000	      3483	00000000	00000013	addi	x0,x0,0	  x0:0x00000000
       34855000	      3484	800067b8	00000013	addi	x0,x0,0	  x0:0x00000000
       34865000	      3485	800067bc	7dc97e13	andi	x28,x18,2012	 x18:0xd3687000 x28=0x00000000
       34875000	      3486	800067c0	41cadf33	sra	x30,x21,x28	 x21:0xffffffcf x28:0x00000000 x30=0xffffffcf
       34885000	      3487	800067c4	01928a63	beq	x5,x25,800067d8	  x5:0x00000001 x25:0x80009fc4
       34895000	      3488	800067c8	00390b33	add	x22,x18,x3	 x18:0xd3687000  x3:0x00000001 x22=0xd3687001
       34905000	      3489	800067cc	01342533	slt	x10,x8,x19	  x8:0x00000000 x19:0x00ffffff x10=0x00000001
       34915000	      3490	800067d0	00bdb933	sltu	x18,x27,x11	 x27:0xbefe5000 x11:0xffffefc0 x18=0x00000001
       34925000	      3491	800067d4	00fa0663	beq	x20,x15,800067e0	 x20:0x04cab551 x15:0x9e980000
       34935000	      3492	800067d8	00e39b33	sll	x22,x7,x14	  x7:0xffffefc1 x14:0x80009e98 x22=0xc1000000
       34945000	      3493	800067dc	6b888a13	addi	x20,x17,1720	 x17:0x4cab5510 x20=0x4cab5bc8
       34955000	      3494	800067e0	00fbd493	srli	x9,x23,0xf	 x23:0x00000001  x9=0x00000000
       34965000	      3495	800067e4	f22f7f93	andi	x31,x30,-222	 x30:0xffffffcf x31=0xffffff02
       34975000	      3496	800067e8	01460db7	lui	x27,0x1460	 x27=0x01460000
       34985000	      3497	800067ec	03006a63	bltu	x0,x16,80006820	  x0:0x00000000 x16:0x0000100f
       34995000	      3498	00000000	00000013	addi	x0,x0,0	  x0:0x00000000
       35005000	      3499	8000681c	00000013	addi	x0,x0,0	  x0:0x00000000
       35015000	      3500	80006820	d435e797	auipc	x15,0xd435e	 x15=0x5436481c
       35025000	      3501	80006824	570ee813	ori	x16,x29,1392	 x29:0x00000000 x16=0x00000570
       35035000	      3502	80006828	00edf463	bgeu	x27,x14,80006830	 x27:0x01460000 x14:0x80009e98
       35045000	      3503	8000682c	0022fa63	bgeu	x5,x2,80006840	  x5:0x00000001  x2:0x00000000
       35055000	      3504	00000000	00000013	addi	x0,x0,0	  x0:0x00000000
       35065000	      3505	8000683c	00000013	addi	x0,x0,0	  x0:0x00000000
       35075000	      3506	80006840	43e32493	slti	x9,x6,1086	  x6:0x00000000  x9=0x00000001
       35085000	      3507	80006844	4045d133	sra	x2,x11,x4	 x11:0xffffefc0  x4:0xffffffcf  x2=0xffffffff
       35095000	      3508	80006848	c5e1b893	sltiu	x17,x3,-930	  x3:0x00000001 x17=0x00000001
       35105000	      3509	8000684c	00bc6633	or	x12,x24,x11	 x24:0x80000000 x11:0xffffefc0 x12=0xffffefc0
       35115000	      3510	80006850	03a8c663	blt	x17,x26,8000687c	 x17:0x00000001 x26:0x000002cf
       35125000	      3511	00000000	00000013	addi	x0,x0,0	  x0:0x00000000
       35135000	      3512	80006878	00000013	addi	x0,x0,0	  x0:0x00000000
       35145000	      3513	8000687c	05259263	bne	x11,x18,800068c0	 x11:0xffffefc0 x18:0x00000001
       35155000	      3514	00000000	00000013	addi	x0,x0,0	  x0:0x00000000
       35165000	      3515	800068bc	00000013	addi	x0,x0,0	  x0:0x00000000
       35175000	      3516	800068c0	bb721f97	auipc	x31,0xbb721	 x31=0x3b7278bc
       35185000	      3517	800068c4	495ab493	sltiu	x9,x21,1173	 x21:0xffffffcf  x9=0x00000000
       35195000	      3518	800068c8	051d9063	bne	x27,x17,80006908	 x27:0x01460000 x17:0x00000001
       35205000	      3519	00000000	00000013	addi	x0,x0,0	  x0:0x00000000
       35215000	      3520	80006904	00000013	addi	x0,x0,0	  x0:0x00000000
       35225000	      3521	80006908	59d87213	andi	x4,x16,1437	 x16:0x00000570  x4=0x00000510
       35235000	      3522	8000690c	ebf13613	sltiu	x12,x2,-321	  x2:0xffffffff x12=0x00000000
       35245000	      3523	80006910	00ff7e63	bgeu	x30,x15,8000692c	 x30:0xffffffcf x15:0x5436481c
       35255000	      3524	00000000	00000013	addi	x0,x0,0	  x0:0x00000000
       35265000	      3525	80006928	00000013	addi	x0,x0,0	  x0:0x00000000
       35275000	      3526	8000692c	1b857337	lui	x6,0x1b857	  x6=0x1b857000
       35285000	      3527	80006930	016e02b3	add	x5,x28,x22	 x28:0x00000000 x22:0xc1000000  x5=0xc1000000
       35295000	      3528	80006934	e8094993	xori	x19,x18,-384	 x18:0x00000001 x19=0xfffffe81
       35305000	      3529	80006938	a7b3b117	auipc	x2,0xa7b3b	  x2=0x27b41934
       35315000	      3530	8000693c	01fb5d93	srli	x27,x22,0x1f	 x22:0xc1000000 x27=0x00000001
       35325000	      3531	80006940	01eb5513	srli	x10,x22,0x1e	 x22:0xc1000000 x10=0x00000003
       35335000	      3532	80006944	40ad88b3	sub	x17,x27,x10	 x27:0x00000001 x10:0x00000003 x17=0xfffffffe
       35345000	      3533	80006948	a2dae493	ori	x9,x21,-1491	 x21:0xffffffcf  x9=0xffffffef
       35355000	      3534	8000694c	003143b3	xor	x7,x2,x3	  x2:0x27b41934  x3:0x00000001  x7=0x27b41935
       35365000	      3535	80006950	08457293	andi	x5,x10,132	 x10:0x00000003  x5=0x00000000
       35375000	      3536	80006954	13c03813	sltiu	x16,x0,316	  x0:0x00000000 x16=0x00000001
       35385000	      3537	80006958	408b83b3	sub	x7,x23,x8	 x23:0x00000001  x8:0x00000000  x7=0x00000001
       35395000	      3538	8000695c	41f18633	sub	x12,x3,x31	  x3:0x00000001 x31:0x3b7278bc x12=0xc48d8745
       35405000	      3539	80006960	003afa63	bgeu	x21,x3,80006974	 x21:0xffffffcf  x3:0x00000001
       35415000	      3540	00000000	00000013	addi	x0,x0,0	  x0:0x00000000
       35425000	      3541	80006970	00000013	addi	x0,x0,0	  x0:0x00000000
       35435000	      3542	80006974	00bf7ab3	and	x21,x30,x11	 x30:0xffffffcf x11:0xffffefc0 x21=0xffffefc0
       35445000	      3543	80006978	00777233	and	x4,x14,x7	 x14:0x80009e98  x7:0x00000001  x4=0x00000000
       35455000	      3544	8000697c	00285793	srli	x15,x16,0x2	 x16:0x00000001 x15=0x00000000
       35465000	      3545	80006980	025e4663	blt	x28,x5,800069ac	 x28:0x00000000  x5:0x00000000
       35475000	      3546	80006984	054d8063	beq	x27,x20,800069c4	 x27:0x00000001 x20:0x4cab5bc8
       35485000	      3547	80006988	013b9663	bne	x23,x19,80006994	 x23:0x00000001 x19:0xfffffe81
       35495000	      3548	00000000	00000013	addi	x0,x0,0	  x0:0x00000000
       35505000	      3549	80006990	00000013	addi	x0,x0,0	  x0:0x00000000
       35515000	      3550	80006994	75aac113	xori	x2,x21,1882	 x21:0xffffefc0  x2=0xffffe89a
       35525000	      3551	80006998	e8a36f13	ori	x30,x6,-374	  x6:0x1b857000 x30=0xfffffe8a
       35535000	      3552	8000699c	00000013	addi	x0,x0,0	  x0:0x00000000
       35545000	      3553	800069a0	012c14b3	sll	x9,x24,x18	 x24:0x80000000 x18:0x00000001  x9=0x00000000
       35555000	      3554	800069a4	409e0b33	sub	x22,x28,x9	 x28:0x00000000  x9:0x00000000 x22=0x00000000
       35565000	      3555	800069a8	41f8de33	sra	x28,x17,x31	 x17:0xfffffffe x31:0x3b7278bc x28=0xffffffff
       35575000	      3556	800069ac	56e32793	slti	x15,x6,1390	  x6:0x1b857000 x15=0x00000000
       35585000	      3557	800069b0	280d3f93	sltiu	x31,x26,640	 x26:0x000002cf x31=0x00000000
       35595000	      3558	800069b4	00000013	addi	x0,x0,0	  x0:0x00000000
       35605000	      3559	800069b8	00000013	addi	x0,x0,0	  x0:0x00000000
       35615000	      3560	800069bc	0027dbb3	srl	x23,x15,x2	 x15:0x00000000  x2:0xffffe89a x23=0x00000000
       35625000	      3561	800069c0	02e0ec63	bltu	x1,x14,800069f8	  x1:0xfffff3c0 x14:0x80009e98
       35635000	      3562	800069c4	00ad0463	beq	x26,x10,800069cc	 x26:0x000002cf x10:0x00000003
       35645000	      3563	800069c8	4061deb3	sra	x29,x3,x6	  x3:0x00000001  x6:0x1b857000 x29=0x00000001
       35655000	      3564	800069cc	6b35f793	andi	x15,x11,1715	 x11:0xffffefc0 x15=0x00000680
       35665000	      3565	800069d0	0270ee63	bltu	x1,x7,80006a0c	  x1:0xfffff3c0  x7:0x00000001
       35675000	      3566	800069d4	40d052b3	sra	x5,x0,x13	  x0:0x00000000 x13:0xffffffc1  x5=0x00000000
       35685000	      3567	800069d8	05047463	bgeu	x8,x16,80006a20	  x8:0x00000000 x16:0x00000001
       35695000	      3568	800069dc	fca4a793	slti	x15,x9,-54	  x9:0x00000000 x15=0x00000000
       35705000	      3569	800069e0	02f57263	bgeu	x10,x15,80006a04	 x10:0x00000003 x15:0x00000000
       35715000	      3570	00000000	00000013	addi	x0,x0,0	  x0:0x00000000
       35725000	      3571	80006a00	00000013	addi	x0,x0,0	  x0:0x00000000
       35735000	      3572	80006a04	40915393	srai	x7,x2,0x9	  x2:0xffffe89a  x7=0xfffffff4
       35745000	      3573	80006a08	31106f17	auipc	x30,0x31106	 x30=0xb110ca04
       35755000	      3574	80006a0c	41b758b3	sra	x17,x14,x27	 x14:0x80009e98 x27:0x00000001 x17=0xc0004f4c
       35765000	      3575	80006a10	03a27a63	bgeu	x4,x26,80006a44	  x4:0x00000000 x26:0x000002cf
       35775000	      3576	80006a14	b7d27413	andi	x8,x4,-1155	  x4:0x00000000  x8=0x00000000
       35785000	      3577	80006a18	00751593	slli	x11,x10,0x7	 x10:0x00000003 x11=0x00000180
       35795000	      3578	80006a1c	0e8f9e97	auipc	x29,0xe8f9	 x29=0x8e8ffa18
       35805000	      3579	80006a20	fa3de493	ori	x9,x27,-93	 x27:0x00000001  x9=0xffffffa3
       35815000	      3580	80006a24	440aae13	slti	x28,x21,1088	 x21:0xffffefc0 x28=0x00000001
       35825000	      3581	80006a28	01721b93	slli	x23,x4,0x17	  x4:0x00000000 x23=0x00000000
       35835000	      3582	80006a2c	00000013	addi	x0,x0,0	  x0:0x00000000
       35845000	      3583	80006a30	40585933	sra	x18,x16,x5	 x16:0x00000001  x5:0x00000000 x18=0x00000001
       35855000	      3584	80006a34	48b35f97	auipc	x31,0x48b35	 x31=0xc8b3ba30
       35865000	      3585	80006a38	003f1433	sll	x8,x30,x3	 x30:0xb110ca04  x3:0x00000001  x8=0x62219408
       35875000	      3586	80006a3c	419681b3	sub	x3,x13,x25	 x13:0xffffffc1 x25:0x80009fc4  x3=0x7fff5ffd
       35885000	      3587	80006a40	02b35863	bge	x6,x11,80006a70	  x6:0x1b857000 x11:0x00000180
       35895000	      3588	00000000	00000013	addi	x0,x0,0	  x0:0x00000000
       35905000	      3589	80006a6c	00000013	addi	x0,x0,0	  x0:0x00000000
       35915000	      3590	80006a70	01e1b1b3	sltu	x3,x3,x30	  x3:0x7fff5ffd x30:0xb110ca04  x3=0x00000001
       35925000	      3591	80006a74	01498a63	beq	x19,x20,80006a88	 x19:0xfffffe81 x20:0x4cab5bc8
       35935000	      3592	80006a78	99d64f13	xori	x30,x12,-1635	 x12:0xc48d8745 x30=0x3b727ed8
       35945000	      3593	80006a7c	01febbb3	sltu	x23,x29,x31	 x29:0x8e8ffa18 x31:0xc8b3ba30 x23=0x00000001
       35955000	      3594	80006a80	00467633	and	x12,x12,x4	 x12:0xc48d8745  x4:0x00000000 x12=0x00000000
       35965000	      3595	80006a84	026e6663	bltu	x28,x6,80006ab0	 x28:0x00000001  x6:0x1b857000
       35975000	      3596	00000000	00000013	addi	x0,x0,0	  x0:0x00000000
       35985000	      3597	80006aac	00000013	addi	x0,x0,0	  x0:0x00000000
       35995000	      3598	80006ab0	00000013	addi	x0,x0,0	  x0:0x00000000
       36005000	      3599	80006ab4	01057bb3	and	x23,x10,x16	 x10:0x00000003 x16:0x00000001 x23=0x00000001
       36015000	      3600	80006ab8	2a014213	xori	x4,x2,672	  x2:0xffffe89a  x4=0xffffea3a
       36025000	      3601	80006abc	8f978593	addi	x11,x15,-1799	 x15:0x00000000 x11=0xfffff8f9
       36035000	      3602	80006ac0	f9d92e13	slti	x28,x18,-99	 x18:0x00000001 x28=0x00000000
       36045000	      3603	80006ac4	000803b3	add	x7,x16,x0	 x16:0x00000001  x0:0x00000000  x7=0x00000001
       36055000	      3604	80006ac8	19ae0113	addi	x2,x28,410	 x28:0x00000000  x2=0x0000019a
       36065000	      3605	80006acc	0013a1b3	slt	x3,x7,x1	  x7:0x00000001  x1:0xfffff3c0  x3=0x00000000
       36075000	      3606	80006ad0	41448b93	addi	x23,x9,1044	  x9:0xffffffa3 x23=0x000003b7
       36085000	      3607	80006ad4	418c5e13	srai	x28,x24,0x18	 x24:0x80000000 x28=0xffffff80
       36095000	      3608	80006ad8	0974ff93	andi	x31,x9,151	  x9:0xffffffa3 x31=0x00000083
       36105000	      3609	80006adc	01e31593	slli	x11,x6,0x1e	  x6:0x1b857000 x11=0x00000000
       36115000	      3610	80006ae0	016214b3	sll	x9,x4,x22	  x4:0xffffea3a x22:0x00000000  x9=0xffffea3a
       36125000	      3611	80006ae4	5d52e013	ori	x0,x5,1493	  x5:0x00000000
       36135000	      3612	80006ae8	00321bb3	sll	x23,x4,x3	  x4:0xffffea3a  x3:0x00000000 x23=0xffffea3a
       36145000	      3613	80006aec	00735463	bge	x6,x7,80006af4	  x6:0x1b857000  x7:0x00000001
       36155000	      3614	00000000	00000013	addi	x0,x0,0	  x0:0x00000000
       36165000	      3615	80006af0	00000013	addi	x0,x0,0	  x0:0x00000000
       36175000	      3616	80006af4	01249493	slli	x9,x9,0x12	  x9:0xffffea3a  x9=0xa8e80000
       36185000	      3617	80006af8	0189ee63	bltu	x19,x24,80006b14	 x19:0xfffffe81 x24:0x80000000
       36195000	      3618	80006afc	b0ab7a97	auipc	x21,0xb0ab7	 x21=0x30abdaf8
       36205000	      3619	80006b00	0003b6b3	sltu	x13,x7,x0	  x7:0x00000001  x0:0x00000000 x13=0x00000000
       36215000	      3620	80006b04	092fe093	ori	x1,x31,146	 x31:0x00000083  x1=0x00000093
       36225000	      3621	80006b08	014c9333	sll	x6,x25,x20	 x25:0x80009fc4 x20:0x4cab5bc8  x6=0x009fc400
       36235000	      3622	80006b0c	01a425b3	slt	x11,x8,x26	  x8:0x62219408 x26:0x000002cf x11=0x00000000
       36245000	      3623	80006b10	40585213	srai	x4,x16,0x5	 x16:0x00000001  x4=0x00000000
       36255000	      3624	80006b14	01f54d33	xor	x26,x10,x31	 x10:0x00000003 x31:0x00000083 x26=0x00000080
       36265000	      3625	80006b18	00d3fa63	bgeu	x7,x13,80006b2c	  x7:0x00000001 x13:0x00000000
       36275000	      3626	00000000	00000013	addi	x0,x0,0	  x0:0x00000000
       36285000	      3627	80006b28	00000013	addi	x0,x0,0	  x0:0x00000000
       36295000	      3628	80006b2c	01984bb3	xor	x23,x16,x25	 x16:0x00000001 x25:0x80009fc4 x23=0x80009fc5
       36305000	      3629	80006b30	00000013	addi	x0,x0,0	  x0:0x00000000
       36315000	      3630	80006b34	002c6fb3	or	x31,x24,x2	 x24:0x80000000  x2:0x0000019a x31=0x8000019a
       36325000	      3631	80006b38	004d7d33	and	x26,x26,x4	 x26:0x00000080  x4:0x00000000 x26=0x00000000
       36335000	      3632	80006b3c	015bddb3	srl	x27,x23,x21	 x23:0x80009fc5 x21:0x30abdaf8 x27=0x00000080
       36345000	      3633	80006b40	04311263	bne	x2,x3,80006b84	  x2:0x0000019a  x3:0x00000000
       36355000	      3634	00000000	00000013	addi	x0,x0,0	  x0:0x00000000
       36365000	      3635	80006b80	00000013	addi	x0,x0,0	  x0:0x00000000
       36375000	      3636	80006b84	cb9cf113	andi	x2,x25,-839	 x25:0x80009fc4  x2=0x80009c80
       36385000	      3637	80006b88	05480663	beq	x16,x20,80006bd4	 x16:0x00000001 x20:0x4cab5bc8
       36395000	      3638	80006b8c	9d507213	andi	x4,x0,-1579	  x0:0x00000000  x4=0x00000000
       36405000	      3639	80006b90	c6b3e317	auipc	x6,0xc6b3e	  x6=0x46b44b8c
       36415000	      3640	80006b94	014e4a33	xor	x20,x28,x20	 x28:0xffffff80 x20:0x4cab5bc8 x20=0xb354a448
       36425000	      3641	80006b98	000661b3	or	x3,x12,x0	 x12:0x00000000  x0:0x00000000  x3=0x00000000
       36435000	      3642	80006b9c	40110b33	sub	x22,x2,x1	  x2:0x80009c80  x1:0x00000093 x22=0x80009bed
       36445000	      3643	80006ba0	03ae8493	addi	x9,x29,58	 x29:0x8e8ffa18  x9=0x8e8ffa52
       36455000	      3644	80006ba4	00000013	addi	x0,x0,0	  x0:0x00000000
       36465000	      3645	80006ba8	c11eb597	auipc	x11,0xc11eb	 x11=0x411f1ba4
       36475000	      3646	80006bac	406f5ab3	sra	x21,x30,x6	 x30:0x3b727ed8  x6:0x46b44b8c x21=0x0003b727
       36485000	      3647	80006bb0	033ec663	blt	x29,x19,80006bdc	 x29:0x8e8ffa18 x19:0xfffffe81
       36495000	      3648	00000000	00000013	addi	x0,x0,0	  x0:0x00000000
       36505000	      3649	80006bd8	00000013	addi	x0,x0,0	  x0:0x00000000
       36515000	      3650	80006bdc	01fb4933	xor	x18,x22,x31	 x22:0x80009bed x31:0x8000019a x18=0x00009a77
       36525000	      3651	80006be0	c1f86513	ori	x10,x16,-993	 x16:0x00000001 x10=0xfffffc1f
       36535000	      3652	80006be4	00c61f33	sll	x30,x12,x12	 x12:0x00000000 x12:0x00000000 x30=0x00000000
       36545000	      3653	80006be8	017b4463	blt	x22,x23,80006bf0	 x22:0x80009bed x23:0x80009fc5
       36555000	      3654	00000000	00000013	addi	x0,x0,0	  x0:0x00000000
       36565000	      3655	80006bec	00000013	addi	x0,x0,0	  x0:0x00000000
       36575000	      3656	80006bf0	013ede63	bge	x29,x19,80006c0c	 x29:0x8e8ffa18 x19:0xfffffe81
       36585000	      3657	80006bf4	409b06b3	sub	x13,x22,x9	 x22:0x80009bed  x9:0x8e8ffa52 x13=0xf170a19b
       36595000	      3658	80006bf8	00000013	addi	x0,x0,0	  x0:0x00000000
       36605000	      3659	80006bfc	019886b3	add	x13,x17,x25	 x17:0xc0004f4c x25:0x80009fc4 x13=0x4000ef10
       36615000	      3660	80006c00	02107a63	bgeu	x0,x1,80006c34	  x0:0x00000000  x1:0x00000093
       36625000	      3661	80006c04	c0aeb093	sltiu	x1,x29,-1014	 x29:0x8e8ffa18  x1=0x00000001
       36635000	      3662	80006c08	41770db3	sub	x27,x14,x23	 x14:0x80009e98 x23:0x80009fc5 x27=0xfffffed3
       36645000	      3663	80006c0c	fe232293	slti	x5,x6,-30	  x6:0x46b44b8c  x5=0x00000000
       36655000	      3664	80006c10	014b2233	slt	x4,x22,x20	 x22:0x80009bed x20:0xb354a448  x4=0x00000001
       36665000	      3665	80006c14	01379213	slli	x4,x15,0x13	 x15:0x00000000  x4=0x00000000
       36675000	      3666	80006c18	0148d433	srl	x8,x17,x20	 x17:0xc0004f4c x20:0xb354a448  x8=0x00c0004f
       36685000	      3667	80006c1c	007d1c63	bne	x26,x7,80006c34	 x26:0x00000000  x7:0x00000001
       36695000	      3668	00000000	00000013	addi	x0,x0,0	  x0:0x00000000
       36705000	      3669	80006c30	00000013	addi	x0,x0,0	  x0:0x00000000
       36715000	      3670	80006c34	00b4ba33	sltu	x20,x9,x11	  x9:0x8e8ffa52 x11:0x411f1ba4 x20=0x00000000
       36725000	      3671	80006c38	b7ad7fb7	lui	x31,0xb7ad7	 x31=0xb7ad7000
       36735000	      3672	80006c3c	0079cb33	xor	x22,x19,x7	 x19:0xfffffe81  x7:0x00000001 x22=0xfffffe80
       36745000	      3673	80006c40	00472903	lw	x18,4(x14)	 x14:0x80009e98 x18=0x80000560 PA:0x80009e9c
       36755000	      3674	80006c44	03870713	addi	x14,x14,56	 x14:0x80009e98 x14=0x80009ed0
       36765000	      3675	80006c48	4100d1b3	sra	x3,x1,x16	  x1:0x00000001 x16:0x00000001  x3=0x00000000
       36775000	      3676	80006c4c	1e218393	addi	x7,x3,482	  x3:0x00000000  x7=0x000001e2
       36785000	      3677	80006c50	00090513	addi	x10,x18,0	 x18:0x80000560 x10=0x80000560
       36795000	      3678	80006c54	00050567	jalr	x10,x10,0	 x10:0x80000560 x10=0x80006c54
       36805000	      3679	00000000	00000013	addi	x0,x0,0	  x0:0x00000000
       36815000	      3680	80000560	00000013	addi	x0,x0,0	  x0:0x00000000
       36825000	      3681	80000564	00fc9e63	bne	x25,x15,80000580	 x25:0x80009fc4 x15:0x00000000
       36835000	      3682	00000000	00000013	addi	x0,x0,0	  x0:0x00000000
       36845000	      3683	8000057c	00000013	addi	x0,x0,0	  x0:0x00000000
       36855000	      3684	80000580	00a25913	srli	x18,x4,0xa	  x4:0x00000000 x18=0x00000000
       36865000	      3685	80000584	4071d2b3	sra	x5,x3,x7	  x3:0x00000000  x7:0x000001e2  x5=0x00000000
       36875000	      3686	80000588	f525f613	andi	x12,x11,-174	 x11:0x411f1ba4 x12=0x411f1b00
       36885000	      3687	8000058c	007cd0b3	srl	x1,x25,x7	 x25:0x80009fc4  x7:0x000001e2  x1=0x200027f1
       36895000	      3688	80000590	57738193	addi	x3,x7,1399	  x7:0x000001e2  x3=0x00000759
       36905000	      3689	80000594	40670a33	sub	x20,x14,x6	 x14:0x80009ed0  x6:0x46b44b8c x20=0x394c5344
       36915000	      3690	80000598	7a9ff493	andi	x9,x31,1961	 x31:0xb7ad7000  x9=0x00000000
       36925000	      3691	8000059c	606d4e13	xori	x28,x26,1542	 x26:0x00000000 x28=0x00000606
       36935000	      3692	800005a0	013638b3	sltu	x17,x12,x19	 x12:0x411f1b00 x19:0xfffffe81 x17=0x00000001
       36945000	      3693	800005a4	41a3d933	sra	x18,x7,x26	  x7:0x000001e2 x26:0x00000000 x18=0x000001e2
       36955000	      3694	800005a8	00917863	bgeu	x2,x9,800005b8	  x2:0x80009c80  x9:0x00000000
       36965000	      3695	00000000	00000013	addi	x0,x0,0	  x0:0x00000000
       36975000	      3696	800005b4	00000013	addi	x0,x0,0	  x0:0x00000000
       36985000	      3697	800005b8	40d55013	srai	x0,x10,0xd	 x10:0x80006c54
       36995000	      3698	800005bc	41275593	srai	x11,x14,0x12	 x14:0x80009ed0 x11=0xffffe000
       37005000	      3699	800005c0	0099db33	srl	x22,x19,x9	 x19:0xfffffe81  x9:0x00000000 x22=0xfffffe81
       37015000	      3700	800005c4	f5bdd297	auipc	x5,0xf5bdd	  x5=0x75bdd5c0
       37025000	      3701	800005c8	02ee5463	bge	x28,x14,800005f0	 x28:0x00000606 x14:0x80009ed0
       37035000	      3702	00000000	00000013	addi	x0,x0,0	  x0:0x00000000
       37045000	      3703	800005ec	00000013	addi	x0,x0,0	  x0:0x00000000
       37055000	      3704	800005f0	00000013	addi	x0,x0,0	  x0:0x00000000
       37065000	      3705	800005f4	01d24263	blt	x4,x29,800005f8	  x4:0x00000000 x29:0x8e8ffa18
       37075000	      3706	800005f8	dce9f417	auipc	x8,0xdce9f	  x8=0x5ce9f5f4
       37085000	      3707	800005fc	de98c113	xori	x2,x17,-535	 x17:0x00000001  x2=0xfffffde8
       37095000	      3708	80000600	929a3093	sltiu	x1,x20,-1751	 x20:0x394c5344  x1=0x00000001
       37105000	      3709	80000604	5a854193	xori	x3,x10,1448	 x10:0x80006c54  x3=0x800069fc
       37115000	      3710	80000608	00472903	lw	x18,4(x14)	 x14:0x80009ed0 x18=0x80000674 PA:0x80009ed4
       37125000	      3711	8000060c	00f05d93	srli	x27,x0,0xf	  x0:0x00000000 x27=0x00000000
       37135000	      3712	80000610	418cdd13	srai	x26,x25,0x18	 x25:0x80009fc4 x26=0xffffff80
       37145000	      3713	80000614	001386b3	add	x13,x7,x1	  x7:0x000001e2  x1:0x00000001 x13=0x000001e3
       37155000	      3714	80000618	01470713	addi	x14,x14,20	 x14:0x80009ed0 x14=0x80009ee4
       37165000	      3715	8000061c	00791613	slli	x12,x18,0x7	 x18:0x80000674 x12=0x00033a00
       37175000	      3716	80000620	40210fb3	sub	x31,x2,x2	  x2:0xfffffde8  x2:0xfffffde8 x31=0x00000000
       37185000	      3717	80000624	00190e13	addi	x28,x18,1	 x18:0x80000674 x28=0x80000675
       37195000	      3718	80000628	000e0e67	jalr	x28,x28,0	 x28:0x80000675 x28=0x80000628
       37205000	      3719	00000000	00000013	addi	x0,x0,0	  x0:0x00000000
       37215000	      3720	80000674	00000013	addi	x0,x0,0	  x0:0x00000000
       37225000	      3721	80000678	00e39113	slli	x2,x7,0xe	  x7:0x000001e2  x2=0x00788000
       37235000	      3722	8000067c	3f50b313	sltiu	x6,x1,1013	  x1:0x00000001  x6=0x00000001
       37245000	      3723	80000680	ec2c3313	sltiu	x6,x24,-318	 x24:0x80000000  x6=0x00000001
       37255000	      3724	80000684	00f4deb3	srl	x29,x9,x15	  x9:0x00000000 x15:0x00000000 x29=0x00000000
       37265000	      3725	80000688	401c5e93	srai	x29,x24,0x1	 x24:0x80000000 x29=0xc0000000
       37275000	      3726	8000068c	0114f463	bgeu	x9,x17,80000694	  x9:0x00000000 x17:0x00000001
       37285000	      3727	80000690	01bd5b93	srli	x23,x26,0x1b	 x26:0xffffff80 x23=0x0000001f
       37295000	      3728	80000694	6ad0396f	jal	x18,80000694	 x18=0x80000694
       37305000	      3729	00000000	00000013	addi	x0,x0,0	  x0:0x00000000
       37315000	      3730	8000453c	00000013	addi	x0,x0,0	  x0:0x00000000
       37325000	      3731	80004540	ff470713	addi	x14,x14,-12	 x14:0x80009ee4 x14=0x80009ed8
       37335000	      3732	80004544	90cffa93	andi	x21,x31,-1780	 x31:0x00000000 x21=0x00000000
       37345000	      3733	80004548	019e8ab3	add	x21,x29,x25	 x29:0xc0000000 x25:0x80009fc4 x21=0x40009fc4
       37355000	      3734	8000454c	ae4b2a13	slti	x20,x22,-1308	 x22:0xfffffe81 x20=0x00000000
       37365000	      3735	80004550	01272223	sw	x18,4(x14)	 x14:0x80009ed8 x18:0x80000694 PA:0x80009edc
       37375000	      3736	80004554	0030c4b3	xor	x9,x1,x3	  x1:0x00000001  x3:0x800069fc  x9=0x800069fd
       37385000	      3737	80004558	00004a17	auipc	x20,0x4	 x20=0x80008554
       37395000	      3738	8000455c	242a0a13	addi	x20,x20,578	 x20:0x80008554 x20=0x80008796
       37405000	      3739	80004560	00000013	addi	x0,x0,0	  x0:0x00000000
       37415000	      3740	80004564	0049f8b3	and	x17,x19,x4	 x19:0xfffffe81  x4:0x00000000 x17=0x00000000
       37425000	      3741	80004568	ffda0103	lb	x2,-3(x20)	 x20:0x80008796  x2=0x00000000 PA:0x80008793
       37435000	      3742	8000456c	ff0a5b83	lhu	x23,-16(x20)	 x20:0x80008796 x23=0x00000000 PA:0x80008786
       37445000	      3743	80004570	00d5d313	srli	x6,x11,0xd	 x11:0xffffe000  x6=0x0007ffff
       37455000	      3744	80004574	ffaa0b83	lb	x23,-6(x20)	 x20:0x80008796 x23=0x00000000 PA:0x80008790
       37465000	      3745	80004578	fffa4683	lbu	x13,-1(x20)	 x20:0x80008796 x13=0x00000000 PA:0x80008795
       37475000	      3746	8000457c	005a06a3	sb	x5,13(x20)	 x20:0x80008796  x5:0x75bdd5c0 PA:0x800087a3
       37485000	      3747	80004580	001108b3	add	x17,x2,x1	  x2:0x00000000  x1:0x00000001 x17=0x00000001
       37495000	      3748	80004584	4047db93	srai	x23,x15,0x4	 x15:0x00000000 x23=0x00000000
       37505000	      3749	80004588	000d4d33	xor	x26,x26,x0	 x26:0xffffff80  x0:0x00000000 x26=0xffffff80
       37515000	      3750	8000458c	004a2323	sw	x4,6(x20)	 x20:0x80008796  x4:0x00000000 PA:0x8000879c
       37525000	      3751	80004590	ff3a4783	lbu	x15,-13(x20)	 x20:0x80008796 x15=0x00000000 PA:0x80008789
       37535000	      3752	80004594	34ec9417	auipc	x8,0x34ec9	  x8=0xb4ecd590
       37545000	      3753	80004598	24eb8413	addi	x8,x23,590	 x23:0x00000000  x8=0x0000024e
       37555000	      3754	8000459c	2be36693	ori	x13,x6,702	  x6:0x0007ffff x13=0x0007ffff
       37565000	      3755	800045a0	000a4b83	lbu	x23,0(x20)	 x20:0x80008796 x23=0x00000000 PA:0x80008796
       37575000	      3756	800045a4	00aa1723	sh	x10,14(x20)	 x20:0x80008796 x10:0x80006c54 PA:0x800087a4
       37585000	      3757	800045a8	ff5a0803	lb	x16,-11(x20)	 x20:0x80008796 x16=0x00000000 PA:0x8000878b
       37595000	      3758	00000000	00000013	addi	x0,x0,0	  x0:0x00000000
       37605000	      3759	800045ac	ff0a1383	lh	x7,-16(x20)	 x20:0x80008796  x7=0x00000000 PA:0x80008786
       37615000	      3760	800045b0	12b04f93	xori	x31,x0,299	  x0:0x00000000 x31=0x0000012b
       37625000	      3761	800045b4	001a4103	lbu	x2,1(x20)	 x20:0x80008796  x2=0x0000004e PA:0x80008797
       37635000	      3762	800045b8	ff8a09a3	sb	x24,-13(x20)	 x20:0x80008796 x24:0x80000000 PA:0x80008789
       37645000	      3763	800045bc	ff6a2923	sw	x22,-14(x20)	 x20:0x80008796 x22:0xfffffe81 PA:0x80008788
       37655000	      3764	800045c0	41c603b3	sub	x7,x12,x28	 x12:0x00033a00 x28:0x80000628  x7=0x800333d8
       37665000	      3765	800045c4	014a2123	sw	x20,2(x20)	 x20:0x80008796 x20:0x80008796 PA:0x80008798
       37675000	      3766	800045c8	ff1a0003	lb	x0,-15(x20)	 x20:0x80008796 PA:0x80008787
       37685000	      3767	800045cc	012a0323	sb	x18,6(x20)	 x20:0x80008796 x18:0x80000694 PA:0x8000879c
       37695000	      3768	800045d0	008a00a3	sb	x8,1(x20)	 x20:0x80008796  x8:0x0000024e PA:0x80008797
       37705000	      3769	800045d4	018a02a3	sb	x24,5(x20)	 x20:0x80008796 x24:0x80000000 PA:0x8000879b
       37715000	      3770	800045d8	ff8a1883	lh	x17,-8(x20)	 x20:0x80008796 x17=0x00000000 PA:0x8000878e
       37725000	      3771	00000000	00000013	addi	x0,x0,0	  x0:0x00000000
       37735000	      3772	800045dc	011105b3	add	x11,x2,x17	  x2:0x0000004e x17:0x00000000 x11=0x0000004e
       37745000	      3773	800045e0	ffca0783	lb	x15,-4(x20)	 x20:0x80008796 x15=0x00000000 PA:0x80008792
       37755000	      3774	800045e4	ff4a4403	lbu	x8,-12(x20)	 x20:0x80008796  x8=0x000000ff PA:0x8000878a
       37765000	      3775	800045e8	005a4403	lbu	x8,5(x20)	 x20:0x80008796  x8=0x00000000 PA:0x8000879b
       37775000	      3776	800045ec	002a5383	lhu	x7,2(x20)	 x20:0x80008796  x7=0x00008796 PA:0x80008798
       37785000	      3777	800045f0	ff3a0283	lb	x5,-13(x20)	 x20:0x80008796  x5=0xfffffffe PA:0x80008789
       37795000	      3778	800045f4	feaa09a3	sb	x10,-13(x20)	 x20:0x80008796 x10:0x80006c54 PA:0x80008789
       37805000	      3779	800045f8	012ed493	srli	x9,x29,0x12	 x29:0xc0000000  x9=0x00003000
       37815000	      3780	800045fc	002a0203	lb	x4,2(x20)	 x20:0x80008796  x4=0xffffff96 PA:0x80008798
       37825000	      3781	80004600	00004117	auipc	x2,0x4	  x2=0x800085fc
       37835000	      3782	80004604	41910113	addi	x2,x2,1049	  x2:0x800085fc  x2=0x80008a15
       37845000	      3783	80004608	9a48b213	sltiu	x4,x17,-1628	 x17:0x00000000  x4=0x00000001
       37855000	      3784	8000460c	f7310d83	lb	x27,-141(x2)	  x2:0x80008a15 x27=0x00000000 PA:0x80008988
       37865000	      3785	80004610	40895d13	srai	x26,x18,0x8	 x18:0x80000694 x26=0xff800006
       37875000	      3786	80004614	0ac10d83	lb	x27,172(x2)	  x2:0x80008a15 x27=0x00000000 PA:0x80008ac1
       37885000	      3787	80004618	484f7813	andi	x16,x30,1156	 x30:0x00000000 x16=0x00000000
       37895000	      3788	8000461c	4087deb3	sra	x29,x15,x8	 x15:0x00000000  x8:0x00000000 x29=0x00000000
       37905000	      3789	80004620	0138d293	srli	x5,x17,0x13	 x17:0x00000000  x5=0x00000000
       37915000	      3790	80004624	f6610a83	lb	x21,-154(x2)	  x2:0x80008a15 x21=0x00000000 PA:0x8000897b
       37925000	      3791	80004628	090121a3	sw	x16,131(x2)	  x2:0x80008a15 x16:0x00000000 PA:0x80008a98
       37935000	      3792	8000462c	f4611da3	sh	x6,-165(x2)	  x2:0x80008a15  x6:0x0007ffff PA:0x80008970
       37945000	      3793	80004630	0af14083	lbu	x1,175(x2)	  x2:0x80008a15  x1=0x00000000 PA:0x80008ac4
       37955000	      3794	80004634	06414403	lbu	x8,100(x2)	  x2:0x80008a15  x8=0x00000000 PA:0x80008a79
       37965000	      3795	80004638	82d54a13	xori	x20,x10,-2003	 x10:0x80006c54 x20=0x7fff9479
       37975000	      3796	8000463c	ddb94893	xori	x17,x18,-549	 x18:0x80000694 x17=0x7ffffb4f
       37985000	      3797	80004640	0034d593	srli	x11,x9,0x3	  x9:0x00003000 x11=0x00000600
       37995000	      3798	80004644	f1910603	lb	x12,-231(x2)	  x2:0x80008a15 x12=0x00000000 PA:0x8000892e
       38005000	      3799	80004648	faf14a03	lbu	x20,-81(x2)	  x2:0x80008a15 x20=0x00000000 PA:0x800089c4
       38015000	      3800	8000464c	b7f77237	lui	x4,0xb7f77	  x4=0xb7f77000
       38025000	      3801	80004650	103b7b13	andi	x22,x22,259	 x22:0xfffffe81 x22=0x00000001
       38035000	      3802	80004654	006bca33	xor	x20,x23,x6	 x23:0x00000000  x6:0x0007ffff x20=0x0007ffff
       38045000	      3803	80004658	0ae14383	lbu	x7,174(x2)	  x2:0x80008a15  x7=0x00000000 PA:0x80008ac3
       38055000	      3804	8000465c	400eda93	srai	x21,x29,0x0	 x29:0x00000000 x21=0x00000000
       38065000	      3805	80004660	ff410d23	sb	x20,-6(x2)	  x2:0x80008a15 x20:0x0007ffff PA:0x80008a0f
       38075000	      3806	80004664	41fa5d93	srai	x27,x20,0x1f	 x20:0x0007ffff x27=0x00000000
       38085000	      3807	80004668	8c892813	slti	x16,x18,-1848	 x18:0x80000694 x16=0x00000001
       38095000	      3808	8000466c	00396f33	or	x30,x18,x3	 x18:0x80000694  x3:0x800069fc x30=0x80006ffc
       38105000	      3809	80004670	241c9db7	lui	x27,0x241c9	 x27=0x241c9000
       38115000	      3810	80004674	fa110503	lb	x10,-95(x2)	  x2:0x80008a15 x10=0x00000000 PA:0x800089b6
       38125000	      3811	80004678	fe910a03	lb	x20,-23(x2)	  x2:0x80008a15 x20=0x00000000 PA:0x800089fe
       38135000	      3812	8000467c	41ecd833	sra	x16,x25,x30	 x25:0x80009fc4 x30:0x80006ffc x16=0xfffffff8
       38145000	      3813	80004680	08f14583	lbu	x11,143(x2)	  x2:0x80008a15 x11=0x00000000 PA:0x80008aa4
       38155000	      3814	80004684	00004f17	auipc	x30,0x4	 x30=0x80008680
       38165000	      3815	80004688	da6f0f13	addi	x30,x30,-602	 x30:0x80008680 x30=0x80008426
       38175000	      3816	8000468c	febf0503	lb	x10,-21(x30)	 x30:0x80008426 x10=0x00000000 PA:0x80008411
       38185000	      3817	80004690	01ff0d03	lb	x26,31(x30)	 x30:0x80008426 x26=0x00000000 PA:0x80008445
       38195000	      3818	80004694	fccf0b23	sb	x12,-42(x30)	 x30:0x80008426 x12:0x00000000 PA:0x800083fc
       38205000	      3819	80004698	fe4f4183	lbu	x3,-28(x30)	 x30:0x80008426  x3=0x00000000 PA:0x8000840a
       38215000	      3820	8000469c	03af2a03	lw	x20,58(x30)	 x30:0x80008426 x20=0x00670000 PA:0x80008460
       38225000	      3821	800046a0	00ceb033	sltu	x0,x29,x12	 x29:0x00000000 x12:0x00000000
       38235000	      3822	800046a4	031f0e23	sb	x17,60(x30)	 x30:0x80008426 x17:0x7ffffb4f PA:0x80008462
       38245000	      3823	800046a8	01af4203	lbu	x4,26(x30)	 x30:0x80008426  x4=0x00000000 PA:0x80008440
       38255000	      3824	800046ac	8afe4813	xori	x16,x28,-1873	 x28:0x80000628 x16=0x7ffffe87
       38265000	      3825	800046b0	013f4e03	lbu	x28,19(x30)	 x30:0x80008426 x28=0x00000000 PA:0x80008439
       38275000	      3826	800046b4	44228593	addi	x11,x5,1090	  x5:0x00000000 x11=0x00000442
       38285000	      3827	800046b8	02cf0583	lb	x11,44(x30)	 x30:0x80008426 x11=0x00000000 PA:0x80008452
       38295000	      3828	800046bc	e6106493	ori	x9,x0,-415	  x0:0x00000000  x9=0xfffffe61
       38305000	      3829	800046c0	32ba8993	addi	x19,x21,811	 x21:0x00000000 x19=0x0000032b
       38315000	      3830	800046c4	00ef08a3	sb	x14,17(x30)	 x30:0x80008426 x14:0x80009ed8 PA:0x80008437
       38325000	      3831	800046c8	5bc5f813	andi	x16,x11,1468	 x11:0x00000000 x16=0x00000000
       38335000	      3832	800046cc	033f4883	lbu	x17,51(x30)	 x30:0x80008426 x17=0x00000000 PA:0x80008459
       38345000	      3833	800046d0	00e73b33	sltu	x22,x14,x14	 x14:0x80009ed8 x14:0x80009ed8 x22=0x00000000
       38355000	      3834	800046d4	fcff0083	lb	x1,-49(x30)	 x30:0x80008426  x1=0x00000000 PA:0x800083f5
       38365000	      3835	800046d8	006f2523	sw	x6,10(x30)	 x30:0x80008426  x6:0x0007ffff PA:0x80008430
       38375000	      3836	800046dc	035f4783	lbu	x15,53(x30)	 x30:0x80008426 x15=0x00000000 PA:0x8000845b
       38385000	      3837	800046e0	40c1ddb3	sra	x27,x3,x12	  x3:0x00000000 x12:0x00000000 x27=0x00000000
       38395000	      3838	800046e4	018f4783	lbu	x15,24(x30)	 x30:0x80008426 x15=0x00000000 PA:0x8000843e
       38405000	      3839	00000000	00000013	addi	x0,x0,0	  x0:0x00000000
       38415000	      3840	800046e8	02ff0ea3	sb	x15,61(x30)	 x30:0x80008426 x15:0x00000000 PA:0x80008463
       38425000	      3841	800046ec	01a30fb3	add	x31,x6,x26	  x6:0x0007ffff x26:0x00000000 x31=0x0007ffff
       38435000	      3842	800046f0	66740797	auipc	x15,0x66740	 x15=0xe67446ec
       38445000	      3843	800046f4	91b57893	andi	x17,x10,-1765	 x10:0x00000000 x17=0x00000000
       38455000	      3844	800046f8	00415933	srl	x18,x2,x4	  x2:0x80008a15  x4:0x00000000 x18=0x80008a15
       38465000	      3845	800046fc	fcef5903	lhu	x18,-50(x30)	 x30:0x80008426 x18=0x00000000 PA:0x800083f4
       38475000	      3846	80004700	49b4e113	ori	x2,x9,1179	  x9:0xfffffe61  x2=0xfffffefb
       38485000	      3847	80004704	fd8f5003	lhu	x0,-40(x30)	 x30:0x80008426 PA:0x800083fe
       38495000	      3848	80004708	fc8f1883	lh	x17,-56(x30)	 x30:0x80008426 x17=0x00000000 PA:0x800083ee
       38505000	      3849	8000470c	02ff1823	sh	x15,48(x30)	 x30:0x80008426 x15:0xe67446ec PA:0x80008456
       38515000	      3850	80004710	01a908b3	add	x17,x18,x26	 x18:0x00000000 x26:0x00000000 x17=0x00000000
       38525000	      3851	80004714	004966b3	or	x13,x18,x4	 x18:0x00000000  x4:0x00000000 x13=0x00000000
       38535000	      3852	80004718	a1ab7f93	andi	x31,x22,-1510	 x22:0x00000000 x31=0x00000000
       38545000	      3853	8000471c	e948c613	xori	x12,x17,-364	 x17:0x00000000 x12=0xfffffe94
       38555000	      3854	80004720	ff7f0623	sb	x23,-20(x30)	 x30:0x80008426 x23:0x00000000 PA:0x80008412
       38565000	      3855	80004724	00004b97	auipc	x23,0x4	 x23=0x80008720
       38575000	      3856	80004728	1b2b8b93	addi	x23,x23,434	 x23:0x80008720 x23=0x800088d2
       38585000	      3857	8000472c	008bcd83	lbu	x27,8(x23)	 x23:0x800088d2 x27=0x00000000 PA:0x800088da
       38595000	      3858	80004730	01aadb13	srli	x22,x21,0x1a	 x21:0x00000000 x22=0x00000000
       38605000	      3859	80004734	00dbce03	lbu	x28,13(x23)	 x23:0x800088d2 x28=0x00000000 PA:0x800088df
       38615000	      3860	80004738	003bc583	lbu	x11,3(x23)	 x23:0x800088d2 x11=0x00000000 PA:0x800088d5
       38625000	      3861	8000473c	ff6b9583	lh	x11,-10(x23)	 x23:0x800088d2 x11=0x00000000 PA:0x800088c8
       38635000	      3862	80004740	008b9e83	lh	x29,8(x23)	 x23:0x800088d2 x29=0x00000000 PA:0x800088da
       38645000	      3863	80004744	ff6bd483	lhu	x9,-10(x23)	 x23:0x800088d2  x9=0x00000000 PA:0x800088c8
       38655000	      3864	80004748	015dfd33	and	x26,x27,x21	 x27:0x00000000 x21:0x00000000 x26=0x00000000
       38665000	      3865	8000474c	006bc183	lbu	x3,6(x23)	 x23:0x800088d2  x3=0x00000000 PA:0x800088d8
       38675000	      3866	80004750	00ffe2b3	or	x5,x31,x15	 x31:0x00000000 x15:0xe67446ec  x5=0xe67446ec
       38685000	      3867	80004754	00952233	slt	x4,x10,x9	 x10:0x00000000  x9:0x00000000  x4=0x00000000
       38695000	      3868	80004758	01a76533	or	x10,x14,x26	 x14:0x80009ed8 x26:0x00000000 x10=0x80009ed8
       38705000	      3869	8000475c	169b4617	auipc	x12,0x169b4	 x12=0x969b8758
       38715000	      3870	80004760	00000013	addi	x0,x0,0	  x0:0x00000000
       38725000	      3871	80004764	011b82a3	sb	x17,5(x23)	 x23:0x800088d2 x17:0x00000000 PA:0x800088d7
       38735000	      3872	80004768	e99c6137	lui	x2,0xe99c6	  x2=0xe99c6000
       38745000	      3873	8000476c	009c6133	or	x2,x24,x9	 x24:0x80000000  x9:0x00000000  x2=0x80000000
       38755000	      3874	80004770	fefb8823	sb	x15,-16(x23)	 x23:0x800088d2 x15:0xe67446ec PA:0x800088c2
       38765000	      3875	80004774	fe7b9923	sh	x7,-14(x23)	 x23:0x800088d2  x7:0x00000000 PA:0x800088c4
       38775000	      3876	80004778	bca2e913	ori	x18,x5,-1078	  x5:0xe67446ec x18=0xffffffee
       38785000	      3877	8000477c	40f58633	sub	x12,x11,x15	 x11:0x00000000 x15:0xe67446ec x12=0x198bb914
       38795000	      3878	80004780	00000013	addi	x0,x0,0	  x0:0x00000000
       38805000	      3879	80004784	ff7b8383	lb	x7,-9(x23)	 x23:0x800088d2  x7=0x00000000 PA:0x800088c9
       38815000	      3880	80004788	0012bfb3	sltu	x31,x5,x1	  x5:0xe67446ec  x1:0x00000000 x31=0x00000000
       38825000	      3881	8000478c	0080a633	slt	x12,x1,x8	  x1:0x00000000  x8:0x00000000 x12=0x00000000
       38835000	      3882	80004790	dd846413	ori	x8,x8,-552	  x8:0x00000000  x8=0xfffffdd8
       38845000	      3883	80004794	ffbb8183	lb	x3,-5(x23)	 x23:0x800088d2  x3=0x00000000 PA:0x800088cd
       38855000	      3884	80004798	01a6e933	or	x18,x13,x26	 x13:0x00000000 x26:0x00000000 x18=0x00000000
       38865000	      3885	8000479c	004b9403	lh	x8,4(x23)	 x23:0x800088d2  x8=0x00000000 PA:0x800088d6
       38875000	      3886	800047a0	00004117	auipc	x2,0x4	  x2=0x8000879c
       38885000	      3887	800047a4	f0a10113	addi	x2,x2,-246	  x2:0x8000879c  x2=0x800086a6
       38895000	      3888	800047a8	9a710803	lb	x16,-1625(x2)	  x2:0x800086a6 x16=0x00000000 PA:0x8000804d
       38905000	      3889	800047ac	f0b10d83	lb	x27,-245(x2)	  x2:0x800086a6 x27=0x00000000 PA:0x800085b1
       38915000	      3890	800047b0	f3f10d23	sb	x31,-198(x2)	  x2:0x800086a6 x31:0x00000000 PA:0x800085e0
       38925000	      3891	800047b4	016b1fb3	sll	x31,x22,x22	 x22:0x00000000 x22:0x00000000 x31=0x00000000
       38935000	      3892	800047b8	00000013	addi	x0,x0,0	  x0:0x00000000
       38945000	      3893	800047bc	00a29313	slli	x6,x5,0xa	  x5:0xe67446ec  x6=0xd11bb000
       38955000	      3894	800047c0	a8110aa3	sb	x1,-1387(x2)	  x2:0x800086a6  x1:0x00000000 PA:0x8000813b
       38965000	      3895	800047c4	e3614d83	lbu	x27,-458(x2)	  x2:0x800086a6 x27=0x00000000 PA:0x800084dc
       38975000	      3896	800047c8	40e085b3	sub	x11,x1,x14	  x1:0x00000000 x14:0x80009ed8 x11=0x7fff6128
       38985000	      3897	800047cc	db714183	lbu	x3,-585(x2)	  x2:0x800086a6  x3=0x00000000 PA:0x8000845d
       38995000	      3898	800047d0	00585893	srli	x17,x16,0x5	 x16:0x00000000 x17=0x00000000
       39005000	      3899	800047d4	13b12b23	sw	x27,310(x2)	  x2:0x800086a6 x27:0x00000000 PA:0x800087dc
       39015000	      3900	800047d8	00cd2db3	slt	x27,x26,x12	 x26:0x00000000 x12:0x00000000 x27=0x00000000
       39025000	      3901	800047dc	dd0102a3	sb	x16,-571(x2)	  x2:0x800086a6 x16:0x00000000 PA:0x8000846b
       39035000	      3902	800047e0	007c1093	slli	x1,x24,0x7	 x24:0x80000000  x1=0x00000000
       39045000	      3903	800047e4	13d10783	lb	x15,317(x2)	  x2:0x800086a6 x15=0x00000000 PA:0x800087e3
       39055000	      3904	800047e8	0c815b03	lhu	x22,200(x2)	  x2:0x800086a6 x22=0x00000000 PA:0x8000876e
       39065000	      3905	800047ec	b4714083	lbu	x1,-1209(x2)	  x2:0x800086a6  x1=0x00000000 PA:0x800081ed
       39075000	      3906	800047f0	333d4013	xori	x0,x26,819	 x26:0x00000000
       39085000	      3907	800047f4	d6514883	lbu	x17,-667(x2)	  x2:0x800086a6 x17=0x00000000 PA:0x8000840b
       39095000	      3908	800047f8	00ae51b3	srl	x3,x28,x10	 x28:0x00000000 x10:0x80009ed8  x3=0x00000000
       39105000	      3909	800047fc	01c32933	slt	x18,x6,x28	  x6:0xd11bb000 x28:0x00000000 x18=0x00000001
       39115000	      3910	80004800	01d11433	sll	x8,x2,x29	  x2:0x800086a6 x29:0x00000000  x8=0x800086a6
       39125000	      3911	80004804	01721a33	sll	x20,x4,x23	  x4:0x00000000 x23:0x800088d2 x20=0x00000000
       39135000	      3912	80004808	dbc14883	lbu	x17,-580(x2)	  x2:0x800086a6 x17=0x0000004f PA:0x80008462
       39145000	      3913	8000480c	a1d12523	sw	x29,-1526(x2)	  x2:0x800086a6 x29:0x00000000 PA:0x800080b0
       39155000	      3914	80004810	0ce15483	lhu	x9,206(x2)	  x2:0x800086a6  x9=0x00000000 PA:0x80008774
       39165000	      3915	80004814	01e79193	slli	x3,x15,0x1e	 x15:0x00000000  x3=0x00000000
       39175000	      3916	80004818	41d905b3	sub	x11,x18,x29	 x18:0x00000001 x29:0x00000000 x11=0x00000001
       39185000	      3917	8000481c	0df107a3	sb	x31,207(x2)	  x2:0x800086a6 x31:0x00000000 PA:0x80008775
       39195000	      3918	80004820	ec810623	sb	x8,-308(x2)	  x2:0x800086a6  x8:0x800086a6 PA:0x80008572
       39205000	      3919	80004824	87646093	ori	x1,x8,-1930	  x8:0x800086a6  x1=0xfffffef6
       39215000	      3920	80004828	004577b3	and	x15,x10,x4	 x10:0x80009ed8  x4:0x00000000 x15=0x00000000
       39225000	      3921	8000482c	e063c213	xori	x4,x7,-506	  x7:0x00000000  x4=0xfffffe06
       39235000	      3922	80004830	0081aeb3	slt	x29,x3,x8	  x3:0x00000000  x8:0x800086a6 x29=0x00000000
       39245000	      3923	80004834	01516ab3	or	x21,x2,x21	  x2:0x800086a6 x21:0x00000000 x21=0x800086a6
       39255000	      3924	80004838	01fc39b3	sltu	x19,x24,x31	 x24:0x80000000 x31:0x00000000 x19=0x00000000
       39265000	      3925	8000483c	40215113	srai	x2,x2,0x2	  x2:0x800086a6  x2=0xe00021a9
       39275000	      3926	80004840	ecd37013	andi	x0,x6,-307	  x6:0xd11bb000
       39285000	      3927	80004844	0585f663	bgeu	x11,x24,80004890	 x11:0x00000001 x24:0x80000000
       39295000	      3928	80004848	00e47663	bgeu	x8,x14,80004854	  x8:0x800086a6 x14:0x80009ed8
       39305000	      3929	8000484c	ca5dcf13	xori	x30,x27,-859	 x27:0x00000000 x30=0xfffffca5
       39315000	      3930	80004850	00385333	srl	x6,x16,x3	 x16:0x00000000  x3:0x00000000  x6=0x00000000
       39325000	      3931	80004854	00015493	srli	x9,x2,0x0	  x2:0xe00021a9  x9=0xe00021a9
       39335000	      3932	80004858	01a81b93	slli	x23,x16,0x1a	 x16:0x00000000 x23=0x00000000
       39345000	      3933	8000485c	04c7e863	bltu	x15,x12,800048ac	 x15:0x00000000 x12:0x00000000
       39355000	      3934	80004860	000dfdb3	and	x27,x27,x0	 x27:0x00000000  x0:0x00000000 x27=0x00000000
       39365000	      3935	80004864	418bd4b3	sra	x9,x23,x24	 x23:0x00000000 x24:0x80000000  x9=0x00000000
       39375000	      3936	80004868	016ffdb3	and	x27,x31,x22	 x31:0x00000000 x22:0x00000000 x27=0x00000000
       39385000	      3937	8000486c	c1fe3e37	lui	x28,0xc1fe3	 x28=0xc1fe3000
       39395000	      3938	80004870	4bc04e13	xori	x28,x0,1212	  x0:0x00000000 x28=0x000004bc
       39405000	      3939	80004874	00ce5e13	srli	x28,x28,0xc	 x28:0x000004bc x28=0x00000000
       39415000	      3940	80004878	f9111ab7	lui	x21,0xf9111	 x21=0xf9111000
       39425000	      3941	8000487c	f528a293	slti	x5,x17,-174	 x17:0x0000004f  x5=0x00000000
       39435000	      3942	80004880	003bce63	blt	x23,x3,8000489c	 x23:0x00000000  x3:0x00000000
       39445000	      3943	80004884	0330f263	bgeu	x1,x19,800048a8	  x1:0xfffffef6 x19:0x00000000
       39455000	      3944	00000000	00000013	addi	x0,x0,0	  x0:0x00000000
       39465000	      3945	800048a4	00000013	addi	x0,x0,0	  x0:0x00000000
       39475000	      3946	800048a8	025d5863	bge	x26,x5,800048d8	 x26:0x00000000  x5:0x00000000
       39485000	      3947	00000000	00000013	addi	x0,x0,0	  x0:0x00000000
       39495000	      3948	800048d4	00000013	addi	x0,x0,0	  x0:0x00000000
       39505000	      3949	800048d8	00502833	slt	x16,x0,x5	  x0:0x00000000  x5:0x00000000 x16=0x00000000
       39515000	      3950	800048dc	0103db93	srli	x23,x7,0x10	  x7:0x00000000 x23=0x00000000
       39525000	      3951	800048e0	41fbd813	srai	x16,x23,0x1f	 x23:0x00000000 x16=0x00000000
       39535000	      3952	800048e4	01c11093	slli	x1,x2,0x1c	  x2:0xe00021a9  x1=0x90000000
       39545000	      3953	800048e8	ac01b197	auipc	x3,0xac01b	  x3=0x2c01f8e4
       39555000	      3954	800048ec	e71ae313	ori	x6,x21,-399	 x21:0xf9111000  x6=0xfffffe71
       39565000	      3955	800048f0	01b1a933	slt	x18,x3,x27	  x3:0x2c01f8e4 x27:0x00000000 x18=0x00000000
       39575000	      3956	800048f4	00000013	addi	x0,x0,0	  x0:0x00000000
       39585000	      3957	800048f8	01eadd33	srl	x26,x21,x30	 x21:0xf9111000 x30:0xfffffca5 x26=0x07c88880
       39595000	      3958	800048fc	01e45393	srli	x7,x8,0x1e	  x8:0x800086a6  x7=0x00000002
       39605000	      3959	80004900	01b55a63	bge	x10,x27,80004914	 x10:0x80009ed8 x27:0x00000000
       39615000	      3960	80004904	01ae75b3	and	x11,x28,x26	 x28:0x00000000 x26:0x07c88880 x11=0x00000000
       39625000	      3961	80004908	41ad5fb3	sra	x31,x26,x26	 x26:0x07c88880 x26:0x07c88880 x31=0x07c88880
       39635000	      3962	8000490c	41838fb3	sub	x31,x7,x24	  x7:0x00000002 x24:0x80000000 x31=0x80000002
       39645000	      3963	80004910	4071df93	srai	x31,x3,0x7	  x3:0x2c01f8e4 x31=0x005803f1
       39655000	      3964	80004914	00000013	addi	x0,x0,0	  x0:0x00000000
       39665000	      3965	80004918	019b44b3	xor	x9,x22,x25	 x22:0x00000000 x25:0x80009fc4  x9=0x80009fc4
       39675000	      3966	8000491c	d6e8f3b7	lui	x7,0xd6e8f	  x7=0xd6e8f000
       39685000	      3967	80004920	012180b3	add	x1,x3,x18	  x3:0x2c01f8e4 x18:0x00000000  x1=0x2c01f8e4
       39695000	      3968	80004924	41cf0a33	sub	x20,x30,x28	 x30:0xfffffca5 x28:0x00000000 x20=0xfffffca5
       39705000	      3969	80004928	273f7693	andi	x13,x30,627	 x30:0xfffffca5 x13=0x00000021
       39715000	      3970	8000492c	00d60a33	add	x20,x12,x13	 x12:0x00000000 x13:0x00000021 x20=0x00000021
       39725000	      3971	80004930	00bdd093	srli	x1,x27,0xb	 x27:0x00000000  x1=0x00000000
       39735000	      3972	80004934	0025c333	xor	x6,x11,x2	 x11:0x00000000  x2:0xe00021a9  x6=0xe00021a9
       39745000	      3973	80004938	020d1063	bne	x26,x0,80004958	 x26:0x07c88880  x0:0x00000000
       39755000	      3974	00000000	00000013	addi	x0,x0,0	  x0:0x00000000
       39765000	      3975	80004954	00000013	addi	x0,x0,0	  x0:0x00000000
       39775000	      3976	80004958	0520c863	blt	x1,x18,800049a8	  x1:0x00000000 x18:0x00000000
       39785000	      3977	8000495c	01b36f33	or	x30,x6,x27	  x6:0xe00021a9 x27:0x00000000 x30=0xe00021a9
       39795000	      3978	80004960	411783b3	sub	x7,x15,x17	 x15:0x00000000 x17:0x0000004f  x7=0xffffffb1
       39805000	      3979	80004964	5298f013	andi	x0,x17,1321	 x17:0x0000004f
       39815000	      3980	80004968	40ba0ab3	sub	x21,x20,x11	 x20:0x00000021 x11:0x00000000 x21=0x00000021
       39825000	      3981	8000496c	5a6d2d93	slti	x27,x26,1446	 x26:0x07c88880 x27=0x00000000
       39835000	      3982	80004970	01a090b3	sll	x1,x1,x26	  x1:0x00000000 x26:0x07c88880  x1=0x00000000
       39845000	      3983	80004974	015bf433	and	x8,x23,x21	 x23:0x00000000 x21:0x00000021  x8=0x00000000
       39855000	      3984	80004978	50b5cf13	xori	x30,x11,1291	 x11:0x00000000 x30=0x0000050b
       39865000	      3985	8000497c	40235193	srai	x3,x6,0x2	  x6:0xe00021a9  x3=0xf800086a
       39875000	      3986	80004980	00608eb3	add	x29,x1,x6	  x1:0x00000000  x6:0xe00021a9 x29=0xe00021a9
       39885000	      3987	80004984	d6603037	lui	x0,0xd6603	
       39895000	      3988	80004988	00a43233	sltu	x4,x8,x10	  x8:0x00000000 x10:0x80009ed8  x4=0x00000001
       39905000	      3989	8000498c	005c5613	srli	x12,x24,0x5	 x24:0x80000000 x12=0x04000000
       39915000	      3990	80004990	028c1a63	bne	x24,x8,800049c4	 x24:0x80000000  x8:0x00000000
       39925000	      3991	00000000	00000013	addi	x0,x0,0	  x0:0x00000000
       39935000	      3992	800049c0	00000013	addi	x0,x0,0	  x0:0x00000000
       39945000	      3993	800049c4	04700263	beq	x0,x7,80004a08	  x0:0x00000000  x7:0xffffffb1
       39955000	      3994	800049c8	88314413	xori	x8,x2,-1917	  x2:0xe00021a9  x8=0x1fffd92a
       39965000	      3995	800049cc	50530613	addi	x12,x6,1285	  x6:0xe00021a9 x12=0xe00026ae
       39975000	      3996	800049d0	01da78b3	and	x17,x20,x29	 x20:0x00000021 x29:0xe00021a9 x17=0x00000021
       39985000	      3997	800049d4	01d35313	srli	x6,x6,0x1d	  x6:0xe00021a9  x6=0x00000007
       39995000	      3998	800049d8	01dbbab3	sltu	x21,x23,x29	 x23:0x00000000 x29:0xe00021a9 x21=0x00000001
       40005000	      3999	800049dc	1c1be037	lui	x0,0x1c1be	
       40015000	      4000	800049e0	0039de63	bge	x19,x3,800049fc	 x19:0x00000000  x3:0xf800086a
       40025000	      4001	00000000	00000013	addi	x0,x0,0	  x0:0x00000000
       40035000	      4002	800049f8	00000013	addi	x0,x0,0	  x0:0x00000000
       40045000	      4003	800049fc	04918663	beq	x3,x9,80004a48	  x3:0xf800086a  x9:0x80009fc4
       40055000	      4004	80004a00	00f0bfb3	sltu	x31,x1,x15	  x1:0x00000000 x15:0x00000000 x31=0x00000000
       40065000	      4005	80004a04	844bf7b7	lui	x15,0x844bf	 x15=0x844bf000
       40075000	      4006	80004a08	b9902637	lui	x12,0xb9902	 x12=0xb9902000
       40085000	      4007	80004a0c	18f54313	xori	x6,x10,399	 x10:0x80009ed8  x6=0x80009f57
       40095000	      4008	80004a10	0126a9b3	slt	x19,x13,x18	 x13:0x00000021 x18:0x00000000 x19=0x00000000
       40105000	      4009	80004a14	48fdc393	xori	x7,x27,1167	 x27:0x00000000  x7=0x0000048f
       40115000	      4010	80004a18	0328c863	blt	x17,x18,80004a48	 x17:0x00000021 x18:0x00000000
       40125000	      4011	80004a1c	007cc333	xor	x6,x25,x7	 x25:0x80009fc4  x7:0x0000048f  x6=0x80009b4b
       40135000	      4012	80004a20	1080c413	xori	x8,x1,264	  x1:0x00000000  x8=0x00000108
       40145000	      4013	80004a24	01ac0b33	add	x22,x24,x26	 x24:0x80000000 x26:0x07c88880 x22=0x87c88880
       40155000	      4014	80004a28	01319eb3	sll	x29,x3,x19	  x3:0xf800086a x19:0x00000000 x29=0xf800086a
       40165000	      4015	80004a2c	40695313	srai	x6,x18,0x6	 x18:0x00000000  x6=0x00000000
       40175000	      4016	80004a30	039d4c63	blt	x26,x25,80004a68	 x26:0x07c88880 x25:0x80009fc4
       40185000	      4017	80004a34	05018463	beq	x3,x16,80004a7c	  x3:0xf800086a x16:0x00000000
       40195000	      4018	80004a38	410d04b3	sub	x9,x26,x16	 x26:0x07c88880 x16:0x00000000  x9=0x07c88880
       40205000	      4019	80004a3c	40e50633	sub	x12,x10,x14	 x10:0x80009ed8 x14:0x80009ed8 x12=0x00000000
       40215000	      4020	80004a40	41d7d1b3	sra	x3,x15,x29	 x15:0x844bf000 x29:0xf800086a  x3=0xffe112fc
       40225000	      4021	80004a44	f6458393	addi	x7,x11,-156	 x11:0x00000000  x7=0xffffff64
       40235000	      4022	80004a48	faf740b7	lui	x1,0xfaf74	  x1=0xfaf74000
       40245000	      4023	80004a4c	ae224b13	xori	x22,x4,-1310	  x4:0x00000001 x22=0xfffffae3
       40255000	      4024	80004a50	011cdc63	bge	x25,x17,80004a68	 x25:0x80009fc4 x17:0x00000021
       40265000	      4025	80004a54	0891c393	xori	x7,x3,137	  x3:0xffe112fc  x7=0xffe11275
       40275000	      4026	80004a58	003da933	slt	x18,x27,x3	 x27:0x00000000  x3:0xffe112fc x18=0x00000000
       40285000	      4027	80004a5c	00764b33	xor	x22,x12,x7	 x12:0x00000000  x7:0xffe11275 x22=0xffe11275
       40295000	      4028	80004a60	02c6f663	bgeu	x13,x12,80004a8c	 x13:0x00000021 x12:0x00000000
       40305000	      4029	00000000	00000013	addi	x0,x0,0	  x0:0x00000000
       40315000	      4030	80004a88	00000013	addi	x0,x0,0	  x0:0x00000000
       40325000	      4031	80004a8c	03136463	bltu	x6,x17,80004ab4	  x6:0x00000000 x17:0x00000021
       40335000	      4032	00000000	00000013	addi	x0,x0,0	  x0:0x00000000
       40345000	      4033	80004ab0	00000013	addi	x0,x0,0	  x0:0x00000000
       40355000	      4034	80004ab4	00fdfdb3	and	x27,x27,x15	 x27:0x00000000 x15:0x844bf000 x27=0x00000000
       40365000	      4035	80004ab8	413c8d33	sub	x26,x25,x19	 x25:0x80009fc4 x19:0x00000000 x26=0x80009fc4
       40375000	      4036	80004abc	043a6863	bltu	x20,x3,80004b0c	 x20:0x00000021  x3:0xffe112fc
       40385000	      4037	00000000	00000013	addi	x0,x0,0	  x0:0x00000000
       40395000	      4038	80004b08	00000013	addi	x0,x0,0	  x0:0x00000000
       40405000	      4039	80004b0c	00657c63	bgeu	x10,x6,80004b24	 x10:0x80009ed8  x6:0x00000000
       40415000	      4040	00000000	00000013	addi	x0,x0,0	  x0:0x00000000
       40425000	      4041	80004b20	00000013	addi	x0,x0,0	  x0:0x00000000
       40435000	      4042	80004b24	00228e63	beq	x5,x2,80004b40	  x5:0x00000000  x2:0xe00021a9
       40445000	      4043	80004b28	daa70a93	addi	x21,x14,-598	 x14:0x80009ed8 x21=0x80009c82
       40455000	      4044	80004b2c	04365463	bge	x12,x3,80004b74	 x12:0x00000000  x3:0xffe112fc
       40465000	      4045	00000000	00000013	addi	x0,x0,0	  x0:0x00000000
       40475000	      4046	80004b70	00000013	addi	x0,x0,0	  x0:0x00000000
       40485000	      4047	80004b74	027c6c63	bltu	x24,x7,80004bac	 x24:0x80000000  x7:0xffe11275
       40495000	      4048	00000000	00000013	addi	x0,x0,0	  x0:0x00000000
       40505000	      4049	80004ba8	00000013	addi	x0,x0,0	  x0:0x00000000
       40515000	      4050	80004bac	00d643b3	xor	x7,x12,x13	 x12:0x00000000 x13:0x00000021  x7=0x00000021
       40525000	      4051	80004bb0	017c1533	sll	x10,x24,x23	 x24:0x80000000 x23:0x00000000 x10=0x80000000
       40535000	      4052	80004bb4	8c290a13	addi	x20,x18,-1854	 x18:0x00000000 x20=0xfffff8c2
       40545000	      4053	80004bb8	612362b7	lui	x5,0x61236	  x5=0x61236000
       40555000	      4054	80004bbc	456df117	auipc	x2,0x456df	  x2=0xc56e3bb8
       40565000	      4055	80004bc0	00eab333	sltu	x6,x21,x14	 x21:0x80009c82 x14:0x80009ed8  x6=0x00000001
       40575000	      4056	80004bc4	01729e93	slli	x29,x5,0x17	  x5:0x61236000 x29=0x00000000
       40585000	      4057	80004bc8	0048a933	slt	x18,x17,x4	 x17:0x00000021  x4:0x00000001 x18=0x00000000
       40595000	      4058	80004bcc	0124a9b3	slt	x19,x9,x18	  x9:0x07c88880 x18:0x00000000 x19=0x00000000
       40605000	      4059	80004bd0	01d18863	beq	x3,x29,80004be0	  x3:0xffe112fc x29:0x00000000
       40615000	      4060	80004bd4	056c8663	beq	x25,x22,80004c20	 x25:0x80009fc4 x22:0xffe11275
       40625000	      4061	80004bd8	029a0c63	beq	x20,x9,80004c10	 x20:0xfffff8c2  x9:0x07c88880
       40635000	      4062	80004bdc	7f82c493	xori	x9,x5,2040	  x5:0x61236000  x9=0x612367f8
       40645000	      4063	80004be0	0d4da393	slti	x7,x27,212	 x27:0x00000000  x7=0x00000001
       40655000	      4064	80004be4	0ac6a693	slti	x13,x13,172	 x13:0x00000021 x13=0x00000001
       40665000	      4065	80004be8	01ea2333	slt	x6,x20,x30	 x20:0xfffff8c2 x30:0x0000050b  x6=0x00000001
       40675000	      4066	80004bec	04c0f863	bgeu	x1,x12,80004c3c	  x1:0xfaf74000 x12:0x00000000
       40685000	      4067	00000000	00000013	addi	x0,x0,0	  x0:0x00000000
       40695000	      4068	80004c38	00000013	addi	x0,x0,0	  x0:0x00000000
       40705000	      4069	80004c3c	01cc94b3	sll	x9,x25,x28	 x25:0x80009fc4 x28:0x00000000  x9=0x80009fc4
       40715000	      4070	80004c40	0160e933	or	x18,x1,x22	  x1:0xfaf74000 x22:0xffe11275 x18=0xfff75275
       40725000	      4071	80004c44	01941033	sll	x0,x8,x25	  x8:0x00000108 x25:0x80009fc4
       40735000	      4072	80004c48	007ae1b3	or	x3,x21,x7	 x21:0x80009c82  x7:0x00000001  x3=0x80009c83
       40745000	      4073	80004c4c	0283fc63	bgeu	x7,x8,80004c84	  x7:0x00000001  x8:0x00000108
       40755000	      4074	80004c50	40678bb3	sub	x23,x15,x6	 x15:0x844bf000  x6:0x00000001 x23=0x844befff
       40765000	      4075	80004c54	04725663	bge	x4,x7,80004ca0	  x4:0x00000001  x7:0x00000001
       40775000	      4076	00000000	00000013	addi	x0,x0,0	  x0:0x00000000
       40785000	      4077	80004c9c	00000013	addi	x0,x0,0	  x0:0x00000000
       40795000	      4078	80004ca0	018e9193	slli	x3,x29,0x18	 x29:0x00000000  x3=0x00000000
       40805000	      4079	80004ca4	03239863	bne	x7,x18,80004cd4	  x7:0x00000001 x18:0xfff75275
       40815000	      4080	00000000	00000013	addi	x0,x0,0	  x0:0x00000000
       40825000	      4081	80004cd0	00000013	addi	x0,x0,0	  x0:0x00000000
       40835000	      4082	80004cd4	6a85f393	andi	x7,x11,1704	 x11:0x00000000  x7=0x00000000
       40845000	      4083	80004cd8	00000013	addi	x0,x0,0	  x0:0x00000000
       40855000	      4084	80004cdc	01973333	sltu	x6,x14,x25	 x14:0x80009ed8 x25:0x80009fc4  x6=0x00000001
       40865000	      4085	80004ce0	409fd813	srai	x16,x31,0x9	 x31:0x00000000 x16=0x00000000
       40875000	      4086	80004ce4	04661463	bne	x12,x6,80004d2c	 x12:0x00000000  x6:0x00000001
       40885000	      4087	00000000	00000013	addi	x0,x0,0	  x0:0x00000000
       40895000	      4088	80004d28	00000013	addi	x0,x0,0	  x0:0x00000000
       40905000	      4089	80004d2c	006c9863	bne	x25,x6,80004d3c	 x25:0x80009fc4  x6:0x00000001
       40915000	      4090	00000000	00000013	addi	x0,x0,0	  x0:0x00000000
       40925000	      4091	80004d38	00000013	addi	x0,x0,0	  x0:0x00000000
       40935000	      4092	80004d3c	051c9263	bne	x25,x17,80004d80	 x25:0x80009fc4 x17:0x00000021
       40945000	      4093	00000000	00000013	addi	x0,x0,0	  x0:0x00000000
       40955000	      4094	80004d7c	00000013	addi	x0,x0,0	  x0:0x00000000
       40965000	      4095	80004d80	0317e863	bltu	x15,x17,80004db0	 x15:0x844bf000 x17:0x00000021
       40975000	      4096	80004d84	000a9d33	sll	x26,x21,x0	 x21:0x80009c82  x0:0x00000000 x26=0x80009c82
       40985000	      4097	80004d88	00212d33	slt	x26,x2,x2	  x2:0xc56e3bb8  x2:0xc56e3bb8 x26=0x00000000
       40995000	      4098	80004d8c	01889d93	slli	x27,x17,0x18	 x17:0x00000021 x27=0x21000000
       41005000	      4099	80004d90	41878ab3	sub	x21,x15,x24	 x15:0x844bf000 x24:0x80000000 x21=0x044bf000
       41015000	      4100	80004d94	119c3413	sltiu	x8,x24,281	 x24:0x80000000  x8=0x00000000
       41025000	      4101	80004d98	05f21263	bne	x4,x31,80004ddc	  x4:0x00000001 x31:0x00000000
       41035000	      4102	00000000	00000013	addi	x0,x0,0	  x0:0x00000000
       41045000	      4103	80004dd8	00000013	addi	x0,x0,0	  x0:0x00000000
       41055000	      4104	80004ddc	cc4f8013	addi	x0,x31,-828	 x31:0x00000000
       41065000	      4105	80004de0	acaaaf13	slti	x30,x21,-1334	 x21:0x044bf000 x30=0x00000000
       41075000	      4106	80004de4	0220ca63	blt	x1,x2,80004e18	  x1:0xfaf74000  x2:0xc56e3bb8
       41085000	      4107	80004de8	00f9c5b3	xor	x11,x19,x15	 x19:0x00000000 x15:0x844bf000 x11=0x844bf000
       41095000	      4108	80004dec	003deab3	or	x21,x27,x3	 x27:0x21000000  x3:0x00000000 x21=0x21000000
       41105000	      4109	80004df0	00915213	srli	x4,x2,0x9	  x2:0xc56e3bb8  x4=0x0062b71d
       41115000	      4110	80004df4	00000013	addi	x0,x0,0	  x0:0x00000000
       41125000	      4111	80004df8	00b9d313	srli	x6,x19,0xb	 x19:0x00000000  x6=0x00000000
       41135000	      4112	80004dfc	01ab1a13	slli	x20,x22,0x1a	 x22:0xffe11275 x20=0xd4000000
       41145000	      4113	80004e00	04024863	blt	x4,x0,80004e50	  x4:0x0062b71d  x0:0x00000000
       41155000	      4114	80004e04	02d08263	beq	x1,x13,80004e28	  x1:0xfaf74000 x13:0x00000001
       41165000	      4115	80004e08	407e0833	sub	x16,x28,x7	 x28:0x00000000  x7:0x00000000 x16=0x00000000
       41175000	      4116	80004e0c	01d89f93	slli	x31,x17,0x1d	 x17:0x00000021 x31=0x20000000
       41185000	      4117	80004e10	00000013	addi	x0,x0,0	  x0:0x00000000
       41195000	      4118	80004e14	00f7c4b3	xor	x9,x15,x15	 x15:0x844bf000 x15:0x844bf000  x9=0x00000000
       41205000	      4119	80004e18	01e05113	srli	x2,x0,0x1e	  x0:0x00000000  x2=0x00000000
       41215000	      4120	80004e1c	036c7663	bgeu	x24,x22,80004e48	 x24:0x80000000 x22:0xffe11275
       41225000	      4121	80004e20	0165b833	sltu	x16,x11,x22	 x11:0x844bf000 x22:0xffe11275 x16=0x00000001
       41235000	      4122	80004e24	028e7063	bgeu	x28,x8,80004e44	 x28:0x00000000  x8:0x00000000
       41245000	      4123	00000000	00000013	addi	x0,x0,0	  x0:0x00000000
       41255000	      4124	80004e40	00000013	addi	x0,x0,0	  x0:0x00000000
       41265000	      4125	80004e44	00ab7333	and	x6,x22,x10	 x22:0xffe11275 x10:0x80000000  x6=0x80000000
       41275000	      4126	80004e48	05c4c463	blt	x9,x28,80004e90	  x9:0x00000000 x28:0x00000000
       41285000	      4127	80004e4c	01ea7e63	bgeu	x20,x30,80004e68	 x20:0xd4000000 x30:0x00000000
       41295000	      4128	00000000	00000013	addi	x0,x0,0	  x0:0x00000000
       41305000	      4129	80004e64	00000013	addi	x0,x0,0	  x0:0x00000000
       41315000	      4130	80004e68	01824233	xor	x4,x4,x24	  x4:0x0062b71d x24:0x80000000  x4=0x8062b71d
       41325000	      4131	80004e6c	004ce6b3	or	x13,x25,x4	 x25:0x80009fc4  x4:0x8062b71d x13=0x8062bfdd
       41335000	      4132	80004e70	012d31b3	sltu	x3,x26,x18	 x26:0x00000000 x18:0xfff75275  x3=0x00000001
       41345000	      4133	80004e74	b625a793	slti	x15,x11,-1182	 x11:0x844bf000 x15=0x00000001
       41355000	      4134	80004e78	00dba033	slt	x0,x23,x13	 x23:0x844befff x13:0x8062bfdd
       41365000	      4135	80004e7c	02874463	blt	x14,x8,80004ea4	 x14:0x80009ed8  x8:0x00000000
       41375000	      4136	00000000	00000013	addi	x0,x0,0	  x0:0x00000000
       41385000	      4137	80004ea0	00000013	addi	x0,x0,0	  x0:0x00000000
       41395000	      4138	80004ea4	001e5833	srl	x16,x28,x1	 x28:0x00000000  x1:0xfaf74000 x16=0x00000000
       41405000	      4139	80004ea8	01337663	bgeu	x6,x19,80004eb4	  x6:0x80000000 x19:0x00000000
       41415000	      4140	00000000	00000013	addi	x0,x0,0	  x0:0x00000000
       41425000	      4141	80004eb0	00000013	addi	x0,x0,0	  x0:0x00000000
       41435000	      4142	80004eb4	007182b3	add	x5,x3,x7	  x3:0x00000001  x7:0x00000000  x5=0x00000001
       41445000	      4143	80004eb8	015da4b3	slt	x9,x27,x21	 x27:0x21000000 x21:0x21000000  x9=0x00000000
       41455000	      4144	80004ebc	00a03ab3	sltu	x21,x0,x10	  x0:0x00000000 x10:0x80000000 x21=0x00000001
       41465000	      4145	80004ec0	01c85663	bge	x16,x28,80004ecc	 x16:0x00000000 x28:0x00000000
       41475000	      4146	00000000	00000013	addi	x0,x0,0	  x0:0x00000000
       41485000	      4147	80004ec8	00000013	addi	x0,x0,0	  x0:0x00000000
       41495000	      4148	80004ecc	41a95bb3	sra	x23,x18,x26	 x18:0xfff75275 x26:0x00000000 x23=0xfff75275
       41505000	      4149	80004ed0	003f9d33	sll	x26,x31,x3	 x31:0x20000000  x3:0x00000001 x26=0x40000000
       41515000	      4150	80004ed4	b292e693	ori	x13,x5,-1239	  x5:0x00000001 x13=0xfffffb29
       41525000	      4151	80004ed8	48c29297	auipc	x5,0x48c29	  x5=0xc8c2ded4
       41535000	      4152	80004edc	5ee2c493	xori	x9,x5,1518	  x5:0xc8c2ded4  x9=0xc8c2db3a
       41545000	      4153	80004ee0	b04ed097	auipc	x1,0xb04ed	  x1=0x304f1edc
       41555000	      4154	80004ee4	004050b3	srl	x1,x0,x4	  x0:0x00000000  x4:0x8062b71d  x1=0x00000000
       41565000	      4155	80004ee8	00719a93	slli	x21,x3,0x7	  x3:0x00000001 x21=0x00000080
       41575000	      4156	80004eec	4a220393	addi	x7,x4,1186	  x4:0x8062b71d  x7=0x8062bbbf
       41585000	      4157	80004ef0	018e8db3	add	x27,x29,x24	 x29:0x00000000 x24:0x80000000 x27=0x80000000
       41595000	      4158	80004ef4	01d6a033	slt	x0,x13,x29	 x13:0xfffffb29 x29:0x00000000
       41605000	      4159	80004ef8	00000013	addi	x0,x0,0	  x0:0x00000000
       41615000	      4160	80004efc	018ed933	srl	x18,x29,x24	 x29:0x00000000 x24:0x80000000 x18=0x00000000
       41625000	      4161	80004f00	008bd193	srli	x3,x23,0x8	 x23:0xfff75275  x3=0x00fff752
       41635000	      4162	80004f04	8ae4b917	auipc	x18,0x8ae4b	 x18=0x0ae4ff00
       41645000	      4163	80004f08	41ccd013	srai	x0,x25,0x1c	 x25:0x80009fc4
       41655000	      4164	80004f0c	0221dc63	bge	x3,x2,80004f44	  x3:0x00fff752  x2:0x00000000
       41665000	      4165	00000000	00000013	addi	x0,x0,0	  x0:0x00000000
       41675000	      4166	80004f40	00000013	addi	x0,x0,0	  x0:0x00000000
       41685000	      4167	80004f44	01aefe63	bgeu	x29,x26,80004f60	 x29:0x00000000 x26:0x40000000
       41695000	      4168	80004f48	01b01433	sll	x8,x0,x27	  x0:0x00000000 x27:0x80000000  x8=0x00000000
       41705000	      4169	80004f4c	8884f293	andi	x5,x9,-1912	  x9:0xc8c2db3a  x5=0xc8c2d808
       41715000	      4170	80004f50	01909093	slli	x1,x1,0x19	  x1:0x00000000  x1=0x00000000
       41725000	      4171	80004f54	012330b3	sltu	x1,x6,x18	  x6:0x80000000 x18:0x0ae4ff00  x1=0x00000000
       41735000	      4172	80004f58	57c23293	sltiu	x5,x4,1404	  x4:0x8062b71d  x5=0x00000000
       41745000	      4173	80004f5c	00fac033	xor	x0,x21,x15	 x21:0x00000080 x15:0x00000001
       41755000	      4174	80004f60	01855663	bge	x10,x24,80004f6c	 x10:0x80000000 x24:0x80000000
       41765000	      4175	00000000	00000013	addi	x0,x0,0	  x0:0x00000000
       41775000	      4176	80004f68	00000013	addi	x0,x0,0	  x0:0x00000000
       41785000	      4177	80004f6c	47de2693	slti	x13,x28,1149	 x28:0x00000000 x13=0x00000001
       41795000	      4178	80004f70	989b3e13	sltiu	x28,x22,-1655	 x22:0xffe11275 x28=0x00000001
       41805000	      4179	80004f74	e13e2297	auipc	x5,0xe13e2	  x5=0x613e6f70
       41815000	      4180	80004f78	015582b3	add	x5,x11,x21	 x11:0x844bf000 x21:0x00000080  x5=0x844bf080
       41825000	      4181	80004f7c	41aa5213	srai	x4,x20,0x1a	 x20:0xd4000000  x4=0xfffffff5
       41835000	      4182	80004f80	01885a13	srli	x20,x16,0x18	 x16:0x00000000 x20=0x00000000
       41845000	      4183	80004f84	3a442f93	slti	x31,x8,932	  x8:0x00000000 x31=0x00000001
       41855000	      4184	80004f88	01779a13	slli	x20,x15,0x17	 x15:0x00000001 x20=0x00800000
       41865000	      4185	80004f8c	01595f93	srli	x31,x18,0x15	 x18:0x0ae4ff00 x31=0x00000057
       41875000	      4186	80004f90	017d4663	blt	x26,x23,80004f9c	 x26:0x40000000 x23:0xfff75275
       41885000	      4187	80004f94	41e6d993	srai	x19,x13,0x1e	 x13:0x00000001 x19=0x00000000
       41895000	      4188	80004f98	01b99b13	slli	x22,x19,0x1b	 x19:0x00000000 x22=0x00000000
       41905000	      4189	80004f9c	00638533	add	x10,x7,x6	  x7:0x8062bbbf  x6:0x80000000 x10=0x0062bbbf
       41915000	      4190	80004fa0	8b26ea13	ori	x20,x13,-1870	 x13:0x00000001 x20=0xfffff8b3
       41925000	      4191	80004fa4	010af533	and	x10,x21,x16	 x21:0x00000080 x16:0x00000000 x10=0x00000000
       41935000	      4192	80004fa8	410805b3	sub	x11,x16,x16	 x16:0x00000000 x16:0x00000000 x11=0x00000000
       41945000	      4193	80004fac	00e10b33	add	x22,x2,x14	  x2:0x00000000 x14:0x80009ed8 x22=0x80009ed8
       41955000	      4194	80004fb0	00757f33	and	x30,x10,x7	 x10:0x00000000  x7:0x8062bbbf x30=0x00000000
       41965000	      4195	80004fb4	c67e99b7	lui	x19,0xc67e9	 x19=0xc67e9000
       41975000	      4196	80004fb8	417cd593	srai	x11,x25,0x17	 x25:0x80009fc4 x11=0xffffff00
       41985000	      4197	80004fbc	41c0d813	srai	x16,x1,0x1c	  x1:0x00000000 x16=0x00000000
       41995000	      4198	80004fc0	009252b3	srl	x5,x4,x9	  x4:0xfffffff5  x9:0xc8c2db3a  x5=0x0000003f
       42005000	      4199	80004fc4	9ab93b93	sltiu	x23,x18,-1621	 x18:0x0ae4ff00 x23=0x00000001
       42015000	      4200	80004fc8	f0230f13	addi	x30,x6,-254	  x6:0x80000000 x30=0x7fffff02
       42025000	      4201	80004fcc	643d7613	andi	x12,x26,1603	 x26:0x40000000 x12=0x00000000
       42035000	      4202	80004fd0	00d56933	or	x18,x10,x13	 x10:0x00000000 x13:0x00000001 x18=0x00000001
       42045000	      4203	80004fd4	e943c793	xori	x15,x7,-364	  x7:0x8062bbbf x15=0x7f9d452b
       42055000	      4204	80004fd8	014d15b3	sll	x11,x26,x20	 x26:0x40000000 x20:0xfffff8b3 x11=0x00000000
       42065000	      4205	80004fdc	42306913	ori	x18,x0,1059	  x0:0x00000000 x18=0x00000423
       42075000	      4206	80004fe0	011119b3	sll	x19,x2,x17	  x2:0x00000000 x17:0x00000021 x19=0x00000000
       42085000	      4207	80004fe4	01fa8e33	add	x28,x21,x31	 x21:0x00000080 x31:0x00000057 x28=0x000000d7
       42095000	      4208	80004fe8	013eeb33	or	x22,x29,x19	 x29:0x00000000 x19:0x00000000 x22=0x00000000
       42105000	      4209	80004fec	b70eb393	sltiu	x7,x29,-1168	 x29:0x00000000  x7=0x00000001
       42115000	      4210	80004ff0	009f6833	or	x16,x30,x9	 x30:0x7fffff02  x9:0xc8c2db3a x16=0xffffff3a
       42125000	      4211	80004ff4	04c44863	blt	x8,x12,80005044	  x8:0x00000000 x12:0x00000000
       42135000	      4212	80004ff8	0111b133	sltu	x2,x3,x17	  x3:0x00fff752 x17:0x00000021  x2=0x00000000
       42145000	      4213	80004ffc	0013c133	xor	x2,x7,x1	  x7:0x00000001  x1:0x00000000  x2=0x00000001
       42155000	      4214	80005000	0073c233	xor	x4,x7,x7	  x7:0x00000001  x7:0x00000001  x4=0x00000000
       42165000	      4215	80005004	7806e213	ori	x4,x13,1920	 x13:0x00000001  x4=0x00000781
       42175000	      4216	80005008	014c3433	sltu	x8,x24,x20	 x24:0x80000000 x20:0xfffff8b3  x8=0x00000001
       42185000	      4217	8000500c	01f8ea33	or	x20,x17,x31	 x17:0x00000021 x31:0x00000057 x20=0x00000077
       42195000	      4218	80005010	00321513	slli	x10,x4,0x3	  x4:0x00000781 x10=0x00003c08
       42205000	      4219	80005014	00593eb3	sltu	x29,x18,x5	 x18:0x00000423  x5:0x0000003f x29=0x00000000
       42215000	      4220	80005018	ed038193	addi	x3,x7,-304	  x7:0x00000001  x3=0xfffffed1
       42225000	      4221	8000501c	00000013	addi	x0,x0,0	  x0:0x00000000
       42235000	      4222	80005020	0496c263	blt	x13,x9,80005064	 x13:0x00000001  x9:0xc8c2db3a
       42245000	      4223	80005024	001791b3	sll	x3,x15,x1	 x15:0x7f9d452b  x1:0x00000000  x3=0x7f9d452b
       42255000	      4224	80005028	60d72693	slti	x13,x14,1549	 x14:0x80009ed8 x13=0x00000001
       42265000	      4225	8000502c	b699e513	ori	x10,x19,-1175	 x19:0x00000000 x10=0xfffffb69
       42275000	      4226	80005030	01e18233	add	x4,x3,x30	  x3:0x7f9d452b x30:0x7fffff02  x4=0xff9d442d
       42285000	      4227	80005034	4042d933	sra	x18,x5,x4	  x5:0x0000003f  x4:0xff9d442d x18=0x00000000
       42295000	      4228	80005038	014af233	and	x4,x21,x20	 x21:0x00000080 x20:0x00000077  x4=0x00000000
       42305000	      4229	8000503c	950b8193	addi	x3,x23,-1712	 x23:0x00000001  x3=0xfffff951
       42315000	      4230	80005040	41da8d33	sub	x26,x21,x29	 x21:0x00000080 x29:0x00000000 x26=0x00000080
       42325000	      4231	80005044	0309da63	bge	x19,x16,80005078	 x19:0x00000000 x16:0xffffff3a
       42335000	      4232	00000000	00000013	addi	x0,x0,0	  x0:0x00000000
       42345000	      4233	80005074	00000013	addi	x0,x0,0	  x0:0x00000000
       42355000	      4234	80005078	05f90663	beq	x18,x31,800050c4	 x18:0x00000000 x31:0x00000057
       42365000	      4235	8000507c	01859663	bne	x11,x24,80005088	 x11:0x00000000 x24:0x80000000
       42375000	      4236	00000000	00000013	addi	x0,x0,0	  x0:0x00000000
       42385000	      4237	80005084	00000013	addi	x0,x0,0	  x0:0x00000000
       42395000	      4238	80005088	03c54863	blt	x10,x28,800050b8	 x10:0xfffffb69 x28:0x000000d7
       42405000	      4239	00000000	00000013	addi	x0,x0,0	  x0:0x00000000
       42415000	      4240	800050b4	00000013	addi	x0,x0,0	  x0:0x00000000
       42425000	      4241	800050b8	017a1993	slli	x19,x20,0x17	 x20:0x00000077 x19=0x3b800000
       42435000	      4242	800050bc	9f5c2493	slti	x9,x24,-1547	 x24:0x80000000  x9=0x00000001
       42445000	      4243	800050c0	41b75e13	srai	x28,x14,0x1b	 x14:0x80009ed8 x28=0xfffffff0
       42455000	      4244	800050c4	008027b3	slt	x15,x0,x8	  x0:0x00000000  x8:0x00000001 x15=0x00000001
       42465000	      4245	800050c8	00db9533	sll	x10,x23,x13	 x23:0x00000001 x13:0x00000001 x10=0x00000002
       42475000	      4246	800050cc	02cb5863	bge	x22,x12,800050fc	 x22:0x00000000 x12:0x00000000
       42485000	      4247	00000000	00000013	addi	x0,x0,0	  x0:0x00000000
       42495000	      4248	800050f8	00000013	addi	x0,x0,0	  x0:0x00000000
       42505000	      4249	800050fc	91c3ea97	auipc	x21,0x91c3e	 x21=0x11c430f8
       42515000	      4250	80005100	efce2113	slti	x2,x28,-260	 x28:0xfffffff0  x2=0x00000000
       42525000	      4251	80005104	6ea34d17	auipc	x26,0x6ea34	 x26=0xeea39100
       42535000	      4252	80005108	01207933	and	x18,x0,x18	  x0:0x00000000 x18:0x00000000 x18=0x00000000
       42545000	      4253	8000510c	0020ca33	xor	x20,x1,x2	  x1:0x00000000  x2:0x00000000 x20=0x00000000
       42555000	      4254	80005110	0153fdb3	and	x27,x7,x21	  x7:0x00000001 x21:0x11c430f8 x27=0x00000000
       42565000	      4255	80005114	f328e1b7	lui	x3,0xf328e	  x3=0xf328e000
       42575000	      4256	80005118	0da96293	ori	x5,x18,218	 x18:0x00000000  x5=0x000000da
       42585000	      4257	8000511c	789c6913	ori	x18,x24,1929	 x24:0x80000000 x18=0x80000789
       42595000	      4258	80005120	05ff9263	bne	x31,x31,80005164	 x31:0x00000057 x31:0x00000057
       42605000	      4259	80005124	3a5f4913	xori	x18,x30,933	 x30:0x7fffff02 x18=0x7ffffca7
       42615000	      4260	80005128	3c447b17	auipc	x22,0x3c447	 x22=0xbc44c124
       42625000	      4261	8000512c	410a8db3	sub	x27,x21,x16	 x21:0x11c430f8 x16:0xffffff3a x27=0x11c431be
       42635000	      4262	80005130	01025e63	bge	x4,x16,8000514c	  x4:0x00000000 x16:0xffffff3a
       42645000	      4263	00000000	00000013	addi	x0,x0,0	  x0:0x00000000
       42655000	      4264	80005148	00000013	addi	x0,x0,0	  x0:0x00000000
       42665000	      4265	8000514c	00000013	addi	x0,x0,0	  x0:0x00000000
       42675000	      4266	80005150	c5883413	sltiu	x8,x16,-936	 x16:0xffffff3a  x8=0x00000000
       42685000	      4267	80005154	86ada093	slti	x1,x27,-1942	 x27:0x11c431be  x1=0x00000000
       42695000	      4268	80005158	014c1913	slli	x18,x24,0x14	 x24:0x80000000 x18=0x00000000
       42705000	      4269	8000515c	00000013	addi	x0,x0,0	  x0:0x00000000
       42715000	      4270	80005160	014d9a33	sll	x20,x27,x20	 x27:0x11c431be x20:0x00000000 x20=0x11c431be
       42725000	      4271	80005164	01999bb3	sll	x23,x19,x25	 x19:0x3b800000 x25:0x80009fc4 x23=0xb8000000
       42735000	      4272	80005168	7673cb93	xori	x23,x7,1895	  x7:0x00000001 x23=0x00000766
       42745000	      4273	8000516c	367a7817	auipc	x16,0x367a7	 x16=0xb67ac168
       42755000	      4274	80005170	02efc063	blt	x31,x14,80005190	 x31:0x00000057 x14:0x80009ed8
       42765000	      4275	80005174	01a8de33	srl	x28,x17,x26	 x17:0x00000021 x26:0xeea39100 x28=0x00000021
       42775000	      4276	80005178	00c97133	and	x2,x18,x12	 x18:0x00000000 x12:0x00000000  x2=0x00000000
       42785000	      4277	8000517c	82676413	ori	x8,x14,-2010	 x14:0x80009ed8  x8=0xfffffefe
       42795000	      4278	80005180	01f6d0b3	srl	x1,x13,x31	 x13:0x00000001 x31:0x00000057  x1=0x00000000
       42805000	      4279	80005184	c9edabb7	lui	x23,0xc9eda	 x23=0xc9eda000
       42815000	      4280	80005188	002e0e63	beq	x28,x2,800051a4	 x28:0x00000021  x2:0x00000000
       42825000	      4281	8000518c	c7b80a93	addi	x21,x16,-901	 x16:0xb67ac168 x21=0xb67abde3
       42835000	      4282	80005190	0107db13	srli	x22,x15,0x10	 x15:0x00000001 x22=0x00000000
       42845000	      4283	80005194	009b1133	sll	x2,x22,x9	 x22:0x00000000  x9:0x00000001  x2=0x00000000
       42855000	      4284	80005198	00315913	srli	x18,x2,0x3	  x2:0x00000000 x18=0x00000000
       42865000	      4285	8000519c	00acd213	srli	x4,x25,0xa	 x25:0x80009fc4  x4=0x00200027
       42875000	      4286	800051a0	073f7c63	bgeu	x30,x19,80005218	 x30:0x7fffff02 x19:0x3b800000
       42885000	      4287	00000000	00000013	addi	x0,x0,0	  x0:0x00000000
       42895000	      4288	80005214	00000013	addi	x0,x0,0	  x0:0x00000000
       42905000	      4289	80005218	57719617	auipc	x12,0x57719	 x12=0xd771e214
       42915000	      4290	8000521c	4792c493	xori	x9,x5,1145	  x5:0x000000da  x9=0x000004a3
       42925000	      4291	80005220	01e05eb3	srl	x29,x0,x30	  x0:0x00000000 x30:0x7fffff02 x29=0x00000000
       42935000	      4292	80005224	a7f80993	addi	x19,x16,-1409	 x16:0xb67ac168 x19=0xb67abbe7
       42945000	      4293	80005228	94488413	addi	x8,x17,-1724	 x17:0x00000021  x8=0xfffff965
       42955000	      4294	8000522c	87f9b037	lui	x0,0x87f9b	
       42965000	      4295	80005230	03d40a63	beq	x8,x29,80005264	  x8:0xfffff965 x29:0x00000000
       42975000	      4296	80005234	01ab36b3	sltu	x13,x22,x26	 x22:0x00000000 x26:0xeea39100 x13=0x00000001
       42985000	      4297	80005238	40d15eb3	sra	x29,x2,x13	  x2:0x00000000 x13:0x00000001 x29=0x00000000
       42995000	      4298	8000523c	00959513	slli	x10,x11,0x9	 x11:0x00000000 x10=0x00000000
       43005000	      4299	80005240	0042fe63	bgeu	x5,x4,8000525c	  x5:0x000000da  x4:0x00200027
       43015000	      4300	80005244	03c8e263	bltu	x17,x28,80005268	 x17:0x00000021 x28:0x00000021
       43025000	      4301	80005248	0387f463	bgeu	x15,x24,80005270	 x15:0x00000001 x24:0x80000000
       43035000	      4302	8000524c	034f7c63	bgeu	x30,x20,80005284	 x30:0x7fffff02 x20:0x11c431be
       43045000	      4303	00000000	00000013	addi	x0,x0,0	  x0:0x00000000
       43055000	      4304	80005280	00000013	addi	x0,x0,0	  x0:0x00000000
       43065000	      4305	80005284	00648663	beq	x9,x6,80005290	  x9:0x000004a3  x6:0x80000000
       43075000	      4306	80005288	02aeb413	sltiu	x8,x29,42	 x29:0x00000000  x8=0x00000001
       43085000	      4307	8000528c	00a5c0b3	xor	x1,x11,x10	 x11:0x00000000 x10:0x00000000  x1=0x00000000
       43095000	      4308	80005290	43755537	lui	x10,0x43755	 x10=0x43755000
       43105000	      4309	80005294	a5abe313	ori	x6,x23,-1446	 x23:0xc9eda000  x6=0xfffffa5a
       43115000	      4310	80005298	400fd393	srai	x7,x31,0x0	 x31:0x00000057  x7=0x00000057
       43125000	      4311	8000529c	00000013	addi	x0,x0,0	  x0:0x00000000
       43135000	      4312	800052a0	003fa3b3	slt	x7,x31,x3	 x31:0x00000057  x3:0xf328e000  x7=0x00000000
       43145000	      4313	800052a4	008cefb3	or	x31,x25,x8	 x25:0x80009fc4  x8:0x00000001 x31=0x80009fc5
       43155000	      4314	800052a8	00c9ce33	xor	x28,x19,x12	 x19:0xb67abbe7 x12:0xd771e214 x28=0x610b59f3
       43165000	      4315	800052ac	015b81b3	add	x3,x23,x21	 x23:0xc9eda000 x21:0xb67abde3  x3=0x80685de3
       43175000	      4316	800052b0	00472903	lw	x18,4(x14)	 x14:0x80009ed8 x18=0x80000694 PA:0x80009edc
       43185000	      4317	800052b4	01eb9893	slli	x17,x23,0x1e	 x23:0xc9eda000 x17=0x00000000
       43195000	      4318	800052b8	c9c0ca37	lui	x20,0xc9c0c	 x20=0xc9c0c000
       43205000	      4319	800052bc	2bdb6513	ori	x10,x22,701	 x22:0x00000000 x10=0x000002bd
       43215000	      4320	800052c0	011ad833	srl	x16,x21,x17	 x21:0xb67abde3 x17:0x00000000 x16=0xb67abde3
       43225000	      4321	800052c4	017ef3b3	and	x7,x29,x23	 x29:0x00000000 x23:0xc9eda000  x7=0x00000000
       43235000	      4322	800052c8	01fc3f33	sltu	x30,x24,x31	 x24:0x80000000 x31:0x80009fc5 x30=0x00000001
       43245000	      4323	800052cc	00c70713	addi	x14,x14,12	 x14:0x80009ed8 x14=0x80009ee4
       43255000	      4324	800052d0	000469b3	or	x19,x8,x0	  x8:0x00000001  x0:0x00000000 x19=0x00000001
       43265000	      4325	800052d4	00000013	addi	x0,x0,0	  x0:0x00000000
       43275000	      4326	800052d8	00090313	addi	x6,x18,0	 x18:0x80000694  x6=0x80000694
       43285000	      4327	800052dc	00030367	jalr	x6,x6,0	  x6:0x80000694  x6=0x800052dc
       43295000	      4328	00000000	00000013	addi	x0,x0,0	  x0:0x00000000
       43305000	      4329	80000694	00000013	addi	x0,x0,0	  x0:0x00000000
       43315000	      4330	80000698	ffbb2093	slti	x1,x22,-5	 x22:0x00000000  x1=0x00000000
       43325000	      4331	8000069c	419186b3	sub	x13,x3,x25	  x3:0x80685de3 x25:0x80009fc4 x13=0x0067be1f
       43335000	      4332	800006a0	015c2eb3	slt	x29,x24,x21	 x24:0x80000000 x21:0xb67abde3 x29=0x00000001
       43345000	      4333	800006a4	01693133	sltu	x2,x18,x22	 x18:0x80000694 x22:0x00000000  x2=0x00000000
       43355000	      4334	800006a8	00000013	addi	x0,x0,0	  x0:0x00000000
       43365000	      4335	800006ac	ccd6fd13	andi	x26,x13,-819	 x13:0x0067be1f x26=0x0067bc0d
       43375000	      4336	800006b0	26d3ed17	auipc	x26,0x26d3e	 x26=0xa6d3e6ac
       43385000	      4337	800006b4	746b0b13	addi	x22,x22,1862	 x22:0x00000000 x22=0x00000746
       43395000	      4338	800006b8	f0402eb7	lui	x29,0xf0402	 x29=0xf0402000
       43405000	      4339	800006bc	6850396f	jal	x18,800006bc	 x18=0x800006bc
       43415000	      4340	00000000	00000013	addi	x0,x0,0	  x0:0x00000000
       43425000	      4341	8000453c	00000013	addi	x0,x0,0	  x0:0x00000000
       43435000	      4342	80004540	ff470713	addi	x14,x14,-12	 x14:0x80009ee4 x14=0x80009ed8
       43445000	      4343	80004544	90cffa93	andi	x21,x31,-1780	 x31:0x80009fc5 x21=0x80009904
       43455000	      4344	80004548	019e8ab3	add	x21,x29,x25	 x29:0xf0402000 x25:0x80009fc4 x21=0x7040bfc4
       43465000	      4345	8000454c	ae4b2a13	slti	x20,x22,-1308	 x22:0x00000746 x20=0x00000000
       43475000	      4346	80004550	01272223	sw	x18,4(x14)	 x14:0x80009ed8 x18:0x800006bc PA:0x80009edc
       43485000	      4347	80004554	0030c4b3	xor	x9,x1,x3	  x1:0x00000000  x3:0x80685de3  x9=0x80685de3
       43495000	      4348	80004558	00004a17	auipc	x20,0x4	 x20=0x80008554
       43505000	      4349	8000455c	242a0a13	addi	x20,x20,578	 x20:0x80008554 x20=0x80008796
       43515000	      4350	80004560	00000013	addi	x0,x0,0	  x0:0x00000000
       43525000	      4351	80004564	0049f8b3	and	x17,x19,x4	 x19:0x00000001  x4:0x00200027 x17=0x00000001
       43535000	      4352	80004568	ffda0103	lb	x2,-3(x20)	 x20:0x80008796  x2=0x00000000 PA:0x80008793
       43545000	      4353	8000456c	ff0a5b83	lhu	x23,-16(x20)	 x20:0x80008796 x23=0x00000000 PA:0x80008786
       43555000	      4354	80004570	00d5d313	srli	x6,x11,0xd	 x11:0x00000000  x6=0x00000000
       43565000	      4355	80004574	ffaa0b83	lb	x23,-6(x20)	 x20:0x80008796 x23=0x00000000 PA:0x80008790
       43575000	      4356	80004578	fffa4683	lbu	x13,-1(x20)	 x20:0x80008796 x13=0x00000000 PA:0x80008795
       43585000	      4357	8000457c	005a06a3	sb	x5,13(x20)	 x20:0x80008796  x5:0x000000da PA:0x800087a3
       43595000	      4358	80004580	001108b3	add	x17,x2,x1	  x2:0x00000000  x1:0x00000000 x17=0x00000000
       43605000	      4359	80004584	4047db93	srai	x23,x15,0x4	 x15:0x00000001 x23=0x00000000
       43615000	      4360	80004588	000d4d33	xor	x26,x26,x0	 x26:0xa6d3e6ac  x0:0x00000000 x26=0xa6d3e6ac
       43625000	      4361	8000458c	004a2323	sw	x4,6(x20)	 x20:0x80008796  x4:0x00200027 PA:0x8000879c
       43635000	      4362	80004590	ff3a4783	lbu	x15,-13(x20)	 x20:0x80008796 x15=0x00000054 PA:0x80008789
       43645000	      4363	80004594	34ec9417	auipc	x8,0x34ec9	  x8=0xb4ecd590
       43655000	      4364	80004598	24eb8413	addi	x8,x23,590	 x23:0x00000000  x8=0x0000024e
       43665000	      4365	8000459c	2be36693	ori	x13,x6,702	  x6:0x00000000 x13=0x000002be
       43675000	      4366	800045a0	000a4b83	lbu	x23,0(x20)	 x20:0x80008796 x23=0x00000000 PA:0x80008796
       43685000	      4367	800045a4	00aa1723	sh	x10,14(x20)	 x20:0x80008796 x10:0x000002bd PA:0x800087a4
       43695000	      4368	800045a8	ff5a0803	lb	x16,-11(x20)	 x20:0x80008796 x16=0xffffffff PA:0x8000878b
       43705000	      4369	00000000	00000013	addi	x0,x0,0	  x0:0x00000000
       43715000	      4370	800045ac	ff0a1383	lh	x7,-16(x20)	 x20:0x80008796  x7=0x00000000 PA:0x80008786
       43725000	      4371	800045b0	12b04f93	xori	x31,x0,299	  x0:0x00000000 x31=0x0000012b
       43735000	      4372	800045b4	001a4103	lbu	x2,1(x20)	 x20:0x80008796  x2=0x0000004e PA:0x80008797
       43745000	      4373	800045b8	ff8a09a3	sb	x24,-13(x20)	 x20:0x80008796 x24:0x80000000 PA:0x80008789
       43755000	      4374	800045bc	ff6a2923	sw	x22,-14(x20)	 x20:0x80008796 x22:0x00000746 PA:0x80008788
       43765000	      4375	800045c0	41c603b3	sub	x7,x12,x28	 x12:0xd771e214 x28:0x610b59f3  x7=0x76668821
       43775000	      4376	800045c4	014a2123	sw	x20,2(x20)	 x20:0x80008796 x20:0x80008796 PA:0x80008798
       43785000	      4377	800045c8	ff1a0003	lb	x0,-15(x20)	 x20:0x80008796 PA:0x80008787
       43795000	      4378	800045cc	012a0323	sb	x18,6(x20)	 x20:0x80008796 x18:0x800006bc PA:0x8000879c
       43805000	      4379	800045d0	008a00a3	sb	x8,1(x20)	 x20:0x80008796  x8:0x0000024e PA:0x80008797
       43815000	      4380	800045d4	018a02a3	sb	x24,5(x20)	 x20:0x80008796 x24:0x80000000 PA:0x8000879b
       43825000	      4381	800045d8	ff8a1883	lh	x17,-8(x20)	 x20:0x80008796 x17=0x00000000 PA:0x8000878e
       43835000	      4382	00000000	00000013	addi	x0,x0,0	  x0:0x00000000
       43845000	      4383	800045dc	011105b3	add	x11,x2,x17	  x2:0x0000004e x17:0x00000000 x11=0x0000004e
       43855000	      4384	800045e0	ffca0783	lb	x15,-4(x20)	 x20:0x80008796 x15=0x00000000 PA:0x80008792
       43865000	      4385	800045e4	ff4a4403	lbu	x8,-12(x20)	 x20:0x80008796  x8=0x00000000 PA:0x8000878a
       43875000	      4386	800045e8	005a4403	lbu	x8,5(x20)	 x20:0x80008796  x8=0x00000000 PA:0x8000879b
       43885000	      4387	800045ec	002a5383	lhu	x7,2(x20)	 x20:0x80008796  x7=0x00008796 PA:0x80008798
       43895000	      4388	800045f0	ff3a0283	lb	x5,-13(x20)	 x20:0x80008796  x5=0x00000007 PA:0x80008789
       43905000	      4389	800045f4	feaa09a3	sb	x10,-13(x20)	 x20:0x80008796 x10:0x000002bd PA:0x80008789
       43915000	      4390	800045f8	012ed493	srli	x9,x29,0x12	 x29:0xf0402000  x9=0x00003c10
       43925000	      4391	800045fc	002a0203	lb	x4,2(x20)	 x20:0x80008796  x4=0xffffff96 PA:0x80008798
       43935000	      4392	80004600	00004117	auipc	x2,0x4	  x2=0x800085fc
       43945000	      4393	80004604	41910113	addi	x2,x2,1049	  x2:0x800085fc  x2=0x80008a15
       43955000	      4394	80004608	9a48b213	sltiu	x4,x17,-1628	 x17:0x00000000  x4=0x00000001
       43965000	      4395	8000460c	f7310d83	lb	x27,-141(x2)	  x2:0x80008a15 x27=0x00000000 PA:0x80008988
       43975000	      4396	80004610	40895d13	srai	x26,x18,0x8	 x18:0x800006bc x26=0xff800006
       43985000	      4397	80004614	0ac10d83	lb	x27,172(x2)	  x2:0x80008a15 x27=0x00000000 PA:0x80008ac1
       43995000	      4398	80004618	484f7813	andi	x16,x30,1156	 x30:0x00000001 x16=0x00000000
       44005000	      4399	8000461c	4087deb3	sra	x29,x15,x8	 x15:0x00000000  x8:0x00000000 x29=0x00000000
       44015000	      4400	80004620	0138d293	srli	x5,x17,0x13	 x17:0x00000000  x5=0x00000000
       44025000	      4401	80004624	f6610a83	lb	x21,-154(x2)	  x2:0x80008a15 x21=0x00000000 PA:0x8000897b
       44035000	      4402	80004628	090121a3	sw	x16,131(x2)	  x2:0x80008a15 x16:0x00000000 PA:0x80008a98
       44045000	      4403	8000462c	f4611da3	sh	x6,-165(x2)	  x2:0x80008a15  x6:0x00000000 PA:0x80008970
       44055000	      4404	80004630	0af14083	lbu	x1,175(x2)	  x2:0x80008a15  x1=0x00000000 PA:0x80008ac4
       44065000	      4405	80004634	06414403	lbu	x8,100(x2)	  x2:0x80008a15  x8=0x00000000 PA:0x80008a79
       44075000	      4406	80004638	82d54a13	xori	x20,x10,-2003	 x10:0x000002bd x20=0xfffffa90
       44085000	      4407	8000463c	ddb94893	xori	x17,x18,-549	 x18:0x800006bc x17=0x7ffffb67
       44095000	      4408	80004640	0034d593	srli	x11,x9,0x3	  x9:0x00003c10 x11=0x00000782
       44105000	      4409	80004644	f1910603	lb	x12,-231(x2)	  x2:0x80008a15 x12=0x00000000 PA:0x8000892e
       44115000	      4410	80004648	faf14a03	lbu	x20,-81(x2)	  x2:0x80008a15 x20=0x00000000 PA:0x800089c4
       44125000	      4411	8000464c	b7f77237	lui	x4,0xb7f77	  x4=0xb7f77000
       44135000	      4412	80004650	103b7b13	andi	x22,x22,259	 x22:0x00000746 x22=0x00000102
       44145000	      4413	80004654	006bca33	xor	x20,x23,x6	 x23:0x00000000  x6:0x00000000 x20=0x00000000
       44155000	      4414	80004658	0ae14383	lbu	x7,174(x2)	  x2:0x80008a15  x7=0x00000000 PA:0x80008ac3
       44165000	      4415	8000465c	400eda93	srai	x21,x29,0x0	 x29:0x00000000 x21=0x00000000
       44175000	      4416	80004660	ff410d23	sb	x20,-6(x2)	  x2:0x80008a15 x20:0x00000000 PA:0x80008a0f
       44185000	      4417	80004664	41fa5d93	srai	x27,x20,0x1f	 x20:0x00000000 x27=0x00000000
       44195000	      4418	80004668	8c892813	slti	x16,x18,-1848	 x18:0x800006bc x16=0x00000001
       44205000	      4419	8000466c	00396f33	or	x30,x18,x3	 x18:0x800006bc  x3:0x80685de3 x30=0x80685fff
       44215000	      4420	80004670	241c9db7	lui	x27,0x241c9	 x27=0x241c9000
       44225000	      4421	80004674	fa110503	lb	x10,-95(x2)	  x2:0x80008a15 x10=0x00000000 PA:0x800089b6
       44235000	      4422	80004678	fe910a03	lb	x20,-23(x2)	  x2:0x80008a15 x20=0x00000000 PA:0x800089fe
       44245000	      4423	8000467c	41ecd833	sra	x16,x25,x30	 x25:0x80009fc4 x30:0x80685fff x16=0xffffffff
       44255000	      4424	80004680	08f14583	lbu	x11,143(x2)	  x2:0x80008a15 x11=0x00000000 PA:0x80008aa4
       44265000	      4425	80004684	00004f17	auipc	x30,0x4	 x30=0x80008680
       44275000	      4426	80004688	da6f0f13	addi	x30,x30,-602	 x30:0x80008680 x30=0x80008426
       44285000	      4427	8000468c	febf0503	lb	x10,-21(x30)	 x30:0x80008426 x10=0x00000000 PA:0x80008411
       44295000	      4428	80004690	01ff0d03	lb	x26,31(x30)	 x30:0x80008426 x26=0x00000000 PA:0x80008445
       44305000	      4429	80004694	fccf0b23	sb	x12,-42(x30)	 x30:0x80008426 x12:0x00000000 PA:0x800083fc
       44315000	      4430	80004698	fe4f4183	lbu	x3,-28(x30)	 x30:0x80008426  x3=0x00000000 PA:0x8000840a
       44325000	      4431	8000469c	03af2a03	lw	x20,58(x30)	 x30:0x80008426 x20=0x004f0000 PA:0x80008460
       44335000	      4432	800046a0	00ceb033	sltu	x0,x29,x12	 x29:0x00000000 x12:0x00000000
       44345000	      4433	800046a4	031f0e23	sb	x17,60(x30)	 x30:0x80008426 x17:0x7ffffb67 PA:0x80008462
       44355000	      4434	800046a8	01af4203	lbu	x4,26(x30)	 x30:0x80008426  x4=0x00000000 PA:0x80008440
       44365000	      4435	800046ac	8afe4813	xori	x16,x28,-1873	 x28:0x610b59f3 x16=0x9ef4a15c
       44375000	      4436	800046b0	013f4e03	lbu	x28,19(x30)	 x30:0x80008426 x28=0x00000000 PA:0x80008439
       44385000	      4437	800046b4	44228593	addi	x11,x5,1090	  x5:0x00000000 x11=0x00000442
       44395000	      4438	800046b8	02cf0583	lb	x11,44(x30)	 x30:0x80008426 x11=0x00000000 PA:0x80008452
       44405000	      4439	800046bc	e6106493	ori	x9,x0,-415	  x0:0x00000000  x9=0xfffffe61
       44415000	      4440	800046c0	32ba8993	addi	x19,x21,811	 x21:0x00000000 x19=0x0000032b
       44425000	      4441	800046c4	00ef08a3	sb	x14,17(x30)	 x30:0x80008426 x14:0x80009ed8 PA:0x80008437
       44435000	      4442	800046c8	5bc5f813	andi	x16,x11,1468	 x11:0x00000000 x16=0x00000000
       44445000	      4443	800046cc	033f4883	lbu	x17,51(x30)	 x30:0x80008426 x17=0x00000000 PA:0x80008459
       44455000	      4444	800046d0	00e73b33	sltu	x22,x14,x14	 x14:0x80009ed8 x14:0x80009ed8 x22=0x00000000
       44465000	      4445	800046d4	fcff0083	lb	x1,-49(x30)	 x30:0x80008426  x1=0x00000000 PA:0x800083f5
       44475000	      4446	800046d8	006f2523	sw	x6,10(x30)	 x30:0x80008426  x6:0x00000000 PA:0x80008430
       44485000	      4447	800046dc	035f4783	lbu	x15,53(x30)	 x30:0x80008426 x15=0x00000000 PA:0x8000845b
       44495000	      4448	800046e0	40c1ddb3	sra	x27,x3,x12	  x3:0x00000000 x12:0x00000000 x27=0x00000000
       44505000	      4449	800046e4	018f4783	lbu	x15,24(x30)	 x30:0x80008426 x15=0x00000000 PA:0x8000843e
       44515000	      4450	00000000	00000013	addi	x0,x0,0	  x0:0x00000000
       44525000	      4451	800046e8	02ff0ea3	sb	x15,61(x30)	 x30:0x80008426 x15:0x00000000 PA:0x80008463
       44535000	      4452	800046ec	01a30fb3	add	x31,x6,x26	  x6:0x00000000 x26:0x00000000 x31=0x00000000
       44545000	      4453	800046f0	66740797	auipc	x15,0x66740	 x15=0xe67446ec
       44555000	      4454	800046f4	91b57893	andi	x17,x10,-1765	 x10:0x00000000 x17=0x00000000
       44565000	      4455	800046f8	00415933	srl	x18,x2,x4	  x2:0x80008a15  x4:0x00000000 x18=0x80008a15
       44575000	      4456	800046fc	fcef5903	lhu	x18,-50(x30)	 x30:0x80008426 x18=0x00000000 PA:0x800083f4
       44585000	      4457	80004700	49b4e113	ori	x2,x9,1179	  x9:0xfffffe61  x2=0xfffffefb
       44595000	      4458	80004704	fd8f5003	lhu	x0,-40(x30)	 x30:0x80008426 PA:0x800083fe
       44605000	      4459	80004708	fc8f1883	lh	x17,-56(x30)	 x30:0x80008426 x17=0x00000000 PA:0x800083ee
       44615000	      4460	8000470c	02ff1823	sh	x15,48(x30)	 x30:0x80008426 x15:0xe67446ec PA:0x80008456
       44625000	      4461	80004710	01a908b3	add	x17,x18,x26	 x18:0x00000000 x26:0x00000000 x17=0x00000000
       44635000	      4462	80004714	004966b3	or	x13,x18,x4	 x18:0x00000000  x4:0x00000000 x13=0x00000000
       44645000	      4463	80004718	a1ab7f93	andi	x31,x22,-1510	 x22:0x00000000 x31=0x00000000
       44655000	      4464	8000471c	e948c613	xori	x12,x17,-364	 x17:0x00000000 x12=0xfffffe94
       44665000	      4465	80004720	ff7f0623	sb	x23,-20(x30)	 x30:0x80008426 x23:0x00000000 PA:0x80008412
       44675000	      4466	80004724	00004b97	auipc	x23,0x4	 x23=0x80008720
       44685000	      4467	80004728	1b2b8b93	addi	x23,x23,434	 x23:0x80008720 x23=0x800088d2
       44695000	      4468	8000472c	008bcd83	lbu	x27,8(x23)	 x23:0x800088d2 x27=0x00000000 PA:0x800088da
       44705000	      4469	80004730	01aadb13	srli	x22,x21,0x1a	 x21:0x00000000 x22=0x00000000
       44715000	      4470	80004734	00dbce03	lbu	x28,13(x23)	 x23:0x800088d2 x28=0x00000000 PA:0x800088df
       44725000	      4471	80004738	003bc583	lbu	x11,3(x23)	 x23:0x800088d2 x11=0x00000000 PA:0x800088d5
       44735000	      4472	8000473c	ff6b9583	lh	x11,-10(x23)	 x23:0x800088d2 x11=0x00000000 PA:0x800088c8
       44745000	      4473	80004740	008b9e83	lh	x29,8(x23)	 x23:0x800088d2 x29=0x00000000 PA:0x800088da
       44755000	      4474	80004744	ff6bd483	lhu	x9,-10(x23)	 x23:0x800088d2  x9=0x00000000 PA:0x800088c8
       44765000	      4475	80004748	015dfd33	and	x26,x27,x21	 x27:0x00000000 x21:0x00000000 x26=0x00000000
       44775000	      4476	8000474c	006bc183	lbu	x3,6(x23)	 x23:0x800088d2  x3=0x00000000 PA:0x800088d8
       44785000	      4477	80004750	00ffe2b3	or	x5,x31,x15	 x31:0x00000000 x15:0xe67446ec  x5=0xe67446ec
       44795000	      4478	80004754	00952233	slt	x4,x10,x9	 x10:0x00000000  x9:0x00000000  x4=0x00000000
       44805000	      4479	80004758	01a76533	or	x10,x14,x26	 x14:0x80009ed8 x26:0x00000000 x10=0x80009ed8
       44815000	      4480	8000475c	169b4617	auipc	x12,0x169b4	 x12=0x969b8758
       44825000	      4481	80004760	00000013	addi	x0,x0,0	  x0:0x00000000
       44835000	      4482	80004764	011b82a3	sb	x17,5(x23)	 x23:0x800088d2 x17:0x00000000 PA:0x800088d7
       44845000	      4483	80004768	e99c6137	lui	x2,0xe99c6	  x2=0xe99c6000
       44855000	      4484	8000476c	009c6133	or	x2,x24,x9	 x24:0x80000000  x9:0x00000000  x2=0x80000000
       44865000	      4485	80004770	fefb8823	sb	x15,-16(x23)	 x23:0x800088d2 x15:0xe67446ec PA:0x800088c2
       44875000	      4486	80004774	fe7b9923	sh	x7,-14(x23)	 x23:0x800088d2  x7:0x00000000 PA:0x800088c4
       44885000	      4487	80004778	bca2e913	ori	x18,x5,-1078	  x5:0xe67446ec x18=0xffffffee
       44895000	      4488	8000477c	40f58633	sub	x12,x11,x15	 x11:0x00000000 x15:0xe67446ec x12=0x198bb914
       44905000	      4489	80004780	00000013	addi	x0,x0,0	  x0:0x00000000
       44915000	      4490	80004784	ff7b8383	lb	x7,-9(x23)	 x23:0x800088d2  x7=0x00000000 PA:0x800088c9
       44925000	      4491	80004788	0012bfb3	sltu	x31,x5,x1	  x5:0xe67446ec  x1:0x00000000 x31=0x00000000
       44935000	      4492	8000478c	0080a633	slt	x12,x1,x8	  x1:0x00000000  x8:0x00000000 x12=0x00000000
       44945000	      4493	80004790	dd846413	ori	x8,x8,-552	  x8:0x00000000  x8=0xfffffdd8
       44955000	      4494	80004794	ffbb8183	lb	x3,-5(x23)	 x23:0x800088d2  x3=0x00000000 PA:0x800088cd
       44965000	      4495	80004798	01a6e933	or	x18,x13,x26	 x13:0x00000000 x26:0x00000000 x18=0x00000000
       44975000	      4496	8000479c	004b9403	lh	x8,4(x23)	 x23:0x800088d2  x8=0x00000000 PA:0x800088d6
       44985000	      4497	800047a0	00004117	auipc	x2,0x4	  x2=0x8000879c
       44995000	      4498	800047a4	f0a10113	addi	x2,x2,-246	  x2:0x8000879c  x2=0x800086a6
       45005000	      4499	800047a8	9a710803	lb	x16,-1625(x2)	  x2:0x800086a6 x16=0x00000000 PA:0x8000804d
       45015000	      4500	800047ac	f0b10d83	lb	x27,-245(x2)	  x2:0x800086a6 x27=0x00000000 PA:0x800085b1
       45025000	      4501	800047b0	f3f10d23	sb	x31,-198(x2)	  x2:0x800086a6 x31:0x00000000 PA:0x800085e0
       45035000	      4502	800047b4	016b1fb3	sll	x31,x22,x22	 x22:0x00000000 x22:0x00000000 x31=0x00000000
       45045000	      4503	800047b8	00000013	addi	x0,x0,0	  x0:0x00000000
       45055000	      4504	800047bc	00a29313	slli	x6,x5,0xa	  x5:0xe67446ec  x6=0xd11bb000
       45065000	      4505	800047c0	a8110aa3	sb	x1,-1387(x2)	  x2:0x800086a6  x1:0x00000000 PA:0x8000813b
       45075000	      4506	800047c4	e3614d83	lbu	x27,-458(x2)	  x2:0x800086a6 x27=0x00000000 PA:0x800084dc
       45085000	      4507	800047c8	40e085b3	sub	x11,x1,x14	  x1:0x00000000 x14:0x80009ed8 x11=0x7fff6128
       45095000	      4508	800047cc	db714183	lbu	x3,-585(x2)	  x2:0x800086a6  x3=0x00000000 PA:0x8000845d
       45105000	      4509	800047d0	00585893	srli	x17,x16,0x5	 x16:0x00000000 x17=0x00000000
       45115000	      4510	800047d4	13b12b23	sw	x27,310(x2)	  x2:0x800086a6 x27:0x00000000 PA:0x800087dc
       45125000	      4511	800047d8	00cd2db3	slt	x27,x26,x12	 x26:0x00000000 x12:0x00000000 x27=0x00000000
       45135000	      4512	800047dc	dd0102a3	sb	x16,-571(x2)	  x2:0x800086a6 x16:0x00000000 PA:0x8000846b
       45145000	      4513	800047e0	007c1093	slli	x1,x24,0x7	 x24:0x80000000  x1=0x00000000
       45155000	      4514	800047e4	13d10783	lb	x15,317(x2)	  x2:0x800086a6 x15=0x00000000 PA:0x800087e3
       45165000	      4515	800047e8	0c815b03	lhu	x22,200(x2)	  x2:0x800086a6 x22=0x00000000 PA:0x8000876e
       45175000	      4516	800047ec	b4714083	lbu	x1,-1209(x2)	  x2:0x800086a6  x1=0x00000000 PA:0x800081ed
       45185000	      4517	800047f0	333d4013	xori	x0,x26,819	 x26:0x00000000
       45195000	      4518	800047f4	d6514883	lbu	x17,-667(x2)	  x2:0x800086a6 x17=0x00000000 PA:0x8000840b
       45205000	      4519	800047f8	00ae51b3	srl	x3,x28,x10	 x28:0x00000000 x10:0x80009ed8  x3=0x00000000
       45215000	      4520	800047fc	01c32933	slt	x18,x6,x28	  x6:0xd11bb000 x28:0x00000000 x18=0x00000001
       45225000	      4521	80004800	01d11433	sll	x8,x2,x29	  x2:0x800086a6 x29:0x00000000  x8=0x800086a6
       45235000	      4522	80004804	01721a33	sll	x20,x4,x23	  x4:0x00000000 x23:0x800088d2 x20=0x00000000
       45245000	      4523	80004808	dbc14883	lbu	x17,-580(x2)	  x2:0x800086a6 x17=0x00000067 PA:0x80008462
       45255000	      4524	8000480c	a1d12523	sw	x29,-1526(x2)	  x2:0x800086a6 x29:0x00000000 PA:0x800080b0
       45265000	      4525	80004810	0ce15483	lhu	x9,206(x2)	  x2:0x800086a6  x9=0x00000000 PA:0x80008774
       45275000	      4526	80004814	01e79193	slli	x3,x15,0x1e	 x15:0x00000000  x3=0x00000000
       45285000	      4527	80004818	41d905b3	sub	x11,x18,x29	 x18:0x00000001 x29:0x00000000 x11=0x00000001
       45295000	      4528	8000481c	0df107a3	sb	x31,207(x2)	  x2:0x800086a6 x31:0x00000000 PA:0x80008775
       45305000	      4529	80004820	ec810623	sb	x8,-308(x2)	  x2:0x800086a6  x8:0x800086a6 PA:0x80008572
       45315000	      4530	80004824	87646093	ori	x1,x8,-1930	  x8:0x800086a6  x1=0xfffffef6
       45325000	      4531	80004828	004577b3	and	x15,x10,x4	 x10:0x80009ed8  x4:0x00000000 x15=0x00000000
       45335000	      4532	8000482c	e063c213	xori	x4,x7,-506	  x7:0x00000000  x4=0xfffffe06
       45345000	      4533	80004830	0081aeb3	slt	x29,x3,x8	  x3:0x00000000  x8:0x800086a6 x29=0x00000000
       45355000	      4534	80004834	01516ab3	or	x21,x2,x21	  x2:0x800086a6 x21:0x00000000 x21=0x800086a6
       45365000	      4535	80004838	01fc39b3	sltu	x19,x24,x31	 x24:0x80000000 x31:0x00000000 x19=0x00000000
       45375000	      4536	8000483c	40215113	srai	x2,x2,0x2	  x2:0x800086a6  x2=0xe00021a9
       45385000	      4537	80004840	ecd37013	andi	x0,x6,-307	  x6:0xd11bb000
       45395000	      4538	80004844	0585f663	bgeu	x11,x24,80004890	 x11:0x00000001 x24:0x80000000
       45405000	      4539	80004848	00e47663	bgeu	x8,x14,80004854	  x8:0x800086a6 x14:0x80009ed8
       45415000	      4540	8000484c	ca5dcf13	xori	x30,x27,-859	 x27:0x00000000 x30=0xfffffca5
       45425000	      4541	80004850	00385333	srl	x6,x16,x3	 x16:0x00000000  x3:0x00000000  x6=0x00000000
       45435000	      4542	80004854	00015493	srli	x9,x2,0x0	  x2:0xe00021a9  x9=0xe00021a9
       45445000	      4543	80004858	01a81b93	slli	x23,x16,0x1a	 x16:0x00000000 x23=0x00000000
       45455000	      4544	8000485c	04c7e863	bltu	x15,x12,800048ac	 x15:0x00000000 x12:0x00000000
       45465000	      4545	80004860	000dfdb3	and	x27,x27,x0	 x27:0x00000000  x0:0x00000000 x27=0x00000000
       45475000	      4546	80004864	418bd4b3	sra	x9,x23,x24	 x23:0x00000000 x24:0x80000000  x9=0x00000000
       45485000	      4547	80004868	016ffdb3	and	x27,x31,x22	 x31:0x00000000 x22:0x00000000 x27=0x00000000
       45495000	      4548	8000486c	c1fe3e37	lui	x28,0xc1fe3	 x28=0xc1fe3000
       45505000	      4549	80004870	4bc04e13	xori	x28,x0,1212	  x0:0x00000000 x28=0x000004bc
       45515000	      4550	80004874	00ce5e13	srli	x28,x28,0xc	 x28:0x000004bc x28=0x00000000
       45525000	      4551	80004878	f9111ab7	lui	x21,0xf9111	 x21=0xf9111000
       45535000	      4552	8000487c	f528a293	slti	x5,x17,-174	 x17:0x00000067  x5=0x00000000
       45545000	      4553	80004880	003bce63	blt	x23,x3,8000489c	 x23:0x00000000  x3:0x00000000
       45555000	      4554	80004884	0330f263	bgeu	x1,x19,800048a8	  x1:0xfffffef6 x19:0x00000000
       45565000	      4555	00000000	00000013	addi	x0,x0,0	  x0:0x00000000
       45575000	      4556	800048a4	00000013	addi	x0,x0,0	  x0:0x00000000
       45585000	      4557	800048a8	025d5863	bge	x26,x5,800048d8	 x26:0x00000000  x5:0x00000000
       45595000	      4558	00000000	00000013	addi	x0,x0,0	  x0:0x00000000
       45605000	      4559	800048d4	00000013	addi	x0,x0,0	  x0:0x00000000
       45615000	      4560	800048d8	00502833	slt	x16,x0,x5	  x0:0x00000000  x5:0x00000000 x16=0x00000000
       45625000	      4561	800048dc	0103db93	srli	x23,x7,0x10	  x7:0x00000000 x23=0x00000000
       45635000	      4562	800048e0	41fbd813	srai	x16,x23,0x1f	 x23:0x00000000 x16=0x00000000
       45645000	      4563	800048e4	01c11093	slli	x1,x2,0x1c	  x2:0xe00021a9  x1=0x90000000
       45655000	      4564	800048e8	ac01b197	auipc	x3,0xac01b	  x3=0x2c01f8e4
       45665000	      4565	800048ec	e71ae313	ori	x6,x21,-399	 x21:0xf9111000  x6=0xfffffe71
       45675000	      4566	800048f0	01b1a933	slt	x18,x3,x27	  x3:0x2c01f8e4 x27:0x00000000 x18=0x00000000
       45685000	      4567	800048f4	00000013	addi	x0,x0,0	  x0:0x00000000
       45695000	      4568	800048f8	01eadd33	srl	x26,x21,x30	 x21:0xf9111000 x30:0xfffffca5 x26=0x07c88880
       45705000	      4569	800048fc	01e45393	srli	x7,x8,0x1e	  x8:0x800086a6  x7=0x00000002
       45715000	      4570	80004900	01b55a63	bge	x10,x27,80004914	 x10:0x80009ed8 x27:0x00000000
       45725000	      4571	80004904	01ae75b3	and	x11,x28,x26	 x28:0x00000000 x26:0x07c88880 x11=0x00000000
       45735000	      4572	80004908	41ad5fb3	sra	x31,x26,x26	 x26:0x07c88880 x26:0x07c88880 x31=0x07c88880
       45745000	      4573	8000490c	41838fb3	sub	x31,x7,x24	  x7:0x00000002 x24:0x80000000 x31=0x80000002
       45755000	      4574	80004910	4071df93	srai	x31,x3,0x7	  x3:0x2c01f8e4 x31=0x005803f1
       45765000	      4575	80004914	00000013	addi	x0,x0,0	  x0:0x00000000
       45775000	      4576	80004918	019b44b3	xor	x9,x22,x25	 x22:0x00000000 x25:0x80009fc4  x9=0x80009fc4
       45785000	      4577	8000491c	d6e8f3b7	lui	x7,0xd6e8f	  x7=0xd6e8f000
       45795000	      4578	80004920	012180b3	add	x1,x3,x18	  x3:0x2c01f8e4 x18:0x00000000  x1=0x2c01f8e4
       45805000	      4579	80004924	41cf0a33	sub	x20,x30,x28	 x30:0xfffffca5 x28:0x00000000 x20=0xfffffca5
       45815000	      4580	80004928	273f7693	andi	x13,x30,627	 x30:0xfffffca5 x13=0x00000021
       45825000	      4581	8000492c	00d60a33	add	x20,x12,x13	 x12:0x00000000 x13:0x00000021 x20=0x00000021
       45835000	      4582	80004930	00bdd093	srli	x1,x27,0xb	 x27:0x00000000  x1=0x00000000
       45845000	      4583	80004934	0025c333	xor	x6,x11,x2	 x11:0x00000000  x2:0xe00021a9  x6=0xe00021a9
       45855000	      4584	80004938	020d1063	bne	x26,x0,80004958	 x26:0x07c88880  x0:0x00000000
       45865000	      4585	00000000	00000013	addi	x0,x0,0	  x0:0x00000000
       45875000	      4586	80004954	00000013	addi	x0,x0,0	  x0:0x00000000
       45885000	      4587	80004958	0520c863	blt	x1,x18,800049a8	  x1:0x00000000 x18:0x00000000
       45895000	      4588	8000495c	01b36f33	or	x30,x6,x27	  x6:0xe00021a9 x27:0x00000000 x30=0xe00021a9
       45905000	      4589	80004960	411783b3	sub	x7,x15,x17	 x15:0x00000000 x17:0x00000067  x7=0xffffff99
       45915000	      4590	80004964	5298f013	andi	x0,x17,1321	 x17:0x00000067
       45925000	      4591	80004968	40ba0ab3	sub	x21,x20,x11	 x20:0x00000021 x11:0x00000000 x21=0x00000021
       45935000	      4592	8000496c	5a6d2d93	slti	x27,x26,1446	 x26:0x07c88880 x27=0x00000000
       45945000	      4593	80004970	01a090b3	sll	x1,x1,x26	  x1:0x00000000 x26:0x07c88880  x1=0x00000000
       45955000	      4594	80004974	015bf433	and	x8,x23,x21	 x23:0x00000000 x21:0x00000021  x8=0x00000000
       45965000	      4595	80004978	50b5cf13	xori	x30,x11,1291	 x11:0x00000000 x30=0x0000050b
       45975000	      4596	8000497c	40235193	srai	x3,x6,0x2	  x6:0xe00021a9  x3=0xf800086a
       45985000	      4597	80004980	00608eb3	add	x29,x1,x6	  x1:0x00000000  x6:0xe00021a9 x29=0xe00021a9
       45995000	      4598	80004984	d6603037	lui	x0,0xd6603	
       46005000	      4599	80004988	00a43233	sltu	x4,x8,x10	  x8:0x00000000 x10:0x80009ed8  x4=0x00000001
       46015000	      4600	8000498c	005c5613	srli	x12,x24,0x5	 x24:0x80000000 x12=0x04000000
       46025000	      4601	80004990	028c1a63	bne	x24,x8,800049c4	 x24:0x80000000  x8:0x00000000
       46035000	      4602	00000000	00000013	addi	x0,x0,0	  x0:0x00000000
       46045000	      4603	800049c0	00000013	addi	x0,x0,0	  x0:0x00000000
       46055000	      4604	800049c4	04700263	beq	x0,x7,80004a08	  x0:0x00000000  x7:0xffffff99
       46065000	      4605	800049c8	88314413	xori	x8,x2,-1917	  x2:0xe00021a9  x8=0x1fffd92a
       46075000	      4606	800049cc	50530613	addi	x12,x6,1285	  x6:0xe00021a9 x12=0xe00026ae
       46085000	      4607	800049d0	01da78b3	and	x17,x20,x29	 x20:0x00000021 x29:0xe00021a9 x17=0x00000021
       46095000	      4608	800049d4	01d35313	srli	x6,x6,0x1d	  x6:0xe00021a9  x6=0x00000007
       46105000	      4609	800049d8	01dbbab3	sltu	x21,x23,x29	 x23:0x00000000 x29:0xe00021a9 x21=0x00000001
       46115000	      4610	800049dc	1c1be037	lui	x0,0x1c1be	
       46125000	      4611	800049e0	0039de63	bge	x19,x3,800049fc	 x19:0x00000000  x3:0xf800086a
       46135000	      4612	00000000	00000013	addi	x0,x0,0	  x0:0x00000000
       46145000	      4613	800049f8	00000013	addi	x0,x0,0	  x0:0x00000000
       46155000	      4614	800049fc	04918663	beq	x3,x9,80004a48	  x3:0xf800086a  x9:0x80009fc4
       46165000	      4615	80004a00	00f0bfb3	sltu	x31,x1,x15	  x1:0x00000000 x15:0x00000000 x31=0x00000000
       46175000	      4616	80004a04	844bf7b7	lui	x15,0x844bf	 x15=0x844bf000
       46185000	      4617	80004a08	b9902637	lui	x12,0xb9902	 x12=0xb9902000
       46195000	      4618	80004a0c	18f54313	xori	x6,x10,399	 x10:0x80009ed8  x6=0x80009f57
       46205000	      4619	80004a10	0126a9b3	slt	x19,x13,x18	 x13:0x00000021 x18:0x00000000 x19=0x00000000
       46215000	      4620	80004a14	48fdc393	xori	x7,x27,1167	 x27:0x00000000  x7=0x0000048f
       46225000	      4621	80004a18	0328c863	blt	x17,x18,80004a48	 x17:0x00000021 x18:0x00000000
       46235000	      4622	80004a1c	007cc333	xor	x6,x25,x7	 x25:0x80009fc4  x7:0x0000048f  x6=0x80009b4b
       46245000	      4623	80004a20	1080c413	xori	x8,x1,264	  x1:0x00000000  x8=0x00000108
       46255000	      4624	80004a24	01ac0b33	add	x22,x24,x26	 x24:0x80000000 x26:0x07c88880 x22=0x87c88880
       46265000	      4625	80004a28	01319eb3	sll	x29,x3,x19	  x3:0xf800086a x19:0x00000000 x29=0xf800086a
       46275000	      4626	80004a2c	40695313	srai	x6,x18,0x6	 x18:0x00000000  x6=0x00000000
       46285000	      4627	80004a30	039d4c63	blt	x26,x25,80004a68	 x26:0x07c88880 x25:0x80009fc4
       46295000	      4628	80004a34	05018463	beq	x3,x16,80004a7c	  x3:0xf800086a x16:0x00000000
       46305000	      4629	80004a38	410d04b3	sub	x9,x26,x16	 x26:0x07c88880 x16:0x00000000  x9=0x07c88880
       46315000	      4630	80004a3c	40e50633	sub	x12,x10,x14	 x10:0x80009ed8 x14:0x80009ed8 x12=0x00000000
       46325000	      4631	80004a40	41d7d1b3	sra	x3,x15,x29	 x15:0x844bf000 x29:0xf800086a  x3=0xffe112fc
       46335000	      4632	80004a44	f6458393	addi	x7,x11,-156	 x11:0x00000000  x7=0xffffff64
       46345000	      4633	80004a48	faf740b7	lui	x1,0xfaf74	  x1=0xfaf74000
       46355000	      4634	80004a4c	ae224b13	xori	x22,x4,-1310	  x4:0x00000001 x22=0xfffffae3
       46365000	      4635	80004a50	011cdc63	bge	x25,x17,80004a68	 x25:0x80009fc4 x17:0x00000021
       46375000	      4636	80004a54	0891c393	xori	x7,x3,137	  x3:0xffe112fc  x7=0xffe11275
       46385000	      4637	80004a58	003da933	slt	x18,x27,x3	 x27:0x00000000  x3:0xffe112fc x18=0x00000000
       46395000	      4638	80004a5c	00764b33	xor	x22,x12,x7	 x12:0x00000000  x7:0xffe11275 x22=0xffe11275
       46405000	      4639	80004a60	02c6f663	bgeu	x13,x12,80004a8c	 x13:0x00000021 x12:0x00000000
       46415000	      4640	00000000	00000013	addi	x0,x0,0	  x0:0x00000000
       46425000	      4641	80004a88	00000013	addi	x0,x0,0	  x0:0x00000000
       46435000	      4642	80004a8c	03136463	bltu	x6,x17,80004ab4	  x6:0x00000000 x17:0x00000021
       46445000	      4643	00000000	00000013	addi	x0,x0,0	  x0:0x00000000
       46455000	      4644	80004ab0	00000013	addi	x0,x0,0	  x0:0x00000000
       46465000	      4645	80004ab4	00fdfdb3	and	x27,x27,x15	 x27:0x00000000 x15:0x844bf000 x27=0x00000000
       46475000	      4646	80004ab8	413c8d33	sub	x26,x25,x19	 x25:0x80009fc4 x19:0x00000000 x26=0x80009fc4
       46485000	      4647	80004abc	043a6863	bltu	x20,x3,80004b0c	 x20:0x00000021  x3:0xffe112fc
       46495000	      4648	00000000	00000013	addi	x0,x0,0	  x0:0x00000000
       46505000	      4649	80004b08	00000013	addi	x0,x0,0	  x0:0x00000000
       46515000	      4650	80004b0c	00657c63	bgeu	x10,x6,80004b24	 x10:0x80009ed8  x6:0x00000000
       46525000	      4651	00000000	00000013	addi	x0,x0,0	  x0:0x00000000
       46535000	      4652	80004b20	00000013	addi	x0,x0,0	  x0:0x00000000
       46545000	      4653	80004b24	00228e63	beq	x5,x2,80004b40	  x5:0x00000000  x2:0xe00021a9
       46555000	      4654	80004b28	daa70a93	addi	x21,x14,-598	 x14:0x80009ed8 x21=0x80009c82
       46565000	      4655	80004b2c	04365463	bge	x12,x3,80004b74	 x12:0x00000000  x3:0xffe112fc
       46575000	      4656	00000000	00000013	addi	x0,x0,0	  x0:0x00000000
       46585000	      4657	80004b70	00000013	addi	x0,x0,0	  x0:0x00000000
       46595000	      4658	80004b74	027c6c63	bltu	x24,x7,80004bac	 x24:0x80000000  x7:0xffe11275
       46605000	      4659	00000000	00000013	addi	x0,x0,0	  x0:0x00000000
       46615000	      4660	80004ba8	00000013	addi	x0,x0,0	  x0:0x00000000
       46625000	      4661	80004bac	00d643b3	xor	x7,x12,x13	 x12:0x00000000 x13:0x00000021  x7=0x00000021
       46635000	      4662	80004bb0	017c1533	sll	x10,x24,x23	 x24:0x80000000 x23:0x00000000 x10=0x80000000
       46645000	      4663	80004bb4	8c290a13	addi	x20,x18,-1854	 x18:0x00000000 x20=0xfffff8c2
       46655000	      4664	80004bb8	612362b7	lui	x5,0x61236	  x5=0x61236000
       46665000	      4665	80004bbc	456df117	auipc	x2,0x456df	  x2=0xc56e3bb8
       46675000	      4666	80004bc0	00eab333	sltu	x6,x21,x14	 x21:0x80009c82 x14:0x80009ed8  x6=0x00000001
       46685000	      4667	80004bc4	01729e93	slli	x29,x5,0x17	  x5:0x61236000 x29=0x00000000
       46695000	      4668	80004bc8	0048a933	slt	x18,x17,x4	 x17:0x00000021  x4:0x00000001 x18=0x00000000
       46705000	      4669	80004bcc	0124a9b3	slt	x19,x9,x18	  x9:0x07c88880 x18:0x00000000 x19=0x00000000
       46715000	      4670	80004bd0	01d18863	beq	x3,x29,80004be0	  x3:0xffe112fc x29:0x00000000
       46725000	      4671	80004bd4	056c8663	beq	x25,x22,80004c20	 x25:0x80009fc4 x22:0xffe11275
       46735000	      4672	80004bd8	029a0c63	beq	x20,x9,80004c10	 x20:0xfffff8c2  x9:0x07c88880
       46745000	      4673	80004bdc	7f82c493	xori	x9,x5,2040	  x5:0x61236000  x9=0x612367f8
       46755000	      4674	80004be0	0d4da393	slti	x7,x27,212	 x27:0x00000000  x7=0x00000001
       46765000	      4675	80004be4	0ac6a693	slti	x13,x13,172	 x13:0x00000021 x13=0x00000001
       46775000	      4676	80004be8	01ea2333	slt	x6,x20,x30	 x20:0xfffff8c2 x30:0x0000050b  x6=0x00000001
       46785000	      4677	80004bec	04c0f863	bgeu	x1,x12,80004c3c	  x1:0xfaf74000 x12:0x00000000
       46795000	      4678	00000000	00000013	addi	x0,x0,0	  x0:0x00000000
       46805000	      4679	80004c38	00000013	addi	x0,x0,0	  x0:0x00000000
       46815000	      4680	80004c3c	01cc94b3	sll	x9,x25,x28	 x25:0x80009fc4 x28:0x00000000  x9=0x80009fc4
       46825000	      4681	80004c40	0160e933	or	x18,x1,x22	  x1:0xfaf74000 x22:0xffe11275 x18=0xfff75275
       46835000	      4682	80004c44	01941033	sll	x0,x8,x25	  x8:0x00000108 x25:0x80009fc4
       46845000	      4683	80004c48	007ae1b3	or	x3,x21,x7	 x21:0x80009c82  x7:0x00000001  x3=0x80009c83
       46855000	      4684	80004c4c	0283fc63	bgeu	x7,x8,80004c84	  x7:0x00000001  x8:0x00000108
       46865000	      4685	80004c50	40678bb3	sub	x23,x15,x6	 x15:0x844bf000  x6:0x00000001 x23=0x844befff
       46875000	      4686	80004c54	04725663	bge	x4,x7,80004ca0	  x4:0x00000001  x7:0x00000001
       46885000	      4687	00000000	00000013	addi	x0,x0,0	  x0:0x00000000
       46895000	      4688	80004c9c	00000013	addi	x0,x0,0	  x0:0x00000000
       46905000	      4689	80004ca0	018e9193	slli	x3,x29,0x18	 x29:0x00000000  x3=0x00000000
       46915000	      4690	80004ca4	03239863	bne	x7,x18,80004cd4	  x7:0x00000001 x18:0xfff75275
       46925000	      4691	00000000	00000013	addi	x0,x0,0	  x0:0x00000000
       46935000	      4692	80004cd0	00000013	addi	x0,x0,0	  x0:0x00000000
       46945000	      4693	80004cd4	6a85f393	andi	x7,x11,1704	 x11:0x00000000  x7=0x00000000
       46955000	      4694	80004cd8	00000013	addi	x0,x0,0	  x0:0x00000000
       46965000	      4695	80004cdc	01973333	sltu	x6,x14,x25	 x14:0x80009ed8 x25:0x80009fc4  x6=0x00000001
       46975000	      4696	80004ce0	409fd813	srai	x16,x31,0x9	 x31:0x00000000 x16=0x00000000
       46985000	      4697	80004ce4	04661463	bne	x12,x6,80004d2c	 x12:0x00000000  x6:0x00000001
       46995000	      4698	00000000	00000013	addi	x0,x0,0	  x0:0x00000000
       47005000	      4699	80004d28	00000013	addi	x0,x0,0	  x0:0x00000000
       47015000	      4700	80004d2c	006c9863	bne	x25,x6,80004d3c	 x25:0x80009fc4  x6:0x00000001
       47025000	      4701	00000000	00000013	addi	x0,x0,0	  x0:0x00000000
       47035000	      4702	80004d38	00000013	addi	x0,x0,0	  x0:0x00000000
       47045000	      4703	80004d3c	051c9263	bne	x25,x17,80004d80	 x25:0x80009fc4 x17:0x00000021
       47055000	      4704	00000000	00000013	addi	x0,x0,0	  x0:0x00000000
       47065000	      4705	80004d7c	00000013	addi	x0,x0,0	  x0:0x00000000
       47075000	      4706	80004d80	0317e863	bltu	x15,x17,80004db0	 x15:0x844bf000 x17:0x00000021
       47085000	      4707	80004d84	000a9d33	sll	x26,x21,x0	 x21:0x80009c82  x0:0x00000000 x26=0x80009c82
       47095000	      4708	80004d88	00212d33	slt	x26,x2,x2	  x2:0xc56e3bb8  x2:0xc56e3bb8 x26=0x00000000
       47105000	      4709	80004d8c	01889d93	slli	x27,x17,0x18	 x17:0x00000021 x27=0x21000000
       47115000	      4710	80004d90	41878ab3	sub	x21,x15,x24	 x15:0x844bf000 x24:0x80000000 x21=0x044bf000
       47125000	      4711	80004d94	119c3413	sltiu	x8,x24,281	 x24:0x80000000  x8=0x00000000
       47135000	      4712	80004d98	05f21263	bne	x4,x31,80004ddc	  x4:0x00000001 x31:0x00000000
       47145000	      4713	00000000	00000013	addi	x0,x0,0	  x0:0x00000000
       47155000	      4714	80004dd8	00000013	addi	x0,x0,0	  x0:0x00000000
       47165000	      4715	80004ddc	cc4f8013	addi	x0,x31,-828	 x31:0x00000000
       47175000	      4716	80004de0	acaaaf13	slti	x30,x21,-1334	 x21:0x044bf000 x30=0x00000000
       47185000	      4717	80004de4	0220ca63	blt	x1,x2,80004e18	  x1:0xfaf74000  x2:0xc56e3bb8
       47195000	      4718	80004de8	00f9c5b3	xor	x11,x19,x15	 x19:0x00000000 x15:0x844bf000 x11=0x844bf000
       47205000	      4719	80004dec	003deab3	or	x21,x27,x3	 x27:0x21000000  x3:0x00000000 x21=0x21000000
       47215000	      4720	80004df0	00915213	srli	x4,x2,0x9	  x2:0xc56e3bb8  x4=0x0062b71d
       47225000	      4721	80004df4	00000013	addi	x0,x0,0	  x0:0x00000000
       47235000	      4722	80004df8	00b9d313	srli	x6,x19,0xb	 x19:0x00000000  x6=0x00000000
       47245000	      4723	80004dfc	01ab1a13	slli	x20,x22,0x1a	 x22:0xffe11275 x20=0xd4000000
       47255000	      4724	80004e00	04024863	blt	x4,x0,80004e50	  x4:0x0062b71d  x0:0x00000000
       47265000	      4725	80004e04	02d08263	beq	x1,x13,80004e28	  x1:0xfaf74000 x13:0x00000001
       47275000	      4726	80004e08	407e0833	sub	x16,x28,x7	 x28:0x00000000  x7:0x00000000 x16=0x00000000
       47285000	      4727	80004e0c	01d89f93	slli	x31,x17,0x1d	 x17:0x00000021 x31=0x20000000
       47295000	      4728	80004e10	00000013	addi	x0,x0,0	  x0:0x00000000
       47305000	      4729	80004e14	00f7c4b3	xor	x9,x15,x15	 x15:0x844bf000 x15:0x844bf000  x9=0x00000000
       47315000	      4730	80004e18	01e05113	srli	x2,x0,0x1e	  x0:0x00000000  x2=0x00000000
       47325000	      4731	80004e1c	036c7663	bgeu	x24,x22,80004e48	 x24:0x80000000 x22:0xffe11275
       47335000	      4732	80004e20	0165b833	sltu	x16,x11,x22	 x11:0x844bf000 x22:0xffe11275 x16=0x00000001
       47345000	      4733	80004e24	028e7063	bgeu	x28,x8,80004e44	 x28:0x00000000  x8:0x00000000
       47355000	      4734	00000000	00000013	addi	x0,x0,0	  x0:0x00000000
       47365000	      4735	80004e40	00000013	addi	x0,x0,0	  x0:0x00000000
       47375000	      4736	80004e44	00ab7333	and	x6,x22,x10	 x22:0xffe11275 x10:0x80000000  x6=0x80000000
       47385000	      4737	80004e48	05c4c463	blt	x9,x28,80004e90	  x9:0x00000000 x28:0x00000000
       47395000	      4738	80004e4c	01ea7e63	bgeu	x20,x30,80004e68	 x20:0xd4000000 x30:0x00000000
       47405000	      4739	00000000	00000013	addi	x0,x0,0	  x0:0x00000000
       47415000	      4740	80004e64	00000013	addi	x0,x0,0	  x0:0x00000000
       47425000	      4741	80004e68	01824233	xor	x4,x4,x24	  x4:0x0062b71d x24:0x80000000  x4=0x8062b71d
       47435000	      4742	80004e6c	004ce6b3	or	x13,x25,x4	 x25:0x80009fc4  x4:0x8062b71d x13=0x8062bfdd
       47445000	      4743	80004e70	012d31b3	sltu	x3,x26,x18	 x26:0x00000000 x18:0xfff75275  x3=0x00000001
       47455000	      4744	80004e74	b625a793	slti	x15,x11,-1182	 x11:0x844bf000 x15=0x00000001
       47465000	      4745	80004e78	00dba033	slt	x0,x23,x13	 x23:0x844befff x13:0x8062bfdd
       47475000	      4746	80004e7c	02874463	blt	x14,x8,80004ea4	 x14:0x80009ed8  x8:0x00000000
       47485000	      4747	00000000	00000013	addi	x0,x0,0	  x0:0x00000000
       47495000	      4748	80004ea0	00000013	addi	x0,x0,0	  x0:0x00000000
       47505000	      4749	80004ea4	001e5833	srl	x16,x28,x1	 x28:0x00000000  x1:0xfaf74000 x16=0x00000000
       47515000	      4750	80004ea8	01337663	bgeu	x6,x19,80004eb4	  x6:0x80000000 x19:0x00000000
       47525000	      4751	00000000	00000013	addi	x0,x0,0	  x0:0x00000000
       47535000	      4752	80004eb0	00000013	addi	x0,x0,0	  x0:0x00000000
       47545000	      4753	80004eb4	007182b3	add	x5,x3,x7	  x3:0x00000001  x7:0x00000000  x5=0x00000001
       47555000	      4754	80004eb8	015da4b3	slt	x9,x27,x21	 x27:0x21000000 x21:0x21000000  x9=0x00000000
       47565000	      4755	80004ebc	00a03ab3	sltu	x21,x0,x10	  x0:0x00000000 x10:0x80000000 x21=0x00000001
       47575000	      4756	80004ec0	01c85663	bge	x16,x28,80004ecc	 x16:0x00000000 x28:0x00000000
       47585000	      4757	00000000	00000013	addi	x0,x0,0	  x0:0x00000000
       47595000	      4758	80004ec8	00000013	addi	x0,x0,0	  x0:0x00000000
       47605000	      4759	80004ecc	41a95bb3	sra	x23,x18,x26	 x18:0xfff75275 x26:0x00000000 x23=0xfff75275
       47615000	      4760	80004ed0	003f9d33	sll	x26,x31,x3	 x31:0x20000000  x3:0x00000001 x26=0x40000000
       47625000	      4761	80004ed4	b292e693	ori	x13,x5,-1239	  x5:0x00000001 x13=0xfffffb29
       47635000	      4762	80004ed8	48c29297	auipc	x5,0x48c29	  x5=0xc8c2ded4
       47645000	      4763	80004edc	5ee2c493	xori	x9,x5,1518	  x5:0xc8c2ded4  x9=0xc8c2db3a
       47655000	      4764	80004ee0	b04ed097	auipc	x1,0xb04ed	  x1=0x304f1edc
       47665000	      4765	80004ee4	004050b3	srl	x1,x0,x4	  x0:0x00000000  x4:0x8062b71d  x1=0x00000000
       47675000	      4766	80004ee8	00719a93	slli	x21,x3,0x7	  x3:0x00000001 x21=0x00000080
       47685000	      4767	80004eec	4a220393	addi	x7,x4,1186	  x4:0x8062b71d  x7=0x8062bbbf
       47695000	      4768	80004ef0	018e8db3	add	x27,x29,x24	 x29:0x00000000 x24:0x80000000 x27=0x80000000
       47705000	      4769	80004ef4	01d6a033	slt	x0,x13,x29	 x13:0xfffffb29 x29:0x00000000
       47715000	      4770	80004ef8	00000013	addi	x0,x0,0	  x0:0x00000000
       47725000	      4771	80004efc	018ed933	srl	x18,x29,x24	 x29:0x00000000 x24:0x80000000 x18=0x00000000
       47735000	      4772	80004f00	008bd193	srli	x3,x23,0x8	 x23:0xfff75275  x3=0x00fff752
       47745000	      4773	80004f04	8ae4b917	auipc	x18,0x8ae4b	 x18=0x0ae4ff00
       47755000	      4774	80004f08	41ccd013	srai	x0,x25,0x1c	 x25:0x80009fc4
       47765000	      4775	80004f0c	0221dc63	bge	x3,x2,80004f44	  x3:0x00fff752  x2:0x00000000
       47775000	      4776	00000000	00000013	addi	x0,x0,0	  x0:0x00000000
       47785000	      4777	80004f40	00000013	addi	x0,x0,0	  x0:0x00000000
       47795000	      4778	80004f44	01aefe63	bgeu	x29,x26,80004f60	 x29:0x00000000 x26:0x40000000
       47805000	      4779	80004f48	01b01433	sll	x8,x0,x27	  x0:0x00000000 x27:0x80000000  x8=0x00000000
       47815000	      4780	80004f4c	8884f293	andi	x5,x9,-1912	  x9:0xc8c2db3a  x5=0xc8c2d808
       47825000	      4781	80004f50	01909093	slli	x1,x1,0x19	  x1:0x00000000  x1=0x00000000
       47835000	      4782	80004f54	012330b3	sltu	x1,x6,x18	  x6:0x80000000 x18:0x0ae4ff00  x1=0x00000000
       47845000	      4783	80004f58	57c23293	sltiu	x5,x4,1404	  x4:0x8062b71d  x5=0x00000000
       47855000	      4784	80004f5c	00fac033	xor	x0,x21,x15	 x21:0x00000080 x15:0x00000001
       47865000	      4785	80004f60	01855663	bge	x10,x24,80004f6c	 x10:0x80000000 x24:0x80000000
       47875000	      4786	00000000	00000013	addi	x0,x0,0	  x0:0x00000000
       47885000	      4787	80004f68	00000013	addi	x0,x0,0	  x0:0x00000000
       47895000	      4788	80004f6c	47de2693	slti	x13,x28,1149	 x28:0x00000000 x13=0x00000001
       47905000	      4789	80004f70	989b3e13	sltiu	x28,x22,-1655	 x22:0xffe11275 x28=0x00000001
       47915000	      4790	80004f74	e13e2297	auipc	x5,0xe13e2	  x5=0x613e6f70
       47925000	      4791	80004f78	015582b3	add	x5,x11,x21	 x11:0x844bf000 x21:0x00000080  x5=0x844bf080
       47935000	      4792	80004f7c	41aa5213	srai	x4,x20,0x1a	 x20:0xd4000000  x4=0xfffffff5
       47945000	      4793	80004f80	01885a13	srli	x20,x16,0x18	 x16:0x00000000 x20=0x00000000
       47955000	      4794	80004f84	3a442f93	slti	x31,x8,932	  x8:0x00000000 x31=0x00000001
       47965000	      4795	80004f88	01779a13	slli	x20,x15,0x17	 x15:0x00000001 x20=0x00800000
       47975000	      4796	80004f8c	01595f93	srli	x31,x18,0x15	 x18:0x0ae4ff00 x31=0x00000057
       47985000	      4797	80004f90	017d4663	blt	x26,x23,80004f9c	 x26:0x40000000 x23:0xfff75275
       47995000	      4798	80004f94	41e6d993	srai	x19,x13,0x1e	 x13:0x00000001 x19=0x00000000
       48005000	      4799	80004f98	01b99b13	slli	x22,x19,0x1b	 x19:0x00000000 x22=0x00000000
       48015000	      4800	80004f9c	00638533	add	x10,x7,x6	  x7:0x8062bbbf  x6:0x80000000 x10=0x0062bbbf
       48025000	      4801	80004fa0	8b26ea13	ori	x20,x13,-1870	 x13:0x00000001 x20=0xfffff8b3
       48035000	      4802	80004fa4	010af533	and	x10,x21,x16	 x21:0x00000080 x16:0x00000000 x10=0x00000000
       48045000	      4803	80004fa8	410805b3	sub	x11,x16,x16	 x16:0x00000000 x16:0x00000000 x11=0x00000000
       48055000	      4804	80004fac	00e10b33	add	x22,x2,x14	  x2:0x00000000 x14:0x80009ed8 x22=0x80009ed8
       48065000	      4805	80004fb0	00757f33	and	x30,x10,x7	 x10:0x00000000  x7:0x8062bbbf x30=0x00000000
       48075000	      4806	80004fb4	c67e99b7	lui	x19,0xc67e9	 x19=0xc67e9000
       48085000	      4807	80004fb8	417cd593	srai	x11,x25,0x17	 x25:0x80009fc4 x11=0xffffff00
       48095000	      4808	80004fbc	41c0d813	srai	x16,x1,0x1c	  x1:0x00000000 x16=0x00000000
       48105000	      4809	80004fc0	009252b3	srl	x5,x4,x9	  x4:0xfffffff5  x9:0xc8c2db3a  x5=0x0000003f
       48115000	      4810	80004fc4	9ab93b93	sltiu	x23,x18,-1621	 x18:0x0ae4ff00 x23=0x00000001
       48125000	      4811	80004fc8	f0230f13	addi	x30,x6,-254	  x6:0x80000000 x30=0x7fffff02
       48135000	      4812	80004fcc	643d7613	andi	x12,x26,1603	 x26:0x40000000 x12=0x00000000
       48145000	      4813	80004fd0	00d56933	or	x18,x10,x13	 x10:0x00000000 x13:0x00000001 x18=0x00000001
       48155000	      4814	80004fd4	e943c793	xori	x15,x7,-364	  x7:0x8062bbbf x15=0x7f9d452b
       48165000	      4815	80004fd8	014d15b3	sll	x11,x26,x20	 x26:0x40000000 x20:0xfffff8b3 x11=0x00000000
       48175000	      4816	80004fdc	42306913	ori	x18,x0,1059	  x0:0x00000000 x18=0x00000423
       48185000	      4817	80004fe0	011119b3	sll	x19,x2,x17	  x2:0x00000000 x17:0x00000021 x19=0x00000000
       48195000	      4818	80004fe4	01fa8e33	add	x28,x21,x31	 x21:0x00000080 x31:0x00000057 x28=0x000000d7
       48205000	      4819	80004fe8	013eeb33	or	x22,x29,x19	 x29:0x00000000 x19:0x00000000 x22=0x00000000
       48215000	      4820	80004fec	b70eb393	sltiu	x7,x29,-1168	 x29:0x00000000  x7=0x00000001
       48225000	      4821	80004ff0	009f6833	or	x16,x30,x9	 x30:0x7fffff02  x9:0xc8c2db3a x16=0xffffff3a
       48235000	      4822	80004ff4	04c44863	blt	x8,x12,80005044	  x8:0x00000000 x12:0x00000000
       48245000	      4823	80004ff8	0111b133	sltu	x2,x3,x17	  x3:0x00fff752 x17:0x00000021  x2=0x00000000
       48255000	      4824	80004ffc	0013c133	xor	x2,x7,x1	  x7:0x00000001  x1:0x00000000  x2=0x00000001
       48265000	      4825	80005000	0073c233	xor	x4,x7,x7	  x7:0x00000001  x7:0x00000001  x4=0x00000000
       48275000	      4826	80005004	7806e213	ori	x4,x13,1920	 x13:0x00000001  x4=0x00000781
       48285000	      4827	80005008	014c3433	sltu	x8,x24,x20	 x24:0x80000000 x20:0xfffff8b3  x8=0x00000001
       48295000	      4828	8000500c	01f8ea33	or	x20,x17,x31	 x17:0x00000021 x31:0x00000057 x20=0x00000077
       48305000	      4829	80005010	00321513	slli	x10,x4,0x3	  x4:0x00000781 x10=0x00003c08
       48315000	      4830	80005014	00593eb3	sltu	x29,x18,x5	 x18:0x00000423  x5:0x0000003f x29=0x00000000
       48325000	      4831	80005018	ed038193	addi	x3,x7,-304	  x7:0x00000001  x3=0xfffffed1
       48335000	      4832	8000501c	00000013	addi	x0,x0,0	  x0:0x00000000
       48345000	      4833	80005020	0496c263	blt	x13,x9,80005064	 x13:0x00000001  x9:0xc8c2db3a
       48355000	      4834	80005024	001791b3	sll	x3,x15,x1	 x15:0x7f9d452b  x1:0x00000000  x3=0x7f9d452b
       48365000	      4835	80005028	60d72693	slti	x13,x14,1549	 x14:0x80009ed8 x13=0x00000001
       48375000	      4836	8000502c	b699e513	ori	x10,x19,-1175	 x19:0x00000000 x10=0xfffffb69
       48385000	      4837	80005030	01e18233	add	x4,x3,x30	  x3:0x7f9d452b x30:0x7fffff02  x4=0xff9d442d
       48395000	      4838	80005034	4042d933	sra	x18,x5,x4	  x5:0x0000003f  x4:0xff9d442d x18=0x00000000
       48405000	      4839	80005038	014af233	and	x4,x21,x20	 x21:0x00000080 x20:0x00000077  x4=0x00000000
       48415000	      4840	8000503c	950b8193	addi	x3,x23,-1712	 x23:0x00000001  x3=0xfffff951
       48425000	      4841	80005040	41da8d33	sub	x26,x21,x29	 x21:0x00000080 x29:0x00000000 x26=0x00000080
       48435000	      4842	80005044	0309da63	bge	x19,x16,80005078	 x19:0x00000000 x16:0xffffff3a
       48445000	      4843	00000000	00000013	addi	x0,x0,0	  x0:0x00000000
       48455000	      4844	80005074	00000013	addi	x0,x0,0	  x0:0x00000000
       48465000	      4845	80005078	05f90663	beq	x18,x31,800050c4	 x18:0x00000000 x31:0x00000057
       48475000	      4846	8000507c	01859663	bne	x11,x24,80005088	 x11:0x00000000 x24:0x80000000
       48485000	      4847	00000000	00000013	addi	x0,x0,0	  x0:0x00000000
       48495000	      4848	80005084	00000013	addi	x0,x0,0	  x0:0x00000000
       48505000	      4849	80005088	03c54863	blt	x10,x28,800050b8	 x10:0xfffffb69 x28:0x000000d7
       48515000	      4850	00000000	00000013	addi	x0,x0,0	  x0:0x00000000
       48525000	      4851	800050b4	00000013	addi	x0,x0,0	  x0:0x00000000
       48535000	      4852	800050b8	017a1993	slli	x19,x20,0x17	 x20:0x00000077 x19=0x3b800000
       48545000	      4853	800050bc	9f5c2493	slti	x9,x24,-1547	 x24:0x80000000  x9=0x00000001
       48555000	      4854	800050c0	41b75e13	srai	x28,x14,0x1b	 x14:0x80009ed8 x28=0xfffffff0
       48565000	      4855	800050c4	008027b3	slt	x15,x0,x8	  x0:0x00000000  x8:0x00000001 x15=0x00000001
       48575000	      4856	800050c8	00db9533	sll	x10,x23,x13	 x23:0x00000001 x13:0x00000001 x10=0x00000002
       48585000	      4857	800050cc	02cb5863	bge	x22,x12,800050fc	 x22:0x00000000 x12:0x00000000
       48595000	      4858	00000000	00000013	addi	x0,x0,0	  x0:0x00000000
       48605000	      4859	800050f8	00000013	addi	x0,x0,0	  x0:0x00000000
       48615000	      4860	800050fc	91c3ea97	auipc	x21,0x91c3e	 x21=0x11c430f8
       48625000	      4861	80005100	efce2113	slti	x2,x28,-260	 x28:0xfffffff0  x2=0x00000000
       48635000	      4862	80005104	6ea34d17	auipc	x26,0x6ea34	 x26=0xeea39100
       48645000	      4863	80005108	01207933	and	x18,x0,x18	  x0:0x00000000 x18:0x00000000 x18=0x00000000
       48655000	      4864	8000510c	0020ca33	xor	x20,x1,x2	  x1:0x00000000  x2:0x00000000 x20=0x00000000
       48665000	      4865	80005110	0153fdb3	and	x27,x7,x21	  x7:0x00000001 x21:0x11c430f8 x27=0x00000000
       48675000	      4866	80005114	f328e1b7	lui	x3,0xf328e	  x3=0xf328e000
       48685000	      4867	80005118	0da96293	ori	x5,x18,218	 x18:0x00000000  x5=0x000000da
       48695000	      4868	8000511c	789c6913	ori	x18,x24,1929	 x24:0x80000000 x18=0x80000789
       48705000	      4869	80005120	05ff9263	bne	x31,x31,80005164	 x31:0x00000057 x31:0x00000057
       48715000	      4870	80005124	3a5f4913	xori	x18,x30,933	 x30:0x7fffff02 x18=0x7ffffca7
       48725000	      4871	80005128	3c447b17	auipc	x22,0x3c447	 x22=0xbc44c124
       48735000	      4872	8000512c	410a8db3	sub	x27,x21,x16	 x21:0x11c430f8 x16:0xffffff3a x27=0x11c431be
       48745000	      4873	80005130	01025e63	bge	x4,x16,8000514c	  x4:0x00000000 x16:0xffffff3a
       48755000	      4874	00000000	00000013	addi	x0,x0,0	  x0:0x00000000
       48765000	      4875	80005148	00000013	addi	x0,x0,0	  x0:0x00000000
       48775000	      4876	8000514c	00000013	addi	x0,x0,0	  x0:0x00000000
       48785000	      4877	80005150	c5883413	sltiu	x8,x16,-936	 x16:0xffffff3a  x8=0x00000000
       48795000	      4878	80005154	86ada093	slti	x1,x27,-1942	 x27:0x11c431be  x1=0x00000000
       48805000	      4879	80005158	014c1913	slli	x18,x24,0x14	 x24:0x80000000 x18=0x00000000
       48815000	      4880	8000515c	00000013	addi	x0,x0,0	  x0:0x00000000
       48825000	      4881	80005160	014d9a33	sll	x20,x27,x20	 x27:0x11c431be x20:0x00000000 x20=0x11c431be
       48835000	      4882	80005164	01999bb3	sll	x23,x19,x25	 x19:0x3b800000 x25:0x80009fc4 x23=0xb8000000
       48845000	      4883	80005168	7673cb93	xori	x23,x7,1895	  x7:0x00000001 x23=0x00000766
       48855000	      4884	8000516c	367a7817	auipc	x16,0x367a7	 x16=0xb67ac168
       48865000	      4885	80005170	02efc063	blt	x31,x14,80005190	 x31:0x00000057 x14:0x80009ed8
       48875000	      4886	80005174	01a8de33	srl	x28,x17,x26	 x17:0x00000021 x26:0xeea39100 x28=0x00000021
       48885000	      4887	80005178	00c97133	and	x2,x18,x12	 x18:0x00000000 x12:0x00000000  x2=0x00000000
       48895000	      4888	8000517c	82676413	ori	x8,x14,-2010	 x14:0x80009ed8  x8=0xfffffefe
       48905000	      4889	80005180	01f6d0b3	srl	x1,x13,x31	 x13:0x00000001 x31:0x00000057  x1=0x00000000
       48915000	      4890	80005184	c9edabb7	lui	x23,0xc9eda	 x23=0xc9eda000
       48925000	      4891	80005188	002e0e63	beq	x28,x2,800051a4	 x28:0x00000021  x2:0x00000000
       48935000	      4892	8000518c	c7b80a93	addi	x21,x16,-901	 x16:0xb67ac168 x21=0xb67abde3
       48945000	      4893	80005190	0107db13	srli	x22,x15,0x10	 x15:0x00000001 x22=0x00000000
       48955000	      4894	80005194	009b1133	sll	x2,x22,x9	 x22:0x00000000  x9:0x00000001  x2=0x00000000
       48965000	      4895	80005198	00315913	srli	x18,x2,0x3	  x2:0x00000000 x18=0x00000000
       48975000	      4896	8000519c	00acd213	srli	x4,x25,0xa	 x25:0x80009fc4  x4=0x00200027
       48985000	      4897	800051a0	073f7c63	bgeu	x30,x19,80005218	 x30:0x7fffff02 x19:0x3b800000
       48995000	      4898	00000000	00000013	addi	x0,x0,0	  x0:0x00000000
       49005000	      4899	80005214	00000013	addi	x0,x0,0	  x0:0x00000000
       49015000	      4900	80005218	57719617	auipc	x12,0x57719	 x12=0xd771e214
       49025000	      4901	8000521c	4792c493	xori	x9,x5,1145	  x5:0x000000da  x9=0x000004a3
       49035000	      4902	80005220	01e05eb3	srl	x29,x0,x30	  x0:0x00000000 x30:0x7fffff02 x29=0x00000000
       49045000	      4903	80005224	a7f80993	addi	x19,x16,-1409	 x16:0xb67ac168 x19=0xb67abbe7
       49055000	      4904	80005228	94488413	addi	x8,x17,-1724	 x17:0x00000021  x8=0xfffff965
       49065000	      4905	8000522c	87f9b037	lui	x0,0x87f9b	
       49075000	      4906	80005230	03d40a63	beq	x8,x29,80005264	  x8:0xfffff965 x29:0x00000000
       49085000	      4907	80005234	01ab36b3	sltu	x13,x22,x26	 x22:0x00000000 x26:0xeea39100 x13=0x00000001
       49095000	      4908	80005238	40d15eb3	sra	x29,x2,x13	  x2:0x00000000 x13:0x00000001 x29=0x00000000
       49105000	      4909	8000523c	00959513	slli	x10,x11,0x9	 x11:0x00000000 x10=0x00000000
       49115000	      4910	80005240	0042fe63	bgeu	x5,x4,8000525c	  x5:0x000000da  x4:0x00200027
       49125000	      4911	80005244	03c8e263	bltu	x17,x28,80005268	 x17:0x00000021 x28:0x00000021
       49135000	      4912	80005248	0387f463	bgeu	x15,x24,80005270	 x15:0x00000001 x24:0x80000000
       49145000	      4913	8000524c	034f7c63	bgeu	x30,x20,80005284	 x30:0x7fffff02 x20:0x11c431be
       49155000	      4914	00000000	00000013	addi	x0,x0,0	  x0:0x00000000
       49165000	      4915	80005280	00000013	addi	x0,x0,0	  x0:0x00000000
       49175000	      4916	80005284	00648663	beq	x9,x6,80005290	  x9:0x000004a3  x6:0x80000000
       49185000	      4917	80005288	02aeb413	sltiu	x8,x29,42	 x29:0x00000000  x8=0x00000001
       49195000	      4918	8000528c	00a5c0b3	xor	x1,x11,x10	 x11:0x00000000 x10:0x00000000  x1=0x00000000
       49205000	      4919	80005290	43755537	lui	x10,0x43755	 x10=0x43755000
       49215000	      4920	80005294	a5abe313	ori	x6,x23,-1446	 x23:0xc9eda000  x6=0xfffffa5a
       49225000	      4921	80005298	400fd393	srai	x7,x31,0x0	 x31:0x00000057  x7=0x00000057
       49235000	      4922	8000529c	00000013	addi	x0,x0,0	  x0:0x00000000
       49245000	      4923	800052a0	003fa3b3	slt	x7,x31,x3	 x31:0x00000057  x3:0xf328e000  x7=0x00000000
       49255000	      4924	800052a4	008cefb3	or	x31,x25,x8	 x25:0x80009fc4  x8:0x00000001 x31=0x80009fc5
       49265000	      4925	800052a8	00c9ce33	xor	x28,x19,x12	 x19:0xb67abbe7 x12:0xd771e214 x28=0x610b59f3
       49275000	      4926	800052ac	015b81b3	add	x3,x23,x21	 x23:0xc9eda000 x21:0xb67abde3  x3=0x80685de3
       49285000	      4927	800052b0	00472903	lw	x18,4(x14)	 x14:0x80009ed8 x18=0x800006bc PA:0x80009edc
       49295000	      4928	800052b4	01eb9893	slli	x17,x23,0x1e	 x23:0xc9eda000 x17=0x00000000
       49305000	      4929	800052b8	c9c0ca37	lui	x20,0xc9c0c	 x20=0xc9c0c000
       49315000	      4930	800052bc	2bdb6513	ori	x10,x22,701	 x22:0x00000000 x10=0x000002bd
       49325000	      4931	800052c0	011ad833	srl	x16,x21,x17	 x21:0xb67abde3 x17:0x00000000 x16=0xb67abde3
       49335000	      4932	800052c4	017ef3b3	and	x7,x29,x23	 x29:0x00000000 x23:0xc9eda000  x7=0x00000000
       49345000	      4933	800052c8	01fc3f33	sltu	x30,x24,x31	 x24:0x80000000 x31:0x80009fc5 x30=0x00000001
       49355000	      4934	800052cc	00c70713	addi	x14,x14,12	 x14:0x80009ed8 x14=0x80009ee4
       49365000	      4935	800052d0	000469b3	or	x19,x8,x0	  x8:0x00000001  x0:0x00000000 x19=0x00000001
       49375000	      4936	800052d4	00000013	addi	x0,x0,0	  x0:0x00000000
       49385000	      4937	800052d8	00090313	addi	x6,x18,0	 x18:0x800006bc  x6=0x800006bc
       49395000	      4938	800052dc	00030367	jalr	x6,x6,0	  x6:0x800006bc  x6=0x800052dc
       49405000	      4939	00000000	00000013	addi	x0,x0,0	  x0:0x00000000
       49415000	      4940	800006bc	00000013	addi	x0,x0,0	  x0:0x00000000
       49425000	      4941	800006c0	04d4d063	bge	x9,x13,80000700	  x9:0x000004a3 x13:0x00000001
       49435000	      4942	00000000	00000013	addi	x0,x0,0	  x0:0x00000000
       49445000	      4943	800006fc	00000013	addi	x0,x0,0	  x0:0x00000000
       49455000	      4944	80000700	40915e33	sra	x28,x2,x9	  x2:0x00000000  x9:0x000004a3 x28=0x00000000
       49465000	      4945	80000704	00472903	lw	x18,4(x14)	 x14:0x80009ee4 x18=0x800044e4 PA:0x80009ee8
       49475000	      4946	80000708	00c70713	addi	x14,x14,12	 x14:0x80009ee4 x14=0x80009ef0
       49485000	      4947	8000070c	8c123293	sltiu	x5,x4,-1855	  x4:0x00200027  x5=0x00000001
       49495000	      4948	80000710	3d250013	addi	x0,x10,978	 x10:0x000002bd
       49505000	      4949	80000714	00000013	addi	x0,x0,0	  x0:0x00000000
       49515000	      4950	80000718	00190513	addi	x10,x18,1	 x18:0x800044e4 x10=0x800044e5
       49525000	      4951	8000071c	00050567	jalr	x10,x10,0	 x10:0x800044e5 x10=0x8000071c
       49535000	      4952	00000000	00000013	addi	x0,x0,0	  x0:0x00000000
       49545000	      4953	800044e4	00000013	addi	x0,x0,0	  x0:0x00000000
       49555000	      4954	800044e8	950bed93	ori	x27,x23,-1712	 x23:0xc9eda000 x27=0xfffff950
       49565000	      4955	800044ec	41790d13	addi	x26,x18,1047	 x18:0x800044e4 x26=0x800048fb
       49575000	      4956	800044f0	001f8e63	beq	x31,x1,8000450c	 x31:0x80009fc5  x1:0x00000000
       49585000	      4957	800044f4	41145db3	sra	x27,x8,x17	  x8:0x00000001 x17:0x00000000 x27=0x00000001
       49595000	      4958	800044f8	01c39863	bne	x7,x28,80004508	  x7:0x00000000 x28:0x00000000
       49605000	      4959	800044fc	00dab4b3	sltu	x9,x21,x13	 x21:0xb67abde3 x13:0x00000001  x9=0x00000000
       49615000	      4960	80004500	017f96b3	sll	x13,x31,x23	 x31:0x80009fc5 x23:0xc9eda000 x13=0x80009fc5
       49625000	      4961	80004504	1b788913	addi	x18,x17,439	 x17:0x00000000 x18=0x000001b7
       49635000	      4962	80004508	a3ebb693	sltiu	x13,x23,-1474	 x23:0xc9eda000 x13=0x00000001
       49645000	      4963	8000450c	01334263	blt	x6,x19,80004510	  x6:0x800052dc x19:0x00000001
       49655000	      4964	00000000	00000013	addi	x0,x0,0	  x0:0x00000000
       49665000	      4965	8000450c	00000013	addi	x0,x0,0	  x0:0x00000000
       49675000	      4966	80004510	8a017d93	andi	x27,x2,-1888	  x2:0x00000000 x27=0x00000000
       49685000	      4967	80004514	9b66e293	ori	x5,x13,-1610	 x13:0x00000001  x5=0xfffff9b7
       49695000	      4968	80004518	c60ff7b7	lui	x15,0xc60ff	 x15=0xc60ff000
       49705000	      4969	8000451c	d7ad0393	addi	x7,x26,-646	 x26:0x800048fb  x7=0x80004675
       49715000	      4970	80004520	4a0a6093	ori	x1,x20,1184	 x20:0xc9c0c000  x1=0xc9c0c4a0
       49725000	      4971	80004524	00472903	lw	x18,4(x14)	 x14:0x80009ef0 x18=0x8000074c PA:0x80009ef4
       49735000	      4972	80004528	03c70713	addi	x14,x14,60	 x14:0x80009ef0 x14=0x80009f2c
       49745000	      4973	8000452c	0015a1b3	slt	x3,x11,x1	 x11:0x00000000  x1:0xc9c0c4a0  x3=0x00000000
       49755000	      4974	80004530	10634313	xori	x6,x6,262	  x6:0x800052dc  x6=0x800053da
       49765000	      4975	80004534	34254693	xori	x13,x10,834	 x10:0x8000071c x13=0x8000045e
       49775000	      4976	80004538	00190593	addi	x11,x18,1	 x18:0x8000074c x11=0x8000074d
       49785000	      4977	8000453c	000585e7	jalr	x11,x11,0	 x11:0x8000074d x11=0x8000453c
       49795000	      4978	00000000	00000013	addi	x0,x0,0	  x0:0x00000000
       49805000	      4979	8000074c	00000013	addi	x0,x0,0	  x0:0x00000000
       49815000	      4980	80000750	74923593	sltiu	x11,x4,1865	  x4:0x00200027 x11=0x00000000
       49825000	      4981	80000754	0047f533	and	x10,x15,x4	 x15:0xc60ff000  x4:0x00200027 x10=0x00000000
       49835000	      4982	80000758	0067afb3	slt	x31,x15,x6	 x15:0xc60ff000  x6:0x800053da x31=0x00000000
       49845000	      4983	8000075c	02c24e63	blt	x4,x12,80000798	  x4:0x00200027 x12:0xd771e214
       49855000	      4984	80000760	4162deb3	sra	x29,x5,x22	  x5:0xfffff9b7 x22:0x00000000 x29=0xfffff9b7
       49865000	      4985	80000764	00565f13	srli	x30,x12,0x5	 x12:0xd771e214 x30=0x06bb8f10
       49875000	      4986	80000768	00245663	bge	x8,x2,80000774	  x8:0x00000001  x2:0x00000000
       49885000	      4987	00000000	00000013	addi	x0,x0,0	  x0:0x00000000
       49895000	      4988	80000770	00000013	addi	x0,x0,0	  x0:0x00000000
       49905000	      4989	80000774	76c29d97	auipc	x27,0x76c29	 x27=0xf6c29770
       49915000	      4990	80000778	0235e463	bltu	x11,x3,800007a0	 x11:0x00000000  x3:0x00000000
       49925000	      4991	8000077c	036c0463	beq	x24,x22,800007a4	 x24:0x80000000 x22:0x00000000
       49935000	      4992	80000780	369bc393	xori	x7,x23,873	 x23:0xc9eda000  x7=0xc9eda369
       49945000	      4993	80000784	019158b3	srl	x17,x2,x25	  x2:0x00000000 x25:0x80009fc4 x17=0x00000000
       49955000	      4994	80000788	7bcb3693	sltiu	x13,x22,1980	 x22:0x00000000 x13=0x00000001
       49965000	      4995	8000078c	00000013	addi	x0,x0,0	  x0:0x00000000
       49975000	      4996	80000790	011a6bb3	or	x23,x20,x17	 x20:0xc9c0c000 x17:0x00000000 x23=0xc9c0c000
       49985000	      4997	80000794	00000013	addi	x0,x0,0	  x0:0x00000000
       49995000	      4998	80000798	02cc8463	beq	x25,x12,800007c0	 x25:0x80009fc4 x12:0xd771e214
       50005000	      4999	8000079c	02bde263	bltu	x27,x11,800007c0	 x27:0xf6c29770 x11:0x00000000
       50015000	      5000	800007a0	67187213	andi	x4,x16,1649	 x16:0xb67abde3  x4=0x00000461
       50025000	      5001	800007a4	000d4333	xor	x6,x26,x0	 x26:0x800048fb  x0:0x00000000  x6=0x800048fb
       50035000	      5002	800007a8	01211c63	bne	x2,x18,800007c0	  x2:0x00000000 x18:0x8000074c
       50045000	      5003	00000000	00000013	addi	x0,x0,0	  x0:0x00000000
       50055000	      5004	800007bc	00000013	addi	x0,x0,0	  x0:0x00000000
       50065000	      5005	800007c0	5c5eab13	slti	x22,x29,1477	 x29:0xfffff9b7 x22=0x00000001
       50075000	      5006	800007c4	b8c5c797	auipc	x15,0xb8c5c	 x15=0x38c5c7c0
       50085000	      5007	800007c8	00472903	lw	x18,4(x14)	 x14:0x80009f2c x18=0x80003b78 PA:0x80009f30
       50095000	      5008	800007cc	00b19113	slli	x2,x3,0xb	  x3:0x00000000  x2=0x00000000
       50105000	      5009	800007d0	5a2be993	ori	x19,x23,1442	 x23:0xc9c0c000 x19=0xc9c0c5a2
       50115000	      5010	800007d4	0150b5b3	sltu	x11,x1,x21	  x1:0xc9c0c4a0 x21:0xb67abde3 x11=0x00000000
       50125000	      5011	800007d8	6256ee93	ori	x29,x13,1573	 x13:0x00000001 x29=0x00000625
       50135000	      5012	800007dc	01ee37b3	sltu	x15,x28,x30	 x28:0x00000000 x30:0x06bb8f10 x15=0x00000001
       50145000	      5013	800007e0	00ed21b3	slt	x3,x26,x14	 x26:0x800048fb x14:0x80009f2c  x3=0x00000001
       50155000	      5014	800007e4	03070713	addi	x14,x14,48	 x14:0x80009f2c x14=0x80009f5c
       50165000	      5015	800007e8	009006b3	add	x13,x0,x9	  x0:0x00000000  x9:0x00000000 x13=0x00000000
       50175000	      5016	800007ec	040a10b7	lui	x1,0x40a1	  x1=0x040a1000
       50185000	      5017	800007f0	00090813	addi	x16,x18,0	 x18:0x80003b78 x16=0x80003b78
       50195000	      5018	800007f4	00080867	jalr	x16,x16,0	 x16:0x80003b78 x16=0x800007f4
       50205000	      5019	00000000	00000013	addi	x0,x0,0	  x0:0x00000000
       50215000	      5020	80003b78	00000013	addi	x0,x0,0	  x0:0x00000000
       50225000	      5021	80003b7c	00005317	auipc	x6,0x5	  x6=0x80008b78
       50235000	      5022	80003b80	bd230313	addi	x6,x6,-1070	  x6:0x80008b78  x6=0x8000874a
       50245000	      5023	80003b84	0b839ab7	lui	x21,0xb839	 x21=0x0b839000
       50255000	      5024	80003b88	41310033	sub	x0,x2,x19	  x2:0x00000000 x19:0xc9c0c5a2
       50265000	      5025	80003b8c	0191edb3	or	x27,x3,x25	  x3:0x00000001 x25:0x80009fc4 x27=0x80009fc5
       50275000	      5026	80003b90	00030a03	lb	x20,0(x6)	  x6:0x8000874a x20=0x00000000 PA:0x8000874a
       50285000	      5027	80003b94	00dbd633	srl	x12,x23,x13	 x23:0xc9c0c000 x13:0x00000000 x12=0xc9c0c000
       50295000	      5028	80003b98	ff635b83	lhu	x23,-10(x6)	  x6:0x8000874a x23=0x00000000 PA:0x80008740
       50305000	      5029	80003b9c	00330083	lb	x1,3(x6)	  x6:0x8000874a  x1=0x00000000 PA:0x8000874d
       50315000	      5030	80003ba0	0464cd13	xori	x26,x9,70	  x9:0x00000000 x26=0x00000046
       50325000	      5031	80003ba4	5afe99b7	lui	x19,0x5afe9	 x19=0x5afe9000
       50335000	      5032	80003ba8	40915db3	sra	x27,x2,x9	  x2:0x00000000  x9:0x00000000 x27=0x00000000
       50345000	      5033	80003bac	01048bb3	add	x23,x9,x16	  x9:0x00000000 x16:0x800007f4 x23=0x800007f4
       50355000	      5034	80003bb0	00f30503	lb	x10,15(x6)	  x6:0x8000874a x10=0x00000000 PA:0x80008759
       50365000	      5035	80003bb4	96784813	xori	x16,x16,-1689	 x16:0x800007f4 x16=0x7ffffe93
       50375000	      5036	80003bb8	ff035a03	lhu	x20,-16(x6)	  x6:0x8000874a x20=0x00000000 PA:0x8000873a
       50385000	      5037	80003bbc	00e4fe33	and	x28,x9,x14	  x9:0x00000000 x14:0x80009f5c x28=0x00000000
       50395000	      5038	80003bc0	00b8dd93	srli	x27,x17,0xb	 x17:0x00000000 x27=0x00000000
       50405000	      5039	80003bc4	41e309b3	sub	x19,x6,x30	  x6:0x8000874a x30:0x06bb8f10 x19=0x7944f83a
       50415000	      5040	80003bc8	01527533	and	x10,x4,x21	  x4:0x00000461 x21:0x0b839000 x10=0x00000000
       50425000	      5041	80003bcc	00e30d83	lb	x27,14(x6)	  x6:0x8000874a x27=0x00000000 PA:0x80008758
       50435000	      5042	80003bd0	00d34983	lbu	x19,13(x6)	  x6:0x8000874a x19=0x00000000 PA:0x80008757
       50445000	      5043	00000000	00000013	addi	x0,x0,0	  x0:0x00000000
       50455000	      5044	80003bd4	01330023	sb	x19,0(x6)	  x6:0x8000874a x19:0x00000000 PA:0x8000874a
       50465000	      5045	80003bd8	40785633	sra	x12,x16,x7	 x16:0x7ffffe93  x7:0xc9eda369 x12=0x003fffff
       50475000	      5046	80003bdc	fe632b23	sw	x6,-10(x6)	  x6:0x8000874a  x6:0x8000874a PA:0x80008740
       50485000	      5047	80003be0	ff830923	sb	x24,-14(x6)	  x6:0x8000874a x24:0x80000000 PA:0x8000873c
       50495000	      5048	80003be4	007910b3	sll	x1,x18,x7	 x18:0x80003b78  x7:0xc9eda369  x1=0x0076f000
       50505000	      5049	80003be8	00f1e7b3	or	x15,x3,x15	  x3:0x00000001 x15:0x00000001 x15=0x00000001
       50515000	      5050	80003bec	01c307a3	sb	x28,15(x6)	  x6:0x8000874a x28:0x00000000 PA:0x80008759
       50525000	      5051	80003bf0	0065af33	slt	x30,x11,x6	 x11:0x00000000  x6:0x8000874a x30=0x00000000
       50535000	      5052	80003bf4	fe330da3	sb	x3,-5(x6)	  x6:0x8000874a  x3:0x00000001 PA:0x80008745
       50545000	      5053	80003bf8	ffc30d23	sb	x28,-6(x6)	  x6:0x8000874a x28:0x00000000 PA:0x80008744
       50555000	      5054	80003bfc	ffc35983	lhu	x19,-4(x6)	  x6:0x8000874a x19=0x00000000 PA:0x80008746
       50565000	      5055	00000000	00000013	addi	x0,x0,0	  x0:0x00000000
       50575000	      5056	80003c00	f8c9f913	andi	x18,x19,-116	 x19:0x00000000 x18=0x00000000
       50585000	      5057	80003c04	00c35183	lhu	x3,12(x6)	  x6:0x8000874a  x3=0x00000000 PA:0x80008756
       50595000	      5058	80003c08	fff30ba3	sb	x31,-9(x6)	  x6:0x8000874a x31:0x00000000 PA:0x80008741
       50605000	      5059	80003c0c	ff134903	lbu	x18,-15(x6)	  x6:0x8000874a x18=0x00000000 PA:0x8000873b
       50615000	      5060	80003c10	400280b3	sub	x1,x5,x0	  x5:0xfffff9b7  x0:0x00000000  x1=0xfffff9b7
       50625000	      5061	80003c14	2d856a13	ori	x20,x10,728	 x10:0x00000000 x20=0x000002d8
       50635000	      5062	80003c18	002302a3	sb	x2,5(x6)	  x6:0x8000874a  x2:0x00000000 PA:0x8000874f
       50645000	      5063	80003c1c	00dc6bb3	or	x23,x24,x13	 x24:0x80000000 x13:0x00000000 x23=0x80000000
       50655000	      5064	80003c20	00730003	lb	x0,7(x6)	  x6:0x8000874a PA:0x80008751
       50665000	      5065	80003c24	40975193	srai	x3,x14,0x9	 x14:0x80009f5c  x3=0xffc0004f
       50675000	      5066	80003c28	ff530803	lb	x16,-11(x6)	  x6:0x8000874a x16=0x00000000 PA:0x8000873f
       50685000	      5067	80003c2c	271ad197	auipc	x3,0x271ad	  x3=0xa71b0c28
       50695000	      5068	80003c30	0fd03a93	sltiu	x21,x0,253	  x0:0x00000000 x21=0x00000001
       50705000	      5069	80003c34	00f34183	lbu	x3,15(x6)	  x6:0x8000874a  x3=0x00000000 PA:0x80008759
       50715000	      5070	80003c38	01bfcfb3	xor	x31,x31,x27	 x31:0x00000000 x27:0x00000000 x31=0x00000000
       50725000	      5071	80003c3c	00d30583	lb	x11,13(x6)	  x6:0x8000874a x11=0x00000000 PA:0x80008757
       50735000	      5072	80003c40	00035983	lhu	x19,0(x6)	  x6:0x8000874a x19=0x00000000 PA:0x8000874a
       50745000	      5073	80003c44	009304a3	sb	x9,9(x6)	  x6:0x8000874a  x9:0x00000000 PA:0x80008753
       50755000	      5074	80003c48	ff530d83	lb	x27,-11(x6)	  x6:0x8000874a x27=0x00000000 PA:0x8000873f
       50765000	      5075	80003c4c	008802b3	add	x5,x16,x8	 x16:0x00000000  x8:0x00000001  x5=0x00000001
       50775000	      5076	80003c50	00035983	lhu	x19,0(x6)	  x6:0x8000874a x19=0x00000000 PA:0x8000874a
       50785000	      5077	80003c54	00004117	auipc	x2,0x4	  x2=0x80007c50
       50795000	      5078	80003c58	5b210113	addi	x2,x2,1458	  x2:0x80007c50  x2=0x80008202
       50805000	      5079	80003c5c	00c443b3	xor	x7,x8,x12	  x8:0x00000001 x12:0x003fffff  x7=0x003ffffe
       50815000	      5080	80003c60	f5711d23	sh	x23,-166(x2)	  x2:0x80008202 x23:0x80000000 PA:0x8000815c
       50825000	      5081	80003c64	007085b3	add	x11,x1,x7	  x1:0xfffff9b7  x7:0x003ffffe x11=0x003ff9b5
       50835000	      5082	80003c68	00aad513	srli	x10,x21,0xa	 x21:0x00000001 x10=0x00000000
       50845000	      5083	80003c6c	00000013	addi	x0,x0,0	  x0:0x00000000
       50855000	      5084	80003c70	00000013	addi	x0,x0,0	  x0:0x00000000
       50865000	      5085	80003c74	08e12f83	lw	x31,142(x2)	  x2:0x80008202 x31=0x00000000 PA:0x80008290
       50875000	      5086	80003c78	01a34233	xor	x4,x6,x26	  x6:0x8000874a x26:0x00000046  x4=0x8000870c
       50885000	      5087	80003c7c	09d11923	sh	x29,146(x2)	  x2:0x80008202 x29:0x00000625 PA:0x80008294
       50895000	      5088	80003c80	011465b3	or	x11,x8,x17	  x8:0x00000001 x17:0x00000000 x11=0x00000001
       50905000	      5089	80003c84	a56f2e17	auipc	x28,0xa56f2	 x28=0x256f5c80
       50915000	      5090	80003c88	f0c11023	sh	x12,-256(x2)	  x2:0x80008202 x12:0x003fffff PA:0x80008102
       50925000	      5091	80003c8c	f2a15883	lhu	x17,-214(x2)	  x2:0x80008202 x17=0x00000000 PA:0x8000812c
       50935000	      5092	80003c90	450f0213	addi	x4,x30,1104	 x30:0x00000000  x4=0x00000450
       50945000	      5093	80003c94	fc710083	lb	x1,-57(x2)	  x2:0x80008202  x1=0x00000000 PA:0x800081c9
       50955000	      5094	80003c98	02214d03	lbu	x26,34(x2)	  x2:0x80008202 x26=0x00000000 PA:0x80008224
       50965000	      5095	80003c9c	e87e3293	sltiu	x5,x28,-377	 x28:0x256f5c80  x5=0x00000001
       50975000	      5096	80003ca0	009220b3	slt	x1,x4,x9	  x4:0x00000450  x9:0x00000000  x1=0x00000000
       50985000	      5097	80003ca4	01486b33	or	x22,x16,x20	 x16:0x00000000 x20:0x000002d8 x22=0x000002d8
       50995000	      5098	80003ca8	00deed33	or	x26,x29,x13	 x29:0x00000625 x13:0x00000000 x26=0x00000625
       51005000	      5099	80003cac	a7e14e93	xori	x29,x2,-1410	  x2:0x80008202 x29=0x7fff787c
       51015000	      5100	80003cb0	011679b3	and	x19,x12,x17	 x12:0x003fffff x17:0x00000000 x19=0x00000000
       51025000	      5101	80003cb4	f5d14e83	lbu	x29,-163(x2)	  x2:0x80008202 x29=0x00000000 PA:0x8000815f
       51035000	      5102	80003cb8	f4c10b23	sb	x12,-170(x2)	  x2:0x80008202 x12:0x003fffff PA:0x80008158
       51045000	      5103	80003cbc	00fa4db3	xor	x27,x20,x15	 x20:0x000002d8 x15:0x00000001 x27=0x000002d9
       51055000	      5104	80003cc0	40d20833	sub	x16,x4,x13	  x4:0x00000450 x13:0x00000000 x16=0x00000450
       51065000	      5105	80003cc4	016b0433	add	x8,x22,x22	 x22:0x000002d8 x22:0x000002d8  x8=0x000005b0
       51075000	      5106	80003cc8	3827ce13	xori	x28,x15,898	 x15:0x00000001 x28=0x00000383
       51085000	      5107	80003ccc	405a8b33	sub	x22,x21,x5	 x21:0x00000001  x5:0x00000001 x22=0x00000000
       51095000	      5108	80003cd0	001d5693	srli	x13,x26,0x1	 x26:0x00000625 x13=0x00000312
       51105000	      5109	80003cd4	0057be33	sltu	x28,x15,x5	 x15:0x00000001  x5:0x00000001 x28=0x00000000
       51115000	      5110	80003cd8	fb110603	lb	x12,-79(x2)	  x2:0x80008202 x12=0x00000000 PA:0x800081b3
       51125000	      5111	80003cdc	00d11523	sh	x13,10(x2)	  x2:0x80008202 x13:0x00000312 PA:0x8000820c
       51135000	      5112	80003ce0	005fa033	slt	x0,x31,x5	 x31:0x00000000  x5:0x00000001
       51145000	      5113	80003ce4	006cd633	srl	x12,x25,x6	 x25:0x80009fc4  x6:0x8000874a x12=0x00200027
       51155000	      5114	80003ce8	00389213	slli	x4,x17,0x3	 x17:0x00000000  x4=0x00000000
       51165000	      5115	80003cec	f6c14f03	lbu	x30,-148(x2)	  x2:0x80008202 x30=0x00000000 PA:0x8000816e
       51175000	      5116	80003cf0	00000013	addi	x0,x0,0	  x0:0x00000000
       51185000	      5117	80003cf4	00710483	lb	x9,7(x2)	  x2:0x80008202  x9=0x00000000 PA:0x80008209
       51195000	      5118	80003cf8	0c210903	lb	x18,194(x2)	  x2:0x80008202 x18=0x00000000 PA:0x800082c4
       51205000	      5119	80003cfc	0bf109a3	sb	x31,179(x2)	  x2:0x80008202 x31:0x00000000 PA:0x800082b5
       51215000	      5120	80003d00	01c15f03	lhu	x30,28(x2)	  x2:0x80008202 x30=0x00000000 PA:0x8000821e
       51225000	      5121	80003d04	3fd9a493	slti	x9,x19,1021	 x19:0x00000000  x9=0x00000001
       51235000	      5122	80003d08	02914783	lbu	x15,41(x2)	  x2:0x80008202 x15=0x00000000 PA:0x8000822b
       51245000	      5123	80003d0c	f1e104a3	sb	x30,-247(x2)	  x2:0x80008202 x30:0x00000000 PA:0x8000810b
       51255000	      5124	80003d10	fa815683	lhu	x13,-88(x2)	  x2:0x80008202 x13=0x00000000 PA:0x800081aa
       51265000	      5125	80003d14	64b0c213	xori	x4,x1,1611	  x1:0x00000000  x4=0x0000064b
       51275000	      5126	80003d18	0420d663	bge	x1,x2,80003d64	  x1:0x00000000  x2:0x80008202
       51285000	      5127	00000000	00000013	addi	x0,x0,0	  x0:0x00000000
       51295000	      5128	80003d60	00000013	addi	x0,x0,0	  x0:0x00000000
       51305000	      5129	80003d64	01ae3fb3	sltu	x31,x28,x26	 x28:0x00000000 x26:0x00000625 x31=0x00000001
       51315000	      5130	80003d68	007313b3	sll	x7,x6,x7	  x6:0x8000874a  x7:0x003ffffe  x7=0x80000000
       51325000	      5131	80003d6c	42ad4813	xori	x16,x26,1066	 x26:0x00000625 x16=0x0000020f
       51335000	      5132	80003d70	d4427513	andi	x10,x4,-700	  x4:0x0000064b x10=0x00000440
       51345000	      5133	80003d74	00d75593	srli	x11,x14,0xd	 x14:0x80009f5c x11=0x00040004
       51355000	      5134	80003d78	00be9633	sll	x12,x29,x11	 x29:0x00000000 x11:0x00040004 x12=0x00000000
       51365000	      5135	80003d7c	01d175b3	and	x11,x2,x29	  x2:0x80008202 x29:0x00000000 x11=0x00000000
       51375000	      5136	80003d80	1658ef13	ori	x30,x17,357	 x17:0x00000000 x30=0x00000165
       51385000	      5137	80003d84	01851a63	bne	x10,x24,80003d98	 x10:0x00000440 x24:0x80000000
       51395000	      5138	00000000	00000013	addi	x0,x0,0	  x0:0x00000000
       51405000	      5139	80003d94	00000013	addi	x0,x0,0	  x0:0x00000000
       51415000	      5140	80003d98	014c1033	sll	x0,x24,x20	 x24:0x80000000 x20:0x000002d8
       51425000	      5141	80003d9c	015e1f33	sll	x30,x28,x21	 x28:0x00000000 x21:0x00000001 x30=0x00000000
       51435000	      5142	80003da0	9ef54913	xori	x18,x10,-1553	 x10:0x00000440 x18=0xfffffdaf
       51445000	      5143	80003da4	01179ab3	sll	x21,x15,x17	 x15:0x00000000 x17:0x00000000 x21=0x00000000
       51455000	      5144	80003da8	00a91b13	slli	x22,x18,0xa	 x18:0xfffffdaf x22=0xfff6bc00
       51465000	      5145	80003dac	01ea2f33	slt	x30,x20,x30	 x20:0x000002d8 x30:0x00000000 x30=0x00000000
       51475000	      5146	80003db0	ca8db617	auipc	x12,0xca8db	 x12=0x4a8dedac
       51485000	      5147	80003db4	01134433	xor	x8,x6,x17	  x6:0x8000874a x17:0x00000000  x8=0x8000874a
       51495000	      5148	80003db8	417954b3	sra	x9,x18,x23	 x18:0xfffffdaf x23:0x80000000  x9=0xfffffdaf
       51505000	      5149	80003dbc	406b0433	sub	x8,x22,x6	 x22:0xfff6bc00  x6:0x8000874a  x8=0x7ff634b6
       51515000	      5150	80003dc0	00000013	addi	x0,x0,0	  x0:0x00000000
       51525000	      5151	80003dc4	0337d263	bge	x15,x19,80003de8	 x15:0x00000000 x19:0x00000000
       51535000	      5152	00000000	00000013	addi	x0,x0,0	  x0:0x00000000
       51545000	      5153	80003de4	00000013	addi	x0,x0,0	  x0:0x00000000
       51555000	      5154	80003de8	70e792b7	lui	x5,0x70e79	  x5=0x70e79000
       51565000	      5155	80003dec	00d488b3	add	x17,x9,x13	  x9:0xfffffdaf x13:0x00000000 x17=0xfffffdaf
       51575000	      5156	80003df0	41c25893	srai	x17,x4,0x1c	  x4:0x0000064b x17=0x00000000
       51585000	      5157	80003df4	019a7c63	bgeu	x20,x25,80003e0c	 x20:0x000002d8 x25:0x80009fc4
       51595000	      5158	80003df8	00cd9333	sll	x6,x27,x12	 x27:0x000002d9 x12:0x4a8dedac  x6=0x002d9000
       51605000	      5159	80003dfc	00aeea33	or	x20,x29,x10	 x29:0x00000000 x10:0x00000440 x20=0x00000440
       51615000	      5160	80003e00	9185f593	andi	x11,x11,-1768	 x11:0x00000000 x11=0x00000000
       51625000	      5161	80003e04	01279393	slli	x7,x15,0x12	 x15:0x00000000  x7=0x00000000
       51635000	      5162	80003e08	8276e6b7	lui	x13,0x8276e	 x13=0x8276e000
       51645000	      5163	80003e0c	04f29263	bne	x5,x15,80003e50	  x5:0x70e79000 x15:0x00000000
       51655000	      5164	00000000	00000013	addi	x0,x0,0	  x0:0x00000000
       51665000	      5165	80003e4c	00000013	addi	x0,x0,0	  x0:0x00000000
       51675000	      5166	80003e50	00c29213	slli	x4,x5,0xc	  x5:0x70e79000  x4=0x79000000
       51685000	      5167	80003e54	01903533	sltu	x10,x0,x25	  x0:0x00000000 x25:0x80009fc4 x10=0x00000001
       51695000	      5168	80003e58	03781863	bne	x16,x23,80003e88	 x16:0x0000020f x23:0x80000000
       51705000	      5169	00000000	00000013	addi	x0,x0,0	  x0:0x00000000
       51715000	      5170	80003e84	00000013	addi	x0,x0,0	  x0:0x00000000
       51725000	      5171	80003e88	003b6fb3	or	x31,x22,x3	 x22:0xfff6bc00  x3:0x00000000 x31=0xfff6bc00
       51735000	      5172	80003e8c	41c152b3	sra	x5,x2,x28	  x2:0x80008202 x28:0x00000000  x5=0x80008202
       51745000	      5173	80003e90	5e90c493	xori	x9,x1,1513	  x1:0x00000000  x9=0x000005e9
       51755000	      5174	80003e94	ccc68313	addi	x6,x13,-820	 x13:0x8276e000  x6=0x8276dccc
       51765000	      5175	80003e98	7d51ef93	ori	x31,x3,2005	  x3:0x00000000 x31=0x000007d5
       51775000	      5176	80003e9c	0a80e313	ori	x6,x1,168	  x1:0x00000000  x6=0x000000a8
       51785000	      5177	80003ea0	00b06463	bltu	x0,x11,80003ea8	  x0:0x00000000 x11:0x00000000
       51795000	      5178	80003ea4	40195f33	sra	x30,x18,x1	 x18:0xfffffdaf  x1:0x00000000 x30=0xfffffdaf
       51805000	      5179	80003ea8	86718493	addi	x9,x3,-1945	  x3:0x00000000  x9=0xfffff867
       51815000	      5180	80003eac	40fb5a93	srai	x21,x22,0xf	 x22:0xfff6bc00 x21=0xffffffed
       51825000	      5181	80003eb0	5040c7b7	lui	x15,0x5040c	 x15=0x5040c000
       51835000	      5182	80003eb4	04cc0663	beq	x24,x12,80003f00	 x24:0x80000000 x12:0x4a8dedac
       51845000	      5183	80003eb8	00f40633	add	x12,x8,x15	  x8:0x7ff634b6 x15:0x5040c000 x12=0xd036f4b6
       51855000	      5184	80003ebc	03e20c63	beq	x4,x30,80003ef4	  x4:0x79000000 x30:0xfffffdaf
       51865000	      5185	80003ec0	01686ab3	or	x21,x16,x22	 x16:0x0000020f x22:0xfff6bc00 x21=0xfff6be0f
       51875000	      5186	80003ec4	04fde663	bltu	x27,x15,80003f10	 x27:0x000002d9 x15:0x5040c000
       51885000	      5187	00000000	00000013	addi	x0,x0,0	  x0:0x00000000
       51895000	      5188	80003f0c	00000013	addi	x0,x0,0	  x0:0x00000000
       51905000	      5189	80003f10	091f8463	beq	x31,x17,80003f98	 x31:0x000007d5 x17:0x00000000
       51915000	      5190	80003f14	40d282b3	sub	x5,x5,x13	  x5:0x80008202 x13:0x8276e000  x5=0xfd89a202
       51925000	      5191	80003f18	5603b113	sltiu	x2,x7,1376	  x7:0x00000000  x2=0x00000001
       51935000	      5192	80003f1c	00004817	auipc	x16,0x4	 x16=0x80007f18
       51945000	      5193	80003f20	29f80813	addi	x16,x16,671	 x16:0x80007f18 x16=0x800081b7
       51955000	      5194	80003f24	00c94633	xor	x12,x18,x12	 x18:0xfffffdaf x12:0xd036f4b6 x12=0x2fc90919
       51965000	      5195	80003f28	00180323	sb	x1,6(x16)	 x16:0x800081b7  x1:0x00000000 PA:0x800081bd
       51975000	      5196	80003f2c	002ff2b3	and	x5,x31,x2	 x31:0x000007d5  x2:0x00000001  x5=0x00000001
       51985000	      5197	80003f30	9d6e8413	addi	x8,x29,-1578	 x29:0x00000000  x8=0xfffff9d6
       51995000	      5198	80003f34	00d85483	lhu	x9,13(x16)	 x16:0x800081b7  x9=0x00000000 PA:0x800081c4
       52005000	      5199	80003f38	00000013	addi	x0,x0,0	  x0:0x00000000
       52015000	      5200	80003f3c	01084603	lbu	x12,16(x16)	 x16:0x800081b7 x12=0x0000008c PA:0x800081c7
       52025000	      5201	80003f40	fdf81b03	lh	x22,-33(x16)	 x16:0x800081b7 x22=0x00000000 PA:0x80008196
       52035000	      5202	80003f44	00180ca3	sb	x1,25(x16)	 x16:0x800081b7  x1:0x00000000 PA:0x800081d0
       52045000	      5203	80003f48	00c940b3	xor	x1,x18,x12	 x18:0xfffffdaf x12:0x0000008c  x1=0xfffffd23
       52055000	      5204	80003f4c	fc585e83	lhu	x29,-59(x16)	 x16:0x800081b7 x29=0x00000000 PA:0x8000817c
       52065000	      5205	80003f50	01e84003	lbu	x0,30(x16)	 x16:0x800081b7 PA:0x800081d5
       52075000	      5206	80003f54	fc184103	lbu	x2,-63(x16)	 x16:0x800081b7  x2=0x00000000 PA:0x80008178
       52085000	      5207	80003f58	006fa2b3	slt	x5,x31,x6	 x31:0x000007d5  x6:0x000000a8  x5=0x00000000
       52095000	      5208	80003f5c	26211fb7	lui	x31,0x26211	 x31=0x26211000
       52105000	      5209	80003f60	fc680203	lb	x4,-58(x16)	 x16:0x800081b7  x4=0x00000000 PA:0x8000817d
       52115000	      5210	80003f64	02580b83	lb	x23,37(x16)	 x16:0x800081b7 x23=0x00000000 PA:0x800081dc
       52125000	      5211	00000000	00000013	addi	x0,x0,0	  x0:0x00000000
       52135000	      5212	80003f68	01781083	lh	x1,23(x16)	 x16:0x800081b7  x1=0x00000000 PA:0x800081ce
       52145000	      5213	80003f6c	00680483	lb	x9,6(x16)	 x16:0x800081b7  x9=0x00000000 PA:0x800081bd
       52155000	      5214	80003f70	414a51b3	sra	x3,x20,x20	 x20:0x00000440 x20:0x00000440  x3=0x00000440
       52165000	      5215	80003f74	fe780123	sb	x7,-30(x16)	 x16:0x800081b7  x7:0x00000000 PA:0x80008199
       52175000	      5216	80003f78	fcb80b23	sb	x11,-42(x16)	 x16:0x800081b7 x11:0x00000000 PA:0x8000818d
       52185000	      5217	80003f7c	00f09413	slli	x8,x1,0xf	  x1:0x00000000  x8=0x00000000
       52195000	      5218	80003f80	33863893	sltiu	x17,x12,824	 x12:0x0000008c x17=0x00000001
       52205000	      5219	80003f84	02b80283	lb	x5,43(x16)	 x16:0x800081b7  x5=0xffffffff PA:0x800081e2
       52215000	      5220	80003f88	546f7893	andi	x17,x30,1350	 x30:0xfffffdaf x17=0x00000506
       52225000	      5221	80003f8c	ff0811a3	sh	x16,-29(x16)	 x16:0x800081b7 x16:0x800081b7 PA:0x8000819a
       52235000	      5222	80003f90	502577b7	lui	x15,0x50257	 x15=0x50257000
       52245000	      5223	80003f94	5e20ca93	xori	x21,x1,1506	  x1:0x00000000 x21=0x000005e2
       52255000	      5224	80003f98	5b317993	andi	x19,x2,1459	  x2:0x00000000 x19=0x00000000
       52265000	      5225	80003f9c	41bfd9b3	sra	x19,x31,x27	 x31:0x26211000 x27:0x000002d9 x19=0x00000013
       52275000	      5226	80003fa0	00955463	bge	x10,x9,80003fa8	 x10:0x00000001  x9:0x00000000
       52285000	      5227	00000000	00000013	addi	x0,x0,0	  x0:0x00000000
       52295000	      5228	80003fa4	00000013	addi	x0,x0,0	  x0:0x00000000
       52305000	      5229	80003fa8	01a41263	bne	x8,x26,80003fac	  x8:0x00000000 x26:0x00000625
       52315000	      5230	00000000	00000013	addi	x0,x0,0	  x0:0x00000000
       52325000	      5231	80003fa8	00000013	addi	x0,x0,0	  x0:0x00000000
       52335000	      5232	80003fac	00309b93	slli	x23,x1,0x3	  x1:0x00000000 x23=0x00000000
       52345000	      5233	80003fb0	4975ba13	sltiu	x20,x11,1175	 x11:0x00000000 x20=0x00000001
       52355000	      5234	80003fb4	7ce48e13	addi	x28,x9,1998	  x9:0x00000000 x28=0x000007ce
       52365000	      5235	80003fb8	00365233	srl	x4,x12,x3	 x12:0x0000008c  x3:0x00000440  x4=0x0000008c
       52375000	      5236	80003fbc	041f8263	beq	x31,x1,80004000	 x31:0x26211000  x1:0x00000000
       52385000	      5237	80003fc0	41c001b3	sub	x3,x0,x28	  x0:0x00000000 x28:0x000007ce  x3=0xfffff832
       52395000	      5238	80003fc4	0061ca33	xor	x20,x3,x6	  x3:0xfffff832  x6:0x000000a8 x20=0xfffff89a
       52405000	      5239	80003fc8	13416313	ori	x6,x2,308	  x2:0x00000000  x6=0x00000134
       52415000	      5240	80003fcc	019938b3	sltu	x17,x18,x25	 x18:0xfffffdaf x25:0x80009fc4 x17=0x00000000
       52425000	      5241	80003fd0	01fd2433	slt	x8,x26,x31	 x26:0x00000625 x31:0x26211000  x8=0x00000001
       52435000	      5242	80003fd4	40fbd913	srai	x18,x23,0xf	 x23:0x00000000 x18=0x00000000
       52445000	      5243	80003fd8	0049da33	srl	x20,x19,x4	 x19:0x00000013  x4:0x0000008c x20=0x00000000
       52455000	      5244	80003fdc	63504a93	xori	x21,x0,1589	  x0:0x00000000 x21=0x00000635
       52465000	      5245	80003fe0	0576a093	slti	x1,x13,87	 x13:0x8276e000  x1=0x00000001
       52475000	      5246	80003fe4	41b65313	srai	x6,x12,0x1b	 x12:0x0000008c  x6=0x00000000
       52485000	      5247	80003fe8	bfbb2a13	slti	x20,x22,-1029	 x22:0x00000000 x20=0x00000000
       52495000	      5248	80003fec	016f7a33	and	x20,x30,x22	 x30:0xfffffdaf x22:0x00000000 x20=0x00000000
       52505000	      5249	80003ff0	04094263	blt	x18,x0,80004034	 x18:0x00000000  x0:0x00000000
       52515000	      5250	80003ff4	1d9f6313	ori	x6,x30,473	 x30:0xfffffdaf  x6=0xfffffdff
       52525000	      5251	80003ff8	aae26897	auipc	x17,0xaae26	 x17=0x2ae29ff4
       52535000	      5252	80003ffc	012de333	or	x6,x27,x18	 x27:0x000002d9 x18:0x00000000  x6=0x000002d9
       52545000	      5253	80004000	d2d62093	slti	x1,x12,-723	 x12:0x0000008c  x1=0x00000000
       52555000	      5254	80004004	40675093	srai	x1,x14,0x6	 x14:0x80009f5c  x1=0xfe00027d
       52565000	      5255	80004008	00000013	addi	x0,x0,0	  x0:0x00000000
       52575000	      5256	8000400c	4038d3b3	sra	x7,x17,x3	 x17:0x2ae29ff4  x3:0xfffff832  x7=0x00000ab8
       52585000	      5257	80004010	00d7b6b3	sltu	x13,x15,x13	 x15:0x50257000 x13:0x8276e000 x13=0x00000001
       52595000	      5258	80004014	00c96bb3	or	x23,x18,x12	 x18:0x00000000 x12:0x0000008c x23=0x0000008c
       52605000	      5259	80004018	414c5a13	srai	x20,x24,0x14	 x24:0x80000000 x20=0xfffff800
       52615000	      5260	8000401c	01fab633	sltu	x12,x21,x31	 x21:0x00000635 x31:0x26211000 x12=0x00000001
       52625000	      5261	80004020	ece7c613	xori	x12,x15,-306	 x15:0x50257000 x12=0xafda8ece
       52635000	      5262	80004024	a202a113	slti	x2,x5,-1504	  x5:0xffffffff  x2=0x00000000
       52645000	      5263	80004028	01022b33	slt	x22,x4,x16	  x4:0x0000008c x16:0x800081b7 x22=0x00000000
       52655000	      5264	8000402c	62648413	addi	x8,x9,1574	  x9:0x00000000  x8=0x00000626
       52665000	      5265	80004030	1e1b6f93	ori	x31,x22,481	 x22:0x00000000 x31=0x000001e1
       52675000	      5266	80004034	dca24e13	xori	x28,x4,-566	  x4:0x0000008c x28=0xfffffd46
       52685000	      5267	80004038	00fb1313	slli	x6,x22,0xf	 x22:0x00000000  x6=0x00000000
       52695000	      5268	8000403c	002253b3	srl	x7,x4,x2	  x4:0x0000008c  x2:0x00000000  x7=0x0000008c
       52705000	      5269	80004040	00ba1e63	bne	x20,x11,8000405c	 x20:0xfffff800 x11:0x00000000
       52715000	      5270	00000000	00000013	addi	x0,x0,0	  x0:0x00000000
       52725000	      5271	80004058	00000013	addi	x0,x0,0	  x0:0x00000000
       52735000	      5272	8000405c	007b46b3	xor	x13,x22,x7	 x22:0x00000000  x7:0x0000008c x13=0x0000008c
       52745000	      5273	80004060	406a5093	srai	x1,x20,0x6	 x20:0xfffff800  x1=0xffffffe0
       52755000	      5274	80004064	01a29393	slli	x7,x5,0x1a	  x5:0xffffffff  x7=0xfc000000
       52765000	      5275	80004068	0076e433	or	x8,x13,x7	 x13:0x0000008c  x7:0xfc000000  x8=0xfc00008c
       52775000	      5276	8000406c	00211863	bne	x2,x2,8000407c	  x2:0x00000000  x2:0x00000000
       52785000	      5277	80004070	cbb5f613	andi	x12,x11,-837	 x11:0x00000000 x12=0x00000000
       52795000	      5278	80004074	41895a33	sra	x20,x18,x24	 x18:0x00000000 x24:0x80000000 x20=0x00000000
       52805000	      5279	80004078	00458eb3	add	x29,x11,x4	 x11:0x00000000  x4:0x0000008c x29=0x0000008c
       52815000	      5280	8000407c	01119533	sll	x10,x3,x17	  x3:0xfffff832 x17:0x2ae29ff4 x10=0x83200000
       52825000	      5281	80004080	fa7a26b7	lui	x13,0xfa7a2	 x13=0xfa7a2000
       52835000	      5282	80004084	09056337	lui	x6,0x9056	  x6=0x09056000
       52845000	      5283	80004088	0f2e8337	lui	x6,0xf2e8	  x6=0x0f2e8000
       52855000	      5284	8000408c	009822b3	slt	x5,x16,x9	 x16:0x800081b7  x9:0x00000000  x5=0x00000001
       52865000	      5285	80004090	00a92e33	slt	x28,x18,x10	 x18:0x00000000 x10:0x83200000 x28=0x00000000
       52875000	      5286	80004094	01764b33	xor	x22,x12,x23	 x12:0x00000000 x23:0x0000008c x22=0x0000008c
       52885000	      5287	80004098	004e6533	or	x10,x28,x4	 x28:0x00000000  x4:0x0000008c x10=0x0000008c
       52895000	      5288	8000409c	0400e263	bltu	x1,x0,800040e0	  x1:0xffffffe0  x0:0x00000000
       52905000	      5289	800040a0	0304f863	bgeu	x9,x16,800040d0	  x9:0x00000000 x16:0x800081b7
       52915000	      5290	800040a4	1a59cd37	lui	x26,0x1a59c	 x26=0x1a59c000
       52925000	      5291	800040a8	02bd6863	bltu	x26,x11,800040d8	 x26:0x1a59c000 x11:0x00000000
       52935000	      5292	800040ac	001948b3	xor	x17,x18,x1	 x18:0x00000000  x1:0xffffffe0 x17=0xffffffe0
       52945000	      5293	800040b0	40835f33	sra	x30,x6,x8	  x6:0x0f2e8000  x8:0xfc00008c x30=0x0000f2e8
       52955000	      5294	800040b4	402f81b3	sub	x3,x31,x2	 x31:0x000001e1  x2:0x00000000  x3=0x000001e1
       52965000	      5295	800040b8	415ddf93	srai	x31,x27,0x15	 x27:0x000002d9 x31=0x00000000
       52975000	      5296	800040bc	019e92b3	sll	x5,x29,x25	 x29:0x0000008c x25:0x80009fc4  x5=0x000008c0
       52985000	      5297	800040c0	000e1513	slli	x10,x28,0x0	 x28:0x00000000 x10=0x00000000
       52995000	      5298	800040c4	0028d433	srl	x8,x17,x2	 x17:0xffffffe0  x2:0x00000000  x8=0xffffffe0
       53005000	      5299	800040c8	01c51393	slli	x7,x10,0x1c	 x10:0x00000000  x7=0x00000000
       53015000	      5300	800040cc	01d4c463	blt	x9,x29,800040d4	  x9:0x00000000 x29:0x0000008c
       53025000	      5301	00000000	00000013	addi	x0,x0,0	  x0:0x00000000
       53035000	      5302	800040d0	00000013	addi	x0,x0,0	  x0:0x00000000
       53045000	      5303	800040d4	408484b3	sub	x9,x9,x8	  x9:0x00000000  x8:0xffffffe0  x9=0x00000020
       53055000	      5304	800040d8	00cbb433	sltu	x8,x23,x12	 x23:0x0000008c x12:0x00000000  x8=0x00000000
       53065000	      5305	800040dc	c0c73997	auipc	x19,0xc0c73	 x19=0x40c770d8
       53075000	      5306	800040e0	00111263	bne	x2,x1,800040e4	  x2:0x00000000  x1:0xffffffe0
       53085000	      5307	00000000	00000013	addi	x0,x0,0	  x0:0x00000000
       53095000	      5308	800040e0	00000013	addi	x0,x0,0	  x0:0x00000000
       53105000	      5309	800040e4	40005b93	srai	x23,x0,0x0	  x0:0x00000000 x23=0x00000000
       53115000	      5310	800040e8	aba1f813	andi	x16,x3,-1350	  x3:0x000001e1 x16=0x000000a0
       53125000	      5311	800040ec	003e7bb3	and	x23,x28,x3	 x28:0x00000000  x3:0x000001e1 x23=0x00000000
       53135000	      5312	800040f0	0a4a6513	ori	x10,x20,164	 x20:0x00000000 x10=0x000000a4
       53145000	      5313	800040f4	30516093	ori	x1,x2,773	  x2:0x00000000  x1=0x00000305
       53155000	      5314	800040f8	d910a213	slti	x4,x1,-623	  x1:0x00000305  x4=0x00000000
       53165000	      5315	800040fc	0009fe63	bgeu	x19,x0,80004118	 x19:0x40c770d8  x0:0x00000000
       53175000	      5316	00000000	00000013	addi	x0,x0,0	  x0:0x00000000
       53185000	      5317	80004114	00000013	addi	x0,x0,0	  x0:0x00000000
       53195000	      5318	80004118	00f59913	slli	x18,x11,0xf	 x11:0x00000000 x18=0x00000000
       53205000	      5319	8000411c	41895d13	srai	x26,x18,0x18	 x18:0x00000000 x26=0x00000000
       53215000	      5320	80004120	037cd263	bge	x25,x23,80004144	 x25:0x80009fc4 x23:0x00000000
       53225000	      5321	80004124	009587b3	add	x15,x11,x9	 x11:0x00000000  x9:0x00000020 x15=0x00000020
       53235000	      5322	80004128	d7dac513	xori	x10,x21,-643	 x21:0x00000635 x10=0xfffffb48
       53245000	      5323	8000412c	01663fb3	sltu	x31,x12,x22	 x12:0x00000000 x22:0x0000008c x31=0x00000001
       53255000	      5324	80004130	0149db93	srli	x23,x19,0x14	 x19:0x40c770d8 x23=0x0000040c
       53265000	      5325	80004134	00354e33	xor	x28,x10,x3	 x10:0xfffffb48  x3:0x000001e1 x28=0xfffffaa9
       53275000	      5326	80004138	6b0e7e93	andi	x29,x28,1712	 x28:0xfffffaa9 x29=0x000002a0
       53285000	      5327	8000413c	02eb0863	beq	x22,x14,8000416c	 x22:0x0000008c x14:0x80009f5c
       53295000	      5328	80004140	04780063	beq	x16,x7,80004180	 x16:0x000000a0  x7:0x00000000
       53305000	      5329	80004144	66025b17	auipc	x22,0x66025	 x22=0xe6029140
       53315000	      5330	80004148	009c6433	or	x8,x24,x9	 x24:0x80000000  x9:0x00000020  x8=0x80000020
       53325000	      5331	8000414c	12a32e13	slti	x28,x6,298	  x6:0x0f2e8000 x28=0x00000000
       53335000	      5332	80004150	40c15133	sra	x2,x2,x12	  x2:0x00000000 x12:0x00000000  x2=0x00000000
       53345000	      5333	80004154	9af48f13	addi	x30,x9,-1617	  x9:0x00000020 x30=0xfffff9cf
       53355000	      5334	80004158	c824cd13	xori	x26,x9,-894	  x9:0x00000020 x26=0xfffffca2
       53365000	      5335	8000415c	669ba193	slti	x3,x23,1641	 x23:0x0000040c  x3=0x00000001
       53375000	      5336	80004160	01798a63	beq	x19,x23,80004174	 x19:0x40c770d8 x23:0x0000040c
       53385000	      5337	80004164	41c88bb3	sub	x23,x17,x28	 x17:0xffffffe0 x28:0x00000000 x23=0xffffffe0
       53395000	      5338	80004168	05b71663	bne	x14,x27,800041b4	 x14:0x80009f5c x27:0x000002d9
       53405000	      5339	00000000	00000013	addi	x0,x0,0	  x0:0x00000000
       53415000	      5340	800041b0	00000013	addi	x0,x0,0	  x0:0x00000000
       53425000	      5341	800041b4	419b0db3	sub	x27,x22,x25	 x22:0xe6029140 x25:0x80009fc4 x27=0x6601f17c
       53435000	      5342	800041b8	3db62793	slti	x15,x12,987	 x12:0x00000000 x15=0x00000001
       53445000	      5343	800041bc	002e5e13	srli	x28,x28,0x2	 x28:0x00000000 x28=0x00000000
       53455000	      5344	800041c0	d6298513	addi	x10,x19,-670	 x19:0x40c770d8 x10=0x40c76e3a
       53465000	      5345	800041c4	41cf0233	sub	x4,x30,x28	 x30:0xfffff9cf x28:0x00000000  x4=0xfffff9cf
       53475000	      5346	800041c8	4caa5937	lui	x18,0x4caa5	 x18=0x4caa5000
       53485000	      5347	800041cc	02245463	bge	x8,x2,800041f4	  x8:0x80000020  x2:0x00000000
       53495000	      5348	800041d0	006b9093	slli	x1,x23,0x6	 x23:0xffffffe0  x1=0xfffff800
       53505000	      5349	800041d4	5252a893	slti	x17,x5,1317	  x5:0x000008c0 x17=0x00000000
       53515000	      5350	800041d8	00186833	or	x16,x16,x1	 x16:0x000000a0  x1:0xfffff800 x16=0xfffff8a0
       53525000	      5351	800041dc	00000013	addi	x0,x0,0	  x0:0x00000000
       53535000	      5352	800041e0	01a43f33	sltu	x30,x8,x26	  x8:0x80000020 x26:0xfffffca2 x30=0x00000001
       53545000	      5353	800041e4	01dc9463	bne	x25,x29,800041ec	 x25:0x80009fc4 x29:0x000002a0
       53555000	      5354	00000000	00000013	addi	x0,x0,0	  x0:0x00000000
       53565000	      5355	800041e8	00000013	addi	x0,x0,0	  x0:0x00000000
       53575000	      5356	800041ec	00ea7133	and	x2,x20,x14	 x20:0x00000000 x14:0x80009f5c  x2=0x00000000
       53585000	      5357	800041f0	00f047b3	xor	x15,x0,x15	  x0:0x00000000 x15:0x00000001 x15=0x00000001
       53595000	      5358	800041f4	01c61a33	sll	x20,x12,x28	 x12:0x00000000 x28:0x00000000 x20=0x00000000
       53605000	      5359	800041f8	5d134113	xori	x2,x6,1489	  x6:0x0f2e8000  x2=0x0f2e85d1
       53615000	      5360	800041fc	8cd5e113	ori	x2,x11,-1843	 x11:0x00000000  x2=0xfffff8cd
       53625000	      5361	80004200	0133f1b3	and	x3,x7,x19	  x7:0x00000000 x19:0x40c770d8  x3=0x00000000
       53635000	      5362	80004204	00b09f93	slli	x31,x1,0xb	  x1:0xfffff800 x31=0xffc00000
       53645000	      5363	80004208	01525c63	bge	x4,x21,80004220	  x4:0xfffff9cf x21:0x00000635
       53655000	      5364	8000420c	009b6463	bltu	x22,x9,80004214	 x22:0xe6029140  x9:0x00000020
       53665000	      5365	80004210	d8840f13	addi	x30,x8,-632	  x8:0x80000020 x30=0x7ffffda8
       53675000	      5366	80004214	4122db13	srai	x22,x5,0x12	  x5:0x000008c0 x22=0x00000000
       53685000	      5367	80004218	00000013	addi	x0,x0,0	  x0:0x00000000
       53695000	      5368	8000421c	00000013	addi	x0,x0,0	  x0:0x00000000
       53705000	      5369	80004220	02459c63	bne	x11,x4,80004258	 x11:0x00000000  x4:0xfffff9cf
       53715000	      5370	00000000	00000013	addi	x0,x0,0	  x0:0x00000000
       53725000	      5371	80004254	00000013	addi	x0,x0,0	  x0:0x00000000
       53735000	      5372	80004258	010d68b3	or	x17,x26,x16	 x26:0xfffffca2 x16:0xfffff8a0 x17=0xfffffca2
       53745000	      5373	8000425c	011995b3	sll	x11,x19,x17	 x19:0x40c770d8 x17:0xfffffca2 x11=0x031dc360
       53755000	      5374	80004260	01ddf463	bgeu	x27,x29,80004268	 x27:0x6601f17c x29:0x000002a0
       53765000	      5375	00000000	00000013	addi	x0,x0,0	  x0:0x00000000
       53775000	      5376	80004264	00000013	addi	x0,x0,0	  x0:0x00000000
       53785000	      5377	80004268	00c583b3	add	x7,x11,x12	 x11:0x031dc360 x12:0x00000000  x7=0x031dc360
       53795000	      5378	8000426c	ee332513	slti	x10,x6,-285	  x6:0x0f2e8000 x10=0x00000000
       53805000	      5379	80004270	413edf33	sra	x30,x29,x19	 x29:0x000002a0 x19:0x40c770d8 x30=0x00000000
       53815000	      5380	80004274	0049d093	srli	x1,x19,0x4	 x19:0x40c770d8  x1=0x040c770d
       53825000	      5381	80004278	80d28b13	addi	x22,x5,-2035	  x5:0x000008c0 x22=0x000000cd
       53835000	      5382	8000427c	01675813	srli	x16,x14,0x16	 x14:0x80009f5c x16=0x00000200
       53845000	      5383	80004280	40f70ab3	sub	x21,x14,x15	 x14:0x80009f5c x15:0x00000001 x21=0x80009f5b
       53855000	      5384	80004284	05c9f663	bgeu	x19,x28,800042d0	 x19:0x40c770d8 x28:0x00000000
       53865000	      5385	00000000	00000013	addi	x0,x0,0	  x0:0x00000000
       53875000	      5386	800042cc	00000013	addi	x0,x0,0	  x0:0x00000000
       53885000	      5387	800042d0	00905213	srli	x4,x0,0x9	  x0:0x00000000  x4=0x00000000
       53895000	      5388	800042d4	438dba13	sltiu	x20,x27,1080	 x27:0x6601f17c x20=0x00000000
       53905000	      5389	800042d8	0171eab3	or	x21,x3,x23	  x3:0x00000000 x23:0xffffffe0 x21=0xffffffe0
       53915000	      5390	800042dc	0dd93913	sltiu	x18,x18,221	 x18:0x4caa5000 x18=0x00000000
       53925000	      5391	800042e0	00a4b633	sltu	x12,x9,x10	  x9:0x00000020 x10:0x00000000 x12=0x00000000
       53935000	      5392	800042e4	835f5097	auipc	x1,0x835f5	  x1=0x035f92e0
       53945000	      5393	800042e8	05214063	blt	x2,x18,80004328	  x2:0xfffff8cd x18:0x00000000
       53955000	      5394	00000000	00000013	addi	x0,x0,0	  x0:0x00000000
       53965000	      5395	80004324	00000013	addi	x0,x0,0	  x0:0x00000000
       53975000	      5396	80004328	013091b3	sll	x3,x1,x19	  x1:0x035f92e0 x19:0x40c770d8  x3=0xe0000000
       53985000	      5397	8000432c	00cfa8b3	slt	x17,x31,x12	 x31:0xffc00000 x12:0x00000000 x17=0x00000001
       53995000	      5398	80004330	a38248b7	lui	x17,0xa3824	 x17=0xa3824000
       54005000	      5399	80004334	a92323b7	lui	x7,0xa9232	  x7=0xa9232000
       54015000	      5400	80004338	019b56b3	srl	x13,x22,x25	 x22:0x000000cd x25:0x80009fc4 x13=0x0000000c
       54025000	      5401	8000433c	001d3033	sltu	x0,x26,x1	 x26:0xfffffca2  x1:0x035f92e0
       54035000	      5402	80004340	0012e263	bltu	x5,x1,80004344	  x5:0x000008c0  x1:0x035f92e0
       54045000	      5403	00000000	00000013	addi	x0,x0,0	  x0:0x00000000
       54055000	      5404	80004340	00000013	addi	x0,x0,0	  x0:0x00000000
       54065000	      5405	80004344	00000013	addi	x0,x0,0	  x0:0x00000000
       54075000	      5406	80004348	41fc5313	srai	x6,x24,0x1f	 x24:0x80000000  x6=0xffffffff
       54085000	      5407	8000434c	8b08a313	slti	x6,x17,-1872	 x17:0xa3824000  x6=0x00000001
       54095000	      5408	80004350	0089b3b3	sltu	x7,x19,x8	 x19:0x40c770d8  x8:0x80000020  x7=0x00000001
       54105000	      5409	80004354	1df55437	lui	x8,0x1df55	  x8=0x1df55000
       54115000	      5410	80004358	41755013	srai	x0,x10,0x17	 x10:0x00000000
       54125000	      5411	8000435c	04a76063	bltu	x14,x10,8000439c	 x14:0x80009f5c x10:0x00000000
       54135000	      5412	80004360	03ec1263	bne	x24,x30,80004384	 x24:0x80000000 x30:0x00000000
       54145000	      5413	00000000	00000013	addi	x0,x0,0	  x0:0x00000000
       54155000	      5414	80004380	00000013	addi	x0,x0,0	  x0:0x00000000
       54165000	      5415	80004384	001b75b3	and	x11,x22,x1	 x22:0x000000cd  x1:0x035f92e0 x11=0x000000c0
       54175000	      5416	80004388	41ae5413	srai	x8,x28,0x1a	 x28:0x00000000  x8=0x00000000
       54185000	      5417	8000438c	415c5113	srai	x2,x24,0x15	 x24:0x80000000  x2=0xfffffc00
       54195000	      5418	80004390	00000013	addi	x0,x0,0	  x0:0x00000000
       54205000	      5419	80004394	04d4c663	blt	x9,x13,800043e0	  x9:0x00000020 x13:0x0000000c
       54215000	      5420	80004398	97acce13	xori	x28,x25,-1670	 x25:0x80009fc4 x28=0x7fff66be
       54225000	      5421	8000439c	04f5f663	bgeu	x11,x15,800043e8	 x11:0x000000c0 x15:0x00000001
       54235000	      5422	00000000	00000013	addi	x0,x0,0	  x0:0x00000000
       54245000	      5423	800043e4	00000013	addi	x0,x0,0	  x0:0x00000000
       54255000	      5424	800043e8	00000013	addi	x0,x0,0	  x0:0x00000000
       54265000	      5425	800043ec	08e5b093	sltiu	x1,x11,142	 x11:0x000000c0  x1=0x00000000
       54275000	      5426	800043f0	10580a93	addi	x21,x16,261	 x16:0x00000200 x21=0x00000305
       54285000	      5427	800043f4	007d3833	sltu	x16,x26,x7	 x26:0xfffffca2  x7:0x00000001 x16=0x00000000
       54295000	      5428	800043f8	015a1933	sll	x18,x20,x21	 x20:0x00000000 x21:0x00000305 x18=0x00000000
       54305000	      5429	800043fc	01c95a33	srl	x20,x18,x28	 x18:0x00000000 x28:0x7fff66be x20=0x00000000
       54315000	      5430	80004400	0061d293	srli	x5,x3,0x6	  x3:0xe0000000  x5=0x03800000
       54325000	      5431	80004404	03338063	beq	x7,x19,80004424	  x7:0x00000001 x19:0x40c770d8
       54335000	      5432	80004408	4378ce13	xori	x28,x17,1079	 x17:0xa3824000 x28=0xa3824437
       54345000	      5433	8000440c	00acdf13	srli	x30,x25,0xa	 x25:0x80009fc4 x30=0x00200027
       54355000	      5434	80004410	4028d2b3	sra	x5,x17,x2	 x17:0xa3824000  x2:0xfffffc00  x5=0xa3824000
       54365000	      5435	80004414	00000013	addi	x0,x0,0	  x0:0x00000000
       54375000	      5436	80004418	00656663	bltu	x10,x6,80004424	 x10:0x00000000  x6:0x00000001
       54385000	      5437	00000000	00000013	addi	x0,x0,0	  x0:0x00000000
       54395000	      5438	80004420	00000013	addi	x0,x0,0	  x0:0x00000000
       54405000	      5439	80004424	008503b3	add	x7,x10,x8	 x10:0x00000000  x8:0x00000000  x7=0x00000000
       54415000	      5440	80004428	00951d93	slli	x27,x10,0x9	 x10:0x00000000 x27=0x00000000
       54425000	      5441	8000442c	000fa533	slt	x10,x31,x0	 x31:0xffc00000  x0:0x00000000 x10=0x00000001
       54435000	      5442	80004430	00472903	lw	x18,4(x14)	 x14:0x80009f5c x18=0x80000130 PA:0x80009f60
       54445000	      5443	80004434	0172be33	sltu	x28,x5,x23	  x5:0xa3824000 x23:0xffffffe0 x28=0x00000001
       54455000	      5444	80004438	0025bab3	sltu	x21,x11,x2	 x11:0x000000c0  x2:0xfffffc00 x21=0x00000001
       54465000	      5445	8000443c	02870713	addi	x14,x14,40	 x14:0x80009f5c x14=0x80009f84
       54475000	      5446	80004440	0d9b7b13	andi	x22,x22,217	 x22:0x000000cd x22=0x000000c9
       54485000	      5447	80004444	0167e6b3	or	x13,x15,x22	 x15:0x00000001 x22:0x000000c9 x13=0x000000c9
       54495000	      5448	80004448	0056ed33	or	x26,x13,x5	 x13:0x000000c9  x5:0xa3824000 x26=0xa38240c9
       54505000	      5449	8000444c	00ceffb3	and	x31,x29,x12	 x29:0x000002a0 x12:0x00000000 x31=0x00000000
       54515000	      5450	80004450	d5af7793	andi	x15,x30,-678	 x30:0x00200027 x15=0x00200002
       54525000	      5451	80004454	0124d193	srli	x3,x9,0x12	  x9:0x00000020  x3=0x00000000
       54535000	      5452	80004458	00190e13	addi	x28,x18,1	 x18:0x80000130 x28=0x80000131
       54545000	      5453	8000445c	000e0e67	jalr	x28,x28,0	 x28:0x80000131 x28=0x8000445c
       54555000	      5454	00000000	00000013	addi	x0,x0,0	  x0:0x00000000
       54565000	      5455	80000130	00000013	addi	x0,x0,0	  x0:0x00000000
       54575000	      5456	80000134	00009497	auipc	x9,0x9	  x9=0x80009130
       54585000	      5457	80000138	d2c48493	addi	x9,x9,-724	  x9:0x80009130  x9=0x80008e5c
       54595000	      5458	8000013c	02948883	lb	x17,41(x9)	  x9:0x80008e5c x17=0x00000000 PA:0x80008e85
       54605000	      5459	80000140	00ed5333	srl	x6,x26,x14	 x26:0xa38240c9 x14:0x80009f84  x6=0x0a38240c
       54615000	      5460	80000144	4143d633	sra	x12,x7,x20	  x7:0x00000000 x20:0x00000000 x12=0x00000000
       54625000	      5461	80000148	7fa44513	xori	x10,x8,2042	  x8:0x00000000 x10=0x000007fa
       54635000	      5462	8000014c	ff54c683	lbu	x13,-11(x9)	  x9:0x80008e5c x13=0x00000000 PA:0x80008e51
       54645000	      5463	80000150	01449383	lh	x7,20(x9)	  x9:0x80008e5c  x7=0x00000000 PA:0x80008e70
       54655000	      5464	80000154	00c4a083	lw	x1,12(x9)	  x9:0x80008e5c  x1=0x00000000 PA:0x80008e68
       54665000	      5465	80000158	03648103	lb	x2,54(x9)	  x9:0x80008e5c  x2=0x00000000 PA:0x80008e92
       54675000	      5466	8000015c	22e38b13	addi	x22,x7,558	  x7:0x00000000 x22=0x0000022e
       54685000	      5467	80000160	70900e13	addi	x28,x0,1801	  x0:0x00000000 x28=0x00000709
       54695000	      5468	80000164	02e4de03	lhu	x28,46(x9)	  x9:0x80008e5c x28=0x00000000 PA:0x80008e8a
       54705000	      5469	80000168	12c46d13	ori	x26,x8,300	  x8:0x00000000 x26=0x0000012c
       54715000	      5470	8000016c	ff8481a3	sb	x24,-29(x9)	  x9:0x80008e5c x24:0x80000000 PA:0x80008e3f
       54725000	      5471	80000170	fc84ce83	lbu	x29,-56(x9)	  x9:0x80008e5c x29=0x00000000 PA:0x80008e24
       54735000	      5472	80000174	f24fa237	lui	x4,0xf24fa	  x4=0xf24fa000
       54745000	      5473	80000178	5c646f93	ori	x31,x8,1478	  x8:0x00000000 x31=0x000005c6
       54755000	      5474	8000017c	ffb48e83	lb	x29,-5(x9)	  x9:0x80008e5c x29=0x00000000 PA:0x80008e57
       54765000	      5475	80000180	00259393	slli	x7,x11,0x2	 x11:0x000000c0  x7=0x00000300
       54775000	      5476	80000184	ffa4d983	lhu	x19,-6(x9)	  x9:0x80008e5c x19=0x00000000 PA:0x80008e56
       54785000	      5477	80000188	037483a3	sb	x23,39(x9)	  x9:0x80008e5c x23:0xffffffe0 PA:0x80008e83
       54795000	      5478	8000018c	01e4df83	lhu	x31,30(x9)	  x9:0x80008e5c x31=0x00000000 PA:0x80008e7a
       54805000	      5479	80000190	01c48f03	lb	x30,28(x9)	  x9:0x80008e5c x30=0x00000000 PA:0x80008e78
       54815000	      5480	80000194	0020db93	srli	x23,x1,0x2	  x1:0x00000000 x23=0x00000000
       54825000	      5481	80000198	40010f33	sub	x30,x2,x0	  x2:0x00000000  x0:0x00000000 x30=0x00000000
       54835000	      5482	8000019c	004c68b3	or	x17,x24,x4	 x24:0x80000000  x4:0xf24fa000 x17=0xf24fa000
       54845000	      5483	800001a0	fc9484a3	sb	x9,-55(x9)	  x9:0x80008e5c  x9:0x80008e5c PA:0x80008e25
       54855000	      5484	800001a4	ffe487a3	sb	x30,-17(x9)	  x9:0x80008e5c x30:0x00000000 PA:0x80008e4b
       54865000	      5485	800001a8	01c03533	sltu	x10,x0,x28	  x0:0x00000000 x28:0x00000000 x10=0x00000000
       54875000	      5486	800001ac	fd849023	sh	x24,-64(x9)	  x9:0x80008e5c x24:0x80000000 PA:0x80008e1c
       54885000	      5487	800001b0	cf692313	slti	x6,x18,-778	 x18:0x80000130  x6=0x00000001
       54895000	      5488	800001b4	39846913	ori	x18,x8,920	  x8:0x00000000 x18=0x00000398
       54905000	      5489	800001b8	7c882893	slti	x17,x16,1992	 x16:0x00000000 x17=0x00000001
       54915000	      5490	800001bc	419d8ab3	sub	x21,x27,x25	 x27:0x00000000 x25:0x80009fc4 x21=0x7fff603c
       54925000	      5491	800001c0	00a53ab3	sltu	x21,x10,x10	 x10:0x00000000 x10:0x00000000 x21=0x00000000
       54935000	      5492	800001c4	2b3ebd93	sltiu	x27,x29,691	 x29:0x00000000 x27=0x00000001
       54945000	      5493	800001c8	013cd463	bge	x25,x19,800001d0	 x25:0x80009fc4 x19:0x00000000
       54955000	      5494	800001cc	01775233	srl	x4,x14,x23	 x14:0x80009f84 x23:0x00000000  x4=0x80009f84
       54965000	      5495	800001d0	007700b3	add	x1,x14,x7	 x14:0x80009f84  x7:0x00000300  x1=0x8000a284
       54975000	      5496	800001d4	00b33ab3	sltu	x21,x6,x11	  x6:0x00000001 x11:0x000000c0 x21=0x00000001
       54985000	      5497	800001d8	0175e433	or	x8,x11,x23	 x11:0x000000c0 x23:0x00000000  x8=0x000000c0
       54995000	      5498	800001dc	a3a9f993	andi	x19,x19,-1478	 x19:0x00000000 x19=0x00000000
       55005000	      5499	800001e0	00342fb3	slt	x31,x8,x3	  x8:0x000000c0  x3:0x00000000 x31=0x00000000
       55015000	      5500	800001e4	005168b3	or	x17,x2,x5	  x2:0x00000000  x5:0xa3824000 x17=0xa3824000
       55025000	      5501	800001e8	26650493	addi	x9,x10,614	 x10:0x00000000  x9=0x00000266
       55035000	      5502	800001ec	0193fdb3	and	x27,x7,x25	  x7:0x00000300 x25:0x80009fc4 x27=0x00000300
       55045000	      5503	800001f0	004f38b3	sltu	x17,x30,x4	 x30:0x00000000  x4:0x80009f84 x17=0x00000001
       55055000	      5504	800001f4	ddf6b913	sltiu	x18,x13,-545	 x13:0x00000000 x18=0x00000001
       55065000	      5505	800001f8	dffaf993	andi	x19,x21,-513	 x21:0x00000001 x19=0x00000001
       55075000	      5506	800001fc	00587fb3	and	x31,x16,x5	 x16:0x00000000  x5:0xa3824000 x31=0x00000000
       55085000	      5507	80000200	3e97b513	sltiu	x10,x15,1001	 x15:0x00200002 x10=0x00000000
       55095000	      5508	80000204	10bcf893	andi	x17,x25,267	 x25:0x80009fc4 x17=0x00000100
       55105000	      5509	80000208	01f56463	bltu	x10,x31,80000210	 x10:0x00000000 x31:0x00000000
       55115000	      5510	8000020c	014cf433	and	x8,x25,x20	 x25:0x80009fc4 x20:0x00000000  x8=0x00000000
       55125000	      5511	80000210	4165d533	sra	x10,x11,x22	 x11:0x000000c0 x22:0x0000022e x10=0x00000000
       55135000	      5512	80000214	0322c063	blt	x5,x18,80000234	  x5:0xa3824000 x18:0x00000001
       55145000	      5513	00000000	00000013	addi	x0,x0,0	  x0:0x00000000
       55155000	      5514	80000230	00000013	addi	x0,x0,0	  x0:0x00000000
       55165000	      5515	80000234	01100db3	add	x27,x0,x17	  x0:0x00000000 x17:0x00000100 x27=0x00000100
       55175000	      5516	80000238	013a9693	slli	x13,x21,0x13	 x21:0x00000001 x13=0x00080000
       55185000	      5517	8000023c	0100d293	srli	x5,x1,0x10	  x1:0x8000a284  x5=0x00008000
       55195000	      5518	80000240	406ad893	srai	x17,x21,0x6	 x21:0x00000001 x17=0x00000000
       55205000	      5519	80000244	3b102513	slti	x10,x0,945	  x0:0x00000000 x10=0x00000001
       55215000	      5520	80000248	02d98a63	beq	x19,x13,8000027c	 x19:0x00000001 x13:0x00080000
       55225000	      5521	8000024c	00be5a13	srli	x20,x28,0xb	 x28:0x00000000 x20=0x00000000
       55235000	      5522	80000250	04934663	blt	x6,x9,8000029c	  x6:0x00000001  x9:0x00000266
       55245000	      5523	00000000	00000013	addi	x0,x0,0	  x0:0x00000000
       55255000	      5524	80000298	00000013	addi	x0,x0,0	  x0:0x00000000
       55265000	      5525	8000029c	4094d0b3	sra	x1,x9,x9	  x9:0x00000266  x9:0x00000266  x1=0x00000009
       55275000	      5526	800002a0	064dcc63	blt	x27,x4,80000318	 x27:0x00000100  x4:0x80009f84
       55285000	      5527	800002a4	013d06b3	add	x13,x26,x19	 x26:0x0000012c x19:0x00000001 x13=0x0000012d
       55295000	      5528	800002a8	407f07b3	sub	x15,x30,x7	 x30:0x00000000  x7:0x00000300 x15=0xfffffd00
       55305000	      5529	800002ac	3c0bd6b7	lui	x13,0x3c0bd	 x13=0x3c0bd000
       55315000	      5530	800002b0	0594d863	bge	x9,x25,80000300	  x9:0x00000266 x25:0x80009fc4
       55325000	      5531	00000000	00000013	addi	x0,x0,0	  x0:0x00000000
       55335000	      5532	800002fc	00000013	addi	x0,x0,0	  x0:0x00000000
       55345000	      5533	80000300	007a1893	slli	x17,x20,0x7	 x20:0x00000000 x17=0x00000000
       55355000	      5534	80000304	b5b08393	addi	x7,x1,-1189	  x1:0x00000009  x7=0xfffffb64
       55365000	      5535	80000308	02cf4063	blt	x30,x12,80000328	 x30:0x00000000 x12:0x00000000
       55375000	      5536	8000030c	00549133	sll	x2,x9,x5	  x9:0x00000266  x5:0x00008000  x2=0x00000266
       55385000	      5537	80000310	00ad29b3	slt	x19,x26,x10	 x26:0x0000012c x10:0x00000001 x19=0x00000000
       55395000	      5538	80000314	46093f13	sltiu	x30,x18,1120	 x18:0x00000001 x30=0x00000001
       55405000	      5539	80000318	020c9e63	bne	x25,x0,80000354	 x25:0x80009fc4  x0:0x00000000
       55415000	      5540	00000000	00000013	addi	x0,x0,0	  x0:0x00000000
       55425000	      5541	80000350	00000013	addi	x0,x0,0	  x0:0x00000000
       55435000	      5542	80000354	0085d933	srl	x18,x11,x8	 x11:0x000000c0  x8:0x00000000 x18=0x000000c0
       55445000	      5543	80000358	0080fa63	bgeu	x1,x8,8000036c	  x1:0x00000009  x8:0x00000000
       55455000	      5544	00000000	00000013	addi	x0,x0,0	  x0:0x00000000
       55465000	      5545	80000368	00000013	addi	x0,x0,0	  x0:0x00000000
       55475000	      5546	8000036c	00785113	srli	x2,x16,0x7	 x16:0x00000000  x2=0x00000000
       55485000	      5547	80000370	336d0513	addi	x10,x26,822	 x26:0x0000012c x10=0x00000462
       55495000	      5548	80000374	403ad293	srai	x5,x21,0x3	 x21:0x00000001  x5=0x00000000
       55505000	      5549	80000378	01331913	slli	x18,x6,0x13	  x6:0x00000001 x18=0x00080000
       55515000	      5550	8000037c	dc0cc313	xori	x6,x25,-576	 x25:0x80009fc4  x6=0x7fff6204
       55525000	      5551	80000380	0119feb3	and	x29,x19,x17	 x19:0x00000000 x17:0x00000000 x29=0x00000000
       55535000	      5552	80000384	03a0e063	bltu	x1,x26,800003a4	  x1:0x00000009 x26:0x0000012c
       55545000	      5553	00000000	00000013	addi	x0,x0,0	  x0:0x00000000
       55555000	      5554	800003a0	00000013	addi	x0,x0,0	  x0:0x00000000
       55565000	      5555	800003a4	c3d2a493	slti	x9,x5,-963	  x5:0x00000000  x9=0x00000000
       55575000	      5556	800003a8	4b6806b7	lui	x13,0x4b680	 x13=0x4b680000
       55585000	      5557	800003ac	00000013	addi	x0,x0,0	  x0:0x00000000
       55595000	      5558	800003b0	64ed3413	sltiu	x8,x26,1614	 x26:0x0000012c  x8=0x00000001
       55605000	      5559	800003b4	00d7df13	srli	x30,x15,0xd	 x15:0xfffffd00 x30=0x0007ffff
       55615000	      5560	800003b8	07d9bb93	sltiu	x23,x19,125	 x19:0x00000000 x23=0x00000001
       55625000	      5561	800003bc	01a187b3	add	x15,x3,x26	  x3:0x00000000 x26:0x0000012c x15=0x0000012c
       55635000	      5562	800003c0	0050b3b3	sltu	x7,x1,x5	  x1:0x00000009  x5:0x00000000  x7=0x00000000
       55645000	      5563	800003c4	af5b8693	addi	x13,x23,-1291	 x23:0x00000001 x13=0xfffffaf6
       55655000	      5564	800003c8	01e89833	sll	x16,x17,x30	 x17:0x00000000 x30:0x0007ffff x16=0x00000000
       55665000	      5565	800003cc	986db693	sltiu	x13,x27,-1658	 x27:0x00000100 x13=0x00000001
       55675000	      5566	800003d0	0011edb3	or	x27,x3,x1	  x3:0x00000000  x1:0x00000009 x27=0x00000009
       55685000	      5567	800003d4	00000013	addi	x0,x0,0	  x0:0x00000000
       55695000	      5568	800003d8	01dce463	bltu	x25,x29,800003e0	 x25:0x80009fc4 x29:0x00000000
       55705000	      5569	800003dc	b7a8ed93	ori	x27,x17,-1158	 x17:0x00000000 x27=0xfffffb7a
       55715000	      5570	800003e0	fd2ea213	slti	x4,x29,-46	 x29:0x00000000  x4=0x00000000
       55725000	      5571	800003e4	40db8333	sub	x6,x23,x13	 x23:0x00000001 x13:0x00000001  x6=0x00000000
       55735000	      5572	800003e8	5140e093	ori	x1,x1,1300	  x1:0x00000009  x1=0x0000051d
       55745000	      5573	800003ec	00000a17	auipc	x20,0x0	 x20=0x800003e8
       55755000	      5574	800003f0	40ca0a13	addi	x20,x20,1036	 x20:0x800003e8 x20=0x800007f4
       55765000	      5575	800003f4	0034ef33	or	x30,x9,x3	  x9:0x00000000  x3:0x00000000 x30=0x00000000
       55775000	      5576	800003f8	00f21093	slli	x1,x4,0xf	  x4:0x00000000  x1=0x00000000
       55785000	      5577	800003fc	00691113	slli	x2,x18,0x6	 x18:0x00080000  x2=0x02000000
       55795000	      5578	80000400	c34a0a13	addi	x20,x20,-972	 x20:0x800007f4 x20=0x80000428
       55805000	      5579	80000404	9c433813	sltiu	x16,x6,-1596	  x6:0x00000000 x16=0x00000001
       55815000	      5580	80000408	00ee57b3	srl	x15,x28,x14	 x28:0x00000000 x14:0x80009f84 x15=0x00000000
       55825000	      5581	8000040c	3cca0967	jalr	x18,x20,972	 x20:0x80000428 x18=0x8000040c
       55835000	      5582	00000000	00000013	addi	x0,x0,0	  x0:0x00000000
       55845000	      5583	800007f4	00000013	addi	x0,x0,0	  x0:0x00000000
       55855000	      5584	800007f8	00d18263	beq	x3,x13,800007fc	  x3:0x00000000 x13:0x00000001
       55865000	      5585	800007fc	fc470713	addi	x14,x14,-60	 x14:0x80009f84 x14=0x80009f48
       55875000	      5586	80000800	0b18a593	slti	x11,x17,177	 x17:0x00000000 x11=0x00000001
       55885000	      5587	80000804	db36be13	sltiu	x28,x13,-589	 x13:0x00000001 x28=0x00000001
       55895000	      5588	80000808	00e19233	sll	x4,x3,x14	  x3:0x00000000 x14:0x80009f48  x4=0x00000000
       55905000	      5589	8000080c	01272223	sw	x18,4(x14)	 x14:0x80009f48 x18:0x8000040c PA:0x80009f4c
       55915000	      5590	80000810	0106ab33	slt	x22,x13,x16	 x13:0x00000001 x16:0x00000001 x22=0x00000000
       55925000	      5591	80000814	555dc313	xori	x6,x27,1365	 x27:0xfffffb7a  x6=0xfffffe2f
       55935000	      5592	80000818	8e047d93	andi	x27,x8,-1824	  x8:0x00000001 x27=0x00000000
       55945000	      5593	8000081c	0056ffb3	and	x31,x13,x5	 x13:0x00000001  x5:0x00000000 x31=0x00000000
       55955000	      5594	80000820	0154f5b3	and	x11,x9,x21	  x9:0x00000000 x21:0x00000001 x11=0x00000000
       55965000	      5595	80000824	00000013	addi	x0,x0,0	  x0:0x00000000
       55975000	      5596	80000828	40cddb13	srai	x22,x27,0xc	 x27:0x00000000 x22=0x00000000
       55985000	      5597	8000082c	00005197	auipc	x3,0x5	  x3=0x80005828
       55995000	      5598	80000830	ab418193	addi	x3,x3,-1356	  x3:0x80005828  x3=0x800052dc
       56005000	      5599	80000834	0181ed33	or	x26,x3,x24	  x3:0x800052dc x24:0x80000000 x26=0x800052dc
       56015000	      5600	80000838	cd418193	addi	x3,x3,-812	  x3:0x800052dc  x3=0x80004fb0
       56025000	      5601	8000083c	00461793	slli	x15,x12,0x4	 x12:0x00000000 x15=0x00000000
       56035000	      5602	80000840	40df87b3	sub	x15,x31,x13	 x31:0x00000000 x13:0x00000001 x15=0xffffffff
       56045000	      5603	80000844	0124b8b3	sltu	x17,x9,x18	  x9:0x00000000 x18:0x8000040c x17=0x00000001
       56055000	      5604	80000848	32d18967	jalr	x18,x3,813	  x3:0x80004fb0 x18=0x80000848
       56065000	      5605	00000000	00000013	addi	x0,x0,0	  x0:0x00000000
       56075000	      5606	800052dc	00000013	addi	x0,x0,0	  x0:0x00000000
       56085000	      5607	800052e0	fc470713	addi	x14,x14,-60	 x14:0x80009f48 x14=0x80009f0c
       56095000	      5608	800052e4	49bae193	ori	x3,x21,1179	 x21:0x00000001  x3=0x0000049b
       56105000	      5609	800052e8	f9616893	ori	x17,x2,-106	  x2:0x02000000 x17=0xffffff96
       56115000	      5610	800052ec	01272223	sw	x18,4(x14)	 x14:0x80009f0c x18:0x80000848 PA:0x80009f10
       56125000	      5611	800052f0	a4e3ed13	ori	x26,x7,-1458	  x7:0x00000000 x26=0xfffffa4e
       56135000	      5612	800052f4	79fbf213	andi	x4,x23,1951	 x23:0x00000001  x4=0x00000001
       56145000	      5613	800052f8	05c06663	bltu	x0,x28,80005344	  x0:0x00000000 x28:0x00000001
       56155000	      5614	00000000	00000013	addi	x0,x0,0	  x0:0x00000000
       56165000	      5615	80005340	00000013	addi	x0,x0,0	  x0:0x00000000
       56175000	      5616	80005344	98040613	addi	x12,x8,-1664	  x8:0x00000001 x12=0xfffff981
       56185000	      5617	80005348	015c85b3	add	x11,x25,x21	 x25:0x80009fc4 x21:0x00000001 x11=0x80009fc5
       56195000	      5618	8000534c	02c09863	bne	x1,x12,8000537c	  x1:0x00000000 x12:0xfffff981
       56205000	      5619	00000000	00000013	addi	x0,x0,0	  x0:0x00000000
       56215000	      5620	80005378	00000013	addi	x0,x0,0	  x0:0x00000000
       56225000	      5621	8000537c	0017afb3	slt	x31,x15,x1	 x15:0xffffffff  x1:0x00000000 x31=0x00000001
       56235000	      5622	80005380	00000013	addi	x0,x0,0	  x0:0x00000000
       56245000	      5623	80005384	7d6d6f13	ori	x30,x26,2006	 x26:0xfffffa4e x30=0xffffffde
       56255000	      5624	80005388	00472903	lw	x18,4(x14)	 x14:0x80009f0c x18=0x80000848 PA:0x80009f10
       56265000	      5625	8000538c	c83dc9b7	lui	x19,0xc83dc	 x19=0xc83dc000
       56275000	      5626	80005390	b9d9e313	ori	x6,x19,-1123	 x19:0xc83dc000  x6=0xfffffb9d
       56285000	      5627	80005394	00088d33	add	x26,x17,x0	 x17:0xffffff96  x0:0x00000000 x26=0xffffff96
       56295000	      5628	80005398	0e687813	andi	x16,x16,230	 x16:0x00000001 x16=0x00000000
       56305000	      5629	8000539c	8970b213	sltiu	x4,x1,-1897	  x1:0x00000000  x4=0x00000001
       56315000	      5630	800053a0	f51b3f93	sltiu	x31,x22,-175	 x22:0x00000000 x31=0x00000001
       56325000	      5631	800053a4	d7d3e593	ori	x11,x7,-643	  x7:0x00000000 x11=0xfffffd7d
       56335000	      5632	800053a8	03c70713	addi	x14,x14,60	 x14:0x80009f0c x14=0x80009f48
       56345000	      5633	800053ac	409f0ab3	sub	x21,x30,x9	 x30:0xffffffde  x9:0x00000000 x21=0xffffffde
       56355000	      5634	800053b0	00190813	addi	x16,x18,1	 x18:0x80000848 x16=0x80000849
       56365000	      5635	800053b4	00080867	jalr	x16,x16,0	 x16:0x80000849 x16=0x800053b4
       56375000	      5636	00000000	00000013	addi	x0,x0,0	  x0:0x00000000
       56385000	      5637	80000848	00000013	addi	x0,x0,0	  x0:0x00000000
       56395000	      5638	8000084c	012f7e33	and	x28,x30,x18	 x30:0xffffffde x18:0x80000848 x28=0x80000848
       56405000	      5639	80000850	00000013	addi	x0,x0,0	  x0:0x00000000
       56415000	      5640	80000854	b76ee297	auipc	x5,0xb76ee	  x5=0x376ee850
       56425000	      5641	80000858	e834ce93	xori	x29,x9,-381	  x9:0x00000000 x29=0xfffffe83
       56435000	      5642	8000085c	03f27263	bgeu	x4,x31,80000880	  x4:0x00000001 x31:0x00000001
       56445000	      5643	00000000	00000013	addi	x0,x0,0	  x0:0x00000000
       56455000	      5644	8000087c	00000013	addi	x0,x0,0	  x0:0x00000000
       56465000	      5645	80000880	01087433	and	x8,x16,x16	 x16:0x800053b4 x16:0x800053b4  x8=0x800053b4
       56475000	      5646	80000884	01c79633	sll	x12,x15,x28	 x15:0xffffffff x28:0x80000848 x12=0xffffff00
       56485000	      5647	80000888	00e29933	sll	x18,x5,x14	  x5:0x376ee850 x14:0x80009f48 x18=0x6ee85000
       56495000	      5648	8000088c	afcaba93	sltiu	x21,x21,-1284	 x21:0xffffffde x21=0x00000000
       56505000	      5649	80000890	0047c533	xor	x10,x15,x4	 x15:0xffffffff  x4:0x00000001 x10=0xfffffffe
       56515000	      5650	80000894	a694a537	lui	x10,0xa694a	 x10=0xa694a000
       56525000	      5651	80000898	e19b8db7	lui	x27,0xe19b8	 x27=0xe19b8000
       56535000	      5652	8000089c	163f6d97	auipc	x27,0x163f6	 x27=0x963f6898
       56545000	      5653	800008a0	009144b3	xor	x9,x2,x9	  x2:0x02000000  x9:0x00000000  x9=0x02000000
       56555000	      5654	800008a4	00472903	lw	x18,4(x14)	 x14:0x80009f48 x18=0x8000040c PA:0x80009f4c
       56565000	      5655	800008a8	c7f72b13	slti	x22,x14,-897	 x14:0x80009f48 x22=0x00000001
       56575000	      5656	800008ac	03c70713	addi	x14,x14,60	 x14:0x80009f48 x14=0x80009f84
       56585000	      5657	800008b0	01c4d2b3	srl	x5,x9,x28	  x9:0x02000000 x28:0x80000848  x5=0x00020000
       56595000	      5658	800008b4	00000013	addi	x0,x0,0	  x0:0x00000000
       56605000	      5659	800008b8	00090b13	addi	x22,x18,0	 x18:0x8000040c x22=0x8000040c
       56615000	      5660	800008bc	000b0b67	jalr	x22,x22,0	 x22:0x8000040c x22=0x800008bc
       56625000	      5661	00000000	00000013	addi	x0,x0,0	  x0:0x00000000
       56635000	      5662	8000040c	00000013	addi	x0,x0,0	  x0:0x00000000
       56645000	      5663	80000410	01d0b133	sltu	x2,x1,x29	  x1:0x00000000 x29:0xfffffe83  x2=0x00000001
       56655000	      5664	80000414	05055863	bge	x10,x16,80000464	 x10:0xa694a000 x16:0x800053b4
       56665000	      5665	00000000	00000013	addi	x0,x0,0	  x0:0x00000000
       56675000	      5666	80000460	00000013	addi	x0,x0,0	  x0:0x00000000
       56685000	      5667	80000464	1717a293	slti	x5,x15,369	 x15:0xffffffff  x5=0x00000001
       56695000	      5668	80000468	ffb76d13	ori	x26,x14,-5	 x14:0x80009f84 x26=0xffffffff
       56705000	      5669	8000046c	014e0633	add	x12,x28,x20	 x28:0x80000848 x20:0x80000428 x12=0x00000c70
       56715000	      5670	80000470	970b6313	ori	x6,x22,-1680	 x22:0x800008bc  x6=0xfffff9fc
       56725000	      5671	80000474	03011e63	bne	x2,x16,800004b0	  x2:0x00000001 x16:0x800053b4
       56735000	      5672	00000000	00000013	addi	x0,x0,0	  x0:0x00000000
       56745000	      5673	800004ac	00000013	addi	x0,x0,0	  x0:0x00000000
       56755000	      5674	800004b0	0306ed13	ori	x26,x13,48	 x13:0x00000001 x26=0x00000031
       56765000	      5675	800004b4	00693eb3	sltu	x29,x18,x6	 x18:0x8000040c  x6:0xfffff9fc x29=0x00000001
       56775000	      5676	800004b8	01fa3bb3	sltu	x23,x20,x31	 x20:0x80000428 x31:0x00000001 x23=0x00000000
       56785000	      5677	800004bc	b232e493	ori	x9,x5,-1245	  x5:0x00000001  x9=0xfffffb23
       56795000	      5678	800004c0	762fe513	ori	x10,x31,1890	 x31:0x00000001 x10=0x00000763
       56805000	      5679	800004c4	e5e5c893	xori	x17,x11,-418	 x11:0xfffffd7d x17=0x00000323
       56815000	      5680	800004c8	d9d968b7	lui	x17,0xd9d96	 x17=0xd9d96000
       56825000	      5681	800004cc	00069f33	sll	x30,x13,x0	 x13:0x00000001  x0:0x00000000 x30=0x00000001
       56835000	      5682	800004d0	38892a93	slti	x21,x18,904	 x18:0x8000040c x21=0x00000001
       56845000	      5683	800004d4	41105813	srai	x16,x0,0x11	  x0:0x00000000 x16=0x00000000
       56855000	      5684	800004d8	45bbea13	ori	x20,x23,1115	 x23:0x00000000 x20=0x0000045b
       56865000	      5685	800004dc	00485463	bge	x16,x4,800004e4	 x16:0x00000000  x4:0x00000001
       56875000	      5686	800004e0	00c41263	bne	x8,x12,800004e4	  x8:0x800053b4 x12:0x00000c70
       56885000	      5687	00000000	00000013	addi	x0,x0,0	  x0:0x00000000
       56895000	      5688	800004e0	00000013	addi	x0,x0,0	  x0:0x00000000
       56905000	      5689	800004e4	43733b93	sltiu	x23,x6,1079	  x6:0xfffff9fc x23=0x00000000
       56915000	      5690	800004e8	4e717893	andi	x17,x2,1255	  x2:0x00000001 x17=0x00000001
       56925000	      5691	800004ec	4132d5b3	sra	x11,x5,x19	  x5:0x00000001 x19:0xc83dc000 x11=0x00000001
       56935000	      5692	800004f0	013091b3	sll	x3,x1,x19	  x1:0x00000000 x19:0xc83dc000  x3=0x00000000
       56945000	      5693	800004f4	0038fab3	and	x21,x17,x3	 x17:0x00000001  x3:0x00000000 x21=0x00000000
       56955000	      5694	800004f8	0e8ea593	slti	x11,x29,232	 x29:0x00000001 x11=0x00000001
       56965000	      5695	800004fc	00000c17	auipc	x24,0x0	 x24=0x800004f8
       56975000	      5696	80000500	00cc0c13	addi	x24,x24,12	 x24:0x800004f8 x24=0x80000504
       56985000	      5697	80000504	000c0067	jalr	x0,x24,0	 x24:0x80000504
       56995000	      5698	00000000	00000013	addi	x0,x0,0	  x0:0x00000000
       57005000	      5699	80000504	00000013	addi	x0,x0,0	  x0:0x00000000
       57015000	      5700	80000508	00100193	addi	x3,x0,1	  x0:0x00000000  x3=0x00000001
       57025000	      5701	8000050c	00000073	ecall	
       57035000	      5702	80000510	0012d263	bge	x5,x1,80000514	  x5:0x00000001  x1:0x00000000
