		Time			Cycle	PC		Insn	Decoded instruction	Register and memory contents
          65000	         5	80000004	00000293	addi	x5,x0,0	  x0:0x00000000  x5=0x00000000
          75000	         6	80000008	00000313	addi	x6,x0,0	  x0:0x00000000  x6=0x00000000
          85000	         7	8000000c	00628263	beq	x5,x6,80000010	  x5:0x00000000  x6:0x00000000
          95000	         8	00000000	00000013	addi	x0,x0,0	  x0:0x00000000
         105000	         9	8000000c	00000013	addi	x0,x0,0	  x0:0x00000000
         115000	        10	80000010	00000b97	auipc	x23,0x0	 x23=0x8000000c
         125000	        11	80000014	00cb8b93	addi	x23,x23,12	 x23:0x8000000c x23=0x80000018
         135000	        12	80000018	000b8067	jalr	x0,x23,0	 x23:0x80000018
         145000	        13	00000000	00000013	addi	x0,x0,0	  x0:0x00000000
         155000	        14	80000018	00000013	addi	x0,x0,0	  x0:0x00000000
         165000	        15	8000001c	40000737	lui	x14,0x40000	 x14=0x40000000
         175000	        16	80000020	10070713	addi	x14,x14,256	 x14:0x40000000 x14=0x40000100
         185000	        17	80000024	00000013	addi	x0,x0,0	  x0:0x00000000
         195000	        18	80000028	0000aa97	auipc	x21,0xa	 x21=0x8000a024
         205000	        19	8000002c	fa0a8a93	addi	x21,x21,-96	 x21:0x8000a024 x21=0x80009fc4
         215000	        20	80000030	00007717	auipc	x14,0x7	 x14=0x8000702c
         225000	        21	80000034	3c470713	addi	x14,x14,964	 x14:0x8000702c x14=0x800073f0
         235000	        22	80000038	00176713	ori	x14,x14,1	 x14:0x800073f0 x14=0x800073f1
         245000	        23	8000003c	00000013	addi	x0,x0,0	  x0:0x00000000
         255000	        24	80000040	00000717	auipc	x14,0x0	 x14=0x8000003c
         265000	        25	80000044	02070713	addi	x14,x14,32	 x14:0x8000003c x14=0x8000005c
         275000	        26	80000048	00000013	addi	x0,x0,0	  x0:0x00000000
         285000	        27	8000004c	00000013	addi	x0,x0,0	  x0:0x00000000
         295000	        28	80000050	00002737	lui	x14,0x2	 x14=0x00002000
         305000	        29	80000054	80070713	addi	x14,x14,-2048	 x14:0x00002000 x14=0x00001800
         315000	        30	80000058	00000013	addi	x0,x0,0	  x0:0x00000000
         325000	        31	8000005c	00000013	addi	x0,x0,0	  x0:0x00000000
         335000	        32	80000060	80000037	lui	x0,0x80000	
         345000	        33	80000064	00000013	addi	x0,x0,0	  x0:0x00000000
         355000	        34	80000068	800000b7	lui	x1,0x80000	  x1=0x80000000
         365000	        35	8000006c	80000137	lui	x2,0x80000	  x2=0x80000000
         375000	        36	80000070	00000193	addi	x3,x0,0	  x0:0x00000000  x3=0x00000000
         385000	        37	80000074	80000237	lui	x4,0x80000	  x4=0x80000000
         395000	        38	80000078	00000293	addi	x5,x0,0	  x0:0x00000000  x5=0x00000000
         405000	        39	8000007c	a5693337	lui	x6,0xa5693	  x6=0xa5693000
         415000	        40	80000080	97c30313	addi	x6,x6,-1668	  x6:0xa5693000  x6=0xa569297c
         425000	        41	80000084	00000393	addi	x7,x0,0	  x0:0x00000000  x7=0x00000000
         435000	        42	80000088	80d59437	lui	x8,0x80d59	  x8=0x80d59000
         445000	        43	8000008c	b1540413	addi	x8,x8,-1259	  x8:0x80d59000  x8=0x80d58b15
         455000	        44	80000090	800004b7	lui	x9,0x80000	  x9=0x80000000
         465000	        45	80000094	00000513	addi	x10,x0,0	  x0:0x00000000 x10=0x00000000
         475000	        46	80000098	2c9745b7	lui	x11,0x2c974	 x11=0x2c974000
         485000	        47	8000009c	2fc58593	addi	x11,x11,764	 x11:0x2c974000 x11=0x2c9742fc
         495000	        48	800000a0	f8f64637	lui	x12,0xf8f64	 x12=0xf8f64000
         505000	        49	800000a4	12360613	addi	x12,x12,291	 x12:0xf8f64000 x12=0xf8f64123
         515000	        50	800000a8	800006b7	lui	x13,0x80000	 x13=0x80000000
         525000	        51	800000ac	f0a3a737	lui	x14,0xf0a3a	 x14=0xf0a3a000
         535000	        52	800000b0	9f970713	addi	x14,x14,-1543	 x14:0xf0a3a000 x14=0xf0a399f9
         545000	        53	800000b4	00000793	addi	x15,x0,0	  x0:0x00000000 x15=0x00000000
         555000	        54	800000b8	80000837	lui	x16,0x80000	 x16=0x80000000
         565000	        55	800000bc	00400893	addi	x17,x0,4	  x0:0x00000000 x17=0x00000004
         575000	        56	800000c0	00700913	addi	x18,x0,7	  x0:0x00000000 x18=0x00000007
         585000	        57	800000c4	faead9b7	lui	x19,0xfaead	 x19=0xfaead000
         595000	        58	800000c8	4bf98993	addi	x19,x19,1215	 x19:0xfaead000 x19=0xfaead4bf
         605000	        59	800000cc	00e00a13	addi	x20,x0,14	  x0:0x00000000 x20=0x0000000e
         615000	        60	800000d0	f98e3b37	lui	x22,0xf98e3	 x22=0xf98e3000
         625000	        61	800000d4	9d1b0b13	addi	x22,x22,-1583	 x22:0xf98e3000 x22=0xf98e29d1
         635000	        62	800000d8	f091bbb7	lui	x23,0xf091b	 x23=0xf091b000
         645000	        63	800000dc	a4ab8b93	addi	x23,x23,-1462	 x23:0xf091b000 x23=0xf091aa4a
         655000	        64	800000e0	00a00c13	addi	x24,x0,10	  x0:0x00000000 x24=0x0000000a
         665000	        65	800000e4	00000c93	addi	x25,x0,0	  x0:0x00000000 x25=0x00000000
         675000	        66	800000e8	00000d13	addi	x26,x0,0	  x0:0x00000000 x26=0x00000000
         685000	        67	800000ec	00100d93	addi	x27,x0,1	  x0:0x00000000 x27=0x00000001
         695000	        68	800000f0	00000e93	addi	x29,x0,0	  x0:0x00000000 x29=0x00000000
         705000	        69	800000f4	00b00f13	addi	x30,x0,11	  x0:0x00000000 x30=0x0000000b
         715000	        70	800000f8	80000fb7	lui	x31,0x80000	 x31=0x80000000
         725000	        71	800000fc	0000ae17	auipc	x28,0xa	 x28=0x8000a0f8
         735000	        72	80000100	e8ce0e13	addi	x28,x28,-372	 x28:0x8000a0f8 x28=0x80009f84
         745000	        73	80000104	01e45d93	srli	x27,x8,0x1e	  x8:0x80d58b15 x27=0x00000002
         755000	        74	80000108	00001517	auipc	x10,0x1	 x10=0x80001104
         765000	        75	8000010c	47450513	addi	x10,x10,1140	 x10:0x80001104 x10=0x80001578
         775000	        76	80000110	00f09393	slli	x7,x1,0xf	  x1:0x80000000  x7=0x00000000
         785000	        77	80000114	40b48333	sub	x6,x9,x11	  x9:0x80000000 x11:0x2c9742fc  x6=0x5368bd04
         795000	        78	80000118	00ca1433	sll	x8,x20,x12	 x20:0x0000000e x12:0xf8f64123  x8=0x00000070
         805000	        79	8000011c	00000013	addi	x0,x0,0	  x0:0x00000000
         815000	        80	80000120	fbd50513	addi	x10,x10,-67	 x10:0x80001578 x10=0x80001535
         825000	        81	80000124	3d874417	auipc	x8,0x3d874	  x8=0xbd874120
         835000	        82	80000128	004dfe93	andi	x29,x27,4	 x27:0x00000002 x29=0x00000000
         845000	        83	8000012c	04350f67	jalr	x30,x10,67	 x10:0x80001535 x30=0x8000012c
         855000	        84	00000000	00000013	addi	x0,x0,0	  x0:0x00000000
         865000	        85	80001578	00000013	addi	x0,x0,0	  x0:0x00000000
         875000	        86	8000157c	01239663	bne	x7,x18,80001588	  x7:0x00000000 x18:0x00000007
         885000	        87	00000000	00000013	addi	x0,x0,0	  x0:0x00000000
         895000	        88	80001584	00000013	addi	x0,x0,0	  x0:0x00000000
         905000	        89	80001588	ff0e0e13	addi	x28,x28,-16	 x28:0x80009f84 x28=0x80009f74
         915000	        90	8000158c	01ee2223	sw	x30,4(x28)	 x28:0x80009f74 x30:0x8000012c PA:0x80009f78
         925000	        91	80001590	011866b3	or	x13,x16,x17	 x16:0x80000000 x17:0x00000004 x13=0x80000004
         935000	        92	80001594	00000013	addi	x0,x0,0	  x0:0x00000000
         945000	        93	80001598	9f164d13	xori	x26,x12,-1551	 x12:0xf8f64123 x26=0x0709b8d2
         955000	        94	8000159c	00004f17	auipc	x30,0x4	 x30=0x80005598
         965000	        95	800015a0	c64f0f13	addi	x30,x30,-924	 x30:0x80005598 x30=0x800051fc
         975000	        96	800015a4	018a1813	slli	x16,x20,0x18	 x20:0x0000000e x16=0x0e000000
         985000	        97	800015a8	013f1133	sll	x2,x30,x19	 x30:0x800051fc x19:0xfaead4bf  x2=0x00000000
         995000	        98	800015ac	00a2d393	srli	x7,x5,0xa	  x5:0x00000000  x7=0x00000000
        1005000	        99	800015b0	484db593	sltiu	x11,x27,1156	 x27:0x00000002 x11=0x00000001
        1015000	       100	800015b4	01306133	or	x2,x0,x19	  x0:0x00000000 x19:0xfaead4bf  x2=0xfaead4bf
        1025000	       101	800015b8	036f0f13	addi	x30,x30,54	 x30:0x800051fc x30=0x80005232
        1035000	       102	800015bc	01450c33	add	x24,x10,x20	 x10:0x80001535 x20:0x0000000e x24=0x80001543
        1045000	       103	800015c0	004b1663	bne	x22,x4,800015cc	 x22:0xf98e29d1  x4:0x80000000
        1055000	       104	00000000	00000013	addi	x0,x0,0	  x0:0x00000000
        1065000	       105	800015c8	00000013	addi	x0,x0,0	  x0:0x00000000
        1075000	       106	800015cc	fcaf0f67	jalr	x30,x30,-54	 x30:0x80005232 x30=0x800015cc
        1085000	       107	00000000	00000013	addi	x0,x0,0	  x0:0x00000000
        1095000	       108	800051fc	00000013	addi	x0,x0,0	  x0:0x00000000
        1105000	       109	80005200	fc4e0e13	addi	x28,x28,-60	 x28:0x80009f74 x28=0x80009f38
        1115000	       110	80005204	4140d733	sra	x14,x1,x20	  x1:0x80000000 x20:0x0000000e x14=0xfffe0000
        1125000	       111	80005208	d691c113	xori	x2,x3,-663	  x3:0x00000000  x2=0xfffffd69
        1135000	       112	8000520c	012e1c93	slli	x25,x28,0x12	 x28:0x80009f38 x25=0x7ce00000
        1145000	       113	80005210	0d938c37	lui	x24,0xd938	 x24=0x0d938000
        1155000	       114	80005214	01b6f1b3	and	x3,x13,x27	 x13:0x80000004 x27:0x00000002  x3=0x00000000
        1165000	       115	80005218	01ee2223	sw	x30,4(x28)	 x28:0x80009f38 x30:0x800015cc PA:0x80009f3c
        1175000	       116	8000521c	018c9fb3	sll	x31,x25,x24	 x25:0x7ce00000 x24:0x0d938000 x31=0x7ce00000
        1185000	       117	80005220	0ce3c5b7	lui	x11,0xce3c	 x11=0x0ce3c000
        1195000	       118	80005224	41d4d293	srai	x5,x9,0x1d	  x9:0x80000000  x5=0xfffffffc
        1205000	       119	80005228	00776c63	bltu	x14,x7,80005240	 x14:0xfffe0000  x7:0x00000000
        1215000	       120	8000522c	b2e97893	andi	x17,x18,-1234	 x18:0x00000007 x17=0x00000006
        1225000	       121	80005230	b7903193	sltiu	x3,x0,-1159	  x0:0x00000000  x3=0x00000001
        1235000	       122	80005234	41ac51b3	sra	x3,x24,x26	 x24:0x0d938000 x26:0x0709b8d2  x3=0x00000364
        1245000	       123	80005238	2710ff13	andi	x30,x1,625	  x1:0x80000000 x30=0x00000000
        1255000	       124	8000523c	00becfb3	xor	x31,x29,x11	 x29:0x00000000 x11:0x0ce3c000 x31=0x0ce3c000
        1265000	       125	80005240	fe9fef6f	jal	x30,80005240	 x30=0x80005240
        1275000	       126	00000000	00000013	addi	x0,x0,0	  x0:0x00000000
        1285000	       127	80004224	00000013	addi	x0,x0,0	  x0:0x00000000
        1295000	       128	80004228	00234263	blt	x6,x2,8000422c	  x6:0x5368bd04  x2:0xfffffd69
        1305000	       129	8000422c	fc4e0e13	addi	x28,x28,-60	 x28:0x80009f38 x28=0x80009efc
        1315000	       130	80004230	002a8533	add	x10,x21,x2	 x21:0x80009fc4  x2:0xfffffd69 x10=0x80009d2d
        1325000	       131	80004234	91c82513	slti	x10,x16,-1764	 x16:0x0e000000 x10=0x00000000
        1335000	       132	80004238	01ee2223	sw	x30,4(x28)	 x28:0x80009efc x30:0x80005240 PA:0x80009f00
        1345000	       133	8000423c	003252b3	srl	x5,x4,x3	  x4:0x80000000  x3:0x00000364  x5=0x08000000
        1355000	       134	80004240	a0cdb993	sltiu	x19,x27,-1524	 x27:0x00000002 x19=0x00000001
        1365000	       135	80004244	a4dd7c93	andi	x25,x26,-1459	 x26:0x0709b8d2 x25=0x0709b840
        1375000	       136	80004248	004b2033	slt	x0,x22,x4	 x22:0xf98e29d1  x4:0x80000000
        1385000	       137	8000424c	ffffe517	auipc	x10,0xffffe	 x10=0x80002248
        1395000	       138	80004250	47450513	addi	x10,x10,1140	 x10:0x80002248 x10=0x800026bc
        1405000	       139	80004254	36a50513	addi	x10,x10,874	 x10:0x800026bc x10=0x80002a26
        1415000	       140	80004258	00fdfc33	and	x24,x27,x15	 x27:0x00000002 x15:0x00000000 x24=0x00000000
        1425000	       141	8000425c	010c5c93	srli	x25,x24,0x10	 x24:0x00000000 x25=0x00000000
        1435000	       142	80004260	00c70663	beq	x14,x12,8000426c	 x14:0xfffe0000 x12:0xf8f64123
        1445000	       143	80004264	01d8d193	srli	x3,x17,0x1d	 x17:0x00000006  x3=0x00000000
        1455000	       144	80004268	00365313	srli	x6,x12,0x3	 x12:0xf8f64123  x6=0x1f1ec824
        1465000	       145	8000426c	c9750f67	jalr	x30,x10,-873	 x10:0x80002a26 x30=0x8000426c
        1475000	       146	00000000	00000013	addi	x0,x0,0	  x0:0x00000000
        1485000	       147	800026bc	00000013	addi	x0,x0,0	  x0:0x00000000
        1495000	       148	800026c0	01dd5cb3	srl	x25,x26,x29	 x26:0x0709b8d2 x29:0x00000000 x25=0x0709b8d2
        1505000	       149	800026c4	01abd663	bge	x23,x26,800026d0	 x23:0xf091aa4a x26:0x0709b8d2
        1515000	       150	800026c8	01069533	sll	x10,x13,x16	 x13:0x80000004 x16:0x0e000000 x10=0x80000004
        1525000	       151	800026cc	40f5d193	srai	x3,x11,0xf	 x11:0x0ce3c000  x3=0x000019c7
        1535000	       152	800026d0	ff0e0e13	addi	x28,x28,-16	 x28:0x80009efc x28=0x80009eec
        1545000	       153	800026d4	ee2a2c93	slti	x25,x20,-286	 x20:0x0000000e x25=0x00000000
        1555000	       154	800026d8	01ee2223	sw	x30,4(x28)	 x28:0x80009eec x30:0x8000426c PA:0x80009ef0
        1565000	       155	800026dc	01857833	and	x16,x10,x24	 x10:0x80000004 x24:0x00000000 x16=0x00000000
        1575000	       156	800026e0	01c99593	slli	x11,x19,0x1c	 x19:0x00000001 x11=0x10000000
        1585000	       157	800026e4	4001d213	srai	x4,x3,0x0	  x3:0x000019c7  x4=0x000019c7
        1595000	       158	800026e8	007a1d33	sll	x26,x20,x7	 x20:0x0000000e  x7:0x00000000 x26=0x0000000e
        1605000	       159	800026ec	019638b3	sltu	x17,x12,x25	 x12:0xf8f64123 x25:0x00000000 x17=0x00000000
        1615000	       160	800026f0	5b32ac13	slti	x24,x5,1459	  x5:0x08000000 x24=0x00000000
        1625000	       161	800026f4	fd6aa213	slti	x4,x21,-42	 x21:0x80009fc4  x4=0x00000001
        1635000	       162	800026f8	70e2c413	xori	x8,x5,1806	  x5:0x08000000  x8=0x0800070e
        1645000	       163	800026fc	d08c2793	slti	x15,x24,-760	 x24:0x00000000 x15=0x00000000
        1655000	       164	80002700	ac837517	auipc	x10,0xac837	 x10=0x2c8396fc
        1665000	       165	80002704	e0a24713	xori	x14,x4,-502	  x4:0x00000001 x14=0xfffffe0b
        1675000	       166	80002708	0365e663	bltu	x11,x22,80002734	 x11:0x10000000 x22:0xf98e29d1
        1685000	       167	00000000	00000013	addi	x0,x0,0	  x0:0x00000000
        1695000	       168	80002730	00000013	addi	x0,x0,0	  x0:0x00000000
        1705000	       169	80002734	6f1e7c93	andi	x25,x28,1777	 x28:0x80009eec x25=0x000006e0
        1715000	       170	80002738	58d4ce97	auipc	x29,0x58d4c	 x29=0xd8d4e734
        1725000	       171	8000273c	d521ca13	xori	x20,x3,-686	  x3:0x000019c7 x20=0xffffe495
        1735000	       172	80002740	8254d937	lui	x18,0x8254d	 x18=0x8254d000
        1745000	       173	80002744	00093233	sltu	x4,x18,x0	 x18:0x8254d000  x0:0x00000000  x4=0x00000000
        1755000	       174	80002748	0100e233	or	x4,x1,x16	  x1:0x80000000 x16:0x00000000  x4=0x80000000
        1765000	       175	8000274c	017c2633	slt	x12,x24,x23	 x24:0x00000000 x23:0xf091aa4a x12=0x00000000
        1775000	       176	80002750	80652637	lui	x12,0x80652	 x12=0x80652000
        1785000	       177	80002754	011b6263	bltu	x22,x17,80002758	 x22:0xf98e29d1 x17:0x00000000
        1795000	       178	80002758	003f3c93	sltiu	x25,x30,3	 x30:0x8000426c x25=0x00000000
        1805000	       179	8000275c	f9bea613	slti	x12,x29,-101	 x29:0xd8d4e734 x12=0x00000001
        1815000	       180	80002760	004e2f03	lw	x30,4(x28)	 x28:0x80009eec x30=0x8000426c PA:0x80009ef0
        1825000	       181	80002764	0049f0b3	and	x1,x19,x4	 x19:0x00000001  x4:0x80000000  x1=0x00000000
        1835000	       182	80002768	010e0e13	addi	x28,x28,16	 x28:0x80009eec x28=0x80009efc
        1845000	       183	8000276c	40cf5193	srai	x3,x30,0xc	 x30:0x8000426c  x3=0xfff80004
        1855000	       184	80002770	000f0c93	addi	x25,x30,0	 x30:0x8000426c x25=0x8000426c
        1865000	       185	80002774	000c8ce7	jalr	x25,x25,0	 x25:0x8000426c x25=0x80002774
        1875000	       186	00000000	00000013	addi	x0,x0,0	  x0:0x00000000
        1885000	       187	8000426c	00000013	addi	x0,x0,0	  x0:0x00000000
        1895000	       188	80004270	00915713	srli	x14,x2,0x9	  x2:0xfffffd69 x14=0x007ffffe
        1905000	       189	80004274	56086393	ori	x7,x16,1376	 x16:0x00000000  x7=0x00000560
        1915000	       190	80004278	01e6cdb3	xor	x27,x13,x30	 x13:0x80000004 x30:0x8000426c x27=0x00004268
        1925000	       191	8000427c	0026d9b3	srl	x19,x13,x2	 x13:0x80000004  x2:0xfffffd69 x19=0x00400000
        1935000	       192	80004280	00e09663	bne	x1,x14,8000428c	  x1:0x00000000 x14:0x007ffffe
        1945000	       193	00000000	00000013	addi	x0,x0,0	  x0:0x00000000
        1955000	       194	80004288	00000013	addi	x0,x0,0	  x0:0x00000000
        1965000	       195	8000428c	c34fef6f	jal	x30,8000428c	 x30=0x8000428c
        1975000	       196	00000000	00000013	addi	x0,x0,0	  x0:0x00000000
        1985000	       197	800026bc	00000013	addi	x0,x0,0	  x0:0x00000000
        1995000	       198	800026c0	01dd5cb3	srl	x25,x26,x29	 x26:0x0000000e x29:0xd8d4e734 x25=0x00000000
        2005000	       199	800026c4	01abd663	bge	x23,x26,800026d0	 x23:0xf091aa4a x26:0x0000000e
        2015000	       200	800026c8	01069533	sll	x10,x13,x16	 x13:0x80000004 x16:0x00000000 x10=0x80000004
        2025000	       201	800026cc	40f5d193	srai	x3,x11,0xf	 x11:0x10000000  x3=0x00002000
        2035000	       202	800026d0	ff0e0e13	addi	x28,x28,-16	 x28:0x80009efc x28=0x80009eec
        2045000	       203	800026d4	ee2a2c93	slti	x25,x20,-286	 x20:0xffffe495 x25=0x00000001
        2055000	       204	800026d8	01ee2223	sw	x30,4(x28)	 x28:0x80009eec x30:0x8000428c PA:0x80009ef0
        2065000	       205	800026dc	01857833	and	x16,x10,x24	 x10:0x80000004 x24:0x00000000 x16=0x00000000
        2075000	       206	800026e0	01c99593	slli	x11,x19,0x1c	 x19:0x00400000 x11=0x00000000
        2085000	       207	800026e4	4001d213	srai	x4,x3,0x0	  x3:0x00002000  x4=0x00002000
        2095000	       208	800026e8	007a1d33	sll	x26,x20,x7	 x20:0xffffe495  x7:0x00000560 x26=0xffffe495
        2105000	       209	800026ec	019638b3	sltu	x17,x12,x25	 x12:0x00000001 x25:0x00000001 x17=0x00000000
        2115000	       210	800026f0	5b32ac13	slti	x24,x5,1459	  x5:0x08000000 x24=0x00000000
        2125000	       211	800026f4	fd6aa213	slti	x4,x21,-42	 x21:0x80009fc4  x4=0x00000001
        2135000	       212	800026f8	70e2c413	xori	x8,x5,1806	  x5:0x08000000  x8=0x0800070e
        2145000	       213	800026fc	d08c2793	slti	x15,x24,-760	 x24:0x00000000 x15=0x00000000
        2155000	       214	80002700	ac837517	auipc	x10,0xac837	 x10=0x2c8396fc
        2165000	       215	80002704	e0a24713	xori	x14,x4,-502	  x4:0x00000001 x14=0xfffffe0b
        2175000	       216	80002708	0365e663	bltu	x11,x22,80002734	 x11:0x00000000 x22:0xf98e29d1
        2185000	       217	00000000	00000013	addi	x0,x0,0	  x0:0x00000000
        2195000	       218	80002730	00000013	addi	x0,x0,0	  x0:0x00000000
        2205000	       219	80002734	6f1e7c93	andi	x25,x28,1777	 x28:0x80009eec x25=0x000006e0
        2215000	       220	80002738	58d4ce97	auipc	x29,0x58d4c	 x29=0xd8d4e734
        2225000	       221	8000273c	d521ca13	xori	x20,x3,-686	  x3:0x00002000 x20=0xffffdd52
        2235000	       222	80002740	8254d937	lui	x18,0x8254d	 x18=0x8254d000
        2245000	       223	80002744	00093233	sltu	x4,x18,x0	 x18:0x8254d000  x0:0x00000000  x4=0x00000000
        2255000	       224	80002748	0100e233	or	x4,x1,x16	  x1:0x00000000 x16:0x00000000  x4=0x00000000
        2265000	       225	8000274c	017c2633	slt	x12,x24,x23	 x24:0x00000000 x23:0xf091aa4a x12=0x00000000
        2275000	       226	80002750	80652637	lui	x12,0x80652	 x12=0x80652000
        2285000	       227	80002754	011b6263	bltu	x22,x17,80002758	 x22:0xf98e29d1 x17:0x00000000
        2295000	       228	80002758	003f3c93	sltiu	x25,x30,3	 x30:0x8000428c x25=0x00000000
        2305000	       229	8000275c	f9bea613	slti	x12,x29,-101	 x29:0xd8d4e734 x12=0x00000001
        2315000	       230	80002760	004e2f03	lw	x30,4(x28)	 x28:0x80009eec x30=0x8000428c PA:0x80009ef0
        2325000	       231	80002764	0049f0b3	and	x1,x19,x4	 x19:0x00400000  x4:0x00000000  x1=0x00000000
        2335000	       232	80002768	010e0e13	addi	x28,x28,16	 x28:0x80009eec x28=0x80009efc
        2345000	       233	8000276c	40cf5193	srai	x3,x30,0xc	 x30:0x8000428c  x3=0xfff80004
        2355000	       234	80002770	000f0c93	addi	x25,x30,0	 x30:0x8000428c x25=0x8000428c
        2365000	       235	80002774	000c8ce7	jalr	x25,x25,0	 x25:0x8000428c x25=0x80002774
        2375000	       236	00000000	00000013	addi	x0,x0,0	  x0:0x00000000
        2385000	       237	8000428c	00000013	addi	x0,x0,0	  x0:0x00000000
        2395000	       238	80004290	b4653d93	sltiu	x27,x10,-1210	 x10:0x2c8396fc x27=0x00000001
        2405000	       239	80004294	01731333	sll	x6,x6,x23	  x6:0x1f1ec824 x23:0xf091aa4a  x6=0x7b209000
        2415000	       240	80004298	01d86863	bltu	x16,x29,800042a8	 x16:0x00000000 x29:0xd8d4e734
        2425000	       241	00000000	00000013	addi	x0,x0,0	  x0:0x00000000
        2435000	       242	800042a4	00000013	addi	x0,x0,0	  x0:0x00000000
        2445000	       243	800042a8	cfcfdf6f	jal	x30,800042a8	 x30=0x800042a8
        2455000	       244	00000000	00000013	addi	x0,x0,0	  x0:0x00000000
        2465000	       245	800017a0	00000013	addi	x0,x0,0	  x0:0x00000000
        2475000	       246	800017a4	00000013	addi	x0,x0,0	  x0:0x00000000
        2485000	       247	800017a8	01642633	slt	x12,x8,x22	  x8:0x0800070e x22:0xf98e29d1 x12=0x00000000
        2495000	       248	800017ac	fe4e0e13	addi	x28,x28,-28	 x28:0x80009efc x28=0x80009ee0
        2505000	       249	800017b0	402b5b33	sra	x22,x22,x2	 x22:0xf98e29d1  x2:0xfffffd69 x22=0xfffcc714
        2515000	       250	800017b4	00b50c33	add	x24,x10,x11	 x10:0x2c8396fc x11:0x00000000 x24=0x2c8396fc
        2525000	       251	800017b8	77129437	lui	x8,0x77129	  x8=0x77129000
        2535000	       252	800017bc	01ee2223	sw	x30,4(x28)	 x28:0x80009ee0 x30:0x800042a8 PA:0x80009ee4
        2545000	       253	800017c0	f4605237	lui	x4,0xf4605	  x4=0xf4605000
        2555000	       254	800017c4	00aba1b3	slt	x3,x23,x10	 x23:0xf091aa4a x10:0x2c8396fc  x3=0x00000001
        2565000	       255	800017c8	00c34c33	xor	x24,x6,x12	  x6:0x7b209000 x12:0x00000000 x24=0x7b209000
        2575000	       256	800017cc	e520be93	sltiu	x29,x1,-430	  x1:0x00000000 x29=0x00000001
        2585000	       257	800017d0	00fcd293	srli	x5,x25,0xf	 x25:0x80002774  x5=0x00010000
        2595000	       258	800017d4	00007d17	auipc	x26,0x7	 x26=0x800087d0
        2605000	       259	800017d8	d15d0d13	addi	x26,x26,-747	 x26:0x800087d0 x26=0x800084e5
        2615000	       260	800017dc	01e0f0b3	and	x1,x1,x30	  x1:0x00000000 x30:0x800042a8  x1=0x00000000
        2625000	       261	800017e0	00ba9993	slli	x19,x21,0xb	 x21:0x80009fc4 x19=0x04fe2000
        2635000	       262	800017e4	f57d1a03	lh	x20,-169(x26)	 x26:0x800084e5 x20=0x00000000 PA:0x8000843c
        2645000	       263	800017e8	00076333	or	x6,x14,x0	 x14:0xfffffe0b  x0:0x00000000  x6=0xfffffe0b
        2655000	       264	800017ec	c8a8e013	ori	x0,x17,-886	 x17:0x00000000
        2665000	       265	800017f0	1fdd4e93	xori	x29,x26,509	 x26:0x800084e5 x29=0x80008518
        2675000	       266	800017f4	f4ed9437	lui	x8,0xf4ed9	  x8=0xf4ed9000
        2685000	       267	800017f8	018f5293	srli	x5,x30,0x18	 x30:0x800042a8  x5=0x00000080
        2695000	       268	800017fc	9b1a8117	auipc	x2,0x9b1a8	  x2=0x1b1a97f8
        2705000	       269	80001800	a09e8913	addi	x18,x29,-1527	 x29:0x80008518 x18=0x80007f21
        2715000	       270	80001804	feed0ea3	sb	x14,-3(x26)	 x26:0x800084e5 x14:0xfffffe0b PA:0x800084e2
        2725000	       271	80001808	0110b4b3	sltu	x9,x1,x17	  x1:0x00000000 x17:0x00000000  x9=0x00000000
        2735000	       272	8000180c	0fbd0723	sb	x27,238(x26)	 x26:0x800084e5 x27:0x00000001 PA:0x800085d3
        2745000	       273	80001810	003df9b3	and	x19,x27,x3	 x27:0x00000001  x3:0x00000001 x19=0x00000001
        2755000	       274	80001814	047d03a3	sb	x7,71(x26)	 x26:0x800084e5  x7:0x00000560 PA:0x8000852c
        2765000	       275	80001818	d0852093	slti	x1,x10,-760	 x10:0x2c8396fc  x1=0x00000000
        2775000	       276	8000181c	0c0d4303	lbu	x6,192(x26)	 x26:0x800084e5  x6=0x00000000 PA:0x800085a5
        2785000	       277	00000000	00000013	addi	x0,x0,0	  x0:0x00000000
        2795000	       278	80001820	00699633	sll	x12,x19,x6	 x19:0x00000001  x6:0x00000000 x12=0x00000001
        2805000	       279	80001824	0cfd0c23	sb	x15,216(x26)	 x26:0x800084e5 x15:0x00000000 PA:0x800085bd
        2815000	       280	80001828	d4d12693	slti	x13,x2,-691	  x2:0x1b1a97f8 x13=0x00000000
        2825000	       281	8000182c	0d5d5783	lhu	x15,213(x26)	 x26:0x800084e5 x15=0x00000000 PA:0x800085ba
        2835000	       282	80001830	88e66093	ori	x1,x12,-1906	 x12:0x00000001  x1=0xfffff88f
        2845000	       283	80001834	00000013	addi	x0,x0,0	  x0:0x00000000
        2855000	       284	80001838	078d0283	lb	x5,120(x26)	 x26:0x800084e5  x5=0x00000000 PA:0x8000855d
        2865000	       285	8000183c	977e3c13	sltiu	x24,x28,-1673	 x28:0x80009ee0 x24=0x00000001
        2875000	       286	80001840	046d4483	lbu	x9,70(x26)	 x26:0x800084e5  x9=0x00000000 PA:0x8000852b
        2885000	       287	80001844	00000013	addi	x0,x0,0	  x0:0x00000000
        2895000	       288	80001848	02dd0a23	sb	x13,52(x26)	 x26:0x800084e5 x13:0x00000000 PA:0x80008519
        2905000	       289	8000184c	073d2c03	lw	x24,115(x26)	 x26:0x800084e5 x24=0x00000000 PA:0x80008558
        2915000	       290	80001850	0abd5103	lhu	x2,171(x26)	 x26:0x800084e5  x2=0x00000000 PA:0x80008590
        2925000	       291	80001854	01c67533	and	x10,x12,x28	 x12:0x00000001 x28:0x80009ee0 x10=0x00000000
        2935000	       292	80001858	006cb333	sltu	x6,x25,x6	 x25:0x80002774  x6:0x00000000  x6=0x00000000
        2945000	       293	8000185c	c799eb13	ori	x22,x19,-903	 x19:0x00000001 x22=0xfffffc79
        2955000	       294	80001860	fa7d5603	lhu	x12,-89(x26)	 x26:0x800084e5 x12=0x00000000 PA:0x8000848c
        2965000	       295	80001864	0184d833	srl	x16,x9,x24	  x9:0x00000000 x24:0x00000000 x16=0x00000000
        2975000	       296	80001868	f3ed09a3	sb	x30,-205(x26)	 x26:0x800084e5 x30:0x800042a8 PA:0x80008418
        2985000	       297	8000186c	87b8d5b7	lui	x11,0x87b8d	 x11=0x87b8d000
        2995000	       298	80001870	050d4903	lbu	x18,80(x26)	 x26:0x800084e5 x18=0x00000000 PA:0x80008535
        3005000	       299	80001874	f79d07a3	sb	x25,-145(x26)	 x26:0x800084e5 x25:0x80002774 PA:0x80008454
        3015000	       300	80001878	41dd87b3	sub	x15,x27,x29	 x27:0x00000001 x29:0x80008518 x15=0x7fff7ae9
        3025000	       301	8000187c	bbcf6593	ori	x11,x30,-1092	 x30:0x800042a8 x11=0xfffffbbc
        3035000	       302	80001880	f14d4383	lbu	x7,-236(x26)	 x26:0x800084e5  x7=0x00000000 PA:0x800083f9
        3045000	       303	80001884	f46d4703	lbu	x14,-186(x26)	 x26:0x800084e5 x14=0x00000000 PA:0x8000842b
        3055000	       304	80001888	40f30733	sub	x14,x6,x15	  x6:0x00000000 x15:0x7fff7ae9 x14=0x80008517
        3065000	       305	8000188c	0156ac33	slt	x24,x13,x21	 x13:0x00000000 x21:0x80009fc4 x24=0x00000000
        3075000	       306	80001890	14c42813	slti	x16,x8,332	  x8:0xf4ed9000 x16=0x00000001
        3085000	       307	80001894	fd8d4903	lbu	x18,-40(x26)	 x26:0x800084e5 x18=0x00000000 PA:0x800084bd
        3095000	       308	80001898	01fa4633	xor	x12,x20,x31	 x20:0x00000000 x31:0x0ce3c000 x12=0x0ce3c000
        3105000	       309	8000189c	22f13f13	sltiu	x30,x2,559	  x2:0x00000000 x30=0x00000001
        3115000	       310	800018a0	f76d29a3	sw	x22,-141(x26)	 x26:0x800084e5 x22:0xfffffc79 PA:0x80008458
        3125000	       311	800018a4	00007117	auipc	x2,0x7	  x2=0x800088a0
        3135000	       312	800018a8	e1b10113	addi	x2,x2,-485	  x2:0x800088a0  x2=0x800086bb
        3145000	       313	800018ac	3f0fb193	sltiu	x3,x31,1008	 x31:0x0ce3c000  x3=0x00000000
        3155000	       314	800018b0	7a6dec37	lui	x24,0x7a6de	 x24=0x7a6de000
        3165000	       315	800018b4	fd410403	lb	x8,-44(x2)	  x2:0x800086bb  x8=0x00000000 PA:0x8000868f
        3175000	       316	800018b8	4152ddb3	sra	x27,x5,x21	  x5:0x00000000 x21:0x80009fc4 x27=0x00000000
        3185000	       317	800018bc	0179d213	srli	x4,x19,0x17	 x19:0x00000001  x4=0x00000000
        3195000	       318	800018c0	41225293	srai	x5,x4,0x12	  x4:0x00000000  x5=0x00000000
        3205000	       319	800018c4	00ebc7b3	xor	x15,x23,x14	 x23:0xf091aa4a x14:0x80008517 x15=0x70912f5d
        3215000	       320	800018c8	40415233	sra	x4,x2,x4	  x2:0x800086bb  x4:0x00000000  x4=0x800086bb
        3225000	       321	800018cc	00cab8b3	sltu	x17,x21,x12	 x21:0x80009fc4 x12:0x0ce3c000 x17=0x00000000
        3235000	       322	800018d0	01a14403	lbu	x8,26(x2)	  x2:0x800086bb  x8=0x00000000 PA:0x800086d5
        3245000	       323	800018d4	0004f733	and	x14,x9,x0	  x9:0x00000000  x0:0x00000000 x14=0x00000000
        3255000	       324	800018d8	001e22b3	slt	x5,x28,x1	 x28:0x80009ee0  x1:0xfffff88f  x5=0x00000001
        3265000	       325	800018dc	01aa9613	slli	x12,x21,0x1a	 x21:0x80009fc4 x12=0x10000000
        3275000	       326	800018e0	f4c14483	lbu	x9,-180(x2)	  x2:0x800086bb  x9=0x00000000 PA:0x80008607
        3285000	       327	800018e4	1d8ef313	andi	x6,x29,472	 x29:0x80008518  x6=0x00000118
        3295000	       328	800018e8	90dc2a17	auipc	x20,0x90dc2	 x20=0x10dc38e4
        3305000	       329	800018ec	016a5293	srli	x5,x20,0x16	 x20:0x10dc38e4  x5=0x00000043
        3315000	       330	800018f0	f9a10483	lb	x9,-102(x2)	  x2:0x800086bb  x9=0x00000000 PA:0x80008655
        3325000	       331	800018f4	f6114d03	lbu	x26,-159(x2)	  x2:0x800086bb x26=0x00000000 PA:0x8000861c
        3335000	       332	800018f8	f4010623	sb	x0,-180(x2)	  x2:0x800086bb  x0:0x00000000 PA:0x80008607
        3345000	       333	800018fc	bc652d93	slti	x27,x10,-1082	 x10:0x00000000 x27=0x00000000
        3355000	       334	80001900	05d12983	lw	x19,93(x2)	  x2:0x800086bb x19=0x00000000 PA:0x80008718
        3365000	       335	80001904	7fdecd13	xori	x26,x29,2045	 x29:0x80008518 x26=0x800082e5
        3375000	       336	80001908	51bf3c13	sltiu	x24,x30,1307	 x30:0x00000001 x24=0x00000001
        3385000	       337	8000190c	1ddf0713	addi	x14,x30,477	 x30:0x00000001 x14=0x000001de
        3395000	       338	80001910	08210823	sb	x2,144(x2)	  x2:0x800086bb  x2:0x800086bb PA:0x8000874b
        3405000	       339	80001914	37f66897	auipc	x17,0x37f66	 x17=0xb7f67910
        3415000	       340	80001918	37198913	addi	x18,x19,881	 x19:0x00000000 x18=0x00000371
        3425000	       341	8000191c	f6012aa3	sw	x0,-139(x2)	  x2:0x800086bb  x0:0x00000000 PA:0x80008630
        3435000	       342	80001920	f9610383	lb	x7,-106(x2)	  x2:0x800086bb  x7=0x00000000 PA:0x80008651
        3445000	       343	80001924	06014c83	lbu	x25,96(x2)	  x2:0x800086bb x25=0x00000000 PA:0x8000871b
        3455000	       344	80001928	fb214383	lbu	x7,-78(x2)	  x2:0x800086bb  x7=0x00000000 PA:0x8000866d
        3465000	       345	8000192c	fc810f83	lb	x31,-56(x2)	  x2:0x800086bb x31=0x00000000 PA:0x80008683
        3475000	       346	80001930	fd3113a3	sh	x19,-57(x2)	  x2:0x800086bb x19:0x00000000 PA:0x80008682
        3485000	       347	80001934	0ae110a3	sh	x14,161(x2)	  x2:0x800086bb x14:0x000001de PA:0x8000875c
        3495000	       348	80001938	fce14d03	lbu	x26,-50(x2)	  x2:0x800086bb x26=0x00000000 PA:0x80008689
        3505000	       349	8000193c	f6610083	lb	x1,-154(x2)	  x2:0x800086bb  x1=0x00000000 PA:0x80008621
        3515000	       350	80001940	00007117	auipc	x2,0x7	  x2=0x8000893c
        3525000	       351	80001944	b2d10113	addi	x2,x2,-1235	  x2:0x8000893c  x2=0x80008469
        3535000	       352	80001948	00b15c03	lhu	x24,11(x2)	  x2:0x80008469 x24=0x00000000 PA:0x80008474
        3545000	       353	8000194c	fef119a3	sh	x15,-13(x2)	  x2:0x80008469 x15:0x70912f5d PA:0x8000845c
        3555000	       354	80001950	01f89fb3	sll	x31,x17,x31	 x17:0xb7f67910 x31:0x00000000 x31=0xb7f67910
        3565000	       355	80001954	01f10123	sb	x31,2(x2)	  x2:0x80008469 x31:0xb7f67910 PA:0x8000846b
        3575000	       356	80001958	ff514803	lbu	x16,-11(x2)	  x2:0x80008469 x16=0x00000000 PA:0x8000845e
        3585000	       357	8000195c	01c619b3	sll	x19,x12,x28	 x12:0x10000000 x28:0x80009ee0 x19=0x10000000
        3595000	       358	80001960	00a35593	srli	x11,x6,0xa	  x6:0x00000118 x11=0x00000000
        3605000	       359	80001964	fec10c23	sb	x12,-8(x2)	  x2:0x80008469 x12:0x10000000 PA:0x80008461
        3615000	       360	80001968	ff110d23	sb	x17,-6(x2)	  x2:0x80008469 x17:0xb7f67910 PA:0x80008463
        3625000	       361	8000196c	016f91b3	sll	x3,x31,x22	 x31:0xb7f67910 x22:0xfffffc79  x3=0x20000000
        3635000	       362	80001970	b41f3c13	sltiu	x24,x30,-1215	 x30:0x00000001 x24=0x00000001
        3645000	       363	80001974	01065433	srl	x8,x12,x16	 x12:0x10000000 x16:0x00000000  x8=0x10000000
        3655000	       364	80001978	1a027a13	andi	x20,x4,416	  x4:0x800086bb x20=0x000000a0
        3665000	       365	8000197c	00d10883	lb	x17,13(x2)	  x2:0x80008469 x17=0x00000000 PA:0x80008476
        3675000	       366	80001980	00010383	lb	x7,0(x2)	  x2:0x80008469  x7=0x00000000 PA:0x80008469
        3685000	       367	80001984	ff510923	sb	x21,-14(x2)	  x2:0x80008469 x21:0x80009fc4 PA:0x8000845b
        3695000	       368	80001988	00610583	lb	x11,6(x2)	  x2:0x80008469 x11=0x00000000 PA:0x8000846f
        3705000	       369	8000198c	ff810503	lb	x10,-8(x2)	  x2:0x80008469 x10=0x00000000 PA:0x80008461
        3715000	       370	80001990	00610c83	lb	x25,6(x2)	  x2:0x80008469 x25=0x00000000 PA:0x8000846f
        3725000	       371	80001994	00214803	lbu	x16,2(x2)	  x2:0x80008469 x16=0x00000010 PA:0x8000846b
        3735000	       372	80001998	00515703	lhu	x14,5(x2)	  x2:0x80008469 x14=0x00000000 PA:0x8000846e
        3745000	       373	8000199c	00111703	lh	x14,1(x2)	  x2:0x80008469 x14=0x00001000 PA:0x8000846a
        3755000	       374	800019a0	00c10323	sb	x12,6(x2)	  x2:0x80008469 x12:0x10000000 PA:0x8000846f
        3765000	       375	800019a4	00b10023	sb	x11,0(x2)	  x2:0x80008469 x11:0x00000000 PA:0x80008469
        3775000	       376	800019a8	00315803	lhu	x16,3(x2)	  x2:0x80008469 x16=0x00000000 PA:0x8000846c
        3785000	       377	800019ac	01f10823	sb	x31,16(x2)	  x2:0x80008469 x31:0xb7f67910 PA:0x80008479
        3795000	       378	800019b0	04dbe397	auipc	x7,0x4dbe	  x7=0x84dbf9ac
        3805000	       379	800019b4	007d38b3	sltu	x17,x26,x7	 x26:0x00000000  x7:0x84dbf9ac x17=0x00000001
        3815000	       380	800019b8	3e2a6813	ori	x16,x20,994	 x20:0x000000a0 x16=0x000003e2
        3825000	       381	800019bc	01a10823	sb	x26,16(x2)	  x2:0x80008469 x26:0x00000000 PA:0x80008479
        3835000	       382	800019c0	ffc14f83	lbu	x31,-4(x2)	  x2:0x80008469 x31=0x00000000 PA:0x80008465
        3845000	       383	800019c4	00a10723	sb	x10,14(x2)	  x2:0x80008469 x10:0x00000000 PA:0x80008477
        3855000	       384	800019c8	0057ef33	or	x30,x15,x5	 x15:0x70912f5d  x5:0x00000043 x30=0x70912f5f
        3865000	       385	800019cc	ffc14703	lbu	x14,-4(x2)	  x2:0x80008469 x14=0x00000000 PA:0x80008465
        3875000	       386	800019d0	010c65b3	or	x11,x24,x16	 x24:0x00000001 x16:0x000003e2 x11=0x000003e3
        3885000	       387	800019d4	fe310823	sb	x3,-16(x2)	  x2:0x80008469  x3:0x20000000 PA:0x80008459
        3895000	       388	800019d8	00914903	lbu	x18,9(x2)	  x2:0x80008469 x18=0x00000000 PA:0x80008472
        3905000	       389	800019dc	00710523	sb	x7,10(x2)	  x2:0x80008469  x7:0x84dbf9ac PA:0x80008473
        3915000	       390	800019e0	004116a3	sh	x4,13(x2)	  x2:0x80008469  x4:0x800086bb PA:0x80008476
        3925000	       391	800019e4	ff810ca3	sb	x24,-7(x2)	  x2:0x80008469 x24:0x00000001 PA:0x80008462
        3935000	       392	800019e8	00006117	auipc	x2,0x6	  x2=0x800079e4
        3945000	       393	800019ec	7b610113	addi	x2,x2,1974	  x2:0x800079e4  x2=0x8000819a
        3955000	       394	800019f0	001fecb3	or	x25,x31,x1	 x31:0x00000000  x1:0x00000000 x25=0x00000000
        3965000	       395	800019f4	03610ca3	sb	x22,57(x2)	  x2:0x8000819a x22:0xfffffc79 PA:0x800081d3
        3975000	       396	800019f8	1f0b3293	sltiu	x5,x22,496	 x22:0xfffffc79  x5=0x00000000
        3985000	       397	800019fc	00f9beb3	sltu	x29,x19,x15	 x19:0x10000000 x15:0x70912f5d x29=0x00000001
        3995000	       398	80001a00	9738ed37	lui	x26,0x9738e	 x26=0x9738e000
        4005000	       399	80001a04	fe810483	lb	x9,-24(x2)	  x2:0x8000819a  x9=0x00000000 PA:0x80008182
        4015000	       400	80001a08	00f993b3	sll	x7,x19,x15	 x19:0x10000000 x15:0x70912f5d  x7=0x00000000
        4025000	       401	80001a0c	ffd10183	lb	x3,-3(x2)	  x2:0x8000819a  x3=0x00000000 PA:0x80008197
        4035000	       402	80001a10	01c60eb3	add	x29,x12,x28	 x12:0x10000000 x28:0x80009ee0 x29=0x90009ee0
        4045000	       403	80001a14	40a35833	sra	x16,x6,x10	  x6:0x00000118 x10:0x00000000 x16=0x00000118
        4055000	       404	80001a18	02e15083	lhu	x1,46(x2)	  x2:0x8000819a  x1=0x00000000 PA:0x800081c8
        4065000	       405	80001a1c	0021f233	and	x4,x3,x2	  x3:0x00000000  x2:0x8000819a  x4=0x00000000
        4075000	       406	80001a20	f6ca8393	addi	x7,x21,-148	 x21:0x80009fc4  x7=0x80009f30
        4085000	       407	80001a24	03510e83	lb	x29,53(x2)	  x2:0x8000819a x29=0x00000000 PA:0x800081cf
        4095000	       408	80001a28	01e15083	lhu	x1,30(x2)	  x2:0x8000819a  x1=0x00000000 PA:0x800081b8
        4105000	       409	80001a2c	ffa5d0b7	lui	x1,0xffa5d	  x1=0xffa5d000
        4115000	       410	80001a30	00215c03	lhu	x24,2(x2)	  x2:0x8000819a x24=0x00000000 PA:0x8000819c
        4125000	       411	80001a34	01f60333	add	x6,x12,x31	 x12:0x10000000 x31:0x00000000  x6=0x10000000
        4135000	       412	80001a38	e7efab13	slti	x22,x31,-386	 x31:0x00000000 x22=0x00000000
        4145000	       413	80001a3c	02714c83	lbu	x25,39(x2)	  x2:0x8000819a x25=0x00000000 PA:0x800081c1
        4155000	       414	80001a40	01690a33	add	x20,x18,x22	 x18:0x00000000 x22:0x00000000 x20=0x00000000
        4165000	       415	80001a44	01ff78b3	and	x17,x30,x31	 x30:0x70912f5f x31:0x00000000 x17=0x00000000
        4175000	       416	80001a48	03d14283	lbu	x5,61(x2)	  x2:0x8000819a  x5=0x00000000 PA:0x800081d7
        4185000	       417	80001a4c	00cf1793	slli	x15,x30,0xc	 x30:0x70912f5f x15=0x12f5f000
        4195000	       418	80001a50	01b39cb3	sll	x25,x7,x27	  x7:0x80009f30 x27:0x00000000 x25=0x80009f30
        4205000	       419	80001a54	ff810fa3	sb	x24,-1(x2)	  x2:0x8000819a x24:0x00000000 PA:0x80008199
        4215000	       420	80001a58	03f10083	lb	x1,63(x2)	  x2:0x8000819a  x1=0x00000000 PA:0x800081d9
        4225000	       421	80001a5c	1b86c513	xori	x10,x13,440	 x13:0x00000000 x10=0x000001b8
        4235000	       422	80001a60	03811c03	lh	x24,56(x2)	  x2:0x8000819a x24=0x00007900 PA:0x800081d2
        4245000	       423	80001a64	03a12883	lw	x17,58(x2)	  x2:0x8000819a x17=0x00000000 PA:0x800081d4
        4255000	       424	80001a68	00a377b3	and	x15,x6,x10	  x6:0x10000000 x10:0x000001b8 x15=0x00000000
        4265000	       425	80001a6c	ff314e83	lbu	x29,-13(x2)	  x2:0x8000819a x29=0x00000000 PA:0x8000818d
        4275000	       426	80001a70	01b12123	sw	x27,2(x2)	  x2:0x8000819a x27:0x00000000 PA:0x8000819c
        4285000	       427	80001a74	00211703	lh	x14,2(x2)	  x2:0x8000819a x14=0x00000000 PA:0x8000819c
        4295000	       428	80001a78	ff815183	lhu	x3,-8(x2)	  x2:0x8000819a  x3=0x00000000 PA:0x80008192
        4305000	       429	80001a7c	04011183	lh	x3,64(x2)	  x2:0x8000819a  x3=0x00000000 PA:0x800081da
        4315000	       430	80001a80	01dc65b3	or	x11,x24,x29	 x24:0x00007900 x29:0x00000000 x11=0x00007900
        4325000	       431	80001a84	99faa293	slti	x5,x21,-1633	 x21:0x80009fc4  x5=0x00000001
        4335000	       432	80001a88	fd811723	sh	x24,-50(x2)	  x2:0x8000819a x24:0x00007900 PA:0x80008168
        4345000	       433	80001a8c	ff910e83	lb	x29,-7(x2)	  x2:0x8000819a x29=0x00000000 PA:0x80008193
        4355000	       434	80001a90	fd910aa3	sb	x25,-43(x2)	  x2:0x8000819a x25:0x80009f30 PA:0x8000816f
        4365000	       435	80001a94	fe110623	sb	x1,-20(x2)	  x2:0x8000819a  x1:0x00000000 PA:0x80008186
        4375000	       436	80001a98	03914383	lbu	x7,57(x2)	  x2:0x8000819a  x7=0x00000079 PA:0x800081d3
        4385000	       437	80001a9c	04010783	lb	x15,64(x2)	  x2:0x8000819a x15=0x00000000 PA:0x800081da
        4395000	       438	80001aa0	fd014783	lbu	x15,-48(x2)	  x2:0x8000819a x15=0x00000000 PA:0x8000816a
        4405000	       439	80001aa4	00000013	addi	x0,x0,0	  x0:0x00000000
        4415000	       440	80001aa8	001767b3	or	x15,x14,x1	 x14:0x00000000  x1:0x00000000 x15=0x00000000
        4425000	       441	80001aac	36cdac17	auipc	x24,0x36cda	 x24=0xb6cdbaa8
        4435000	       442	80001ab0	fe156d93	ori	x27,x10,-31	 x10:0x000001b8 x27=0xfffffff9
        4445000	       443	80001ab4	416fdc93	srai	x25,x31,0x16	 x31:0x00000000 x25=0x00000000
        4455000	       444	80001ab8	17c3c013	xori	x0,x7,380	  x7:0x00000079
        4465000	       445	80001abc	752ff017	auipc	x0,0x752ff	
        4475000	       446	80001ac0	dd502a13	slti	x20,x0,-555	  x0:0x00000000 x20=0x00000000
        4485000	       447	80001ac4	b2e6f493	andi	x9,x13,-1234	 x13:0x00000000  x9=0x00000000
        4495000	       448	80001ac8	026f4663	blt	x30,x6,80001af4	 x30:0x70912f5f  x6:0x10000000
        4505000	       449	80001acc	773c68b7	lui	x17,0x773c6	 x17=0x773c6000
        4515000	       450	80001ad0	02760663	beq	x12,x7,80001afc	 x12:0x10000000  x7:0x00000079
        4525000	       451	80001ad4	00fe21b3	slt	x3,x28,x15	 x28:0x80009ee0 x15:0x00000000  x3=0x00000001
        4535000	       452	80001ad8	e69dc117	auipc	x2,0xe69dc	  x2=0x669ddad4
        4545000	       453	80001adc	032a0063	beq	x20,x18,80001afc	 x20:0x00000000 x18:0x00000000
        4555000	       454	00000000	00000013	addi	x0,x0,0	  x0:0x00000000
        4565000	       455	80001af8	00000013	addi	x0,x0,0	  x0:0x00000000
        4575000	       456	80001afc	41f20533	sub	x10,x4,x31	  x4:0x00000000 x31:0x00000000 x10=0x00000000
        4585000	       457	80001b00	57a4e513	ori	x10,x9,1402	  x9:0x00000000 x10=0x0000057a
        4595000	       458	80001b04	007f9fb3	sll	x31,x31,x7	 x31:0x00000000  x7:0x00000079 x31=0x00000000
        4605000	       459	80001b08	01477933	and	x18,x14,x20	 x14:0x00000000 x20:0x00000000 x18=0x00000000
        4615000	       460	80001b0c	71bc7913	andi	x18,x24,1819	 x24:0xb6cdbaa8 x18=0x00000208
        4625000	       461	80001b10	01c608b3	add	x17,x12,x28	 x12:0x10000000 x28:0x80009ee0 x17=0x90009ee0
        4635000	       462	80001b14	6a6fe893	ori	x17,x31,1702	 x31:0x00000000 x17=0x000006a6
        4645000	       463	80001b18	2b5f4e93	xori	x29,x30,693	 x30:0x70912f5f x29=0x70912dea
        4655000	       464	80001b1c	01ef1533	sll	x10,x30,x30	 x30:0x70912f5f x30:0x70912f5f x10=0x80000000
        4665000	       465	80001b20	01d3dc93	srli	x25,x7,0x1d	  x7:0x00000079 x25=0x00000000
        4675000	       466	80001b24	d01ca413	slti	x8,x25,-767	 x25:0x00000000  x8=0x00000000
        4685000	       467	80001b28	0202de63	bge	x5,x0,80001b64	  x5:0x00000001  x0:0x00000000
        4695000	       468	00000000	00000013	addi	x0,x0,0	  x0:0x00000000
        4705000	       469	80001b60	00000013	addi	x0,x0,0	  x0:0x00000000
        4715000	       470	80001b64	04fc6993	ori	x19,x24,79	 x24:0xb6cdbaa8 x19=0xb6cdbaef
        4725000	       471	80001b68	015b1b33	sll	x22,x22,x21	 x22:0x00000000 x21:0x80009fc4 x22=0x00000000
        4735000	       472	80001b6c	01c41933	sll	x18,x8,x28	  x8:0x00000000 x28:0x80009ee0 x18=0x00000000
        4745000	       473	80001b70	04c4d663	bge	x9,x12,80001bbc	  x9:0x00000000 x12:0x10000000
        4755000	       474	80001b74	40fd81b3	sub	x3,x27,x15	 x27:0xfffffff9 x15:0x00000000  x3=0xfffffff9
        4765000	       475	80001b78	9a66a793	slti	x15,x13,-1626	 x13:0x00000000 x15=0x00000000
        4775000	       476	80001b7c	0006c6b3	xor	x13,x13,x0	 x13:0x00000000  x0:0x00000000 x13=0x00000000
        4785000	       477	80001b80	e25dac93	slti	x25,x27,-475	 x27:0xfffffff9 x25=0x00000000
        4795000	       478	80001b84	45076993	ori	x19,x14,1104	 x14:0x00000000 x19=0x00000450
        4805000	       479	80001b88	41a3d913	srai	x18,x7,0x1a	  x7:0x00000079 x18=0x00000000
        4815000	       480	80001b8c	0163dd93	srli	x27,x7,0x16	  x7:0x00000079 x27=0x00000000
        4825000	       481	80001b90	0b370f13	addi	x30,x14,179	 x14:0x00000000 x30=0x000000b3
        4835000	       482	80001b94	044cc063	blt	x25,x4,80001bd4	 x25:0x00000000  x4:0x00000000
        4845000	       483	80001b98	00732433	slt	x8,x6,x7	  x6:0x10000000  x7:0x00000079  x8=0x00000000
        4855000	       484	80001b9c	0132dc63	bge	x5,x19,80001bb4	  x5:0x00000001 x19:0x00000450
        4865000	       485	80001ba0	a5860fb7	lui	x31,0xa5860	 x31=0xa5860000
        4875000	       486	80001ba4	40c18a33	sub	x20,x3,x12	  x3:0xfffffff9 x12:0x10000000 x20=0xeffffff9
        4885000	       487	80001ba8	046fc063	blt	x31,x6,80001be8	 x31:0xa5860000  x6:0x10000000
        4895000	       488	00000000	00000013	addi	x0,x0,0	  x0:0x00000000
        4905000	       489	80001be4	00000013	addi	x0,x0,0	  x0:0x00000000
        4915000	       490	80001be8	3642ff13	andi	x30,x5,868	  x5:0x00000001 x30=0x00000000
        4925000	       491	80001bec	01b07933	and	x18,x0,x27	  x0:0x00000000 x27:0x00000000 x18=0x00000000
        4935000	       492	80001bf0	10acff93	andi	x31,x25,266	 x25:0x00000000 x31=0x00000000
        4945000	       493	80001bf4	02060663	beq	x12,x0,80001c20	 x12:0x10000000  x0:0x00000000
        4955000	       494	80001bf8	00f35633	srl	x12,x6,x15	  x6:0x10000000 x15:0x00000000 x12=0x10000000
        4965000	       495	80001bfc	2d82fc13	andi	x24,x5,728	  x5:0x00000001 x24=0x00000000
        4975000	       496	80001c00	050c7063	bgeu	x24,x16,80001c40	 x24:0x00000000 x16:0x00000118
        4985000	       497	80001c04	0080d893	srli	x17,x1,0x8	  x1:0x00000000 x17=0x00000000
        4995000	       498	80001c08	00e928b3	slt	x17,x18,x14	 x18:0x00000000 x14:0x00000000 x17=0x00000000
        5005000	       499	80001c0c	40e358b3	sra	x17,x6,x14	  x6:0x10000000 x14:0x00000000 x17=0x10000000
        5015000	       500	80001c10	005e6db3	or	x27,x28,x5	 x28:0x80009ee0  x5:0x00000001 x27=0x80009ee1
        5025000	       501	80001c14	63700d13	addi	x26,x0,1591	  x0:0x00000000 x26=0x00000637
        5035000	       502	80001c18	014620b3	slt	x1,x12,x20	 x12:0x10000000 x20:0xeffffff9  x1=0x00000000
        5045000	       503	80001c1c	978dc513	xori	x10,x27,-1672	 x27:0x80009ee1 x10=0x7fff6799
        5055000	       504	80001c20	039b9c63	bne	x23,x25,80001c58	 x23:0xf091aa4a x25:0x00000000
        5065000	       505	00000000	00000013	addi	x0,x0,0	  x0:0x00000000
        5075000	       506	80001c54	00000013	addi	x0,x0,0	  x0:0x00000000
        5085000	       507	80001c58	009c9c63	bne	x25,x9,80001c70	 x25:0x00000000  x9:0x00000000
        5095000	       508	80001c5c	2b958313	addi	x6,x11,697	 x11:0x00007900  x6=0x00007bb9
        5105000	       509	80001c60	00a9fdb3	and	x27,x19,x10	 x19:0x00000450 x10:0x7fff6799 x27=0x00000410
        5115000	       510	80001c64	0058c263	blt	x17,x5,80001c68	 x17:0x10000000  x5:0x00000001
        5125000	       511	80001c68	c19b3a13	sltiu	x20,x22,-999	 x22:0x00000000 x20=0x00000001
        5135000	       512	80001c6c	0048c6b3	xor	x13,x17,x4	 x17:0x10000000  x4:0x00000000 x13=0x10000000
        5145000	       513	80001c70	5f67c393	xori	x7,x15,1526	 x15:0x00000000  x7=0x000005f6
        5155000	       514	80001c74	028afe63	bgeu	x21,x8,80001cb0	 x21:0x80009fc4  x8:0x00000000
        5165000	       515	00000000	00000013	addi	x0,x0,0	  x0:0x00000000
        5175000	       516	80001cac	00000013	addi	x0,x0,0	  x0:0x00000000
        5185000	       517	80001cb0	00a472b3	and	x5,x8,x10	  x8:0x00000000 x10:0x7fff6799  x5=0x00000000
        5195000	       518	80001cb4	00c0b6b3	sltu	x13,x1,x12	  x1:0x00000000 x12:0x10000000 x13=0x00000001
        5205000	       519	80001cb8	9ba74437	lui	x8,0x9ba74	  x8=0x9ba74000
        5215000	       520	80001cbc	01f6dcb3	srl	x25,x13,x31	 x13:0x00000001 x31:0x00000000 x25=0x00000001
        5225000	       521	80001cc0	00672eb3	slt	x29,x14,x6	 x14:0x00000000  x6:0x00007bb9 x29=0x00000001
        5235000	       522	80001cc4	01f12033	slt	x0,x2,x31	  x2:0x669ddad4 x31:0x00000000
        5245000	       523	80001cc8	00bcfdb3	and	x27,x25,x11	 x25:0x00000001 x11:0x00007900 x27=0x00000000
        5255000	       524	80001ccc	b2d62913	slti	x18,x12,-1235	 x12:0x10000000 x18=0x00000000
        5265000	       525	80001cd0	9ae46393	ori	x7,x8,-1618	  x8:0x9ba74000  x7=0xfffff9ae
        5275000	       526	80001cd4	031fc263	blt	x31,x17,80001cf8	 x31:0x00000000 x17:0x10000000
        5285000	       527	00000000	00000013	addi	x0,x0,0	  x0:0x00000000
        5295000	       528	80001cf4	00000013	addi	x0,x0,0	  x0:0x00000000
        5305000	       529	80001cf8	0452f663	bgeu	x5,x5,80001d44	  x5:0x00000000  x5:0x00000000
        5315000	       530	00000000	00000013	addi	x0,x0,0	  x0:0x00000000
        5325000	       531	80001d40	00000013	addi	x0,x0,0	  x0:0x00000000
        5335000	       532	80001d44	409adf93	srai	x31,x21,0x9	 x21:0x80009fc4 x31=0xffc0004f
        5345000	       533	80001d48	04889663	bne	x17,x8,80001d94	 x17:0x10000000  x8:0x9ba74000
        5355000	       534	00000000	00000013	addi	x0,x0,0	  x0:0x00000000
        5365000	       535	80001d90	00000013	addi	x0,x0,0	  x0:0x00000000
        5375000	       536	80001d94	01fd0033	add	x0,x26,x31	 x26:0x00000637 x31:0xffc0004f
        5385000	       537	80001d98	eb6f0237	lui	x4,0xeb6f0	  x4=0xeb6f0000
        5395000	       538	80001d9c	01059093	slli	x1,x11,0x10	 x11:0x00007900  x1=0x79000000
        5405000	       539	80001da0	4311b813	sltiu	x16,x3,1073	  x3:0xfffffff9 x16=0x00000000
        5415000	       540	80001da4	039dd663	bge	x27,x25,80001dd0	 x27:0x00000000 x25:0x00000001
        5425000	       541	80001da8	01a9e633	or	x12,x19,x26	 x19:0x00000450 x26:0x00000637 x12=0x00000677
        5435000	       542	80001dac	00bb1c33	sll	x24,x22,x11	 x22:0x00000000 x11:0x00007900 x24=0x00000000
        5445000	       543	80001db0	00976cb3	or	x25,x14,x9	 x14:0x00000000  x9:0x00000000 x25=0x00000000
        5455000	       544	80001db4	01529613	slli	x12,x5,0x15	  x5:0x00000000 x12=0x00000000
        5465000	       545	80001db8	01494533	xor	x10,x18,x20	 x18:0x00000000 x20:0x00000001 x10=0x00000001
        5475000	       546	80001dbc	7c7a8f93	addi	x31,x21,1991	 x21:0x80009fc4 x31=0x8000a78b
        5485000	       547	80001dc0	01beafb3	slt	x31,x29,x27	 x29:0x00000001 x27:0x00000000 x31=0x00000000
        5495000	       548	80001dc4	ab368793	addi	x15,x13,-1357	 x13:0x00000001 x15=0xfffffab4
        5505000	       549	80001dc8	006764b3	or	x9,x14,x6	 x14:0x00000000  x6:0x00007bb9  x9=0x00007bb9
        5515000	       550	80001dcc	d833ed93	ori	x27,x7,-637	  x7:0xfffff9ae x27=0xfffffdaf
        5525000	       551	80001dd0	fe330397	auipc	x7,0xfe330	  x7=0x7e331dcc
        5535000	       552	80001dd4	465f4893	xori	x17,x30,1125	 x30:0x00000000 x17=0x00000465
        5545000	       553	80001dd8	00d2c463	blt	x5,x13,80001de0	  x5:0x00000000 x13:0x00000001
        5555000	       554	00000000	00000013	addi	x0,x0,0	  x0:0x00000000
        5565000	       555	80001ddc	00000013	addi	x0,x0,0	  x0:0x00000000
        5575000	       556	80001de0	b20e3937	lui	x18,0xb20e3	 x18=0xb20e3000
        5585000	       557	80001de4	03bd5063	bge	x26,x27,80001e04	 x26:0x00000637 x27:0xfffffdaf
        5595000	       558	00000000	00000013	addi	x0,x0,0	  x0:0x00000000
        5605000	       559	80001e00	00000013	addi	x0,x0,0	  x0:0x00000000
        5615000	       560	80001e04	41f4d1b3	sra	x3,x9,x31	  x9:0x00007bb9 x31:0x00000000  x3=0x00007bb9
        5625000	       561	80001e08	41695233	sra	x4,x18,x22	 x18:0xb20e3000 x22:0x00000000  x4=0xb20e3000
        5635000	       562	80001e0c	01fe0863	beq	x28,x31,80001e1c	 x28:0x80009ee0 x31:0x00000000
        5645000	       563	80001e10	00000013	addi	x0,x0,0	  x0:0x00000000
        5655000	       564	80001e14	bd140993	addi	x19,x8,-1071	  x8:0x9ba74000 x19=0x9ba73bd1
        5665000	       565	80001e18	02107c63	bgeu	x0,x1,80001e50	  x0:0x00000000  x1:0x79000000
        5675000	       566	80001e1c	7c8e74b7	lui	x9,0x7c8e7	  x9=0x7c8e7000
        5685000	       567	80001e20	048fd263	bge	x31,x8,80001e64	 x31:0x00000000  x8:0x9ba74000
        5695000	       568	00000000	00000013	addi	x0,x0,0	  x0:0x00000000
        5705000	       569	80001e60	00000013	addi	x0,x0,0	  x0:0x00000000
        5715000	       570	80001e64	353bb393	sltiu	x7,x23,851	 x23:0xf091aa4a  x7=0x00000000
        5725000	       571	80001e68	ed631317	auipc	x6,0xed631	  x6=0x6d632e64
        5735000	       572	80001e6c	000ec533	xor	x10,x29,x0	 x29:0x00000001  x0:0x00000000 x10=0x00000001
        5745000	       573	80001e70	41f705b3	sub	x11,x14,x31	 x14:0x00000000 x31:0x00000000 x11=0x00000000
        5755000	       574	80001e74	01530463	beq	x6,x21,80001e7c	  x6:0x6d632e64 x21:0x80009fc4
        5765000	       575	80001e78	02e4c263	blt	x9,x14,80001e9c	  x9:0x7c8e7000 x14:0x00000000
        5775000	       576	80001e7c	4073d313	srai	x6,x7,0x7	  x7:0x00000000  x6=0x00000000
        5785000	       577	80001e80	01d723b3	slt	x7,x14,x29	 x14:0x00000000 x29:0x00000001  x7=0x00000001
        5795000	       578	80001e84	00000013	addi	x0,x0,0	  x0:0x00000000
        5805000	       579	80001e88	0197bd33	sltu	x26,x15,x25	 x15:0xfffffab4 x25:0x00000000 x26=0x00000000
        5815000	       580	80001e8c	1c364c13	xori	x24,x12,451	 x12:0x00000000 x24=0x000001c3
        5825000	       581	80001e90	02e55263	bge	x10,x14,80001eb4	 x10:0x00000001 x14:0x00000000
        5835000	       582	00000000	00000013	addi	x0,x0,0	  x0:0x00000000
        5845000	       583	80001eb0	00000013	addi	x0,x0,0	  x0:0x00000000
        5855000	       584	80001eb4	e3ed8d13	addi	x26,x27,-450	 x27:0xfffffdaf x26=0xfffffbed
        5865000	       585	80001eb8	000cb933	sltu	x18,x25,x0	 x25:0x00000000  x0:0x00000000 x18=0x00000000
        5875000	       586	80001ebc	017f1333	sll	x6,x30,x23	 x30:0x00000000 x23:0xf091aa4a  x6=0x00000000
        5885000	       587	80001ec0	417a84b3	sub	x9,x21,x23	 x21:0x80009fc4 x23:0xf091aa4a  x9=0x8f6ef57a
        5895000	       588	80001ec4	016d3233	sltu	x4,x26,x22	 x26:0xfffffbed x22:0x00000000  x4=0x00000000
        5905000	       589	80001ec8	6be62637	lui	x12,0x6be62	 x12=0x6be62000
        5915000	       590	80001ecc	00000013	addi	x0,x0,0	  x0:0x00000000
        5925000	       591	80001ed0	ac38e593	ori	x11,x17,-1341	 x17:0x00000465 x11=0xfffffee7
        5935000	       592	80001ed4	01f23cb3	sltu	x25,x4,x31	  x4:0x00000000 x31:0x00000000 x25=0x00000000
        5945000	       593	80001ed8	4030d2b3	sra	x5,x1,x3	  x1:0x79000000  x3:0x00007bb9  x5=0x0000003c
        5955000	       594	80001edc	02586293	ori	x5,x16,37	 x16:0x00000000  x5=0x00000025
        5965000	       595	80001ee0	fd933917	auipc	x18,0xfd933	 x18=0x7d934edc
        5975000	       596	80001ee4	b2756593	ori	x11,x10,-1241	 x10:0x00000001 x11=0xfffffb27
        5985000	       597	80001ee8	008eb633	sltu	x12,x29,x8	 x29:0x00000001  x8:0x9ba74000 x12=0x00000001
        5995000	       598	80001eec	011c88b3	add	x17,x25,x17	 x25:0x00000000 x17:0x00000465 x17=0x00000465
        6005000	       599	80001ef0	01f88eb3	add	x29,x17,x31	 x17:0x00000465 x31:0x00000000 x29=0x00000465
        6015000	       600	80001ef4	4721a093	slti	x1,x3,1138	  x3:0x00007bb9  x1=0x00000000
        6025000	       601	80001ef8	016ed713	srli	x14,x29,0x16	 x29:0x00000465 x14=0x00000000
        6035000	       602	80001efc	0321d663	bge	x3,x18,80001f28	  x3:0x00007bb9 x18:0x7d934edc
        6045000	       603	80001f00	01bbca63	blt	x23,x27,80001f14	 x23:0xf091aa4a x27:0xfffffdaf
        6055000	       604	00000000	00000013	addi	x0,x0,0	  x0:0x00000000
        6065000	       605	80001f10	00000013	addi	x0,x0,0	  x0:0x00000000
        6075000	       606	80001f14	00000013	addi	x0,x0,0	  x0:0x00000000
        6085000	       607	80001f18	04028063	beq	x5,x0,80001f58	  x5:0x00000025  x0:0x00000000
        6095000	       608	80001f1c	453c0893	addi	x17,x24,1107	 x24:0x000001c3 x17=0x00000616
        6105000	       609	80001f20	d703c113	xori	x2,x7,-656	  x7:0x00000001  x2=0xfffffd71
        6115000	       610	80001f24	417484b3	sub	x9,x9,x23	  x9:0x8f6ef57a x23:0xf091aa4a  x9=0x9edd4b30
        6125000	       611	80001f28	0077df93	srli	x31,x15,0x7	 x15:0xfffffab4 x31=0x01fffff5
        6135000	       612	80001f2c	ec0fc093	xori	x1,x31,-320	 x31:0x01fffff5  x1=0xfe000135
        6145000	       613	80001f30	41dadcb3	sra	x25,x21,x29	 x21:0x80009fc4 x29:0x00000465 x25=0xfc0004fe
        6155000	       614	80001f34	01f2a933	slt	x18,x5,x31	  x5:0x00000025 x31:0x01fffff5 x18=0x00000001
        6165000	       615	80001f38	85fc3e93	sltiu	x29,x24,-1953	 x24:0x000001c3 x29=0x00000001
        6175000	       616	80001f3c	316b2693	slti	x13,x22,790	 x22:0x00000000 x13=0x00000001
        6185000	       617	80001f40	01a4a333	slt	x6,x9,x26	  x9:0x9edd4b30 x26:0xfffffbed  x6=0x00000001
        6195000	       618	80001f44	453fab13	slti	x22,x31,1107	 x31:0x01fffff5 x22=0x00000000
        6205000	       619	80001f48	f4976a37	lui	x20,0xf4976	 x20=0xf4976000
        6215000	       620	80001f4c	41bb5313	srai	x6,x22,0x1b	 x22:0x00000000  x6=0x00000000
        6225000	       621	80001f50	407fd733	sra	x14,x31,x7	 x31:0x01fffff5  x7:0x00000001 x14=0x00fffffa
        6235000	       622	80001f54	011f0b33	add	x22,x30,x17	 x30:0x00000000 x17:0x00000616 x22=0x00000616
        6245000	       623	80001f58	0135a333	slt	x6,x11,x19	 x11:0xfffffb27 x19:0x9ba73bd1  x6=0x00000000
        6255000	       624	80001f5c	23aff793	andi	x15,x31,570	 x31:0x01fffff5 x15=0x00000230
        6265000	       625	80001f60	41a25c13	srai	x24,x4,0x1a	  x4:0x00000000 x24=0x00000000
        6275000	       626	80001f64	03bd9063	bne	x27,x27,80001f84	 x27:0xfffffdaf x27:0xfffffdaf
        6285000	       627	80001f68	412fd493	srai	x9,x31,0x12	 x31:0x01fffff5  x9=0x0000007f
        6295000	       628	80001f6c	41ec8633	sub	x12,x25,x30	 x25:0xfc0004fe x30:0x00000000 x12=0xfc0004fe
        6305000	       629	80001f70	003f3933	sltu	x18,x30,x3	 x30:0x00000000  x3:0x00007bb9 x18=0x00000001
        6315000	       630	80001f74	405a5193	srai	x3,x20,0x5	 x20:0xf4976000  x3=0xffa4bb00
        6325000	       631	80001f78	00d15d33	srl	x26,x2,x13	  x2:0xfffffd71 x13:0x00000001 x26=0x7ffffeb8
        6335000	       632	80001f7c	40b558b3	sra	x17,x10,x11	 x10:0x00000001 x11:0xfffffb27 x17=0x00000000
        6345000	       633	80001f80	04339663	bne	x7,x3,80001fcc	  x7:0x00000001  x3:0xffa4bb00
        6355000	       634	00000000	00000013	addi	x0,x0,0	  x0:0x00000000
        6365000	       635	80001fc8	00000013	addi	x0,x0,0	  x0:0x00000000
        6375000	       636	80001fcc	e8856813	ori	x16,x10,-376	 x10:0x00000001 x16=0xfffffe89
        6385000	       637	80001fd0	016a3133	sltu	x2,x20,x22	 x20:0xf4976000 x22:0x00000616  x2=0x00000000
        6395000	       638	80001fd4	112f6c13	ori	x24,x30,274	 x30:0x00000000 x24=0x00000112
        6405000	       639	80001fd8	01111a13	slli	x20,x2,0x11	  x2:0x00000000 x20=0x00000000
        6415000	       640	80001fdc	2d7e2b13	slti	x22,x28,727	 x28:0x80009ee0 x22=0x00000001
        6425000	       641	80001fe0	00b34633	xor	x12,x6,x11	  x6:0x00000000 x11:0xfffffb27 x12=0xfffffb27
        6435000	       642	80001fe4	416308b3	sub	x17,x6,x22	  x6:0x00000000 x22:0x00000001 x17=0xffffffff
        6445000	       643	80001fe8	41e45213	srai	x4,x8,0x1e	  x8:0x9ba74000  x4=0xfffffffe
        6455000	       644	80001fec	019f0633	add	x12,x30,x25	 x30:0x00000000 x25:0xfc0004fe x12=0xfc0004fe
        6465000	       645	80001ff0	003fb433	sltu	x8,x31,x3	 x31:0x01fffff5  x3:0xffa4bb00  x8=0x00000001
        6475000	       646	80001ff4	7013b393	sltiu	x7,x7,1793	  x7:0x00000001  x7=0x00000001
        6485000	       647	80001ff8	3e836c93	ori	x25,x6,1000	  x6:0x00000000 x25=0x000003e8
        6495000	       648	80001ffc	00000013	addi	x0,x0,0	  x0:0x00000000
        6505000	       649	80002000	00ceea63	bltu	x29,x12,80002014	 x29:0x00000001 x12:0xfc0004fe
        6515000	       650	00000000	00000013	addi	x0,x0,0	  x0:0x00000000
        6525000	       651	80002010	00000013	addi	x0,x0,0	  x0:0x00000000
        6535000	       652	80002014	3f6cf913	andi	x18,x25,1014	 x25:0x000003e8 x18=0x000003e0
        6545000	       653	80002018	01b370b3	and	x1,x6,x27	  x6:0x00000000 x27:0xfffffdaf  x1=0x00000000
        6555000	       654	8000201c	03d50a63	beq	x10,x29,80002050	 x10:0x00000001 x29:0x00000001
        6565000	       655	00000000	00000013	addi	x0,x0,0	  x0:0x00000000
        6575000	       656	8000204c	00000013	addi	x0,x0,0	  x0:0x00000000
        6585000	       657	80002050	014f1813	slli	x16,x30,0x14	 x30:0x00000000 x16=0x00000000
        6595000	       658	80002054	01dc9493	slli	x9,x25,0x1d	 x25:0x000003e8  x9=0x00000000
        6605000	       659	80002058	68e45897	auipc	x17,0x68e45	 x17=0xe8e47054
        6615000	       660	8000205c	00000013	addi	x0,x0,0	  x0:0x00000000
        6625000	       661	80002060	03ae5263	bge	x28,x26,80002084	 x28:0x80009ee0 x26:0x7ffffeb8
        6635000	       662	80002064	88f52c13	slti	x24,x10,-1905	 x10:0x00000001 x24=0x00000000
        6645000	       663	80002068	0089f463	bgeu	x19,x8,80002070	 x19:0x9ba73bd1  x8:0x00000001
        6655000	       664	00000000	00000013	addi	x0,x0,0	  x0:0x00000000
        6665000	       665	8000206c	00000013	addi	x0,x0,0	  x0:0x00000000
        6675000	       666	80002070	00a8f633	and	x12,x17,x10	 x17:0xe8e47054 x10:0x00000001 x12=0x00000000
        6685000	       667	80002074	a26cbc17	auipc	x24,0xa26cb	 x24=0x226cd070
        6695000	       668	80002078	02185c63	bge	x16,x1,800020b0	 x16:0x00000000  x1:0x00000000
        6705000	       669	00000000	00000013	addi	x0,x0,0	  x0:0x00000000
        6715000	       670	800020ac	00000013	addi	x0,x0,0	  x0:0x00000000
        6725000	       671	800020b0	016e1793	slli	x15,x28,0x16	 x28:0x80009ee0 x15=0xb8000000
        6735000	       672	800020b4	41c259b3	sra	x19,x4,x28	  x4:0xfffffffe x28:0x80009ee0 x19=0xfffffffe
        6745000	       673	800020b8	01e9e833	or	x16,x19,x30	 x19:0xfffffffe x30:0x00000000 x16=0xfffffffe
        6755000	       674	800020bc	e7aa8593	addi	x11,x21,-390	 x21:0x80009fc4 x11=0x80009e3e
        6765000	       675	800020c0	419852b3	sra	x5,x16,x25	 x16:0xfffffffe x25:0x000003e8  x5=0xffffffff
        6775000	       676	800020c4	024e6663	bltu	x28,x4,800020f0	 x28:0x80009ee0  x4:0xfffffffe
        6785000	       677	00000000	00000013	addi	x0,x0,0	  x0:0x00000000
        6795000	       678	800020ec	00000013	addi	x0,x0,0	  x0:0x00000000
        6805000	       679	800020f0	ad3feb13	ori	x22,x31,-1325	 x31:0x01fffff5 x22=0xfffffff7
        6815000	       680	800020f4	04591663	bne	x18,x5,80002140	 x18:0x000003e0  x5:0xffffffff
        6825000	       681	00000000	00000013	addi	x0,x0,0	  x0:0x00000000
        6835000	       682	8000213c	00000013	addi	x0,x0,0	  x0:0x00000000
        6845000	       683	80002140	01eb0c63	beq	x22,x30,80002158	 x22:0xfffffff7 x30:0x00000000
        6855000	       684	80002144	01715e63	bge	x2,x23,80002160	  x2:0x00000000 x23:0xf091aa4a
        6865000	       685	00000000	00000013	addi	x0,x0,0	  x0:0x00000000
        6875000	       686	8000215c	00000013	addi	x0,x0,0	  x0:0x00000000
        6885000	       687	80002160	00000013	addi	x0,x0,0	  x0:0x00000000
        6895000	       688	80002164	408f87b3	sub	x15,x31,x8	 x31:0x01fffff5  x8:0x00000001 x15=0x01fffff4
        6905000	       689	80002168	1b384993	xori	x19,x16,435	 x16:0xfffffffe x19=0xfffffe4d
        6915000	       690	8000216c	41c4d713	srai	x14,x9,0x1c	  x9:0x00000000 x14=0x00000000
        6925000	       691	80002170	019e77b3	and	x15,x28,x25	 x28:0x80009ee0 x25:0x000003e8 x15=0x000002e0
        6935000	       692	80002174	eefc7613	andi	x12,x24,-273	 x24:0x226cd070 x12=0x226cd060
        6945000	       693	80002178	015b26b3	slt	x13,x22,x21	 x22:0xfffffff7 x21:0x80009fc4 x13=0x00000000
        6955000	       694	8000217c	01d90133	add	x2,x18,x29	 x18:0x000003e0 x29:0x00000001  x2=0x000003e1
        6965000	       695	80002180	03089e63	bne	x17,x16,800021bc	 x17:0xe8e47054 x16:0xfffffffe
        6975000	       696	00000000	00000013	addi	x0,x0,0	  x0:0x00000000
        6985000	       697	800021b8	00000013	addi	x0,x0,0	  x0:0x00000000
        6995000	       698	800021bc	01f05a33	srl	x20,x0,x31	  x0:0x00000000 x31:0x01fffff5 x20=0x00000000
        7005000	       699	800021c0	0059b633	sltu	x12,x19,x5	 x19:0xfffffe4d  x5:0xffffffff x12=0x00000001
        7015000	       700	800021c4	403155b3	sra	x11,x2,x3	  x2:0x000003e1  x3:0xffa4bb00 x11=0x000003e1
        7025000	       701	800021c8	00979863	bne	x15,x9,800021d8	 x15:0x000002e0  x9:0x00000000
        7035000	       702	00000000	00000013	addi	x0,x0,0	  x0:0x00000000
        7045000	       703	800021d4	00000013	addi	x0,x0,0	  x0:0x00000000
        7055000	       704	800021d8	01b94633	xor	x12,x18,x27	 x18:0x000003e0 x27:0xfffffdaf x12=0xfffffe4f
        7065000	       705	800021dc	00b3e4b3	or	x9,x7,x11	  x7:0x00000001 x11:0x000003e1  x9=0x000003e1
        7075000	       706	800021e0	00a2e1b3	or	x3,x5,x10	  x5:0xffffffff x10:0x00000001  x3=0xffffffff
        7085000	       707	800021e4	964fb0b7	lui	x1,0x964fb	  x1=0x964fb000
        7095000	       708	800021e8	00db6a33	or	x20,x22,x13	 x22:0xfffffff7 x13:0x00000000 x20=0xfffffff7
        7105000	       709	800021ec	018bd613	srli	x12,x23,0x18	 x23:0xf091aa4a x12=0x000000f0
        7115000	       710	800021f0	009351b3	srl	x3,x6,x9	  x6:0x00000000  x9:0x000003e1  x3=0x00000000
        7125000	       711	800021f4	013c0cb3	add	x25,x24,x19	 x24:0x226cd070 x19:0xfffffe4d x25=0x226ccebd
        7135000	       712	800021f8	5c6b3d17	auipc	x26,0x5c6b3	 x26=0xdc6b51f4
        7145000	       713	800021fc	2b68aeb7	lui	x29,0x2b68a	 x29=0x2b68a000
        7155000	       714	80002200	019b29b3	slt	x19,x22,x25	 x22:0xfffffff7 x25:0x226ccebd x19=0x00000001
        7165000	       715	80002204	aa408813	addi	x16,x1,-1372	  x1:0x964fb000 x16=0x964faaa4
        7175000	       716	80002208	64830313	addi	x6,x6,1608	  x6:0x00000000  x6=0x00000648
        7185000	       717	8000220c	60c23a37	lui	x20,0x60c23	 x20=0x60c23000
        7195000	       718	80002210	00773333	sltu	x6,x14,x7	 x14:0x00000000  x7:0x00000001  x6=0x00000001
        7205000	       719	80002214	34344913	xori	x18,x8,835	  x8:0x00000001 x18=0x00000342
        7215000	       720	80002218	059d1697	auipc	x13,0x59d1	 x13=0x859d3214
        7225000	       721	8000221c	fe736213	ori	x4,x6,-25	  x6:0x00000001  x4=0xffffffe7
        7235000	       722	80002220	012a9c33	sll	x24,x21,x18	 x21:0x80009fc4 x18:0x00000342 x24=0x00027f10
        7245000	       723	80002224	c3257413	andi	x8,x10,-974	 x10:0x00000001  x8=0x00000000
        7255000	       724	80002228	40e15033	sra	x0,x2,x14	  x2:0x000003e1 x14:0x00000000
        7265000	       725	8000222c	52d57c13	andi	x24,x10,1325	 x10:0x00000001 x24=0x00000001
        7275000	       726	80002230	048dc263	blt	x27,x8,80002274	 x27:0xfffffdaf  x8:0x00000000
        7285000	       727	00000000	00000013	addi	x0,x0,0	  x0:0x00000000
        7295000	       728	80002270	00000013	addi	x0,x0,0	  x0:0x00000000
        7305000	       729	80002274	0310c263	blt	x1,x17,80002298	  x1:0x964fb000 x17:0xe8e47054
        7315000	       730	00000000	00000013	addi	x0,x0,0	  x0:0x00000000
        7325000	       731	80002294	00000013	addi	x0,x0,0	  x0:0x00000000
        7335000	       732	80002298	2dec6e93	ori	x29,x24,734	 x24:0x00000001 x29=0x000002df
        7345000	       733	8000229c	02f21063	bne	x4,x15,800022bc	  x4:0xffffffe7 x15:0x000002e0
        7355000	       734	00000000	00000013	addi	x0,x0,0	  x0:0x00000000
        7365000	       735	800022b8	00000013	addi	x0,x0,0	  x0:0x00000000
        7375000	       736	800022bc	00ad1a63	bne	x26,x10,800022d0	 x26:0xdc6b51f4 x10:0x00000001
        7385000	       737	00000000	00000013	addi	x0,x0,0	  x0:0x00000000
        7395000	       738	800022cc	00000013	addi	x0,x0,0	  x0:0x00000000
        7405000	       739	800022d0	001ede63	bge	x29,x1,800022ec	 x29:0x000002df  x1:0x964fb000
        7415000	       740	00000000	00000013	addi	x0,x0,0	  x0:0x00000000
        7425000	       741	800022e8	00000013	addi	x0,x0,0	  x0:0x00000000
        7435000	       742	800022ec	01e39893	slli	x17,x7,0x1e	  x7:0x00000001 x17=0x40000000
        7445000	       743	800022f0	015b27b3	slt	x15,x22,x21	 x22:0xfffffff7 x21:0x80009fc4 x15=0x00000000
        7455000	       744	800022f4	00cde133	or	x2,x27,x12	 x27:0xfffffdaf x12:0x000000f0  x2=0xfffffdff
        7465000	       745	800022f8	91efcc93	xori	x25,x31,-1762	 x31:0x01fffff5 x25=0xfe0006eb
        7475000	       746	800022fc	01d55593	srli	x11,x10,0x1d	 x10:0x00000001 x11=0x00000000
        7485000	       747	80002300	00865313	srli	x6,x12,0x8	 x12:0x000000f0  x6=0x00000000
        7495000	       748	80002304	0f68fa37	lui	x20,0xf68f	 x20=0x0f68f000
        7505000	       749	80002308	414a5b13	srai	x22,x20,0x14	 x20:0x0f68f000 x22=0x000000f6
        7515000	       750	8000230c	f112a317	auipc	x6,0xf112a	  x6=0x7112c308
        7525000	       751	80002310	408dd093	srai	x1,x27,0x8	 x27:0xfffffdaf  x1=0xfffffffd
        7535000	       752	80002314	40b05813	srai	x16,x0,0xb	  x0:0x00000000 x16=0x00000000
        7545000	       753	80002318	00d850b3	srl	x1,x16,x13	 x16:0x00000000 x13:0x859d3214  x1=0x00000000
        7555000	       754	8000231c	41c40933	sub	x18,x8,x28	  x8:0x00000000 x28:0x80009ee0 x18=0x7fff6120
        7565000	       755	80002320	01451d93	slli	x27,x10,0x14	 x10:0x00000001 x27=0x00100000
        7575000	       756	80002324	059fc263	blt	x31,x25,80002368	 x31:0x01fffff5 x25:0xfe0006eb
        7585000	       757	80002328	014c3db3	sltu	x27,x24,x20	 x24:0x00000001 x20:0x0f68f000 x27=0x00000001
        7595000	       758	8000232c	9a5462b7	lui	x5,0x9a546	  x5=0x9a546000
        7605000	       759	80002330	c0572893	slti	x17,x14,-1019	 x14:0x00000000 x17=0x00000000
        7615000	       760	80002334	41350933	sub	x18,x10,x19	 x10:0x00000001 x19:0x00000001 x18=0x00000000
        7625000	       761	80002338	29cbe713	ori	x14,x23,668	 x23:0xf091aa4a x14=0xf091aade
        7635000	       762	8000233c	41c60a33	sub	x20,x12,x28	 x12:0x000000f0 x28:0x80009ee0 x20=0x7fff6210
        7645000	       763	80002340	aba87493	andi	x9,x16,-1350	 x16:0x00000000  x9=0x00000000
        7655000	       764	80002344	02fdf263	bgeu	x27,x15,80002368	 x27:0x00000001 x15:0x00000000
        7665000	       765	00000000	00000013	addi	x0,x0,0	  x0:0x00000000
        7675000	       766	80002364	00000013	addi	x0,x0,0	  x0:0x00000000
        7685000	       767	80002368	00f79c13	slli	x24,x15,0xf	 x15:0x00000000 x24=0x00000000
        7695000	       768	8000236c	5b263f17	auipc	x30,0x5b263	 x30=0xdb265368
        7705000	       769	80002370	3c4c2293	slti	x5,x24,964	 x24:0x00000000  x5=0x00000001
        7715000	       770	80002374	411785b3	sub	x11,x15,x17	 x15:0x00000000 x17:0x00000000 x11=0x00000000
        7725000	       771	80002378	007c1863	bne	x24,x7,80002388	 x24:0x00000000  x7:0x00000001
        7735000	       772	00000000	00000013	addi	x0,x0,0	  x0:0x00000000
        7745000	       773	80002384	00000013	addi	x0,x0,0	  x0:0x00000000
        7755000	       774	80002388	41115593	srai	x11,x2,0x11	  x2:0xfffffdff x11=0xffffffff
        7765000	       775	8000238c	00000013	addi	x0,x0,0	  x0:0x00000000
        7775000	       776	80002390	00530c63	beq	x6,x5,800023a8	  x6:0x7112c308  x5:0x00000001
        7785000	       777	80002394	e32fbc13	sltiu	x24,x31,-462	 x31:0x01fffff5 x24=0x00000001
        7795000	       778	80002398	01704f33	xor	x30,x0,x23	  x0:0x00000000 x23:0xf091aa4a x30=0xf091aa4a
        7805000	       779	8000239c	00b218b3	sll	x17,x4,x11	  x4:0xffffffe7 x11:0xffffffff x17=0x80000000
        7815000	       780	800023a0	26a62993	slti	x19,x12,618	 x12:0x000000f0 x19=0x00000001
        7825000	       781	800023a4	c9f506b7	lui	x13,0xc9f50	 x13=0xc9f50000
        7835000	       782	800023a8	00000013	addi	x0,x0,0	  x0:0x00000000
        7845000	       783	800023ac	13b6e663	bltu	x13,x27,800024d8	 x13:0xc9f50000 x27:0x00000001
        7855000	       784	800023b0	bc954d93	xori	x27,x10,-1079	 x10:0x00000001 x27=0xfffffbc8
        7865000	       785	800023b4	112ede63	bge	x29,x18,800024d0	 x29:0x000002df x18:0x00000000
        7875000	       786	00000000	00000013	addi	x0,x0,0	  x0:0x00000000
        7885000	       787	800024cc	00000013	addi	x0,x0,0	  x0:0x00000000
        7895000	       788	800024d0	41f70333	sub	x6,x14,x31	 x14:0xf091aade x31:0x01fffff5  x6=0xee91aae9
        7905000	       789	800024d4	92600013	addi	x0,x0,-1754	  x0:0x00000000
        7915000	       790	800024d8	40588d33	sub	x26,x17,x5	 x17:0x80000000  x5:0x00000001 x26=0x7fffffff
        7925000	       791	800024dc	0196d9b3	srl	x19,x13,x25	 x13:0xc9f50000 x25:0xfe0006eb x19=0x00193ea0
        7935000	       792	800024e0	80078c17	auipc	x24,0x80078	 x24=0x0007a4dc
        7945000	       793	800024e4	5bbe0813	addi	x16,x28,1467	 x28:0x80009ee0 x16=0x8000a49b
        7955000	       794	800024e8	39b68a13	addi	x20,x13,923	 x13:0xc9f50000 x20=0xc9f5039b
        7965000	       795	800024ec	0090a1b3	slt	x3,x1,x9	  x1:0x00000000  x9:0x00000000  x3=0x00000000
        7975000	       796	800024f0	40c05693	srai	x13,x0,0xc	  x0:0x00000000 x13=0x00000000
        7985000	       797	800024f4	012d1793	slli	x15,x26,0x12	 x26:0x7fffffff x15=0xfffc0000
        7995000	       798	800024f8	0079e6b3	or	x13,x19,x7	 x19:0x00193ea0  x7:0x00000001 x13=0x00193ea1
        8005000	       799	800024fc	0183df13	srli	x30,x7,0x18	  x7:0x00000001 x30=0x00000000
        8015000	       800	80002500	de480193	addi	x3,x16,-540	 x16:0x8000a49b  x3=0x8000a27f
        8025000	       801	80002504	01ac5893	srli	x17,x24,0x1a	 x24:0x0007a4dc x17=0x00000000
        8035000	       802	80002508	019ada13	srli	x20,x21,0x19	 x21:0x80009fc4 x20=0x00000040
        8045000	       803	8000250c	41f708b3	sub	x17,x14,x31	 x14:0xf091aade x31:0x01fffff5 x17=0xee91aae9
        8055000	       804	80002510	02cd7e63	bgeu	x26,x12,8000254c	 x26:0x7fffffff x12:0x000000f0
        8065000	       805	00000000	00000013	addi	x0,x0,0	  x0:0x00000000
        8075000	       806	80002548	00000013	addi	x0,x0,0	  x0:0x00000000
        8085000	       807	8000254c	1d853d13	sltiu	x26,x10,472	 x10:0x00000001 x26=0x00000001
        8095000	       808	80002550	056ee063	bltu	x29,x22,80002590	 x29:0x000002df x22:0x000000f6
        8105000	       809	80002554	36954713	xori	x14,x10,873	 x10:0x00000001 x14=0x00000368
        8115000	       810	80002558	0290f663	bgeu	x1,x9,80002584	  x1:0x00000000  x9:0x00000000
        8125000	       811	00000000	00000013	addi	x0,x0,0	  x0:0x00000000
        8135000	       812	80002580	00000013	addi	x0,x0,0	  x0:0x00000000
        8145000	       813	80002584	82c86217	auipc	x4,0x82c86	  x4=0x02c88580
        8155000	       814	80002588	53048793	addi	x15,x9,1328	  x9:0x00000000 x15=0x00000530
        8165000	       815	8000258c	4037d593	srai	x11,x15,0x3	 x15:0x00000530 x11=0x000000a6
        8175000	       816	80002590	0b2dc993	xori	x19,x27,178	 x27:0xfffffbc8 x19=0xfffffb7a
        8185000	       817	80002594	001a8863	beq	x21,x1,800025a4	 x21:0x80009fc4  x1:0x00000000
        8195000	       818	80002598	00000013	addi	x0,x0,0	  x0:0x00000000
        8205000	       819	8000259c	d88477b7	lui	x15,0xd8847	 x15=0xd8847000
        8215000	       820	800025a0	aecf3f13	sltiu	x30,x30,-1300	 x30:0x00000000 x30=0x00000001
        8225000	       821	800025a4	02ce5263	bge	x28,x12,800025c8	 x28:0x80009ee0 x12:0x000000f0
        8235000	       822	800025a8	0099c263	blt	x19,x9,800025ac	 x19:0xfffffb7a  x9:0x00000000
        8245000	       823	00000000	00000013	addi	x0,x0,0	  x0:0x00000000
        8255000	       824	800025a8	00000013	addi	x0,x0,0	  x0:0x00000000
        8265000	       825	800025ac	0189d413	srli	x8,x19,0x18	 x19:0xfffffb7a  x8=0x000000ff
        8275000	       826	800025b0	7df70013	addi	x0,x14,2015	 x14:0x00000368
        8285000	       827	800025b4	0025ba33	sltu	x20,x11,x2	 x11:0x000000a6  x2:0xfffffdff x20=0x00000001
        8295000	       828	800025b8	013334b3	sltu	x9,x6,x19	  x6:0xee91aae9 x19:0xfffffb7a  x9=0x00000001
        8305000	       829	800025bc	01ce4c63	blt	x28,x28,800025d4	 x28:0x80009ee0 x28:0x80009ee0
        8315000	       830	800025c0	00119513	slli	x10,x3,0x1	  x3:0x8000a27f x10=0x000144fe
        8325000	       831	800025c4	011db5b3	sltu	x11,x27,x17	 x27:0xfffffbc8 x17:0xee91aae9 x11=0x00000000
        8335000	       832	800025c8	005f9013	slli	x0,x31,0x5	 x31:0x01fffff5
        8345000	       833	800025cc	0054fb33	and	x22,x9,x5	  x9:0x00000001  x5:0x00000001 x22=0x00000001
        8355000	       834	800025d0	d76a8893	addi	x17,x21,-650	 x21:0x80009fc4 x17=0x80009d3a
        8365000	       835	800025d4	00000013	addi	x0,x0,0	  x0:0x00000000
        8375000	       836	800025d8	00c164b3	or	x9,x2,x12	  x2:0xfffffdff x12:0x000000f0  x9=0xfffffdff
        8385000	       837	800025dc	053de263	bltu	x27,x19,80002620	 x27:0xfffffbc8 x19:0xfffffb7a
        8395000	       838	800025e0	2614ab13	slti	x22,x9,609	  x9:0xfffffdff x22=0x00000001
        8405000	       839	800025e4	a614c897	auipc	x17,0xa614c	 x17=0x2614e5e0
        8415000	       840	800025e8	02285e63	bge	x16,x2,80002624	 x16:0x8000a49b  x2:0xfffffdff
        8425000	       841	800025ec	00173a33	sltu	x20,x14,x1	 x14:0x00000368  x1:0x00000000 x20=0x00000000
        8435000	       842	800025f0	41de01b3	sub	x3,x28,x29	 x28:0x80009ee0 x29:0x000002df  x3=0x80009c01
        8445000	       843	800025f4	006892b3	sll	x5,x17,x6	 x17:0x2614e5e0  x6:0xee91aae9  x5=0x29cbc000
        8455000	       844	800025f8	001f71b3	and	x3,x30,x1	 x30:0x00000001  x1:0x00000000  x3=0x00000000
        8465000	       845	800025fc	71552c13	slti	x24,x10,1813	 x10:0x000144fe x24=0x00000000
        8475000	       846	80002600	00de4a63	blt	x28,x13,80002614	 x28:0x80009ee0 x13:0x00193ea1
        8485000	       847	00000000	00000013	addi	x0,x0,0	  x0:0x00000000
        8495000	       848	80002610	00000013	addi	x0,x0,0	  x0:0x00000000
        8505000	       849	80002614	b84a6c13	ori	x24,x20,-1148	 x20:0x00000000 x24=0xfffffb84
        8515000	       850	80002618	403e08b3	sub	x17,x28,x3	 x28:0x80009ee0  x3:0x00000000 x17=0x80009ee0
        8525000	       851	8000261c	82193d93	sltiu	x27,x18,-2015	 x18:0x00000000 x27=0x00000001
        8535000	       852	80002620	039e6663	bltu	x28,x25,8000264c	 x28:0x80009ee0 x25:0xfe0006eb
        8545000	       853	00000000	00000013	addi	x0,x0,0	  x0:0x00000000
        8555000	       854	80002648	00000013	addi	x0,x0,0	  x0:0x00000000
        8565000	       855	8000264c	05d3f063	bgeu	x7,x29,8000268c	  x7:0x00000001 x29:0x000002df
        8575000	       856	80002650	cd46a293	slti	x5,x13,-812	 x13:0x00193ea1  x5=0x00000000
        8585000	       857	80002654	18fa71b7	lui	x3,0x18fa7	  x3=0x18fa7000
        8595000	       858	80002658	00cb67b3	or	x15,x22,x12	 x22:0x00000001 x12:0x000000f0 x15=0x000000f1
        8605000	       859	8000265c	7d638893	addi	x17,x7,2006	  x7:0x00000001 x17=0x000007d7
        8615000	       860	80002660	00000013	addi	x0,x0,0	  x0:0x00000000
        8625000	       861	80002664	00b5a0b3	slt	x1,x11,x11	 x11:0x00000000 x11:0x00000000  x1=0x00000000
        8635000	       862	80002668	01f4e733	or	x14,x9,x31	  x9:0xfffffdff x31:0x01fffff5 x14=0xffffffff
        8645000	       863	8000266c	011c1b33	sll	x22,x24,x17	 x24:0xfffffb84 x17:0x000007d7 x22=0xc2000000
        8655000	       864	80002670	cacc0593	addi	x11,x24,-852	 x24:0xfffffb84 x11=0xfffff830
        8665000	       865	80002674	00944d33	xor	x26,x8,x9	  x8:0x000000ff  x9:0xfffffdff x26=0xfffffd00
        8675000	       866	80002678	bfc580b7	lui	x1,0xbfc58	  x1=0xbfc58000
        8685000	       867	8000267c	00f71613	slli	x12,x14,0xf	 x14:0xffffffff x12=0xffff8000
        8695000	       868	80002680	41405693	srai	x13,x0,0x14	  x0:0x00000000 x13=0x00000000
        8705000	       869	80002684	00789663	bne	x17,x7,80002690	 x17:0x000007d7  x7:0x00000001
        8715000	       870	00000000	00000013	addi	x0,x0,0	  x0:0x00000000
        8725000	       871	8000268c	00000013	addi	x0,x0,0	  x0:0x00000000
        8735000	       872	80002690	01f87cb3	and	x25,x16,x31	 x16:0x8000a49b x31:0x01fffff5 x25=0x0000a491
        8745000	       873	80002694	00000013	addi	x0,x0,0	  x0:0x00000000
        8755000	       874	80002698	00000013	addi	x0,x0,0	  x0:0x00000000
        8765000	       875	8000269c	23888493	addi	x9,x17,568	 x17:0x000007d7  x9=0x00000a0f
        8775000	       876	800026a0	004e2f03	lw	x30,4(x28)	 x28:0x80009ee0 x30=0x800042a8 PA:0x80009ee4
        8785000	       877	800026a4	00befc33	and	x24,x29,x11	 x29:0x000002df x11:0xfffff830 x24=0x00000010
        8795000	       878	800026a8	f41bbd37	lui	x26,0xf41bb	 x26=0xf41bb000
        8805000	       879	800026ac	01bf10b3	sll	x1,x30,x27	 x30:0x800042a8 x27:0x00000001  x1=0x00008550
        8815000	       880	800026b0	01ce0e13	addi	x28,x28,28	 x28:0x80009ee0 x28=0x80009efc
        8825000	       881	800026b4	24d68713	addi	x14,x13,589	 x13:0x00000000 x14=0x0000024d
        8835000	       882	800026b8	001f0c13	addi	x24,x30,1	 x30:0x800042a8 x24=0x800042a9
        8845000	       883	800026bc	000c0c67	jalr	x24,x24,0	 x24:0x800042a9 x24=0x800026bc
        8855000	       884	00000000	00000013	addi	x0,x0,0	  x0:0x00000000
        8865000	       885	800042a8	00000013	addi	x0,x0,0	  x0:0x00000000
        8875000	       886	800042ac	a0942f93	slti	x31,x8,-1527	  x8:0x000000ff x31=0x00000000
        8885000	       887	800042b0	02a2e263	bltu	x5,x10,800042d4	  x5:0x00000000 x10:0x000144fe
        8895000	       888	00000000	00000013	addi	x0,x0,0	  x0:0x00000000
        8905000	       889	800042d0	00000013	addi	x0,x0,0	  x0:0x00000000
        8915000	       890	800042d4	017a50b3	srl	x1,x20,x23	 x20:0x00000000 x23:0xf091aa4a  x1=0x00000000
        8925000	       891	800042d8	4053d833	sra	x16,x7,x5	  x7:0x00000001  x5:0x00000000 x16=0x00000001
        8935000	       892	800042dc	00dfe533	or	x10,x31,x13	 x31:0x00000000 x13:0x00000000 x10=0x00000000
        8945000	       893	800042e0	ddb10593	addi	x11,x2,-549	  x2:0xfffffdff x11=0xfffffbda
        8955000	       894	800042e4	0196fe63	bgeu	x13,x25,80004300	 x13:0x00000000 x25:0x0000a491
        8965000	       895	800042e8	05da8263	beq	x21,x29,8000432c	 x21:0x80009fc4 x29:0x000002df
        8975000	       896	800042ec	009c3433	sltu	x8,x24,x9	 x24:0x800026bc  x9:0x00000a0f  x8=0x00000000
        8985000	       897	800042f0	016cceb3	xor	x29,x25,x22	 x25:0x0000a491 x22:0xc2000000 x29=0xc200a491
        8995000	       898	800042f4	01f376b3	and	x13,x6,x31	  x6:0xee91aae9 x31:0x00000000 x13=0x00000000
        9005000	       899	800042f8	010a9fb3	sll	x31,x21,x16	 x21:0x80009fc4 x16:0x00000001 x31=0x00013f88
        9015000	       900	800042fc	41a4deb3	sra	x29,x9,x26	  x9:0x00000a0f x26:0xf41bb000 x29=0x00000a0f
        9025000	       901	80004300	014609b3	add	x19,x12,x20	 x12:0xffff8000 x20:0x00000000 x19=0xffff8000
        9035000	       902	80004304	52ddb797	auipc	x15,0x52ddb	 x15=0xd2ddf300
        9045000	       903	80004308	3a387b13	andi	x22,x16,931	 x16:0x00000001 x22=0x00000001
        9055000	       904	8000430c	72389737	lui	x14,0x72389	 x14=0x72389000
        9065000	       905	80004310	007be3b3	or	x7,x23,x7	 x23:0xf091aa4a  x7:0x00000001  x7=0xf091aa4b
        9075000	       906	80004314	28a4e493	ori	x9,x9,650	  x9:0x00000a0f  x9=0x00000a8f
        9085000	       907	80004318	01ab3733	sltu	x14,x22,x26	 x22:0x00000001 x26:0xf41bb000 x14=0x00000001
        9095000	       908	8000431c	cc8df613	andi	x12,x27,-824	 x27:0x00000001 x12=0x00000000
        9105000	       909	80004320	40e7d933	sra	x18,x15,x14	 x15:0xd2ddf300 x14:0x00000001 x18=0xe96ef980
        9115000	       910	80004324	2636dc97	auipc	x25,0x2636d	 x25=0xa6371320
        9125000	       911	80004328	a647f293	andi	x5,x15,-1436	 x15:0xd2ddf300  x5=0xd2ddf200
        9135000	       912	8000432c	41d7d493	srai	x9,x15,0x1d	 x15:0xd2ddf300  x9=0xfffffffe
        9145000	       913	80004330	c544b737	lui	x14,0xc544b	 x14=0xc544b000
        9155000	       914	80004334	f201fdb7	lui	x27,0xf201f	 x27=0xf201f000
        9165000	       915	80004338	1601f293	andi	x5,x3,352	  x3:0x18fa7000  x5=0x00000000
        9175000	       916	8000433c	00e66833	or	x16,x12,x14	 x12:0x00000000 x14:0xc544b000 x16=0xc544b000
        9185000	       917	80004340	699ac4b7	lui	x9,0x699ac	  x9=0x699ac000
        9195000	       918	80004344	cdf49d17	auipc	x26,0xcdf49	 x26=0x4df4d340
        9205000	       919	80004348	004df833	and	x16,x27,x4	 x27:0xf201f000  x4:0x02c88580 x16=0x02008000
        9215000	       920	8000434c	e4441d17	auipc	x26,0xe4441	 x26=0x64445348
        9225000	       921	80004350	00bd7a63	bgeu	x26,x11,80004364	 x26:0x64445348 x11:0xfffffbda
        9235000	       922	80004354	05526663	bltu	x4,x21,800043a0	  x4:0x02c88580 x21:0x80009fc4
        9245000	       923	00000000	00000013	addi	x0,x0,0	  x0:0x00000000
        9255000	       924	8000439c	00000013	addi	x0,x0,0	  x0:0x00000000
        9265000	       925	800043a0	0108dd33	srl	x26,x17,x16	 x17:0x000007d7 x16:0x02008000 x26=0x000007d7
        9275000	       926	800043a4	00186933	or	x18,x16,x1	 x16:0x02008000  x1:0x00000000 x18=0x02008000
        9285000	       927	800043a8	40565533	sra	x10,x12,x5	 x12:0x00000000  x5:0x00000000 x10=0x00000000
        9295000	       928	800043ac	00eb28b3	slt	x17,x22,x14	 x22:0x00000001 x14:0xc544b000 x17=0x00000000
        9305000	       929	800043b0	011732b3	sltu	x5,x14,x17	 x14:0xc544b000 x17:0x00000000  x5=0x00000000
        9315000	       930	800043b4	01c86433	or	x8,x16,x28	 x16:0x02008000 x28:0x80009efc  x8=0x82009efc
        9325000	       931	800043b8	004e2f03	lw	x30,4(x28)	 x28:0x80009efc x30=0x80005240 PA:0x80009f00
        9335000	       932	800043bc	41755713	srai	x14,x10,0x17	 x10:0x00000000 x14=0x00000000
        9345000	       933	800043c0	416583b3	sub	x7,x11,x22	 x11:0xfffffbda x22:0x00000001  x7=0xfffffbd9
        9355000	       934	800043c4	419e05b3	sub	x11,x28,x25	 x28:0x80009efc x25:0xa6371320 x11=0xd9c98bdc
        9365000	       935	800043c8	03ce0e13	addi	x28,x28,60	 x28:0x80009efc x28=0x80009f38
        9375000	       936	800043cc	a0e8e697	auipc	x13,0xa0e8e	 x13=0x20e923c8
        9385000	       937	800043d0	000f0e93	addi	x29,x30,0	 x30:0x80005240 x29=0x80005240
        9395000	       938	800043d4	000e8ee7	jalr	x29,x29,0	 x29:0x80005240 x29=0x800043d4
        9405000	       939	00000000	00000013	addi	x0,x0,0	  x0:0x00000000
        9415000	       940	80005240	00000013	addi	x0,x0,0	  x0:0x00000000
        9425000	       941	80005244	00003117	auipc	x2,0x3	  x2=0x80008240
        9435000	       942	80005248	30010113	addi	x2,x2,768	  x2:0x80008240  x2=0x80008540
        9445000	       943	8000524c	fa93eb13	ori	x22,x7,-87	  x7:0xfffffbd9 x22=0xfffffff9
        9455000	       944	80005250	9efff393	andi	x7,x31,-1553	 x31:0x00013f88  x7=0x00013988
        9465000	       945	80005254	fff10e83	lb	x29,-1(x2)	  x2:0x80008540 x29=0x00000000 PA:0x8000853f
        9475000	       946	80005258	ff110ba3	sb	x17,-9(x2)	  x2:0x80008540 x17:0x00000000 PA:0x80008537
        9485000	       947	8000525c	fe711f23	sh	x7,-2(x2)	  x2:0x80008540  x7:0x00013988 PA:0x8000853e
        9495000	       948	80005260	00614303	lbu	x6,6(x2)	  x2:0x80008540  x6=0x00000000 PA:0x80008546
        9505000	       949	80005264	00510683	lb	x13,5(x2)	  x2:0x80008540 x13=0x00000000 PA:0x80008545
        9515000	       950	80005268	ff211903	lh	x18,-14(x2)	  x2:0x80008540 x18=0x00000000 PA:0x80008532
        9525000	       951	8000526c	00000013	addi	x0,x0,0	  x0:0x00000000
        9535000	       952	80005270	016e8833	add	x16,x29,x22	 x29:0x00000000 x22:0xfffffff9 x16=0xfffffff9
        9545000	       953	80005274	000105a3	sb	x0,11(x2)	  x2:0x80008540  x0:0x00000000 PA:0x8000854b
        9555000	       954	80005278	ffb10303	lb	x6,-5(x2)	  x2:0x80008540  x6=0x00000000 PA:0x8000853b
        9565000	       955	8000527c	ffd14383	lbu	x7,-3(x2)	  x2:0x80008540  x7=0x00000000 PA:0x8000853d
        9575000	       956	80005280	001b54b3	srl	x9,x22,x1	 x22:0xfffffff9  x1:0x00000000  x9=0xfffffff9
        9585000	       957	80005284	01a667b3	or	x15,x12,x26	 x12:0x00000000 x26:0x000007d7 x15=0x000007d7
        9595000	       958	80005288	ff210b03	lb	x22,-14(x2)	  x2:0x80008540 x22=0x00000000 PA:0x80008532
        9605000	       959	8000528c	ff215003	lhu	x0,-14(x2)	  x2:0x80008540 PA:0x80008532
        9615000	       960	80005290	41ec5913	srai	x18,x24,0x1e	 x24:0x800026bc x18=0xfffffffe
        9625000	       961	80005294	681544b7	lui	x9,0x68154	  x9=0x68154000
        9635000	       962	80005298	00d14283	lbu	x5,13(x2)	  x2:0x80008540  x5=0x00000000 PA:0x8000854d
        9645000	       963	8000529c	ffd12e23	sw	x29,-4(x2)	  x2:0x80008540 x29:0x00000000 PA:0x8000853c
        9655000	       964	800052a0	f3fc0993	addi	x19,x24,-193	 x24:0x800026bc x19=0x800025fb
        9665000	       965	800052a4	019aef33	or	x30,x21,x25	 x21:0x80009fc4 x25:0xa6371320 x30=0xa6379fe4
        9675000	       966	800052a8	ffb10303	lb	x6,-5(x2)	  x2:0x80008540  x6=0x00000000 PA:0x8000853b
        9685000	       967	800052ac	41fb0f33	sub	x30,x22,x31	 x22:0x00000000 x31:0x00013f88 x30=0xfffec078
        9695000	       968	800052b0	953f7f93	andi	x31,x30,-1709	 x30:0xfffec078 x31=0xfffec050
        9705000	       969	800052b4	cf760293	addi	x5,x12,-777	 x12:0x00000000  x5=0xfffffcf7
        9715000	       970	800052b8	feb10a23	sb	x11,-12(x2)	  x2:0x80008540 x11:0xd9c98bdc PA:0x80008534
        9725000	       971	800052bc	012beb33	or	x22,x23,x18	 x23:0xf091aa4a x18:0xfffffffe x22=0xfffffffe
        9735000	       972	800052c0	3ddb23b7	lui	x7,0x3ddb2	  x7=0x3ddb2000
        9745000	       973	800052c4	00f10823	sb	x15,16(x2)	  x2:0x80008540 x15:0x000007d7 PA:0x80008550
        9755000	       974	800052c8	1659b913	sltiu	x18,x19,357	 x19:0x800025fb x18=0x00000000
        9765000	       975	800052cc	33991297	auipc	x5,0x33991	  x5=0xb39962c8
        9775000	       976	800052d0	b84942b7	lui	x5,0xb8494	  x5=0xb8494000
        9785000	       977	800052d4	ff714b03	lbu	x22,-9(x2)	  x2:0x80008540 x22=0x00000000 PA:0x80008537
        9795000	       978	00000000	00000013	addi	x0,x0,0	  x0:0x00000000
        9805000	       979	800052d8	ff614683	lbu	x13,-10(x2)	  x2:0x80008540 x13=0x00000000 PA:0x80008536
        9815000	       980	800052dc	01c0f1b3	and	x3,x1,x28	  x1:0x00000000 x28:0x80009f38  x3=0x00000000
        9825000	       981	800052e0	00d10083	lb	x1,13(x2)	  x2:0x80008540  x1=0x00000000 PA:0x8000854d
        9835000	       982	800052e4	00004117	auipc	x2,0x4	  x2=0x800092e0
        9845000	       983	800052e8	89010113	addi	x2,x2,-1904	  x2:0x800092e0  x2=0x80008b70
        9855000	       984	800052ec	014101a3	sb	x20,3(x2)	  x2:0x80008b70 x20:0x00000000 PA:0x80008b73
        9865000	       985	800052f0	d2aab393	sltiu	x7,x21,-726	 x21:0x80009fc4  x7=0x00000001
        9875000	       986	800052f4	35203717	auipc	x14,0x35203	 x14=0xb52082f0
        9885000	       987	800052f8	09d73693	sltiu	x13,x14,157	 x14:0xb52082f0 x13=0x00000000
        9895000	       988	800052fc	ffd10c23	sb	x29,-8(x2)	  x2:0x80008b70 x29:0x00000000 PA:0x80008b68
        9905000	       989	80005300	00111223	sh	x1,4(x2)	  x2:0x80008b70  x1:0x00000000 PA:0x80008b74
        9915000	       990	80005304	ff914903	lbu	x18,-7(x2)	  x2:0x80008b70 x18=0x00000000 PA:0x80008b69
        9925000	       991	80005308	3426f617	auipc	x12,0x3426f	 x12=0xb4274304
        9935000	       992	8000530c	000d9493	slli	x9,x27,0x0	 x27:0xf201f000  x9=0xf201f000
        9945000	       993	80005310	009659b3	srl	x19,x12,x9	 x12:0xb4274304  x9:0xf201f000 x19=0xb4274304
        9955000	       994	80005314	0024f9b3	and	x19,x9,x2	  x9:0xf201f000  x2:0x80008b70 x19=0x80008000
        9965000	       995	80005318	008d5b33	srl	x22,x26,x8	 x26:0x000007d7  x8:0x82009efc x22=0x00000000
        9975000	       996	8000531c	01510723	sb	x21,14(x2)	  x2:0x80008b70 x21:0x80009fc4 PA:0x80008b7e
        9985000	       997	80005320	001d2833	slt	x16,x26,x1	 x26:0x000007d7  x1:0x00000000 x16=0x00000000
        9995000	       998	80005324	01e10823	sb	x30,16(x2)	  x2:0x80008b70 x30:0xfffec078 PA:0x80008b80
       10005000	       999	80005328	0a244593	xori	x11,x8,162	  x8:0x82009efc x11=0x82009e5e
       10015000	      1000	8000532c	37bc4e93	xori	x29,x24,891	 x24:0x800026bc x29=0x800025c7
       10025000	      1001	80005330	00411803	lh	x16,4(x2)	  x2:0x80008b70 x16=0x00000000 PA:0x80008b74
       10035000	      1002	00000000	00000013	addi	x0,x0,0	  x0:0x00000000
       10045000	      1003	80005334	61782293	slti	x5,x16,1559	 x16:0x00000000  x5=0x00000001
       10055000	      1004	80005338	0003c933	xor	x18,x7,x0	  x7:0x00000001  x0:0x00000000 x18=0x00000001
       10065000	      1005	8000533c	000d9613	slli	x12,x27,0x0	 x27:0xf201f000 x12=0xf201f000
       10075000	      1006	80005340	406983b3	sub	x7,x19,x6	 x19:0x80008000  x6:0x00000000  x7=0x80008000
       10085000	      1007	80005344	30316493	ori	x9,x2,771	  x2:0x80008b70  x9=0x80008b73
       10095000	      1008	80005348	db4db893	sltiu	x17,x27,-588	 x27:0xf201f000 x17=0x00000001
       10105000	      1009	8000534c	01010803	lb	x16,16(x2)	  x2:0x80008b70 x16=0x00000078 PA:0x80008b80
       10115000	      1010	80005350	00215783	lhu	x15,2(x2)	  x2:0x80008b70 x15=0x00000000 PA:0x80008b72
       10125000	      1011	80005354	00c3d0b3	srl	x1,x7,x12	  x7:0x80008000 x12:0xf201f000  x1=0x80008000
       10135000	      1012	80005358	419188b3	sub	x17,x3,x25	  x3:0x00000000 x25:0xa6371320 x17=0x59c8ece0
       10145000	      1013	8000535c	ff812283	lw	x5,-8(x2)	  x2:0x80008b70  x5=0x00000000 PA:0x80008b68
       10155000	      1014	80005360	40c7d233	sra	x4,x15,x12	 x15:0x00000000 x12:0xf201f000  x4=0x00000000
       10165000	      1015	80005364	ff914d83	lbu	x27,-7(x2)	  x2:0x80008b70 x27=0x00000000 PA:0x80008b69
       10175000	      1016	80005368	0023f5b3	and	x11,x7,x2	  x7:0x80008000  x2:0x80008b70 x11=0x80008000
       10185000	      1017	8000536c	40ab08b3	sub	x17,x22,x10	 x22:0x00000000 x10:0x00000000 x17=0x00000000
       10195000	      1018	80005370	00cf76b3	and	x13,x30,x12	 x30:0xfffec078 x12:0xf201f000 x13=0xf200c000
       10205000	      1019	80005374	f4abd217	auipc	x4,0xf4abd	  x4=0x74ac2370
       10215000	      1020	80005378	fff10d03	lb	x26,-1(x2)	  x2:0x80008b70 x26=0x00000000 PA:0x80008b6f
       10225000	      1021	8000537c	00003b17	auipc	x22,0x3	 x22=0x80008378
       10235000	      1022	80005380	779b0b13	addi	x22,x22,1913	 x22:0x80008378 x22=0x80008af1
       10245000	      1023	80005384	014bd613	srli	x12,x23,0x14	 x23:0xf091aa4a x12=0x00000f09
       10255000	      1024	80005388	009820b3	slt	x1,x16,x9	 x16:0x00000078  x9:0x80008b73  x1=0x00000000
       10265000	      1025	8000538c	083b1403	lh	x8,131(x22)	 x22:0x80008af1  x8=0x00000000 PA:0x80008b74
       10275000	      1026	80005390	38316793	ori	x15,x2,899	  x2:0x80008b70 x15=0x80008bf3
       10285000	      1027	80005394	e7cb01a3	sb	x28,-413(x22)	 x22:0x80008af1 x28:0x80009f38 PA:0x80008954
       10295000	      1028	80005398	00000013	addi	x0,x0,0	  x0:0x00000000
       10305000	      1029	8000539c	d31b0f23	sb	x17,-706(x22)	 x22:0x80008af1 x17:0x00000000 PA:0x8000882f
       10315000	      1030	800053a0	e9bb4183	lbu	x3,-357(x22)	 x22:0x80008af1  x3=0x00000000 PA:0x8000898c
       10325000	      1031	800053a4	016a08b3	add	x17,x20,x22	 x20:0x00000000 x22:0x80008af1 x17=0x80008af1
       10335000	      1032	800053a8	00d5da13	srli	x20,x11,0xd	 x11:0x80008000 x20=0x00040004
       10345000	      1033	800053ac	f44b0da3	sb	x4,-165(x22)	 x22:0x80008af1  x4:0x74ac2370 PA:0x80008a4c
       10355000	      1034	800053b0	00000013	addi	x0,x0,0	  x0:0x00000000
       10365000	      1035	800053b4	21fb5603	lhu	x12,543(x22)	 x22:0x80008af1 x12=0x00000000 PA:0x80008d10
       10375000	      1036	800053b8	410e8833	sub	x16,x29,x16	 x29:0x800025c7 x16:0x00000078 x16=0x8000254f
       10385000	      1037	800053bc	4181d813	srai	x16,x3,0x18	  x3:0x00000000 x16=0x00000000
       10395000	      1038	800053c0	01ce17b3	sll	x15,x28,x28	 x28:0x80009f38 x28:0x80009f38 x15=0x38000000
       10405000	      1039	800053c4	307b4e83	lbu	x29,775(x22)	 x22:0x80008af1 x29=0x00000000 PA:0x80008df8
       10415000	      1040	800053c8	fc2b0f03	lb	x30,-62(x22)	 x22:0x80008af1 x30=0x00000000 PA:0x80008ab3
       10425000	      1041	800053cc	00353533	sltu	x10,x10,x3	 x10:0x00000000  x3:0x00000000 x10=0x00000000
       10435000	      1042	800053d0	257b0603	lb	x12,599(x22)	 x22:0x80008af1 x12=0x00000000 PA:0x80008d48
       10445000	      1043	800053d4	112b0c23	sb	x18,280(x22)	 x22:0x80008af1 x18:0x00000001 PA:0x80008c09
       10455000	      1044	800053d8	2e4b0aa3	sb	x4,757(x22)	 x22:0x80008af1  x4:0x74ac2370 PA:0x80008de6
       10465000	      1045	800053dc	00004917	auipc	x18,0x4	 x18=0x800093d8
       10475000	      1046	800053e0	9af90913	addi	x18,x18,-1617	 x18:0x800093d8 x18=0x80008d87
       10485000	      1047	800053e4	408055b3	sra	x11,x0,x8	  x0:0x00000000  x8:0x00000000 x11=0x00000000
       10495000	      1048	800053e8	18490303	lb	x6,388(x18)	 x18:0x80008d87  x6=0x00000000 PA:0x80008f0b
       10505000	      1049	800053ec	96992813	slti	x16,x18,-1687	 x18:0x80008d87 x16=0x00000001
       10515000	      1050	800053f0	00da4333	xor	x6,x20,x13	 x20:0x00040004 x13:0xf200c000  x6=0xf204c004
       10525000	      1051	800053f4	01662fb3	slt	x31,x12,x22	 x12:0x00000000 x22:0x80008af1 x31=0x00000000
       10535000	      1052	800053f8	aea90283	lb	x5,-1302(x18)	 x18:0x80008d87  x5=0x00000000 PA:0x80008871
       10545000	      1053	800053fc	01795193	srli	x3,x18,0x17	 x18:0x80008d87  x3=0x00000100
       10555000	      1054	80005400	014c5693	srli	x13,x24,0x14	 x24:0x800026bc x13=0x00000800
       10565000	      1055	80005404	ff890223	sb	x24,-28(x18)	 x18:0x80008d87 x24:0x800026bc PA:0x80008d6b
       10575000	      1056	80005408	40ae5513	srai	x10,x28,0xa	 x28:0x80009f38 x10=0xffe00027
       10585000	      1057	8000540c	fee90003	lb	x0,-18(x18)	 x18:0x80008d87 PA:0x80008d75
       10595000	      1058	80005410	cfe87c93	andi	x25,x16,-770	 x16:0x00000001 x25=0x00000000
       10605000	      1059	80005414	00000013	addi	x0,x0,0	  x0:0x00000000
       10615000	      1060	80005418	09e97193	andi	x3,x18,158	 x18:0x80008d87  x3=0x00000086
       10625000	      1061	8000541c	13290a23	sb	x18,308(x18)	 x18:0x80008d87 x18:0x80008d87 PA:0x80008ebb
       10635000	      1062	80005420	d5591283	lh	x5,-683(x18)	 x18:0x80008d87  x5=0x00000000 PA:0x80008adc
       10645000	      1063	80005424	41b58f33	sub	x30,x11,x27	 x11:0x00000000 x27:0x00000000 x30=0x00000000
       10655000	      1064	80005428	41165693	srai	x13,x12,0x11	 x12:0x00000000 x13=0x00000000
       10665000	      1065	8000542c	d9a10193	addi	x3,x2,-614	  x2:0x80008b70  x3=0x8000890a
       10675000	      1066	80005430	00ef5c93	srli	x25,x30,0xe	 x30:0x00000000 x25=0x00000000
       10685000	      1067	80005434	eea90e83	lb	x29,-278(x18)	 x18:0x80008d87 x29=0x00000000 PA:0x80008c71
       10695000	      1068	00000000	00000013	addi	x0,x0,0	  x0:0x00000000
       10705000	      1069	80005438	66dea013	slti	x0,x29,1645	 x29:0x00000000
       10715000	      1070	8000543c	00807fb3	and	x31,x0,x8	  x0:0x00000000  x8:0x00000000 x31=0x00000000
       10725000	      1071	80005440	01084fb3	xor	x31,x16,x16	 x16:0x00000001 x16:0x00000001 x31=0x00000000
       10735000	      1072	80005444	00e702b3	add	x5,x14,x14	 x14:0xb52082f0 x14:0xb52082f0  x5=0x6a4105e0
       10745000	      1073	80005448	1ae900a3	sb	x14,417(x18)	 x18:0x80008d87 x14:0xb52082f0 PA:0x80008f28
       10755000	      1074	8000544c	e2490823	sb	x4,-464(x18)	 x18:0x80008d87  x4:0x74ac2370 PA:0x80008bb7
       10765000	      1075	80005450	00b9ea33	or	x20,x19,x11	 x19:0x80008000 x11:0x00000000 x20=0x80008000
       10775000	      1076	80005454	ee794803	lbu	x16,-281(x18)	 x18:0x80008d87 x16=0x00000000 PA:0x80008c6e
       10785000	      1077	80005458	00003c17	auipc	x24,0x3	 x24=0x80008454
       10795000	      1078	8000545c	603c0c13	addi	x24,x24,1539	 x24:0x80008454 x24=0x80008a57
       10805000	      1079	80005460	2e7c0703	lb	x14,743(x24)	 x24:0x80008a57 x14=0x00000000 PA:0x80008d3e
       10815000	      1080	80005464	5e234813	xori	x16,x6,1506	  x6:0xf204c004 x16=0xf204c5e6
       10825000	      1081	80005468	1d0de793	ori	x15,x27,464	 x27:0x00000000 x15=0x000001d0
       10835000	      1082	8000546c	c9136d93	ori	x27,x6,-879	  x6:0xf204c004 x27=0xfffffc95
       10845000	      1083	80005470	01873633	sltu	x12,x14,x24	 x14:0x00000000 x24:0x80008a57 x12=0x00000001
       10855000	      1084	80005474	03a6f917	auipc	x18,0x3a6f	 x18=0x83a74470
       10865000	      1085	80005478	41f35a13	srai	x20,x6,0x1f	  x6:0xf204c004 x20=0xffffffff
       10875000	      1086	8000547c	210f6513	ori	x10,x30,528	 x30:0x00000000 x10=0x00000210
       10885000	      1087	80005480	0161d793	srli	x15,x3,0x16	  x3:0x8000890a x15=0x00000200
       10895000	      1088	80005484	ff1c4f83	lbu	x31,-15(x24)	 x24:0x80008a57 x31=0x00000000 PA:0x80008a48
       10905000	      1089	80005488	a32c2593	slti	x11,x24,-1486	 x24:0x80008a57 x11=0x00000001
       10915000	      1090	8000548c	e35c2203	lw	x4,-459(x24)	 x24:0x80008a57  x4=0x00000000 PA:0x8000888c
       10925000	      1091	80005490	dc6c0923	sb	x6,-558(x24)	 x24:0x80008a57  x6:0xf204c004 PA:0x80008829
       10935000	      1092	80005494	01b5cf33	xor	x30,x11,x27	 x11:0x00000001 x27:0xfffffc95 x30=0xfffffc94
       10945000	      1093	80005498	57fc1b03	lh	x22,1407(x24)	 x24:0x80008a57 x22=0x00000000 PA:0x80008fd6
       10955000	      1094	8000549c	00df9893	slli	x17,x31,0xd	 x31:0x00000000 x17=0x00000000
       10965000	      1095	800054a0	1eac0183	lb	x3,490(x24)	 x24:0x80008a57  x3=0x00000000 PA:0x80008c41
       10975000	      1096	800054a4	41868cb3	sub	x25,x13,x24	 x13:0x00000000 x24:0x80008a57 x25=0x7fff75a9
       10985000	      1097	800054a8	238c09a3	sb	x24,563(x24)	 x24:0x80008a57 x24:0x80008a57 PA:0x80008c8a
       10995000	      1098	800054ac	1dac0da3	sb	x26,475(x24)	 x24:0x80008a57 x26:0x00000000 PA:0x80008c32
       11005000	      1099	800054b0	5ac14513	xori	x10,x2,1452	  x2:0x80008b70 x10=0x80008edc
       11015000	      1100	800054b4	139c5883	lhu	x17,313(x24)	 x24:0x80008a57 x17=0x00000000 PA:0x80008b90
       11025000	      1101	800054b8	f90c0523	sb	x16,-118(x24)	 x24:0x80008a57 x16:0xf204c5e6 PA:0x800089e1
       11035000	      1102	800054bc	00000013	addi	x0,x0,0	  x0:0x00000000
       11045000	      1103	800054c0	4edc2403	lw	x8,1261(x24)	 x24:0x80008a57  x8=0x00000000 PA:0x80008f44
       11055000	      1104	800054c4	f34c4803	lbu	x16,-204(x24)	 x24:0x80008a57 x16=0x00000000 PA:0x8000898b
       11065000	      1105	800054c8	00004117	auipc	x2,0x4	  x2=0x800094c4
       11075000	      1106	800054cc	9db10113	addi	x2,x2,-1573	  x2:0x800094c4  x2=0x80008e9f
       11085000	      1107	800054d0	01958d33	add	x26,x11,x25	 x11:0x00000001 x25:0x7fff75a9 x26=0x7fff75aa
       11095000	      1108	800054d4	f8d10ca3	sb	x13,-103(x2)	  x2:0x80008e9f x13:0x00000000 PA:0x80008e38
       11105000	      1109	800054d8	0ae10883	lb	x17,174(x2)	  x2:0x80008e9f x17=0x00000000 PA:0x80008f4d
       11115000	      1110	800054dc	f4c10b23	sb	x12,-170(x2)	  x2:0x80008e9f x12:0x00000001 PA:0x80008df5
       11125000	      1111	800054e0	00325613	srli	x12,x4,0x3	  x4:0x00000000 x12=0x00000000
       11135000	      1112	800054e4	e2b83093	sltiu	x1,x16,-469	 x16:0x00000000  x1=0x00000001
       11145000	      1113	800054e8	f6e10723	sb	x14,-146(x2)	  x2:0x80008e9f x14:0x00000000 PA:0x80008e0d
       11155000	      1114	800054ec	a92bbf93	sltiu	x31,x23,-1390	 x23:0xf091aa4a x31=0x00000001
       11165000	      1115	800054f0	f7711fa3	sh	x23,-129(x2)	  x2:0x80008e9f x23:0xf091aa4a PA:0x80008e1e
       11175000	      1116	800054f4	01fc2433	slt	x8,x24,x31	 x24:0x80008a57 x31:0x00000001  x8=0x00000001
       11185000	      1117	800054f8	40f75613	srai	x12,x14,0xf	 x14:0x00000000 x12=0x00000000
       11195000	      1118	800054fc	816b63b7	lui	x7,0x816b6	  x7=0x816b6000
       11205000	      1119	80005500	f0b15e83	lhu	x29,-245(x2)	  x2:0x80008e9f x29=0x00000000 PA:0x80008daa
       11215000	      1120	80005504	823615b7	lui	x11,0x82361	 x11=0x82361000
       11225000	      1121	80005508	05b15483	lhu	x9,91(x2)	  x2:0x80008e9f  x9=0x00000000 PA:0x80008efa
       11235000	      1122	8000550c	4015dc33	sra	x24,x11,x1	 x11:0x82361000  x1:0x00000001 x24=0xc11b0800
       11245000	      1123	80005510	fdd14783	lbu	x15,-35(x2)	  x2:0x80008e9f x15=0x00000000 PA:0x80008e7c
       11255000	      1124	80005514	fac10523	sb	x12,-86(x2)	  x2:0x80008e9f x12:0x00000000 PA:0x80008e49
       11265000	      1125	80005518	05410203	lb	x4,84(x2)	  x2:0x80008e9f  x4=0x00000000 PA:0x80008ef3
       11275000	      1126	8000551c	f3710183	lb	x3,-201(x2)	  x2:0x80008e9f  x3=0x00000000 PA:0x80008dd6
       11285000	      1127	80005520	f9715783	lhu	x15,-105(x2)	  x2:0x80008e9f x15=0x00000000 PA:0x80008e36
       11295000	      1128	80005524	05310423	sb	x19,72(x2)	  x2:0x80008e9f x19:0x80008000 PA:0x80008ee7
       11305000	      1129	80005528	004593b3	sll	x7,x11,x4	 x11:0x82361000  x4:0x00000000  x7=0x82361000
       11315000	      1130	8000552c	4196d093	srai	x1,x13,0x19	 x13:0x00000000  x1=0x00000000
       11325000	      1131	80005530	f0315383	lhu	x7,-253(x2)	  x2:0x80008e9f  x7=0x00000000 PA:0x80008da2
       11335000	      1132	80005534	00003397	auipc	x7,0x3	  x7=0x80008530
       11345000	      1133	80005538	de338393	addi	x7,x7,-541	  x7:0x80008530  x7=0x80008313
       11355000	      1134	8000553c	fe638c23	sb	x6,-8(x7)	  x7:0x80008313  x6:0xf204c004 PA:0x8000830b
       11365000	      1135	80005540	01851213	slli	x4,x10,0x18	 x10:0x80008edc  x4=0xdc000000
       11375000	      1136	80005544	007387a3	sb	x7,15(x7)	  x7:0x80008313  x7:0x80008313 PA:0x80008322
       11385000	      1137	80005548	ffc38003	lb	x0,-4(x7)	  x7:0x80008313 PA:0x8000830f
       11395000	      1138	8000554c	00cb6033	or	x0,x22,x12	 x22:0x00000000 x12:0x00000000
       11405000	      1139	80005550	ff438f83	lb	x31,-12(x7)	  x7:0x80008313 x31=0x00000000 PA:0x80008307
       11415000	      1140	80005554	00438f03	lb	x30,4(x7)	  x7:0x80008313 x30=0x00000000 PA:0x80008317
       11425000	      1141	80005558	005b9fb3	sll	x31,x23,x5	 x23:0xf091aa4a  x5:0x6a4105e0 x31=0xf091aa4a
       11435000	      1142	8000555c	00bb5593	srli	x11,x22,0xb	 x22:0x00000000 x11=0x00000000
       11445000	      1143	80005560	4179d5b3	sra	x11,x19,x23	 x19:0x80008000 x23:0xf091aa4a x11=0xffe00020
       11455000	      1144	80005564	017380a3	sb	x23,1(x7)	  x7:0x80008313 x23:0xf091aa4a PA:0x80008314
       11465000	      1145	80005568	01585013	srli	x0,x16,0x15	 x16:0x00000000
       11475000	      1146	8000556c	ff53c883	lbu	x17,-11(x7)	  x7:0x80008313 x17=0x00000000 PA:0x80008308
       11485000	      1147	80005570	01095693	srli	x13,x18,0x10	 x18:0x83a74470 x13=0x000083a7
       11495000	      1148	80005574	00000013	addi	x0,x0,0	  x0:0x00000000
       11505000	      1149	80005578	ff838e83	lb	x29,-8(x7)	  x7:0x80008313 x29=0x00000004 PA:0x8000830b
       11515000	      1150	8000557c	4baf8c97	auipc	x25,0x4baf8	 x25=0xcbafd578
       11525000	      1151	80005580	ffa38583	lb	x11,-6(x7)	  x7:0x80008313 x11=0x00000000 PA:0x8000830d
       11535000	      1152	80005584	61df8f13	addi	x30,x31,1565	 x31:0xf091aa4a x30=0xf091b067
       11545000	      1153	80005588	01338523	sb	x19,10(x7)	  x7:0x80008313 x19:0x80008000 PA:0x8000831d
       11555000	      1154	8000558c	403c5513	srai	x10,x24,0x3	 x24:0xc11b0800 x10=0xf8236100
       11565000	      1155	80005590	f6888893	addi	x17,x17,-152	 x17:0x00000000 x17=0xffffff68
       11575000	      1156	80005594	9cb9c613	xori	x12,x19,-1589	 x19:0x80008000 x12=0x7fff79cb
       11585000	      1157	80005598	fe738ea3	sb	x7,-3(x7)	  x7:0x80008313  x7:0x80008313 PA:0x80008310
       11595000	      1158	8000559c	ff138ca3	sb	x17,-7(x7)	  x7:0x80008313 x17:0xffffff68 PA:0x8000830c
       11605000	      1159	800055a0	00003897	auipc	x17,0x3	 x17=0x8000859c
       11615000	      1160	800055a4	c8388893	addi	x17,x17,-893	 x17:0x8000859c x17=0x8000821f
       11625000	      1161	800055a8	4196da13	srai	x20,x13,0x19	 x13:0x000083a7 x20=0x00000000
       11635000	      1162	800055ac	abcaa5b7	lui	x11,0xabcaa	 x11=0xabcaa000
       11645000	      1163	800055b0	5a260d93	addi	x27,x12,1442	 x12:0x7fff79cb x27=0x7fff7f6d
       11655000	      1164	800055b4	058fc493	xori	x9,x31,88	 x31:0xf091aa4a  x9=0xf091aa12
       11665000	      1165	800055b8	07b58713	addi	x14,x11,123	 x11:0xabcaa000 x14=0xabcaa07b
       11675000	      1166	800055bc	ffa8cb03	lbu	x22,-6(x17)	 x17:0x8000821f x22=0x00000000 PA:0x80008219
       11685000	      1167	800055c0	bee13813	sltiu	x16,x2,-1042	  x2:0x80008e9f x16=0x00000001
       11695000	      1168	800055c4	411fd293	srai	x5,x31,0x11	 x31:0xf091aa4a  x5=0xfffff848
       11705000	      1169	800055c8	01a8cf83	lbu	x31,26(x17)	 x17:0x8000821f x31=0x00000000 PA:0x80008239
       11715000	      1170	800055cc	016781b3	add	x3,x15,x22	 x15:0x00000000 x22:0x00000000  x3=0x00000000
       11725000	      1171	800055d0	03288283	lb	x5,50(x17)	 x17:0x8000821f  x5=0x00000000 PA:0x80008251
       11735000	      1172	800055d4	fed88023	sb	x13,-32(x17)	 x17:0x8000821f x13:0x000083a7 PA:0x800081ff
       11745000	      1173	800055d8	00000013	addi	x0,x0,0	  x0:0x00000000
       11755000	      1174	800055dc	40ba80b3	sub	x1,x21,x11	 x21:0x80009fc4 x11:0xabcaa000  x1=0xd435ffc4
       11765000	      1175	800055e0	fe088503	lb	x10,-32(x17)	 x17:0x8000821f x10=0xffffffa7 PA:0x800081ff
       11775000	      1176	800055e4	03288a03	lb	x20,50(x17)	 x17:0x8000821f x20=0x00000000 PA:0x80008251
       11785000	      1177	800055e8	0106b333	sltu	x6,x13,x16	 x13:0x000083a7 x16:0x00000001  x6=0x00000000
       11795000	      1178	800055ec	00c88403	lb	x8,12(x17)	 x17:0x8000821f  x8=0x00000000 PA:0x8000822b
       11805000	      1179	800055f0	40a65933	sra	x18,x12,x10	 x12:0x7fff79cb x10:0xffffffa7 x18=0x00fffef3
       11815000	      1180	800055f4	001900b3	add	x1,x18,x1	 x18:0x00fffef3  x1:0xd435ffc4  x1=0xd535feb7
       11825000	      1181	800055f8	00e88583	lb	x11,14(x17)	 x17:0x8000821f x11=0x00000000 PA:0x8000822d
       11835000	      1182	800055fc	00a0d393	srli	x7,x1,0xa	  x1:0xd535feb7  x7=0x00354d7f
       11845000	      1183	80005600	54175d97	auipc	x27,0x54175	 x27=0xd417a5fc
       11855000	      1184	80005604	fe788403	lb	x8,-25(x17)	 x17:0x8000821f  x8=0x00000000 PA:0x80008206
       11865000	      1185	80005608	e7454093	xori	x1,x10,-396	 x10:0xffffffa7  x1=0x000001d3
       11875000	      1186	8000560c	0153c3b3	xor	x7,x7,x21	  x7:0x00354d7f x21:0x80009fc4  x7=0x8035d2bb
       11885000	      1187	80005610	ff389c83	lh	x25,-13(x17)	 x17:0x8000821f x25=0x00000000 PA:0x80008212
       11895000	      1188	80005614	007814b3	sll	x9,x16,x7	 x16:0x00000001  x7:0x8035d2bb  x9=0x08000000
       11905000	      1189	80005618	00f88c23	sb	x15,24(x17)	 x17:0x8000821f x15:0x00000000 PA:0x80008237
       11915000	      1190	8000561c	40fed033	sra	x0,x29,x15	 x29:0x00000004 x15:0x00000000
       11925000	      1191	80005620	fcb89403	lh	x8,-53(x17)	 x17:0x8000821f  x8=0x00000000 PA:0x800081ea
       11935000	      1192	80005624	67a07f13	andi	x30,x0,1658	  x0:0x00000000 x30=0x00000000
       11945000	      1193	80005628	ffc88f83	lb	x31,-4(x17)	 x17:0x8000821f x31=0x00000000 PA:0x8000821b
       11955000	      1194	8000562c	03e8ce83	lbu	x29,62(x17)	 x17:0x8000821f x29=0x00000000 PA:0x8000825d
       11965000	      1195	80005630	00ac5033	srl	x0,x24,x10	 x24:0xc11b0800 x10:0xffffffa7
       11975000	      1196	80005634	fe188ea3	sb	x1,-3(x17)	 x17:0x8000821f  x1:0x000001d3 PA:0x8000821c
       11985000	      1197	80005638	00088483	lb	x9,0(x17)	 x17:0x8000821f  x9=0x00000000 PA:0x8000821f
       11995000	      1198	8000563c	41eb8333	sub	x6,x23,x30	 x23:0xf091aa4a x30:0x00000000  x6=0xf091aa4a
       12005000	      1199	80005640	00688d83	lb	x27,6(x17)	 x17:0x8000821f x27=0x00000000 PA:0x80008225
       12015000	      1200	80005644	002fc0b3	xor	x1,x31,x2	 x31:0x00000000  x2:0x80008e9f  x1=0x80008e9f
       12025000	      1201	80005648	008892b3	sll	x5,x17,x8	 x17:0x8000821f  x8:0x00000000  x5=0x8000821f
       12035000	      1202	8000564c	0034fdb3	and	x27,x9,x3	  x9:0x00000000  x3:0x00000000 x27=0x00000000
       12045000	      1203	80005650	01615433	srl	x8,x2,x22	  x2:0x80008e9f x22:0x00000000  x8=0x80008e9f
       12055000	      1204	80005654	01a88483	lb	x9,26(x17)	 x17:0x8000821f  x9=0x00000000 PA:0x80008239
       12065000	      1205	80005658	0068ca03	lbu	x20,6(x17)	 x17:0x8000821f x20=0x00000000 PA:0x80008225
       12075000	      1206	8000565c	95918613	addi	x12,x3,-1703	  x3:0x00000000 x12=0xfffff959
       12085000	      1207	80005660	00049d33	sll	x26,x9,x0	  x9:0x00000000  x0:0x00000000 x26=0x00000000
       12095000	      1208	80005664	03e894a3	sh	x30,41(x17)	 x17:0x8000821f x30:0x00000000 PA:0x80008248
       12105000	      1209	80005668	ff388c03	lb	x24,-13(x17)	 x17:0x8000821f x24=0x00000000 PA:0x80008212
       12115000	      1210	8000566c	76344013	xori	x0,x8,1891	  x8:0x80008e9f
       12125000	      1211	80005670	4db36313	ori	x6,x6,1243	  x6:0xf091aa4a  x6=0xf091aedb
       12135000	      1212	80005674	00947263	bgeu	x8,x9,80005678	  x8:0x80008e9f  x9:0x00000000
       12145000	      1213	00000000	00000013	addi	x0,x0,0	  x0:0x00000000
       12155000	      1214	80005674	00000013	addi	x0,x0,0	  x0:0x00000000
       12165000	      1215	80005678	0112c533	xor	x10,x5,x17	  x5:0x8000821f x17:0x8000821f x10=0x00000000
       12175000	      1216	8000567c	00933eb3	sltu	x29,x6,x9	  x6:0xf091aedb  x9:0x00000000 x29=0x00000000
       12185000	      1217	80005680	0342d863	bge	x5,x20,800056b0	  x5:0x8000821f x20:0x00000000
       12195000	      1218	80005684	02187c63	bgeu	x16,x1,800056bc	 x16:0x00000001  x1:0x80008e9f
       12205000	      1219	80005688	4039d8b3	sra	x17,x19,x3	 x19:0x80008000  x3:0x00000000 x17=0x80008000
       12215000	      1220	8000568c	fd29e313	ori	x6,x19,-46	 x19:0x80008000  x6=0xffffffd2
       12225000	      1221	80005690	be65e993	ori	x19,x11,-1050	 x11:0x00000000 x19=0xfffffbe6
       12235000	      1222	80005694	0034ba33	sltu	x20,x9,x3	  x9:0x00000000  x3:0x00000000 x20=0x00000000
       12245000	      1223	80005698	019ce863	bltu	x25,x25,800056a8	 x25:0x00000000 x25:0x00000000
       12255000	      1224	8000569c	406a84b3	sub	x9,x21,x6	 x21:0x80009fc4  x6:0xffffffd2  x9=0x80009ff2
       12265000	      1225	800056a0	00b54e63	blt	x10,x11,800056bc	 x10:0x00000000 x11:0x00000000
       12275000	      1226	800056a4	04e4f063	bgeu	x9,x14,800056e4	  x9:0x80009ff2 x14:0xabcaa07b
       12285000	      1227	800056a8	01718733	add	x14,x3,x23	  x3:0x00000000 x23:0xf091aa4a x14=0xf091aa4a
       12295000	      1228	800056ac	0179b233	sltu	x4,x19,x23	 x19:0xfffffbe6 x23:0xf091aa4a  x4=0x00000000
       12305000	      1229	800056b0	00000013	addi	x0,x0,0	  x0:0x00000000
       12315000	      1230	800056b4	009b24b3	slt	x9,x22,x9	 x22:0x00000000  x9:0x80009ff2  x9=0x00000000
       12325000	      1231	800056b8	00085663	bge	x16,x0,800056c4	 x16:0x00000001  x0:0x00000000
       12335000	      1232	00000000	00000013	addi	x0,x0,0	  x0:0x00000000
       12345000	      1233	800056c0	00000013	addi	x0,x0,0	  x0:0x00000000
       12355000	      1234	800056c4	ab74c137	lui	x2,0xab74c	  x2=0xab74c000
       12365000	      1235	800056c8	412c5833	sra	x16,x24,x18	 x24:0x00000000 x18:0x00fffef3 x16=0x00000000
       12375000	      1236	800056cc	01b15213	srli	x4,x2,0x1b	  x2:0xab74c000  x4=0x00000015
       12385000	      1237	800056d0	41bd00b3	sub	x1,x26,x27	 x26:0x00000000 x27:0x00000000  x1=0x00000000
       12395000	      1238	800056d4	0584e863	bltu	x9,x24,80005724	  x9:0x00000000 x24:0x00000000
       12405000	      1239	800056d8	01ead213	srli	x4,x21,0x1e	 x21:0x80009fc4  x4=0x00000002
       12415000	      1240	800056dc	0059b6b3	sltu	x13,x19,x5	 x19:0xfffffbe6  x5:0x8000821f x13=0x00000000
       12425000	      1241	800056e0	41910533	sub	x10,x2,x25	  x2:0xab74c000 x25:0x00000000 x10=0xab74c000
       12435000	      1242	800056e4	01617863	bgeu	x2,x22,800056f4	  x2:0xab74c000 x22:0x00000000
       12445000	      1243	00000000	00000013	addi	x0,x0,0	  x0:0x00000000
       12455000	      1244	800056f0	00000013	addi	x0,x0,0	  x0:0x00000000
       12465000	      1245	800056f4	036d1a63	bne	x26,x22,80005728	 x26:0x00000000 x22:0x00000000
       12475000	      1246	800056f8	42a50213	addi	x4,x10,1066	 x10:0xab74c000  x4=0xab74c42a
       12485000	      1247	800056fc	1c5b2413	slti	x8,x22,453	 x22:0x00000000  x8=0x00000001
       12495000	      1248	80005700	00000013	addi	x0,x0,0	  x0:0x00000000
       12505000	      1249	80005704	4121da33	sra	x20,x3,x18	  x3:0x00000000 x18:0x00fffef3 x20=0x00000000
       12515000	      1250	80005708	dbe9e313	ori	x6,x19,-578	 x19:0xfffffbe6  x6=0xfffffffe
       12525000	      1251	8000570c	f7d80993	addi	x19,x16,-131	 x16:0x00000000 x19=0xffffff7d
       12535000	      1252	80005710	0039e233	or	x4,x19,x3	 x19:0xffffff7d  x3:0x00000000  x4=0xffffff7d
       12545000	      1253	80005714	017fc2b3	xor	x5,x31,x23	 x31:0x00000000 x23:0xf091aa4a  x5=0xf091aa4a
       12555000	      1254	80005718	62fdbd93	sltiu	x27,x27,1583	 x27:0x00000000 x27=0x00000001
       12565000	      1255	8000571c	6e1e0f13	addi	x30,x28,1761	 x28:0x80009f38 x30=0x8000a619
       12575000	      1256	80005720	a765f793	andi	x15,x11,-1418	 x11:0x00000000 x15=0x00000000
       12585000	      1257	80005724	0064e2b3	or	x5,x9,x6	  x9:0x00000000  x6:0xfffffffe  x5=0xfffffffe
       12595000	      1258	80005728	016ed813	srli	x16,x29,0x16	 x29:0x00000000 x16=0x00000000
       12605000	      1259	8000572c	44f48a13	addi	x20,x9,1103	  x9:0x00000000 x20=0x0000044f
       12615000	      1260	80005730	026a8263	beq	x21,x6,80005754	 x21:0x80009fc4  x6:0xfffffffe
       12625000	      1261	80005734	008dd193	srli	x3,x27,0x8	 x27:0x00000001  x3=0x00000000
       12635000	      1262	80005738	9f990913	addi	x18,x18,-1543	 x18:0x00fffef3 x18=0x00fff8ec
       12645000	      1263	8000573c	c17c3a17	auipc	x20,0xc17c3	 x20=0x417c8738
       12655000	      1264	80005740	006ae463	bltu	x21,x6,80005748	 x21:0x80009fc4  x6:0xfffffffe
       12665000	      1265	00000000	00000013	addi	x0,x0,0	  x0:0x00000000
       12675000	      1266	80005744	00000013	addi	x0,x0,0	  x0:0x00000000
       12685000	      1267	80005748	d6354f93	xori	x31,x10,-669	 x10:0xab74c000 x31=0x548b3d63
       12695000	      1268	8000574c	4007de93	srai	x29,x15,0x0	 x15:0x00000000 x29=0x00000000
       12705000	      1269	80005750	4129d693	srai	x13,x19,0x12	 x19:0xffffff7d x13=0xffffffff
       12715000	      1270	80005754	00000013	addi	x0,x0,0	  x0:0x00000000
       12725000	      1271	80005758	b99ead13	slti	x26,x29,-1127	 x29:0x00000000 x26=0x00000000
       12735000	      1272	8000575c	40ec0633	sub	x12,x24,x14	 x24:0x00000000 x14:0xf091aa4a x12=0x0f6e55b6
       12745000	      1273	80005760	03d08063	beq	x1,x29,80005780	  x1:0x00000000 x29:0x00000000
       12755000	      1274	00000000	00000013	addi	x0,x0,0	  x0:0x00000000
       12765000	      1275	8000577c	00000013	addi	x0,x0,0	  x0:0x00000000
       12775000	      1276	80005780	00765313	srli	x6,x12,0x7	 x12:0x0f6e55b6  x6=0x001edcab
       12785000	      1277	80005784	8b43c893	xori	x17,x7,-1868	  x7:0x8035d2bb x17=0x7fca2a0f
       12795000	      1278	80005788	003749b3	xor	x19,x14,x3	 x14:0xf091aa4a  x3:0x00000000 x19=0xf091aa4a
       12805000	      1279	8000578c	008fd8b3	srl	x17,x31,x8	 x31:0x548b3d63  x8:0x00000001 x17=0x2a459eb1
       12815000	      1280	80005790	41c75593	srai	x11,x14,0x1c	 x14:0xf091aa4a x11=0xffffffff
       12825000	      1281	80005794	01065833	srl	x16,x12,x16	 x12:0x0f6e55b6 x16:0x00000000 x16=0x0f6e55b6
       12835000	      1282	80005798	013482b3	add	x5,x9,x19	  x9:0x00000000 x19:0xf091aa4a  x5=0xf091aa4a
       12845000	      1283	8000579c	01413233	sltu	x4,x2,x20	  x2:0xab74c000 x20:0x417c8738  x4=0x00000000
       12855000	      1284	800057a0	000a7233	and	x4,x20,x0	 x20:0x417c8738  x0:0x00000000  x4=0x00000000
       12865000	      1285	800057a4	4035de93	srai	x29,x11,0x3	 x11:0xffffffff x29=0xffffffff
       12875000	      1286	800057a8	1d288513	addi	x10,x17,466	 x17:0x2a459eb1 x10=0x2a45a083
       12885000	      1287	800057ac	db10f937	lui	x18,0xdb10f	 x18=0xdb10f000
       12895000	      1288	800057b0	059eca63	blt	x29,x25,80005804	 x29:0xffffffff x25:0x00000000
       12905000	      1289	00000000	00000013	addi	x0,x0,0	  x0:0x00000000
       12915000	      1290	80005800	00000013	addi	x0,x0,0	  x0:0x00000000
       12925000	      1291	80005804	01137933	and	x18,x6,x17	  x6:0x001edcab x17:0x2a459eb1 x18=0x00049ca1
       12935000	      1292	80005808	05854863	blt	x10,x24,80005858	 x10:0x2a45a083 x24:0x00000000
       12945000	      1293	8000580c	93c9c613	xori	x12,x19,-1732	 x19:0xf091aa4a x12=0x0f6e5376
       12955000	      1294	80005810	74623113	sltiu	x2,x4,1862	  x4:0x00000000  x2=0x00000001
       12965000	      1295	80005814	02f4d463	bge	x9,x15,8000583c	  x9:0x00000000 x15:0x00000000
       12975000	      1296	00000000	00000013	addi	x0,x0,0	  x0:0x00000000
       12985000	      1297	80005838	00000013	addi	x0,x0,0	  x0:0x00000000
       12995000	      1298	8000583c	05451863	bne	x10,x20,8000588c	 x10:0x2a45a083 x20:0x417c8738
       13005000	      1299	00000000	00000013	addi	x0,x0,0	  x0:0x00000000
       13015000	      1300	80005888	00000013	addi	x0,x0,0	  x0:0x00000000
       13025000	      1301	8000588c	0100d863	bge	x1,x16,8000589c	  x1:0x00000000 x16:0x0f6e55b6
       13035000	      1302	80005890	00d84cb3	xor	x25,x16,x13	 x16:0x0f6e55b6 x13:0xffffffff x25=0xf091aa49
       13045000	      1303	80005894	02980e63	beq	x16,x9,800058d0	 x16:0x0f6e55b6  x9:0x00000000
       13055000	      1304	80005898	00000013	addi	x0,x0,0	  x0:0x00000000
       13065000	      1305	8000589c	04f00893	addi	x17,x0,79	  x0:0x00000000 x17=0x0000004f
       13075000	      1306	800058a0	01e85a63	bge	x16,x30,800058b4	 x16:0x0f6e55b6 x30:0x8000a619
       13085000	      1307	00000000	00000013	addi	x0,x0,0	  x0:0x00000000
       13095000	      1308	800058b0	00000013	addi	x0,x0,0	  x0:0x00000000
       13105000	      1309	800058b4	00bb1313	slli	x6,x22,0xb	 x22:0x00000000  x6=0x00000000
       13115000	      1310	800058b8	004e6cb3	or	x25,x28,x4	 x28:0x80009f38  x4:0x00000000 x25=0x80009f38
       13125000	      1311	800058bc	39573897	auipc	x17,0x39573	 x17=0xb95788b8
       13135000	      1312	800058c0	01ed4033	xor	x0,x26,x30	 x26:0x00000000 x30:0x8000a619
       13145000	      1313	800058c4	03fa5e63	bge	x20,x31,80005900	 x20:0x417c8738 x31:0x548b3d63
       13155000	      1314	800058c8	0d9c0e93	addi	x29,x24,217	 x24:0x00000000 x29=0x000000d9
       13165000	      1315	800058cc	42bae793	ori	x15,x21,1067	 x21:0x80009fc4 x15=0x80009fef
       13175000	      1316	800058d0	01c227b3	slt	x15,x4,x28	  x4:0x00000000 x28:0x80009f38 x15=0x00000000
       13185000	      1317	800058d4	00421713	slli	x14,x4,0x4	  x4:0x00000000 x14=0x00000000
       13195000	      1318	800058d8	02b2e063	bltu	x5,x11,800058f8	  x5:0xf091aa4a x11:0xffffffff
       13205000	      1319	00000000	00000013	addi	x0,x0,0	  x0:0x00000000
       13215000	      1320	800058f4	00000013	addi	x0,x0,0	  x0:0x00000000
       13225000	      1321	800058f8	018045b3	xor	x11,x0,x24	  x0:0x00000000 x24:0x00000000 x11=0x00000000
       13235000	      1322	800058fc	006083b3	add	x7,x1,x6	  x1:0x00000000  x6:0x00000000  x7=0x00000000
       13245000	      1323	80005900	01474263	blt	x14,x20,80005904	 x14:0x00000000 x20:0x417c8738
       13255000	      1324	00000000	00000013	addi	x0,x0,0	  x0:0x00000000
       13265000	      1325	80005900	00000013	addi	x0,x0,0	  x0:0x00000000
       13275000	      1326	80005904	00fd4a33	xor	x20,x26,x15	 x26:0x00000000 x15:0x00000000 x20=0x00000000
       13285000	      1327	80005908	0157f863	bgeu	x15,x21,80005918	 x15:0x00000000 x21:0x80009fc4
       13295000	      1328	8000590c	00774933	xor	x18,x14,x7	 x14:0x00000000  x7:0x00000000 x18=0x00000000
       13305000	      1329	80005910	00a9ca63	blt	x19,x10,80005924	 x19:0xf091aa4a x10:0x2a45a083
       13315000	      1330	00000000	00000013	addi	x0,x0,0	  x0:0x00000000
       13325000	      1331	80005920	00000013	addi	x0,x0,0	  x0:0x00000000
       13335000	      1332	80005924	04664863	blt	x12,x6,80005974	 x12:0x0f6e5376  x6:0x00000000
       13345000	      1333	80005928	41485c93	srai	x25,x16,0x14	 x16:0x0f6e55b6 x25=0x000000f6
       13355000	      1334	8000592c	01969b33	sll	x22,x13,x25	 x13:0xffffffff x25:0x000000f6 x22=0xffc00000
       13365000	      1335	80005930	01b8e133	or	x2,x17,x27	 x17:0xb95788b8 x27:0x00000001  x2=0xb95788b9
       13375000	      1336	80005934	005f9593	slli	x11,x31,0x5	 x31:0x548b3d63 x11=0x9167ac60
       13385000	      1337	80005938	016a89b3	add	x19,x21,x22	 x21:0x80009fc4 x22:0xffc00000 x19=0x7fc09fc4
       13395000	      1338	8000593c	61a66113	ori	x2,x12,1562	 x12:0x0f6e5376  x2=0x0f6e577e
       13405000	      1339	80005940	03346263	bltu	x8,x19,80005964	  x8:0x00000001 x19:0x7fc09fc4
       13415000	      1340	00000000	00000013	addi	x0,x0,0	  x0:0x00000000
       13425000	      1341	80005960	00000013	addi	x0,x0,0	  x0:0x00000000
       13435000	      1342	80005964	00567863	bgeu	x12,x5,80005974	 x12:0x0f6e5376  x5:0xf091aa4a
       13445000	      1343	80005968	403c07b3	sub	x15,x24,x3	 x24:0x00000000  x3:0x00000000 x15=0x00000000
       13455000	      1344	8000596c	053d1663	bne	x26,x19,800059b8	 x26:0x00000000 x19:0x7fc09fc4
       13465000	      1345	00000000	00000013	addi	x0,x0,0	  x0:0x00000000
       13475000	      1346	800059b4	00000013	addi	x0,x0,0	  x0:0x00000000
       13485000	      1347	800059b8	00072033	slt	x0,x14,x0	 x14:0x00000000  x0:0x00000000
       13495000	      1348	800059bc	7d7d6213	ori	x4,x26,2007	 x26:0x00000000  x4=0x000007d7
       13505000	      1349	800059c0	01561493	slli	x9,x12,0x15	 x12:0x0f6e5376  x9=0x6ec00000
       13515000	      1350	800059c4	ffa54d93	xori	x27,x10,-6	 x10:0x2a45a083 x27=0xd5ba5f79
       13525000	      1351	800059c8	03f57a63	bgeu	x10,x31,800059fc	 x10:0x2a45a083 x31:0x548b3d63
       13535000	      1352	800059cc	41d28c33	sub	x24,x5,x29	  x5:0xf091aa4a x29:0x000000d9 x24=0xf091a971
       13545000	      1353	800059d0	4140dc33	sra	x24,x1,x20	  x1:0x00000000 x20:0x00000000 x24=0x00000000
       13555000	      1354	800059d4	0321e663	bltu	x3,x18,80005a00	  x3:0x00000000 x18:0x00000000
       13565000	      1355	800059d8	0055ec33	or	x24,x11,x5	 x11:0x9167ac60  x5:0xf091aa4a x24=0xf1f7ae6a
       13575000	      1356	800059dc	01381593	slli	x11,x16,0x13	 x16:0x0f6e55b6 x11=0xadb00000
       13585000	      1357	800059e0	00bae133	or	x2,x21,x11	 x21:0x80009fc4 x11:0xadb00000  x2=0xadb09fc4
       13595000	      1358	800059e4	05538863	beq	x7,x21,80005a34	  x7:0x00000000 x21:0x80009fc4
       13605000	      1359	800059e8	00000013	addi	x0,x0,0	  x0:0x00000000
       13615000	      1360	800059ec	00c8dc13	srli	x24,x17,0xc	 x17:0xb95788b8 x24=0x000b9578
       13625000	      1361	800059f0	00c80cb3	add	x25,x16,x12	 x16:0x0f6e55b6 x12:0x0f6e5376 x25=0x1edca92c
       13635000	      1362	800059f4	01a81663	bne	x16,x26,80005a00	 x16:0x0f6e55b6 x26:0x00000000
       13645000	      1363	00000000	00000013	addi	x0,x0,0	  x0:0x00000000
       13655000	      1364	800059fc	00000013	addi	x0,x0,0	  x0:0x00000000
       13665000	      1365	80005a00	0016de63	bge	x13,x1,80005a1c	 x13:0xffffffff  x1:0x00000000
       13675000	      1366	80005a04	bb0c3937	lui	x18,0xbb0c3	 x18=0xbb0c3000
       13685000	      1367	80005a08	01694733	xor	x14,x18,x22	 x18:0xbb0c3000 x22:0xffc00000 x14=0x44cc3000
       13695000	      1368	80005a0c	d9824a13	xori	x20,x4,-616	  x4:0x000007d7 x20=0xfffffa4f
       13705000	      1369	80005a10	40dbd233	sra	x4,x23,x13	 x23:0xf091aa4a x13:0xffffffff  x4=0xffffffff
       13715000	      1370	80005a14	00491913	slli	x18,x18,0x4	 x18:0xbb0c3000 x18=0xb0c30000
       13725000	      1371	80005a18	63c82513	slti	x10,x16,1596	 x16:0x0f6e55b6 x10=0x00000000
       13735000	      1372	80005a1c	00f5c133	xor	x2,x11,x15	 x11:0xadb00000 x15:0x00000000  x2=0xadb00000
       13745000	      1373	80005a20	0598c463	blt	x17,x25,80005a68	 x17:0xb95788b8 x25:0x1edca92c
       13755000	      1374	00000000	00000013	addi	x0,x0,0	  x0:0x00000000
       13765000	      1375	80005a64	00000013	addi	x0,x0,0	  x0:0x00000000
       13775000	      1376	80005a68	007cc263	blt	x25,x7,80005a6c	 x25:0x1edca92c  x7:0x00000000
       13785000	      1377	80005a6c	00e45733	srl	x14,x8,x14	  x8:0x00000001 x14:0x44cc3000 x14=0x00000001
       13795000	      1378	80005a70	01a310b3	sll	x1,x6,x26	  x6:0x00000000 x26:0x00000000  x1=0x00000000
       13805000	      1379	80005a74	01d25d13	srli	x26,x4,0x1d	  x4:0xffffffff x26=0x00000007
       13815000	      1380	80005a78	e6770713	addi	x14,x14,-409	 x14:0x00000001 x14=0xfffffe68
       13825000	      1381	80005a7c	4b8ced17	auipc	x26,0x4b8ce	 x26=0xcb8d3a78
       13835000	      1382	80005a80	013cb133	sltu	x2,x25,x19	 x25:0x1edca92c x19:0x7fc09fc4  x2=0x00000001
       13845000	      1383	80005a84	01040463	beq	x8,x16,80005a8c	  x8:0x00000001 x16:0x0f6e55b6
       13855000	      1384	80005a88	01f59893	slli	x17,x11,0x1f	 x11:0xadb00000 x17=0x00000000
       13865000	      1385	80005a8c	01d1c133	xor	x2,x3,x29	  x3:0x00000000 x29:0x000000d9  x2=0x000000d9
       13875000	      1386	80005a90	2de97d93	andi	x27,x18,734	 x18:0xb0c30000 x27=0x00000000
       13885000	      1387	80005a94	400a5233	sra	x4,x20,x0	 x20:0xfffffa4f  x0:0x00000000  x4=0xfffffa4f
       13895000	      1388	80005a98	00f30133	add	x2,x6,x15	  x6:0x00000000 x15:0x00000000  x2=0x00000000
       13905000	      1389	80005a9c	002b6533	or	x10,x22,x2	 x22:0xffc00000  x2:0x00000000 x10=0xffc00000
       13915000	      1390	80005aa0	1d972c93	slti	x25,x14,473	 x14:0xfffffe68 x25=0x00000001
       13925000	      1391	80005aa4	a7413f97	auipc	x31,0xa7413	 x31=0x27418aa0
       13935000	      1392	80005aa8	005cb1b3	sltu	x3,x25,x5	 x25:0x00000001  x5:0xf091aa4a  x3=0x00000001
       13945000	      1393	80005aac	00000013	addi	x0,x0,0	  x0:0x00000000
       13955000	      1394	80005ab0	0002d333	srl	x6,x5,x0	  x5:0xf091aa4a  x0:0x00000000  x6=0xf091aa4a
       13965000	      1395	80005ab4	4053dfb3	sra	x31,x7,x5	  x7:0x00000000  x5:0xf091aa4a x31=0x00000000
       13975000	      1396	80005ab8	405e5093	srai	x1,x28,0x5	 x28:0x80009f38  x1=0xfc0004f9
       13985000	      1397	80005abc	00de0e63	beq	x28,x13,80005ad8	 x28:0x80009f38 x13:0xffffffff
       13995000	      1398	80005ac0	0077c463	blt	x15,x7,80005ac8	 x15:0x00000000  x7:0x00000000
       14005000	      1399	80005ac4	400c8c33	sub	x24,x25,x0	 x25:0x00000001  x0:0x00000000 x24=0x00000001
       14015000	      1400	80005ac8	41dc5033	sra	x0,x24,x29	 x24:0x00000001 x29:0x000000d9
       14025000	      1401	80005acc	01bd5393	srli	x7,x26,0x1b	 x26:0xcb8d3a78  x7=0x00000019
       14035000	      1402	80005ad0	0176c6b3	xor	x13,x13,x23	 x13:0xffffffff x23:0xf091aa4a x13=0x0f6e55b5
       14045000	      1403	80005ad4	0037f0b3	and	x1,x15,x3	 x15:0x00000000  x3:0x00000001  x1=0x00000000
       14055000	      1404	80005ad8	41a45933	sra	x18,x8,x26	  x8:0x00000001 x26:0xcb8d3a78 x18=0x00000000
       14065000	      1405	80005adc	00aba5b3	slt	x11,x23,x10	 x23:0xf091aa4a x10:0xffc00000 x11=0x00000001
       14075000	      1406	80005ae0	4002d693	srai	x13,x5,0x0	  x5:0xf091aa4a x13=0xf091aa4a
       14085000	      1407	80005ae4	42d57a17	auipc	x20,0x42d57	 x20=0xc2d5cae0
       14095000	      1408	80005ae8	01161db3	sll	x27,x12,x17	 x12:0x0f6e5376 x17:0x00000000 x27=0x0f6e5376
       14105000	      1409	80005aec	01adfa63	bgeu	x27,x26,80005b00	 x27:0x0f6e5376 x26:0xcb8d3a78
       14115000	      1410	80005af0	01dee0b3	or	x1,x29,x29	 x29:0x000000d9 x29:0x000000d9  x1=0x000000d9
       14125000	      1411	80005af4	0b9aca63	blt	x21,x25,80005ba8	 x21:0x80009fc4 x25:0x00000001
       14135000	      1412	00000000	00000013	addi	x0,x0,0	  x0:0x00000000
       14145000	      1413	80005ba4	00000013	addi	x0,x0,0	  x0:0x00000000
       14155000	      1414	80005ba8	d3142293	slti	x5,x8,-719	  x8:0x00000001  x5=0x00000000
       14165000	      1415	80005bac	00a09513	slli	x10,x1,0xa	  x1:0x000000d9 x10=0x00036400
       14175000	      1416	80005bb0	01641613	slli	x12,x8,0x16	  x8:0x00000001 x12=0x00400000
       14185000	      1417	80005bb4	015cf0b3	and	x1,x25,x21	 x25:0x00000001 x21:0x80009fc4  x1=0x00000000
       14195000	      1418	80005bb8	4c04d997	auipc	x19,0x4c04d	 x19=0xcc052bb4
       14205000	      1419	80005bbc	006d29b3	slt	x19,x26,x6	 x26:0xcb8d3a78  x6:0xf091aa4a x19=0x00000001
       14215000	      1420	80005bc0	5641b593	sltiu	x11,x3,1380	  x3:0x00000001 x11=0x00000001
       14225000	      1421	80005bc4	009c9933	sll	x18,x25,x9	 x25:0x00000001  x9:0x6ec00000 x18=0x00000001
       14235000	      1422	80005bc8	03221063	bne	x4,x18,80005be8	  x4:0xfffffa4f x18:0x00000001
       14245000	      1423	00000000	00000013	addi	x0,x0,0	  x0:0x00000000
       14255000	      1424	80005be4	00000013	addi	x0,x0,0	  x0:0x00000000
       14265000	      1425	80005be8	00cfc1b3	xor	x3,x31,x12	 x31:0x00000000 x12:0x00400000  x3=0x00400000
       14275000	      1426	80005bec	03865a63	bge	x12,x24,80005c20	 x12:0x00400000 x24:0x00000001
       14285000	      1427	00000000	00000013	addi	x0,x0,0	  x0:0x00000000
       14295000	      1428	80005c1c	00000013	addi	x0,x0,0	  x0:0x00000000
       14305000	      1429	80005c20	019eaf33	slt	x30,x29,x25	 x29:0x000000d9 x25:0x00000001 x30=0x00000000
       14315000	      1430	80005c24	00e6d393	srli	x7,x13,0xe	 x13:0xf091aa4a  x7=0x0003c246
       14325000	      1431	80005c28	00af35b3	sltu	x11,x30,x10	 x30:0x00000000 x10:0x00036400 x11=0x00000001
       14335000	      1432	80005c2c	00717933	and	x18,x2,x7	  x2:0x00000000  x7:0x0003c246 x18=0x00000000
       14345000	      1433	80005c30	01730db3	add	x27,x6,x23	  x6:0xf091aa4a x23:0xf091aa4a x27=0xe1235494
       14355000	      1434	80005c34	7305ff93	andi	x31,x11,1840	 x11:0x00000001 x31=0x00000000
       14365000	      1435	80005c38	0421d863	bge	x3,x2,80005c88	  x3:0x00400000  x2:0x00000000
       14375000	      1436	00000000	00000013	addi	x0,x0,0	  x0:0x00000000
       14385000	      1437	80005c84	00000013	addi	x0,x0,0	  x0:0x00000000
       14395000	      1438	80005c88	03af9263	bne	x31,x26,80005cac	 x31:0x00000000 x26:0xcb8d3a78
       14405000	      1439	00000000	00000013	addi	x0,x0,0	  x0:0x00000000
       14415000	      1440	80005ca8	00000013	addi	x0,x0,0	  x0:0x00000000
       14425000	      1441	80005cac	00fbca33	xor	x20,x23,x15	 x23:0xf091aa4a x15:0x00000000 x20=0xf091aa4a
       14435000	      1442	80005cb0	401edd13	srai	x26,x29,0x1	 x29:0x000000d9 x26=0x0000006c
       14445000	      1443	80005cb4	0047dd33	srl	x26,x15,x4	 x15:0x00000000  x4:0xfffffa4f x26=0x00000000
       14455000	      1444	80005cb8	40e35f13	srai	x30,x6,0xe	  x6:0xf091aa4a x30=0xffffc246
       14465000	      1445	80005cbc	00000013	addi	x0,x0,0	  x0:0x00000000
       14475000	      1446	80005cc0	018b9663	bne	x23,x24,80005ccc	 x23:0xf091aa4a x24:0x00000001
       14485000	      1447	00000000	00000013	addi	x0,x0,0	  x0:0x00000000
       14495000	      1448	80005cc8	00000013	addi	x0,x0,0	  x0:0x00000000
       14505000	      1449	80005ccc	007499b3	sll	x19,x9,x7	  x9:0x6ec00000  x7:0x0003c246 x19=0xb0000000
       14515000	      1450	80005cd0	0429c463	blt	x19,x2,80005d18	 x19:0xb0000000  x2:0x00000000
       14525000	      1451	00000000	00000013	addi	x0,x0,0	  x0:0x00000000
       14535000	      1452	80005d14	00000013	addi	x0,x0,0	  x0:0x00000000
       14545000	      1453	80005d18	018d9013	slli	x0,x27,0x18	 x27:0xe1235494
       14555000	      1454	80005d1c	01a97033	and	x0,x18,x26	 x18:0x00000000 x26:0x00000000
       14565000	      1455	80005d20	39ce0c13	addi	x24,x28,924	 x28:0x80009f38 x24=0x8000a2d4
       14575000	      1456	80005d24	017fbdb3	sltu	x27,x31,x23	 x31:0x00000000 x23:0xf091aa4a x27=0x00000001
       14585000	      1457	80005d28	01a726b3	slt	x13,x14,x26	 x14:0xfffffe68 x26:0x00000000 x13=0x00000001
       14595000	      1458	80005d2c	00bd6863	bltu	x26,x11,80005d3c	 x26:0x00000000 x11:0x00000001
       14605000	      1459	00000000	00000013	addi	x0,x0,0	  x0:0x00000000
       14615000	      1460	80005d38	00000013	addi	x0,x0,0	  x0:0x00000000
       14625000	      1461	80005d3c	01a652b3	srl	x5,x12,x26	 x12:0x00400000 x26:0x00000000  x5=0x00400000
       14635000	      1462	80005d40	36d3f793	andi	x15,x7,877	  x7:0x0003c246 x15=0x00000244
       14645000	      1463	80005d44	005ec4b3	xor	x9,x29,x5	 x29:0x000000d9  x5:0x00400000  x9=0x004000d9
       14655000	      1464	80005d48	00000013	addi	x0,x0,0	  x0:0x00000000
       14665000	      1465	80005d4c	40a25f93	srai	x31,x4,0xa	  x4:0xfffffa4f x31=0xfffffffe
       14675000	      1466	80005d50	00a1d013	srli	x0,x3,0xa	  x3:0x00400000
       14685000	      1467	80005d54	409b05b3	sub	x11,x22,x9	 x22:0xffc00000  x9:0x004000d9 x11=0xff7fff27
       14695000	      1468	80005d58	0a4ba9b7	lui	x19,0xa4ba	 x19=0x0a4ba000
       14705000	      1469	80005d5c	4128dcb3	sra	x25,x17,x18	 x17:0x00000000 x18:0x00000000 x25=0x00000000
       14715000	      1470	80005d60	00ae8933	add	x18,x29,x10	 x29:0x000000d9 x10:0x00036400 x18=0x000364d9
       14725000	      1471	80005d64	00b5b4b3	sltu	x9,x11,x11	 x11:0xff7fff27 x11:0xff7fff27  x9=0x00000000
       14735000	      1472	80005d68	407d82b3	sub	x5,x27,x7	 x27:0x00000001  x7:0x0003c246  x5=0xfffc3dbb
       14745000	      1473	80005d6c	00908e63	beq	x1,x9,80005d88	  x1:0x00000000  x9:0x00000000
       14755000	      1474	00000000	00000013	addi	x0,x0,0	  x0:0x00000000
       14765000	      1475	80005d84	00000013	addi	x0,x0,0	  x0:0x00000000
       14775000	      1476	80005d88	01d159b3	srl	x19,x2,x29	  x2:0x00000000 x29:0x000000d9 x19=0x00000000
       14785000	      1477	80005d8c	01429593	slli	x11,x5,0x14	  x5:0xfffc3dbb x11=0xdbb00000
       14795000	      1478	80005d90	00ce1613	slli	x12,x28,0xc	 x28:0x80009f38 x12=0x09f38000
       14805000	      1479	80005d94	bea03713	sltiu	x14,x0,-1046	  x0:0x00000000 x14=0x00000001
       14815000	      1480	80005d98	02f40e63	beq	x8,x15,80005dd4	  x8:0x00000001 x15:0x00000244
       14825000	      1481	80005d9c	03cbd663	bge	x23,x28,80005dc8	 x23:0xf091aa4a x28:0x80009f38
       14835000	      1482	00000000	00000013	addi	x0,x0,0	  x0:0x00000000
       14845000	      1483	80005dc4	00000013	addi	x0,x0,0	  x0:0x00000000
       14855000	      1484	80005dc8	04e2c063	blt	x5,x14,80005e08	  x5:0xfffc3dbb x14:0x00000001
       14865000	      1485	00000000	00000013	addi	x0,x0,0	  x0:0x00000000
       14875000	      1486	80005e04	00000013	addi	x0,x0,0	  x0:0x00000000
       14885000	      1487	80005e08	3cc43613	sltiu	x12,x8,972	  x8:0x00000001 x12=0x00000001
       14895000	      1488	80005e0c	00168b33	add	x22,x13,x1	 x13:0x00000001  x1:0x00000000 x22=0x00000001
       14905000	      1489	80005e10	01485b33	srl	x22,x16,x20	 x16:0x0f6e55b6 x20:0xf091aa4a x22=0x0003db95
       14915000	      1490	80005e14	00d40663	beq	x8,x13,80005e20	  x8:0x00000001 x13:0x00000001
       14925000	      1491	00000000	00000013	addi	x0,x0,0	  x0:0x00000000
       14935000	      1492	80005e1c	00000013	addi	x0,x0,0	  x0:0x00000000
       14945000	      1493	80005e20	00000013	addi	x0,x0,0	  x0:0x00000000
       14955000	      1494	80005e24	cfa64313	xori	x6,x12,-774	 x12:0x00000001  x6=0xfffffcfb
       14965000	      1495	80005e28	00000013	addi	x0,x0,0	  x0:0x00000000
       14975000	      1496	80005e2c	8ad34693	xori	x13,x6,-1875	  x6:0xfffffcfb x13=0x00000456
       14985000	      1497	80005e30	00cdd933	srl	x18,x27,x12	 x27:0x00000001 x12:0x00000001 x18=0x00000000
       14995000	      1498	80005e34	41e789b3	sub	x19,x15,x30	 x15:0x00000244 x30:0xffffc246 x19=0x00003ffe
       15005000	      1499	80005e38	04c77663	bgeu	x14,x12,80005e84	 x14:0x00000001 x12:0x00000001
       15015000	      1500	00000000	00000013	addi	x0,x0,0	  x0:0x00000000
       15025000	      1501	80005e80	00000013	addi	x0,x0,0	  x0:0x00000000
       15035000	      1502	80005e84	014d3933	sltu	x18,x26,x20	 x26:0x00000000 x20:0xf091aa4a x18=0x00000001
       15045000	      1503	80005e88	40f45f33	sra	x30,x8,x15	  x8:0x00000001 x15:0x00000244 x30=0x00000000
       15055000	      1504	80005e8c	03cce863	bltu	x25,x28,80005ebc	 x25:0x00000000 x28:0x80009f38
       15065000	      1505	00000000	00000013	addi	x0,x0,0	  x0:0x00000000
       15075000	      1506	80005eb8	00000013	addi	x0,x0,0	  x0:0x00000000
       15085000	      1507	80005ebc	01d0d933	srl	x18,x1,x29	  x1:0x00000000 x29:0x000000d9 x18=0x00000000
       15095000	      1508	80005ec0	a61806b7	lui	x13,0xa6180	 x13=0xa6180000
       15105000	      1509	80005ec4	0062b233	sltu	x4,x5,x6	  x5:0xfffc3dbb  x6:0xfffffcfb  x4=0x00000001
       15115000	      1510	80005ec8	400dd513	srai	x10,x27,0x0	 x27:0x00000001 x10=0x00000001
       15125000	      1511	80005ecc	00319413	slli	x8,x3,0x3	  x3:0x00400000  x8=0x02000000
       15135000	      1512	80005ed0	001b0833	add	x16,x22,x1	 x22:0x0003db95  x1:0x00000000 x16=0x0003db95
       15145000	      1513	80005ed4	00d4a8b3	slt	x17,x9,x13	  x9:0x00000000 x13:0xa6180000 x17=0x00000000
       15155000	      1514	80005ed8	00000013	addi	x0,x0,0	  x0:0x00000000
       15165000	      1515	80005edc	018fd263	bge	x31,x24,80005ee0	 x31:0xfffffffe x24:0x8000a2d4
       15175000	      1516	00000000	00000013	addi	x0,x0,0	  x0:0x00000000
       15185000	      1517	80005edc	00000013	addi	x0,x0,0	  x0:0x00000000
       15195000	      1518	80005ee0	0080c863	blt	x1,x8,80005ef0	  x1:0x00000000  x8:0x02000000
       15205000	      1519	00000000	00000013	addi	x0,x0,0	  x0:0x00000000
       15215000	      1520	80005eec	00000013	addi	x0,x0,0	  x0:0x00000000
       15225000	      1521	80005ef0	01e41d93	slli	x27,x8,0x1e	  x8:0x02000000 x27=0x00000000
       15235000	      1522	80005ef4	011c0e63	beq	x24,x17,80005f10	 x24:0x8000a2d4 x17:0x00000000
       15245000	      1523	80005ef8	00000013	addi	x0,x0,0	  x0:0x00000000
       15255000	      1524	80005efc	01c27263	bgeu	x4,x28,80005f00	  x4:0x00000001 x28:0x80009f38
       15265000	      1525	80005f00	016ef1b3	and	x3,x29,x22	 x29:0x000000d9 x22:0x0003db95  x3=0x00000091
       15275000	      1526	80005f04	00fd0db3	add	x27,x26,x15	 x26:0x00000000 x15:0x00000244 x27=0x00000244
       15285000	      1527	80005f08	01fe1f93	slli	x31,x28,0x1f	 x28:0x80009f38 x31=0x00000000
       15295000	      1528	80005f0c	1acdea13	ori	x20,x27,428	 x27:0x00000244 x20=0x000003ec
       15305000	      1529	80005f10	4157d033	sra	x0,x15,x21	 x15:0x00000244 x21:0x80009fc4
       15315000	      1530	80005f14	40cc5493	srai	x9,x24,0xc	 x24:0x8000a2d4  x9=0xfff8000a
       15325000	      1531	80005f18	01da1863	bne	x20,x29,80005f28	 x20:0x000003ec x29:0x000000d9
       15335000	      1532	00000000	00000013	addi	x0,x0,0	  x0:0x00000000
       15345000	      1533	80005f24	00000013	addi	x0,x0,0	  x0:0x00000000
       15355000	      1534	80005f28	01df7f93	andi	x31,x30,29	 x30:0x00000000 x31=0x00000000
       15365000	      1535	80005f2c	77b02513	slti	x10,x0,1915	  x0:0x00000000 x10=0x00000001
       15375000	      1536	80005f30	331be713	ori	x14,x23,817	 x23:0xf091aa4a x14=0xf091ab7b
       15385000	      1537	80005f34	e6b20c17	auipc	x24,0xe6b20	 x24=0x66b25f30
       15395000	      1538	80005f38	6e151397	auipc	x7,0x6e151	  x7=0xee156f34
       15405000	      1539	80005f3c	41858633	sub	x12,x11,x24	 x11:0xdbb00000 x24:0x66b25f30 x12=0x74fda0d0
       15415000	      1540	80005f40	40edd033	sra	x0,x27,x14	 x27:0x00000244 x14:0xf091ab7b
       15425000	      1541	80005f44	41008633	sub	x12,x1,x16	  x1:0x00000000 x16:0x0003db95 x12=0xfffc246b
       15435000	      1542	80005f48	005fd013	srli	x0,x31,0x5	 x31:0x00000000
       15445000	      1543	80005f4c	00000013	addi	x0,x0,0	  x0:0x00000000
       15455000	      1544	80005f50	40625b13	srai	x22,x4,0x6	  x4:0x00000001 x22=0x00000000
       15465000	      1545	80005f54	1d944893	xori	x17,x8,473	  x8:0x02000000 x17=0x020001d9
       15475000	      1546	80005f58	03c25a63	bge	x4,x28,80005f8c	  x4:0x00000001 x28:0x80009f38
       15485000	      1547	00000000	00000013	addi	x0,x0,0	  x0:0x00000000
       15495000	      1548	80005f88	00000013	addi	x0,x0,0	  x0:0x00000000
       15505000	      1549	80005f8c	02685a63	bge	x16,x6,80005fc0	 x16:0x0003db95  x6:0xfffffcfb
       15515000	      1550	00000000	00000013	addi	x0,x0,0	  x0:0x00000000
       15525000	      1551	80005fbc	00000013	addi	x0,x0,0	  x0:0x00000000
       15535000	      1552	80005fc0	c4a23313	sltiu	x6,x4,-950	  x4:0x00000001  x6=0x00000001
       15545000	      1553	80005fc4	2a7206b7	lui	x13,0x2a720	 x13=0x2a720000
       15555000	      1554	80005fc8	417b5793	srai	x15,x22,0x17	 x22:0x00000000 x15=0x00000000
       15565000	      1555	80005fcc	01d937b3	sltu	x15,x18,x29	 x18:0x00000000 x29:0x000000d9 x15=0x00000001
       15575000	      1556	80005fd0	0127c333	xor	x6,x15,x18	 x15:0x00000001 x18:0x00000000  x6=0x00000001
       15585000	      1557	80005fd4	000fd0b3	srl	x1,x31,x0	 x31:0x00000000  x0:0x00000000  x1=0x00000000
       15595000	      1558	80005fd8	01e1e463	bltu	x3,x30,80005fe0	  x3:0x00000091 x30:0x00000000
       15605000	      1559	80005fdc	01339fb3	sll	x31,x7,x19	  x7:0xee156f34 x19:0x00003ffe x31=0x00000000
       15615000	      1560	80005fe0	538bfb13	andi	x22,x23,1336	 x23:0xf091aa4a x22=0x00000008
       15625000	      1561	80005fe4	02888c63	beq	x17,x8,8000601c	 x17:0x020001d9  x8:0x02000000
       15635000	      1562	80005fe8	007bb2b3	sltu	x5,x23,x7	 x23:0xf091aa4a  x7:0xee156f34  x5=0x00000000
       15645000	      1563	80005fec	052bd463	bge	x23,x18,80006034	 x23:0xf091aa4a x18:0x00000000
       15655000	      1564	80005ff0	00d71993	slli	x19,x14,0xd	 x14:0xf091ab7b x19=0x356f6000
       15665000	      1565	80005ff4	043e5663	bge	x28,x3,80006040	 x28:0x80009f38  x3:0x00000091
       15675000	      1566	80005ff8	f2f561b7	lui	x3,0xf2f56	  x3=0xf2f56000
       15685000	      1567	80005ffc	00c16033	or	x0,x2,x12	  x2:0x00000000 x12:0xfffc246b
       15695000	      1568	80006000	01849cb3	sll	x25,x9,x24	  x9:0xfff8000a x24:0x66b25f30 x25=0x000a0000
       15705000	      1569	80006004	a319e613	ori	x12,x19,-1487	 x19:0x356f6000 x12=0xfffffa31
       15715000	      1570	80006008	01fb0833	add	x16,x22,x31	 x22:0x00000008 x31:0x00000000 x16=0x00000008
       15725000	      1571	8000600c	26d66313	ori	x6,x12,621	 x12:0xfffffa31  x6=0xfffffa7d
       15735000	      1572	80006010	017af1b3	and	x3,x21,x23	 x21:0x80009fc4 x23:0xf091aa4a  x3=0x80008a40
       15745000	      1573	80006014	05ad5063	bge	x26,x26,80006054	 x26:0x00000000 x26:0x00000000
       15755000	      1574	00000000	00000013	addi	x0,x0,0	  x0:0x00000000
       15765000	      1575	80006050	00000013	addi	x0,x0,0	  x0:0x00000000
       15775000	      1576	80006054	01531533	sll	x10,x6,x21	  x6:0xfffffa7d x21:0x80009fc4 x10=0xffffa7d0
       15785000	      1577	80006058	5a877737	lui	x14,0x5a877	 x14=0x5a877000
       15795000	      1578	8000605c	01e95d93	srli	x27,x18,0x1e	 x18:0x00000000 x27=0x00000000
       15805000	      1579	80006060	05f54463	blt	x10,x31,800060a8	 x10:0xffffa7d0 x31:0x00000000
       15815000	      1580	00000000	00000013	addi	x0,x0,0	  x0:0x00000000
       15825000	      1581	800060a4	00000013	addi	x0,x0,0	  x0:0x00000000
       15835000	      1582	800060a8	99778c13	addi	x24,x15,-1641	 x15:0x00000001 x24=0xfffff998
       15845000	      1583	800060ac	01da80b3	add	x1,x21,x29	 x21:0x80009fc4 x29:0x000000d9  x1=0x8000a09d
       15855000	      1584	800060b0	77eef013	andi	x0,x29,1918	 x29:0x000000d9
       15865000	      1585	800060b4	0175d533	srl	x10,x11,x23	 x11:0xdbb00000 x23:0xf091aa4a x10=0x0036ec00
       15875000	      1586	800060b8	3b9efb13	andi	x22,x29,953	 x29:0x000000d9 x22=0x00000099
       15885000	      1587	800060bc	01b89933	sll	x18,x17,x27	 x17:0x020001d9 x27:0x00000000 x18=0x020001d9
       15895000	      1588	800060c0	01100233	add	x4,x0,x17	  x0:0x00000000 x17:0x020001d9  x4=0x020001d9
       15905000	      1589	800060c4	02477063	bgeu	x14,x4,800060e4	 x14:0x5a877000  x4:0x020001d9
       15915000	      1590	00000000	00000013	addi	x0,x0,0	  x0:0x00000000
       15925000	      1591	800060e0	00000013	addi	x0,x0,0	  x0:0x00000000
       15935000	      1592	800060e4	016a1eb3	sll	x29,x20,x22	 x20:0x000003ec x22:0x00000099 x29=0xd8000000
       15945000	      1593	800060e8	b67d6237	lui	x4,0xb67d6	  x4=0xb67d6000
       15955000	      1594	800060ec	018cd593	srli	x11,x25,0x18	 x25:0x000a0000 x11=0x00000000
       15965000	      1595	800060f0	004e86b3	add	x13,x29,x4	 x29:0xd8000000  x4:0xb67d6000 x13=0x8e7d6000
       15975000	      1596	800060f4	00ec0a63	beq	x24,x14,80006108	 x24:0xfffff998 x14:0x5a877000
       15985000	      1597	800060f8	01811813	slli	x16,x2,0x18	  x2:0x00000000 x16=0x00000000
       15995000	      1598	800060fc	40d35cb3	sra	x25,x6,x13	  x6:0xfffffa7d x13:0x8e7d6000 x25=0xfffffa7d
       16005000	      1599	80006100	407301b3	sub	x3,x6,x7	  x6:0xfffffa7d  x7:0xee156f34  x3=0x11ea8b49
       16015000	      1600	80006104	b4c64597	auipc	x11,0xb4c64	 x11=0x34c6a100
       16025000	      1601	80006108	00f51d13	slli	x26,x10,0xf	 x10:0x0036ec00 x26=0x76000000
       16035000	      1602	8000610c	01aa9693	slli	x13,x21,0x1a	 x21:0x80009fc4 x13=0x10000000
       16045000	      1603	80006110	40175b33	sra	x22,x14,x1	 x14:0x5a877000  x1:0x8000a09d x22=0x00000002
       16055000	      1604	80006114	00b72c33	slt	x24,x14,x11	 x14:0x5a877000 x11:0x34c6a100 x24=0x00000000
       16065000	      1605	80006118	007ac0b3	xor	x1,x21,x7	 x21:0x80009fc4  x7:0xee156f34  x1=0x6e15f0f0
       16075000	      1606	8000611c	00e7e6b3	or	x13,x15,x14	 x15:0x00000001 x14:0x5a877000 x13=0x5a877001
       16085000	      1607	80006120	c5066e93	ori	x29,x12,-944	 x12:0xfffffa31 x29=0xfffffe71
       16095000	      1608	80006124	003cd833	srl	x16,x25,x3	 x25:0xfffffa7d  x3:0x11ea8b49 x16=0x007ffffd
       16105000	      1609	80006128	011bde63	bge	x23,x17,80006144	 x23:0xf091aa4a x17:0x020001d9
       16115000	      1610	8000612c	0092d693	srli	x13,x5,0x9	  x5:0x00000000 x13=0x00000000
       16125000	      1611	80006130	0050f933	and	x18,x1,x5	  x1:0x6e15f0f0  x5:0x00000000 x18=0x00000000
       16135000	      1612	80006134	18d31c37	lui	x24,0x18d31	 x24=0x18d31000
       16145000	      1613	80006138	022ef463	bgeu	x29,x2,80006160	 x29:0xfffffe71  x2:0x00000000
       16155000	      1614	00000000	00000013	addi	x0,x0,0	  x0:0x00000000
       16165000	      1615	8000615c	00000013	addi	x0,x0,0	  x0:0x00000000
       16175000	      1616	80006160	40acd333	sra	x6,x25,x10	 x25:0xfffffa7d x10:0x0036ec00  x6=0xfffffa7d
       16185000	      1617	80006164	00000013	addi	x0,x0,0	  x0:0x00000000
       16195000	      1618	80006168	00dcedb3	or	x27,x25,x13	 x25:0xfffffa7d x13:0x00000000 x27=0xfffffa7d
       16205000	      1619	8000616c	011dea63	bltu	x27,x17,80006180	 x27:0xfffffa7d x17:0x020001d9
       16215000	      1620	80006170	91165597	auipc	x11,0x91165	 x11=0x1116b16c
       16225000	      1621	80006174	01aaf233	and	x4,x21,x26	 x21:0x80009fc4 x26:0x76000000  x4=0x00000000
       16235000	      1622	80006178	00cbea33	or	x20,x23,x12	 x23:0xf091aa4a x12:0xfffffa31 x20=0xfffffa7b
       16245000	      1623	8000617c	40c353b3	sra	x7,x6,x12	  x6:0xfffffa7d x12:0xfffffa31  x7=0xffffffff
       16255000	      1624	80006180	007fa9b3	slt	x19,x31,x7	 x31:0x00000000  x7:0xffffffff x19=0x00000000
       16265000	      1625	80006184	00000013	addi	x0,x0,0	  x0:0x00000000
       16275000	      1626	80006188	409657b3	sra	x15,x12,x9	 x12:0xfffffa31  x9:0xfff8000a x15=0xfffffffe
       16285000	      1627	8000618c	004328b3	slt	x17,x6,x4	  x6:0xfffffa7d  x4:0x00000000 x17=0x00000001
       16295000	      1628	80006190	40f98c33	sub	x24,x19,x15	 x19:0x00000000 x15:0xfffffffe x24=0x00000002
       16305000	      1629	80006194	f79d8313	addi	x6,x27,-135	 x27:0xfffffa7d  x6=0xfffff9f6
       16315000	      1630	80006198	01ef6463	bltu	x30,x30,800061a0	 x30:0x00000000 x30:0x00000000
       16325000	      1631	8000619c	ae578d37	lui	x26,0xae578	 x26=0xae578000
       16335000	      1632	800061a0	00a48463	beq	x9,x10,800061a8	  x9:0xfff8000a x10:0x0036ec00
       16345000	      1633	800061a4	001ecd33	xor	x26,x29,x1	 x29:0xfffffe71  x1:0x6e15f0f0 x26=0x91ea0e81
       16355000	      1634	800061a8	03f5e663	bltu	x11,x31,800061d4	 x11:0x1116b16c x31:0x00000000
       16365000	      1635	800061ac	01965533	srl	x10,x12,x25	 x12:0xfffffa31 x25:0xfffffa7d x10=0x00000007
       16375000	      1636	800061b0	491d63b7	lui	x7,0x491d6	  x7=0x491d6000
       16385000	      1637	800061b4	01e55e63	bge	x10,x30,800061d0	 x10:0x00000007 x30:0x00000000
       16395000	      1638	00000000	00000013	addi	x0,x0,0	  x0:0x00000000
       16405000	      1639	800061cc	00000013	addi	x0,x0,0	  x0:0x00000000
       16415000	      1640	800061d0	03e7fa63	bgeu	x15,x30,80006204	 x15:0xfffffffe x30:0x00000000
       16425000	      1641	00000000	00000013	addi	x0,x0,0	  x0:0x00000000
       16435000	      1642	80006200	00000013	addi	x0,x0,0	  x0:0x00000000
       16445000	      1643	80006204	6cd43613	sltiu	x12,x8,1741	  x8:0x02000000 x12=0x00000000
       16455000	      1644	80006208	40e0d293	srai	x5,x1,0xe	  x1:0x6e15f0f0  x5=0x0001b857
       16465000	      1645	8000620c	0072eb33	or	x22,x5,x7	  x5:0x0001b857  x7:0x491d6000 x22=0x491df857
       16475000	      1646	80006210	04120113	addi	x2,x4,65	  x4:0x00000000  x2=0x00000041
       16485000	      1647	80006214	810b0013	addi	x0,x22,-2032	 x22:0x491df857
       16495000	      1648	80006218	41655d13	srai	x26,x10,0x16	 x10:0x00000007 x26=0x00000000
       16505000	      1649	8000621c	00ff1b33	sll	x22,x30,x15	 x30:0x00000000 x15:0xfffffffe x22=0x00000000
       16515000	      1650	80006220	654e8393	addi	x7,x29,1620	 x29:0xfffffe71  x7=0x000004c5
       16525000	      1651	80006224	410f5393	srai	x7,x30,0x10	 x30:0x00000000  x7=0x00000000
       16535000	      1652	80006228	00acf833	and	x16,x25,x10	 x25:0xfffffa7d x10:0x00000007 x16=0x00000005
       16545000	      1653	8000622c	020f6e63	bltu	x30,x0,80006268	 x30:0x00000000  x0:0x00000000
       16555000	      1654	80006230	01d478b3	and	x17,x8,x29	  x8:0x02000000 x29:0xfffffe71 x17=0x02000000
       16565000	      1655	80006234	01315633	srl	x12,x2,x19	  x2:0x00000041 x19:0x00000000 x12=0x00000041
       16575000	      1656	80006238	00d59d93	slli	x27,x11,0xd	 x11:0x1116b16c x27=0xd62d8000
       16585000	      1657	8000623c	00ee95b3	sll	x11,x29,x14	 x29:0xfffffe71 x14:0x5a877000 x11=0xfffffe71
       16595000	      1658	80006240	00e1db33	srl	x22,x3,x14	  x3:0x11ea8b49 x14:0x5a877000 x22=0x11ea8b49
       16605000	      1659	80006244	0040f863	bgeu	x1,x4,80006254	  x1:0x6e15f0f0  x4:0x00000000
       16615000	      1660	00000000	00000013	addi	x0,x0,0	  x0:0x00000000
       16625000	      1661	80006250	00000013	addi	x0,x0,0	  x0:0x00000000
       16635000	      1662	80006254	003a9613	slli	x12,x21,0x3	 x21:0x80009fc4 x12=0x0004fe20
       16645000	      1663	80006258	020f0c63	beq	x30,x0,80006290	 x30:0x00000000  x0:0x00000000
       16655000	      1664	00000000	00000013	addi	x0,x0,0	  x0:0x00000000
       16665000	      1665	8000628c	00000013	addi	x0,x0,0	  x0:0x00000000
       16675000	      1666	80006290	00d0a133	slt	x2,x1,x13	  x1:0x6e15f0f0 x13:0x00000000  x2=0x00000000
       16685000	      1667	80006294	00102433	slt	x8,x0,x1	  x0:0x00000000  x1:0x6e15f0f0  x8=0x00000001
       16695000	      1668	80006298	00000013	addi	x0,x0,0	  x0:0x00000000
       16705000	      1669	8000629c	f8023693	sltiu	x13,x4,-128	  x4:0x00000000 x13=0x00000001
       16715000	      1670	800062a0	00000013	addi	x0,x0,0	  x0:0x00000000
       16725000	      1671	800062a4	41b481b3	sub	x3,x9,x27	  x9:0xfff8000a x27:0xd62d8000  x3=0x29ca800a
       16735000	      1672	800062a8	00cf5033	srl	x0,x30,x12	 x30:0x00000000 x12:0x0004fe20
       16745000	      1673	800062ac	0127f863	bgeu	x15,x18,800062bc	 x15:0xfffffffe x18:0x00000000
       16755000	      1674	00000000	00000013	addi	x0,x0,0	  x0:0x00000000
       16765000	      1675	800062b8	00000013	addi	x0,x0,0	  x0:0x00000000
       16775000	      1676	800062bc	00000013	addi	x0,x0,0	  x0:0x00000000
       16785000	      1677	800062c0	012669b3	or	x19,x12,x18	 x12:0x0004fe20 x18:0x00000000 x19=0x0004fe20
       16795000	      1678	800062c4	001a86b3	add	x13,x21,x1	 x21:0x80009fc4  x1:0x6e15f0f0 x13=0xee1690b4
       16805000	      1679	800062c8	60e34b13	xori	x22,x6,1550	  x6:0xfffff9f6 x22=0xfffffff8
       16815000	      1680	800062cc	01e184b3	add	x9,x3,x30	  x3:0x29ca800a x30:0x00000000  x9=0x29ca800a
       16825000	      1681	800062d0	4a58f313	andi	x6,x17,1189	 x17:0x02000000  x6=0x00000000
       16835000	      1682	800062d4	00d3f463	bgeu	x7,x13,800062dc	  x7:0x00000000 x13:0xee1690b4
       16845000	      1683	800062d8	00b9cfb3	xor	x31,x19,x11	 x19:0x0004fe20 x11:0xfffffe71 x31=0xfffb0051
       16855000	      1684	800062dc	2910bd97	auipc	x27,0x2910b	 x27=0xa91112d8
       16865000	      1685	800062e0	00509133	sll	x2,x1,x5	  x1:0x6e15f0f0  x5:0x0001b857  x2=0x78000000
       16875000	      1686	800062e4	03028863	beq	x5,x16,80006314	  x5:0x0001b857 x16:0x00000005
       16885000	      1687	800062e8	184fe113	ori	x2,x31,388	 x31:0xfffb0051  x2=0xfffb01d5
       16895000	      1688	800062ec	40ffdf93	srai	x31,x31,0xf	 x31:0xfffb0051 x31=0xfffffff6
       16905000	      1689	800062f0	1df80b13	addi	x22,x16,479	 x16:0x00000005 x22=0x000001e4
       16915000	      1690	800062f4	418ddfb3	sra	x31,x27,x24	 x27:0xa91112d8 x24:0x00000002 x31=0xea4444b6
       16925000	      1691	800062f8	00ba4863	blt	x20,x11,80006308	 x20:0xfffffa7b x11:0xfffffe71
       16935000	      1692	00000000	00000013	addi	x0,x0,0	  x0:0x00000000
       16945000	      1693	80006304	00000013	addi	x0,x0,0	  x0:0x00000000
       16955000	      1694	80006308	b6652517	auipc	x10,0xb6652	 x10=0x36658304
       16965000	      1695	8000630c	41ec5cb3	sra	x25,x24,x30	 x24:0x00000002 x30:0x00000000 x25=0x00000002
       16975000	      1696	80006310	006a7333	and	x6,x20,x6	 x20:0xfffffa7b  x6:0x00000000  x6=0x00000000
       16985000	      1697	80006314	400cde93	srai	x29,x25,0x0	 x25:0x00000002 x29=0x00000002
       16995000	      1698	80006318	fd913197	auipc	x3,0xfd913	  x3=0x7d919314
       17005000	      1699	8000631c	00ba5233	srl	x4,x20,x11	 x20:0xfffffa7b x11:0xfffffe71  x4=0x00007fff
       17015000	      1700	80006320	0173ee63	bltu	x7,x23,8000633c	  x7:0x00000000 x23:0xf091aa4a
       17025000	      1701	00000000	00000013	addi	x0,x0,0	  x0:0x00000000
       17035000	      1702	80006338	00000013	addi	x0,x0,0	  x0:0x00000000
       17045000	      1703	8000633c	9d658993	addi	x19,x11,-1578	 x11:0xfffffe71 x19=0xfffff847
       17055000	      1704	80006340	d0897c13	andi	x24,x18,-760	 x18:0x00000000 x24=0x00000000
       17065000	      1705	80006344	031dc663	blt	x27,x17,80006370	 x27:0xa91112d8 x17:0x02000000
       17075000	      1706	00000000	00000013	addi	x0,x0,0	  x0:0x00000000
       17085000	      1707	8000636c	00000013	addi	x0,x0,0	  x0:0x00000000
       17095000	      1708	80006370	e9f23d13	sltiu	x26,x4,-353	  x4:0x00007fff x26=0x00000001
       17105000	      1709	80006374	22e76737	lui	x14,0x22e76	 x14=0x22e76000
       17115000	      1710	80006378	40950cb3	sub	x25,x10,x9	 x10:0x36658304  x9:0x29ca800a x25=0x0c9b02fa
       17125000	      1711	8000637c	01c75463	bge	x14,x28,80006384	 x14:0x22e76000 x28:0x80009f38
       17135000	      1712	00000000	00000013	addi	x0,x0,0	  x0:0x00000000
       17145000	      1713	80006380	00000013	addi	x0,x0,0	  x0:0x00000000
       17155000	      1714	80006384	012fc233	xor	x4,x31,x18	 x31:0xea4444b6 x18:0x00000000  x4=0xea4444b6
       17165000	      1715	80006388	05da0663	beq	x20,x29,800063d4	 x20:0xfffffa7b x29:0x00000002
       17175000	      1716	8000638c	00d86cb3	or	x25,x16,x13	 x16:0x00000005 x13:0xee1690b4 x25=0xee1690b5
       17185000	      1717	80006390	00234e63	blt	x6,x2,800063ac	  x6:0x00000000  x2:0xfffb01d5
       17195000	      1718	80006394	97e6c313	xori	x6,x13,-1666	 x13:0xee1690b4  x6=0x11e969ca
       17205000	      1719	80006398	00979f33	sll	x30,x15,x9	 x15:0xfffffffe  x9:0x29ca800a x30=0xfffff800
       17215000	      1720	8000639c	cf298d13	addi	x26,x19,-782	 x19:0xfffff847 x26=0xfffff539
       17225000	      1721	800063a0	f93a2213	slti	x4,x20,-109	 x20:0xfffffa7b  x4=0x00000001
       17235000	      1722	800063a4	40050933	sub	x18,x10,x0	 x10:0x36658304  x0:0x00000000 x18=0x36658304
       17245000	      1723	800063a8	f66fb513	sltiu	x10,x31,-154	 x31:0xea4444b6 x10=0x00000001
       17255000	      1724	800063ac	00d78433	add	x8,x15,x13	 x15:0xfffffffe x13:0xee1690b4  x8=0xee1690b2
       17265000	      1725	800063b0	005d8eb3	add	x29,x27,x5	 x27:0xa91112d8  x5:0x0001b857 x29=0xa912cb2f
       17275000	      1726	800063b4	00fb99b3	sll	x19,x23,x15	 x23:0xf091aa4a x15:0xfffffffe x19=0x80000000
       17285000	      1727	800063b8	00000013	addi	x0,x0,0	  x0:0x00000000
       17295000	      1728	800063bc	00b472b3	and	x5,x8,x11	  x8:0xee1690b2 x11:0xfffffe71  x5=0xee169030
       17305000	      1729	800063c0	d47e6193	ori	x3,x28,-697	 x28:0x80009f38  x3=0xffffff7f
       17315000	      1730	800063c4	0ad6e993	ori	x19,x13,173	 x13:0xee1690b4 x19=0xee1690bd
       17325000	      1731	800063c8	01585033	srl	x0,x16,x21	 x16:0x00000005 x21:0x80009fc4
       17335000	      1732	800063cc	1fa0b713	sltiu	x14,x1,506	  x1:0x6e15f0f0 x14=0x00000000
       17345000	      1733	800063d0	50d7af93	slti	x31,x15,1293	 x15:0xfffffffe x31=0x00000001
       17355000	      1734	800063d4	b8597793	andi	x15,x18,-1147	 x18:0x36658304 x15=0x36658304
       17365000	      1735	800063d8	01e55113	srli	x2,x10,0x1e	 x10:0x00000001  x2=0x00000000
       17375000	      1736	800063dc	d922a113	slti	x2,x5,-622	  x5:0xee169030  x2=0x00000001
       17385000	      1737	800063e0	00f5e033	or	x0,x11,x15	 x11:0xfffffe71 x15:0x36658304
       17395000	      1738	800063e4	01e50d33	add	x26,x10,x30	 x10:0x00000001 x30:0xfffff800 x26=0xfffff801
       17405000	      1739	800063e8	002ba9b3	slt	x19,x23,x2	 x23:0xf091aa4a  x2:0x00000001 x19=0x00000001
       17415000	      1740	800063ec	03931063	bne	x6,x25,8000640c	  x6:0x11e969ca x25:0xee1690b5
       17425000	      1741	00000000	00000013	addi	x0,x0,0	  x0:0x00000000
       17435000	      1742	80006408	00000013	addi	x0,x0,0	  x0:0x00000000
       17445000	      1743	8000640c	00607f33	and	x30,x0,x6	  x0:0x00000000  x6:0x11e969ca x30=0x00000000
       17455000	      1744	80006410	72cab593	sltiu	x11,x21,1836	 x21:0x80009fc4 x11=0x00000000
       17465000	      1745	80006414	00000013	addi	x0,x0,0	  x0:0x00000000
       17475000	      1746	80006418	012396b3	sll	x13,x7,x18	  x7:0x00000000 x18:0x36658304 x13=0x00000000
       17485000	      1747	8000641c	b8d03113	sltiu	x2,x0,-1139	  x0:0x00000000  x2=0x00000001
       17495000	      1748	80006420	0118c263	blt	x17,x17,80006424	 x17:0x02000000 x17:0x02000000
       17505000	      1749	80006424	0132e5b3	or	x11,x5,x19	  x5:0xee169030 x19:0x00000001 x11=0xee169031
       17515000	      1750	80006428	00000013	addi	x0,x0,0	  x0:0x00000000
       17525000	      1751	8000642c	00d48663	beq	x9,x13,80006438	  x9:0x29ca800a x13:0x00000000
       17535000	      1752	80006430	003775b3	and	x11,x14,x3	 x14:0x00000000  x3:0xffffff7f x11=0x00000000
       17545000	      1753	80006434	d36d0093	addi	x1,x26,-714	 x26:0xfffff801  x1=0xfffff537
       17555000	      1754	80006438	4f582393	slti	x7,x16,1269	 x16:0x00000005  x7=0x00000001
       17565000	      1755	8000643c	016d23b3	slt	x7,x26,x22	 x26:0xfffff801 x22:0x000001e4  x7=0x00000001
       17575000	      1756	80006440	0066f8b3	and	x17,x13,x6	 x13:0x00000000  x6:0x11e969ca x17=0x00000000
       17585000	      1757	80006444	01812f33	slt	x30,x2,x24	  x2:0x00000001 x24:0x00000000 x30=0x00000000
       17595000	      1758	80006448	a3737813	andi	x16,x6,-1481	  x6:0x11e969ca x16=0x11e96802
       17605000	      1759	8000644c	40c75593	srai	x11,x14,0xc	 x14:0x00000000 x11=0x00000000
       17615000	      1760	80006450	006d40b3	xor	x1,x26,x6	 x26:0xfffff801  x6:0x11e969ca  x1=0xee1691cb
       17625000	      1761	80006454	00766033	or	x0,x12,x7	 x12:0x0004fe20  x7:0x00000001
       17635000	      1762	80006458	01dc16b3	sll	x13,x24,x29	 x24:0x00000000 x29:0xa912cb2f x13=0x00000000
       17645000	      1763	8000645c	01dd7f33	and	x30,x26,x29	 x26:0xfffff801 x29:0xa912cb2f x30=0xa912c801
       17655000	      1764	80006460	74bf3993	sltiu	x19,x30,1867	 x30:0xa912c801 x19=0x00000000
       17665000	      1765	80006464	05cfd463	bge	x31,x28,800064ac	 x31:0x00000001 x28:0x80009f38
       17675000	      1766	00000000	00000013	addi	x0,x0,0	  x0:0x00000000
       17685000	      1767	800064a8	00000013	addi	x0,x0,0	  x0:0x00000000
       17695000	      1768	800064ac	8a7a3513	sltiu	x10,x20,-1881	 x20:0xfffffa7b x10=0x00000000
       17705000	      1769	800064b0	53510b13	addi	x22,x2,1333	  x2:0x00000001 x22=0x00000536
       17715000	      1770	800064b4	00aa9233	sll	x4,x21,x10	 x21:0x80009fc4 x10:0x00000000  x4=0x80009fc4
       17725000	      1771	800064b8	01f30863	beq	x6,x31,800064c8	  x6:0x11e969ca x31:0x00000001
       17735000	      1772	800064bc	04499863	bne	x19,x4,8000650c	 x19:0x00000000  x4:0x80009fc4
       17745000	      1773	00000000	00000013	addi	x0,x0,0	  x0:0x00000000
       17755000	      1774	80006508	00000013	addi	x0,x0,0	  x0:0x00000000
       17765000	      1775	8000650c	2727a5b7	lui	x11,0x2727a	 x11=0x2727a000
       17775000	      1776	80006510	43b310b7	lui	x1,0x43b31	  x1=0x43b31000
       17785000	      1777	80006514	00000013	addi	x0,x0,0	  x0:0x00000000
       17795000	      1778	80006518	0301e063	bltu	x3,x16,80006538	  x3:0xffffff7f x16:0x11e96802
       17805000	      1779	8000651c	00000013	addi	x0,x0,0	  x0:0x00000000
       17815000	      1780	80006520	4bae2413	slti	x8,x28,1210	 x28:0x80009f38  x8=0x00000001
       17825000	      1781	80006524	402fda13	srai	x20,x31,0x2	 x31:0x00000001 x20=0x00000000
       17835000	      1782	80006528	017e6633	or	x12,x28,x23	 x28:0x80009f38 x23:0xf091aa4a x12=0xf091bf7a
       17845000	      1783	8000652c	01688263	beq	x17,x22,80006530	 x17:0x00000000 x22:0x00000536
       17855000	      1784	80006530	006ef4b3	and	x9,x29,x6	 x29:0xa912cb2f  x6:0x11e969ca  x9=0x0100490a
       17865000	      1785	80006534	010e1a13	slli	x20,x28,0x10	 x28:0x80009f38 x20=0x9f380000
       17875000	      1786	80006538	019048b3	xor	x17,x0,x25	  x0:0x00000000 x25:0xee1690b5 x17=0xee1690b5
       17885000	      1787	8000653c	04595863	bge	x18,x5,8000658c	 x18:0x36658304  x5:0xee169030
       17895000	      1788	00000000	00000013	addi	x0,x0,0	  x0:0x00000000
       17905000	      1789	80006588	00000013	addi	x0,x0,0	  x0:0x00000000
       17915000	      1790	8000658c	01c81cb3	sll	x25,x16,x28	 x16:0x11e96802 x28:0x80009f38 x25=0x02000000
       17925000	      1791	80006590	bec0f793	andi	x15,x1,-1044	  x1:0x43b31000 x15=0x43b31000
       17935000	      1792	80006594	2d4fe593	ori	x11,x31,724	 x31:0x00000001 x11=0x000002d5
       17945000	      1793	80006598	01270933	add	x18,x14,x18	 x14:0x00000000 x18:0x36658304 x18=0x36658304
       17955000	      1794	8000659c	013786b3	add	x13,x15,x19	 x15:0x43b31000 x19:0x00000000 x13=0x43b31000
       17965000	      1795	800065a0	0438d463	bge	x17,x3,800065e8	 x17:0xee1690b5  x3:0xffffff7f
       17975000	      1796	800065a4	018aac33	slt	x24,x21,x24	 x21:0x80009fc4 x24:0x00000000 x24=0x00000001
       17985000	      1797	800065a8	4aa37793	andi	x15,x6,1194	  x6:0x11e969ca x15=0x0000008a
       17995000	      1798	800065ac	515d8c93	addi	x25,x27,1301	 x27:0xa91112d8 x25=0xa91117ed
       18005000	      1799	800065b0	05855063	bge	x10,x24,800065f0	 x10:0x00000000 x24:0x00000001
       18015000	      1800	800065b4	00d95093	srli	x1,x18,0xd	 x18:0x36658304  x1=0x0001b32c
       18025000	      1801	800065b8	012267b3	or	x15,x4,x18	  x4:0x80009fc4 x18:0x36658304 x15=0xb6659fc4
       18035000	      1802	800065bc	00000013	addi	x0,x0,0	  x0:0x00000000
       18045000	      1803	800065c0	023f1663	bne	x30,x3,800065ec	 x30:0xa912c801  x3:0xffffff7f
       18055000	      1804	00000000	00000013	addi	x0,x0,0	  x0:0x00000000
       18065000	      1805	800065e8	00000013	addi	x0,x0,0	  x0:0x00000000
       18075000	      1806	800065ec	2dba77b7	lui	x15,0x2dba7	 x15=0x2dba7000
       18085000	      1807	800065f0	004d62b3	or	x5,x26,x4	 x26:0xfffff801  x4:0x80009fc4  x5=0xffffffc5
       18095000	      1808	800065f4	00eed313	srli	x6,x29,0xe	 x29:0xa912cb2f  x6=0x0002a44b
       18105000	      1809	800065f8	012653b3	srl	x7,x12,x18	 x12:0xf091bf7a x18:0x36658304  x7=0x0f091bf7
       18115000	      1810	800065fc	03908a63	beq	x1,x25,80006630	  x1:0x0001b32c x25:0xa91117ed
       18125000	      1811	80006600	01a99e63	bne	x19,x26,8000661c	 x19:0x00000000 x26:0xfffff801
       18135000	      1812	00000000	00000013	addi	x0,x0,0	  x0:0x00000000
       18145000	      1813	80006618	00000013	addi	x0,x0,0	  x0:0x00000000
       18155000	      1814	8000661c	82e56a13	ori	x20,x10,-2002	 x10:0x00000000 x20=0xfffff82e
       18165000	      1815	80006620	02a75e63	bge	x14,x10,8000665c	 x14:0x00000000 x10:0x00000000
       18175000	      1816	00000000	00000013	addi	x0,x0,0	  x0:0x00000000
       18185000	      1817	80006658	00000013	addi	x0,x0,0	  x0:0x00000000
       18195000	      1818	8000665c	00352833	slt	x16,x10,x3	 x10:0x00000000  x3:0xffffff7f x16=0x00000000
       18205000	      1819	80006660	0a8c6d37	lui	x26,0xa8c6	 x26=0x0a8c6000
       18215000	      1820	80006664	413c5c13	srai	x24,x24,0x13	 x24:0x00000001 x24=0x00000000
       18225000	      1821	80006668	00635fb3	srl	x31,x6,x6	  x6:0x0002a44b  x6:0x0002a44b x31=0x00000054
       18235000	      1822	8000666c	6bd4ec93	ori	x25,x9,1725	  x9:0x0100490a x25=0x01004fbf
       18245000	      1823	80006670	01236db3	or	x27,x6,x18	  x6:0x0002a44b x18:0x36658304 x27=0x3667a74f
       18255000	      1824	80006674	01d7e4b3	or	x9,x15,x29	 x15:0x2dba7000 x29:0xa912cb2f  x9=0xadbafb2f
       18265000	      1825	80006678	01e46263	bltu	x8,x30,8000667c	  x8:0x00000001 x30:0xa912c801
       18275000	      1826	00000000	00000013	addi	x0,x0,0	  x0:0x00000000
       18285000	      1827	80006678	00000013	addi	x0,x0,0	  x0:0x00000000
       18295000	      1828	8000667c	40d8d693	srai	x13,x17,0xd	 x17:0xee1690b5 x13=0xffff70b4
       18305000	      1829	80006680	be564913	xori	x18,x12,-1051	 x12:0xf091bf7a x18=0x0f6e449f
       18315000	      1830	80006684	0054e463	bltu	x9,x5,8000668c	  x9:0xadbafb2f  x5:0xffffffc5
       18325000	      1831	00000000	00000013	addi	x0,x0,0	  x0:0x00000000
       18335000	      1832	80006688	00000013	addi	x0,x0,0	  x0:0x00000000
       18345000	      1833	8000668c	40140033	sub	x0,x8,x1	  x8:0x00000001  x1:0x0001b32c
       18355000	      1834	80006690	40d1d1b3	sra	x3,x3,x13	  x3:0xffffff7f x13:0xffff70b4  x3=0xffffffff
       18365000	      1835	80006694	f2620513	addi	x10,x4,-218	  x4:0x80009fc4 x10=0x80009eea
       18375000	      1836	80006698	009b38b3	sltu	x17,x22,x9	 x22:0x00000536  x9:0xadbafb2f x17=0x00000001
       18385000	      1837	8000669c	01481113	slli	x2,x16,0x14	 x16:0x00000000  x2=0x00000000
       18395000	      1838	800066a0	00000013	addi	x0,x0,0	  x0:0x00000000
       18405000	      1839	800066a4	008c74b3	and	x9,x24,x8	 x24:0x00000000  x8:0x00000001  x9=0x00000000
       18415000	      1840	800066a8	58dc3197	auipc	x3,0x58dc3	  x3=0xd8dc96a4
       18425000	      1841	800066ac	cc457793	andi	x15,x10,-828	 x10:0x80009eea x15=0x80009cc0
       18435000	      1842	800066b0	019681b3	add	x3,x13,x25	 x13:0xffff70b4 x25:0x01004fbf  x3=0x00ffc073
       18445000	      1843	800066b4	03f0c263	blt	x1,x31,800066d8	  x1:0x0001b32c x31:0x00000054
       18455000	      1844	800066b8	01065a33	srl	x20,x12,x16	 x12:0xf091bf7a x16:0x00000000 x20=0xf091bf7a
       18465000	      1845	800066bc	40f3d3b3	sra	x7,x7,x15	  x7:0x0f091bf7 x15:0x80009cc0  x7=0x0f091bf7
       18475000	      1846	800066c0	0313a117	auipc	x2,0x313a	  x2=0x831406bc
       18485000	      1847	800066c4	008230b3	sltu	x1,x4,x8	  x4:0x80009fc4  x8:0x00000001  x1=0x00000000
       18495000	      1848	800066c8	006a1533	sll	x10,x20,x6	 x20:0xf091bf7a  x6:0x0002a44b x10=0x8dfbd000
       18505000	      1849	800066cc	009b5e63	bge	x22,x9,800066e8	 x22:0x00000536  x9:0x00000000
       18515000	      1850	00000000	00000013	addi	x0,x0,0	  x0:0x00000000
       18525000	      1851	800066e4	00000013	addi	x0,x0,0	  x0:0x00000000
       18535000	      1852	800066e8	40c0d913	srai	x18,x1,0xc	  x1:0x00000000 x18=0x00000000
       18545000	      1853	800066ec	00bf8133	add	x2,x31,x11	 x31:0x00000054 x11:0x000002d5  x2=0x00000329
       18555000	      1854	800066f0	05bf7063	bgeu	x30,x27,80006730	 x30:0xa912c801 x27:0x3667a74f
       18565000	      1855	00000000	00000013	addi	x0,x0,0	  x0:0x00000000
       18575000	      1856	8000672c	00000013	addi	x0,x0,0	  x0:0x00000000
       18585000	      1857	80006730	041f8863	beq	x31,x1,80006780	 x31:0x00000054  x1:0x00000000
       18595000	      1858	80006734	01d0dd13	srli	x26,x1,0x1d	  x1:0x00000000 x26=0x00000000
       18605000	      1859	80006738	006a9133	sll	x2,x21,x6	 x21:0x80009fc4  x6:0x0002a44b  x2=0x04fe2000
       18615000	      1860	8000673c	01902233	slt	x4,x0,x25	  x0:0x00000000 x25:0x01004fbf  x4=0x00000001
       18625000	      1861	80006740	40a505b3	sub	x11,x10,x10	 x10:0x8dfbd000 x10:0x8dfbd000 x11=0x00000000
       18635000	      1862	80006744	00a91893	slli	x17,x18,0xa	 x18:0x00000000 x17=0x00000000
       18645000	      1863	80006748	13902a13	slti	x20,x0,313	  x0:0x00000000 x20=0x00000001
       18655000	      1864	8000674c	2c56f113	andi	x2,x13,709	 x13:0xffff70b4  x2=0x00000084
       18665000	      1865	80006750	010adb13	srli	x22,x21,0x10	 x21:0x80009fc4 x22=0x00008000
       18675000	      1866	80006754	00000013	addi	x0,x0,0	  x0:0x00000000
       18685000	      1867	80006758	0407c863	blt	x15,x0,800067a8	 x15:0x80009cc0  x0:0x00000000
       18695000	      1868	00000000	00000013	addi	x0,x0,0	  x0:0x00000000
       18705000	      1869	800067a4	00000013	addi	x0,x0,0	  x0:0x00000000
       18715000	      1870	800067a8	1c67fd17	auipc	x26,0x1c67f	 x26=0x9c6857a4
       18725000	      1871	800067ac	ba636c97	auipc	x25,0xba636	 x25=0x3a63c7a8
       18735000	      1872	800067b0	2e0ffeb7	lui	x29,0x2e0ff	 x29=0x2e0ff000
       18745000	      1873	800067b4	004f0263	beq	x30,x4,800067b8	 x30:0xa912c801  x4:0x00000001
       18755000	      1874	800067b8	003854b3	srl	x9,x16,x3	 x16:0x00000000  x3:0x00ffc073  x9=0x00000000
       18765000	      1875	800067bc	02305463	bge	x0,x3,800067e4	  x0:0x00000000  x3:0x00ffc073
       18775000	      1876	800067c0	00720c33	add	x24,x4,x7	  x4:0x00000001  x7:0x0f091bf7 x24=0x0f091bf8
       18785000	      1877	800067c4	00abfb33	and	x22,x23,x10	 x23:0xf091aa4a x10:0x8dfbd000 x22=0x80918000
       18795000	      1878	800067c8	01aa7f33	and	x30,x20,x26	 x20:0x00000001 x26:0x9c6857a4 x30=0x00000000
       18805000	      1879	800067cc	00864663	blt	x12,x8,800067d8	 x12:0xf091bf7a  x8:0x00000001
       18815000	      1880	00000000	00000013	addi	x0,x0,0	  x0:0x00000000
       18825000	      1881	800067d4	00000013	addi	x0,x0,0	  x0:0x00000000
       18835000	      1882	800067d8	01434f33	xor	x30,x6,x20	  x6:0x0002a44b x20:0x00000001 x30=0x0002a44a
       18845000	      1883	800067dc	40455193	srai	x3,x10,0x4	 x10:0x8dfbd000  x3=0xf8dfbd00
       18855000	      1884	800067e0	00825a63	bge	x4,x8,800067f4	  x4:0x00000001  x8:0x00000001
       18865000	      1885	00000000	00000013	addi	x0,x0,0	  x0:0x00000000
       18875000	      1886	800067f0	00000013	addi	x0,x0,0	  x0:0x00000000
       18885000	      1887	800067f4	410e51b3	sra	x3,x28,x16	 x28:0x80009f38 x16:0x00000000  x3=0x80009f38
       18895000	      1888	800067f8	6601cf93	xori	x31,x3,1632	  x3:0x80009f38 x31=0x80009958
       18905000	      1889	800067fc	4083d393	srai	x7,x7,0x8	  x7:0x0f091bf7  x7=0x000f091b
       18915000	      1890	80006800	00ac5c13	srli	x24,x24,0xa	 x24:0x0f091bf8 x24=0x0003c246
       18925000	      1891	80006804	015d9693	slli	x13,x27,0x15	 x27:0x3667a74f x13=0xe9e00000
       18935000	      1892	80006808	41c95013	srai	x0,x18,0x1c	 x18:0x00000000
       18945000	      1893	8000680c	6185c513	xori	x10,x11,1560	 x11:0x00000000 x10=0x00000618
       18955000	      1894	80006810	5bf72293	slti	x5,x14,1471	 x14:0x00000000  x5=0x00000001
       18965000	      1895	80006814	3fed8913	addi	x18,x27,1022	 x27:0x3667a74f x18=0x3667ab4d
       18975000	      1896	80006818	00000013	addi	x0,x0,0	  x0:0x00000000
       18985000	      1897	8000681c	85056193	ori	x3,x10,-1968	 x10:0x00000618  x3=0xfffffe58
       18995000	      1898	80006820	f00321b7	lui	x3,0xf0032	  x3=0xf0032000
       19005000	      1899	80006824	4225f113	andi	x2,x11,1058	 x11:0x00000000  x2=0x00000000
       19015000	      1900	80006828	008cd793	srli	x15,x25,0x8	 x25:0x3a63c7a8 x15=0x003a63c7
       19025000	      1901	8000682c	058ed863	bge	x29,x24,8000687c	 x29:0x2e0ff000 x24:0x0003c246
       19035000	      1902	00000000	00000013	addi	x0,x0,0	  x0:0x00000000
       19045000	      1903	80006878	00000013	addi	x0,x0,0	  x0:0x00000000
       19055000	      1904	8000687c	00000013	addi	x0,x0,0	  x0:0x00000000
       19065000	      1905	80006880	00ff5713	srli	x14,x30,0xf	 x30:0x0002a44a x14=0x00000005
       19075000	      1906	80006884	017afa63	bgeu	x21,x23,80006898	 x21:0x80009fc4 x23:0xf091aa4a
       19085000	      1907	80006888	03860c63	beq	x12,x24,800068c0	 x12:0xf091bf7a x24:0x0003c246
       19095000	      1908	8000688c	57b06d13	ori	x26,x0,1403	  x0:0x00000000 x26=0x0000057b
       19105000	      1909	80006890	02618a63	beq	x3,x6,800068c4	  x3:0xf0032000  x6:0x0002a44b
       19115000	      1910	80006894	01f66863	bltu	x12,x31,800068a4	 x12:0xf091bf7a x31:0x80009958
       19125000	      1911	80006898	00d57d33	and	x26,x10,x13	 x10:0x00000618 x13:0xe9e00000 x26=0x00000000
       19135000	      1912	8000689c	d36cf793	andi	x15,x25,-714	 x25:0x3a63c7a8 x15=0x3a63c520
       19145000	      1913	800068a0	41b44a17	auipc	x20,0x41b44	 x20=0xc1b4a89c
       19155000	      1914	800068a4	00060733	add	x14,x12,x0	 x12:0xf091bf7a  x0:0x00000000 x14=0xf091bf7a
       19165000	      1915	800068a8	aa16e293	ori	x5,x13,-1375	 x13:0xe9e00000  x5=0xfffffaa1
       19175000	      1916	800068ac	00000013	addi	x0,x0,0	  x0:0x00000000
       19185000	      1917	800068b0	01092733	slt	x14,x18,x16	 x18:0x3667ab4d x16:0x00000000 x14=0x00000000
       19195000	      1918	800068b4	62f3b193	sltiu	x3,x7,1583	  x7:0x000f091b  x3=0x00000000
       19205000	      1919	800068b8	00aecc63	blt	x29,x10,800068d0	 x29:0x2e0ff000 x10:0x00000618
       19215000	      1920	800068bc	00fd1c13	slli	x24,x26,0xf	 x26:0x00000000 x24=0x00000000
       19225000	      1921	800068c0	01b8fc33	and	x24,x17,x27	 x17:0x00000000 x27:0x3667a74f x24=0x00000000
       19235000	      1922	800068c4	00faf4b3	and	x9,x21,x15	 x21:0x80009fc4 x15:0x3a63c520  x9=0x00008500
       19245000	      1923	800068c8	cd07b937	lui	x18,0xcd07b	 x18=0xcd07b000
       19255000	      1924	800068cc	01a7dd13	srli	x26,x15,0x1a	 x15:0x3a63c520 x26=0x0000000e
       19265000	      1925	800068d0	0121e6b3	or	x13,x3,x18	  x3:0x00000000 x18:0xcd07b000 x13=0xcd07b000
       19275000	      1926	800068d4	00000013	addi	x0,x0,0	  x0:0x00000000
       19285000	      1927	800068d8	1904cb13	xori	x22,x9,400	  x9:0x00008500 x22=0x00008490
       19295000	      1928	800068dc	c3b24693	xori	x13,x4,-965	  x4:0x00000001 x13=0xfffffc3a
       19305000	      1929	800068e0	1c301317	auipc	x6,0x1c301	  x6=0x9c3078dc
       19315000	      1930	800068e4	004e2f03	lw	x30,4(x28)	 x28:0x80009f38 x30=0x800015cc PA:0x80009f3c
       19325000	      1931	800068e8	00813cb3	sltu	x25,x2,x8	  x2:0x00000000  x8:0x00000001 x25=0x00000001
       19335000	      1932	800068ec	03ce0e13	addi	x28,x28,60	 x28:0x80009f38 x28=0x80009f74
       19345000	      1933	800068f0	00309033	sll	x0,x1,x3	  x1:0x00000000  x3:0x00000000
       19355000	      1934	800068f4	016b5093	srli	x1,x22,0x16	 x22:0x00008490  x1=0x00000000
       19365000	      1935	800068f8	00370db3	add	x27,x14,x3	 x14:0x00000000  x3:0x00000000 x27=0x00000000
       19375000	      1936	800068fc	0b1bfb13	andi	x22,x23,177	 x23:0xf091aa4a x22=0x00000000
       19385000	      1937	80006900	000f0c13	addi	x24,x30,0	 x30:0x800015cc x24=0x800015cc
       19395000	      1938	80006904	000c0c67	jalr	x24,x24,0	 x24:0x800015cc x24=0x80006904
       19405000	      1939	00000000	00000013	addi	x0,x0,0	  x0:0x00000000
       19415000	      1940	800015cc	00000013	addi	x0,x0,0	  x0:0x00000000
       19425000	      1941	800015d0	eac9db17	auipc	x22,0xeac9d	 x22=0x6ac9e5cc
       19435000	      1942	800015d4	01b181b3	add	x3,x3,x27	  x3:0x00000000 x27:0x00000000  x3=0x00000000
       19445000	      1943	800015d8	01b14db3	xor	x27,x2,x27	  x2:0x00000000 x27:0x00000000 x27=0x00000000
       19455000	      1944	800015dc	40820db3	sub	x27,x4,x8	  x4:0x00000001  x8:0x00000001 x27=0x00000000
       19465000	      1945	800015e0	00e241b3	xor	x3,x4,x14	  x4:0x00000001 x14:0x00000000  x3=0x00000001
       19475000	      1946	800015e4	0076b333	sltu	x6,x13,x7	 x13:0xfffffc3a  x7:0x000f091b  x6=0x00000000
       19485000	      1947	800015e8	00485c63	bge	x16,x4,80001600	 x16:0x00000000  x4:0x00000001
       19495000	      1948	800015ec	35442893	slti	x17,x8,852	  x8:0x00000001 x17=0x00000001
       19505000	      1949	800015f0	12682013	slti	x0,x16,294	 x16:0x00000000
       19515000	      1950	800015f4	8d567d17	auipc	x26,0x8d567	 x26=0x0d5685f0
       19525000	      1951	800015f8	006f2833	slt	x16,x30,x6	 x30:0x800015cc  x6:0x00000000 x16=0x00000001
       19535000	      1952	800015fc	002fb1b3	sltu	x3,x31,x2	 x31:0x80009958  x2:0x00000000  x3=0x00000000
       19545000	      1953	80001600	00d298b3	sll	x17,x5,x13	  x5:0xfffffaa1 x13:0xfffffc3a x17=0x84000000
       19555000	      1954	80001604	001f2d33	slt	x26,x30,x1	 x30:0x800015cc  x1:0x00000000 x26=0x00000001
       19565000	      1955	80001608	00997333	and	x6,x18,x9	 x18:0xcd07b000  x9:0x00008500  x6=0x00008000
       19575000	      1956	8000160c	00da9913	slli	x18,x21,0xd	 x21:0x80009fc4 x18=0x13f88000
       19585000	      1957	80001610	0004da63	bge	x9,x0,80001624	  x9:0x00008500  x0:0x00000000
       19595000	      1958	00000000	00000013	addi	x0,x0,0	  x0:0x00000000
       19605000	      1959	80001620	00000013	addi	x0,x0,0	  x0:0x00000000
       19615000	      1960	80001624	00000013	addi	x0,x0,0	  x0:0x00000000
       19625000	      1961	80001628	252c3a13	sltiu	x20,x24,594	 x24:0x80006904 x20=0x00000000
       19635000	      1962	8000162c	405887b3	sub	x15,x17,x5	 x17:0x84000000  x5:0xfffffaa1 x15=0x8400055f
       19645000	      1963	80001630	64146513	ori	x10,x8,1601	  x8:0x00000001 x10=0x00000641
       19655000	      1964	80001634	40b605b3	sub	x11,x12,x11	 x12:0xf091bf7a x11:0x00000000 x11=0xf091bf7a
       19665000	      1965	80001638	00a05013	srli	x0,x0,0xa	  x0:0x00000000
       19675000	      1966	8000163c	0063dcb3	srl	x25,x7,x6	  x7:0x000f091b  x6:0x00008000 x25=0x000f091b
       19685000	      1967	80001640	01d9ffb3	and	x31,x19,x29	 x19:0x00000000 x29:0x2e0ff000 x31=0x00000000
       19695000	      1968	80001644	7bb7e713	ori	x14,x15,1979	 x15:0x8400055f x14=0x840007ff
       19705000	      1969	80001648	004d7d33	and	x26,x26,x4	 x26:0x00000001  x4:0x00000001 x26=0x00000001
       19715000	      1970	8000164c	30ed7813	andi	x16,x26,782	 x26:0x00000001 x16=0x00000000
       19725000	      1971	80001650	01a0d393	srli	x7,x1,0x1a	  x1:0x00000000  x7=0x00000000
       19735000	      1972	80001654	01db1b13	slli	x22,x22,0x1d	 x22:0x6ac9e5cc x22=0x80000000
       19745000	      1973	80001658	05876863	bltu	x14,x24,800016a8	 x14:0x840007ff x24:0x80006904
       19755000	      1974	8000165c	9aec6393	ori	x7,x24,-1618	 x24:0x80006904  x7=0xfffff9ae
       19765000	      1975	80001660	02a08a63	beq	x1,x10,80001694	  x1:0x00000000 x10:0x00000641
       19775000	      1976	80001664	ccc17a13	andi	x20,x2,-820	  x2:0x00000000 x20=0x00000000
       19785000	      1977	80001668	00000013	addi	x0,x0,0	  x0:0x00000000
       19795000	      1978	8000166c	00a50c63	beq	x10,x10,80001684	 x10:0x00000641 x10:0x00000641
       19805000	      1979	00000000	00000013	addi	x0,x0,0	  x0:0x00000000
       19815000	      1980	80001680	00000013	addi	x0,x0,0	  x0:0x00000000
       19825000	      1981	80001684	0084e133	or	x2,x9,x8	  x9:0x00008500  x8:0x00000001  x2=0x00008501
       19835000	      1982	80001688	0044d513	srli	x10,x9,0x4	  x9:0x00008500 x10=0x00000850
       19845000	      1983	8000168c	a435a593	slti	x11,x11,-1469	 x11:0xf091bf7a x11=0x00000001
       19855000	      1984	80001690	012ca033	slt	x0,x25,x18	 x25:0x000f091b x18:0x13f88000
       19865000	      1985	80001694	4148d5b3	sra	x11,x17,x20	 x17:0x84000000 x20:0x00000000 x11=0x84000000
       19875000	      1986	80001698	01ad7533	and	x10,x26,x26	 x26:0x00000001 x26:0x00000001 x10=0x00000001
       19885000	      1987	8000169c	03c37c63	bgeu	x6,x28,800016d4	  x6:0x00008000 x28:0x80009f74
       19895000	      1988	800016a0	fa41b613	sltiu	x12,x3,-92	  x3:0x00000000 x12=0x00000001
       19905000	      1989	800016a4	0014c633	xor	x12,x9,x1	  x9:0x00008500  x1:0x00000000 x12=0x00008500
       19915000	      1990	800016a8	410f03b3	sub	x7,x30,x16	 x30:0x800015cc x16:0x00000000  x7=0x800015cc
       19925000	      1991	800016ac	04c76863	bltu	x14,x12,800016fc	 x14:0x840007ff x12:0x00008500
       19935000	      1992	800016b0	88fcd597	auipc	x11,0x88fcd	 x11=0x08fce6ac
       19945000	      1993	800016b4	0188a633	slt	x12,x17,x24	 x17:0x84000000 x24:0x80006904 x12=0x00000000
       19955000	      1994	800016b8	407b5193	srai	x3,x22,0x7	 x22:0x80000000  x3=0xff000000
       19965000	      1995	800016bc	04f8e463	bltu	x17,x15,80001704	 x17:0x84000000 x15:0x8400055f
       19975000	      1996	00000000	00000013	addi	x0,x0,0	  x0:0x00000000
       19985000	      1997	80001700	00000013	addi	x0,x0,0	  x0:0x00000000
       19995000	      1998	80001704	00715263	bge	x2,x7,80001708	  x2:0x00008501  x7:0x800015cc
       20005000	      1999	00000000	00000013	addi	x0,x0,0	  x0:0x00000000
       20015000	      2000	80001704	00000013	addi	x0,x0,0	  x0:0x00000000
       20025000	      2001	80001708	00c38263	beq	x7,x12,8000170c	  x7:0x800015cc x12:0x00000000
       20035000	      2002	8000170c	04a61663	bne	x12,x10,80001758	 x12:0x00000000 x10:0x00000001
       20045000	      2003	00000000	00000013	addi	x0,x0,0	  x0:0x00000000
       20055000	      2004	80001754	00000013	addi	x0,x0,0	  x0:0x00000000
       20065000	      2005	80001758	01e3d7b3	srl	x15,x7,x30	  x7:0x800015cc x30:0x800015cc x15=0x00080001
       20075000	      2006	8000175c	00d2e863	bltu	x5,x13,8000176c	  x5:0xfffffaa1 x13:0xfffffc3a
       20085000	      2007	00000000	00000013	addi	x0,x0,0	  x0:0x00000000
       20095000	      2008	80001768	00000013	addi	x0,x0,0	  x0:0x00000000
       20105000	      2009	8000176c	b175ee93	ori	x29,x11,-1257	 x11:0x08fce6ac x29=0xffffffbf
       20115000	      2010	80001770	005272b3	and	x5,x4,x5	  x4:0x00000001  x5:0xfffffaa1  x5=0x00000001
       20125000	      2011	80001774	004e2f03	lw	x30,4(x28)	 x28:0x80009f74 x30=0x8000012c PA:0x80009f78
       20135000	      2012	80001778	00185b33	srl	x22,x16,x1	 x16:0x00000000  x1:0x00000000 x22=0x00000000
       20145000	      2013	8000177c	00000013	addi	x0,x0,0	  x0:0x00000000
       20155000	      2014	80001780	41715113	srai	x2,x2,0x17	  x2:0x00008501  x2=0x00000000
       20165000	      2015	80001784	7b3bc093	xori	x1,x23,1971	 x23:0xf091aa4a  x1=0xf091adf9
       20175000	      2016	80001788	01c61633	sll	x12,x12,x28	 x12:0x00000000 x28:0x80009f74 x12=0x00000000
       20185000	      2017	8000178c	00139633	sll	x12,x7,x1	  x7:0x800015cc  x1:0xf091adf9 x12=0x98000000
       20195000	      2018	80001790	010e0e13	addi	x28,x28,16	 x28:0x80009f74 x28=0x80009f84
       20205000	      2019	80001794	00944093	xori	x1,x8,9	  x8:0x00000001  x1=0x00000008
       20215000	      2020	80001798	0018a0b3	slt	x1,x17,x1	 x17:0x84000000  x1:0x00000008  x1=0x00000001
       20225000	      2021	8000179c	001f0593	addi	x11,x30,1	 x30:0x8000012c x11=0x8000012d
       20235000	      2022	800017a0	000585e7	jalr	x11,x11,0	 x11:0x8000012d x11=0x800017a0
       20245000	      2023	00000000	00000013	addi	x0,x0,0	  x0:0x00000000
       20255000	      2024	8000012c	00000013	addi	x0,x0,0	  x0:0x00000000
       20265000	      2025	80000130	00008f17	auipc	x30,0x8	 x30=0x8000812c
       20275000	      2026	80000134	2e2f0f13	addi	x30,x30,738	 x30:0x8000812c x30=0x8000840e
       20285000	      2027	80000138	348f1223	sh	x8,836(x30)	 x30:0x8000840e  x8:0x00000001 PA:0x80008752
       20295000	      2028	8000013c	9ebc0a13	addi	x20,x24,-1557	 x24:0x80006904 x20=0x800062ef
       20305000	      2029	80000140	00d2b8b3	sltu	x17,x5,x13	  x5:0x00000001 x13:0xfffffc3a x17=0x00000001
       20315000	      2030	80000144	41480b33	sub	x22,x16,x20	 x16:0x00000000 x20:0x800062ef x22=0x7fff9d11
       20325000	      2031	80000148	2c7f4083	lbu	x1,711(x30)	 x30:0x8000840e  x1=0x00000000 PA:0x800086d5
       20335000	      2032	8000014c	f65f0603	lb	x12,-155(x30)	 x30:0x8000840e x12=0x00000000 PA:0x80008373
       20345000	      2033	80000150	df1f0783	lb	x15,-527(x30)	 x30:0x8000840e x15=0xffffffa7 PA:0x800081ff
       20355000	      2034	80000154	00c2db33	srl	x22,x5,x12	  x5:0x00000001 x12:0x00000000 x22=0x00000001
       20365000	      2035	80000158	401f5d93	srai	x27,x30,0x1	 x30:0x8000840e x27=0xc0004207
       20375000	      2036	8000015c	00753d33	sltu	x26,x10,x7	 x10:0x00000001  x7:0x800015cc x26=0x00000001
       20385000	      2037	80000160	05bf4c83	lbu	x25,91(x30)	 x30:0x8000840e x25=0x00000000 PA:0x80008469
       20395000	      2038	80000164	3aef5483	lhu	x9,942(x30)	 x30:0x8000840e  x9=0x00000000 PA:0x800087bc
       20405000	      2039	80000168	41e685b3	sub	x11,x13,x30	 x13:0xfffffc3a x30:0x8000840e x11=0x7fff782c
       20415000	      2040	8000016c	3fb51fb7	lui	x31,0x3fb51	 x31=0x3fb51000
       20425000	      2041	80000170	a62071b7	lui	x3,0xa6207	  x3=0xa6207000
       20435000	      2042	80000174	41045633	sra	x12,x8,x16	  x8:0x00000001 x16:0x00000000 x12=0x00000001
       20445000	      2043	80000178	cabd8113	addi	x2,x27,-853	 x27:0xc0004207  x2=0xc0003eb2
       20455000	      2044	8000017c	9f0b93b7	lui	x7,0x9f0b9	  x7=0x9f0b9000
       20465000	      2045	80000180	008624b3	slt	x9,x12,x8	 x12:0x00000001  x8:0x00000001  x9=0x00000000
       20475000	      2046	80000184	41cb0833	sub	x16,x22,x28	 x22:0x00000001 x28:0x80009f84 x16=0x7fff607d
       20485000	      2047	80000188	fd3f4d83	lbu	x27,-45(x30)	 x30:0x8000840e x27=0x00000000 PA:0x800083e1
       20495000	      2048	8000018c	01cac533	xor	x10,x21,x28	 x21:0x80009fc4 x28:0x80009f84 x10=0x00000040
       20505000	      2049	80000190	c68f4583	lbu	x11,-920(x30)	 x30:0x8000840e x11=0x00000000 PA:0x80008076
       20515000	      2050	80000194	01c85f93	srli	x31,x16,0x1c	 x16:0x7fff607d x31=0x00000007
       20525000	      2051	80000198	17ef4703	lbu	x14,382(x30)	 x30:0x8000840e x14=0x00000000 PA:0x8000858c
       20535000	      2052	8000019c	19ef0403	lb	x8,414(x30)	 x30:0x8000840e  x8=0x00000000 PA:0x800085ac
       20545000	      2053	800001a0	0115d333	srl	x6,x11,x17	 x11:0x00000000 x17:0x00000001  x6=0x00000000
       20555000	      2054	800001a4	011531b3	sltu	x3,x10,x17	 x10:0x00000040 x17:0x00000001  x3=0x00000000
       20565000	      2055	800001a8	fd4f4e83	lbu	x29,-44(x30)	 x30:0x8000840e x29=0x00000000 PA:0x800083e2
       20575000	      2056	800001ac	01c105b3	add	x11,x2,x28	  x2:0xc0003eb2 x28:0x80009f84 x11=0x4000de36
       20585000	      2057	800001b0	29af4783	lbu	x15,666(x30)	 x30:0x8000840e x15=0x00000000 PA:0x800086a8
       20595000	      2058	800001b4	002a6d33	or	x26,x20,x2	 x20:0x800062ef  x2:0xc0003eb2 x26=0xc0007eff
       20605000	      2059	800001b8	8175d497	auipc	x9,0x8175d	  x9=0x0175d1b4
       20615000	      2060	800001bc	00000013	addi	x0,x0,0	  x0:0x00000000
       20625000	      2061	800001c0	00182533	slt	x10,x16,x1	 x16:0x7fff607d  x1:0x00000000 x10=0x00000000
       20635000	      2062	800001c4	3d3f1d23	sh	x19,986(x30)	 x30:0x8000840e x19:0x00000000 PA:0x800087e8
       20645000	      2063	800001c8	40bf1323	sh	x11,1030(x30)	 x30:0x8000840e x11:0x4000de36 PA:0x80008814
       20655000	      2064	800001cc	2b5f4203	lbu	x4,693(x30)	 x30:0x8000840e  x4=0x00000000 PA:0x800086c3
       20665000	      2065	800001d0	f3ef2d03	lw	x26,-194(x30)	 x30:0x8000840e x26=0x00000000 PA:0x8000834c
       20675000	      2066	800001d4	2d7f0c03	lb	x24,727(x30)	 x30:0x8000840e x24=0x00000000 PA:0x800086e5
       20685000	      2067	800001d8	006895b3	sll	x11,x17,x6	 x17:0x00000001  x6:0x00000000 x11=0x00000001
       20695000	      2068	800001dc	2a026f93	ori	x31,x4,672	  x4:0x00000000 x31=0x000002a0
       20705000	      2069	800001e0	014c5c33	srl	x24,x24,x20	 x24:0x00000000 x20:0x800062ef x24=0x00000000
       20715000	      2070	800001e4	f95f4583	lbu	x11,-107(x30)	 x30:0x8000840e x11=0x00000000 PA:0x800083a3
       20725000	      2071	800001e8	92003213	sltiu	x4,x0,-1760	  x0:0x00000000  x4=0x00000001
       20735000	      2072	800001ec	00000013	addi	x0,x0,0	  x0:0x00000000
       20745000	      2073	800001f0	02478d13	addi	x26,x15,36	 x15:0x00000000 x26=0x00000024
       20755000	      2074	800001f4	e474fc13	andi	x24,x9,-441	  x9:0x0175d1b4 x24=0x0175d004
       20765000	      2075	800001f8	015cc533	xor	x10,x25,x21	 x25:0x00000000 x21:0x80009fc4 x10=0x80009fc4
       20775000	      2076	800001fc	65698813	addi	x16,x19,1622	 x19:0x00000000 x16=0x00000656
       20785000	      2077	80000200	017005b3	add	x11,x0,x23	  x0:0x00000000 x23:0xf091aa4a x11=0xf091aa4a
       20795000	      2078	80000204	00006617	auipc	x12,0x6	 x12=0x80006200
       20805000	      2079	80000208	70460613	addi	x12,x12,1796	 x12:0x80006200 x12=0x80006904
       20815000	      2080	8000020c	9b680093	addi	x1,x16,-1610	 x16:0x00000656  x1=0x0000000c
       20825000	      2081	80000210	2b660613	addi	x12,x12,694	 x12:0x80006904 x12=0x80006bba
       20835000	      2082	80000214	a866ed13	ori	x26,x13,-1402	 x13:0xfffffc3a x26=0xfffffebe
       20845000	      2083	80000218	00b111b3	sll	x3,x2,x11	  x2:0xc0003eb2 x11:0xf091aa4a  x3=0x00fac800
       20855000	      2084	8000021c	0025ef33	or	x30,x11,x2	 x11:0xf091aa4a  x2:0xc0003eb2 x30=0xf091befa
       20865000	      2085	80000220	d4b60f67	jalr	x30,x12,-693	 x12:0x80006bba x30=0x80000220
       20875000	      2086	00000000	00000013	addi	x0,x0,0	  x0:0x00000000
       20885000	      2087	80006904	00000013	addi	x0,x0,0	  x0:0x00000000
       20895000	      2088	80006908	00e68463	beq	x13,x14,80006910	 x13:0xfffffc3a x14:0x00000000
       20905000	      2089	8000690c	a01e7c13	andi	x24,x28,-1535	 x28:0x80009f84 x24=0x80009a00
       20915000	      2090	80006910	fece0e13	addi	x28,x28,-20	 x28:0x80009f84 x28=0x80009f70
       20925000	      2091	80006914	000f8133	add	x2,x31,x0	 x31:0x000002a0  x0:0x00000000  x2=0x000002a0
       20935000	      2092	80006918	f59b6897	auipc	x17,0xf59b6	 x17=0x759bc914
       20945000	      2093	8000691c	c7650f93	addi	x31,x10,-906	 x10:0x80009fc4 x31=0x80009c3a
       20955000	      2094	80006920	430d8b13	addi	x22,x27,1072	 x27:0x00000000 x22=0x00000430
       20965000	      2095	80006924	b100e097	auipc	x1,0xb100e	  x1=0x31014920
       20975000	      2096	80006928	01ee2223	sw	x30,4(x28)	 x28:0x80009f70 x30:0x80000220 PA:0x80009f74
       20985000	      2097	8000692c	0163f7b3	and	x15,x7,x22	  x7:0x9f0b9000 x22:0x00000430 x15=0x00000000
       20995000	      2098	80006930	00f856b3	srl	x13,x16,x15	 x16:0x00000656 x15:0x00000000 x13=0x00000656
       21005000	      2099	80006934	00000013	addi	x0,x0,0	  x0:0x00000000
       21015000	      2100	80006938	408cd533	sra	x10,x25,x8	 x25:0x00000000  x8:0x00000000 x10=0x00000000
       21025000	      2101	8000693c	90178f13	addi	x30,x15,-1791	 x15:0x00000000 x30=0xfffff901
       21035000	      2102	80006940	01e375b3	and	x11,x6,x30	  x6:0x00000000 x30:0xfffff901 x11=0x00000000
       21045000	      2103	80006944	6e597e93	andi	x29,x18,1765	 x18:0x13f88000 x29=0x00000000
       21055000	      2104	80006948	251f8293	addi	x5,x31,593	 x31:0x80009c3a  x5=0x80009e8b
       21065000	      2105	8000694c	e2dfbf6f	jal	x30,8000694c	 x30=0x8000694c
       21075000	      2106	00000000	00000013	addi	x0,x0,0	  x0:0x00000000
       21085000	      2107	80002774	00000013	addi	x0,x0,0	  x0:0x00000000
       21095000	      2108	80002778	32009d37	lui	x26,0x32009	 x26=0x32009000
       21105000	      2109	8000277c	fc4e0e13	addi	x28,x28,-60	 x28:0x80009f70 x28=0x80009f34
       21115000	      2110	80002780	0081a5b3	slt	x11,x3,x8	  x3:0x00fac800  x8:0x00000000 x11=0x00000000
       21125000	      2111	80002784	01ee2223	sw	x30,4(x28)	 x28:0x80009f34 x30:0x8000694c PA:0x80009f38
       21135000	      2112	80002788	0166afb3	slt	x31,x13,x22	 x13:0x00000656 x22:0x00000430 x31=0x00000000
       21145000	      2113	8000278c	00006997	auipc	x19,0x6	 x19=0x80008788
       21155000	      2114	80002790	52a98993	addi	x19,x19,1322	 x19:0x80008788 x19=0x80008cb2
       21165000	      2115	80002794	61a26f13	ori	x30,x4,1562	  x4:0x00000001 x30=0x0000061b
       21175000	      2116	80002798	ff899923	sh	x24,-14(x19)	 x19:0x80008cb2 x24:0x80009a00 PA:0x80008ca4
       21185000	      2117	8000279c	0019c303	lbu	x6,1(x19)	 x19:0x80008cb2  x6=0x00000000 PA:0x80008cb3
       21195000	      2118	800027a0	e0edc193	xori	x3,x27,-498	 x27:0x00000000  x3=0xfffffe0e
       21205000	      2119	800027a4	ff898ca3	sb	x24,-7(x19)	 x19:0x80008cb2 x24:0x80009a00 PA:0x80008cab
       21215000	      2120	800027a8	cd958717	auipc	x14,0xcd958	 x14=0x4d95a7a4
       21225000	      2121	800027ac	00899903	lh	x18,8(x19)	 x19:0x80008cb2 x18=0x00000000 PA:0x80008cba
       21235000	      2122	800027b0	ff699a03	lh	x20,-10(x19)	 x19:0x80008cb2 x20=0x00000000 PA:0x80008ca8
       21245000	      2123	800027b4	01199423	sh	x17,8(x19)	 x19:0x80008cb2 x17:0x759bc914 PA:0x80008cba
       21255000	      2124	800027b8	7a1d4193	xori	x3,x26,1953	 x26:0x32009000  x3=0x320097a1
       21265000	      2125	800027bc	728e7d93	andi	x27,x28,1832	 x28:0x80009f34 x27=0x00000720
       21275000	      2126	800027c0	017f7633	and	x12,x30,x23	 x30:0x0000061b x23:0xf091aa4a x12=0x0000020a
       21285000	      2127	800027c4	017450b3	srl	x1,x8,x23	  x8:0x00000000 x23:0xf091aa4a  x1=0x00000000
       21295000	      2128	800027c8	ff29cf03	lbu	x30,-14(x19)	 x19:0x80008cb2 x30=0x00000000 PA:0x80008ca4
       21305000	      2129	800027cc	00f9c103	lbu	x2,15(x19)	 x19:0x80008cb2  x2=0x00000000 PA:0x80008cc1
       21315000	      2130	800027d0	82f28693	addi	x13,x5,-2001	  x5:0x80009e8b x13=0x800096ba
       21325000	      2131	800027d4	ffa99303	lh	x6,-6(x19)	 x19:0x80008cb2  x6=0x00000000 PA:0x80008cac
       21335000	      2132	800027d8	00f983a3	sb	x15,7(x19)	 x19:0x80008cb2 x15:0x00000000 PA:0x80008cb9
       21345000	      2133	800027dc	ff899883	lh	x17,-8(x19)	 x19:0x80008cb2 x17=0x00000000 PA:0x80008caa
       21355000	      2134	800027e0	09c5b213	sltiu	x4,x11,156	 x11:0x00000000  x4=0x00000001
       21365000	      2135	800027e4	e42f3493	sltiu	x9,x30,-446	 x30:0x00000000  x9=0x00000001
       21375000	      2136	800027e8	ffe9c283	lbu	x5,-2(x19)	 x19:0x80008cb2  x5=0x00000000 PA:0x80008cb0
       21385000	      2137	800027ec	00b98483	lb	x9,11(x19)	 x19:0x80008cb2  x9=0x00000000 PA:0x80008cbd
       21395000	      2138	800027f0	ffd99d23	sh	x29,-6(x19)	 x19:0x80008cb2 x29:0x00000000 PA:0x80008cac
       21405000	      2139	800027f4	00b980a3	sb	x11,1(x19)	 x19:0x80008cb2 x11:0x00000000 PA:0x80008cb3
       21415000	      2140	800027f8	ff79c703	lbu	x14,-9(x19)	 x19:0x80008cb2 x14=0x00000000 PA:0x80008ca9
       21425000	      2141	800027fc	00298833	add	x16,x19,x2	 x19:0x80008cb2  x2:0x00000000 x16=0x80008cb2
       21435000	      2142	80002800	01299323	sh	x18,6(x19)	 x19:0x80008cb2 x18:0x00000000 PA:0x80008cb8
       21445000	      2143	80002804	ff29c783	lbu	x15,-14(x19)	 x19:0x80008cb2 x15=0x00000000 PA:0x80008ca4
       21455000	      2144	80002808	e4022197	auipc	x3,0xe4022	  x3=0x64024804
       21465000	      2145	8000280c	40335913	srai	x18,x6,0x3	  x6:0x00000000 x18=0x00000000
       21475000	      2146	80002810	01599223	sh	x21,4(x19)	 x19:0x80008cb2 x21:0x80009fc4 PA:0x80008cb6
       21485000	      2147	80002814	ffa9d483	lhu	x9,-6(x19)	 x19:0x80008cb2  x9=0x00000000 PA:0x80008cac
       21495000	      2148	80002818	0029af03	lw	x30,2(x19)	 x19:0x80008cb2 x30=0x9fc40000 PA:0x80008cb4
       21505000	      2149	8000281c	0049d703	lhu	x14,4(x19)	 x19:0x80008cb2 x14=0x00009fc4 PA:0x80008cb6
       21515000	      2150	80002820	ff69cf83	lbu	x31,-10(x19)	 x19:0x80008cb2 x31=0x00000000 PA:0x80008ca8
       21525000	      2151	80002824	fef98a23	sb	x15,-12(x19)	 x19:0x80008cb2 x15:0x00000000 PA:0x80008ca6
       21535000	      2152	80002828	ff798a03	lb	x20,-9(x19)	 x19:0x80008cb2 x20=0x00000000 PA:0x80008ca9
       21545000	      2153	8000282c	ff19ce83	lbu	x29,-15(x19)	 x19:0x80008cb2 x29=0x00000000 PA:0x80008ca3
       21555000	      2154	80002830	ff59cc03	lbu	x24,-11(x19)	 x19:0x80008cb2 x24=0x00000000 PA:0x80008ca7
       21565000	      2155	80002834	78e6c197	auipc	x3,0x78e6c	  x3=0xf8e6e830
       21575000	      2156	80002838	01d99823	sh	x29,16(x19)	 x19:0x80008cb2 x29:0x00000000 PA:0x80008cc2
       21585000	      2157	8000283c	ff398f03	lb	x30,-13(x19)	 x19:0x80008cb2 x30=0xffffff9a PA:0x80008ca5
       21595000	      2158	80002840	009987a3	sb	x9,15(x19)	 x19:0x80008cb2  x9:0x00000000 PA:0x80008cc1
       21605000	      2159	80002844	00006117	auipc	x2,0x6	  x2=0x80008840
       21615000	      2160	80002848	daf10113	addi	x2,x2,-593	  x2:0x80008840  x2=0x800085ef
       21625000	      2161	8000284c	09a10003	lb	x0,154(x2)	  x2:0x800085ef PA:0x80008689
       21635000	      2162	80002850	01722db3	slt	x27,x4,x23	  x4:0x00000001 x23:0xf091aa4a x27=0x00000000
       21645000	      2163	80002854	69354593	xori	x11,x10,1683	 x10:0x00000000 x11=0x00000693
       21655000	      2164	80002858	07410223	sb	x20,100(x2)	  x2:0x800085ef x20:0x00000000 PA:0x80008653
       21665000	      2165	8000285c	09ea6797	auipc	x15,0x9ea6	 x15=0x89ea8858
       21675000	      2166	80002860	010557b3	srl	x15,x10,x16	 x10:0x00000000 x16:0x80008cb2 x15=0x00000000
       21685000	      2167	80002864	00d78f33	add	x30,x15,x13	 x15:0x00000000 x13:0x800096ba x30=0x800096ba
       21695000	      2168	80002868	414f5493	srai	x9,x30,0x14	 x30:0x800096ba  x9=0xfffff800
       21705000	      2169	8000286c	05e14303	lbu	x6,94(x2)	  x2:0x800085ef  x6=0x00000000 PA:0x8000864d
       21715000	      2170	80002870	00000013	addi	x0,x0,0	  x0:0x00000000
       21725000	      2171	80002874	40026613	ori	x12,x4,1024	  x4:0x00000001 x12=0x00000401
       21735000	      2172	80002878	40855213	srai	x4,x10,0x8	 x10:0x00000000  x4=0x00000000
       21745000	      2173	8000287c	41805d13	srai	x26,x0,0x18	  x0:0x00000000 x26=0x00000000
       21755000	      2174	80002880	015854b3	srl	x9,x16,x21	 x16:0x80008cb2 x21:0x80009fc4  x9=0x080008cb
       21765000	      2175	80002884	04b15583	lhu	x11,75(x2)	  x2:0x800085ef x11=0x00000000 PA:0x8000863a
       21775000	      2176	80002888	40a4deb3	sra	x29,x9,x10	  x9:0x080008cb x10:0x00000000 x29=0x080008cb
       21785000	      2177	8000288c	018ed833	srl	x16,x29,x24	 x29:0x080008cb x24:0x00000000 x16=0x080008cb
       21795000	      2178	80002890	f0014a03	lbu	x20,-256(x2)	  x2:0x800085ef x20=0x00000000 PA:0x800084ef
       21805000	      2179	80002894	03010c03	lb	x24,48(x2)	  x2:0x800085ef x24=0x00000000 PA:0x8000861f
       21815000	      2180	00000000	00000013	addi	x0,x0,0	  x0:0x00000000
       21825000	      2181	80002898	d387e493	ori	x9,x15,-712	 x15:0x00000000  x9=0xfffffd38
       21835000	      2182	8000289c	77763c13	sltiu	x24,x12,1911	 x12:0x00000401 x24=0x00000001
       21845000	      2183	800028a0	98f63793	sltiu	x15,x12,-1649	 x12:0x00000401 x15=0x00000001
       21855000	      2184	800028a4	016fd913	srli	x18,x31,0x16	 x31:0x00000000 x18=0x00000000
       21865000	      2185	800028a8	2b48f413	andi	x8,x17,692	 x17:0x00000000  x8=0x00000000
       21875000	      2186	800028ac	001685b3	add	x11,x13,x1	 x13:0x800096ba  x1:0x00000000 x11=0x800096ba
       21885000	      2187	800028b0	00592cb3	slt	x25,x18,x5	 x18:0x00000000  x5:0x00000000 x25=0x00000000
       21895000	      2188	800028b4	0e814383	lbu	x7,232(x2)	  x2:0x800085ef  x7=0x00000000 PA:0x800086d7
       21905000	      2189	800028b8	fa310ba3	sb	x3,-73(x2)	  x2:0x800085ef  x3:0xf8e6e830 PA:0x800085a6
       21915000	      2190	800028bc	0b714e83	lbu	x29,183(x2)	  x2:0x800085ef x29=0x00000000 PA:0x800086a6
       21925000	      2191	800028c0	f5710a23	sb	x23,-172(x2)	  x2:0x800085ef x23:0xf091aa4a PA:0x80008543
       21935000	      2192	800028c4	40e554b3	sra	x9,x10,x14	 x10:0x00000000 x14:0x00009fc4  x9=0x00000000
       21945000	      2193	800028c8	fed10f03	lb	x30,-19(x2)	  x2:0x800085ef x30=0x00000000 PA:0x800085dc
       21955000	      2194	800028cc	00a2dc93	srli	x25,x5,0xa	  x5:0x00000000 x25=0x00000000
       21965000	      2195	800028d0	01841093	slli	x1,x8,0x18	  x8:0x00000000  x1=0x00000000
       21975000	      2196	800028d4	03e10123	sb	x30,34(x2)	  x2:0x800085ef x30:0x00000000 PA:0x80008611
       21985000	      2197	800028d8	002207b3	add	x15,x4,x2	  x4:0x00000000  x2:0x800085ef x15=0x800085ef
       21995000	      2198	800028dc	0dd126a3	sw	x29,205(x2)	  x2:0x800085ef x29:0x00000000 PA:0x800086bc
       22005000	      2199	800028e0	f1410fa3	sb	x20,-225(x2)	  x2:0x800085ef x20:0x00000000 PA:0x8000850e
       22015000	      2200	800028e4	00847cb3	and	x25,x8,x8	  x8:0x00000000  x8:0x00000000 x25=0x00000000
       22025000	      2201	800028e8	02f10f23	sb	x15,62(x2)	  x2:0x800085ef x15:0x800085ef PA:0x8000862d
       22035000	      2202	800028ec	07e14f03	lbu	x30,126(x2)	  x2:0x800085ef x30=0x00000000 PA:0x8000866d
       22045000	      2203	800028f0	fe010003	lb	x0,-32(x2)	  x2:0x800085ef PA:0x800085cf
       22055000	      2204	800028f4	00006117	auipc	x2,0x6	  x2=0x800088f0
       22065000	      2205	800028f8	14e10113	addi	x2,x2,334	  x2:0x800088f0  x2=0x80008a3e
       22075000	      2206	800028fc	00000013	addi	x0,x0,0	  x0:0x00000000
       22085000	      2207	80002900	009e00b3	add	x1,x28,x9	 x28:0x80009f34  x9:0x00000000  x1=0x80009f34
       22095000	      2208	80002904	41cc01b3	sub	x3,x24,x28	 x24:0x00000001 x28:0x80009f34  x3=0x7fff60cd
       22105000	      2209	80002908	dcd70d13	addi	x26,x14,-563	 x14:0x00009fc4 x26=0x00009d91
       22115000	      2210	8000290c	1fbce413	ori	x8,x25,507	 x25:0x00000000  x8=0x000001fb
       22125000	      2211	80002910	c98ced13	ori	x26,x25,-872	 x25:0x00000000 x26=0xfffffc98
       22135000	      2212	80002914	03714803	lbu	x16,55(x2)	  x2:0x80008a3e x16=0x00000000 PA:0x80008a75
       22145000	      2213	80002918	4073ddb3	sra	x27,x7,x7	  x7:0x00000000  x7:0x00000000 x27=0x00000000
       22155000	      2214	8000291c	02410aa3	sb	x4,53(x2)	  x2:0x80008a3e  x4:0x00000000 PA:0x80008a73
       22165000	      2215	80002920	0197d013	srli	x0,x15,0x19	 x15:0x800085ef
       22175000	      2216	80002924	f74105a3	sb	x20,-149(x2)	  x2:0x80008a3e x20:0x00000000 PA:0x800089a9
       22185000	      2217	80002928	401680b3	sub	x1,x13,x1	 x13:0x800096ba  x1:0x80009f34  x1=0xfffff786
       22195000	      2218	8000292c	d6dbdc37	lui	x24,0xd6dbd	 x24=0xd6dbd000
       22205000	      2219	80002930	011d9193	slli	x3,x27,0x11	 x27:0x00000000  x3=0x00000000
       22215000	      2220	80002934	02611d23	sh	x6,58(x2)	  x2:0x80008a3e  x6:0x00000000 PA:0x80008a78
       22225000	      2221	80002938	00b3c2b3	xor	x5,x7,x11	  x7:0x00000000 x11:0x800096ba  x5=0x800096ba
       22235000	      2222	8000293c	f7714b03	lbu	x22,-137(x2)	  x2:0x80008a3e x22=0x00000000 PA:0x800089b5
       22245000	      2223	80002940	f7ce7f93	andi	x31,x28,-132	 x28:0x80009f34 x31=0x80009f34
       22255000	      2224	80002944	01eac433	xor	x8,x21,x30	 x21:0x80009fc4 x30:0x00000000  x8=0x80009fc4
       22265000	      2225	80002948	f6c10383	lb	x7,-148(x2)	  x2:0x80008a3e  x7=0x00000000 PA:0x800089aa
       22275000	      2226	8000294c	017e6733	or	x14,x28,x23	 x28:0x80009f34 x23:0xf091aa4a x14=0xf091bf7e
       22285000	      2227	80002950	00314583	lbu	x11,3(x2)	  x2:0x80008a3e x11=0x00000000 PA:0x80008a41
       22295000	      2228	80002954	f7b14983	lbu	x19,-133(x2)	  x2:0x80008a3e x19=0x00000000 PA:0x800089b9
       22305000	      2229	80002958	40db0733	sub	x14,x22,x13	 x22:0x00000000 x13:0x800096ba x14=0x7fff6946
       22315000	      2230	8000295c	f5b14503	lbu	x10,-165(x2)	  x2:0x80008a3e x10=0x00000000 PA:0x80008999
       22325000	      2231	80002960	018e1993	slli	x19,x28,0x18	 x28:0x80009f34 x19=0x34000000
       22335000	      2232	80002964	0b910323	sb	x25,166(x2)	  x2:0x80008a3e x25:0x00000000 PA:0x80008ae4
       22345000	      2233	80002968	f07103a3	sb	x7,-249(x2)	  x2:0x80008a3e  x7:0x00000000 PA:0x80008945
       22355000	      2234	8000296c	0c3101a3	sb	x3,195(x2)	  x2:0x80008a3e  x3:0x00000000 PA:0x80008b01
       22365000	      2235	80002970	1c272e93	slti	x29,x14,450	 x14:0x7fff6946 x29=0x00000000
       22375000	      2236	80002974	fcd9b037	lui	x0,0xfcd9b	
       22385000	      2237	80002978	01b977b3	and	x15,x18,x27	 x18:0x00000000 x27:0x00000000 x15=0x00000000
       22395000	      2238	8000297c	0005e8b3	or	x17,x11,x0	 x11:0x00000000  x0:0x00000000 x17=0x00000000
       22405000	      2239	80002980	546bcf13	xori	x30,x23,1350	 x23:0xf091aa4a x30=0xf091af0c
       22415000	      2240	80002984	8c30bd13	sltiu	x26,x1,-1853	  x1:0xfffff786 x26=0x00000001
       22425000	      2241	80002988	ee613593	sltiu	x11,x2,-282	  x2:0x80008a3e x11=0x00000001
       22435000	      2242	8000298c	01914403	lbu	x8,25(x2)	  x2:0x80008a3e  x8=0x00000000 PA:0x80008a57
       22445000	      2243	80002990	403fdcb3	sra	x25,x31,x3	 x31:0x80009f34  x3:0x00000000 x25=0x80009f34
       22455000	      2244	80002994	1d03fc17	auipc	x24,0x1d03f	 x24=0x9d041990
       22465000	      2245	80002998	5bd33097	auipc	x1,0x5bd33	  x1=0xdbd35994
       22475000	      2246	8000299c	08510aa3	sb	x5,149(x2)	  x2:0x80008a3e  x5:0x800096ba PA:0x80008ad3
       22485000	      2247	800029a0	00005217	auipc	x4,0x5	  x4=0x8000799c
       22495000	      2248	800029a4	7f620213	addi	x4,x4,2038	  x4:0x8000799c  x4=0x80008192
       22505000	      2249	800029a8	01c21523	sh	x28,10(x4)	  x4:0x80008192 x28:0x80009f34 PA:0x8000819c
       22515000	      2250	800029ac	33d20183	lb	x3,829(x4)	  x4:0x80008192  x3=0x00000000 PA:0x800084cf
       22525000	      2251	800029b0	26124303	lbu	x6,609(x4)	  x4:0x80008192  x6=0x00000000 PA:0x800083f3
       22535000	      2252	800029b4	24024583	lbu	x11,576(x4)	  x4:0x80008192 x11=0x00000000 PA:0x800083d2
       22545000	      2253	800029b8	11722923	sw	x23,274(x4)	  x4:0x80008192 x23:0xf091aa4a PA:0x800082a4
       22555000	      2254	800029bc	10724c83	lbu	x25,263(x4)	  x4:0x80008192 x25=0x00000000 PA:0x80008299
       22565000	      2255	800029c0	01654333	xor	x6,x10,x22	 x10:0x00000000 x22:0x00000000  x6=0x00000000
       22575000	      2256	800029c4	3d425383	lhu	x7,980(x4)	  x4:0x80008192  x7=0x00000000 PA:0x80008566
       22585000	      2257	800029c8	6b9288b7	lui	x17,0x6b928	 x17=0x6b928000
       22595000	      2258	800029cc	005b54b3	srl	x9,x22,x5	 x22:0x00000000  x5:0x800096ba  x9=0x00000000
       22605000	      2259	800029d0	5ee207a3	sb	x14,1519(x4)	  x4:0x80008192 x14:0x7fff6946 PA:0x80008781
       22615000	      2260	800029d4	00fe9733	sll	x14,x29,x15	 x29:0x00000000 x15:0x00000000 x14=0x00000000
       22625000	      2261	800029d8	01fa21b3	slt	x3,x20,x31	 x20:0x00000000 x31:0x80009f34  x3=0x00000000
       22635000	      2262	800029dc	00000013	addi	x0,x0,0	  x0:0x00000000
       22645000	      2263	800029e0	feda1e97	auipc	x29,0xfeda1	 x29=0x7eda39dc
       22655000	      2264	800029e4	fbdb4793	xori	x15,x22,-67	 x22:0x00000000 x15=0xffffffbd
       22665000	      2265	800029e8	aaf4f397	auipc	x7,0xaaf4f	  x7=0x2af519e4
       22675000	      2266	800029ec	01419493	slli	x9,x3,0x14	  x3:0x00000000  x9=0x00000000
       22685000	      2267	800029f0	001370b3	and	x1,x6,x1	  x6:0x00000000  x1:0xdbd35994  x1=0x00000000
       22695000	      2268	800029f4	01240433	add	x8,x8,x18	  x8:0x00000000 x18:0x00000000  x8=0x00000000
       22705000	      2269	800029f8	2ee21b23	sh	x14,758(x4)	  x4:0x80008192 x14:0x00000000 PA:0x80008488
       22715000	      2270	800029fc	41625993	srai	x19,x4,0x16	  x4:0x80008192 x19=0xfffffe00
       22725000	      2271	80002a00	2eb84513	xori	x10,x16,747	 x16:0x00000000 x10=0x000002eb
       22735000	      2272	80002a04	5c120b03	lb	x22,1473(x4)	  x4:0x80008192 x22=0x00000000 PA:0x80008753
       22745000	      2273	80002a08	61d24c83	lbu	x25,1565(x4)	  x4:0x80008192 x25=0x00000000 PA:0x800087af
       22755000	      2274	80002a0c	75eab513	sltiu	x10,x21,1886	 x21:0x80009fc4 x10=0x00000000
       22765000	      2275	80002a10	00c95eb3	srl	x29,x18,x12	 x18:0x00000000 x12:0x00000401 x29=0x00000000
       22775000	      2276	80002a14	00693b33	sltu	x22,x18,x6	 x18:0x00000000  x6:0x00000000 x22=0x00000000
       22785000	      2277	80002a18	cfb92093	slti	x1,x18,-773	 x18:0x00000000  x1=0x00000000
       22795000	      2278	80002a1c	159c7213	andi	x4,x24,345	 x24:0x9d041990  x4=0x00000110
       22805000	      2279	80002a20	00000013	addi	x0,x0,0	  x0:0x00000000
       22815000	      2280	80002a24	02f01463	bne	x0,x15,80002a4c	  x0:0x00000000 x15:0xffffffbd
       22825000	      2281	00000000	00000013	addi	x0,x0,0	  x0:0x00000000
       22835000	      2282	80002a48	00000013	addi	x0,x0,0	  x0:0x00000000
       22845000	      2283	80002a4c	00ae5693	srli	x13,x28,0xa	 x28:0x80009f34 x13=0x00200027
       22855000	      2284	80002a50	02388463	beq	x17,x3,80002a78	 x17:0x6b928000  x3:0x00000000
       22865000	      2285	80002a54	4064db13	srai	x22,x9,0x6	  x9:0x00000000 x22=0x00000000
       22875000	      2286	80002a58	6cabf793	andi	x15,x23,1738	 x23:0xf091aa4a x15=0x0000024a
       22885000	      2287	80002a5c	01ec0233	add	x4,x24,x30	 x24:0x9d041990 x30:0xf091af0c  x4=0x8d95c89c
       22895000	      2288	80002a60	91407c13	andi	x24,x0,-1772	  x0:0x00000000 x24=0x00000000
       22905000	      2289	80002a64	40165593	srai	x11,x12,0x1	 x12:0x00000401 x11=0x00000200
       22915000	      2290	80002a68	69214617	auipc	x12,0x69214	 x12=0xe9216a64
       22925000	      2291	80002a6c	c8a47e93	andi	x29,x8,-886	  x8:0x00000000 x29=0x00000000
       22935000	      2292	80002a70	0495c063	blt	x11,x9,80002ab0	 x11:0x00000200  x9:0x00000000
       22945000	      2293	80002a74	40bb5633	sra	x12,x22,x11	 x22:0x00000000 x11:0x00000200 x12=0x00000000
       22955000	      2294	80002a78	00419633	sll	x12,x3,x4	  x3:0x00000000  x4:0x8d95c89c x12=0x00000000
       22965000	      2295	80002a7c	5fac6813	ori	x16,x24,1530	 x24:0x00000000 x16=0x000005fa
       22975000	      2296	80002a80	03924263	blt	x4,x25,80002aa4	  x4:0x8d95c89c x25:0x00000000
       22985000	      2297	00000000	00000013	addi	x0,x0,0	  x0:0x00000000
       22995000	      2298	80002aa0	00000013	addi	x0,x0,0	  x0:0x00000000
       23005000	      2299	80002aa4	006c7463	bgeu	x24,x6,80002aac	 x24:0x00000000  x6:0x00000000
       23015000	      2300	00000000	00000013	addi	x0,x0,0	  x0:0x00000000
       23025000	      2301	80002aa8	00000013	addi	x0,x0,0	  x0:0x00000000
       23035000	      2302	80002aac	0039f3b3	and	x7,x19,x3	 x19:0xfffffe00  x3:0x00000000  x7=0x00000000
       23045000	      2303	80002ab0	01209263	bne	x1,x18,80002ab4	  x1:0x00000000 x18:0x00000000
       23055000	      2304	80002ab4	004c18b3	sll	x17,x24,x4	 x24:0x00000000  x4:0x8d95c89c x17=0x00000000
       23065000	      2305	80002ab8	04577863	bgeu	x14,x5,80002b08	 x14:0x00000000  x5:0x800096ba
       23075000	      2306	80002abc	ac333313	sltiu	x6,x6,-1341	  x6:0x00000000  x6=0x00000001
       23085000	      2307	80002ac0	006f7863	bgeu	x30,x6,80002ad0	 x30:0xf091af0c  x6:0x00000001
       23095000	      2308	00000000	00000013	addi	x0,x0,0	  x0:0x00000000
       23105000	      2309	80002acc	00000013	addi	x0,x0,0	  x0:0x00000000
       23115000	      2310	80002ad0	be4d3493	sltiu	x9,x26,-1052	 x26:0x00000001  x9=0x00000001
       23125000	      2311	80002ad4	019c0033	add	x0,x24,x25	 x24:0x00000000 x25:0x00000000
       23135000	      2312	80002ad8	004eaa33	slt	x20,x29,x4	 x29:0x00000000  x4:0x8d95c89c x20=0x00000000
       23145000	      2313	80002adc	02116e63	bltu	x2,x1,80002b18	  x2:0x80008a3e  x1:0x00000000
       23155000	      2314	80002ae0	01fd9633	sll	x12,x27,x31	 x27:0x00000000 x31:0x80009f34 x12=0x00000000
       23165000	      2315	80002ae4	05bf7c93	andi	x25,x30,91	 x30:0xf091af0c x25=0x00000008
       23175000	      2316	80002ae8	eeca4f13	xori	x30,x20,-276	 x20:0x00000000 x30=0xfffffeec
       23185000	      2317	80002aec	043fd863	bge	x31,x3,80002b3c	 x31:0x80009f34  x3:0x00000000
       23195000	      2318	80002af0	00a01033	sll	x0,x0,x10	  x0:0x00000000 x10:0x00000000
       23205000	      2319	80002af4	9e8a8997	auipc	x19,0x9e8a8	 x19=0x1e8aaaf0
       23215000	      2320	80002af8	59dae113	ori	x2,x21,1437	 x21:0x80009fc4  x2=0x80009fdd
       23225000	      2321	80002afc	00bef463	bgeu	x29,x11,80002b04	 x29:0x00000000 x11:0x00000200
       23235000	      2322	80002b00	0161ac33	slt	x24,x3,x22	  x3:0x00000000 x22:0x00000000 x24=0x00000000
       23245000	      2323	80002b04	00220533	add	x10,x4,x2	  x4:0x8d95c89c  x2:0x80009fdd x10=0x0d966879
       23255000	      2324	80002b08	000cf9b3	and	x19,x25,x0	 x25:0x00000008  x0:0x00000000 x19=0x00000000
       23265000	      2325	80002b0c	39a9a793	slti	x15,x19,922	 x19:0x00000000 x15=0x00000001
       23275000	      2326	80002b10	56d88693	addi	x13,x17,1389	 x17:0x00000000 x13=0x0000056d
       23285000	      2327	80002b14	04916463	bltu	x2,x9,80002b5c	  x2:0x80009fdd  x9:0x00000001
       23295000	      2328	80002b18	00ef50b3	srl	x1,x30,x14	 x30:0xfffffeec x14:0x00000000  x1=0xfffffeec
       23305000	      2329	80002b1c	02aef663	bgeu	x29,x10,80002b48	 x29:0x00000000 x10:0x0d966879
       23315000	      2330	80002b20	01739fb3	sll	x31,x7,x23	  x7:0x00000000 x23:0xf091aa4a x31=0x00000000
       23325000	      2331	80002b24	33ca6b13	ori	x22,x20,828	 x20:0x00000000 x22=0x0000033c
       23335000	      2332	80002b28	402a5913	srai	x18,x20,0x2	 x20:0x00000000 x18=0x00000000
       23345000	      2333	80002b2c	5c457d97	auipc	x27,0x5c457	 x27=0xdc459b28
       23355000	      2334	80002b30	003f2833	slt	x16,x30,x3	 x30:0xfffffeec  x3:0x00000000 x16=0x00000001
       23365000	      2335	80002b34	41040133	sub	x2,x8,x16	  x8:0x00000000 x16:0x00000001  x2=0xffffffff
       23375000	      2336	80002b38	019a0b37	lui	x22,0x19a0	 x22=0x019a0000
       23385000	      2337	80002b3c	01e8d193	srli	x3,x17,0x1e	 x17:0x00000000  x3=0x00000000
       23395000	      2338	80002b40	02c3f063	bgeu	x7,x12,80002b60	  x7:0x00000000 x12:0x00000000
       23405000	      2339	00000000	00000013	addi	x0,x0,0	  x0:0x00000000
       23415000	      2340	80002b5c	00000013	addi	x0,x0,0	  x0:0x00000000
       23425000	      2341	80002b60	014a3533	sltu	x10,x20,x20	 x20:0x00000000 x20:0x00000000 x10=0x00000000
       23435000	      2342	80002b64	04ea8263	beq	x21,x14,80002ba8	 x21:0x80009fc4 x14:0x00000000
       23445000	      2343	80002b68	038d6d93	ori	x27,x26,56	 x26:0x00000001 x27=0x00000039
       23455000	      2344	80002b6c	4057d8b3	sra	x17,x15,x5	 x15:0x00000001  x5:0x800096ba x17=0x00000000
       23465000	      2345	80002b70	41e0d733	sra	x14,x1,x30	  x1:0xfffffeec x30:0xfffffeec x14=0xffffffff
       23475000	      2346	80002b74	0507e863	bltu	x15,x16,80002bc4	 x15:0x00000001 x16:0x00000001
       23485000	      2347	80002b78	01f7d133	srl	x2,x15,x31	 x15:0x00000001 x31:0x00000000  x2=0x00000001
       23495000	      2348	80002b7c	01d0d893	srli	x17,x1,0x1d	  x1:0xfffffeec x17=0x00000007
       23505000	      2349	80002b80	40b30db3	sub	x27,x6,x11	  x6:0x00000001 x11:0x00000200 x27=0xfffffe01
       23515000	      2350	80002b84	00284733	xor	x14,x16,x2	 x16:0x00000001  x2:0x00000001 x14=0x00000000
       23525000	      2351	80002b88	00000013	addi	x0,x0,0	  x0:0x00000000
       23535000	      2352	80002b8c	00704033	xor	x0,x0,x7	  x0:0x00000000  x7:0x00000000
       23545000	      2353	80002b90	02c2fc63	bgeu	x5,x12,80002bc8	  x5:0x800096ba x12:0x00000000
       23555000	      2354	00000000	00000013	addi	x0,x0,0	  x0:0x00000000
       23565000	      2355	80002bc4	00000013	addi	x0,x0,0	  x0:0x00000000
       23575000	      2356	80002bc8	0387f063	bgeu	x15,x24,80002be8	 x15:0x00000001 x24:0x00000000
       23585000	      2357	00000000	00000013	addi	x0,x0,0	  x0:0x00000000
       23595000	      2358	80002be4	00000013	addi	x0,x0,0	  x0:0x00000000
       23605000	      2359	80002be8	7d5be313	ori	x6,x23,2005	 x23:0xf091aa4a  x6=0xf091afdf
       23615000	      2360	80002bec	844eb613	sltiu	x12,x29,-1980	 x29:0x00000000 x12=0x00000001
       23625000	      2361	80002bf0	00dd9633	sll	x12,x27,x13	 x27:0xfffffe01 x13:0x0000056d x12=0xffc02000
       23635000	      2362	80002bf4	00000013	addi	x0,x0,0	  x0:0x00000000
       23645000	      2363	80002bf8	e6374493	xori	x9,x14,-413	 x14:0x00000000  x9=0xfffffe63
       23655000	      2364	80002bfc	05344463	blt	x8,x19,80002c44	  x8:0x00000000 x19:0x00000000
       23665000	      2365	80002c00	03ed1a63	bne	x26,x30,80002c34	 x26:0x00000001 x30:0xfffffeec
       23675000	      2366	00000000	00000013	addi	x0,x0,0	  x0:0x00000000
       23685000	      2367	80002c30	00000013	addi	x0,x0,0	  x0:0x00000000
       23695000	      2368	80002c34	038ae463	bltu	x21,x24,80002c5c	 x21:0x80009fc4 x24:0x00000000
       23705000	      2369	80002c38	40e1d7b3	sra	x15,x3,x14	  x3:0x00000000 x14:0x00000000 x15=0x00000000
       23715000	      2370	80002c3c	01fb7b33	and	x22,x22,x31	 x22:0x019a0000 x31:0x00000000 x22=0x00000000
       23725000	      2371	80002c40	05807463	bgeu	x0,x24,80002c88	  x0:0x00000000 x24:0x00000000
       23735000	      2372	00000000	00000013	addi	x0,x0,0	  x0:0x00000000
       23745000	      2373	80002c84	00000013	addi	x0,x0,0	  x0:0x00000000
       23755000	      2374	80002c88	05f04463	blt	x0,x31,80002cd0	  x0:0x00000000 x31:0x00000000
       23765000	      2375	80002c8c	f5784313	xori	x6,x16,-169	 x16:0x00000001  x6=0xffffff56
       23775000	      2376	80002c90	001ec633	xor	x12,x29,x1	 x29:0x00000000  x1:0xfffffeec x12=0xfffffeec
       23785000	      2377	80002c94	03f81063	bne	x16,x31,80002cb4	 x16:0x00000001 x31:0x00000000
       23795000	      2378	00000000	00000013	addi	x0,x0,0	  x0:0x00000000
       23805000	      2379	80002cb0	00000013	addi	x0,x0,0	  x0:0x00000000
       23815000	      2380	80002cb4	03cc4a63	blt	x24,x28,80002ce8	 x24:0x00000000 x28:0x80009f34
       23825000	      2381	80002cb8	01c74c33	xor	x24,x14,x28	 x14:0x00000000 x28:0x80009f34 x24=0x80009f34
       23835000	      2382	80002cbc	02a50663	beq	x10,x10,80002ce8	 x10:0x00000000 x10:0x00000000
       23845000	      2383	00000000	00000013	addi	x0,x0,0	  x0:0x00000000
       23855000	      2384	80002ce4	00000013	addi	x0,x0,0	  x0:0x00000000
       23865000	      2385	80002ce8	00cf47b3	xor	x15,x30,x12	 x30:0xfffffeec x12:0xfffffeec x15=0x00000000
       23875000	      2386	80002cec	0132db13	srli	x22,x5,0x13	  x5:0x800096ba x22=0x00001000
       23885000	      2387	80002cf0	0ddd0e93	addi	x29,x26,221	 x26:0x00000001 x29=0x000000de
       23895000	      2388	80002cf4	2e85a697	auipc	x13,0x2e85a	 x13=0xae85ccf0
       23905000	      2389	80002cf8	408c0b33	sub	x22,x24,x8	 x24:0x80009f34  x8:0x00000000 x22=0x80009f34
       23915000	      2390	80002cfc	00000013	addi	x0,x0,0	  x0:0x00000000
       23925000	      2391	80002d00	01cf9913	slli	x18,x31,0x1c	 x31:0x00000000 x18=0x00000000
       23935000	      2392	80002d04	01d89e93	slli	x29,x17,0x1d	 x17:0x00000007 x29=0xe0000000
       23945000	      2393	80002d08	04156863	bltu	x10,x1,80002d58	 x10:0x00000000  x1:0xfffffeec
       23955000	      2394	00000000	00000013	addi	x0,x0,0	  x0:0x00000000
       23965000	      2395	80002d54	00000013	addi	x0,x0,0	  x0:0x00000000
       23975000	      2396	80002d58	00000013	addi	x0,x0,0	  x0:0x00000000
       23985000	      2397	80002d5c	00362733	slt	x14,x12,x3	 x12:0xfffffeec  x3:0x00000000 x14=0x00000001
       23995000	      2398	80002d60	0150af33	slt	x30,x1,x21	  x1:0xfffffeec x21:0x80009fc4 x30=0x00000000
       24005000	      2399	80002d64	8c46f5b7	lui	x11,0x8c46f	 x11=0x8c46f000
       24015000	      2400	80002d68	1d7d7613	andi	x12,x26,471	 x26:0x00000001 x12=0x00000001
       24025000	      2401	80002d6c	45776c13	ori	x24,x14,1111	 x14:0x00000001 x24=0x00000457
       24035000	      2402	80002d70	41abd0b3	sra	x1,x23,x26	 x23:0xf091aa4a x26:0x00000001  x1=0xf848d525
       24045000	      2403	80002d74	00000013	addi	x0,x0,0	  x0:0x00000000
       24055000	      2404	80002d78	036d0e63	beq	x26,x22,80002db4	 x26:0x00000001 x22:0x80009f34
       24065000	      2405	80002d7c	bc086693	ori	x13,x16,-1088	 x16:0x00000001 x13=0xfffffbc1
       24075000	      2406	80002d80	00301c33	sll	x24,x0,x3	  x0:0x00000000  x3:0x00000000 x24=0x00000000
       24085000	      2407	80002d84	01cb5a13	srli	x20,x22,0x1c	 x22:0x80009f34 x20=0x00000008
       24095000	      2408	80002d88	004359b3	srl	x19,x6,x4	  x6:0xffffff56  x4:0x8d95c89c x19=0x0000000f
       24105000	      2409	80002d8c	01e429b3	slt	x19,x8,x30	  x8:0x00000000 x30:0x00000000 x19=0x00000000
       24115000	      2410	80002d90	9fcd8313	addi	x6,x27,-1540	 x27:0xfffffe01  x6=0xfffff7fd
       24125000	      2411	80002d94	0072a633	slt	x12,x5,x7	  x5:0x800096ba  x7:0x00000000 x12=0x00000001
       24135000	      2412	80002d98	0118d0b3	srl	x1,x17,x17	 x17:0x00000007 x17:0x00000007  x1=0x00000000
       24145000	      2413	80002d9c	03d28c63	beq	x5,x29,80002dd4	  x5:0x800096ba x29:0xe0000000
       24155000	      2414	80002da0	40f804b3	sub	x9,x16,x15	 x16:0x00000001 x15:0x00000000  x9=0x00000001
       24165000	      2415	80002da4	004533b3	sltu	x7,x10,x4	 x10:0x00000000  x4:0x8d95c89c  x7=0x00000001
       24175000	      2416	80002da8	01171213	slli	x4,x14,0x11	 x14:0x00000001  x4=0x00020000
       24185000	      2417	80002dac	411d5593	srai	x11,x26,0x11	 x26:0x00000001 x11=0x00000000
       24195000	      2418	80002db0	00705293	srli	x5,x0,0x7	  x0:0x00000000  x5=0x00000000
       24205000	      2419	80002db4	00000013	addi	x0,x0,0	  x0:0x00000000
       24215000	      2420	80002db8	002779b3	and	x19,x14,x2	 x14:0x00000001  x2:0x00000001 x19=0x00000001
       24225000	      2421	80002dbc	89716693	ori	x13,x2,-1897	  x2:0x00000001 x13=0xfffff897
       24235000	      2422	80002dc0	013249b3	xor	x19,x4,x19	  x4:0x00020000 x19:0x00000001 x19=0x00020001
       24245000	      2423	80002dc4	018bb1b3	sltu	x3,x23,x24	 x23:0xf091aa4a x24:0x00000000  x3=0x00000000
       24255000	      2424	80002dc8	045a1663	bne	x20,x5,80002e14	 x20:0x00000008  x5:0x00000000
       24265000	      2425	00000000	00000013	addi	x0,x0,0	  x0:0x00000000
       24275000	      2426	80002e10	00000013	addi	x0,x0,0	  x0:0x00000000
       24285000	      2427	80002e14	007f8133	add	x2,x31,x7	 x31:0x00000000  x7:0x00000001  x2=0x00000001
       24295000	      2428	80002e18	01889463	bne	x17,x24,80002e20	 x17:0x00000007 x24:0x00000000
       24305000	      2429	00000000	00000013	addi	x0,x0,0	  x0:0x00000000
       24315000	      2430	80002e1c	00000013	addi	x0,x0,0	  x0:0x00000000
       24325000	      2431	80002e20	00429f13	slli	x30,x5,0x4	  x5:0x00000000 x30=0x00000000
       24335000	      2432	80002e24	ff5a28b7	lui	x17,0xff5a2	 x17=0xff5a2000
       24345000	      2433	80002e28	4c68b793	sltiu	x15,x17,1222	 x17:0xff5a2000 x15=0x00000000
       24355000	      2434	80002e2c	00ccd513	srli	x10,x25,0xc	 x25:0x00000008 x10=0x00000000
       24365000	      2435	80002e30	00101493	slli	x9,x0,0x1	  x0:0x00000000  x9=0x00000000
       24375000	      2436	80002e34	0304c463	blt	x9,x16,80002e5c	  x9:0x00000000 x16:0x00000001
       24385000	      2437	00000000	00000013	addi	x0,x0,0	  x0:0x00000000
       24395000	      2438	80002e58	00000013	addi	x0,x0,0	  x0:0x00000000
       24405000	      2439	80002e5c	0148f9b3	and	x19,x17,x20	 x17:0xff5a2000 x20:0x00000008 x19=0x00000000
       24415000	      2440	80002e60	01041a13	slli	x20,x8,0x10	  x8:0x00000000 x20=0x00000000
       24425000	      2441	80002e64	05c17863	bgeu	x2,x28,80002eb4	  x2:0x00000001 x28:0x80009f34
       24435000	      2442	80002e68	b73fb493	sltiu	x9,x31,-1165	 x31:0x00000000  x9=0x00000001
       24445000	      2443	80002e6c	e5ce9737	lui	x14,0xe5ce9	 x14=0xe5ce9000
       24455000	      2444	80002e70	013f1463	bne	x30,x19,80002e78	 x30:0x00000000 x19:0x00000000
       24465000	      2445	80002e74	039e4a63	blt	x28,x25,80002ea8	 x28:0x80009f34 x25:0x00000008
       24475000	      2446	00000000	00000013	addi	x0,x0,0	  x0:0x00000000
       24485000	      2447	80002ea4	00000013	addi	x0,x0,0	  x0:0x00000000
       24495000	      2448	80002ea8	039e8a63	beq	x29,x25,80002edc	 x29:0xe0000000 x25:0x00000008
       24505000	      2449	80002eac	01559e93	slli	x29,x11,0x15	 x11:0x00000000 x29=0x00000000
       24515000	      2450	80002eb0	00748733	add	x14,x9,x7	  x9:0x00000001  x7:0x00000001 x14=0x00000002
       24525000	      2451	80002eb4	016f2033	slt	x0,x30,x22	 x30:0x00000000 x22:0x80009f34
       24535000	      2452	80002eb8	01079d13	slli	x26,x15,0x10	 x15:0x00000000 x26=0x00000000
       24545000	      2453	80002ebc	04586863	bltu	x16,x5,80002f0c	 x16:0x00000001  x5:0x00000000
       24555000	      2454	80002ec0	9223bd13	sltiu	x26,x7,-1758	  x7:0x00000001 x26=0x00000001
       24565000	      2455	80002ec4	008af1b3	and	x3,x21,x8	 x21:0x80009fc4  x8:0x00000000  x3=0x00000000
       24575000	      2456	80002ec8	015a8b33	add	x22,x21,x21	 x21:0x80009fc4 x21:0x80009fc4 x22=0x00013f88
       24585000	      2457	80002ecc	0189e263	bltu	x19,x24,80002ed0	 x19:0x00000000 x24:0x00000000
       24595000	      2458	80002ed0	c71f0993	addi	x19,x30,-911	 x30:0x00000000 x19=0xfffffc71
       24605000	      2459	80002ed4	00000013	addi	x0,x0,0	  x0:0x00000000
       24615000	      2460	80002ed8	00119713	slli	x14,x3,0x1	  x3:0x00000000 x14=0x00000000
       24625000	      2461	80002edc	01067c63	bgeu	x12,x16,80002ef4	 x12:0x00000001 x16:0x00000001
       24635000	      2462	00000000	00000013	addi	x0,x0,0	  x0:0x00000000
       24645000	      2463	80002ef0	00000013	addi	x0,x0,0	  x0:0x00000000
       24655000	      2464	80002ef4	01c7b0b3	sltu	x1,x15,x28	 x15:0x00000000 x28:0x80009f34  x1=0x00000001
       24665000	      2465	80002ef8	04d86263	bltu	x16,x13,80002f3c	 x16:0x00000001 x13:0xfffff897
       24675000	      2466	00000000	00000013	addi	x0,x0,0	  x0:0x00000000
       24685000	      2467	80002f38	00000013	addi	x0,x0,0	  x0:0x00000000
       24695000	      2468	80002f3c	60c14213	xori	x4,x2,1548	  x2:0x00000001  x4=0x0000060d
       24705000	      2469	80002f40	01cebb33	sltu	x22,x29,x28	 x29:0x00000000 x28:0x80009f34 x22=0x00000001
       24715000	      2470	80002f44	01a49793	slli	x15,x9,0x1a	  x9:0x00000001 x15=0x04000000
       24725000	      2471	80002f48	01aa36b3	sltu	x13,x20,x26	 x20:0x00000000 x26:0x00000001 x13=0x00000001
       24735000	      2472	80002f4c	02588663	beq	x17,x5,80002f78	 x17:0xff5a2000  x5:0x00000000
       24745000	      2473	80002f50	0282d063	bge	x5,x8,80002f70	  x5:0x00000000  x8:0x00000000
       24755000	      2474	00000000	00000013	addi	x0,x0,0	  x0:0x00000000
       24765000	      2475	80002f6c	00000013	addi	x0,x0,0	  x0:0x00000000
       24775000	      2476	80002f70	f74dd097	auipc	x1,0xf74dd	  x1=0x774dff6c
       24785000	      2477	80002f74	40905313	srai	x6,x0,0x9	  x0:0x00000000  x6=0x00000000
       24795000	      2478	80002f78	1993b337	lui	x6,0x1993b	  x6=0x1993b000
       24805000	      2479	80002f7c	41c18433	sub	x8,x3,x28	  x3:0x00000000 x28:0x80009f34  x8=0x7fff60cc
       24815000	      2480	80002f80	219efc13	andi	x24,x29,537	 x29:0x00000000 x24=0x00000000
       24825000	      2481	80002f84	ae4b4c93	xori	x25,x22,-1308	 x22:0x00000001 x25=0xfffffae5
       24835000	      2482	80002f88	1ef37437	lui	x8,0x1ef37	  x8=0x1ef37000
       24845000	      2483	80002f8c	402d8cb3	sub	x25,x27,x2	 x27:0xfffffe01  x2:0x00000001 x25=0xfffffe00
       24855000	      2484	80002f90	02b46463	bltu	x8,x11,80002fb8	  x8:0x1ef37000 x11:0x00000000
       24865000	      2485	80002f94	9e37f437	lui	x8,0x9e37f	  x8=0x9e37f000
       24875000	      2486	80002f98	2fd57813	andi	x16,x10,765	 x10:0x00000000 x16=0x00000000
       24885000	      2487	80002f9c	b78d2337	lui	x6,0xb78d2	  x6=0xb78d2000
       24895000	      2488	80002fa0	01661913	slli	x18,x12,0x16	 x12:0x00000001 x18=0x00400000
       24905000	      2489	80002fa4	02dc0463	beq	x24,x13,80002fcc	 x24:0x00000000 x13:0x00000001
       24915000	      2490	80002fa8	41d6da33	sra	x20,x13,x29	 x13:0x00000001 x29:0x00000000 x20=0x00000001
       24925000	      2491	80002fac	cdf2fe93	andi	x29,x5,-801	  x5:0x00000000 x29=0x00000000
       24935000	      2492	80002fb0	1eadee93	ori	x29,x27,490	 x27:0xfffffe01 x29=0xffffffeb
       24945000	      2493	80002fb4	02e27263	bgeu	x4,x14,80002fd8	  x4:0x0000060d x14:0x00000000
       24955000	      2494	00000000	00000013	addi	x0,x0,0	  x0:0x00000000
       24965000	      2495	80002fd4	00000013	addi	x0,x0,0	  x0:0x00000000
       24975000	      2496	80002fd8	008485b3	add	x11,x9,x8	  x9:0x00000001  x8:0x9e37f000 x11=0x9e37f001
       24985000	      2497	80002fdc	01cc4133	xor	x2,x24,x28	 x24:0x00000000 x28:0x80009f34  x2=0x80009f34
       24995000	      2498	80002fe0	40db8c33	sub	x24,x23,x13	 x23:0xf091aa4a x13:0x00000001 x24=0xf091aa49
       25005000	      2499	80002fe4	00db2b33	slt	x22,x22,x13	 x22:0x00000001 x13:0x00000001 x22=0x00000000
       25015000	      2500	80002fe8	05aee063	bltu	x29,x26,80003028	 x29:0xffffffeb x26:0x00000001
       25025000	      2501	80002fec	01a25cb3	srl	x25,x4,x26	  x4:0x0000060d x26:0x00000001 x25=0x00000306
       25035000	      2502	80002ff0	00000013	addi	x0,x0,0	  x0:0x00000000
       25045000	      2503	80002ff4	00f55463	bge	x10,x15,80002ffc	 x10:0x00000000 x15:0x04000000
       25055000	      2504	80002ff8	00b8b033	sltu	x0,x17,x11	 x17:0xff5a2000 x11:0x9e37f001
       25065000	      2505	80002ffc	0047dd33	srl	x26,x15,x4	 x15:0x04000000  x4:0x0000060d x26=0x00002000
       25075000	      2506	80003000	01aac0b3	xor	x1,x21,x26	 x21:0x80009fc4 x26:0x00002000  x1=0x8000bfc4
       25085000	      2507	80003004	05f7e463	bltu	x15,x31,8000304c	 x15:0x04000000 x31:0x00000000
       25095000	      2508	80003008	04698063	beq	x19,x6,80003048	 x19:0xfffffc71  x6:0xb78d2000
       25105000	      2509	8000300c	41b681b3	sub	x3,x13,x27	 x13:0x00000001 x27:0xfffffe01  x3=0x00000200
       25115000	      2510	80003010	054f9863	bne	x31,x20,80003060	 x31:0x00000000 x20:0x00000001
       25125000	      2511	00000000	00000013	addi	x0,x0,0	  x0:0x00000000
       25135000	      2512	8000305c	00000013	addi	x0,x0,0	  x0:0x00000000
       25145000	      2513	80003060	9255d937	lui	x18,0x9255d	 x18=0x9255d000
       25155000	      2514	80003064	931886b7	lui	x13,0x93188	 x13=0x93188000
       25165000	      2515	80003068	0167edb3	or	x27,x15,x22	 x15:0x04000000 x22:0x00000000 x27=0x04000000
       25175000	      2516	8000306c	00000013	addi	x0,x0,0	  x0:0x00000000
       25185000	      2517	80003070	00000013	addi	x0,x0,0	  x0:0x00000000
       25195000	      2518	80003074	0348f663	bgeu	x17,x20,800030a0	 x17:0xff5a2000 x20:0x00000001
       25205000	      2519	00000000	00000013	addi	x0,x0,0	  x0:0x00000000
       25215000	      2520	8000309c	00000013	addi	x0,x0,0	  x0:0x00000000
       25225000	      2521	800030a0	02c67063	bgeu	x12,x12,800030c0	 x12:0x00000001 x12:0x00000001
       25235000	      2522	00000000	00000013	addi	x0,x0,0	  x0:0x00000000
       25245000	      2523	800030bc	00000013	addi	x0,x0,0	  x0:0x00000000
       25255000	      2524	800030c0	00c073b3	and	x7,x0,x12	  x0:0x00000000 x12:0x00000001  x7=0x00000000
       25265000	      2525	800030c4	0044e463	bltu	x9,x4,800030cc	  x9:0x00000001  x4:0x0000060d
       25275000	      2526	00000000	00000013	addi	x0,x0,0	  x0:0x00000000
       25285000	      2527	800030c8	00000013	addi	x0,x0,0	  x0:0x00000000
       25295000	      2528	800030cc	44343993	sltiu	x19,x8,1091	  x8:0x9e37f000 x19=0x00000000
       25305000	      2529	800030d0	019d6c33	or	x24,x26,x25	 x26:0x00002000 x25:0x00000306 x24=0x00002306
       25315000	      2530	800030d4	0494c863	blt	x9,x9,80003124	  x9:0x00000001  x9:0x00000001
       25325000	      2531	800030d8	01d9b9b3	sltu	x19,x19,x29	 x19:0x00000000 x29:0xffffffeb x19=0x00000001
       25335000	      2532	800030dc	433bbd13	sltiu	x26,x23,1075	 x23:0xf091aa4a x26=0x00000000
       25345000	      2533	800030e0	0b497593	andi	x11,x18,180	 x18:0x9255d000 x11=0x00000000
       25355000	      2534	800030e4	004ed033	srl	x0,x29,x4	 x29:0xffffffeb  x4:0x0000060d
       25365000	      2535	800030e8	043f7063	bgeu	x30,x3,80003128	 x30:0x00000000  x3:0x00000200
       25375000	      2536	800030ec	b0554497	auipc	x9,0xb0554	  x9=0x305570e8
       25385000	      2537	800030f0	04fa9263	bne	x21,x15,80003134	 x21:0x80009fc4 x15:0x04000000
       25395000	      2538	00000000	00000013	addi	x0,x0,0	  x0:0x00000000
       25405000	      2539	80003130	00000013	addi	x0,x0,0	  x0:0x00000000
       25415000	      2540	80003134	01779463	bne	x15,x23,8000313c	 x15:0x04000000 x23:0xf091aa4a
       25425000	      2541	00000000	00000013	addi	x0,x0,0	  x0:0x00000000
       25435000	      2542	80003138	00000013	addi	x0,x0,0	  x0:0x00000000
       25445000	      2543	8000313c	017ff263	bgeu	x31,x23,80003140	 x31:0x00000000 x23:0xf091aa4a
       25455000	      2544	80003140	015ec463	blt	x29,x21,80003148	 x29:0xffffffeb x21:0x80009fc4
       25465000	      2545	80003144	05c04263	blt	x0,x28,80003188	  x0:0x00000000 x28:0x80009f34
       25475000	      2546	80003148	05085463	bge	x16,x16,80003190	 x16:0x00000000 x16:0x00000000
       25485000	      2547	00000000	00000013	addi	x0,x0,0	  x0:0x00000000
       25495000	      2548	8000318c	00000013	addi	x0,x0,0	  x0:0x00000000
       25505000	      2549	80003190	01e2e133	or	x2,x5,x30	  x5:0x00000000 x30:0x00000000  x2=0x00000000
       25515000	      2550	80003194	41c2d193	srai	x3,x5,0x1c	  x5:0x00000000  x3=0x00000000
       25525000	      2551	80003198	0eaac063	blt	x21,x10,80003278	 x21:0x80009fc4 x10:0x00000000
       25535000	      2552	00000000	00000013	addi	x0,x0,0	  x0:0x00000000
       25545000	      2553	80003274	00000013	addi	x0,x0,0	  x0:0x00000000
       25555000	      2554	80003278	015d1093	slli	x1,x26,0x15	 x26:0x00000000  x1=0x00000000
       25565000	      2555	8000327c	00f3d233	srl	x4,x7,x15	  x7:0x00000000 x15:0x04000000  x4=0x00000000
       25575000	      2556	80003280	0260f463	bgeu	x1,x6,800032a8	  x1:0x00000000  x6:0xb78d2000
       25585000	      2557	80003284	569dac93	slti	x25,x27,1385	 x27:0x04000000 x25=0x00000000
       25595000	      2558	80003288	00000013	addi	x0,x0,0	  x0:0x00000000
       25605000	      2559	8000328c	02db1463	bne	x22,x13,800032b4	 x22:0x00000000 x13:0x93188000
       25615000	      2560	00000000	00000013	addi	x0,x0,0	  x0:0x00000000
       25625000	      2561	800032b0	00000013	addi	x0,x0,0	  x0:0x00000000
       25635000	      2562	800032b4	688a1e97	auipc	x29,0x688a1	 x29=0xe88a42b0
       25645000	      2563	800032b8	402fd013	srai	x0,x31,0x2	 x31:0x00000000
       25655000	      2564	800032bc	ccbb7f13	andi	x30,x22,-821	 x22:0x00000000 x30=0x00000000
       25665000	      2565	800032c0	011378b3	and	x17,x6,x17	  x6:0xb78d2000 x17:0xff5a2000 x17=0xb7082000
       25675000	      2566	800032c4	1c50b813	sltiu	x16,x1,453	  x1:0x00000000 x16=0x00000001
       25685000	      2567	800032c8	02540263	beq	x8,x5,800032ec	  x8:0x9e37f000  x5:0x00000000
       25695000	      2568	800032cc	4114d133	sra	x2,x9,x17	  x9:0x305570e8 x17:0xb7082000  x2=0x305570e8
       25705000	      2569	800032d0	b6c4ac93	slti	x25,x9,-1172	  x9:0x305570e8 x25=0x00000000
       25715000	      2570	800032d4	d9fbc237	lui	x4,0xd9fbc	  x4=0xd9fbc000
       25725000	      2571	800032d8	03ec9a63	bne	x25,x30,8000330c	 x25:0x00000000 x30:0x00000000
       25735000	      2572	800032dc	00150fb3	add	x31,x10,x1	 x10:0x00000000  x1:0x00000000 x31=0x00000000
       25745000	      2573	800032e0	d3e46293	ori	x5,x8,-706	  x8:0x9e37f000  x5=0xfffffd3e
       25755000	      2574	800032e4	0716ec93	ori	x25,x13,113	 x13:0x93188000 x25=0x93188071
       25765000	      2575	800032e8	044f6863	bltu	x30,x4,80003338	 x30:0x00000000  x4:0xd9fbc000
       25775000	      2576	00000000	00000013	addi	x0,x0,0	  x0:0x00000000
       25785000	      2577	80003334	00000013	addi	x0,x0,0	  x0:0x00000000
       25795000	      2578	80003338	00181293	slli	x5,x16,0x1	 x16:0x00000001  x5=0x00000002
       25805000	      2579	8000333c	00ec7433	and	x8,x24,x14	 x24:0x00002306 x14:0x00000000  x8=0x00000000
       25815000	      2580	80003340	67107d93	andi	x27,x0,1649	  x0:0x00000000 x27=0x00000000
       25825000	      2581	80003344	ce53c117	auipc	x2,0xce53c	  x2=0x4e53f340
       25835000	      2582	80003348	04400263	beq	x0,x4,8000338c	  x0:0x00000000  x4:0xd9fbc000
       25845000	      2583	8000334c	00fec733	xor	x14,x29,x15	 x29:0xe88a42b0 x15:0x04000000 x14=0xec8a42b0
       25855000	      2584	80003350	05334863	blt	x6,x19,800033a0	  x6:0xb78d2000 x19:0x00000001
       25865000	      2585	00000000	00000013	addi	x0,x0,0	  x0:0x00000000
       25875000	      2586	8000339c	00000013	addi	x0,x0,0	  x0:0x00000000
       25885000	      2587	800033a0	401ed293	srai	x5,x29,0x1	 x29:0xe88a42b0  x5=0xf4452158
       25895000	      2588	800033a4	01890d33	add	x26,x18,x24	 x18:0x9255d000 x24:0x00002306 x26=0x9255f306
       25905000	      2589	800033a8	01d64633	xor	x12,x12,x29	 x12:0x00000001 x29:0xe88a42b0 x12=0xe88a42b1
       25915000	      2590	800033ac	419355b3	sra	x11,x6,x25	  x6:0xb78d2000 x25:0x93188071 x11=0xffffdbc6
       25925000	      2591	800033b0	01145293	srli	x5,x8,0x11	  x8:0x00000000  x5=0x00000000
       25935000	      2592	800033b4	00fcd813	srli	x16,x25,0xf	 x25:0x93188071 x16=0x00012631
       25945000	      2593	800033b8	05807863	bgeu	x0,x24,80003408	  x0:0x00000000 x24:0x00002306
       25955000	      2594	800033bc	00000013	addi	x0,x0,0	  x0:0x00000000
       25965000	      2595	800033c0	01100663	beq	x0,x17,800033cc	  x0:0x00000000 x17:0xb7082000
       25975000	      2596	800033c4	02fa9c63	bne	x21,x15,800033fc	 x21:0x80009fc4 x15:0x04000000
       25985000	      2597	00000000	00000013	addi	x0,x0,0	  x0:0x00000000
       25995000	      2598	800033f8	00000013	addi	x0,x0,0	  x0:0x00000000
       26005000	      2599	800033fc	00465c93	srli	x25,x12,0x4	 x12:0xe88a42b1 x25=0x0e88a42b
       26015000	      2600	80003400	00215b33	srl	x22,x2,x2	  x2:0x4e53f340  x2:0x4e53f340 x22=0x4e53f340
       26025000	      2601	80003404	01a0b633	sltu	x12,x1,x26	  x1:0x00000000 x26:0x9255f306 x12=0x00000001
       26035000	      2602	80003408	01895863	bge	x18,x24,80003418	 x18:0x9255d000 x24:0x00002306
       26045000	      2603	8000340c	aab7cc13	xori	x24,x15,-1365	 x15:0x04000000 x24=0xfbfffaab
       26055000	      2604	80003410	012e7533	and	x10,x28,x18	 x28:0x80009f34 x18:0x9255d000 x10=0x80009000
       26065000	      2605	80003414	409a8033	sub	x0,x21,x9	 x21:0x80009fc4  x9:0x305570e8
       26075000	      2606	80003418	00152233	slt	x4,x10,x1	 x10:0x80009000  x1:0x00000000  x4=0x00000001
       26085000	      2607	8000341c	030edc63	bge	x29,x16,80003454	 x29:0xe88a42b0 x16:0x00012631
       26095000	      2608	80003420	00000013	addi	x0,x0,0	  x0:0x00000000
       26105000	      2609	80003424	02ae0463	beq	x28,x10,8000344c	 x28:0x80009f34 x10:0x80009000
       26115000	      2610	80003428	05af6663	bltu	x30,x26,80003474	 x30:0x00000000 x26:0x9255f306
       26125000	      2611	00000000	00000013	addi	x0,x0,0	  x0:0x00000000
       26135000	      2612	80003470	00000013	addi	x0,x0,0	  x0:0x00000000
       26145000	      2613	80003474	00025533	srl	x10,x4,x0	  x4:0x00000001  x0:0x00000000 x10=0x00000001
       26155000	      2614	80003478	01e29793	slli	x15,x5,0x1e	  x5:0x00000000 x15=0x00000000
       26165000	      2615	8000347c	019be463	bltu	x23,x25,80003484	 x23:0xf091aa4a x25:0x0e88a42b
       26175000	      2616	80003480	40ba0db3	sub	x27,x20,x11	 x20:0x00000001 x11:0xffffdbc6 x27=0x0000243b
       26185000	      2617	80003484	02410263	beq	x2,x4,800034a8	  x2:0x4e53f340  x4:0x00000001
       26195000	      2618	80003488	034ce063	bltu	x25,x20,800034a8	 x25:0x0e88a42b x20:0x00000001
       26205000	      2619	8000348c	0168ce63	blt	x17,x22,800034a8	 x17:0xb7082000 x22:0x4e53f340
       26215000	      2620	00000000	00000013	addi	x0,x0,0	  x0:0x00000000
       26225000	      2621	800034a4	00000013	addi	x0,x0,0	  x0:0x00000000
       26235000	      2622	800034a8	c5e680b7	lui	x1,0xc5e68	  x1=0xc5e68000
       26245000	      2623	800034ac	00000013	addi	x0,x0,0	  x0:0x00000000
       26255000	      2624	800034b0	004e2f03	lw	x30,4(x28)	 x28:0x80009f34 x30=0x8000694c PA:0x80009f38
       26265000	      2625	800034b4	4100df93	srai	x31,x1,0x10	  x1:0xc5e68000 x31=0xffffc5e6
       26275000	      2626	800034b8	00000013	addi	x0,x0,0	  x0:0x00000000
       26285000	      2627	800034bc	03ce0e13	addi	x28,x28,60	 x28:0x80009f34 x28=0x80009f70
       26295000	      2628	800034c0	00ad1a13	slli	x20,x26,0xa	 x26:0x9255f306 x20=0x57cc1800
       26305000	      2629	800034c4	000f0c93	addi	x25,x30,0	 x30:0x8000694c x25=0x8000694c
       26315000	      2630	800034c8	000c8ce7	jalr	x25,x25,0	 x25:0x8000694c x25=0x800034c8
       26325000	      2631	00000000	00000013	addi	x0,x0,0	  x0:0x00000000
       26335000	      2632	8000694c	00000013	addi	x0,x0,0	  x0:0x00000000
       26345000	      2633	80006950	ffffec97	auipc	x25,0xffffe	 x25=0x8000494c
       26355000	      2634	80006954	a88c8c93	addi	x25,x25,-1400	 x25:0x8000494c x25=0x800043d4
       26365000	      2635	80006958	3d0c8c93	addi	x25,x25,976	 x25:0x800043d4 x25=0x800047a4
       26375000	      2636	8000695c	93f54813	xori	x16,x10,-1729	 x10:0x00000001 x16=0xfffff93e
       26385000	      2637	80006960	4149d933	sra	x18,x19,x20	 x19:0x00000001 x20:0x57cc1800 x18=0x00000001
       26395000	      2638	80006964	992f0f37	lui	x30,0x992f0	 x30=0x992f0000
       26405000	      2639	80006968	002a6863	bltu	x20,x2,80006978	 x20:0x57cc1800  x2:0x4e53f340
       26415000	      2640	8000696c	ff7d8097	auipc	x1,0xff7d8	  x1=0x7f7de968
       26425000	      2641	80006970	875d6913	ori	x18,x26,-1931	 x26:0x9255f306 x18=0xfffffb77
       26435000	      2642	80006974	0098dd93	srli	x27,x17,0x9	 x17:0xb7082000 x27=0x005b8410
       26445000	      2643	80006978	c31c8f67	jalr	x30,x25,-975	 x25:0x800047a4 x30=0x80006978
       26455000	      2644	00000000	00000013	addi	x0,x0,0	  x0:0x00000000
       26465000	      2645	800043d4	00000013	addi	x0,x0,0	  x0:0x00000000
       26475000	      2646	800043d8	007601b3	add	x3,x12,x7	 x12:0x00000001  x7:0x00000000  x3=0x00000001
       26485000	      2647	800043dc	fcce0e13	addi	x28,x28,-52	 x28:0x80009f70 x28=0x80009f3c
       26495000	      2648	800043e0	01f675b3	and	x11,x12,x31	 x12:0x00000001 x31:0xffffc5e6 x11=0x00000000
       26505000	      2649	800043e4	00a64c33	xor	x24,x12,x10	 x12:0x00000001 x10:0x00000001 x24=0x00000000
       26515000	      2650	800043e8	41c203b3	sub	x7,x4,x28	  x4:0x00000001 x28:0x80009f3c  x7=0x7fff60c5
       26525000	      2651	800043ec	00f9f3b3	and	x7,x19,x15	 x19:0x00000001 x15:0x00000000  x7=0x00000000
       26535000	      2652	800043f0	01ee2223	sw	x30,4(x28)	 x28:0x80009f3c x30:0x80006978 PA:0x80009f40
       26545000	      2653	800043f4	01299db3	sll	x27,x19,x18	 x19:0x00000001 x18:0xfffffb77 x27=0x00800000
       26555000	      2654	800043f8	00004517	auipc	x10,0x4	 x10=0x800083f4
       26565000	      2655	800043fc	eba50513	addi	x10,x10,-326	 x10:0x800083f4 x10=0x800082ae
       26575000	      2656	80004400	01a9a2b3	slt	x5,x19,x26	 x19:0x00000001 x26:0x9255f306  x5=0x00000000
       26585000	      2657	80004404	fe550ca3	sb	x5,-7(x10)	 x10:0x800082ae  x5:0x00000000 PA:0x800082a7
       26595000	      2658	80004408	fef54483	lbu	x9,-17(x10)	 x10:0x800082ae  x9=0x00000000 PA:0x8000829d
       26605000	      2659	8000440c	01fc2133	slt	x2,x24,x31	 x24:0x00000000 x31:0xffffc5e6  x2=0x00000000
       26615000	      2660	80004410	ffb50f83	lb	x31,-5(x10)	 x10:0x800082ae x31=0x00000000 PA:0x800082a9
       26625000	      2661	80004414	fe9524b7	lui	x9,0xfe952	  x9=0xfe952000
       26635000	      2662	80004418	fe150da3	sb	x1,-5(x10)	 x10:0x800082ae  x1:0x7f7de968 PA:0x800082a9
       26645000	      2663	8000441c	02a505a3	sb	x10,43(x10)	 x10:0x800082ae x10:0x800082ae PA:0x800082d9
       26655000	      2664	80004420	4eb17193	andi	x3,x2,1259	  x2:0x00000000  x3=0x00000000
       26665000	      2665	80004424	016e9413	slli	x8,x29,0x16	 x29:0xe88a42b0  x8=0xac000000
       26675000	      2666	80004428	01b50303	lb	x6,27(x10)	 x10:0x800082ae  x6=0x00000000 PA:0x800082c9
       26685000	      2667	8000442c	ff851903	lh	x18,-8(x10)	 x10:0x800082ae x18=0x00000091 PA:0x800082a6
       26695000	      2668	80004430	03652883	lw	x17,54(x10)	 x10:0x800082ae x17=0x00000000 PA:0x800082e4
       26705000	      2669	80004434	014702b3	add	x5,x14,x20	 x14:0xec8a42b0 x20:0x57cc1800  x5=0x44565ab0
       26715000	      2670	80004438	40e380b3	sub	x1,x7,x14	  x7:0x00000000 x14:0xec8a42b0  x1=0x1375bd50
       26725000	      2671	8000443c	b6336693	ori	x13,x6,-1181	  x6:0x00000000 x13=0xfffffb63
       26735000	      2672	80004440	fd150303	lb	x6,-47(x10)	 x10:0x800082ae  x6=0x00000000 PA:0x8000827f
       26745000	      2673	80004444	01950a03	lb	x20,25(x10)	 x10:0x800082ae x20=0x00000000 PA:0x800082c7
       26755000	      2674	80004448	015f9193	slli	x3,x31,0x15	 x31:0x00000000  x3=0x00000000
       26765000	      2675	8000444c	fc1504a3	sb	x1,-55(x10)	 x10:0x800082ae  x1:0x1375bd50 PA:0x80008277
       26775000	      2676	80004450	002b5cb3	srl	x25,x22,x2	 x22:0x4e53f340  x2:0x00000000 x25=0x4e53f340
       26785000	      2677	80004454	04051003	lh	x0,64(x10)	 x10:0x800082ae PA:0x800082ee
       26795000	      2678	80004458	02c50083	lb	x1,44(x10)	 x10:0x800082ae  x1=0x00000000 PA:0x800082da
       26805000	      2679	8000445c	02b50b23	sb	x11,54(x10)	 x10:0x800082ae x11:0x00000000 PA:0x800082e4
       26815000	      2680	80004460	03252f83	lw	x31,50(x10)	 x10:0x800082ae x31=0x00000000 PA:0x800082e0
       26825000	      2681	80004464	02954803	lbu	x16,41(x10)	 x10:0x800082ae x16=0x00000000 PA:0x800082d7
       26835000	      2682	80004468	00054903	lbu	x18,0(x10)	 x10:0x800082ae x18=0x00000000 PA:0x800082ae
       26845000	      2683	8000446c	fc0504a3	sb	x0,-55(x10)	 x10:0x800082ae  x0:0x00000000 PA:0x80008277
       26855000	      2684	80004470	003781b3	add	x3,x15,x3	 x15:0x00000000  x3:0x00000000  x3=0x00000000
       26865000	      2685	80004474	00850683	lb	x13,8(x10)	 x10:0x800082ae x13=0x00000000 PA:0x800082b6
       26875000	      2686	80004478	16a2e813	ori	x16,x5,362	  x5:0x44565ab0 x16=0x44565bfa
       26885000	      2687	8000447c	03f54583	lbu	x11,63(x10)	 x10:0x800082ae x11=0x00000000 PA:0x800082ed
       26895000	      2688	80004480	0023cdb3	xor	x27,x7,x2	  x7:0x00000000  x2:0x00000000 x27=0x00000000
       26905000	      2689	80004484	fe554c03	lbu	x24,-27(x10)	 x10:0x800082ae x24=0x00000000 PA:0x80008293
       26915000	      2690	80004488	5cb50493	addi	x9,x10,1483	 x10:0x800082ae  x9=0x80008879
       26925000	      2691	8000448c	406988b3	sub	x17,x19,x6	 x19:0x00000001  x6:0x00000000 x17=0x00000001
       26935000	      2692	80004490	01ea5133	srl	x2,x20,x30	 x20:0x00000000 x30:0x80006978  x2=0x00000000
       26945000	      2693	80004494	fd750d23	sb	x23,-38(x10)	 x10:0x800082ae x23:0xf091aa4a PA:0x80008288
       26955000	      2694	80004498	419ed613	srai	x12,x29,0x19	 x29:0xe88a42b0 x12=0xfffffff4
       26965000	      2695	8000449c	04051f03	lh	x30,64(x10)	 x10:0x800082ae x30=0x00000000 PA:0x800082ee
       26975000	      2696	800044a0	01019113	slli	x2,x3,0x10	  x3:0x00000000  x2=0x00000000
       26985000	      2697	800044a4	00d50c83	lb	x25,13(x10)	 x10:0x800082ae x25=0x00000000 PA:0x800082bb
       26995000	      2698	800044a8	01e76d33	or	x26,x14,x30	 x14:0xec8a42b0 x30:0x00000000 x26=0xec8a42b0
       27005000	      2699	800044ac	fd050903	lb	x18,-48(x10)	 x10:0x800082ae x18=0x00000000 PA:0x8000827e
       27015000	      2700	800044b0	00475193	srli	x3,x14,0x4	 x14:0xec8a42b0  x3=0x0ec8a42b
       27025000	      2701	800044b4	fe552d23	sw	x5,-6(x10)	 x10:0x800082ae  x5:0x44565ab0 PA:0x800082a8
       27035000	      2702	800044b8	03a51523	sh	x26,42(x10)	 x10:0x800082ae x26:0xec8a42b0 PA:0x800082d8
       27045000	      2703	800044bc	03954883	lbu	x17,57(x10)	 x10:0x800082ae x17=0x00000000 PA:0x800082e7
       27055000	      2704	800044c0	016b36b3	sltu	x13,x22,x22	 x22:0x4e53f340 x22:0x4e53f340 x13=0x00000000
       27065000	      2705	800044c4	001115b3	sll	x11,x2,x1	  x2:0x00000000  x1:0x00000000 x11=0x00000000
       27075000	      2706	800044c8	00fa5693	srli	x13,x20,0xf	 x20:0x00000000 x13=0x00000000
       27085000	      2707	800044cc	010b9eb3	sll	x29,x23,x16	 x23:0xf091aa4a x16:0x44565bfa x29=0x28000000
       27095000	      2708	800044d0	75f14e93	xori	x29,x2,1887	  x2:0x00000000 x29=0x0000075f
       27105000	      2709	800044d4	ffb50783	lb	x15,-5(x10)	 x10:0x800082ae x15=0x0000005a PA:0x800082a9
       27115000	      2710	800044d8	00000013	addi	x0,x0,0	  x0:0x00000000
       27125000	      2711	800044dc	41fc5033	sra	x0,x24,x31	 x24:0x00000000 x31:0x00000000
       27135000	      2712	800044e0	01fd37b3	sltu	x15,x26,x31	 x26:0xec8a42b0 x31:0x00000000 x15=0x00000000
       27145000	      2713	800044e4	fd154903	lbu	x18,-47(x10)	 x10:0x800082ae x18=0x00000000 PA:0x8000827f
       27155000	      2714	800044e8	00004597	auipc	x11,0x4	 x11=0x800084e4
       27165000	      2715	800044ec	4db58593	addi	x11,x11,1243	 x11:0x800084e4 x11=0x800089bf
       27175000	      2716	800044f0	ff75c703	lbu	x14,-9(x11)	 x11:0x800089bf x14=0x00000000 PA:0x800089b6
       27185000	      2717	800044f4	ff058083	lb	x1,-16(x11)	 x11:0x800089bf  x1=0x00000000 PA:0x800089af
       27195000	      2718	800044f8	ffc5cc83	lbu	x25,-4(x11)	 x11:0x800089bf x25=0x00000000 PA:0x800089bb
       27205000	      2719	800044fc	ff359383	lh	x7,-13(x11)	 x11:0x800089bf  x7=0x00000000 PA:0x800089b2
       27215000	      2720	80004500	fe45aea3	sw	x4,-3(x11)	 x11:0x800089bf  x4:0x00000001 PA:0x800089bc
       27225000	      2721	80004504	018658b3	srl	x17,x12,x24	 x12:0xfffffff4 x24:0x00000000 x17=0xfffffff4
       27235000	      2722	80004508	ff65c883	lbu	x17,-10(x11)	 x11:0x800089bf x17=0x00000000 PA:0x800089b5
       27245000	      2723	8000450c	009f1533	sll	x10,x30,x9	 x30:0x00000000  x9:0x80008879 x10=0x00000000
       27255000	      2724	80004510	ff759fa3	sh	x23,-1(x11)	 x11:0x800089bf x23:0xf091aa4a PA:0x800089be
       27265000	      2725	80004514	ff359883	lh	x17,-13(x11)	 x11:0x800089bf x17=0x00000000 PA:0x800089b2
       27275000	      2726	80004518	00958d83	lb	x27,9(x11)	 x11:0x800089bf x27=0x00000000 PA:0x800089c8
       27285000	      2727	8000451c	1650f493	andi	x9,x1,357	  x1:0x00000000  x9=0x00000000
       27295000	      2728	80004520	ff45c803	lbu	x16,-12(x11)	 x11:0x800089bf x16=0x00000000 PA:0x800089b3
       27305000	      2729	80004524	a84fe193	ori	x3,x31,-1404	 x31:0x00000000  x3=0xfffffa84
       27315000	      2730	80004528	00000013	addi	x0,x0,0	  x0:0x00000000
       27325000	      2731	8000452c	ffe58803	lb	x16,-2(x11)	 x11:0x800089bf x16=0x00000000 PA:0x800089bd
       27335000	      2732	80004530	00858d83	lb	x27,8(x11)	 x11:0x800089bf x27=0x00000000 PA:0x800089c7
       27345000	      2733	80004534	fef58a23	sb	x15,-12(x11)	 x11:0x800089bf x15:0x00000000 PA:0x800089b3
       27355000	      2734	80004538	ffb58883	lb	x17,-5(x11)	 x11:0x800089bf x17=0x00000000 PA:0x800089ba
       27365000	      2735	8000453c	ffe5c603	lbu	x12,-2(x11)	 x11:0x800089bf x12=0x00000000 PA:0x800089bd
       27375000	      2736	80004540	019580a3	sb	x25,1(x11)	 x11:0x800089bf x25:0x00000000 PA:0x800089c0
       27385000	      2737	80004544	00000013	addi	x0,x0,0	  x0:0x00000000
       27395000	      2738	80004548	e0b10d13	addi	x26,x2,-501	  x2:0x00000000 x26=0xfffffe0b
       27405000	      2739	8000454c	01858723	sb	x24,14(x11)	 x11:0x800089bf x24:0x00000000 PA:0x800089cd
       27415000	      2740	80004550	5e936993	ori	x19,x6,1513	  x6:0x00000000 x19=0x000005e9
       27425000	      2741	80004554	00a58383	lb	x7,10(x11)	 x11:0x800089bf  x7=0x00000000 PA:0x800089c9
       27435000	      2742	80004558	ff759a03	lh	x20,-9(x11)	 x11:0x800089bf x20=0x00000000 PA:0x800089b6
       27445000	      2743	8000455c	ff158e23	sb	x17,-4(x11)	 x11:0x800089bf x17:0x00000000 PA:0x800089bb
       27455000	      2744	80004560	ff25c103	lbu	x2,-14(x11)	 x11:0x800089bf  x2=0x00000000 PA:0x800089b1
       27465000	      2745	80004564	e5af0c13	addi	x24,x30,-422	 x30:0x00000000 x24=0xfffffe5a
       27475000	      2746	80004568	40125a13	srai	x20,x4,0x1	  x4:0x00000001 x20=0x00000000
       27485000	      2747	8000456c	00d580a3	sb	x13,1(x11)	 x11:0x800089bf x13:0x00000000 PA:0x800089c0
       27495000	      2748	80004570	ffb5db03	lhu	x22,-5(x11)	 x11:0x800089bf x22=0x00000000 PA:0x800089ba
       27505000	      2749	80004574	ff859ca3	sh	x24,-7(x11)	 x11:0x800089bf x24:0xfffffe5a PA:0x800089b8
       27515000	      2750	80004578	00004d97	auipc	x27,0x4	 x27=0x80008574
       27525000	      2751	8000457c	5f4d8d93	addi	x27,x27,1524	 x27:0x80008574 x27=0x80008b68
       27535000	      2752	80004580	006da0b3	slt	x1,x27,x6	 x27:0x80008b68  x6:0x00000000  x1=0x00000001
       27545000	      2753	80004584	001b5013	srli	x0,x22,0x1	 x22:0x00000000
       27555000	      2754	80004588	41da58b3	sra	x17,x20,x29	 x20:0x00000000 x29:0x0000075f x17=0x00000000
       27565000	      2755	8000458c	03cd86a3	sb	x28,45(x27)	 x27:0x80008b68 x28:0x80009f3c PA:0x80008b95
       27575000	      2756	80004590	03ad8b03	lb	x22,58(x27)	 x27:0x80008b68 x22=0x00000000 PA:0x80008ba2
       27585000	      2757	80004594	00bea6b3	slt	x13,x29,x11	 x29:0x0000075f x11:0x800089bf x13=0x00000000
       27595000	      2758	80004598	015baa33	slt	x20,x23,x21	 x23:0xf091aa4a x21:0x80009fc4 x20=0x00000000
       27605000	      2759	8000459c	fc1d88a3	sb	x1,-47(x27)	 x27:0x80008b68  x1:0x00000001 PA:0x80008b39
       27615000	      2760	800045a0	99fe7e93	andi	x29,x28,-1633	 x28:0x80009f3c x29=0x8000991c
       27625000	      2761	800045a4	00000013	addi	x0,x0,0	  x0:0x00000000
       27635000	      2762	800045a8	98b42293	slti	x5,x8,-1653	  x8:0xac000000  x5=0x00000001
       27645000	      2763	800045ac	4887aa13	slti	x20,x15,1160	 x15:0x00000000 x20=0x00000001
       27655000	      2764	800045b0	024dda03	lhu	x20,36(x27)	 x27:0x80008b68 x20=0x00000000 PA:0x80008b8c
       27665000	      2765	800045b4	649d7993	andi	x19,x26,1609	 x26:0xfffffe0b x19=0x00000609
       27675000	      2766	800045b8	40095b13	srai	x22,x18,0x0	 x18:0x00000000 x22=0x00000000
       27685000	      2767	800045bc	00f95c33	srl	x24,x18,x15	 x18:0x00000000 x15:0x00000000 x24=0x00000000
       27695000	      2768	800045c0	edb9d797	auipc	x15,0xedb9d	 x15=0x6dba15bc
       27705000	      2769	800045c4	00039993	slli	x19,x7,0x0	  x7:0x00000000 x19=0x00000000
       27715000	      2770	800045c8	017d9323	sh	x23,6(x27)	 x27:0x80008b68 x23:0xf091aa4a PA:0x80008b6e
       27725000	      2771	800045cc	03fd8483	lb	x9,63(x27)	 x27:0x80008b68  x9=0x00000000 PA:0x80008ba7
       27735000	      2772	800045d0	4147d313	srai	x6,x15,0x14	 x15:0x6dba15bc  x6=0x000006db
       27745000	      2773	800045d4	29e86513	ori	x10,x16,670	 x16:0x00000000 x10=0x0000029e
       27755000	      2774	800045d8	cca0c493	xori	x9,x1,-822	  x1:0x00000001  x9=0xfffffccb
       27765000	      2775	800045dc	0033a133	slt	x2,x7,x3	  x7:0x00000000  x3:0xfffffa84  x2=0x00000000
       27775000	      2776	800045e0	0052bfb3	sltu	x31,x5,x5	  x5:0x00000001  x5:0x00000001 x31=0x00000000
       27785000	      2777	800045e4	fd3dc903	lbu	x18,-45(x27)	 x27:0x80008b68 x18=0x00000000 PA:0x80008b3b
       27795000	      2778	800045e8	ff9d83a3	sb	x25,-25(x27)	 x27:0x80008b68 x25:0x00000000 PA:0x80008b4f
       27805000	      2779	800045ec	fe1dcf03	lbu	x30,-31(x27)	 x27:0x80008b68 x30=0x00000000 PA:0x80008b49
       27815000	      2780	800045f0	ea40fb13	andi	x22,x1,-348	  x1:0x00000001 x22=0x00000000
       27825000	      2781	800045f4	fd3d8403	lb	x8,-45(x27)	 x27:0x80008b68  x8=0x00000000 PA:0x80008b3b
       27835000	      2782	800045f8	ee6b0593	addi	x11,x22,-282	 x22:0x00000000 x11=0xfffffee6
       27845000	      2783	800045fc	93cee713	ori	x14,x29,-1732	 x29:0x8000991c x14=0xfffff93c
       27855000	      2784	80004600	41b25793	srai	x15,x4,0x1b	  x4:0x00000001 x15=0x00000000
       27865000	      2785	80004604	006defb3	or	x31,x27,x6	 x27:0x80008b68  x6:0x000006db x31=0x80008ffb
       27875000	      2786	80004608	4e1f0f93	addi	x31,x30,1249	 x30:0x00000000 x31=0x000004e1
       27885000	      2787	8000460c	0101cf33	xor	x30,x3,x16	  x3:0xfffffa84 x16:0x00000000 x30=0xfffffa84
       27895000	      2788	80004610	48f0a093	slti	x1,x1,1167	  x1:0x00000001  x1=0x00000001
       27905000	      2789	80004614	8f805197	auipc	x3,0x8f805	  x3=0x0f809610
       27915000	      2790	80004618	033d8983	lb	x19,51(x27)	 x27:0x80008b68 x19=0x00000000 PA:0x80008b9b
       27925000	      2791	8000461c	fe9d8583	lb	x11,-23(x27)	 x27:0x80008b68 x11=0x00000000 PA:0x80008b51
       27935000	      2792	80004620	007dd893	srli	x17,x27,0x7	 x27:0x80008b68 x17=0x01000116
       27945000	      2793	80004624	01a7d5b3	srl	x11,x15,x26	 x15:0x00000000 x26:0xfffffe0b x11=0x00000000
       27955000	      2794	80004628	7c3fa537	lui	x10,0x7c3fa	 x10=0x7c3fa000
       27965000	      2795	8000462c	006a41b3	xor	x3,x20,x6	 x20:0x00000000  x6:0x000006db  x3=0x000006db
       27975000	      2796	80004630	41fad633	sra	x12,x21,x31	 x21:0x80009fc4 x31:0x000004e1 x12=0xc0004fe2
       27985000	      2797	80004634	02e0de63	bge	x1,x14,80004670	  x1:0x00000001 x14:0xfffff93c
       27995000	      2798	00000000	00000013	addi	x0,x0,0	  x0:0x00000000
       28005000	      2799	8000466c	00000013	addi	x0,x0,0	  x0:0x00000000
       28015000	      2800	80004670	00bda6b3	slt	x13,x27,x11	 x27:0x80008b68 x11:0x00000000 x13=0x00000001
       28025000	      2801	80004674	00c29d33	sll	x26,x5,x12	  x5:0x00000001 x12:0xc0004fe2 x26=0x00000004
       28035000	      2802	80004678	056b8263	beq	x23,x22,800046bc	 x23:0xf091aa4a x22:0x00000000
       28045000	      2803	8000467c	e73cfa13	andi	x20,x25,-397	 x25:0x00000000 x20=0x00000000
       28055000	      2804	80004680	01be4633	xor	x12,x28,x27	 x28:0x80009f3c x27:0x80008b68 x12=0x00001454
       28065000	      2805	80004684	014db8b3	sltu	x17,x27,x20	 x27:0x80008b68 x20:0x00000000 x17=0x00000000
       28075000	      2806	80004688	00000013	addi	x0,x0,0	  x0:0x00000000
       28085000	      2807	8000468c	41508a33	sub	x20,x1,x21	  x1:0x00000001 x21:0x80009fc4 x20=0x7fff603d
       28095000	      2808	80004690	6cd1b313	sltiu	x6,x3,1741	  x3:0x000006db  x6=0x00000000
       28105000	      2809	80004694	00070c63	beq	x14,x0,800046ac	 x14:0xfffff93c  x0:0x00000000
       28115000	      2810	80004698	41aad0b3	sra	x1,x21,x26	 x21:0x80009fc4 x26:0x00000004  x1=0xf80009fc
       28125000	      2811	8000469c	3c0f0493	addi	x9,x30,960	 x30:0xfffffa84  x9=0xfffffe44
       28135000	      2812	800046a0	b81f6813	ori	x16,x30,-1151	 x30:0xfffffa84 x16=0xfffffb85
       28145000	      2813	800046a4	021c4863	blt	x24,x1,800046d4	 x24:0x00000000  x1:0xf80009fc
       28155000	      2814	800046a8	00c173b3	and	x7,x2,x12	  x2:0x00000000 x12:0x00001454  x7=0x00000000
       28165000	      2815	800046ac	018e8e63	beq	x29,x24,800046c8	 x29:0x8000991c x24:0x00000000
       28175000	      2816	800046b0	f847e237	lui	x4,0xf847e	  x4=0xf847e000
       28185000	      2817	800046b4	002c9cb3	sll	x25,x25,x2	 x25:0x00000000  x2:0x00000000 x25=0x00000000
       28195000	      2818	800046b8	01de5eb3	srl	x29,x28,x29	 x28:0x80009f3c x29:0x8000991c x29=0x00000008
       28205000	      2819	800046bc	0051dd13	srli	x26,x3,0x5	  x3:0x000006db x26=0x00000036
       28215000	      2820	800046c0	018d92b3	sll	x5,x27,x24	 x27:0x80008b68 x24:0x00000000  x5=0x80008b68
       28225000	      2821	800046c4	00cfdfb3	srl	x31,x31,x12	 x31:0x000004e1 x12:0x00001454 x31=0x00000000
       28235000	      2822	800046c8	e0563d17	auipc	x26,0xe0563	 x26=0x605676c4
       28245000	      2823	800046cc	0045f7b3	and	x15,x11,x4	 x11:0x00000000  x4:0xf847e000 x15=0x00000000
       28255000	      2824	800046d0	00585d33	srl	x26,x16,x5	 x16:0xfffffb85  x5:0x80008b68 x26=0x00fffffb
       28265000	      2825	800046d4	9d214413	xori	x8,x2,-1582	  x2:0x00000000  x8=0xfffff9d2
       28275000	      2826	800046d8	5c1a51b7	lui	x3,0x5c1a5	  x3=0x5c1a5000
       28285000	      2827	800046dc	00380c63	beq	x16,x3,800046f4	 x16:0xfffffb85  x3:0x5c1a5000
       28295000	      2828	800046e0	00e6dcb3	srl	x25,x13,x14	 x13:0x00000001 x14:0xfffff93c x25=0x00000000
       28305000	      2829	800046e4	00631a63	bne	x6,x6,800046f8	  x6:0x00000000  x6:0x00000000
       28315000	      2830	800046e8	002324b3	slt	x9,x6,x2	  x6:0x00000000  x2:0x00000000  x9=0x00000000
       28325000	      2831	800046ec	40f888b3	sub	x17,x17,x15	 x17:0x00000000 x15:0x00000000 x17=0x00000000
       28335000	      2832	800046f0	0ce10493	addi	x9,x2,206	  x2:0x00000000  x9=0x000000ce
       28345000	      2833	800046f4	d09e6f93	ori	x31,x28,-759	 x28:0x80009f3c x31=0xffffff3d
       28355000	      2834	800046f8	41dc5c33	sra	x24,x24,x29	 x24:0x00000000 x29:0x00000008 x24=0x00000000
       28365000	      2835	800046fc	01b84333	xor	x6,x16,x27	 x16:0xfffffb85 x27:0x80008b68  x6=0x7fff70ed
       28375000	      2836	80004700	0031c5b3	xor	x11,x3,x3	  x3:0x5c1a5000  x3:0x5c1a5000 x11=0x00000000
       28385000	      2837	80004704	018d63b3	or	x7,x26,x24	 x26:0x00fffffb x24:0x00000000  x7=0x00fffffb
       28395000	      2838	80004708	96fd2213	slti	x4,x26,-1681	 x26:0x00fffffb  x4=0x00000000
       28405000	      2839	8000470c	04f2c663	blt	x5,x15,80004758	  x5:0x80008b68 x15:0x00000000
       28415000	      2840	00000000	00000013	addi	x0,x0,0	  x0:0x00000000
       28425000	      2841	80004754	00000013	addi	x0,x0,0	  x0:0x00000000
       28435000	      2842	80004758	0427c263	blt	x15,x2,8000479c	 x15:0x00000000  x2:0x00000000
       28445000	      2843	8000475c	00ecfa63	bgeu	x25,x14,80004770	 x25:0x00000000 x14:0xfffff93c
       28455000	      2844	80004760	00ccda13	srli	x20,x25,0xc	 x25:0x00000000 x20=0x00000000
       28465000	      2845	80004764	006cfc63	bgeu	x25,x6,8000477c	 x25:0x00000000  x6:0x7fff70ed
       28475000	      2846	80004768	00000013	addi	x0,x0,0	  x0:0x00000000
       28485000	      2847	8000476c	58dc3593	sltiu	x11,x24,1421	 x24:0x00000000 x11=0x00000001
       28495000	      2848	80004770	01081633	sll	x12,x16,x16	 x16:0xfffffb85 x16:0xfffffb85 x12=0xffff70a0
       28505000	      2849	80004774	415f0733	sub	x14,x30,x21	 x30:0xfffffa84 x21:0x80009fc4 x14=0x7fff5ac0
       28515000	      2850	80004778	40c08a33	sub	x20,x1,x12	  x1:0xf80009fc x12:0xffff70a0 x20=0xf800995c
       28525000	      2851	8000477c	0302d063	bge	x5,x16,8000479c	  x5:0x80008b68 x16:0xfffffb85
       28535000	      2852	80004780	41b253b3	sra	x7,x4,x27	  x4:0x00000000 x27:0x80008b68  x7=0x00000000
       28545000	      2853	80004784	a21ecf17	auipc	x30,0xa21ec	 x30=0x221f0780
       28555000	      2854	80004788	41840db3	sub	x27,x8,x24	  x8:0xfffff9d2 x24:0x00000000 x27=0xfffff9d2
       28565000	      2855	8000478c	739ba193	slti	x3,x23,1849	 x23:0xf091aa4a  x3=0x00000001
       28575000	      2856	80004790	9a4d7193	andi	x3,x26,-1628	 x26:0x00fffffb  x3=0x00fff9a0
       28585000	      2857	80004794	01ab9293	slli	x5,x23,0x1a	 x23:0xf091aa4a  x5=0x28000000
       28595000	      2858	80004798	01c09c63	bne	x1,x28,800047b0	  x1:0xf80009fc x28:0x80009f3c
       28605000	      2859	00000000	00000013	addi	x0,x0,0	  x0:0x00000000
       28615000	      2860	800047ac	00000013	addi	x0,x0,0	  x0:0x00000000
       28625000	      2861	800047b0	00000013	addi	x0,x0,0	  x0:0x00000000
       28635000	      2862	800047b4	01d5f0b3	and	x1,x11,x29	 x11:0x00000001 x29:0x00000008  x1=0x00000000
       28645000	      2863	800047b8	00b2d8b3	srl	x17,x5,x11	  x5:0x28000000 x11:0x00000001 x17=0x14000000
       28655000	      2864	800047bc	64c60393	addi	x7,x12,1612	 x12:0xffff70a0  x7=0xffff76ec
       28665000	      2865	800047c0	017bdc63	bge	x23,x23,800047d8	 x23:0xf091aa4a x23:0xf091aa4a
       28675000	      2866	00000000	00000013	addi	x0,x0,0	  x0:0x00000000
       28685000	      2867	800047d4	00000013	addi	x0,x0,0	  x0:0x00000000
       28695000	      2868	800047d8	00000013	addi	x0,x0,0	  x0:0x00000000
       28705000	      2869	800047dc	c315e513	ori	x10,x11,-975	 x11:0x00000001 x10=0xfffffc31
       28715000	      2870	800047e0	004d5693	srli	x13,x26,0x4	 x26:0x00fffffb x13=0x000fffff
       28725000	      2871	800047e4	62f54097	auipc	x1,0x62f54	  x1=0xe2f587e0
       28735000	      2872	800047e8	01d69213	slli	x4,x13,0x1d	 x13:0x000fffff  x4=0xe0000000
       28745000	      2873	800047ec	c074e197	auipc	x3,0xc074e	  x3=0x407527e8
       28755000	      2874	800047f0	46590493	addi	x9,x18,1125	 x18:0x00000000  x9=0x00000465
       28765000	      2875	800047f4	506b0293	addi	x5,x22,1286	 x22:0x00000000  x5=0x00000506
       28775000	      2876	800047f8	04470663	beq	x14,x4,80004844	 x14:0x7fff5ac0  x4:0xe0000000
       28785000	      2877	800047fc	02216063	bltu	x2,x2,8000481c	  x2:0x00000000  x2:0x00000000
       28795000	      2878	80004800	00cad7b3	srl	x15,x21,x12	 x21:0x80009fc4 x12:0xffff70a0 x15=0x80009fc4
       28805000	      2879	80004804	0146f933	and	x18,x13,x20	 x13:0x000fffff x20:0xf800995c x18=0x0000995c
       28815000	      2880	80004808	1d624193	xori	x3,x4,470	  x4:0xe0000000  x3=0xe00001d6
       28825000	      2881	8000480c	03a69063	bne	x13,x26,8000482c	 x13:0x000fffff x26:0x00fffffb
       28835000	      2882	00000000	00000013	addi	x0,x0,0	  x0:0x00000000
       28845000	      2883	80004828	00000013	addi	x0,x0,0	  x0:0x00000000
       28855000	      2884	8000482c	01b46e63	bltu	x8,x27,80004848	  x8:0xfffff9d2 x27:0xfffff9d2
       28865000	      2885	80004830	01811993	slli	x19,x2,0x18	  x2:0x00000000 x19=0x00000000
       28875000	      2886	80004834	b8a02013	slti	x0,x0,-1142	  x0:0x00000000
       28885000	      2887	80004838	008ed613	srli	x12,x29,0x8	 x29:0x00000008 x12=0x00000000
       28895000	      2888	8000483c	005a3833	sltu	x16,x20,x5	 x20:0xf800995c  x5:0x00000506 x16=0x00000000
       28905000	      2889	80004840	6af38493	addi	x9,x7,1711	  x7:0xffff76ec  x9=0xffff7d9b
       28915000	      2890	80004844	001efeb3	and	x29,x29,x1	 x29:0x00000008  x1:0xe2f587e0 x29=0x00000000
       28925000	      2891	80004848	69cc6b37	lui	x22,0x69cc6	 x22=0x69cc6000
       28935000	      2892	8000484c	41ad5313	srai	x6,x26,0x1a	 x26:0x00fffffb  x6=0x00000000
       28945000	      2893	80004850	41b90433	sub	x8,x18,x27	 x18:0x0000995c x27:0xfffff9d2  x8=0x00009f8a
       28955000	      2894	80004854	01bbc233	xor	x4,x23,x27	 x23:0xf091aa4a x27:0xfffff9d2  x4=0x0f6e5398
       28965000	      2895	80004858	b889beb7	lui	x29,0xb889b	 x29=0xb889b000
       28975000	      2896	8000485c	f3bac193	xori	x3,x21,-197	 x21:0x80009fc4  x3=0x7fff60ff
       28985000	      2897	80004860	015e1463	bne	x28,x21,80004868	 x28:0x80009f3c x21:0x80009fc4
       28995000	      2898	00000000	00000013	addi	x0,x0,0	  x0:0x00000000
       29005000	      2899	80004864	00000013	addi	x0,x0,0	  x0:0x00000000
       29015000	      2900	80004868	332a4413	xori	x8,x20,818	 x20:0xf800995c  x8=0xf8009a6e
       29025000	      2901	8000486c	89ce4813	xori	x16,x28,-1892	 x28:0x80009f3c x16=0x7fff67a0
       29035000	      2902	80004870	bb1cb893	sltiu	x17,x25,-1103	 x25:0x00000000 x17=0x00000001
       29045000	      2903	80004874	015e3d33	sltu	x26,x28,x21	 x28:0x80009f3c x21:0x80009fc4 x26=0x00000001
       29055000	      2904	80004878	1aa15937	lui	x18,0x1aa15	 x18=0x1aa15000
       29065000	      2905	8000487c	0031d613	srli	x12,x3,0x3	  x3:0x7fff60ff x12=0x0fffec1f
       29075000	      2906	80004880	02f3f063	bgeu	x7,x15,800048a0	  x7:0xffff76ec x15:0x80009fc4
       29085000	      2907	00000000	00000013	addi	x0,x0,0	  x0:0x00000000
       29095000	      2908	8000489c	00000013	addi	x0,x0,0	  x0:0x00000000
       29105000	      2909	800048a0	7ac5b513	sltiu	x10,x11,1964	 x11:0x00000001 x10=0x00000001
       29115000	      2910	800048a4	04915663	bge	x2,x9,800048f0	  x2:0x00000000  x9:0xffff7d9b
       29125000	      2911	00000000	00000013	addi	x0,x0,0	  x0:0x00000000
       29135000	      2912	800048ec	00000013	addi	x0,x0,0	  x0:0x00000000
       29145000	      2913	800048f0	03709263	bne	x1,x23,80004914	  x1:0xe2f587e0 x23:0xf091aa4a
       29155000	      2914	00000000	00000013	addi	x0,x0,0	  x0:0x00000000
       29165000	      2915	80004910	00000013	addi	x0,x0,0	  x0:0x00000000
       29175000	      2916	80004914	00f1f9b3	and	x19,x3,x15	  x3:0x7fff60ff x15:0x80009fc4 x19=0x000000c4
       29185000	      2917	80004918	4001da13	srai	x20,x3,0x0	  x3:0x7fff60ff x20=0x7fff60ff
       29195000	      2918	8000491c	0136fcb3	and	x25,x13,x19	 x13:0x000fffff x19:0x000000c4 x25=0x000000c4
       29205000	      2919	80004920	01d3d433	srl	x8,x7,x29	  x7:0xffff76ec x29:0xb889b000  x8=0xffff76ec
       29215000	      2920	80004924	045b7663	bgeu	x22,x5,80004970	 x22:0x69cc6000  x5:0x00000506
       29225000	      2921	00000000	00000013	addi	x0,x0,0	  x0:0x00000000
       29235000	      2922	8000496c	00000013	addi	x0,x0,0	  x0:0x00000000
       29245000	      2923	80004970	02975e63	bge	x14,x9,800049ac	 x14:0x7fff5ac0  x9:0xffff7d9b
       29255000	      2924	00000000	00000013	addi	x0,x0,0	  x0:0x00000000
       29265000	      2925	800049a8	00000013	addi	x0,x0,0	  x0:0x00000000
       29275000	      2926	800049ac	7225bd13	sltiu	x26,x11,1826	 x11:0x00000001 x26=0x00000001
       29285000	      2927	800049b0	00029c63	bne	x5,x0,800049c8	  x5:0x00000506  x0:0x00000000
       29295000	      2928	00000000	00000013	addi	x0,x0,0	  x0:0x00000000
       29305000	      2929	800049c4	00000013	addi	x0,x0,0	  x0:0x00000000
       29315000	      2930	800049c8	00356e63	bltu	x10,x3,800049e4	 x10:0x00000001  x3:0x7fff60ff
       29325000	      2931	00000000	00000013	addi	x0,x0,0	  x0:0x00000000
       29335000	      2932	800049e0	00000013	addi	x0,x0,0	  x0:0x00000000
       29345000	      2933	800049e4	4043d893	srai	x17,x7,0x4	  x7:0xffff76ec x17=0xfffff76e
       29355000	      2934	800049e8	02862013	slti	x0,x12,40	 x12:0x0fffec1f
       29365000	      2935	800049ec	01fd9c63	bne	x27,x31,80004a04	 x27:0xfffff9d2 x31:0xffffff3d
       29375000	      2936	00000000	00000013	addi	x0,x0,0	  x0:0x00000000
       29385000	      2937	80004a00	00000013	addi	x0,x0,0	  x0:0x00000000
       29395000	      2938	80004a04	40f0d233	sra	x4,x1,x15	  x1:0xe2f587e0 x15:0x80009fc4  x4=0xfe2f587e
       29405000	      2939	80004a08	019877b3	and	x15,x16,x25	 x16:0x7fff67a0 x25:0x000000c4 x15=0x00000080
       29415000	      2940	80004a0c	02360863	beq	x12,x3,80004a3c	 x12:0x0fffec1f  x3:0x7fff60ff
       29425000	      2941	80004a10	04597263	bgeu	x18,x5,80004a54	 x18:0x1aa15000  x5:0x00000506
       29435000	      2942	00000000	00000013	addi	x0,x0,0	  x0:0x00000000
       29445000	      2943	80004a50	00000013	addi	x0,x0,0	  x0:0x00000000
       29455000	      2944	80004a54	4116dd93	srai	x27,x13,0x11	 x13:0x000fffff x27=0x00000007
       29465000	      2945	80004a58	04869663	bne	x13,x8,80004aa4	 x13:0x000fffff  x8:0xffff76ec
       29475000	      2946	00000000	00000013	addi	x0,x0,0	  x0:0x00000000
       29485000	      2947	80004aa0	00000013	addi	x0,x0,0	  x0:0x00000000
       29495000	      2948	80004aa4	00a37133	and	x2,x6,x10	  x6:0x00000000 x10:0x00000001  x2=0x00000000
       29505000	      2949	80004aa8	40ca5e93	srai	x29,x20,0xc	 x20:0x7fff60ff x29=0x0007fff6
       29515000	      2950	80004aac	00000013	addi	x0,x0,0	  x0:0x00000000
       29525000	      2951	80004ab0	da48fc93	andi	x25,x17,-604	 x17:0xfffff76e x25=0xfffff524
       29535000	      2952	80004ab4	41068a33	sub	x20,x13,x16	 x13:0x000fffff x16:0x7fff67a0 x20=0x8010985f
       29545000	      2953	80004ab8	03ab4263	blt	x22,x26,80004adc	 x22:0x69cc6000 x26:0x00000001
       29555000	      2954	80004abc	03281063	bne	x16,x18,80004adc	 x16:0x7fff67a0 x18:0x1aa15000
       29565000	      2955	00000000	00000013	addi	x0,x0,0	  x0:0x00000000
       29575000	      2956	80004ad8	00000013	addi	x0,x0,0	  x0:0x00000000
       29585000	      2957	80004adc	56dd7a13	andi	x20,x26,1389	 x26:0x00000001 x20=0x00000001
       29595000	      2958	80004ae0	7b87b993	sltiu	x19,x15,1976	 x15:0x00000080 x19=0x00000001
       29605000	      2959	80004ae4	40c00d33	sub	x26,x0,x12	  x0:0x00000000 x12:0x0fffec1f x26=0xf00013e1
       29615000	      2960	80004ae8	05b65263	bge	x12,x27,80004b2c	 x12:0x0fffec1f x27:0x00000007
       29625000	      2961	00000000	00000013	addi	x0,x0,0	  x0:0x00000000
       29635000	      2962	80004b28	00000013	addi	x0,x0,0	  x0:0x00000000
       29645000	      2963	80004b2c	016e5713	srli	x14,x28,0x16	 x28:0x80009f3c x14=0x00000200
       29655000	      2964	80004b30	c372c993	xori	x19,x5,-969	  x5:0x00000506 x19=0xfffff931
       29665000	      2965	80004b34	01bd1113	slli	x2,x26,0x1b	 x26:0xf00013e1  x2=0x08000000
       29675000	      2966	80004b38	fa3e2a13	slti	x20,x28,-93	 x28:0x80009f3c x20=0x00000001
       29685000	      2967	80004b3c	413680b3	sub	x1,x13,x19	 x13:0x000fffff x19:0xfffff931  x1=0x001006ce
       29695000	      2968	80004b40	01bdef33	or	x30,x27,x27	 x27:0x00000007 x27:0x00000007 x30=0x00000007
       29705000	      2969	80004b44	f5316313	ori	x6,x2,-173	  x2:0x08000000  x6=0xffffff53
       29715000	      2970	80004b48	11624693	xori	x13,x4,278	  x4:0xfe2f587e x13=0xfe2f5968
       29725000	      2971	80004b4c	a2e6ab13	slti	x22,x13,-1490	 x13:0xfe2f5968 x22=0x00000001
       29735000	      2972	80004b50	0e865e63	bge	x12,x8,80004c4c	 x12:0x0fffec1f  x8:0xffff76ec
       29745000	      2973	00000000	00000013	addi	x0,x0,0	  x0:0x00000000
       29755000	      2974	80004c48	00000013	addi	x0,x0,0	  x0:0x00000000
       29765000	      2975	80004c4c	019b5193	srli	x3,x22,0x19	 x22:0x00000001  x3=0x00000000
       29775000	      2976	80004c50	a2408c93	addi	x25,x1,-1500	  x1:0x001006ce x25=0x001000f2
       29785000	      2977	80004c54	03177393	andi	x7,x14,49	 x14:0x00000200  x7=0x00000000
       29795000	      2978	80004c58	01923f33	sltu	x30,x4,x25	  x4:0xfe2f587e x25:0x001000f2 x30=0x00000000
       29805000	      2979	80004c5c	b8a03313	sltiu	x6,x0,-1142	  x0:0x00000000  x6=0x00000001
       29815000	      2980	80004c60	018512b3	sll	x5,x10,x24	 x10:0x00000001 x24:0x00000000  x5=0x00000001
       29825000	      2981	80004c64	052a7263	bgeu	x20,x18,80004ca8	 x20:0x00000001 x18:0x1aa15000
       29835000	      2982	80004c68	32f52493	slti	x9,x10,815	 x10:0x00000001  x9=0x00000001
       29845000	      2983	80004c6c	50251c97	auipc	x25,0x50251	 x25=0xd0255c68
       29855000	      2984	80004c70	02ed0e63	beq	x26,x14,80004cac	 x26:0xf00013e1 x14:0x00000200
       29865000	      2985	80004c74	001e00b3	add	x1,x28,x1	 x28:0x80009f3c  x1:0x001006ce  x1=0x8010a60a
       29875000	      2986	80004c78	404951b3	sra	x3,x18,x4	 x18:0x1aa15000  x4:0xfe2f587e  x3=0x00000000
       29885000	      2987	80004c7c	bbcbcc13	xori	x24,x23,-1092	 x23:0xf091aa4a x24=0x0f6e51f6
       29895000	      2988	80004c80	5435c817	auipc	x16,0x5435c	 x16=0xd4360c7c
       29905000	      2989	80004c84	013a0463	beq	x20,x19,80004c8c	 x20:0x00000001 x19:0xfffff931
       29915000	      2990	80004c88	026c1263	bne	x24,x6,80004cac	 x24:0x0f6e51f6  x6:0x00000001
       29925000	      2991	00000000	00000013	addi	x0,x0,0	  x0:0x00000000
       29935000	      2992	80004ca8	00000013	addi	x0,x0,0	  x0:0x00000000
       29945000	      2993	80004cac	417c5d93	srai	x27,x24,0x17	 x24:0x0f6e51f6 x27=0x0000001e
       29955000	      2994	80004cb0	817aba13	sltiu	x20,x21,-2025	 x21:0x80009fc4 x20=0x00000001
       29965000	      2995	80004cb4	0cf88063	beq	x17,x15,80004d74	 x17:0xfffff76e x15:0x00000080
       29975000	      2996	80004cb8	00004097	auipc	x1,0x4	  x1=0x80008cb4
       29985000	      2997	80004cbc	98608093	addi	x1,x1,-1658	  x1:0x80008cb4  x1=0x8000863a
       29995000	      2998	80004cc0	ffb08fa3	sb	x27,-1(x1)	  x1:0x8000863a x27:0x0000001e PA:0x80008639
       30005000	      2999	80004cc4	72603c13	sltiu	x24,x0,1830	  x0:0x00000000 x24=0x00000001
       30015000	      3000	80004cc8	fff0cf03	lbu	x30,-1(x1)	  x1:0x8000863a x30=0x0000001e PA:0x80008639
       30025000	      3001	80004ccc	4076d733	sra	x14,x13,x7	 x13:0xfe2f5968  x7:0x00000000 x14=0xfe2f5968
       30035000	      3002	80004cd0	ff309d23	sh	x19,-6(x1)	  x1:0x8000863a x19:0xfffff931 PA:0x80008634
       30045000	      3003	80004cd4	00c775b3	and	x11,x14,x12	 x14:0xfe2f5968 x12:0x0fffec1f x11=0x0e2f4808
       30055000	      3004	80004cd8	feb08823	sb	x11,-16(x1)	  x1:0x8000863a x11:0x0e2f4808 PA:0x8000862a
       30065000	      3005	80004cdc	00009e83	lh	x29,0(x1)	  x1:0x8000863a x29=0x00000000 PA:0x8000863a
       30075000	      3006	80004ce0	ff309a23	sh	x19,-12(x1)	  x1:0x8000863a x19:0xfffff931 PA:0x8000862e
       30085000	      3007	80004ce4	00108a03	lb	x20,1(x1)	  x1:0x8000863a x20=0x00000000 PA:0x8000863b
       30095000	      3008	80004ce8	ff50cd83	lbu	x27,-11(x1)	  x1:0x8000863a x27=0x000000f9 PA:0x8000862f
       30105000	      3009	80004cec	00108823	sb	x1,16(x1)	  x1:0x8000863a  x1:0x8000863a PA:0x8000864a
       30115000	      3010	80004cf0	0020a523	sw	x2,10(x1)	  x1:0x8000863a  x2:0x08000000 PA:0x80008644
       30125000	      3011	80004cf4	ff508983	lb	x19,-11(x1)	  x1:0x8000863a x19=0xfffffff9 PA:0x8000862f
       30135000	      3012	80004cf8	00108a03	lb	x20,1(x1)	  x1:0x8000863a x20=0x00000000 PA:0x8000863b
       30145000	      3013	80004cfc	fff0cc03	lbu	x24,-1(x1)	  x1:0x8000863a x24=0x0000001e PA:0x80008639
       30155000	      3014	80004d00	01208123	sb	x18,2(x1)	  x1:0x8000863a x18:0x1aa15000 PA:0x8000863c
       30165000	      3015	80004d04	00008103	lb	x2,0(x1)	  x1:0x8000863a  x2=0x00000000 PA:0x8000863a
       30175000	      3016	80004d08	ff908983	lb	x19,-7(x1)	  x1:0x8000863a x19=0x00000000 PA:0x80008633
       30185000	      3017	80004d0c	01008203	lb	x4,16(x1)	  x1:0x8000863a  x4=0x0000003a PA:0x8000864a
       30195000	      3018	80004d10	fff0cd03	lbu	x26,-1(x1)	  x1:0x8000863a x26=0x0000001e PA:0x80008639
       30205000	      3019	80004d14	7080ec37	lui	x24,0x7080e	 x24=0x7080e000
       30215000	      3020	80004d18	00a08a03	lb	x20,10(x1)	  x1:0x8000863a x20=0x00000000 PA:0x80008644
       30225000	      3021	00000000	00000013	addi	x0,x0,0	  x0:0x00000000
       30235000	      3022	80004d1c	01475d13	srli	x26,x14,0x14	 x14:0xfe2f5968 x26=0x00000fe2
       30245000	      3023	80004d20	ffc09823	sh	x28,-16(x1)	  x1:0x8000863a x28:0x80009f3c PA:0x8000862a
       30255000	      3024	80004d24	0020d803	lhu	x16,2(x1)	  x1:0x8000863a x16=0x00000000 PA:0x8000863c
       30265000	      3025	80004d28	41340933	sub	x18,x8,x19	  x8:0xffff76ec x19:0x00000000 x18=0xffff76ec
       30275000	      3026	80004d2c	161d7313	andi	x6,x26,353	 x26:0x00000fe2  x6=0x00000160
       30285000	      3027	80004d30	000b3c33	sltu	x24,x22,x0	 x22:0x00000001  x0:0x00000000 x24=0x00000000
       30295000	      3028	80004d34	00b08983	lb	x19,11(x1)	  x1:0x8000863a x19=0x00000000 PA:0x80008645
       30305000	      3029	80004d38	402386b3	sub	x13,x7,x2	  x7:0x00000000  x2:0x00000000 x13=0x00000000
       30315000	      3030	80004d3c	01008903	lb	x18,16(x1)	  x1:0x8000863a x18=0x0000003a PA:0x8000864a
       30325000	      3031	80004d40	00108383	lb	x7,1(x1)	  x1:0x8000863a  x7=0x00000000 PA:0x8000863b
       30335000	      3032	80004d44	00fb7033	and	x0,x22,x15	 x22:0x00000001 x15:0x00000080
       30345000	      3033	80004d48	00509823	sh	x5,16(x1)	  x1:0x8000863a  x5:0x00000001 PA:0x8000864a
       30355000	      3034	80004d4c	ffb08383	lb	x7,-5(x1)	  x1:0x8000863a  x7=0xfffffff9 PA:0x80008635
       30365000	      3035	80004d50	4abff613	andi	x12,x31,1195	 x31:0xffffff3d x12=0x00000429
       30375000	      3036	80004d54	0080c403	lbu	x8,8(x1)	  x1:0x8000863a  x8=0x00000000 PA:0x80008642
       30385000	      3037	80004d58	0010c683	lbu	x13,1(x1)	  x1:0x8000863a x13=0x00000000 PA:0x8000863b
       30395000	      3038	80004d5c	001d6c63	bltu	x26,x1,80004d74	 x26:0x00000fe2  x1:0x8000863a
       30405000	      3039	00000000	00000013	addi	x0,x0,0	  x0:0x00000000
       30415000	      3040	80004d70	00000013	addi	x0,x0,0	  x0:0x00000000
       30425000	      3041	80004d74	a10cef13	ori	x30,x25,-1520	 x25:0xd0255c68 x30=0xfffffe78
       30435000	      3042	80004d78	003f64b3	or	x9,x30,x3	 x30:0xfffffe78  x3:0x00000000  x9=0xfffffe78
       30445000	      3043	80004d7c	014fc233	xor	x4,x31,x20	 x31:0xffffff3d x20:0x00000000  x4=0xffffff3d
       30455000	      3044	80004d80	40125033	sra	x0,x4,x1	  x4:0xffffff3d  x1:0x8000863a
       30465000	      3045	80004d84	0069cc63	blt	x19,x6,80004d9c	 x19:0x00000000  x6:0x00000160
       30475000	      3046	00000000	00000013	addi	x0,x0,0	  x0:0x00000000
       30485000	      3047	80004d98	00000013	addi	x0,x0,0	  x0:0x00000000
       30495000	      3048	80004d9c	00b79a63	bne	x15,x11,80004db0	 x15:0x00000080 x11:0x0e2f4808
       30505000	      3049	00000000	00000013	addi	x0,x0,0	  x0:0x00000000
       30515000	      3050	80004dac	00000013	addi	x0,x0,0	  x0:0x00000000
       30525000	      3051	80004db0	9de53c93	sltiu	x25,x10,-1570	 x10:0x00000001 x25=0x00000001
       30535000	      3052	80004db4	a195be93	sltiu	x29,x11,-1511	 x11:0x0e2f4808 x29=0x00000001
       30545000	      3053	80004db8	04401663	bne	x0,x4,80004e04	  x0:0x00000000  x4:0xffffff3d
       30555000	      3054	00000000	00000013	addi	x0,x0,0	  x0:0x00000000
       30565000	      3055	80004e00	00000013	addi	x0,x0,0	  x0:0x00000000
       30575000	      3056	80004e04	01908eb3	add	x29,x1,x25	  x1:0x8000863a x25:0x00000001 x29=0x8000863b
       30585000	      3057	80004e08	41095db3	sra	x27,x18,x16	 x18:0x0000003a x16:0x00000000 x27=0x0000003a
       30595000	      3058	80004e0c	00000013	addi	x0,x0,0	  x0:0x00000000
       30605000	      3059	80004e10	01d3c833	xor	x16,x7,x29	  x7:0xfffffff9 x29:0x8000863b x16=0x7fff79c2
       30615000	      3060	80004e14	9cf2b713	sltiu	x14,x5,-1585	  x5:0x00000001 x14=0x00000001
       30625000	      3061	80004e18	003c2333	slt	x6,x24,x3	 x24:0x00000000  x3:0x00000000  x6=0x00000000
       30635000	      3062	80004e1c	00606133	or	x2,x0,x6	  x0:0x00000000  x6:0x00000000  x2=0x00000000
       30645000	      3063	80004e20	054f6663	bltu	x30,x20,80004e6c	 x30:0xfffffe78 x20:0x00000000
       30655000	      3064	80004e24	d3b77813	andi	x16,x14,-709	 x14:0x00000001 x16=0x00000001
       30665000	      3065	80004e28	00861033	sll	x0,x12,x8	 x12:0x00000429  x8:0x00000000
       30675000	      3066	80004e2c	01bcdf93	srli	x31,x25,0x1b	 x25:0x00000001 x31=0x00000000
       30685000	      3067	80004e30	00115713	srli	x14,x2,0x1	  x2:0x00000000 x14=0x00000000
       30695000	      3068	80004e34	01b59c33	sll	x24,x11,x27	 x11:0x0e2f4808 x27:0x0000003a x24=0x20000000
       30705000	      3069	80004e38	634f3913	sltiu	x18,x30,1588	 x30:0xfffffe78 x18=0x00000000
       30715000	      3070	80004e3c	01b93333	sltu	x6,x18,x27	 x18:0x00000000 x27:0x0000003a  x6=0x00000001
       30725000	      3071	80004e40	43d46e93	ori	x29,x8,1085	  x8:0x00000000 x29=0x0000043d
       30735000	      3072	80004e44	07cd2a13	slti	x20,x26,124	 x26:0x00000fe2 x20=0x00000000
       30745000	      3073	80004e48	01949e63	bne	x9,x25,80004e64	  x9:0xfffffe78 x25:0x00000001
       30755000	      3074	00000000	00000013	addi	x0,x0,0	  x0:0x00000000
       30765000	      3075	80004e60	00000013	addi	x0,x0,0	  x0:0x00000000
       30775000	      3076	80004e64	002db5b3	sltu	x11,x27,x2	 x27:0x0000003a  x2:0x00000000 x11=0x00000000
       30785000	      3077	80004e68	19ecfa13	andi	x20,x25,414	 x25:0x00000001 x20=0x00000000
       30795000	      3078	80004e6c	40915613	srai	x12,x2,0x9	  x2:0x00000000 x12=0x00000000
       30805000	      3079	80004e70	00d95a63	bge	x18,x13,80004e84	 x18:0x00000000 x13:0x00000000
       30815000	      3080	00000000	00000013	addi	x0,x0,0	  x0:0x00000000
       30825000	      3081	80004e80	00000013	addi	x0,x0,0	  x0:0x00000000
       30835000	      3082	80004e84	f666f093	andi	x1,x13,-154	 x13:0x00000000  x1=0x00000000
       30845000	      3083	80004e88	0187e463	bltu	x15,x24,80004e90	 x15:0x00000080 x24:0x20000000
       30855000	      3084	00000000	00000013	addi	x0,x0,0	  x0:0x00000000
       30865000	      3085	80004e8c	00000013	addi	x0,x0,0	  x0:0x00000000
       30875000	      3086	80004e90	29728417	auipc	x8,0x29728	  x8=0xa972ce8c
       30885000	      3087	80004e94	19ef3817	auipc	x16,0x19ef3	 x16=0x99ef7e90
       30895000	      3088	80004e98	26d56113	ori	x2,x10,621	 x10:0x00000001  x2=0x0000026d
       30905000	      3089	80004e9c	011c2b33	slt	x22,x24,x17	 x24:0x20000000 x17:0xfffff76e x22=0x00000000
       30915000	      3090	80004ea0	6db2c0b7	lui	x1,0x6db2c	  x1=0x6db2c000
       30925000	      3091	80004ea4	01fd4533	xor	x10,x26,x31	 x26:0x00000fe2 x31:0x00000000 x10=0x00000fe2
       30935000	      3092	80004ea8	ba88a313	slti	x6,x17,-1112	 x17:0xfffff76e  x6=0x00000001
       30945000	      3093	80004eac	014e78b3	and	x17,x28,x20	 x28:0x80009f3c x20:0x00000000 x17=0x00000000
       30955000	      3094	80004eb0	b1d5a813	slti	x16,x11,-1251	 x11:0x00000000 x16=0x00000000
       30965000	      3095	80004eb4	a249fc13	andi	x24,x19,-1500	 x19:0x00000000 x24=0x00000000
       30975000	      3096	80004eb8	0136cc63	blt	x13,x19,80004ed0	 x13:0x00000000 x19:0x00000000
       30985000	      3097	80004ebc	01f14b33	xor	x22,x2,x31	  x2:0x0000026d x31:0x00000000 x22=0x0000026d
       30995000	      3098	80004ec0	01651333	sll	x6,x10,x22	 x10:0x00000fe2 x22:0x0000026d  x6=0x01fc4000
       31005000	      3099	80004ec4	05556063	bltu	x10,x21,80004f04	 x10:0x00000fe2 x21:0x80009fc4
       31015000	      3100	00000000	00000013	addi	x0,x0,0	  x0:0x00000000
       31025000	      3101	80004f00	00000013	addi	x0,x0,0	  x0:0x00000000
       31035000	      3102	80004f04	01aae9b3	or	x19,x21,x26	 x21:0x80009fc4 x26:0x00000fe2 x19=0x80009fe6
       31045000	      3103	80004f08	01911333	sll	x6,x2,x25	  x2:0x0000026d x25:0x00000001  x6=0x000004da
       31055000	      3104	80004f0c	001e06b3	add	x13,x28,x1	 x28:0x80009f3c  x1:0x6db2c000 x13=0xedb35f3c
       31065000	      3105	80004f10	6ecfc393	xori	x7,x31,1772	 x31:0x00000000  x7=0x000006ec
       31075000	      3106	80004f14	37f64513	xori	x10,x12,895	 x12:0x00000000 x10=0x0000037f
       31085000	      3107	80004f18	1285b593	sltiu	x11,x11,296	 x11:0x00000000 x11=0x00000001
       31095000	      3108	80004f1c	fed16d13	ori	x26,x2,-19	  x2:0x0000026d x26=0xffffffed
       31105000	      3109	80004f20	005a4133	xor	x2,x20,x5	 x20:0x00000000  x5:0x00000001  x2=0x00000001
       31115000	      3110	80004f24	00a91c63	bne	x18,x10,80004f3c	 x18:0x00000000 x10:0x0000037f
       31125000	      3111	00000000	00000013	addi	x0,x0,0	  x0:0x00000000
       31135000	      3112	80004f38	00000013	addi	x0,x0,0	  x0:0x00000000
       31145000	      3113	80004f3c	00aac663	blt	x21,x10,80004f48	 x21:0x80009fc4 x10:0x0000037f
       31155000	      3114	00000000	00000013	addi	x0,x0,0	  x0:0x00000000
       31165000	      3115	80004f44	00000013	addi	x0,x0,0	  x0:0x00000000
       31175000	      3116	80004f48	05261263	bne	x12,x18,80004f8c	 x12:0x00000000 x18:0x00000000
       31185000	      3117	80004f4c	03ba1e63	bne	x20,x27,80004f88	 x20:0x00000000 x27:0x0000003a
       31195000	      3118	00000000	00000013	addi	x0,x0,0	  x0:0x00000000
       31205000	      3119	80004f84	00000013	addi	x0,x0,0	  x0:0x00000000
       31215000	      3120	80004f88	019a42b3	xor	x5,x20,x25	 x20:0x00000000 x25:0x00000001  x5=0x00000001
       31225000	      3121	80004f8c	008d61b3	or	x3,x26,x8	 x26:0xffffffed  x8:0xa972ce8c  x3=0xffffffed
       31235000	      3122	80004f90	4a4f4293	xori	x5,x30,1188	 x30:0xfffffe78  x5=0xfffffadc
       31245000	      3123	80004f94	015f5eb3	srl	x29,x30,x21	 x30:0xfffffe78 x21:0x80009fc4 x29=0x0fffffe7
       31255000	      3124	80004f98	018a65b3	or	x11,x20,x24	 x20:0x00000000 x24:0x00000000 x11=0x00000000
       31265000	      3125	80004f9c	54a33893	sltiu	x17,x6,1354	  x6:0x000004da x17=0x00000001
       31275000	      3126	80004fa0	01fccc63	blt	x25,x31,80004fb8	 x25:0x00000001 x31:0x00000000
       31285000	      3127	80004fa4	00f7e533	or	x10,x15,x15	 x15:0x00000080 x15:0x00000080 x10=0x00000080
       31295000	      3128	80004fa8	401e5833	sra	x16,x28,x1	 x28:0x80009f3c  x1:0x6db2c000 x16=0x80009f3c
       31305000	      3129	80004fac	412c06b3	sub	x13,x24,x18	 x24:0x00000000 x18:0x00000000 x13=0x00000000
       31315000	      3130	80004fb0	01c9b433	sltu	x8,x19,x28	 x19:0x80009fe6 x28:0x80009f3c  x8=0x00000000
       31325000	      3131	80004fb4	00055d93	srli	x27,x10,0x0	 x10:0x00000080 x27=0x00000080
       31335000	      3132	80004fb8	005baf33	slt	x30,x23,x5	 x23:0xf091aa4a  x5:0xfffffadc x30=0x00000001
       31345000	      3133	80004fbc	89138c93	addi	x25,x7,-1903	  x7:0x000006ec x25=0xffffff7d
       31355000	      3134	80004fc0	f59c7b13	andi	x22,x24,-167	 x24:0x00000000 x22=0x00000000
       31365000	      3135	80004fc4	00000013	addi	x0,x0,0	  x0:0x00000000
       31375000	      3136	80004fc8	01b81813	slli	x16,x16,0x1b	 x16:0x80009f3c x16=0xe0000000
       31385000	      3137	80004fcc	00000013	addi	x0,x0,0	  x0:0x00000000
       31395000	      3138	80004fd0	05087263	bgeu	x16,x16,80005014	 x16:0xe0000000 x16:0xe0000000
       31405000	      3139	00000000	00000013	addi	x0,x0,0	  x0:0x00000000
       31415000	      3140	80005010	00000013	addi	x0,x0,0	  x0:0x00000000
       31425000	      3141	80005014	cf8e0413	addi	x8,x28,-776	 x28:0x80009f3c  x8=0x80009c34
       31435000	      3142	80005018	01db6c63	bltu	x22,x29,80005030	 x22:0x00000000 x29:0x0fffffe7
       31445000	      3143	00000000	00000013	addi	x0,x0,0	  x0:0x00000000
       31455000	      3144	8000502c	00000013	addi	x0,x0,0	  x0:0x00000000
       31465000	      3145	80005030	01991693	slli	x13,x18,0x19	 x18:0x00000000 x13=0x00000000
       31475000	      3146	80005034	0153f663	bgeu	x7,x21,80005040	  x7:0x000006ec x21:0x80009fc4
       31485000	      3147	80005038	01c99133	sll	x2,x19,x28	 x19:0x80009fe6 x28:0x80009f3c  x2=0x60000000
       31495000	      3148	8000503c	01551c63	bne	x10,x21,80005054	 x10:0x00000080 x21:0x80009fc4
       31505000	      3149	00000000	00000013	addi	x0,x0,0	  x0:0x00000000
       31515000	      3150	80005050	00000013	addi	x0,x0,0	  x0:0x00000000
       31525000	      3151	80005054	0100bf33	sltu	x30,x1,x16	  x1:0x6db2c000 x16:0xe0000000 x30=0x00000001
       31535000	      3152	80005058	00cedc63	bge	x29,x12,80005070	 x29:0x0fffffe7 x12:0x00000000
       31545000	      3153	00000000	00000013	addi	x0,x0,0	  x0:0x00000000
       31555000	      3154	8000506c	00000013	addi	x0,x0,0	  x0:0x00000000
       31565000	      3155	80005070	03656063	bltu	x10,x22,80005090	 x10:0x00000080 x22:0x00000000
       31575000	      3156	80005074	f0f48913	addi	x18,x9,-241	  x9:0xfffffe78 x18=0xfffffd87
       31585000	      3157	80005078	0165f933	and	x18,x11,x22	 x11:0x00000000 x22:0x00000000 x18=0x00000000
       31595000	      3158	8000507c	00ff7c63	bgeu	x30,x15,80005094	 x30:0x00000001 x15:0x00000080
       31605000	      3159	80005080	40ca5833	sra	x16,x20,x12	 x20:0x00000000 x12:0x00000000 x16=0x00000000
       31615000	      3160	80005084	00a366b3	or	x13,x6,x10	  x6:0x000004da x10:0x00000080 x13=0x000004da
       31625000	      3161	80005088	5058ed13	ori	x26,x17,1285	 x17:0x00000001 x26=0x00000505
       31635000	      3162	8000508c	40284e93	xori	x29,x16,1026	 x16:0x00000000 x29=0x00000402
       31645000	      3163	80005090	01c8de63	bge	x17,x28,800050ac	 x17:0x00000001 x28:0x80009f3c
       31655000	      3164	00000000	00000013	addi	x0,x0,0	  x0:0x00000000
       31665000	      3165	800050a8	00000013	addi	x0,x0,0	  x0:0x00000000
       31675000	      3166	800050ac	04da1663	bne	x20,x13,800050f8	 x20:0x00000000 x13:0x000004da
       31685000	      3167	00000000	00000013	addi	x0,x0,0	  x0:0x00000000
       31695000	      3168	800050f4	00000013	addi	x0,x0,0	  x0:0x00000000
       31705000	      3169	800050f8	0111a733	slt	x14,x3,x17	  x3:0xffffffed x17:0x00000001 x14=0x00000001
       31715000	      3170	800050fc	00dbe533	or	x10,x23,x13	 x23:0xf091aa4a x13:0x000004da x10=0xf091aeda
       31725000	      3171	80005100	04310663	beq	x2,x3,8000514c	  x2:0x60000000  x3:0xffffffed
       31735000	      3172	80005104	001b4033	xor	x0,x22,x1	 x22:0x00000000  x1:0x6db2c000
       31745000	      3173	80005108	055af263	bgeu	x21,x21,8000514c	 x21:0x80009fc4 x21:0x80009fc4
       31755000	      3174	00000000	00000013	addi	x0,x0,0	  x0:0x00000000
       31765000	      3175	80005148	00000013	addi	x0,x0,0	  x0:0x00000000
       31775000	      3176	8000514c	01ae5893	srli	x17,x28,0x1a	 x28:0x80009f3c x17=0x00000020
       31785000	      3177	80005150	012222b3	slt	x5,x4,x18	  x4:0xffffff3d x18:0x00000000  x5=0x00000001
       31795000	      3178	80005154	00000013	addi	x0,x0,0	  x0:0x00000000
       31805000	      3179	80005158	010e5463	bge	x28,x16,80005160	 x28:0x80009f3c x16:0x00000000
       31815000	      3180	8000515c	40928333	sub	x6,x5,x9	  x5:0x00000001  x9:0xfffffe78  x6=0x00000189
       31825000	      3181	80005160	008a4a63	blt	x20,x8,80005174	 x20:0x00000000  x8:0x80009c34
       31835000	      3182	80005164	015d1933	sll	x18,x26,x21	 x26:0x00000505 x21:0x80009fc4 x18=0x00005050
       31845000	      3183	80005168	7e734713	xori	x14,x6,2023	  x6:0x00000189 x14=0x0000066e
       31855000	      3184	8000516c	1c1df0b7	lui	x1,0x1c1df	  x1=0x1c1df000
       31865000	      3185	80005170	057ed063	bge	x29,x23,800051b0	 x29:0x00000402 x23:0xf091aa4a
       31875000	      3186	00000000	00000013	addi	x0,x0,0	  x0:0x00000000
       31885000	      3187	800051ac	00000013	addi	x0,x0,0	  x0:0x00000000
       31895000	      3188	800051b0	0212e263	bltu	x5,x1,800051d4	  x5:0x00000001  x1:0x1c1df000
       31905000	      3189	00000000	00000013	addi	x0,x0,0	  x0:0x00000000
       31915000	      3190	800051d0	00000013	addi	x0,x0,0	  x0:0x00000000
       31925000	      3191	800051d4	ddc69897	auipc	x17,0xddc69	 x17=0x5dc6e1d0
       31935000	      3192	800051d8	01018263	beq	x3,x16,800051dc	  x3:0xffffffed x16:0x00000000
       31945000	      3193	800051dc	41218633	sub	x12,x3,x18	  x3:0xffffffed x18:0x00005050 x12=0xffffaf9d
       31955000	      3194	800051e0	c0437237	lui	x4,0xc0437	  x4=0xc0437000
       31965000	      3195	800051e4	004e2f03	lw	x30,4(x28)	 x28:0x80009f3c x30=0x80006978 PA:0x80009f40
       31975000	      3196	800051e8	26717b13	andi	x22,x2,615	  x2:0x60000000 x22=0x00000000
       31985000	      3197	800051ec	69f297b7	lui	x15,0x69f29	 x15=0x69f29000
       31995000	      3198	800051f0	034e0e13	addi	x28,x28,52	 x28:0x80009f3c x28=0x80009f70
       32005000	      3199	800051f4	ddb8fe93	andi	x29,x17,-549	 x17:0x5dc6e1d0 x29=0x5dc6e1d0
       32015000	      3200	800051f8	001f0d93	addi	x27,x30,1	 x30:0x80006978 x27=0x80006979
       32025000	      3201	800051fc	000d8de7	jalr	x27,x27,0	 x27:0x80006979 x27=0x800051fc
       32035000	      3202	00000000	00000013	addi	x0,x0,0	  x0:0x00000000
       32045000	      3203	80006978	00000013	addi	x0,x0,0	  x0:0x00000000
       32055000	      3204	8000697c	ffffc097	auipc	x1,0xffffc	  x1=0x80002978
       32065000	      3205	80006980	dfc08093	addi	x1,x1,-516	  x1:0x80002978  x1=0x80002774
       32075000	      3206	80006984	016d12b3	sll	x5,x26,x22	 x26:0x00000505 x22:0x00000000  x5=0x00000505
       32085000	      3207	80006988	00000013	addi	x0,x0,0	  x0:0x00000000
       32095000	      3208	8000698c	006377b3	and	x15,x6,x6	  x6:0x00000189  x6:0x00000189 x15=0x00000189
       32105000	      3209	80006990	00000013	addi	x0,x0,0	  x0:0x00000000
       32115000	      3210	80006994	454b4993	xori	x19,x22,1108	 x22:0x00000000 x19=0x00000454
       32125000	      3211	80006998	52dd3f17	auipc	x30,0x52dd3	 x30=0xd2dd9994
       32135000	      3212	8000699c	c8908093	addi	x1,x1,-887	  x1:0x80002774  x1=0x800023fd
       32145000	      3213	800069a0	00861d33	sll	x26,x12,x8	 x12:0xffffaf9d  x8:0x80009c34 x26=0xf9d00000
       32155000	      3214	800069a4	0047f863	bgeu	x15,x4,800069b4	 x15:0x00000189  x4:0xc0437000
       32165000	      3215	800069a8	cd58b613	sltiu	x12,x17,-811	 x17:0x5dc6e1d0 x12=0x00000001
       32175000	      3216	800069ac	006ff533	and	x10,x31,x6	 x31:0x00000000  x6:0x00000189 x10=0x00000000
       32185000	      3217	800069b0	dd708993	addi	x19,x1,-553	  x1:0x800023fd x19=0x800021d4
       32195000	      3218	800069b4	37808f67	jalr	x30,x1,888	  x1:0x800023fd x30=0x800069b4
       32205000	      3219	00000000	00000013	addi	x0,x0,0	  x0:0x00000000
       32215000	      3220	80002774	00000013	addi	x0,x0,0	  x0:0x00000000
       32225000	      3221	80002778	32009d37	lui	x26,0x32009	 x26=0x32009000
       32235000	      3222	8000277c	fc4e0e13	addi	x28,x28,-60	 x28:0x80009f70 x28=0x80009f34
       32245000	      3223	80002780	0081a5b3	slt	x11,x3,x8	  x3:0xffffffed  x8:0x80009c34 x11=0x00000000
       32255000	      3224	80002784	01ee2223	sw	x30,4(x28)	 x28:0x80009f34 x30:0x800069b4 PA:0x80009f38
       32265000	      3225	80002788	0166afb3	slt	x31,x13,x22	 x13:0x000004da x22:0x00000000 x31=0x00000000
       32275000	      3226	8000278c	00006997	auipc	x19,0x6	 x19=0x80008788
       32285000	      3227	80002790	52a98993	addi	x19,x19,1322	 x19:0x80008788 x19=0x80008cb2
       32295000	      3228	80002794	61a26f13	ori	x30,x4,1562	  x4:0xc0437000 x30=0xc043761a
       32305000	      3229	80002798	ff899923	sh	x24,-14(x19)	 x19:0x80008cb2 x24:0x00000000 PA:0x80008ca4
       32315000	      3230	8000279c	0019c303	lbu	x6,1(x19)	 x19:0x80008cb2  x6=0x00000000 PA:0x80008cb3
       32325000	      3231	800027a0	e0edc193	xori	x3,x27,-498	 x27:0x800051fc  x3=0x7fffaff2
       32335000	      3232	800027a4	ff898ca3	sb	x24,-7(x19)	 x19:0x80008cb2 x24:0x00000000 PA:0x80008cab
       32345000	      3233	800027a8	cd958717	auipc	x14,0xcd958	 x14=0x4d95a7a4
       32355000	      3234	800027ac	00899903	lh	x18,8(x19)	 x19:0x80008cb2 x18=0xffffc914 PA:0x80008cba
       32365000	      3235	800027b0	ff699a03	lh	x20,-10(x19)	 x19:0x80008cb2 x20=0x00000000 PA:0x80008ca8
       32375000	      3236	800027b4	01199423	sh	x17,8(x19)	 x19:0x80008cb2 x17:0x5dc6e1d0 PA:0x80008cba
       32385000	      3237	800027b8	7a1d4193	xori	x3,x26,1953	 x26:0x32009000  x3=0x320097a1
       32395000	      3238	800027bc	728e7d93	andi	x27,x28,1832	 x28:0x80009f34 x27=0x00000720
       32405000	      3239	800027c0	017f7633	and	x12,x30,x23	 x30:0xc043761a x23:0xf091aa4a x12=0xc001220a
       32415000	      3240	800027c4	017450b3	srl	x1,x8,x23	  x8:0x80009c34 x23:0xf091aa4a  x1=0x00200027
       32425000	      3241	800027c8	ff29cf03	lbu	x30,-14(x19)	 x19:0x80008cb2 x30=0x00000000 PA:0x80008ca4
       32435000	      3242	800027cc	00f9c103	lbu	x2,15(x19)	 x19:0x80008cb2  x2=0x00000000 PA:0x80008cc1
       32445000	      3243	800027d0	82f28693	addi	x13,x5,-2001	  x5:0x00000505 x13=0xfffffd34
       32455000	      3244	800027d4	ffa99303	lh	x6,-6(x19)	 x19:0x80008cb2  x6=0x00000000 PA:0x80008cac
       32465000	      3245	800027d8	00f983a3	sb	x15,7(x19)	 x19:0x80008cb2 x15:0x00000189 PA:0x80008cb9
       32475000	      3246	800027dc	ff899883	lh	x17,-8(x19)	 x19:0x80008cb2 x17=0x00000000 PA:0x80008caa
       32485000	      3247	800027e0	09c5b213	sltiu	x4,x11,156	 x11:0x00000000  x4=0x00000001
       32495000	      3248	800027e4	e42f3493	sltiu	x9,x30,-446	 x30:0x00000000  x9=0x00000001
       32505000	      3249	800027e8	ffe9c283	lbu	x5,-2(x19)	 x19:0x80008cb2  x5=0x00000000 PA:0x80008cb0
       32515000	      3250	800027ec	00b98483	lb	x9,11(x19)	 x19:0x80008cb2  x9=0x00000000 PA:0x80008cbd
       32525000	      3251	800027f0	ffd99d23	sh	x29,-6(x19)	 x19:0x80008cb2 x29:0x5dc6e1d0 PA:0x80008cac
       32535000	      3252	800027f4	00b980a3	sb	x11,1(x19)	 x19:0x80008cb2 x11:0x00000000 PA:0x80008cb3
       32545000	      3253	800027f8	ff79c703	lbu	x14,-9(x19)	 x19:0x80008cb2 x14=0x00000000 PA:0x80008ca9
       32555000	      3254	800027fc	00298833	add	x16,x19,x2	 x19:0x80008cb2  x2:0x00000000 x16=0x80008cb2
       32565000	      3255	80002800	01299323	sh	x18,6(x19)	 x19:0x80008cb2 x18:0xffffc914 PA:0x80008cb8
       32575000	      3256	80002804	ff29c783	lbu	x15,-14(x19)	 x19:0x80008cb2 x15=0x00000000 PA:0x80008ca4
       32585000	      3257	80002808	e4022197	auipc	x3,0xe4022	  x3=0x64024804
       32595000	      3258	8000280c	40335913	srai	x18,x6,0x3	  x6:0x00000000 x18=0x00000000
       32605000	      3259	80002810	01599223	sh	x21,4(x19)	 x19:0x80008cb2 x21:0x80009fc4 PA:0x80008cb6
       32615000	      3260	80002814	ffa9d483	lhu	x9,-6(x19)	 x19:0x80008cb2  x9=0x0000e1d0 PA:0x80008cac
       32625000	      3261	80002818	0029af03	lw	x30,2(x19)	 x19:0x80008cb2 x30=0x9fc40000 PA:0x80008cb4
       32635000	      3262	8000281c	0049d703	lhu	x14,4(x19)	 x19:0x80008cb2 x14=0x00009fc4 PA:0x80008cb6
       32645000	      3263	80002820	ff69cf83	lbu	x31,-10(x19)	 x19:0x80008cb2 x31=0x00000000 PA:0x80008ca8
       32655000	      3264	80002824	fef98a23	sb	x15,-12(x19)	 x19:0x80008cb2 x15:0x00000000 PA:0x80008ca6
       32665000	      3265	80002828	ff798a03	lb	x20,-9(x19)	 x19:0x80008cb2 x20=0x00000000 PA:0x80008ca9
       32675000	      3266	8000282c	ff19ce83	lbu	x29,-15(x19)	 x19:0x80008cb2 x29=0x00000000 PA:0x80008ca3
       32685000	      3267	80002830	ff59cc03	lbu	x24,-11(x19)	 x19:0x80008cb2 x24=0x00000000 PA:0x80008ca7
       32695000	      3268	80002834	78e6c197	auipc	x3,0x78e6c	  x3=0xf8e6e830
       32705000	      3269	80002838	01d99823	sh	x29,16(x19)	 x19:0x80008cb2 x29:0x00000000 PA:0x80008cc2
       32715000	      3270	8000283c	ff398f03	lb	x30,-13(x19)	 x19:0x80008cb2 x30=0x00000000 PA:0x80008ca5
       32725000	      3271	80002840	009987a3	sb	x9,15(x19)	 x19:0x80008cb2  x9:0x0000e1d0 PA:0x80008cc1
       32735000	      3272	80002844	00006117	auipc	x2,0x6	  x2=0x80008840
       32745000	      3273	80002848	daf10113	addi	x2,x2,-593	  x2:0x80008840  x2=0x800085ef
       32755000	      3274	8000284c	09a10003	lb	x0,154(x2)	  x2:0x800085ef PA:0x80008689
       32765000	      3275	80002850	01722db3	slt	x27,x4,x23	  x4:0x00000001 x23:0xf091aa4a x27=0x00000000
       32775000	      3276	80002854	69354593	xori	x11,x10,1683	 x10:0x00000000 x11=0x00000693
       32785000	      3277	80002858	07410223	sb	x20,100(x2)	  x2:0x800085ef x20:0x00000000 PA:0x80008653
       32795000	      3278	8000285c	09ea6797	auipc	x15,0x9ea6	 x15=0x89ea8858
       32805000	      3279	80002860	010557b3	srl	x15,x10,x16	 x10:0x00000000 x16:0x80008cb2 x15=0x00000000
       32815000	      3280	80002864	00d78f33	add	x30,x15,x13	 x15:0x00000000 x13:0xfffffd34 x30=0xfffffd34
       32825000	      3281	80002868	414f5493	srai	x9,x30,0x14	 x30:0xfffffd34  x9=0xffffffff
       32835000	      3282	8000286c	05e14303	lbu	x6,94(x2)	  x2:0x800085ef  x6=0x00000000 PA:0x8000864d
       32845000	      3283	80002870	00000013	addi	x0,x0,0	  x0:0x00000000
       32855000	      3284	80002874	40026613	ori	x12,x4,1024	  x4:0x00000001 x12=0x00000401
       32865000	      3285	80002878	40855213	srai	x4,x10,0x8	 x10:0x00000000  x4=0x00000000
       32875000	      3286	8000287c	41805d13	srai	x26,x0,0x18	  x0:0x00000000 x26=0x00000000
       32885000	      3287	80002880	015854b3	srl	x9,x16,x21	 x16:0x80008cb2 x21:0x80009fc4  x9=0x080008cb
       32895000	      3288	80002884	04b15583	lhu	x11,75(x2)	  x2:0x800085ef x11=0x00000000 PA:0x8000863a
       32905000	      3289	80002888	40a4deb3	sra	x29,x9,x10	  x9:0x080008cb x10:0x00000000 x29=0x080008cb
       32915000	      3290	8000288c	018ed833	srl	x16,x29,x24	 x29:0x080008cb x24:0x00000000 x16=0x080008cb
       32925000	      3291	80002890	f0014a03	lbu	x20,-256(x2)	  x2:0x800085ef x20=0x00000000 PA:0x800084ef
       32935000	      3292	80002894	03010c03	lb	x24,48(x2)	  x2:0x800085ef x24=0x00000000 PA:0x8000861f
       32945000	      3293	00000000	00000013	addi	x0,x0,0	  x0:0x00000000
       32955000	      3294	80002898	d387e493	ori	x9,x15,-712	 x15:0x00000000  x9=0xfffffd38
       32965000	      3295	8000289c	77763c13	sltiu	x24,x12,1911	 x12:0x00000401 x24=0x00000001
       32975000	      3296	800028a0	98f63793	sltiu	x15,x12,-1649	 x12:0x00000401 x15=0x00000001
       32985000	      3297	800028a4	016fd913	srli	x18,x31,0x16	 x31:0x00000000 x18=0x00000000
       32995000	      3298	800028a8	2b48f413	andi	x8,x17,692	 x17:0x00000000  x8=0x00000000
       33005000	      3299	800028ac	001685b3	add	x11,x13,x1	 x13:0xfffffd34  x1:0x00200027 x11=0x001ffd5b
       33015000	      3300	800028b0	00592cb3	slt	x25,x18,x5	 x18:0x00000000  x5:0x00000000 x25=0x00000000
       33025000	      3301	800028b4	0e814383	lbu	x7,232(x2)	  x2:0x800085ef  x7=0x00000000 PA:0x800086d7
       33035000	      3302	800028b8	fa310ba3	sb	x3,-73(x2)	  x2:0x800085ef  x3:0xf8e6e830 PA:0x800085a6
       33045000	      3303	800028bc	0b714e83	lbu	x29,183(x2)	  x2:0x800085ef x29=0x00000000 PA:0x800086a6
       33055000	      3304	800028c0	f5710a23	sb	x23,-172(x2)	  x2:0x800085ef x23:0xf091aa4a PA:0x80008543
       33065000	      3305	800028c4	40e554b3	sra	x9,x10,x14	 x10:0x00000000 x14:0x00009fc4  x9=0x00000000
       33075000	      3306	800028c8	fed10f03	lb	x30,-19(x2)	  x2:0x800085ef x30=0x00000000 PA:0x800085dc
       33085000	      3307	800028cc	00a2dc93	srli	x25,x5,0xa	  x5:0x00000000 x25=0x00000000
       33095000	      3308	800028d0	01841093	slli	x1,x8,0x18	  x8:0x00000000  x1=0x00000000
       33105000	      3309	800028d4	03e10123	sb	x30,34(x2)	  x2:0x800085ef x30:0x00000000 PA:0x80008611
       33115000	      3310	800028d8	002207b3	add	x15,x4,x2	  x4:0x00000000  x2:0x800085ef x15=0x800085ef
       33125000	      3311	800028dc	0dd126a3	sw	x29,205(x2)	  x2:0x800085ef x29:0x00000000 PA:0x800086bc
       33135000	      3312	800028e0	f1410fa3	sb	x20,-225(x2)	  x2:0x800085ef x20:0x00000000 PA:0x8000850e
       33145000	      3313	800028e4	00847cb3	and	x25,x8,x8	  x8:0x00000000  x8:0x00000000 x25=0x00000000
       33155000	      3314	800028e8	02f10f23	sb	x15,62(x2)	  x2:0x800085ef x15:0x800085ef PA:0x8000862d
       33165000	      3315	800028ec	07e14f03	lbu	x30,126(x2)	  x2:0x800085ef x30=0x00000000 PA:0x8000866d
       33175000	      3316	800028f0	fe010003	lb	x0,-32(x2)	  x2:0x800085ef PA:0x800085cf
       33185000	      3317	800028f4	00006117	auipc	x2,0x6	  x2=0x800088f0
       33195000	      3318	800028f8	14e10113	addi	x2,x2,334	  x2:0x800088f0  x2=0x80008a3e
       33205000	      3319	800028fc	00000013	addi	x0,x0,0	  x0:0x00000000
       33215000	      3320	80002900	009e00b3	add	x1,x28,x9	 x28:0x80009f34  x9:0x00000000  x1=0x80009f34
       33225000	      3321	80002904	41cc01b3	sub	x3,x24,x28	 x24:0x00000001 x28:0x80009f34  x3=0x7fff60cd
       33235000	      3322	80002908	dcd70d13	addi	x26,x14,-563	 x14:0x00009fc4 x26=0x00009d91
       33245000	      3323	8000290c	1fbce413	ori	x8,x25,507	 x25:0x00000000  x8=0x000001fb
       33255000	      3324	80002910	c98ced13	ori	x26,x25,-872	 x25:0x00000000 x26=0xfffffc98
       33265000	      3325	80002914	03714803	lbu	x16,55(x2)	  x2:0x80008a3e x16=0x00000000 PA:0x80008a75
       33275000	      3326	80002918	4073ddb3	sra	x27,x7,x7	  x7:0x00000000  x7:0x00000000 x27=0x00000000
       33285000	      3327	8000291c	02410aa3	sb	x4,53(x2)	  x2:0x80008a3e  x4:0x00000000 PA:0x80008a73
       33295000	      3328	80002920	0197d013	srli	x0,x15,0x19	 x15:0x800085ef
       33305000	      3329	80002924	f74105a3	sb	x20,-149(x2)	  x2:0x80008a3e x20:0x00000000 PA:0x800089a9
       33315000	      3330	80002928	401680b3	sub	x1,x13,x1	 x13:0xfffffd34  x1:0x80009f34  x1=0x7fff5e00
       33325000	      3331	8000292c	d6dbdc37	lui	x24,0xd6dbd	 x24=0xd6dbd000
       33335000	      3332	80002930	011d9193	slli	x3,x27,0x11	 x27:0x00000000  x3=0x00000000
       33345000	      3333	80002934	02611d23	sh	x6,58(x2)	  x2:0x80008a3e  x6:0x00000000 PA:0x80008a78
       33355000	      3334	80002938	00b3c2b3	xor	x5,x7,x11	  x7:0x00000000 x11:0x001ffd5b  x5=0x001ffd5b
       33365000	      3335	8000293c	f7714b03	lbu	x22,-137(x2)	  x2:0x80008a3e x22=0x00000000 PA:0x800089b5
       33375000	      3336	80002940	f7ce7f93	andi	x31,x28,-132	 x28:0x80009f34 x31=0x80009f34
       33385000	      3337	80002944	01eac433	xor	x8,x21,x30	 x21:0x80009fc4 x30:0x00000000  x8=0x80009fc4
       33395000	      3338	80002948	f6c10383	lb	x7,-148(x2)	  x2:0x80008a3e  x7=0x00000000 PA:0x800089aa
       33405000	      3339	8000294c	017e6733	or	x14,x28,x23	 x28:0x80009f34 x23:0xf091aa4a x14=0xf091bf7e
       33415000	      3340	80002950	00314583	lbu	x11,3(x2)	  x2:0x80008a3e x11=0x00000000 PA:0x80008a41
       33425000	      3341	80002954	f7b14983	lbu	x19,-133(x2)	  x2:0x80008a3e x19=0x000000fe PA:0x800089b9
       33435000	      3342	80002958	40db0733	sub	x14,x22,x13	 x22:0x00000000 x13:0xfffffd34 x14=0x000002cc
       33445000	      3343	8000295c	f5b14503	lbu	x10,-165(x2)	  x2:0x80008a3e x10=0x00000000 PA:0x80008999
       33455000	      3344	80002960	018e1993	slli	x19,x28,0x18	 x28:0x80009f34 x19=0x34000000
       33465000	      3345	80002964	0b910323	sb	x25,166(x2)	  x2:0x80008a3e x25:0x00000000 PA:0x80008ae4
       33475000	      3346	80002968	f07103a3	sb	x7,-249(x2)	  x2:0x80008a3e  x7:0x00000000 PA:0x80008945
       33485000	      3347	8000296c	0c3101a3	sb	x3,195(x2)	  x2:0x80008a3e  x3:0x00000000 PA:0x80008b01
       33495000	      3348	80002970	1c272e93	slti	x29,x14,450	 x14:0x000002cc x29=0x00000000
       33505000	      3349	80002974	fcd9b037	lui	x0,0xfcd9b	
       33515000	      3350	80002978	01b977b3	and	x15,x18,x27	 x18:0x00000000 x27:0x00000000 x15=0x00000000
       33525000	      3351	8000297c	0005e8b3	or	x17,x11,x0	 x11:0x00000000  x0:0x00000000 x17=0x00000000
       33535000	      3352	80002980	546bcf13	xori	x30,x23,1350	 x23:0xf091aa4a x30=0xf091af0c
       33545000	      3353	80002984	8c30bd13	sltiu	x26,x1,-1853	  x1:0x7fff5e00 x26=0x00000001
       33555000	      3354	80002988	ee613593	sltiu	x11,x2,-282	  x2:0x80008a3e x11=0x00000001
       33565000	      3355	8000298c	01914403	lbu	x8,25(x2)	  x2:0x80008a3e  x8=0x00000000 PA:0x80008a57
       33575000	      3356	80002990	403fdcb3	sra	x25,x31,x3	 x31:0x80009f34  x3:0x00000000 x25=0x80009f34
       33585000	      3357	80002994	1d03fc17	auipc	x24,0x1d03f	 x24=0x9d041990
       33595000	      3358	80002998	5bd33097	auipc	x1,0x5bd33	  x1=0xdbd35994
       33605000	      3359	8000299c	08510aa3	sb	x5,149(x2)	  x2:0x80008a3e  x5:0x001ffd5b PA:0x80008ad3
       33615000	      3360	800029a0	00005217	auipc	x4,0x5	  x4=0x8000799c
       33625000	      3361	800029a4	7f620213	addi	x4,x4,2038	  x4:0x8000799c  x4=0x80008192
       33635000	      3362	800029a8	01c21523	sh	x28,10(x4)	  x4:0x80008192 x28:0x80009f34 PA:0x8000819c
       33645000	      3363	800029ac	33d20183	lb	x3,829(x4)	  x4:0x80008192  x3=0x00000000 PA:0x800084cf
       33655000	      3364	800029b0	26124303	lbu	x6,609(x4)	  x4:0x80008192  x6=0x00000000 PA:0x800083f3
       33665000	      3365	800029b4	24024583	lbu	x11,576(x4)	  x4:0x80008192 x11=0x00000000 PA:0x800083d2
       33675000	      3366	800029b8	11722923	sw	x23,274(x4)	  x4:0x80008192 x23:0xf091aa4a PA:0x800082a4
       33685000	      3367	800029bc	10724c83	lbu	x25,263(x4)	  x4:0x80008192 x25=0x00000000 PA:0x80008299
       33695000	      3368	800029c0	01654333	xor	x6,x10,x22	 x10:0x00000000 x22:0x00000000  x6=0x00000000
       33705000	      3369	800029c4	3d425383	lhu	x7,980(x4)	  x4:0x80008192  x7=0x00000000 PA:0x80008566
       33715000	      3370	800029c8	6b9288b7	lui	x17,0x6b928	 x17=0x6b928000
       33725000	      3371	800029cc	005b54b3	srl	x9,x22,x5	 x22:0x00000000  x5:0x001ffd5b  x9=0x00000000
       33735000	      3372	800029d0	5ee207a3	sb	x14,1519(x4)	  x4:0x80008192 x14:0x000002cc PA:0x80008781
       33745000	      3373	800029d4	00fe9733	sll	x14,x29,x15	 x29:0x00000000 x15:0x00000000 x14=0x00000000
       33755000	      3374	800029d8	01fa21b3	slt	x3,x20,x31	 x20:0x00000000 x31:0x80009f34  x3=0x00000000
       33765000	      3375	800029dc	00000013	addi	x0,x0,0	  x0:0x00000000
       33775000	      3376	800029e0	feda1e97	auipc	x29,0xfeda1	 x29=0x7eda39dc
       33785000	      3377	800029e4	fbdb4793	xori	x15,x22,-67	 x22:0x00000000 x15=0xffffffbd
       33795000	      3378	800029e8	aaf4f397	auipc	x7,0xaaf4f	  x7=0x2af519e4
       33805000	      3379	800029ec	01419493	slli	x9,x3,0x14	  x3:0x00000000  x9=0x00000000
       33815000	      3380	800029f0	001370b3	and	x1,x6,x1	  x6:0x00000000  x1:0xdbd35994  x1=0x00000000
       33825000	      3381	800029f4	01240433	add	x8,x8,x18	  x8:0x00000000 x18:0x00000000  x8=0x00000000
       33835000	      3382	800029f8	2ee21b23	sh	x14,758(x4)	  x4:0x80008192 x14:0x00000000 PA:0x80008488
       33845000	      3383	800029fc	41625993	srai	x19,x4,0x16	  x4:0x80008192 x19=0xfffffe00
       33855000	      3384	80002a00	2eb84513	xori	x10,x16,747	 x16:0x00000000 x10=0x000002eb
       33865000	      3385	80002a04	5c120b03	lb	x22,1473(x4)	  x4:0x80008192 x22=0x00000000 PA:0x80008753
       33875000	      3386	80002a08	61d24c83	lbu	x25,1565(x4)	  x4:0x80008192 x25=0x00000000 PA:0x800087af
       33885000	      3387	80002a0c	75eab513	sltiu	x10,x21,1886	 x21:0x80009fc4 x10=0x00000000
       33895000	      3388	80002a10	00c95eb3	srl	x29,x18,x12	 x18:0x00000000 x12:0x00000401 x29=0x00000000
       33905000	      3389	80002a14	00693b33	sltu	x22,x18,x6	 x18:0x00000000  x6:0x00000000 x22=0x00000000
       33915000	      3390	80002a18	cfb92093	slti	x1,x18,-773	 x18:0x00000000  x1=0x00000000
       33925000	      3391	80002a1c	159c7213	andi	x4,x24,345	 x24:0x9d041990  x4=0x00000110
       33935000	      3392	80002a20	00000013	addi	x0,x0,0	  x0:0x00000000
       33945000	      3393	80002a24	02f01463	bne	x0,x15,80002a4c	  x0:0x00000000 x15:0xffffffbd
       33955000	      3394	00000000	00000013	addi	x0,x0,0	  x0:0x00000000
       33965000	      3395	80002a48	00000013	addi	x0,x0,0	  x0:0x00000000
       33975000	      3396	80002a4c	00ae5693	srli	x13,x28,0xa	 x28:0x80009f34 x13=0x00200027
       33985000	      3397	80002a50	02388463	beq	x17,x3,80002a78	 x17:0x6b928000  x3:0x00000000
       33995000	      3398	80002a54	4064db13	srai	x22,x9,0x6	  x9:0x00000000 x22=0x00000000
       34005000	      3399	80002a58	6cabf793	andi	x15,x23,1738	 x23:0xf091aa4a x15=0x0000024a
       34015000	      3400	80002a5c	01ec0233	add	x4,x24,x30	 x24:0x9d041990 x30:0xf091af0c  x4=0x8d95c89c
       34025000	      3401	80002a60	91407c13	andi	x24,x0,-1772	  x0:0x00000000 x24=0x00000000
       34035000	      3402	80002a64	40165593	srai	x11,x12,0x1	 x12:0x00000401 x11=0x00000200
       34045000	      3403	80002a68	69214617	auipc	x12,0x69214	 x12=0xe9216a64
       34055000	      3404	80002a6c	c8a47e93	andi	x29,x8,-886	  x8:0x00000000 x29=0x00000000
       34065000	      3405	80002a70	0495c063	blt	x11,x9,80002ab0	 x11:0x00000200  x9:0x00000000
       34075000	      3406	80002a74	40bb5633	sra	x12,x22,x11	 x22:0x00000000 x11:0x00000200 x12=0x00000000
       34085000	      3407	80002a78	00419633	sll	x12,x3,x4	  x3:0x00000000  x4:0x8d95c89c x12=0x00000000
       34095000	      3408	80002a7c	5fac6813	ori	x16,x24,1530	 x24:0x00000000 x16=0x000005fa
       34105000	      3409	80002a80	03924263	blt	x4,x25,80002aa4	  x4:0x8d95c89c x25:0x00000000
       34115000	      3410	00000000	00000013	addi	x0,x0,0	  x0:0x00000000
       34125000	      3411	80002aa0	00000013	addi	x0,x0,0	  x0:0x00000000
       34135000	      3412	80002aa4	006c7463	bgeu	x24,x6,80002aac	 x24:0x00000000  x6:0x00000000
       34145000	      3413	00000000	00000013	addi	x0,x0,0	  x0:0x00000000
       34155000	      3414	80002aa8	00000013	addi	x0,x0,0	  x0:0x00000000
       34165000	      3415	80002aac	0039f3b3	and	x7,x19,x3	 x19:0xfffffe00  x3:0x00000000  x7=0x00000000
       34175000	      3416	80002ab0	01209263	bne	x1,x18,80002ab4	  x1:0x00000000 x18:0x00000000
       34185000	      3417	80002ab4	004c18b3	sll	x17,x24,x4	 x24:0x00000000  x4:0x8d95c89c x17=0x00000000
       34195000	      3418	80002ab8	04577863	bgeu	x14,x5,80002b08	 x14:0x00000000  x5:0x001ffd5b
       34205000	      3419	80002abc	ac333313	sltiu	x6,x6,-1341	  x6:0x00000000  x6=0x00000001
       34215000	      3420	80002ac0	006f7863	bgeu	x30,x6,80002ad0	 x30:0xf091af0c  x6:0x00000001
       34225000	      3421	00000000	00000013	addi	x0,x0,0	  x0:0x00000000
       34235000	      3422	80002acc	00000013	addi	x0,x0,0	  x0:0x00000000
       34245000	      3423	80002ad0	be4d3493	sltiu	x9,x26,-1052	 x26:0x00000001  x9=0x00000001
       34255000	      3424	80002ad4	019c0033	add	x0,x24,x25	 x24:0x00000000 x25:0x00000000
       34265000	      3425	80002ad8	004eaa33	slt	x20,x29,x4	 x29:0x00000000  x4:0x8d95c89c x20=0x00000000
       34275000	      3426	80002adc	02116e63	bltu	x2,x1,80002b18	  x2:0x80008a3e  x1:0x00000000
       34285000	      3427	80002ae0	01fd9633	sll	x12,x27,x31	 x27:0x00000000 x31:0x80009f34 x12=0x00000000
       34295000	      3428	80002ae4	05bf7c93	andi	x25,x30,91	 x30:0xf091af0c x25=0x00000008
       34305000	      3429	80002ae8	eeca4f13	xori	x30,x20,-276	 x20:0x00000000 x30=0xfffffeec
       34315000	      3430	80002aec	043fd863	bge	x31,x3,80002b3c	 x31:0x80009f34  x3:0x00000000
       34325000	      3431	80002af0	00a01033	sll	x0,x0,x10	  x0:0x00000000 x10:0x00000000
       34335000	      3432	80002af4	9e8a8997	auipc	x19,0x9e8a8	 x19=0x1e8aaaf0
       34345000	      3433	80002af8	59dae113	ori	x2,x21,1437	 x21:0x80009fc4  x2=0x80009fdd
       34355000	      3434	80002afc	00bef463	bgeu	x29,x11,80002b04	 x29:0x00000000 x11:0x00000200
       34365000	      3435	80002b00	0161ac33	slt	x24,x3,x22	  x3:0x00000000 x22:0x00000000 x24=0x00000000
       34375000	      3436	80002b04	00220533	add	x10,x4,x2	  x4:0x8d95c89c  x2:0x80009fdd x10=0x0d966879
       34385000	      3437	80002b08	000cf9b3	and	x19,x25,x0	 x25:0x00000008  x0:0x00000000 x19=0x00000000
       34395000	      3438	80002b0c	39a9a793	slti	x15,x19,922	 x19:0x00000000 x15=0x00000001
       34405000	      3439	80002b10	56d88693	addi	x13,x17,1389	 x17:0x00000000 x13=0x0000056d
       34415000	      3440	80002b14	04916463	bltu	x2,x9,80002b5c	  x2:0x80009fdd  x9:0x00000001
       34425000	      3441	80002b18	00ef50b3	srl	x1,x30,x14	 x30:0xfffffeec x14:0x00000000  x1=0xfffffeec
       34435000	      3442	80002b1c	02aef663	bgeu	x29,x10,80002b48	 x29:0x00000000 x10:0x0d966879
       34445000	      3443	80002b20	01739fb3	sll	x31,x7,x23	  x7:0x00000000 x23:0xf091aa4a x31=0x00000000
       34455000	      3444	80002b24	33ca6b13	ori	x22,x20,828	 x20:0x00000000 x22=0x0000033c
       34465000	      3445	80002b28	402a5913	srai	x18,x20,0x2	 x20:0x00000000 x18=0x00000000
       34475000	      3446	80002b2c	5c457d97	auipc	x27,0x5c457	 x27=0xdc459b28
       34485000	      3447	80002b30	003f2833	slt	x16,x30,x3	 x30:0xfffffeec  x3:0x00000000 x16=0x00000001
       34495000	      3448	80002b34	41040133	sub	x2,x8,x16	  x8:0x00000000 x16:0x00000001  x2=0xffffffff
       34505000	      3449	80002b38	019a0b37	lui	x22,0x19a0	 x22=0x019a0000
       34515000	      3450	80002b3c	01e8d193	srli	x3,x17,0x1e	 x17:0x00000000  x3=0x00000000
       34525000	      3451	80002b40	02c3f063	bgeu	x7,x12,80002b60	  x7:0x00000000 x12:0x00000000
       34535000	      3452	00000000	00000013	addi	x0,x0,0	  x0:0x00000000
       34545000	      3453	80002b5c	00000013	addi	x0,x0,0	  x0:0x00000000
       34555000	      3454	80002b60	014a3533	sltu	x10,x20,x20	 x20:0x00000000 x20:0x00000000 x10=0x00000000
       34565000	      3455	80002b64	04ea8263	beq	x21,x14,80002ba8	 x21:0x80009fc4 x14:0x00000000
       34575000	      3456	80002b68	038d6d93	ori	x27,x26,56	 x26:0x00000001 x27=0x00000039
       34585000	      3457	80002b6c	4057d8b3	sra	x17,x15,x5	 x15:0x00000001  x5:0x001ffd5b x17=0x00000000
       34595000	      3458	80002b70	41e0d733	sra	x14,x1,x30	  x1:0xfffffeec x30:0xfffffeec x14=0xffffffff
       34605000	      3459	80002b74	0507e863	bltu	x15,x16,80002bc4	 x15:0x00000001 x16:0x00000001
       34615000	      3460	80002b78	01f7d133	srl	x2,x15,x31	 x15:0x00000001 x31:0x00000000  x2=0x00000001
       34625000	      3461	80002b7c	01d0d893	srli	x17,x1,0x1d	  x1:0xfffffeec x17=0x00000007
       34635000	      3462	80002b80	40b30db3	sub	x27,x6,x11	  x6:0x00000001 x11:0x00000200 x27=0xfffffe01
       34645000	      3463	80002b84	00284733	xor	x14,x16,x2	 x16:0x00000001  x2:0x00000001 x14=0x00000000
       34655000	      3464	80002b88	00000013	addi	x0,x0,0	  x0:0x00000000
       34665000	      3465	80002b8c	00704033	xor	x0,x0,x7	  x0:0x00000000  x7:0x00000000
       34675000	      3466	80002b90	02c2fc63	bgeu	x5,x12,80002bc8	  x5:0x001ffd5b x12:0x00000000
       34685000	      3467	00000000	00000013	addi	x0,x0,0	  x0:0x00000000
       34695000	      3468	80002bc4	00000013	addi	x0,x0,0	  x0:0x00000000
       34705000	      3469	80002bc8	0387f063	bgeu	x15,x24,80002be8	 x15:0x00000001 x24:0x00000000
       34715000	      3470	00000000	00000013	addi	x0,x0,0	  x0:0x00000000
       34725000	      3471	80002be4	00000013	addi	x0,x0,0	  x0:0x00000000
       34735000	      3472	80002be8	7d5be313	ori	x6,x23,2005	 x23:0xf091aa4a  x6=0xf091afdf
       34745000	      3473	80002bec	844eb613	sltiu	x12,x29,-1980	 x29:0x00000000 x12=0x00000001
       34755000	      3474	80002bf0	00dd9633	sll	x12,x27,x13	 x27:0xfffffe01 x13:0x0000056d x12=0xffc02000
       34765000	      3475	80002bf4	00000013	addi	x0,x0,0	  x0:0x00000000
       34775000	      3476	80002bf8	e6374493	xori	x9,x14,-413	 x14:0x00000000  x9=0xfffffe63
       34785000	      3477	80002bfc	05344463	blt	x8,x19,80002c44	  x8:0x00000000 x19:0x00000000
       34795000	      3478	80002c00	03ed1a63	bne	x26,x30,80002c34	 x26:0x00000001 x30:0xfffffeec
       34805000	      3479	00000000	00000013	addi	x0,x0,0	  x0:0x00000000
       34815000	      3480	80002c30	00000013	addi	x0,x0,0	  x0:0x00000000
       34825000	      3481	80002c34	038ae463	bltu	x21,x24,80002c5c	 x21:0x80009fc4 x24:0x00000000
       34835000	      3482	80002c38	40e1d7b3	sra	x15,x3,x14	  x3:0x00000000 x14:0x00000000 x15=0x00000000
       34845000	      3483	80002c3c	01fb7b33	and	x22,x22,x31	 x22:0x019a0000 x31:0x00000000 x22=0x00000000
       34855000	      3484	80002c40	05807463	bgeu	x0,x24,80002c88	  x0:0x00000000 x24:0x00000000
       34865000	      3485	00000000	00000013	addi	x0,x0,0	  x0:0x00000000
       34875000	      3486	80002c84	00000013	addi	x0,x0,0	  x0:0x00000000
       34885000	      3487	80002c88	05f04463	blt	x0,x31,80002cd0	  x0:0x00000000 x31:0x00000000
       34895000	      3488	80002c8c	f5784313	xori	x6,x16,-169	 x16:0x00000001  x6=0xffffff56
       34905000	      3489	80002c90	001ec633	xor	x12,x29,x1	 x29:0x00000000  x1:0xfffffeec x12=0xfffffeec
       34915000	      3490	80002c94	03f81063	bne	x16,x31,80002cb4	 x16:0x00000001 x31:0x00000000
       34925000	      3491	00000000	00000013	addi	x0,x0,0	  x0:0x00000000
       34935000	      3492	80002cb0	00000013	addi	x0,x0,0	  x0:0x00000000
       34945000	      3493	80002cb4	03cc4a63	blt	x24,x28,80002ce8	 x24:0x00000000 x28:0x80009f34
       34955000	      3494	80002cb8	01c74c33	xor	x24,x14,x28	 x14:0x00000000 x28:0x80009f34 x24=0x80009f34
       34965000	      3495	80002cbc	02a50663	beq	x10,x10,80002ce8	 x10:0x00000000 x10:0x00000000
       34975000	      3496	00000000	00000013	addi	x0,x0,0	  x0:0x00000000
       34985000	      3497	80002ce4	00000013	addi	x0,x0,0	  x0:0x00000000
       34995000	      3498	80002ce8	00cf47b3	xor	x15,x30,x12	 x30:0xfffffeec x12:0xfffffeec x15=0x00000000
       35005000	      3499	80002cec	0132db13	srli	x22,x5,0x13	  x5:0x001ffd5b x22=0x00000003
       35015000	      3500	80002cf0	0ddd0e93	addi	x29,x26,221	 x26:0x00000001 x29=0x000000de
       35025000	      3501	80002cf4	2e85a697	auipc	x13,0x2e85a	 x13=0xae85ccf0
       35035000	      3502	80002cf8	408c0b33	sub	x22,x24,x8	 x24:0x80009f34  x8:0x00000000 x22=0x80009f34
       35045000	      3503	80002cfc	00000013	addi	x0,x0,0	  x0:0x00000000
       35055000	      3504	80002d00	01cf9913	slli	x18,x31,0x1c	 x31:0x00000000 x18=0x00000000
       35065000	      3505	80002d04	01d89e93	slli	x29,x17,0x1d	 x17:0x00000007 x29=0xe0000000
       35075000	      3506	80002d08	04156863	bltu	x10,x1,80002d58	 x10:0x00000000  x1:0xfffffeec
       35085000	      3507	00000000	00000013	addi	x0,x0,0	  x0:0x00000000
       35095000	      3508	80002d54	00000013	addi	x0,x0,0	  x0:0x00000000
       35105000	      3509	80002d58	00000013	addi	x0,x0,0	  x0:0x00000000
       35115000	      3510	80002d5c	00362733	slt	x14,x12,x3	 x12:0xfffffeec  x3:0x00000000 x14=0x00000001
       35125000	      3511	80002d60	0150af33	slt	x30,x1,x21	  x1:0xfffffeec x21:0x80009fc4 x30=0x00000000
       35135000	      3512	80002d64	8c46f5b7	lui	x11,0x8c46f	 x11=0x8c46f000
       35145000	      3513	80002d68	1d7d7613	andi	x12,x26,471	 x26:0x00000001 x12=0x00000001
       35155000	      3514	80002d6c	45776c13	ori	x24,x14,1111	 x14:0x00000001 x24=0x00000457
       35165000	      3515	80002d70	41abd0b3	sra	x1,x23,x26	 x23:0xf091aa4a x26:0x00000001  x1=0xf848d525
       35175000	      3516	80002d74	00000013	addi	x0,x0,0	  x0:0x00000000
       35185000	      3517	80002d78	036d0e63	beq	x26,x22,80002db4	 x26:0x00000001 x22:0x80009f34
       35195000	      3518	80002d7c	bc086693	ori	x13,x16,-1088	 x16:0x00000001 x13=0xfffffbc1
       35205000	      3519	80002d80	00301c33	sll	x24,x0,x3	  x0:0x00000000  x3:0x00000000 x24=0x00000000
       35215000	      3520	80002d84	01cb5a13	srli	x20,x22,0x1c	 x22:0x80009f34 x20=0x00000008
       35225000	      3521	80002d88	004359b3	srl	x19,x6,x4	  x6:0xffffff56  x4:0x8d95c89c x19=0x0000000f
       35235000	      3522	80002d8c	01e429b3	slt	x19,x8,x30	  x8:0x00000000 x30:0x00000000 x19=0x00000000
       35245000	      3523	80002d90	9fcd8313	addi	x6,x27,-1540	 x27:0xfffffe01  x6=0xfffff7fd
       35255000	      3524	80002d94	0072a633	slt	x12,x5,x7	  x5:0x001ffd5b  x7:0x00000000 x12=0x00000000
       35265000	      3525	80002d98	0118d0b3	srl	x1,x17,x17	 x17:0x00000007 x17:0x00000007  x1=0x00000000
       35275000	      3526	80002d9c	03d28c63	beq	x5,x29,80002dd4	  x5:0x001ffd5b x29:0xe0000000
       35285000	      3527	80002da0	40f804b3	sub	x9,x16,x15	 x16:0x00000001 x15:0x00000000  x9=0x00000001
       35295000	      3528	80002da4	004533b3	sltu	x7,x10,x4	 x10:0x00000000  x4:0x8d95c89c  x7=0x00000001
       35305000	      3529	80002da8	01171213	slli	x4,x14,0x11	 x14:0x00000001  x4=0x00020000
       35315000	      3530	80002dac	411d5593	srai	x11,x26,0x11	 x26:0x00000001 x11=0x00000000
       35325000	      3531	80002db0	00705293	srli	x5,x0,0x7	  x0:0x00000000  x5=0x00000000
       35335000	      3532	80002db4	00000013	addi	x0,x0,0	  x0:0x00000000
       35345000	      3533	80002db8	002779b3	and	x19,x14,x2	 x14:0x00000001  x2:0x00000001 x19=0x00000001
       35355000	      3534	80002dbc	89716693	ori	x13,x2,-1897	  x2:0x00000001 x13=0xfffff897
       35365000	      3535	80002dc0	013249b3	xor	x19,x4,x19	  x4:0x00020000 x19:0x00000001 x19=0x00020001
       35375000	      3536	80002dc4	018bb1b3	sltu	x3,x23,x24	 x23:0xf091aa4a x24:0x00000000  x3=0x00000000
       35385000	      3537	80002dc8	045a1663	bne	x20,x5,80002e14	 x20:0x00000008  x5:0x00000000
       35395000	      3538	00000000	00000013	addi	x0,x0,0	  x0:0x00000000
       35405000	      3539	80002e10	00000013	addi	x0,x0,0	  x0:0x00000000
       35415000	      3540	80002e14	007f8133	add	x2,x31,x7	 x31:0x00000000  x7:0x00000001  x2=0x00000001
       35425000	      3541	80002e18	01889463	bne	x17,x24,80002e20	 x17:0x00000007 x24:0x00000000
       35435000	      3542	00000000	00000013	addi	x0,x0,0	  x0:0x00000000
       35445000	      3543	80002e1c	00000013	addi	x0,x0,0	  x0:0x00000000
       35455000	      3544	80002e20	00429f13	slli	x30,x5,0x4	  x5:0x00000000 x30=0x00000000
       35465000	      3545	80002e24	ff5a28b7	lui	x17,0xff5a2	 x17=0xff5a2000
       35475000	      3546	80002e28	4c68b793	sltiu	x15,x17,1222	 x17:0xff5a2000 x15=0x00000000
       35485000	      3547	80002e2c	00ccd513	srli	x10,x25,0xc	 x25:0x00000008 x10=0x00000000
       35495000	      3548	80002e30	00101493	slli	x9,x0,0x1	  x0:0x00000000  x9=0x00000000
       35505000	      3549	80002e34	0304c463	blt	x9,x16,80002e5c	  x9:0x00000000 x16:0x00000001
       35515000	      3550	00000000	00000013	addi	x0,x0,0	  x0:0x00000000
       35525000	      3551	80002e58	00000013	addi	x0,x0,0	  x0:0x00000000
       35535000	      3552	80002e5c	0148f9b3	and	x19,x17,x20	 x17:0xff5a2000 x20:0x00000008 x19=0x00000000
       35545000	      3553	80002e60	01041a13	slli	x20,x8,0x10	  x8:0x00000000 x20=0x00000000
       35555000	      3554	80002e64	05c17863	bgeu	x2,x28,80002eb4	  x2:0x00000001 x28:0x80009f34
       35565000	      3555	80002e68	b73fb493	sltiu	x9,x31,-1165	 x31:0x00000000  x9=0x00000001
       35575000	      3556	80002e6c	e5ce9737	lui	x14,0xe5ce9	 x14=0xe5ce9000
       35585000	      3557	80002e70	013f1463	bne	x30,x19,80002e78	 x30:0x00000000 x19:0x00000000
       35595000	      3558	80002e74	039e4a63	blt	x28,x25,80002ea8	 x28:0x80009f34 x25:0x00000008
       35605000	      3559	00000000	00000013	addi	x0,x0,0	  x0:0x00000000
       35615000	      3560	80002ea4	00000013	addi	x0,x0,0	  x0:0x00000000
       35625000	      3561	80002ea8	039e8a63	beq	x29,x25,80002edc	 x29:0xe0000000 x25:0x00000008
       35635000	      3562	80002eac	01559e93	slli	x29,x11,0x15	 x11:0x00000000 x29=0x00000000
       35645000	      3563	80002eb0	00748733	add	x14,x9,x7	  x9:0x00000001  x7:0x00000001 x14=0x00000002
       35655000	      3564	80002eb4	016f2033	slt	x0,x30,x22	 x30:0x00000000 x22:0x80009f34
       35665000	      3565	80002eb8	01079d13	slli	x26,x15,0x10	 x15:0x00000000 x26=0x00000000
       35675000	      3566	80002ebc	04586863	bltu	x16,x5,80002f0c	 x16:0x00000001  x5:0x00000000
       35685000	      3567	80002ec0	9223bd13	sltiu	x26,x7,-1758	  x7:0x00000001 x26=0x00000001
       35695000	      3568	80002ec4	008af1b3	and	x3,x21,x8	 x21:0x80009fc4  x8:0x00000000  x3=0x00000000
       35705000	      3569	80002ec8	015a8b33	add	x22,x21,x21	 x21:0x80009fc4 x21:0x80009fc4 x22=0x00013f88
       35715000	      3570	80002ecc	0189e263	bltu	x19,x24,80002ed0	 x19:0x00000000 x24:0x00000000
       35725000	      3571	80002ed0	c71f0993	addi	x19,x30,-911	 x30:0x00000000 x19=0xfffffc71
       35735000	      3572	80002ed4	00000013	addi	x0,x0,0	  x0:0x00000000
       35745000	      3573	80002ed8	00119713	slli	x14,x3,0x1	  x3:0x00000000 x14=0x00000000
       35755000	      3574	80002edc	01067c63	bgeu	x12,x16,80002ef4	 x12:0x00000000 x16:0x00000001
       35765000	      3575	80002ee0	ca5dae93	slti	x29,x27,-859	 x27:0xfffffe01 x29=0x00000000
       35775000	      3576	80002ee4	00ddbdb3	sltu	x27,x27,x13	 x27:0xfffffe01 x13:0xfffff897 x27=0x00000000
       35785000	      3577	80002ee8	00c0e663	bltu	x1,x12,80002ef4	  x1:0x00000000 x12:0x00000000
       35795000	      3578	80002eec	030f5063	bge	x30,x16,80002f0c	 x30:0x00000000 x16:0x00000001
       35805000	      3579	80002ef0	00891a13	slli	x20,x18,0x8	 x18:0x00000000 x20=0x00000000
       35815000	      3580	80002ef4	01c7b0b3	sltu	x1,x15,x28	 x15:0x00000000 x28:0x80009f34  x1=0x00000001
       35825000	      3581	80002ef8	04d86263	bltu	x16,x13,80002f3c	 x16:0x00000001 x13:0xfffff897
       35835000	      3582	00000000	00000013	addi	x0,x0,0	  x0:0x00000000
       35845000	      3583	80002f38	00000013	addi	x0,x0,0	  x0:0x00000000
       35855000	      3584	80002f3c	60c14213	xori	x4,x2,1548	  x2:0x00000001  x4=0x0000060d
       35865000	      3585	80002f40	01cebb33	sltu	x22,x29,x28	 x29:0x00000000 x28:0x80009f34 x22=0x00000001
       35875000	      3586	80002f44	01a49793	slli	x15,x9,0x1a	  x9:0x00000001 x15=0x04000000
       35885000	      3587	80002f48	01aa36b3	sltu	x13,x20,x26	 x20:0x00000000 x26:0x00000001 x13=0x00000001
       35895000	      3588	80002f4c	02588663	beq	x17,x5,80002f78	 x17:0xff5a2000  x5:0x00000000
       35905000	      3589	80002f50	0282d063	bge	x5,x8,80002f70	  x5:0x00000000  x8:0x00000000
       35915000	      3590	00000000	00000013	addi	x0,x0,0	  x0:0x00000000
       35925000	      3591	80002f6c	00000013	addi	x0,x0,0	  x0:0x00000000
       35935000	      3592	80002f70	f74dd097	auipc	x1,0xf74dd	  x1=0x774dff6c
       35945000	      3593	80002f74	40905313	srai	x6,x0,0x9	  x0:0x00000000  x6=0x00000000
       35955000	      3594	80002f78	1993b337	lui	x6,0x1993b	  x6=0x1993b000
       35965000	      3595	80002f7c	41c18433	sub	x8,x3,x28	  x3:0x00000000 x28:0x80009f34  x8=0x7fff60cc
       35975000	      3596	80002f80	219efc13	andi	x24,x29,537	 x29:0x00000000 x24=0x00000000
       35985000	      3597	80002f84	ae4b4c93	xori	x25,x22,-1308	 x22:0x00000001 x25=0xfffffae5
       35995000	      3598	80002f88	1ef37437	lui	x8,0x1ef37	  x8=0x1ef37000
       36005000	      3599	80002f8c	402d8cb3	sub	x25,x27,x2	 x27:0x00000000  x2:0x00000001 x25=0xffffffff
       36015000	      3600	80002f90	02b46463	bltu	x8,x11,80002fb8	  x8:0x1ef37000 x11:0x00000000
       36025000	      3601	80002f94	9e37f437	lui	x8,0x9e37f	  x8=0x9e37f000
       36035000	      3602	80002f98	2fd57813	andi	x16,x10,765	 x10:0x00000000 x16=0x00000000
       36045000	      3603	80002f9c	b78d2337	lui	x6,0xb78d2	  x6=0xb78d2000
       36055000	      3604	80002fa0	01661913	slli	x18,x12,0x16	 x12:0x00000000 x18=0x00000000
       36065000	      3605	80002fa4	02dc0463	beq	x24,x13,80002fcc	 x24:0x00000000 x13:0x00000001
       36075000	      3606	80002fa8	41d6da33	sra	x20,x13,x29	 x13:0x00000001 x29:0x00000000 x20=0x00000001
       36085000	      3607	80002fac	cdf2fe93	andi	x29,x5,-801	  x5:0x00000000 x29=0x00000000
       36095000	      3608	80002fb0	1eadee93	ori	x29,x27,490	 x27:0x00000000 x29=0x000001ea
       36105000	      3609	80002fb4	02e27263	bgeu	x4,x14,80002fd8	  x4:0x0000060d x14:0x00000000
       36115000	      3610	00000000	00000013	addi	x0,x0,0	  x0:0x00000000
       36125000	      3611	80002fd4	00000013	addi	x0,x0,0	  x0:0x00000000
       36135000	      3612	80002fd8	008485b3	add	x11,x9,x8	  x9:0x00000001  x8:0x9e37f000 x11=0x9e37f001
       36145000	      3613	80002fdc	01cc4133	xor	x2,x24,x28	 x24:0x00000000 x28:0x80009f34  x2=0x80009f34
       36155000	      3614	80002fe0	40db8c33	sub	x24,x23,x13	 x23:0xf091aa4a x13:0x00000001 x24=0xf091aa49
       36165000	      3615	80002fe4	00db2b33	slt	x22,x22,x13	 x22:0x00000001 x13:0x00000001 x22=0x00000000
       36175000	      3616	80002fe8	05aee063	bltu	x29,x26,80003028	 x29:0x000001ea x26:0x00000001
       36185000	      3617	80002fec	01a25cb3	srl	x25,x4,x26	  x4:0x0000060d x26:0x00000001 x25=0x00000306
       36195000	      3618	80002ff0	00000013	addi	x0,x0,0	  x0:0x00000000
       36205000	      3619	80002ff4	00f55463	bge	x10,x15,80002ffc	 x10:0x00000000 x15:0x04000000
       36215000	      3620	80002ff8	00b8b033	sltu	x0,x17,x11	 x17:0xff5a2000 x11:0x9e37f001
       36225000	      3621	80002ffc	0047dd33	srl	x26,x15,x4	 x15:0x04000000  x4:0x0000060d x26=0x00002000
       36235000	      3622	80003000	01aac0b3	xor	x1,x21,x26	 x21:0x80009fc4 x26:0x00002000  x1=0x8000bfc4
       36245000	      3623	80003004	05f7e463	bltu	x15,x31,8000304c	 x15:0x04000000 x31:0x00000000
       36255000	      3624	80003008	04698063	beq	x19,x6,80003048	 x19:0xfffffc71  x6:0xb78d2000
       36265000	      3625	8000300c	41b681b3	sub	x3,x13,x27	 x13:0x00000001 x27:0x00000000  x3=0x00000001
       36275000	      3626	80003010	054f9863	bne	x31,x20,80003060	 x31:0x00000000 x20:0x00000001
       36285000	      3627	00000000	00000013	addi	x0,x0,0	  x0:0x00000000
       36295000	      3628	8000305c	00000013	addi	x0,x0,0	  x0:0x00000000
       36305000	      3629	80003060	9255d937	lui	x18,0x9255d	 x18=0x9255d000
       36315000	      3630	80003064	931886b7	lui	x13,0x93188	 x13=0x93188000
       36325000	      3631	80003068	0167edb3	or	x27,x15,x22	 x15:0x04000000 x22:0x00000000 x27=0x04000000
       36335000	      3632	8000306c	00000013	addi	x0,x0,0	  x0:0x00000000
       36345000	      3633	80003070	00000013	addi	x0,x0,0	  x0:0x00000000
       36355000	      3634	80003074	0348f663	bgeu	x17,x20,800030a0	 x17:0xff5a2000 x20:0x00000001
       36365000	      3635	00000000	00000013	addi	x0,x0,0	  x0:0x00000000
       36375000	      3636	8000309c	00000013	addi	x0,x0,0	  x0:0x00000000
       36385000	      3637	800030a0	02c67063	bgeu	x12,x12,800030c0	 x12:0x00000000 x12:0x00000000
       36395000	      3638	00000000	00000013	addi	x0,x0,0	  x0:0x00000000
       36405000	      3639	800030bc	00000013	addi	x0,x0,0	  x0:0x00000000
       36415000	      3640	800030c0	00c073b3	and	x7,x0,x12	  x0:0x00000000 x12:0x00000000  x7=0x00000000
       36425000	      3641	800030c4	0044e463	bltu	x9,x4,800030cc	  x9:0x00000001  x4:0x0000060d
       36435000	      3642	00000000	00000013	addi	x0,x0,0	  x0:0x00000000
       36445000	      3643	800030c8	00000013	addi	x0,x0,0	  x0:0x00000000
       36455000	      3644	800030cc	44343993	sltiu	x19,x8,1091	  x8:0x9e37f000 x19=0x00000000
       36465000	      3645	800030d0	019d6c33	or	x24,x26,x25	 x26:0x00002000 x25:0x00000306 x24=0x00002306
       36475000	      3646	800030d4	0494c863	blt	x9,x9,80003124	  x9:0x00000001  x9:0x00000001
       36485000	      3647	800030d8	01d9b9b3	sltu	x19,x19,x29	 x19:0x00000000 x29:0x000001ea x19=0x00000001
       36495000	      3648	800030dc	433bbd13	sltiu	x26,x23,1075	 x23:0xf091aa4a x26=0x00000000
       36505000	      3649	800030e0	0b497593	andi	x11,x18,180	 x18:0x9255d000 x11=0x00000000
       36515000	      3650	800030e4	004ed033	srl	x0,x29,x4	 x29:0x000001ea  x4:0x0000060d
       36525000	      3651	800030e8	043f7063	bgeu	x30,x3,80003128	 x30:0x00000000  x3:0x00000001
       36535000	      3652	800030ec	b0554497	auipc	x9,0xb0554	  x9=0x305570e8
       36545000	      3653	800030f0	04fa9263	bne	x21,x15,80003134	 x21:0x80009fc4 x15:0x04000000
       36555000	      3654	00000000	00000013	addi	x0,x0,0	  x0:0x00000000
       36565000	      3655	80003130	00000013	addi	x0,x0,0	  x0:0x00000000
       36575000	      3656	80003134	01779463	bne	x15,x23,8000313c	 x15:0x04000000 x23:0xf091aa4a
       36585000	      3657	00000000	00000013	addi	x0,x0,0	  x0:0x00000000
       36595000	      3658	80003138	00000013	addi	x0,x0,0	  x0:0x00000000
       36605000	      3659	8000313c	017ff263	bgeu	x31,x23,80003140	 x31:0x00000000 x23:0xf091aa4a
       36615000	      3660	80003140	015ec463	blt	x29,x21,80003148	 x29:0x000001ea x21:0x80009fc4
       36625000	      3661	80003144	05c04263	blt	x0,x28,80003188	  x0:0x00000000 x28:0x80009f34
       36635000	      3662	80003148	05085463	bge	x16,x16,80003190	 x16:0x00000000 x16:0x00000000
       36645000	      3663	00000000	00000013	addi	x0,x0,0	  x0:0x00000000
       36655000	      3664	8000318c	00000013	addi	x0,x0,0	  x0:0x00000000
       36665000	      3665	80003190	01e2e133	or	x2,x5,x30	  x5:0x00000000 x30:0x00000000  x2=0x00000000
       36675000	      3666	80003194	41c2d193	srai	x3,x5,0x1c	  x5:0x00000000  x3=0x00000000
       36685000	      3667	80003198	0eaac063	blt	x21,x10,80003278	 x21:0x80009fc4 x10:0x00000000
       36695000	      3668	00000000	00000013	addi	x0,x0,0	  x0:0x00000000
       36705000	      3669	80003274	00000013	addi	x0,x0,0	  x0:0x00000000
       36715000	      3670	80003278	015d1093	slli	x1,x26,0x15	 x26:0x00000000  x1=0x00000000
       36725000	      3671	8000327c	00f3d233	srl	x4,x7,x15	  x7:0x00000000 x15:0x04000000  x4=0x00000000
       36735000	      3672	80003280	0260f463	bgeu	x1,x6,800032a8	  x1:0x00000000  x6:0xb78d2000
       36745000	      3673	80003284	569dac93	slti	x25,x27,1385	 x27:0x04000000 x25=0x00000000
       36755000	      3674	80003288	00000013	addi	x0,x0,0	  x0:0x00000000
       36765000	      3675	8000328c	02db1463	bne	x22,x13,800032b4	 x22:0x00000000 x13:0x93188000
       36775000	      3676	00000000	00000013	addi	x0,x0,0	  x0:0x00000000
       36785000	      3677	800032b0	00000013	addi	x0,x0,0	  x0:0x00000000
       36795000	      3678	800032b4	688a1e97	auipc	x29,0x688a1	 x29=0xe88a42b0
       36805000	      3679	800032b8	402fd013	srai	x0,x31,0x2	 x31:0x00000000
       36815000	      3680	800032bc	ccbb7f13	andi	x30,x22,-821	 x22:0x00000000 x30=0x00000000
       36825000	      3681	800032c0	011378b3	and	x17,x6,x17	  x6:0xb78d2000 x17:0xff5a2000 x17=0xb7082000
       36835000	      3682	800032c4	1c50b813	sltiu	x16,x1,453	  x1:0x00000000 x16=0x00000001
       36845000	      3683	800032c8	02540263	beq	x8,x5,800032ec	  x8:0x9e37f000  x5:0x00000000
       36855000	      3684	800032cc	4114d133	sra	x2,x9,x17	  x9:0x305570e8 x17:0xb7082000  x2=0x305570e8
       36865000	      3685	800032d0	b6c4ac93	slti	x25,x9,-1172	  x9:0x305570e8 x25=0x00000000
       36875000	      3686	800032d4	d9fbc237	lui	x4,0xd9fbc	  x4=0xd9fbc000
       36885000	      3687	800032d8	03ec9a63	bne	x25,x30,8000330c	 x25:0x00000000 x30:0x00000000
       36895000	      3688	800032dc	00150fb3	add	x31,x10,x1	 x10:0x00000000  x1:0x00000000 x31=0x00000000
       36905000	      3689	800032e0	d3e46293	ori	x5,x8,-706	  x8:0x9e37f000  x5=0xfffffd3e
       36915000	      3690	800032e4	0716ec93	ori	x25,x13,113	 x13:0x93188000 x25=0x93188071
       36925000	      3691	800032e8	044f6863	bltu	x30,x4,80003338	 x30:0x00000000  x4:0xd9fbc000
       36935000	      3692	00000000	00000013	addi	x0,x0,0	  x0:0x00000000
       36945000	      3693	80003334	00000013	addi	x0,x0,0	  x0:0x00000000
       36955000	      3694	80003338	00181293	slli	x5,x16,0x1	 x16:0x00000001  x5=0x00000002
       36965000	      3695	8000333c	00ec7433	and	x8,x24,x14	 x24:0x00002306 x14:0x00000000  x8=0x00000000
       36975000	      3696	80003340	67107d93	andi	x27,x0,1649	  x0:0x00000000 x27=0x00000000
       36985000	      3697	80003344	ce53c117	auipc	x2,0xce53c	  x2=0x4e53f340
       36995000	      3698	80003348	04400263	beq	x0,x4,8000338c	  x0:0x00000000  x4:0xd9fbc000
       37005000	      3699	8000334c	00fec733	xor	x14,x29,x15	 x29:0xe88a42b0 x15:0x04000000 x14=0xec8a42b0
       37015000	      3700	80003350	05334863	blt	x6,x19,800033a0	  x6:0xb78d2000 x19:0x00000001
       37025000	      3701	00000000	00000013	addi	x0,x0,0	  x0:0x00000000
       37035000	      3702	8000339c	00000013	addi	x0,x0,0	  x0:0x00000000
       37045000	      3703	800033a0	401ed293	srai	x5,x29,0x1	 x29:0xe88a42b0  x5=0xf4452158
       37055000	      3704	800033a4	01890d33	add	x26,x18,x24	 x18:0x9255d000 x24:0x00002306 x26=0x9255f306
       37065000	      3705	800033a8	01d64633	xor	x12,x12,x29	 x12:0x00000000 x29:0xe88a42b0 x12=0xe88a42b0
       37075000	      3706	800033ac	419355b3	sra	x11,x6,x25	  x6:0xb78d2000 x25:0x93188071 x11=0xffffdbc6
       37085000	      3707	800033b0	01145293	srli	x5,x8,0x11	  x8:0x00000000  x5=0x00000000
       37095000	      3708	800033b4	00fcd813	srli	x16,x25,0xf	 x25:0x93188071 x16=0x00012631
       37105000	      3709	800033b8	05807863	bgeu	x0,x24,80003408	  x0:0x00000000 x24:0x00002306
       37115000	      3710	800033bc	00000013	addi	x0,x0,0	  x0:0x00000000
       37125000	      3711	800033c0	01100663	beq	x0,x17,800033cc	  x0:0x00000000 x17:0xb7082000
       37135000	      3712	800033c4	02fa9c63	bne	x21,x15,800033fc	 x21:0x80009fc4 x15:0x04000000
       37145000	      3713	00000000	00000013	addi	x0,x0,0	  x0:0x00000000
       37155000	      3714	800033f8	00000013	addi	x0,x0,0	  x0:0x00000000
       37165000	      3715	800033fc	00465c93	srli	x25,x12,0x4	 x12:0xe88a42b0 x25=0x0e88a42b
       37175000	      3716	80003400	00215b33	srl	x22,x2,x2	  x2:0x4e53f340  x2:0x4e53f340 x22=0x4e53f340
       37185000	      3717	80003404	01a0b633	sltu	x12,x1,x26	  x1:0x00000000 x26:0x9255f306 x12=0x00000001
       37195000	      3718	80003408	01895863	bge	x18,x24,80003418	 x18:0x9255d000 x24:0x00002306
       37205000	      3719	8000340c	aab7cc13	xori	x24,x15,-1365	 x15:0x04000000 x24=0xfbfffaab
       37215000	      3720	80003410	012e7533	and	x10,x28,x18	 x28:0x80009f34 x18:0x9255d000 x10=0x80009000
       37225000	      3721	80003414	409a8033	sub	x0,x21,x9	 x21:0x80009fc4  x9:0x305570e8
       37235000	      3722	80003418	00152233	slt	x4,x10,x1	 x10:0x80009000  x1:0x00000000  x4=0x00000001
       37245000	      3723	8000341c	030edc63	bge	x29,x16,80003454	 x29:0xe88a42b0 x16:0x00012631
       37255000	      3724	80003420	00000013	addi	x0,x0,0	  x0:0x00000000
       37265000	      3725	80003424	02ae0463	beq	x28,x10,8000344c	 x28:0x80009f34 x10:0x80009000
       37275000	      3726	80003428	05af6663	bltu	x30,x26,80003474	 x30:0x00000000 x26:0x9255f306
       37285000	      3727	00000000	00000013	addi	x0,x0,0	  x0:0x00000000
       37295000	      3728	80003470	00000013	addi	x0,x0,0	  x0:0x00000000
       37305000	      3729	80003474	00025533	srl	x10,x4,x0	  x4:0x00000001  x0:0x00000000 x10=0x00000001
       37315000	      3730	80003478	01e29793	slli	x15,x5,0x1e	  x5:0x00000000 x15=0x00000000
       37325000	      3731	8000347c	019be463	bltu	x23,x25,80003484	 x23:0xf091aa4a x25:0x0e88a42b
       37335000	      3732	80003480	40ba0db3	sub	x27,x20,x11	 x20:0x00000001 x11:0xffffdbc6 x27=0x0000243b
       37345000	      3733	80003484	02410263	beq	x2,x4,800034a8	  x2:0x4e53f340  x4:0x00000001
       37355000	      3734	80003488	034ce063	bltu	x25,x20,800034a8	 x25:0x0e88a42b x20:0x00000001
       37365000	      3735	8000348c	0168ce63	blt	x17,x22,800034a8	 x17:0xb7082000 x22:0x4e53f340
       37375000	      3736	00000000	00000013	addi	x0,x0,0	  x0:0x00000000
       37385000	      3737	800034a4	00000013	addi	x0,x0,0	  x0:0x00000000
       37395000	      3738	800034a8	c5e680b7	lui	x1,0xc5e68	  x1=0xc5e68000
       37405000	      3739	800034ac	00000013	addi	x0,x0,0	  x0:0x00000000
       37415000	      3740	800034b0	004e2f03	lw	x30,4(x28)	 x28:0x80009f34 x30=0x800069b4 PA:0x80009f38
       37425000	      3741	800034b4	4100df93	srai	x31,x1,0x10	  x1:0xc5e68000 x31=0xffffc5e6
       37435000	      3742	800034b8	00000013	addi	x0,x0,0	  x0:0x00000000
       37445000	      3743	800034bc	03ce0e13	addi	x28,x28,60	 x28:0x80009f34 x28=0x80009f70
       37455000	      3744	800034c0	00ad1a13	slli	x20,x26,0xa	 x26:0x9255f306 x20=0x57cc1800
       37465000	      3745	800034c4	000f0c93	addi	x25,x30,0	 x30:0x800069b4 x25=0x800069b4
       37475000	      3746	800034c8	000c8ce7	jalr	x25,x25,0	 x25:0x800069b4 x25=0x800034c8
       37485000	      3747	00000000	00000013	addi	x0,x0,0	  x0:0x00000000
       37495000	      3748	800069b4	00000013	addi	x0,x0,0	  x0:0x00000000
       37505000	      3749	800069b8	01a35cb3	srl	x25,x6,x26	  x6:0xb78d2000 x26:0x9255f306 x25=0x02de3480
       37515000	      3750	800069bc	40e754b3	sra	x9,x14,x14	 x14:0xec8a42b0 x14:0xec8a42b0  x9=0xffffec8a
       37525000	      3751	800069c0	68847f93	andi	x31,x8,1672	  x8:0x00000000 x31=0x00000000
       37535000	      3752	800069c4	41d4ddb3	sra	x27,x9,x29	  x9:0xffffec8a x29:0xe88a42b0 x27=0xffffffff
       37545000	      3753	800069c8	004a4a33	xor	x20,x20,x4	 x20:0x57cc1800  x4:0x00000001 x20=0x57cc1801
       37555000	      3754	800069cc	c55f9f6f	jal	x30,800069cc	 x30=0x800069cc
       37565000	      3755	00000000	00000013	addi	x0,x0,0	  x0:0x00000000
       37575000	      3756	8000061c	00000013	addi	x0,x0,0	  x0:0x00000000
       37585000	      3757	80000620	c8308693	addi	x13,x1,-893	  x1:0xc5e68000 x13=0xc5e67c83
       37595000	      3758	80000624	fc8e0e13	addi	x28,x28,-56	 x28:0x80009f70 x28=0x80009f38
       37605000	      3759	80000628	41165d13	srai	x26,x12,0x11	 x12:0x00000001 x26=0x00000000
       37615000	      3760	8000062c	01ee2223	sw	x30,4(x28)	 x28:0x80009f38 x30:0x800069cc PA:0x80009f3c
       37625000	      3761	80000630	082b08b7	lui	x17,0x82b0	 x17=0x082b0000
       37635000	      3762	80000634	009f0133	add	x2,x30,x9	 x30:0x800069cc  x9:0xffffec8a  x2=0x80005656
       37645000	      3763	80000638	01497433	and	x8,x18,x20	 x18:0x9255d000 x20:0x57cc1801  x8=0x12441000
       37655000	      3764	8000063c	00008117	auipc	x2,0x8	  x2=0x80008638
       37665000	      3765	80000640	70a10113	addi	x2,x2,1802	  x2:0x80008638  x2=0x80008d42
       37675000	      3766	80000644	01e5c333	xor	x6,x11,x30	 x11:0xffffdbc6 x30:0x800069cc  x6=0x7fffb20a
       37685000	      3767	80000648	429ccc13	xori	x24,x25,1065	 x25:0x02de3480 x24=0x02de30a9
       37695000	      3768	8000064c	04f10003	lb	x0,79(x2)	  x2:0x80008d42 PA:0x80008d91
       37705000	      3769	80000650	00aed233	srl	x4,x29,x10	 x29:0xe88a42b0 x10:0x00000001  x4=0x74452158
       37715000	      3770	80000654	9ae06b13	ori	x22,x0,-1618	  x0:0x00000000 x22=0xfffff9ae
       37725000	      3771	80000658	41df5893	srai	x17,x30,0x1d	 x30:0x800069cc x17=0xfffffffc
       37735000	      3772	8000065c	408258b3	sra	x17,x4,x8	  x4:0x74452158  x8:0x12441000 x17=0x74452158
       37745000	      3773	80000660	fb750597	auipc	x11,0xfb750	 x11=0x7b75065c
       37755000	      3774	80000664	41df84b3	sub	x9,x31,x29	 x31:0x00000000 x29:0xe88a42b0  x9=0x1775bd50
       37765000	      3775	80000668	01d10e83	lb	x29,29(x2)	  x2:0x80008d42 x29=0x00000000 PA:0x80008d5f
       37775000	      3776	8000066c	410851b3	sra	x3,x16,x16	 x16:0x00012631 x16:0x00012631  x3=0x00000000
       37785000	      3777	80000670	65df11b7	lui	x3,0x65df1	  x3=0x65df1000
       37795000	      3778	80000674	03b14e83	lbu	x29,59(x2)	  x2:0x80008d42 x29=0x00000000 PA:0x80008d7d
       37805000	      3779	80000678	f704a0b7	lui	x1,0xf704a	  x1=0xf704a000
       37815000	      3780	8000067c	41b50633	sub	x12,x10,x27	 x10:0x00000001 x27:0xffffffff x12=0x00000002
       37825000	      3781	80000680	f06101a3	sb	x6,-253(x2)	  x2:0x80008d42  x6:0x7fffb20a PA:0x80008c45
       37835000	      3782	80000684	41215933	sra	x18,x2,x18	  x2:0x80008d42 x18:0x9255d000 x18=0x80008d42
       37845000	      3783	80000688	fdd10683	lb	x13,-35(x2)	  x2:0x80008d42 x13=0x00000000 PA:0x80008d1f
       37855000	      3784	8000068c	404887b3	sub	x15,x17,x4	 x17:0x74452158  x4:0x74452158 x15=0x00000000
       37865000	      3785	80000690	40c58fb3	sub	x31,x11,x12	 x11:0x7b75065c x12:0x00000002 x31=0x7b75065a
       37875000	      3786	80000694	f5015c03	lhu	x24,-176(x2)	  x2:0x80008d42 x24=0x00000000 PA:0x80008c92
       37885000	      3787	00000000	00000013	addi	x0,x0,0	  x0:0x00000000
       37895000	      3788	80000698	67838d93	addi	x27,x7,1656	  x7:0x00000000 x27=0x00000678
       37905000	      3789	8000069c	01219f33	sll	x30,x3,x18	  x3:0x65df1000 x18:0x80008d42 x30=0x977c4000
       37915000	      3790	800006a0	fe310ea3	sb	x3,-3(x2)	  x2:0x80008d42  x3:0x65df1000 PA:0x80008d3f
       37925000	      3791	800006a4	00000013	addi	x0,x0,0	  x0:0x00000000
       37935000	      3792	800006a8	08210583	lb	x11,130(x2)	  x2:0x80008d42 x11=0x00000000 PA:0x80008dc4
       37945000	      3793	00000000	00000013	addi	x0,x0,0	  x0:0x00000000
       37955000	      3794	800006ac	12bdf513	andi	x10,x27,299	 x27:0x00000678 x10=0x00000028
       37965000	      3795	800006b0	0f710083	lb	x1,247(x2)	  x2:0x80008d42  x1=0x00000000 PA:0x80008e39
       37975000	      3796	800006b4	032b8613	addi	x12,x23,50	 x23:0xf091aa4a x12=0xf091aa7c
       37985000	      3797	800006b8	0091dfb3	srl	x31,x3,x9	  x3:0x65df1000  x9:0x1775bd50 x31=0x000065df
       37995000	      3798	800006bc	08d14a03	lbu	x20,141(x2)	  x2:0x80008d42 x20=0x00000000 PA:0x80008dcf
       38005000	      3799	800006c0	08710523	sb	x7,138(x2)	  x2:0x80008d42  x7:0x00000000 PA:0x80008dcc
       38015000	      3800	800006c4	06214703	lbu	x14,98(x2)	  x2:0x80008d42 x14=0x00000000 PA:0x80008da4
       38025000	      3801	800006c8	f1d12323	sw	x29,-250(x2)	  x2:0x80008d42 x29:0x00000000 PA:0x80008c48
       38035000	      3802	800006cc	722fe013	ori	x0,x31,1826	 x31:0x000065df
       38045000	      3803	800006d0	0149cf33	xor	x30,x19,x20	 x19:0x00000001 x20:0x00000000 x30=0x00000001
       38055000	      3804	800006d4	01c02833	slt	x16,x0,x28	  x0:0x00000000 x28:0x80009f38 x16=0x00000000
       38065000	      3805	800006d8	f7a11f03	lh	x30,-134(x2)	  x2:0x80008d42 x30=0x00000000 PA:0x80008cbc
       38075000	      3806	800006dc	0038b9b3	sltu	x19,x17,x3	 x17:0x74452158  x3:0x65df1000 x19=0x00000000
       38085000	      3807	800006e0	017e9d13	slli	x26,x29,0x17	 x29:0x00000000 x26=0x00000000
       38095000	      3808	800006e4	06c10c83	lb	x25,108(x2)	  x2:0x80008d42 x25=0x00000000 PA:0x80008dae
       38105000	      3809	800006e8	00ad91b3	sll	x3,x27,x10	 x27:0x00000678 x10:0x00000028  x3=0x00067800
       38115000	      3810	800006ec	fd310403	lb	x8,-45(x2)	  x2:0x80008d42  x8=0x00000000 PA:0x80008d15
       38125000	      3811	800006f0	01299a13	slli	x20,x19,0x12	 x19:0x00000000 x20=0x00000000
       38135000	      3812	800006f4	3fd38397	auipc	x7,0x3fd38	  x7=0xbfd386f0
       38145000	      3813	800006f8	f5215f83	lhu	x31,-174(x2)	  x2:0x80008d42 x31=0x00000000 PA:0x80008c94
       38155000	      3814	800006fc	a4eefd13	andi	x26,x29,-1458	 x29:0x00000000 x26=0x00000000
       38165000	      3815	80000700	f5814883	lbu	x17,-168(x2)	  x2:0x80008d42 x17=0x00000000 PA:0x80008c9a
       38175000	      3816	80000704	f4c11783	lh	x15,-180(x2)	  x2:0x80008d42 x15=0x00000000 PA:0x80008c8e
       38185000	      3817	80000708	00008717	auipc	x14,0x8	 x14=0x80008704
       38195000	      3818	8000070c	6e370713	addi	x14,x14,1763	 x14:0x80008704 x14=0x80008de7
       38205000	      3819	80000710	f7c3bc13	sltiu	x24,x7,-132	  x7:0xbfd386f0 x24=0x00000001
       38215000	      3820	80000714	f1f70383	lb	x7,-225(x14)	 x14:0x80008de7  x7=0x00000000 PA:0x80008d06
       38225000	      3821	80000718	02170123	sb	x1,34(x14)	 x14:0x80008de7  x1:0x00000000 PA:0x80008e09
       38235000	      3822	8000071c	bd77bf93	sltiu	x31,x15,-1065	 x15:0x00000000 x31=0x00000001
       38245000	      3823	80000720	79597193	andi	x3,x18,1941	 x18:0x80008d42  x3=0x00000500
       38255000	      3824	80000724	fa171803	lh	x16,-95(x14)	 x14:0x80008de7 x16=0x00000000 PA:0x80008d88
       38265000	      3825	80000728	01d32cb3	slt	x25,x6,x29	  x6:0x7fffb20a x29:0x00000000 x25=0x00000000
       38275000	      3826	8000072c	0ce70583	lb	x11,206(x14)	 x14:0x80008de7 x11=0x00000000 PA:0x80008eb5
       38285000	      3827	80000730	fbd70103	lb	x2,-67(x14)	 x14:0x80008de7  x2=0x00000000 PA:0x80008da4
       38295000	      3828	80000734	f7a705a3	sb	x26,-149(x14)	 x14:0x80008de7 x26:0x00000000 PA:0x80008d52
       38305000	      3829	80000738	417d5c33	sra	x24,x26,x23	 x26:0x00000000 x23:0xf091aa4a x24=0x00000000
       38315000	      3830	8000073c	03b71c03	lh	x24,59(x14)	 x14:0x80008de7 x24=0x00000000 PA:0x80008e22
       38325000	      3831	80000740	4178d033	sra	x0,x17,x23	 x17:0x00000000 x23:0xf091aa4a
       38335000	      3832	80000744	00832233	slt	x4,x6,x8	  x6:0x7fffb20a  x8:0x00000000  x4=0x00000000
       38345000	      3833	80000748	05f70f83	lb	x31,95(x14)	 x14:0x80008de7 x31=0x00000000 PA:0x80008e46
       38355000	      3834	8000074c	007e9533	sll	x10,x29,x7	 x29:0x00000000  x7:0x00000000 x10=0x00000000
       38365000	      3835	80000750	f6b71903	lh	x18,-149(x14)	 x14:0x80008de7 x18=0x00000000 PA:0x80008d52
       38375000	      3836	80000754	0cc70d83	lb	x27,204(x14)	 x14:0x80008de7 x27=0x00000000 PA:0x80008eb3
       38385000	      3837	80000758	00ef33b3	sltu	x7,x30,x14	 x30:0x00000000 x14:0x80008de7  x7=0x00000001
       38395000	      3838	8000075c	01f19313	slli	x6,x3,0x1f	  x3:0x00000500  x6=0x00000000
       38405000	      3839	80000760	00a8b8b3	sltu	x17,x17,x10	 x17:0x00000000 x10:0x00000000 x17=0x00000000
       38415000	      3840	80000764	00c86233	or	x4,x16,x12	 x16:0x00000000 x12:0xf091aa7c  x4=0xf091aa7c
       38425000	      3841	80000768	81147f93	andi	x31,x8,-2031	  x8:0x00000000 x31=0x00000000
       38435000	      3842	8000076c	000b0f33	add	x30,x22,x0	 x22:0xfffff9ae  x0:0x00000000 x30=0xfffff9ae
       38445000	      3843	80000770	0f070c03	lb	x24,240(x14)	 x14:0x80008de7 x24=0x00000000 PA:0x80008ed7
       38455000	      3844	80000774	412380b3	sub	x1,x7,x18	  x7:0x00000001 x18:0x00000000  x1=0x00000001
       38465000	      3845	80000778	0b474283	lbu	x5,180(x14)	 x14:0x80008de7  x5=0x00000000 PA:0x80008e9b
       38475000	      3846	8000077c	052b6c13	ori	x24,x22,82	 x22:0xfffff9ae x24=0xfffff9fe
       38485000	      3847	80000780	06071aa3	sh	x0,117(x14)	 x14:0x80008de7  x0:0x00000000 PA:0x80008e5c
       38495000	      3848	80000784	00008097	auipc	x1,0x8	  x1=0x80008780
       38505000	      3849	80000788	77e08093	addi	x1,x1,1918	  x1:0x80008780  x1=0x80008efe
       38515000	      3850	8000078c	086088a3	sb	x6,145(x1)	  x1:0x80008efe  x6:0x00000000 PA:0x80008f8f
       38525000	      3851	80000790	f930cc03	lbu	x24,-109(x1)	  x1:0x80008efe x24=0x00000000 PA:0x80008e91
       38535000	      3852	00000000	00000013	addi	x0,x0,0	  x0:0x00000000
       38545000	      3853	80000794	00cc2eb3	slt	x29,x24,x12	 x24:0x00000000 x12:0xf091aa7c x29=0x00000000
       38555000	      3854	80000798	f49086a3	sb	x9,-179(x1)	  x1:0x80008efe  x9:0x1775bd50 PA:0x80008e4b
       38565000	      3855	8000079c	40cf5533	sra	x10,x30,x12	 x30:0xfffff9ae x12:0xf091aa7c x10=0xffffffff
       38575000	      3856	800007a0	f6a09823	sh	x10,-144(x1)	  x1:0x80008efe x10:0xffffffff PA:0x80008e6e
       38585000	      3857	800007a4	ff308223	sb	x19,-28(x1)	  x1:0x80008efe x19:0x00000000 PA:0x80008ee2
       38595000	      3858	800007a8	4150d5b3	sra	x11,x1,x21	  x1:0x80008efe x21:0x80009fc4 x11=0xf80008ef
       38605000	      3859	800007ac	010e4933	xor	x18,x28,x16	 x28:0x80009f38 x16:0x00000000 x18=0x80009f38
       38615000	      3860	800007b0	08208aa3	sb	x2,149(x1)	  x1:0x80008efe  x2:0x00000000 PA:0x80008f93
       38625000	      3861	800007b4	02d0cd03	lbu	x26,45(x1)	  x1:0x80008efe x26=0x00000000 PA:0x80008f2b
       38635000	      3862	800007b8	012a5f93	srli	x31,x20,0x12	 x20:0x00000000 x31=0x00000000
       38645000	      3863	800007bc	015e9b33	sll	x22,x29,x21	 x29:0x00000000 x21:0x80009fc4 x22=0x00000000
       38655000	      3864	800007c0	01c0a723	sw	x28,14(x1)	  x1:0x80008efe x28:0x80009f38 PA:0x80008f0c
       38665000	      3865	800007c4	40848f33	sub	x30,x9,x8	  x9:0x1775bd50  x8:0x00000000 x30=0x1775bd50
       38675000	      3866	800007c8	f4f08003	lb	x0,-177(x1)	  x1:0x80008efe PA:0x80008e4d
       38685000	      3867	800007cc	f400c603	lbu	x12,-192(x1)	  x1:0x80008efe x12=0x00000000 PA:0x80008e3e
       38695000	      3868	800007d0	0de09c23	sh	x30,216(x1)	  x1:0x80008efe x30:0x1775bd50 PA:0x80008fd6
       38705000	      3869	800007d4	fa208f03	lb	x30,-94(x1)	  x1:0x80008efe x30=0x00000000 PA:0x80008ea0
       38715000	      3870	800007d8	009115b3	sll	x11,x2,x9	  x2:0x00000000  x9:0x1775bd50 x11=0x00000000
       38725000	      3871	800007dc	07b3df37	lui	x30,0x7b3d	 x30=0x07b3d000
       38735000	      3872	800007e0	0e50cc83	lbu	x25,229(x1)	  x1:0x80008efe x25=0x00000000 PA:0x80008fe3
       38745000	      3873	800007e4	01030d33	add	x26,x6,x16	  x6:0x00000000 x16:0x00000000 x26=0x00000000
       38755000	      3874	800007e8	21148813	addi	x16,x9,529	  x9:0x1775bd50 x16=0x1775bf61
       38765000	      3875	800007ec	f0508103	lb	x2,-251(x1)	  x1:0x80008efe  x2=0x00000000 PA:0x80008e03
       38775000	      3876	00000000	00000013	addi	x0,x0,0	  x0:0x00000000
       38785000	      3877	800007f0	d222ca13	xori	x20,x5,-734	  x5:0x00000000 x20=0xfffffd22
       38795000	      3878	800007f4	07609383	lh	x7,118(x1)	  x1:0x80008efe  x7=0x00000000 PA:0x80008f74
       38805000	      3879	800007f8	05108283	lb	x5,81(x1)	  x1:0x80008efe  x5=0x00000000 PA:0x80008f4f
       38815000	      3880	800007fc	f27080a3	sb	x7,-223(x1)	  x1:0x80008efe  x7:0x00000000 PA:0x80008e1f
       38825000	      3881	80000800	0106b333	sltu	x6,x13,x16	 x13:0x00000000 x16:0x1775bf61  x6=0x00000001
       38835000	      3882	80000804	aaa04713	xori	x14,x0,-1366	  x0:0x00000000 x14=0xfffffaaa
       38845000	      3883	80000808	00b6c133	xor	x2,x13,x11	 x13:0x00000000 x11:0x00000000  x2=0x00000000
       38855000	      3884	8000080c	01e2ec33	or	x24,x5,x30	  x5:0x00000000 x30:0x07b3d000 x24=0x07b3d000
       38865000	      3885	80000810	40755413	srai	x8,x10,0x7	 x10:0xffffffff  x8=0xffffffff
       38875000	      3886	80000814	da93b993	sltiu	x19,x7,-599	  x7:0x00000000 x19=0x00000001
       38885000	      3887	80000818	01808103	lb	x2,24(x1)	  x1:0x80008efe  x2=0x00000000 PA:0x80008f16
       38895000	      3888	8000081c	f5c08223	sb	x28,-188(x1)	  x1:0x80008efe x28:0x80009f38 PA:0x80008e42
       38905000	      3889	80000820	04908603	lb	x12,73(x1)	  x1:0x80008efe x12=0x00000000 PA:0x80008f47
       38915000	      3890	80000824	f160db03	lhu	x22,-234(x1)	  x1:0x80008efe x22=0x00000000 PA:0x80008e14
       38925000	      3891	80000828	f2f09523	sh	x15,-214(x1)	  x1:0x80008efe x15:0x00000000 PA:0x80008e28
       38935000	      3892	8000082c	031089a3	sb	x17,51(x1)	  x1:0x80008efe x17:0x00000000 PA:0x80008f31
       38945000	      3893	80000830	01d476b3	and	x13,x8,x29	  x8:0xffffffff x29:0x00000000 x13=0x00000000
       38955000	      3894	80000834	02a0d883	lhu	x17,42(x1)	  x1:0x80008efe x17=0x000000f0 PA:0x80008f28
       38965000	      3895	80000838	f7508da3	sb	x21,-133(x1)	  x1:0x80008efe x21:0x80009fc4 PA:0x80008e79
       38975000	      3896	8000083c	03809863	bne	x1,x24,8000086c	  x1:0x80008efe x24:0x07b3d000
       38985000	      3897	00000000	00000013	addi	x0,x0,0	  x0:0x00000000
       38995000	      3898	80000868	00000013	addi	x0,x0,0	  x0:0x00000000
       39005000	      3899	8000086c	01ebdf93	srli	x31,x23,0x1e	 x23:0xf091aa4a x31=0x00000003
       39015000	      3900	80000870	007a90b3	sll	x1,x21,x7	 x21:0x80009fc4  x7:0x00000000  x1=0x80009fc4
       39025000	      3901	80000874	04830263	beq	x6,x8,800008b8	  x6:0x00000001  x8:0xffffffff
       39035000	      3902	80000878	e1993813	sltiu	x16,x18,-487	 x18:0x80009f38 x16=0x00000001
       39045000	      3903	8000087c	03d5ec63	bltu	x11,x29,800008b4	 x11:0x00000000 x29:0x00000000
       39055000	      3904	80000880	01d165b3	or	x11,x2,x29	  x2:0x00000000 x29:0x00000000 x11=0x00000000
       39065000	      3905	80000884	03d5e463	bltu	x11,x29,800008ac	 x11:0x00000000 x29:0x00000000
       39075000	      3906	80000888	3017a993	slti	x19,x15,769	 x15:0x00000000 x19=0x00000001
       39085000	      3907	8000088c	01b00a63	beq	x0,x27,800008a0	  x0:0x00000000 x27:0x00000000
       39095000	      3908	00000000	00000013	addi	x0,x0,0	  x0:0x00000000
       39105000	      3909	8000089c	00000013	addi	x0,x0,0	  x0:0x00000000
       39115000	      3910	800008a0	4046d633	sra	x12,x13,x4	 x13:0x00000000  x4:0xf091aa7c x12=0x00000000
       39125000	      3911	800008a4	41110f33	sub	x30,x2,x17	  x2:0x00000000 x17:0x000000f0 x30=0xffffff10
       39135000	      3912	800008a8	01eedeb3	srl	x29,x29,x30	 x29:0x00000000 x30:0xffffff10 x29=0x00000000
       39145000	      3913	800008ac	0148a333	slt	x6,x17,x20	 x17:0x000000f0 x20:0xfffffd22  x6=0x00000000
       39155000	      3914	800008b0	03f61063	bne	x12,x31,800008d0	 x12:0x00000000 x31:0x00000003
       39165000	      3915	00000000	00000013	addi	x0,x0,0	  x0:0x00000000
       39175000	      3916	800008cc	00000013	addi	x0,x0,0	  x0:0x00000000
       39185000	      3917	800008d0	d6a3f893	andi	x17,x7,-662	  x7:0x00000000 x17=0x00000000
       39195000	      3918	800008d4	00861333	sll	x6,x12,x8	 x12:0x00000000  x8:0xffffffff  x6=0x00000000
       39205000	      3919	800008d8	003696b3	sll	x13,x13,x3	 x13:0x00000000  x3:0x00000500 x13=0x00000000
       39215000	      3920	800008dc	67232d13	slti	x26,x6,1650	  x6:0x00000000 x26=0x00000001
       39225000	      3921	800008e0	35f68993	addi	x19,x13,863	 x13:0x00000000 x19=0x0000035f
       39235000	      3922	800008e4	00000013	addi	x0,x0,0	  x0:0x00000000
       39245000	      3923	800008e8	41a55d13	srai	x26,x10,0x1a	 x10:0xffffffff x26=0xffffffff
       39255000	      3924	800008ec	00000013	addi	x0,x0,0	  x0:0x00000000
       39265000	      3925	800008f0	00000013	addi	x0,x0,0	  x0:0x00000000
       39275000	      3926	800008f4	40b90833	sub	x16,x18,x11	 x18:0x80009f38 x11:0x00000000 x16=0x80009f38
       39285000	      3927	800008f8	40ccd193	srai	x3,x25,0xc	 x25:0x00000000  x3=0x00000000
       39295000	      3928	800008fc	007b29b3	slt	x19,x22,x7	 x22:0x00000000  x7:0x00000000 x19=0x00000000
       39305000	      3929	80000900	85efb313	sltiu	x6,x31,-1954	 x31:0x00000003  x6=0x00000001
       39315000	      3930	80000904	01cedf33	srl	x30,x29,x28	 x29:0x00000000 x28:0x80009f38 x30=0x00000000
       39325000	      3931	80000908	0363f263	bgeu	x7,x22,8000092c	  x7:0x00000000 x22:0x00000000
       39335000	      3932	00000000	00000013	addi	x0,x0,0	  x0:0x00000000
       39345000	      3933	80000928	00000013	addi	x0,x0,0	  x0:0x00000000
       39355000	      3934	8000092c	00501413	slli	x8,x0,0x5	  x0:0x00000000  x8=0x00000000
       39365000	      3935	80000930	05e67463	bgeu	x12,x30,80000978	 x12:0x00000000 x30:0x00000000
       39375000	      3936	00000000	00000013	addi	x0,x0,0	  x0:0x00000000
       39385000	      3937	80000974	00000013	addi	x0,x0,0	  x0:0x00000000
       39395000	      3938	80000978	401b81b3	sub	x3,x23,x1	 x23:0xf091aa4a  x1:0x80009fc4  x3=0x70910a86
       39405000	      3939	8000097c	03034c63	blt	x6,x16,800009b4	  x6:0x00000001 x16:0x80009f38
       39415000	      3940	80000980	4b20e113	ori	x2,x1,1202	  x1:0x80009fc4  x2=0x80009ff6
       39425000	      3941	80000984	4129d233	sra	x4,x19,x18	 x19:0x00000000 x18:0x80009f38  x4=0x00000000
       39435000	      3942	80000988	03891e63	bne	x18,x24,800009c4	 x18:0x80009f38 x24:0x07b3d000
       39445000	      3943	00000000	00000013	addi	x0,x0,0	  x0:0x00000000
       39455000	      3944	800009c0	00000013	addi	x0,x0,0	  x0:0x00000000
       39465000	      3945	800009c4	34e17a13	andi	x20,x2,846	  x2:0x80009ff6 x20=0x00000346
       39475000	      3946	800009c8	978ea793	slti	x15,x29,-1672	 x29:0x00000000 x15=0x00000000
       39485000	      3947	800009cc	b7277b13	andi	x22,x14,-1166	 x14:0xfffffaaa x22=0xfffffa22
       39495000	      3948	800009d0	405d0133	sub	x2,x26,x5	 x26:0xffffffff  x5:0x00000000  x2=0xffffffff
       39505000	      3949	800009d4	414b0d33	sub	x26,x22,x20	 x22:0xfffffa22 x20:0x00000346 x26=0xfffff6dc
       39515000	      3950	800009d8	00000013	addi	x0,x0,0	  x0:0x00000000
       39525000	      3951	800009dc	c71dac13	slti	x24,x27,-911	 x27:0x00000000 x24=0x00000000
       39535000	      3952	800009e0	01f3d033	srl	x0,x7,x31	  x7:0x00000000 x31:0x00000003
       39545000	      3953	800009e4	01c70d33	add	x26,x14,x28	 x14:0xfffffaaa x28:0x80009f38 x26=0x800099e2
       39555000	      3954	800009e8	0135c5b3	xor	x11,x11,x19	 x11:0x00000000 x19:0x00000000 x11=0x00000000
       39565000	      3955	800009ec	9af98c13	addi	x24,x19,-1617	 x19:0x00000000 x24=0xfffff9af
       39575000	      3956	800009f0	00c91463	bne	x18,x12,800009f8	 x18:0x80009f38 x12:0x00000000
       39585000	      3957	00000000	00000013	addi	x0,x0,0	  x0:0x00000000
       39595000	      3958	800009f4	00000013	addi	x0,x0,0	  x0:0x00000000
       39605000	      3959	800009f8	017507b3	add	x15,x10,x23	 x10:0xffffffff x23:0xf091aa4a x15=0xf091aa49
       39615000	      3960	800009fc	7920c613	xori	x12,x1,1938	  x1:0x80009fc4 x12=0x80009856
       39625000	      3961	80000a00	039dcc63	blt	x27,x25,80000a38	 x27:0x00000000 x25:0x00000000
       39635000	      3962	80000a04	01629d13	slli	x26,x5,0x16	  x5:0x00000000 x26=0x00000000
       39645000	      3963	80000a08	0115f463	bgeu	x11,x17,80000a10	 x11:0x00000000 x17:0x00000000
       39655000	      3964	00000000	00000013	addi	x0,x0,0	  x0:0x00000000
       39665000	      3965	80000a0c	00000013	addi	x0,x0,0	  x0:0x00000000
       39675000	      3966	80000a10	00000013	addi	x0,x0,0	  x0:0x00000000
       39685000	      3967	80000a14	a12c7d93	andi	x27,x24,-1518	 x24:0xfffff9af x27=0xfffff802
       39695000	      3968	80000a18	0e373413	sltiu	x8,x14,227	 x14:0xfffffaaa  x8=0x00000000
       39705000	      3969	80000a1c	75b28c13	addi	x24,x5,1883	  x5:0x00000000 x24=0x0000075b
       39715000	      3970	80000a20	d5c6da37	lui	x20,0xd5c6d	 x20=0xd5c6d000
       39725000	      3971	80000a24	019d0cb3	add	x25,x26,x25	 x26:0x00000000 x25:0x00000000 x25=0x00000000
       39735000	      3972	80000a28	40115533	sra	x10,x2,x1	  x2:0xffffffff  x1:0x80009fc4 x10=0xffffffff
       39745000	      3973	80000a2c	41e1da33	sra	x20,x3,x30	  x3:0x70910a86 x30:0x00000000 x20=0x70910a86
       39755000	      3974	80000a30	033f0263	beq	x30,x19,80000a54	 x30:0x00000000 x19:0x00000000
       39765000	      3975	00000000	00000013	addi	x0,x0,0	  x0:0x00000000
       39775000	      3976	80000a50	00000013	addi	x0,x0,0	  x0:0x00000000
       39785000	      3977	80000a54	01fcd933	srl	x18,x25,x31	 x25:0x00000000 x31:0x00000003 x18=0x00000000
       39795000	      3978	80000a58	00000013	addi	x0,x0,0	  x0:0x00000000
       39805000	      3979	80000a5c	017b4463	blt	x22,x23,80000a64	 x22:0xfffffa22 x23:0xf091aa4a
       39815000	      3980	80000a60	27442193	slti	x3,x8,628	  x8:0x00000000  x3=0x00000001
       39825000	      3981	80000a64	00000013	addi	x0,x0,0	  x0:0x00000000
       39835000	      3982	80000a68	01868db3	add	x27,x13,x24	 x13:0x00000000 x24:0x0000075b x27=0x0000075b
       39845000	      3983	80000a6c	022d1263	bne	x26,x2,80000a90	 x26:0x00000000  x2:0xffffffff
       39855000	      3984	00000000	00000013	addi	x0,x0,0	  x0:0x00000000
       39865000	      3985	80000a8c	00000013	addi	x0,x0,0	  x0:0x00000000
       39875000	      3986	80000a90	003afb33	and	x22,x21,x3	 x21:0x80009fc4  x3:0x00000001 x22=0x00000000
       39885000	      3987	80000a94	40625313	srai	x6,x4,0x6	  x4:0x00000000  x6=0x00000000
       39895000	      3988	80000a98	351e3717	auipc	x14,0x351e3	 x14=0xb51e3a94
       39905000	      3989	80000a9c	01795c63	bge	x18,x23,80000ab4	 x18:0x00000000 x23:0xf091aa4a
       39915000	      3990	00000000	00000013	addi	x0,x0,0	  x0:0x00000000
       39925000	      3991	80000ab0	00000013	addi	x0,x0,0	  x0:0x00000000
       39935000	      3992	80000ab4	19d67d13	andi	x26,x12,413	 x12:0x80009856 x26=0x00000014
       39945000	      3993	80000ab8	0044d233	srl	x4,x9,x4	  x9:0x1775bd50  x4:0x00000000  x4=0x1775bd50
       39955000	      3994	80000abc	03ab0663	beq	x22,x26,80000ae8	 x22:0x00000000 x26:0x00000014
       39965000	      3995	80000ac0	048a6863	bltu	x20,x8,80000b10	 x20:0x70910a86  x8:0x00000000
       39975000	      3996	80000ac4	412f5593	srai	x11,x30,0x12	 x30:0x00000000 x11=0x00000000
       39985000	      3997	80000ac8	417ed633	sra	x12,x29,x23	 x29:0x00000000 x23:0xf091aa4a x12=0x00000000
       39995000	      3998	80000acc	02756663	bltu	x10,x7,80000af8	 x10:0xffffffff  x7:0x00000000
       40005000	      3999	80000ad0	00486a63	bltu	x16,x4,80000ae4	 x16:0x80009f38  x4:0x1775bd50
       40015000	      4000	80000ad4	01488db3	add	x27,x17,x20	 x17:0x00000000 x20:0x70910a86 x27=0x70910a86
       40025000	      4001	80000ad8	02f54263	blt	x10,x15,80000afc	 x10:0xffffffff x15:0xf091aa49
       40035000	      4002	80000adc	a27e7c37	lui	x24,0xa27e7	 x24=0xa27e7000
       40045000	      4003	80000ae0	00d162b3	or	x5,x2,x13	  x2:0xffffffff x13:0x00000000  x5=0xffffffff
       40055000	      4004	80000ae4	0157d313	srli	x6,x15,0x15	 x15:0xf091aa49  x6=0x00000784
       40065000	      4005	80000ae8	03034c63	blt	x6,x16,80000b20	  x6:0x00000784 x16:0x80009f38
       40075000	      4006	80000aec	01ad9463	bne	x27,x26,80000af4	 x27:0x70910a86 x26:0x00000014
       40085000	      4007	00000000	00000013	addi	x0,x0,0	  x0:0x00000000
       40095000	      4008	80000af0	00000013	addi	x0,x0,0	  x0:0x00000000
       40105000	      4009	80000af4	d274a813	slti	x16,x9,-729	  x9:0x1775bd50 x16=0x00000000
       40115000	      4010	80000af8	00af01b3	add	x3,x30,x10	 x30:0x00000000 x10:0xffffffff  x3=0xffffffff
       40125000	      4011	80000afc	0127eeb3	or	x29,x15,x18	 x15:0xf091aa49 x18:0x00000000 x29=0xf091aa49
       40135000	      4012	80000b00	02006263	bltu	x0,x0,80000b24	  x0:0x00000000  x0:0x00000000
       40145000	      4013	80000b04	cb7e4117	auipc	x2,0xcb7e4	  x2=0x4b7e4b00
       40155000	      4014	80000b08	4fe7ae93	slti	x29,x15,1278	 x15:0xf091aa49 x29=0x00000001
       40165000	      4015	80000b0c	0245e663	bltu	x11,x4,80000b38	 x11:0x00000000  x4:0x1775bd50
       40175000	      4016	00000000	00000013	addi	x0,x0,0	  x0:0x00000000
       40185000	      4017	80000b34	00000013	addi	x0,x0,0	  x0:0x00000000
       40195000	      4018	80000b38	4117db33	sra	x22,x15,x17	 x15:0xf091aa49 x17:0x00000000 x22=0xf091aa49
       40205000	      4019	80000b3c	405dd193	srai	x3,x27,0x5	 x27:0x70910a86  x3=0x03848854
       40215000	      4020	80000b40	00000013	addi	x0,x0,0	  x0:0x00000000
       40225000	      4021	80000b44	01c39393	slli	x7,x7,0x1c	  x7:0x00000000  x7=0x00000000
       40235000	      4022	80000b48	41355633	sra	x12,x10,x19	 x10:0xffffffff x19:0x00000000 x12=0xffffffff
       40245000	      4023	80000b4c	b905e213	ori	x4,x11,-1136	 x11:0x00000000  x4=0xfffffb90
       40255000	      4024	80000b50	019312b3	sll	x5,x6,x25	  x6:0x00000784 x25:0x00000000  x5=0x00000784
       40265000	      4025	80000b54	bf423913	sltiu	x18,x4,-1036	  x4:0xfffffb90 x18=0x00000001
       40275000	      4026	80000b58	45b44fb7	lui	x31,0x45b44	 x31=0x45b44000
       40285000	      4027	80000b5c	0af5ab13	slti	x22,x11,175	 x11:0x00000000 x22=0x00000001
       40295000	      4028	80000b60	03db0463	beq	x22,x29,80000b88	 x22:0x00000001 x29:0x00000001
       40305000	      4029	00000000	00000013	addi	x0,x0,0	  x0:0x00000000
       40315000	      4030	80000b84	00000013	addi	x0,x0,0	  x0:0x00000000
       40325000	      4031	80000b88	015bd313	srli	x6,x23,0x15	 x23:0xf091aa4a  x6=0x00000784
       40335000	      4032	80000b8c	cd6ced93	ori	x27,x25,-810	 x25:0x00000000 x27=0xfffffcd6
       40345000	      4033	80000b90	404b9f17	auipc	x30,0x404b9	 x30=0xc04b9b8c
       40355000	      4034	80000b94	65556513	ori	x10,x10,1621	 x10:0xffffffff x10=0xffffffff
       40365000	      4035	80000b98	00f61d93	slli	x27,x12,0xf	 x12:0xffffffff x27=0xffff8000
       40375000	      4036	80000b9c	41108db3	sub	x27,x1,x17	  x1:0x80009fc4 x17:0x00000000 x27=0x80009fc4
       40385000	      4037	80000ba0	009c1663	bne	x24,x9,80000bac	 x24:0xa27e7000  x9:0x1775bd50
       40395000	      4038	00000000	00000013	addi	x0,x0,0	  x0:0x00000000
       40405000	      4039	80000ba8	00000013	addi	x0,x0,0	  x0:0x00000000
       40415000	      4040	80000bac	12d13c93	sltiu	x25,x2,301	  x2:0x4b7e4b00 x25=0x00000000
       40425000	      4041	80000bb0	00f5f8b3	and	x17,x11,x15	 x11:0x00000000 x15:0xf091aa49 x17=0x00000000
       40435000	      4042	80000bb4	02377c63	bgeu	x14,x3,80000bec	 x14:0xb51e3a94  x3:0x03848854
       40445000	      4043	00000000	00000013	addi	x0,x0,0	  x0:0x00000000
       40455000	      4044	80000be8	00000013	addi	x0,x0,0	  x0:0x00000000
       40465000	      4045	80000bec	01617033	and	x0,x2,x22	  x2:0x4b7e4b00 x22:0x00000001
       40475000	      4046	80000bf0	cec706b7	lui	x13,0xcec70	 x13=0xcec70000
       40485000	      4047	80000bf4	02fe7463	bgeu	x28,x15,80000c1c	 x28:0x80009f38 x15:0xf091aa49
       40495000	      4048	80000bf8	412bd693	srai	x13,x23,0x12	 x23:0xf091aa4a x13=0xfffffc24
       40505000	      4049	80000bfc	00a58f33	add	x30,x11,x10	 x11:0x00000000 x10:0xffffffff x30=0xffffffff
       40515000	      4050	80000c00	00d56733	or	x14,x10,x13	 x10:0xffffffff x13:0xfffffc24 x14=0xffffffff
       40525000	      4051	80000c04	02e90863	beq	x18,x14,80000c34	 x18:0x00000001 x14:0xffffffff
       40535000	      4052	80000c08	009331b3	sltu	x3,x6,x9	  x6:0x00000784  x9:0x1775bd50  x3=0x00000001
       40545000	      4053	80000c0c	03187c63	bgeu	x16,x17,80000c44	 x16:0x00000000 x17:0x00000000
       40555000	      4054	00000000	00000013	addi	x0,x0,0	  x0:0x00000000
       40565000	      4055	80000c40	00000013	addi	x0,x0,0	  x0:0x00000000
       40575000	      4056	80000c44	00e61e93	slli	x29,x12,0xe	 x12:0xffffffff x29=0xffffc000
       40585000	      4057	80000c48	00e5e4b3	or	x9,x11,x14	 x11:0x00000000 x14:0xffffffff  x9=0xffffffff
       40595000	      4058	80000c4c	40ea55b3	sra	x11,x20,x14	 x20:0x70910a86 x14:0xffffffff x11=0x00000000
       40605000	      4059	80000c50	0002d613	srli	x12,x5,0x0	  x5:0x00000784 x12=0x00000784
       40615000	      4060	80000c54	0169d463	bge	x19,x22,80000c5c	 x19:0x00000000 x22:0x00000001
       40625000	      4061	80000c58	01c9d833	srl	x16,x19,x28	 x19:0x00000000 x28:0x80009f38 x16=0x00000000
       40635000	      4062	80000c5c	3d874213	xori	x4,x14,984	 x14:0xffffffff  x4=0xfffffc27
       40645000	      4063	80000c60	01ec1a33	sll	x20,x24,x30	 x24:0xa27e7000 x30:0xffffffff x20=0x00000000
       40655000	      4064	80000c64	014e1fb3	sll	x31,x28,x20	 x28:0x80009f38 x20:0x00000000 x31=0x80009f38
       40665000	      4065	80000c68	005cef33	or	x30,x25,x5	 x25:0x00000000  x5:0x00000784 x30=0x00000784
       40675000	      4066	80000c6c	cdd8ce93	xori	x29,x17,-803	 x17:0x00000000 x29=0xfffffcdd
       40685000	      4067	80000c70	00639693	slli	x13,x7,0x6	  x7:0x00000000 x13=0x00000000
       40695000	      4068	80000c74	00966393	ori	x7,x12,9	 x12:0x00000784  x7=0x0000078d
       40705000	      4069	80000c78	7691fc17	auipc	x24,0x7691f	 x24=0xf691fc74
       40715000	      4070	80000c7c	ff5b2613	slti	x12,x22,-11	 x22:0x00000001 x12=0x00000000
       40725000	      4071	80000c80	027fc263	blt	x31,x7,80000ca4	 x31:0x80009f38  x7:0x0000078d
       40735000	      4072	00000000	00000013	addi	x0,x0,0	  x0:0x00000000
       40745000	      4073	80000ca0	00000013	addi	x0,x0,0	  x0:0x00000000
       40755000	      4074	80000ca4	0163e833	or	x16,x7,x22	  x7:0x0000078d x22:0x00000001 x16=0x0000078d
       40765000	      4075	80000ca8	01178733	add	x14,x15,x17	 x15:0xf091aa49 x17:0x00000000 x14=0xf091aa49
       40775000	      4076	80000cac	413e8cb3	sub	x25,x29,x19	 x29:0xfffffcdd x19:0x00000000 x25=0xfffffcdd
       40785000	      4077	80000cb0	011ae463	bltu	x21,x17,80000cb8	 x21:0x80009fc4 x17:0x00000000
       40795000	      4078	80000cb4	00000013	addi	x0,x0,0	  x0:0x00000000
       40805000	      4079	80000cb8	41835413	srai	x8,x6,0x18	  x6:0x00000784  x8=0x00000000
       40815000	      4080	80000cbc	22795e97	auipc	x29,0x22795	 x29=0xa2795cb8
       40825000	      4081	80000cc0	00000013	addi	x0,x0,0	  x0:0x00000000
       40835000	      4082	80000cc4	20a46393	ori	x7,x8,522	  x8:0x00000000  x7=0x0000020a
       40845000	      4083	80000cc8	fa507637	lui	x12,0xfa507	 x12=0xfa507000
       40855000	      4084	80000ccc	00dd32b3	sltu	x5,x26,x13	 x26:0x00000014 x13:0x00000000  x5=0x00000000
       40865000	      4085	80000cd0	01009413	slli	x8,x1,0x10	  x1:0x80009fc4  x8=0x9fc40000
       40875000	      4086	80000cd4	012101b3	add	x3,x2,x18	  x2:0x4b7e4b00 x18:0x00000001  x3=0x4b7e4b01
       40885000	      4087	80000cd8	02777063	bgeu	x14,x7,80000cf8	 x14:0xf091aa49  x7:0x0000020a
       40895000	      4088	00000000	00000013	addi	x0,x0,0	  x0:0x00000000
       40905000	      4089	80000cf4	00000013	addi	x0,x0,0	  x0:0x00000000
       40915000	      4090	80000cf8	04bd1863	bne	x26,x11,80000d48	 x26:0x00000014 x11:0x00000000
       40925000	      4091	00000000	00000013	addi	x0,x0,0	  x0:0x00000000
       40935000	      4092	80000d44	00000013	addi	x0,x0,0	  x0:0x00000000
       40945000	      4093	80000d48	00ae9893	slli	x17,x29,0xa	 x29:0xa2795cb8 x17=0xe572e000
       40955000	      4094	80000d4c	57c3e437	lui	x8,0x57c3e	  x8=0x57c3e000
       40965000	      4095	80000d50	f2320193	addi	x3,x4,-221	  x4:0xfffffc27  x3=0xfffffb4a
       40975000	      4096	80000d54	0021c9b3	xor	x19,x3,x2	  x3:0xfffffb4a  x2:0x4b7e4b00 x19=0xb481b04a
       40985000	      4097	80000d58	1f947517	auipc	x10,0x1f947	 x10=0x9f947d54
       40995000	      4098	80000d5c	1346c063	blt	x13,x20,80000e7c	 x13:0x00000000 x20:0x00000000
       41005000	      4099	80000d60	0041d413	srli	x8,x3,0x4	  x3:0xfffffb4a  x8=0x0fffffb4
       41015000	      4100	80000d64	00b86733	or	x14,x16,x11	 x16:0x0000078d x11:0x00000000 x14=0x0000078d
       41025000	      4101	80000d68	f6b3c893	xori	x17,x7,-149	  x7:0x0000020a x17=0xfffffd61
       41035000	      4102	80000d6c	4067dd33	sra	x26,x15,x6	 x15:0xf091aa49  x6:0x00000784 x26=0xff091aa4
       41045000	      4103	80000d70	0057cf33	xor	x30,x15,x5	 x15:0xf091aa49  x5:0x00000000 x30=0xf091aa49
       41055000	      4104	80000d74	00b00233	add	x4,x0,x11	  x0:0x00000000 x11:0x00000000  x4=0x00000000
       41065000	      4105	80000d78	12f97293	andi	x5,x18,303	 x18:0x00000001  x5=0x00000001
       41075000	      4106	80000d7c	00ca22b3	slt	x5,x20,x12	 x20:0x00000000 x12:0xfa507000  x5=0x00000000
       41085000	      4107	80000d80	00d810b3	sll	x1,x16,x13	 x16:0x0000078d x13:0x00000000  x1=0x0000078d
       41095000	      4108	80000d84	60076f93	ori	x31,x14,1536	 x14:0x0000078d x31=0x0000078d
       41105000	      4109	80000d88	5ba2b193	sltiu	x3,x5,1466	  x5:0x00000000  x3=0x00000001
       41115000	      4110	80000d8c	00008217	auipc	x4,0x8	  x4=0x80008d88
       41125000	      4111	80000d90	82420213	addi	x4,x4,-2012	  x4:0x80008d88  x4=0x800085ac
       41135000	      4112	80000d94	ff221e83	lh	x29,-14(x4)	  x4:0x800085ac x29=0x00000000 PA:0x8000859e
       41145000	      4113	00000000	00000013	addi	x0,x0,0	  x0:0x00000000
       41155000	      4114	80000d98	01d20223	sb	x29,4(x4)	  x4:0x800085ac x29:0x00000000 PA:0x800085b0
       41165000	      4115	80000d9c	010a1f93	slli	x31,x20,0x10	 x20:0x00000000 x31=0x00000000
       41175000	      4116	80000da0	01d2e333	or	x6,x5,x29	  x5:0x00000000 x29:0x00000000  x6=0x00000000
       41185000	      4117	80000da4	ff720f83	lb	x31,-9(x4)	  x4:0x800085ac x31=0x00000000 PA:0x800085a3
       41195000	      4118	80000da8	ff421f23	sh	x20,-2(x4)	  x4:0x800085ac x20:0x00000000 PA:0x800085aa
       41205000	      4119	80000dac	00e25c83	lhu	x25,14(x4)	  x4:0x800085ac x25=0x00000000 PA:0x800085ba
       41215000	      4120	80000db0	01f328b3	slt	x17,x6,x31	  x6:0x00000000 x31:0x00000000 x17=0x00000000
       41225000	      4121	80000db4	015bbf33	sltu	x30,x23,x21	 x23:0xf091aa4a x21:0x80009fc4 x30=0x00000000
       41235000	      4122	80000db8	fe520823	sb	x5,-16(x4)	  x4:0x800085ac  x5:0x00000000 PA:0x8000859c
       41245000	      4123	80000dbc	812fe513	ori	x10,x31,-2030	 x31:0x00000000 x10=0xfffff812
       41255000	      4124	80000dc0	00e25c03	lhu	x24,14(x4)	  x4:0x800085ac x24=0x00000000 PA:0x800085ba
       41265000	      4125	80000dc4	00120783	lb	x15,1(x4)	  x4:0x800085ac x15=0x00000000 PA:0x800085ad
       41275000	      4126	80000dc8	00829eb3	sll	x29,x5,x8	  x5:0x00000000  x8:0x0fffffb4 x29=0x00000000
       41285000	      4127	80000dcc	ef93a513	slti	x10,x7,-263	  x7:0x0000020a x10=0x00000000
       41295000	      4128	80000dd0	00a24c03	lbu	x24,10(x4)	  x4:0x800085ac x24=0x00000000 PA:0x800085b6
       41305000	      4129	80000dd4	00c20c83	lb	x25,12(x4)	  x4:0x800085ac x25=0x00000000 PA:0x800085b8
       41315000	      4130	80000dd8	ff020603	lb	x12,-16(x4)	  x4:0x800085ac x12=0x00000000 PA:0x8000859c
       41325000	      4131	80000ddc	63fbb5b7	lui	x11,0x63fbb	 x11=0x63fbb000
       41335000	      4132	80000de0	fff20783	lb	x15,-1(x4)	  x4:0x800085ac x15=0x00000000 PA:0x800085ab
       41345000	      4133	80000de4	01203333	sltu	x6,x0,x18	  x0:0x00000000 x18:0x00000001  x6=0x00000001
       41355000	      4134	80000de8	018ddc93	srli	x25,x27,0x18	 x27:0x80009fc4 x25=0x00000080
       41365000	      4135	80000dec	00324f83	lbu	x31,3(x4)	  x4:0x800085ac x31=0x00000000 PA:0x800085af
       41375000	      4136	80000df0	fe720aa3	sb	x7,-11(x4)	  x4:0x800085ac  x7:0x0000020a PA:0x800085a1
       41385000	      4137	80000df4	ff824583	lbu	x11,-8(x4)	  x4:0x800085ac x11=0x00000000 PA:0x800085a4
       41395000	      4138	80000df8	9d2c7013	andi	x0,x24,-1582	 x24:0x00000000
       41405000	      4139	80000dfc	00a25103	lhu	x2,10(x4)	  x4:0x800085ac  x2=0x00000000 PA:0x800085b6
       41415000	      4140	80000e00	00ca54b3	srl	x9,x20,x12	 x20:0x00000000 x12:0x00000000  x9=0x00000000
       41425000	      4141	80000e04	01f68333	add	x6,x13,x31	 x13:0x00000000 x31:0x00000000  x6=0x00000000
       41435000	      4142	80000e08	01e8ed33	or	x26,x17,x30	 x17:0x00000000 x30:0x00000000 x26=0x00000000
       41445000	      4143	80000e0c	00a24303	lbu	x6,10(x4)	  x4:0x800085ac  x6=0x00000000 PA:0x800085b6
       41455000	      4144	80000e10	ffb209a3	sb	x27,-13(x4)	  x4:0x800085ac x27:0x80009fc4 PA:0x8000859f
       41465000	      4145	80000e14	00221603	lh	x12,2(x4)	  x4:0x800085ac x12=0x00000000 PA:0x800085ae
       41475000	      4146	00000000	00000013	addi	x0,x0,0	  x0:0x00000000
       41485000	      4147	80000e18	00c21183	lh	x3,12(x4)	  x4:0x800085ac  x3=0x00000000 PA:0x800085b8
       41495000	      4148	80000e1c	ffc22983	lw	x19,-4(x4)	  x4:0x800085ac x19=0x00000000 PA:0x800085a8
       41505000	      4149	80000e20	fe320ba3	sb	x3,-9(x4)	  x4:0x800085ac  x3:0x00000000 PA:0x800085a3
       41515000	      4150	80000e24	9df05697	auipc	x13,0x9df05	 x13=0x1df05e20
       41525000	      4151	80000e28	00825a03	lhu	x20,8(x4)	  x4:0x800085ac x20=0x00000000 PA:0x800085b4
       41535000	      4152	80000e2c	01822623	sw	x24,12(x4)	  x4:0x800085ac x24:0x00000000 PA:0x800085b8
       41545000	      4153	80000e30	b5adf893	andi	x17,x27,-1190	 x27:0x80009fc4 x17=0x80009b40
       41555000	      4154	80000e34	00c20383	lb	x7,12(x4)	  x4:0x800085ac  x7=0x00000000 PA:0x800085b8
       41565000	      4155	80000e38	ff425383	lhu	x7,-12(x4)	  x4:0x800085ac  x7=0x00000a00 PA:0x800085a0
       41575000	      4156	80000e3c	ff924583	lbu	x11,-7(x4)	  x4:0x800085ac x11=0x00000000 PA:0x800085a5
       41585000	      4157	80000e40	01831293	slli	x5,x6,0x18	  x6:0x00000000  x5=0x00000000
       41595000	      4158	80000e44	40d75493	srai	x9,x14,0xd	 x14:0x0000078d  x9=0x00000000
       41605000	      4159	80000e48	00924103	lbu	x2,9(x4)	  x4:0x800085ac  x2=0x00000000 PA:0x800085b5
       41615000	      4160	80000e4c	40d2dd93	srai	x27,x5,0xd	  x5:0x00000000 x27=0x00000000
       41625000	      4161	80000e50	00d0bf33	sltu	x30,x1,x13	  x1:0x0000078d x13:0x1df05e20 x30=0x00000001
       41635000	      4162	80000e54	0c5d0513	addi	x10,x26,197	 x26:0x00000000 x10=0x000000c5
       41645000	      4163	80000e58	01b6c7b3	xor	x15,x13,x27	 x13:0x1df05e20 x27:0x00000000 x15=0x1df05e20
       41655000	      4164	80000e5c	00120903	lb	x18,1(x4)	  x4:0x800085ac x18=0x00000000 PA:0x800085ad
       41665000	      4165	80000e60	fe220a23	sb	x2,-12(x4)	  x4:0x800085ac  x2:0x00000000 PA:0x800085a0
       41675000	      4166	80000e64	beaf4693	xori	x13,x30,-1046	 x30:0x00000001 x13=0xfffffbeb
       41685000	      4167	80000e68	404ad093	srai	x1,x21,0x4	 x21:0x80009fc4  x1=0xf80009fc
       41695000	      4168	80000e6c	50217493	andi	x9,x2,1282	  x2:0x00000000  x9=0x00000000
       41705000	      4169	80000e70	26c0b817	auipc	x16,0x26c0b	 x16=0xa6c0be6c
       41715000	      4170	80000e74	a3defeb7	lui	x29,0xa3def	 x29=0xa3def000
       41725000	      4171	80000e78	384b3313	sltiu	x6,x22,900	 x22:0x00000001  x6=0x00000001
       41735000	      4172	80000e7c	00000013	addi	x0,x0,0	  x0:0x00000000
       41745000	      4173	80000e80	418a08b3	sub	x17,x20,x24	 x20:0x00000000 x24:0x00000000 x17=0x00000000
       41755000	      4174	80000e84	00de5493	srli	x9,x28,0xd	 x28:0x80009f38  x9=0x00040004
       41765000	      4175	80000e88	8ce7ef37	lui	x30,0x8ce7e	 x30=0x8ce7e000
       41775000	      4176	80000e8c	00cf6463	bltu	x30,x12,80000e94	 x30:0x8ce7e000 x12:0x00000000
       41785000	      4177	80000e90	00e65313	srli	x6,x12,0xe	 x12:0x00000000  x6=0x00000000
       41795000	      4178	80000e94	00b449b3	xor	x19,x8,x11	  x8:0x0fffffb4 x11:0x00000000 x19=0x0fffffb4
       41805000	      4179	80000e98	04d71663	bne	x14,x13,80000ee4	 x14:0x0000078d x13:0xfffffbeb
       41815000	      4180	00000000	00000013	addi	x0,x0,0	  x0:0x00000000
       41825000	      4181	80000ee0	00000013	addi	x0,x0,0	  x0:0x00000000
       41835000	      4182	80000ee4	6c5adc97	auipc	x25,0x6c5ad	 x25=0xec5adee0
       41845000	      4183	80000ee8	405c5413	srai	x8,x24,0x5	 x24:0x00000000  x8=0x00000000
       41855000	      4184	80000eec	a8f38313	addi	x6,x7,-1393	  x7:0x00000a00  x6=0x0000048f
       41865000	      4185	80000ef0	03ea4063	blt	x20,x30,80000f10	 x20:0x00000000 x30:0x8ce7e000
       41875000	      4186	80000ef4	ddf66613	ori	x12,x12,-545	 x12:0x00000000 x12=0xfffffddf
       41885000	      4187	80000ef8	c25e3413	sltiu	x8,x28,-987	 x28:0x80009f38  x8=0x00000001
       41895000	      4188	80000efc	03175e63	bge	x14,x17,80000f38	 x14:0x0000078d x17:0x00000000
       41905000	      4189	00000000	00000013	addi	x0,x0,0	  x0:0x00000000
       41915000	      4190	80000f34	00000013	addi	x0,x0,0	  x0:0x00000000
       41925000	      4191	80000f38	3fa16c93	ori	x25,x2,1018	  x2:0x00000000 x25=0x000003fa
       41935000	      4192	80000f3c	d866dc17	auipc	x24,0xd866d	 x24=0x5866df38
       41945000	      4193	80000f40	01f91463	bne	x18,x31,80000f48	 x18:0x00000000 x31:0x00000000
       41955000	      4194	80000f44	270fb613	sltiu	x12,x31,624	 x31:0x00000000 x12=0x00000001
       41965000	      4195	80000f48	cf5e4093	xori	x1,x28,-779	 x28:0x80009f38  x1=0x7fff63cd
       41975000	      4196	80000f4c	4082d2b3	sra	x5,x5,x8	  x5:0x00000000  x8:0x00000001  x5=0x00000000
       41985000	      4197	80000f50	00145033	srl	x0,x8,x1	  x8:0x00000001  x1:0x7fff63cd
       41995000	      4198	80000f54	04e28263	beq	x5,x14,80000f98	  x5:0x00000000 x14:0x0000078d
       42005000	      4199	80000f58	400e8933	sub	x18,x29,x0	 x29:0xa3def000  x0:0x00000000 x18=0xa3def000
       42015000	      4200	80000f5c	4086deb3	sra	x29,x13,x8	 x13:0xfffffbeb  x8:0x00000001 x29=0xfffffdf5
       42025000	      4201	80000f60	bfc94a13	xori	x20,x18,-1028	 x18:0xa3def000 x20=0x5c210bfc
       42035000	      4202	80000f64	7a8e6d93	ori	x27,x28,1960	 x28:0x80009f38 x27=0x80009fb8
       42045000	      4203	80000f68	014cd313	srli	x6,x25,0x14	 x25:0x000003fa  x6=0x00000000
       42055000	      4204	80000f6c	c1830c93	addi	x25,x6,-1000	  x6:0x00000000 x25=0xfffffc18
       42065000	      4205	80000f70	04178463	beq	x15,x1,80000fb8	 x15:0x1df05e20  x1:0x7fff63cd
       42075000	      4206	80000f74	014aad33	slt	x26,x21,x20	 x21:0x80009fc4 x20:0x5c210bfc x26=0x00000001
       42085000	      4207	80000f78	73e2fc13	andi	x24,x5,1854	  x5:0x00000000 x24=0x00000000
       42095000	      4208	80000f7c	2fb3a913	slti	x18,x7,763	  x7:0x00000a00 x18=0x00000000
       42105000	      4209	80000f80	403c59b3	sra	x19,x24,x3	 x24:0x00000000  x3:0x00000000 x19=0x00000000
       42115000	      4210	80000f84	032d6463	bltu	x26,x18,80000fac	 x26:0x00000001 x18:0x00000000
       42125000	      4211	80000f88	03770c63	beq	x14,x23,80000fc0	 x14:0x0000078d x23:0xf091aa4a
       42135000	      4212	80000f8c	1399d1b7	lui	x3,0x1399d	  x3=0x1399d000
       42145000	      4213	80000f90	001164b3	or	x9,x2,x1	  x2:0x00000000  x1:0x7fff63cd  x9=0x7fff63cd
       42155000	      4214	80000f94	01836a63	bltu	x6,x24,80000fa8	  x6:0x00000000 x24:0x00000000
       42165000	      4215	80000f98	00ff6a33	or	x20,x30,x15	 x30:0x8ce7e000 x15:0x1df05e20 x20=0x9df7fe20
       42175000	      4216	80000f9c	00ed5e93	srli	x29,x26,0xe	 x26:0x00000001 x29=0x00000000
       42185000	      4217	80000fa0	03058e63	beq	x11,x16,80000fdc	 x11:0x00000000 x16:0xa6c0be6c
       42195000	      4218	80000fa4	9943c693	xori	x13,x7,-1644	  x7:0x00000a00 x13=0xfffff394
       42205000	      4219	80000fa8	01763c33	sltu	x24,x12,x23	 x12:0x00000001 x23:0xf091aa4a x24=0x00000001
       42215000	      4220	80000fac	a4aa0013	addi	x0,x20,-1462	 x20:0x9df7fe20
       42225000	      4221	80000fb0	00a97c63	bgeu	x18,x10,80000fc8	 x18:0x00000000 x10:0x000000c5
       42235000	      4222	80000fb4	03359863	bne	x11,x19,80000fe4	 x11:0x00000000 x19:0x00000000
       42245000	      4223	80000fb8	0127bb33	sltu	x22,x15,x18	 x15:0x1df05e20 x18:0x00000000 x22=0x00000000
       42255000	      4224	80000fbc	4182dc13	srai	x24,x5,0x18	  x5:0x00000000 x24=0x00000000
       42265000	      4225	80000fc0	4855ef93	ori	x31,x11,1157	 x11:0x00000000 x31=0x00000485
       42275000	      4226	80000fc4	3e5f0d93	addi	x27,x30,997	 x30:0x8ce7e000 x27=0x8ce7e3e5
       42285000	      4227	80000fc8	014f9e93	slli	x29,x31,0x14	 x31:0x00000485 x29=0x48500000
       42295000	      4228	80000fcc	01064833	xor	x16,x12,x16	 x12:0x00000001 x16:0xa6c0be6c x16=0xa6c0be6d
       42305000	      4229	80000fd0	47e5b793	sltiu	x15,x11,1150	 x11:0x00000000 x15=0x00000001
       42315000	      4230	80000fd4	1521ce93	xori	x29,x3,338	  x3:0x1399d000 x29=0x1399d152
       42325000	      4231	80000fd8	007fa6b3	slt	x13,x31,x7	 x31:0x00000485  x7:0x00000a00 x13=0x00000001
       42335000	      4232	80000fdc	00465793	srli	x15,x12,0x4	 x12:0x00000001 x15=0x00000000
       42345000	      4233	80000fe0	1e076493	ori	x9,x14,480	 x14:0x0000078d  x9=0x000007ed
       42355000	      4234	80000fe4	03117263	bgeu	x2,x17,80001008	  x2:0x00000000 x17:0x00000000
       42365000	      4235	00000000	00000013	addi	x0,x0,0	  x0:0x00000000
       42375000	      4236	80001004	00000013	addi	x0,x0,0	  x0:0x00000000
       42385000	      4237	80001008	01185593	srli	x11,x16,0x11	 x16:0xa6c0be6d x11=0x00005360
       42395000	      4238	8000100c	978bf113	andi	x2,x23,-1672	 x23:0xf091aa4a  x2=0xf091a848
       42405000	      4239	80001010	4034df93	srai	x31,x9,0x3	  x9:0x000007ed x31=0x000000fd
       42415000	      4240	80001014	26674413	xori	x8,x14,614	 x14:0x0000078d  x8=0x000005eb
       42425000	      4241	80001018	da0fc193	xori	x3,x31,-608	 x31:0x000000fd  x3=0xfffffd5d
       42435000	      4242	8000101c	02c8e063	bltu	x17,x12,8000103c	 x17:0x00000000 x12:0x00000001
       42445000	      4243	00000000	00000013	addi	x0,x0,0	  x0:0x00000000
       42455000	      4244	80001038	00000013	addi	x0,x0,0	  x0:0x00000000
       42465000	      4245	8000103c	02b4dc63	bge	x9,x11,80001074	  x9:0x000007ed x11:0x00005360
       42475000	      4246	80001040	00000013	addi	x0,x0,0	  x0:0x00000000
       42485000	      4247	80001044	41855413	srai	x8,x10,0x18	 x10:0x000000c5  x8=0x00000000
       42495000	      4248	80001048	41035013	srai	x0,x6,0x10	  x6:0x00000000
       42505000	      4249	8000104c	015383b3	add	x7,x7,x21	  x7:0x00000a00 x21:0x80009fc4  x7=0x8000a9c4
       42515000	      4250	80001050	004b8f33	add	x30,x23,x4	 x23:0xf091aa4a  x4:0x800085ac x30=0x70922ff6
       42525000	      4251	80001054	00000013	addi	x0,x0,0	  x0:0x00000000
       42535000	      4252	80001058	1d3ec013	xori	x0,x29,467	 x29:0x1399d152
       42545000	      4253	8000105c	002ecc63	blt	x29,x2,80001074	 x29:0x1399d152  x2:0xf091a848
       42555000	      4254	80001060	02e95c63	bge	x18,x14,80001098	 x18:0x00000000 x14:0x0000078d
       42565000	      4255	80001064	0159f533	and	x10,x19,x21	 x19:0x00000000 x21:0x80009fc4 x10=0x00000000
       42575000	      4256	80001068	417c0633	sub	x12,x24,x23	 x24:0x00000000 x23:0xf091aa4a x12=0x0f6e55b6
       42585000	      4257	8000106c	2a51f0b7	lui	x1,0x2a51f	  x1=0x2a51f000
       42595000	      4258	80001070	40c48233	sub	x4,x9,x12	  x9:0x000007ed x12:0x0f6e55b6  x4=0xf091b237
       42605000	      4259	80001074	26d85f97	auipc	x31,0x26d85	 x31=0xa6d86070
       42615000	      4260	80001078	02f3d463	bge	x7,x15,800010a0	  x7:0x8000a9c4 x15:0x00000000
       42625000	      4261	8000107c	2d092813	slti	x16,x18,720	 x18:0x00000000 x16=0x00000001
       42635000	      4262	80001080	14abcc13	xori	x24,x23,330	 x23:0xf091aa4a x24=0xf091ab00
       42645000	      4263	80001084	402e5493	srai	x9,x28,0x2	 x28:0x80009f38  x9=0xe00027ce
       42655000	      4264	80001088	023e9063	bne	x29,x3,800010a8	 x29:0x1399d152  x3:0xfffffd5d
       42665000	      4265	00000000	00000013	addi	x0,x0,0	  x0:0x00000000
       42675000	      4266	800010a4	00000013	addi	x0,x0,0	  x0:0x00000000
       42685000	      4267	800010a8	417fd6b3	sra	x13,x31,x23	 x31:0xa6d86070 x23:0xf091aa4a x13=0xffe9b618
       42695000	      4268	800010ac	0035e5b3	or	x11,x11,x3	 x11:0x00005360  x3:0xfffffd5d x11=0xffffff7d
       42705000	      4269	800010b0	f4b7a413	slti	x8,x15,-181	 x15:0x00000000  x8=0x00000000
       42715000	      4270	800010b4	40a553b3	sra	x7,x10,x10	 x10:0x00000000 x10:0x00000000  x7=0x00000000
       42725000	      4271	800010b8	01bfc233	xor	x4,x31,x27	 x31:0xa6d86070 x27:0x8ce7e3e5  x4=0x2a3f8395
       42735000	      4272	800010bc	40f9d593	srai	x11,x19,0xf	 x19:0x00000000 x11=0x00000000
       42745000	      4273	800010c0	012f0d33	add	x26,x30,x18	 x30:0x70922ff6 x18:0x00000000 x26=0x70922ff6
       42755000	      4274	800010c4	026cf663	bgeu	x25,x6,800010f0	 x25:0xfffffc18  x6:0x00000000
       42765000	      4275	00000000	00000013	addi	x0,x0,0	  x0:0x00000000
       42775000	      4276	800010ec	00000013	addi	x0,x0,0	  x0:0x00000000
       42785000	      4277	800010f0	f8f52d93	slti	x27,x10,-113	 x10:0x00000000 x27=0x00000000
       42795000	      4278	800010f4	007bc463	blt	x23,x7,800010fc	 x23:0xf091aa4a  x7:0x00000000
       42805000	      4279	00000000	00000013	addi	x0,x0,0	  x0:0x00000000
       42815000	      4280	800010f8	00000013	addi	x0,x0,0	  x0:0x00000000
       42825000	      4281	800010fc	02a36263	bltu	x6,x10,80001120	  x6:0x00000000 x10:0x00000000
       42835000	      4282	80001100	02c87263	bgeu	x16,x12,80001124	 x16:0x00000001 x12:0x0f6e55b6
       42845000	      4283	80001104	77b13413	sltiu	x8,x2,1915	  x2:0xf091a848  x8=0x00000000
       42855000	      4284	80001108	413bd493	srai	x9,x23,0x13	 x23:0xf091aa4a  x9=0xfffffe12
       42865000	      4285	8000110c	00000013	addi	x0,x0,0	  x0:0x00000000
       42875000	      4286	80001110	00cf77b3	and	x15,x30,x12	 x30:0x70922ff6 x12:0x0f6e55b6 x15=0x000205b6
       42885000	      4287	80001114	00000013	addi	x0,x0,0	  x0:0x00000000
       42895000	      4288	80001118	01e3da33	srl	x20,x7,x30	  x7:0x00000000 x30:0x70922ff6 x20=0x00000000
       42905000	      4289	8000111c	400086b3	sub	x13,x1,x0	  x1:0x2a51f000  x0:0x00000000 x13=0x2a51f000
       42915000	      4290	80001120	009a0933	add	x18,x20,x9	 x20:0x00000000  x9:0xfffffe12 x18=0xfffffe12
       42925000	      4291	80001124	00f0f663	bgeu	x1,x15,80001130	  x1:0x2a51f000 x15:0x000205b6
       42935000	      4292	00000000	00000013	addi	x0,x0,0	  x0:0x00000000
       42945000	      4293	8000112c	00000013	addi	x0,x0,0	  x0:0x00000000
       42955000	      4294	80001130	01738463	beq	x7,x23,80001138	  x7:0x00000000 x23:0xf091aa4a
       42965000	      4295	80001134	01424833	xor	x16,x4,x20	  x4:0x2a3f8395 x20:0x00000000 x16=0x2a3f8395
       42975000	      4296	80001138	01a9ca63	blt	x19,x26,8000114c	 x19:0x00000000 x26:0x70922ff6
       42985000	      4297	00000000	00000013	addi	x0,x0,0	  x0:0x00000000
       42995000	      4298	80001148	00000013	addi	x0,x0,0	  x0:0x00000000
       43005000	      4299	8000114c	03964463	blt	x12,x25,80001174	 x12:0x0f6e55b6 x25:0xfffffc18
       43015000	      4300	80001150	0096c8b3	xor	x17,x13,x9	 x13:0x2a51f000  x9:0xfffffe12 x17=0xd5ae0e12
       43025000	      4301	80001154	84956d93	ori	x27,x10,-1975	 x10:0x00000000 x27=0xfffff849
       43035000	      4302	80001158	0e108c63	beq	x1,x1,80001250	  x1:0x2a51f000  x1:0x2a51f000
       43045000	      4303	00000000	00000013	addi	x0,x0,0	  x0:0x00000000
       43055000	      4304	8000124c	00000013	addi	x0,x0,0	  x0:0x00000000
       43065000	      4305	80001250	001dc1b3	xor	x3,x27,x1	 x27:0xfffff849  x1:0x2a51f000  x3=0xd5ae0849
       43075000	      4306	80001254	0257ee63	bltu	x15,x5,80001290	 x15:0x000205b6  x5:0x00000000
       43085000	      4307	80001258	00b87833	and	x16,x16,x11	 x16:0x2a3f8395 x11:0x00000000 x16=0x00000000
       43095000	      4308	8000125c	0143c333	xor	x6,x7,x20	  x7:0x00000000 x20:0x00000000  x6=0x00000000
       43105000	      4309	80001260	5c607493	andi	x9,x0,1478	  x0:0x00000000  x9=0x00000000
       43115000	      4310	80001264	04790593	addi	x11,x18,71	 x18:0xfffffe12 x11=0xfffffe59
       43125000	      4311	80001268	00000013	addi	x0,x0,0	  x0:0x00000000
       43135000	      4312	8000126c	016947b3	xor	x15,x18,x22	 x18:0xfffffe12 x22:0x00000000 x15=0xfffffe12
       43145000	      4313	80001270	0cadf993	andi	x19,x27,202	 x27:0xfffff849 x19=0x00000048
       43155000	      4314	80001274	409857b3	sra	x15,x16,x9	 x16:0x00000000  x9:0x00000000 x15=0x00000000
       43165000	      4315	80001278	3c532217	auipc	x4,0x3c532	  x4=0xbc533274
       43175000	      4316	8000127c	fe8bfe93	andi	x29,x23,-24	 x23:0xf091aa4a x29=0xf091aa48
       43185000	      4317	80001280	401485b3	sub	x11,x9,x1	  x9:0x00000000  x1:0x2a51f000 x11=0xd5ae1000
       43195000	      4318	80001284	d4994913	xori	x18,x18,-695	 x18:0xfffffe12 x18=0x0000035b
       43205000	      4319	80001288	616d6817	auipc	x16,0x616d6	 x16=0xe16d7284
       43215000	      4320	8000128c	c0cd8213	addi	x4,x27,-1012	 x27:0xfffff849  x4=0xfffff455
       43225000	      4321	80001290	002a9233	sll	x4,x21,x2	 x21:0x80009fc4  x2:0xf091a848  x4=0x009fc400
       43235000	      4322	80001294	05631663	bne	x6,x22,800012e0	  x6:0x00000000 x22:0x00000000
       43245000	      4323	80001298	01367c33	and	x24,x12,x19	 x12:0x0f6e55b6 x19:0x00000048 x24=0x00000000
       43255000	      4324	8000129c	0144c6b3	xor	x13,x9,x20	  x9:0x00000000 x20:0x00000000 x13=0x00000000
       43265000	      4325	800012a0	a888f793	andi	x15,x17,-1400	 x17:0xd5ae0e12 x15=0xd5ae0a00
       43275000	      4326	800012a4	01f571b3	and	x3,x10,x31	 x10:0x00000000 x31:0xa6d86070  x3=0x00000000
       43285000	      4327	800012a8	9ae8e2b7	lui	x5,0x9ae8e	  x5=0x9ae8e000
       43295000	      4328	800012ac	644fcf13	xori	x30,x31,1604	 x31:0xa6d86070 x30=0xa6d86634
       43305000	      4329	800012b0	00000013	addi	x0,x0,0	  x0:0x00000000
       43315000	      4330	800012b4	01aa2133	slt	x2,x20,x26	 x20:0x00000000 x26:0x70922ff6  x2=0x00000001
       43325000	      4331	800012b8	00000013	addi	x0,x0,0	  x0:0x00000000
       43335000	      4332	800012bc	17db6793	ori	x15,x22,381	 x22:0x00000000 x15=0x0000017d
       43345000	      4333	800012c0	e9ace713	ori	x14,x25,-358	 x25:0xfffffc18 x14=0xfffffe9a
       43355000	      4334	800012c4	a9f406b7	lui	x13,0xa9f40	 x13=0xa9f40000
       43365000	      4335	800012c8	0072ac33	slt	x24,x5,x7	  x5:0x9ae8e000  x7:0x00000000 x24=0x00000001
       43375000	      4336	800012cc	00944d33	xor	x26,x8,x9	  x8:0x00000000  x9:0x00000000 x26=0x00000000
       43385000	      4337	800012d0	5bb8c493	xori	x9,x17,1467	 x17:0xd5ae0e12  x9=0xd5ae0ba9
       43395000	      4338	800012d4	da03f617	auipc	x12,0xda03f	 x12=0x5a0402d0
       43405000	      4339	800012d8	b4f5a813	slti	x16,x11,-1201	 x11:0xd5ae1000 x16=0x00000001
       43415000	      4340	800012dc	05611863	bne	x2,x22,8000132c	  x2:0x00000001 x22:0x00000000
       43425000	      4341	00000000	00000013	addi	x0,x0,0	  x0:0x00000000
       43435000	      4342	80001328	00000013	addi	x0,x0,0	  x0:0x00000000
       43445000	      4343	8000132c	416bd893	srai	x17,x23,0x16	 x23:0xf091aa4a x17=0xffffffc2
       43455000	      4344	80001330	01973c33	sltu	x24,x14,x25	 x14:0xfffffe9a x25:0xfffffc18 x24=0x00000000
       43465000	      4345	80001334	00000013	addi	x0,x0,0	  x0:0x00000000
       43475000	      4346	80001338	c47dcd13	xori	x26,x27,-953	 x27:0xfffff849 x26=0x0000040e
       43485000	      4347	8000133c	056a1463	bne	x20,x22,80001384	 x20:0x00000000 x22:0x00000000
       43495000	      4348	80001340	8ed6bc93	sltiu	x25,x13,-1811	 x13:0xa9f40000 x25=0x00000001
       43505000	      4349	80001344	41480533	sub	x10,x16,x20	 x16:0x00000001 x20:0x00000000 x10=0x00000001
       43515000	      4350	80001348	4a71a197	auipc	x3,0x4a71a	  x3=0xca71b344
       43525000	      4351	8000134c	33fba413	slti	x8,x23,831	 x23:0xf091aa4a  x8=0x00000001
       43535000	      4352	80001350	404002b3	sub	x5,x0,x4	  x0:0x00000000  x4:0x009fc400  x5=0xff603c00
       43545000	      4353	80001354	01291eb3	sll	x29,x18,x18	 x18:0x0000035b x18:0x0000035b x29=0xd8000000
       43555000	      4354	80001358	48f94b13	xori	x22,x18,1167	 x18:0x0000035b x22=0x000007d4
       43565000	      4355	8000135c	a8083493	sltiu	x9,x16,-1408	 x16:0x00000001  x9=0x00000001
       43575000	      4356	80001360	011229b3	slt	x19,x4,x17	  x4:0x009fc400 x17:0xffffffc2 x19=0x00000000
       43585000	      4357	80001364	01300b33	add	x22,x0,x19	  x0:0x00000000 x19:0x00000000 x22=0x00000000
       43595000	      4358	80001368	01901c63	bne	x0,x25,80001380	  x0:0x00000000 x25:0x00000001
       43605000	      4359	00000000	00000013	addi	x0,x0,0	  x0:0x00000000
       43615000	      4360	8000137c	00000013	addi	x0,x0,0	  x0:0x00000000
       43625000	      4361	80001380	8d38bf93	sltiu	x31,x17,-1837	 x17:0xffffffc2 x31=0x00000000
       43635000	      4362	80001384	2e75a9b7	lui	x19,0x2e75a	 x19=0x2e75a000
       43645000	      4363	80001388	00667463	bgeu	x12,x6,80001390	 x12:0x5a0402d0  x6:0x00000000
       43655000	      4364	00000000	00000013	addi	x0,x0,0	  x0:0x00000000
       43665000	      4365	8000138c	00000013	addi	x0,x0,0	  x0:0x00000000
       43675000	      4366	80001390	4155d113	srai	x2,x11,0x15	 x11:0xd5ae1000  x2=0xfffffead
       43685000	      4367	80001394	020be463	bltu	x23,x0,800013bc	 x23:0xf091aa4a  x0:0x00000000
       43695000	      4368	80001398	9c454137	lui	x2,0x9c454	  x2=0x9c454000
       43705000	      4369	8000139c	02575863	bge	x14,x5,800013cc	 x14:0xfffffe9a  x5:0xff603c00
       43715000	      4370	00000000	00000013	addi	x0,x0,0	  x0:0x00000000
       43725000	      4371	800013c8	00000013	addi	x0,x0,0	  x0:0x00000000
       43735000	      4372	800013cc	02d1c263	blt	x3,x13,800013f0	  x3:0xca71b344 x13:0xa9f40000
       43745000	      4373	800013d0	b37eb293	sltiu	x5,x29,-1225	 x29:0xd8000000  x5=0x00000001
       43755000	      4374	800013d4	05834263	blt	x6,x24,80001418	  x6:0x00000000 x24:0x00000000
       43765000	      4375	800013d8	01c6d463	bge	x13,x28,800013e0	 x13:0xa9f40000 x28:0x80009f38
       43775000	      4376	00000000	00000013	addi	x0,x0,0	  x0:0x00000000
       43785000	      4377	800013dc	00000013	addi	x0,x0,0	  x0:0x00000000
       43795000	      4378	800013e0	205c7a13	andi	x20,x24,517	 x24:0x00000000 x20=0x00000000
       43805000	      4379	800013e4	0106fdb3	and	x27,x13,x16	 x13:0xa9f40000 x16:0x00000001 x27=0x00000000
       43815000	      4380	800013e8	407788b3	sub	x17,x15,x7	 x15:0x0000017d  x7:0x00000000 x17=0x0000017d
       43825000	      4381	800013ec	41c6d013	srai	x0,x13,0x1c	 x13:0xa9f40000
       43835000	      4382	800013f0	00046433	or	x8,x8,x0	  x8:0x00000001  x0:0x00000000  x8=0x00000001
       43845000	      4383	800013f4	cd427c13	andi	x24,x4,-812	  x4:0x009fc400 x24=0x009fc400
       43855000	      4384	800013f8	00c1f463	bgeu	x3,x12,80001400	  x3:0xca71b344 x12:0x5a0402d0
       43865000	      4385	00000000	00000013	addi	x0,x0,0	  x0:0x00000000
       43875000	      4386	800013fc	00000013	addi	x0,x0,0	  x0:0x00000000
       43885000	      4387	80001400	3a9b3813	sltiu	x16,x22,937	 x22:0x00000000 x16=0x00000001
       43895000	      4388	80001404	41c50d33	sub	x26,x10,x28	 x10:0x00000001 x28:0x80009f38 x26=0x7fff60c9
       43905000	      4389	80001408	00000013	addi	x0,x0,0	  x0:0x00000000
       43915000	      4390	8000140c	001e8b33	add	x22,x29,x1	 x29:0xd8000000  x1:0x2a51f000 x22=0x0251f000
       43925000	      4391	80001410	40fe0c13	addi	x24,x28,1039	 x28:0x80009f38 x24=0x8000a347
       43935000	      4392	80001414	b1f1c213	xori	x4,x3,-1249	  x3:0xca71b344  x4=0x358e485b
       43945000	      4393	80001418	40615eb3	sra	x29,x2,x6	  x2:0x9c454000  x6:0x00000000 x29=0x9c454000
       43955000	      4394	8000141c	73f3f713	andi	x14,x7,1855	  x7:0x00000000 x14=0x00000000
       43965000	      4395	80001420	023f9263	bne	x31,x3,80001444	 x31:0x00000000  x3:0xca71b344
       43975000	      4396	00000000	00000013	addi	x0,x0,0	  x0:0x00000000
       43985000	      4397	80001440	00000013	addi	x0,x0,0	  x0:0x00000000
       43995000	      4398	80001444	40790d33	sub	x26,x18,x7	 x18:0x0000035b  x7:0x00000000 x26=0x0000035b
       44005000	      4399	80001448	01c95f93	srli	x31,x18,0x1c	 x18:0x0000035b x31=0x00000000
       44015000	      4400	8000144c	0168b2b3	sltu	x5,x17,x22	 x17:0x0000017d x22:0x0251f000  x5=0x00000001
       44025000	      4401	80001450	01b12633	slt	x12,x2,x27	  x2:0x9c454000 x27:0x00000000 x12=0x00000001
       44035000	      4402	80001454	df9a3093	sltiu	x1,x20,-519	 x20:0x00000000  x1=0x00000001
       44045000	      4403	80001458	1f147c93	andi	x25,x8,497	  x8:0x00000001 x25=0x00000001
       44055000	      4404	8000145c	03fde063	bltu	x27,x31,8000147c	 x27:0x00000000 x31:0x00000000
       44065000	      4405	80001460	0086ca33	xor	x20,x13,x8	 x13:0xa9f40000  x8:0x00000001 x20=0xa9f40001
       44075000	      4406	80001464	00c97c63	bgeu	x18,x12,8000147c	 x18:0x0000035b x12:0x00000001
       44085000	      4407	00000000	00000013	addi	x0,x0,0	  x0:0x00000000
       44095000	      4408	80001478	00000013	addi	x0,x0,0	  x0:0x00000000
       44105000	      4409	8000147c	40a45a13	srai	x20,x8,0xa	  x8:0x00000001 x20=0x00000000
       44115000	      4410	80001480	5d75c993	xori	x19,x11,1495	 x11:0xd5ae1000 x19=0xd5ae15d7
       44125000	      4411	80001484	01325113	srli	x2,x4,0x13	  x4:0x358e485b  x2=0x000006b1
       44135000	      4412	80001488	2cca2413	slti	x8,x20,716	 x20:0x00000000  x8=0x00000001
       44145000	      4413	8000148c	91ec4437	lui	x8,0x91ec4	  x8=0x91ec4000
       44155000	      4414	80001490	00782f33	slt	x30,x16,x7	 x16:0x00000001  x7:0x00000000 x30=0x00000000
       44165000	      4415	80001494	01b90fb3	add	x31,x18,x27	 x18:0x0000035b x27:0x00000000 x31=0x0000035b
       44175000	      4416	80001498	0182f433	and	x8,x5,x24	  x5:0x00000001 x24:0x8000a347  x8=0x00000001
       44185000	      4417	8000149c	3bf2ee93	ori	x29,x5,959	  x5:0x00000001 x29=0x000003bf
       44195000	      4418	800014a0	00ba4733	xor	x14,x20,x11	 x20:0x00000000 x11:0xd5ae1000 x14=0xd5ae1000
       44205000	      4419	800014a4	000e62b3	or	x5,x28,x0	 x28:0x80009f38  x0:0x00000000  x5=0x80009f38
       44215000	      4420	800014a8	00000013	addi	x0,x0,0	  x0:0x00000000
       44225000	      4421	800014ac	02b8c063	blt	x17,x11,800014cc	 x17:0x0000017d x11:0xd5ae1000
       44235000	      4422	800014b0	01bd1a13	slli	x20,x26,0x1b	 x26:0x0000035b x20=0xd8000000
       44245000	      4423	800014b4	01410f33	add	x30,x2,x20	  x2:0x000006b1 x20:0xd8000000 x30=0xd80006b1
       44255000	      4424	800014b8	01f55033	srl	x0,x10,x31	 x10:0x00000001 x31:0x0000035b
       44265000	      4425	800014bc	4156dd33	sra	x26,x13,x21	 x13:0xa9f40000 x21:0x80009fc4 x26=0xfa9f4000
       44275000	      4426	800014c0	053a6463	bltu	x20,x19,80001508	 x20:0xd8000000 x19:0xd5ae15d7
       44285000	      4427	800014c4	8262f413	andi	x8,x5,-2010	  x5:0x80009f38  x8=0x80009820
       44295000	      4428	800014c8	00ba5d93	srli	x27,x20,0xb	 x20:0xd8000000 x27=0x001b0000
       44305000	      4429	800014cc	005d5a33	srl	x20,x26,x5	 x26:0xfa9f4000  x5:0x80009f38 x20=0x000000fa
       44315000	      4430	800014d0	01803a33	sltu	x20,x0,x24	  x0:0x00000000 x24:0x8000a347 x20=0x00000001
       44325000	      4431	800014d4	02fb9c63	bne	x23,x15,8000150c	 x23:0xf091aa4a x15:0x0000017d
       44335000	      4432	00000000	00000013	addi	x0,x0,0	  x0:0x00000000
       44345000	      4433	80001508	00000013	addi	x0,x0,0	  x0:0x00000000
       44355000	      4434	8000150c	00000013	addi	x0,x0,0	  x0:0x00000000
       44365000	      4435	80001510	01a60663	beq	x12,x26,8000151c	 x12:0x00000001 x26:0xfa9f4000
       44375000	      4436	80001514	01591433	sll	x8,x18,x21	 x18:0x0000035b x21:0x80009fc4  x8=0x000035b0
       44385000	      4437	80001518	41d6dd13	srai	x26,x13,0x1d	 x13:0xa9f40000 x26=0xfffffffd
       44395000	      4438	8000151c	00708463	beq	x1,x7,80001524	  x1:0x00000001  x7:0x00000000
       44405000	      4439	80001520	b142f613	andi	x12,x5,-1260	  x5:0x80009f38 x12=0x80009b10
       44415000	      4440	80001524	28aec513	xori	x10,x29,650	 x29:0x000003bf x10=0x00000135
       44425000	      4441	80001528	7add0413	addi	x8,x26,1965	 x26:0xfffffffd  x8=0x000007aa
       44435000	      4442	8000152c	00e6da63	bge	x13,x14,80001540	 x13:0xa9f40000 x14:0xd5ae1000
       44445000	      4443	80001530	01284863	blt	x16,x18,80001540	 x16:0x00000001 x18:0x0000035b
       44455000	      4444	00000000	00000013	addi	x0,x0,0	  x0:0x00000000
       44465000	      4445	8000153c	00000013	addi	x0,x0,0	  x0:0x00000000
       44475000	      4446	80001540	00f05833	srl	x16,x0,x15	  x0:0x00000000 x15:0x0000017d x16=0x00000000
       44485000	      4447	80001544	00c47333	and	x6,x8,x12	  x8:0x000007aa x12:0x80009b10  x6=0x00000300
       44495000	      4448	80001548	00e8b4b3	sltu	x9,x17,x14	 x17:0x0000017d x14:0xd5ae1000  x9=0x00000001
       44505000	      4449	8000154c	004e2f03	lw	x30,4(x28)	 x28:0x80009f38 x30=0x800069cc PA:0x80009f3c
       44515000	      4450	80001550	00735613	srli	x12,x6,0x7	  x6:0x00000300 x12=0x00000006
       44525000	      4451	80001554	038e0e13	addi	x28,x28,56	 x28:0x80009f38 x28=0x80009f70
       44535000	      4452	80001558	0015afb3	slt	x31,x11,x1	 x11:0xd5ae1000  x1:0x00000001 x31=0x00000001
       44545000	      4453	8000155c	440a8913	addi	x18,x21,1088	 x21:0x80009fc4 x18=0x8000a404
       44555000	      4454	80001560	01328b33	add	x22,x5,x19	  x5:0x80009f38 x19:0xd5ae15d7 x22=0x55aeb50f
       44565000	      4455	80001564	018b09b3	add	x19,x22,x24	 x22:0x55aeb50f x24:0x8000a347 x19=0xd5af5856
       44575000	      4456	80001568	6ef14397	auipc	x7,0x6ef14	  x7=0xeef15564
       44585000	      4457	8000156c	005a9193	slli	x3,x21,0x5	 x21:0x80009fc4  x3=0x0013f880
       44595000	      4458	80001570	110f0613	addi	x12,x30,272	 x30:0x800069cc x12=0x80006adc
       44605000	      4459	80001574	001f0c13	addi	x24,x30,1	 x30:0x800069cc x24=0x800069cd
       44615000	      4460	80001578	000c0c67	jalr	x24,x24,0	 x24:0x800069cd x24=0x80001578
       44625000	      4461	00000000	00000013	addi	x0,x0,0	  x0:0x00000000
       44635000	      4462	800069cc	00000013	addi	x0,x0,0	  x0:0x00000000
       44645000	      4463	800069d0	a20eadb7	lui	x27,0xa20ea	 x27=0xa20ea000
       44655000	      4464	800069d4	019ee233	or	x4,x29,x25	 x29:0x000003bf x25:0x00000001  x4=0x000003bf
       44665000	      4465	800069d8	417fdd13	srai	x26,x31,0x17	 x31:0x00000001 x26=0x00000000
       44675000	      4466	800069dc	021fc463	blt	x31,x1,80006a04	 x31:0x00000001  x1:0x00000001
       44685000	      4467	800069e0	01b14463	blt	x2,x27,800069e8	  x2:0x000006b1 x27:0xa20ea000
       44695000	      4468	800069e4	0c7cb997	auipc	x19,0xc7cb	 x19=0x8c7d19e0
       44705000	      4469	800069e8	00ec31b3	sltu	x3,x24,x14	 x24:0x80001578 x14:0xd5ae1000  x3=0x00000001
       44715000	      4470	800069ec	9d808813	addi	x16,x1,-1576	  x1:0x00000001 x16=0xfffff9d9
       44725000	      4471	800069f0	00301493	slli	x9,x0,0x3	  x0:0x00000000  x9=0x00000000
       44735000	      4472	800069f4	01b5d013	srli	x0,x11,0x1b	 x11:0xd5ae1000
       44745000	      4473	800069f8	400557b3	sra	x15,x10,x0	 x10:0x00000135  x0:0x00000000 x15=0x00000135
       44755000	      4474	800069fc	04db4463	blt	x22,x13,80006a44	 x22:0x55aeb50f x13:0xa9f40000
       44765000	      4475	80006a00	40b183b3	sub	x7,x3,x11	  x3:0x00000001 x11:0xd5ae1000  x7=0x2a51f001
       44775000	      4476	80006a04	004f8db3	add	x27,x31,x4	 x31:0x00000001  x4:0x000003bf x27=0x000003c0
       44785000	      4477	80006a08	006a4a63	blt	x20,x6,80006a1c	 x20:0x00000001  x6:0x00000300
       44795000	      4478	00000000	00000013	addi	x0,x0,0	  x0:0x00000000
       44805000	      4479	80006a18	00000013	addi	x0,x0,0	  x0:0x00000000
       44815000	      4480	80006a1c	00000013	addi	x0,x0,0	  x0:0x00000000
       44825000	      4481	80006a20	da430093	addi	x1,x6,-604	  x6:0x00000300  x1=0x000000a4
       44835000	      4482	80006a24	c85aa613	slti	x12,x21,-891	 x21:0x80009fc4 x12=0x00000001
       44845000	      4483	80006a28	a1b07913	andi	x18,x0,-1509	  x0:0x00000000 x18=0x00000000
       44855000	      4484	80006a2c	40e8d093	srai	x1,x17,0xe	 x17:0x0000017d  x1=0x00000000
       44865000	      4485	80006a30	dceacb13	xori	x22,x21,-562	 x21:0x80009fc4 x22=0x7fff620a
       44875000	      4486	80006a34	02be1263	bne	x28,x11,80006a58	 x28:0x80009f70 x11:0xd5ae1000
       44885000	      4487	00000000	00000013	addi	x0,x0,0	  x0:0x00000000
       44895000	      4488	80006a54	00000013	addi	x0,x0,0	  x0:0x00000000
       44905000	      4489	80006a58	001f06b3	add	x13,x30,x1	 x30:0x800069cc  x1:0x00000000 x13=0x800069cc
       44915000	      4490	80006a5c	004e2f03	lw	x30,4(x28)	 x28:0x80009f70 x30=0x80000220 PA:0x80009f74
       44925000	      4491	80006a60	003b49b3	xor	x19,x22,x3	 x22:0x7fff620a  x3:0x00000001 x19=0x7fff620b
       44935000	      4492	80006a64	014e0e13	addi	x28,x28,20	 x28:0x80009f70 x28=0x80009f84
       44945000	      4493	80006a68	9d5fa313	slti	x6,x31,-1579	 x31:0x00000001  x6=0x00000000
       44955000	      4494	80006a6c	26644db7	lui	x27,0x26644	 x27=0x26644000
       44965000	      4495	80006a70	001f0c13	addi	x24,x30,1	 x30:0x80000220 x24=0x80000221
       44975000	      4496	80006a74	000c0c67	jalr	x24,x24,0	 x24:0x80000221 x24=0x80006a74
       44985000	      4497	00000000	00000013	addi	x0,x0,0	  x0:0x00000000
       44995000	      4498	80000220	00000013	addi	x0,x0,0	  x0:0x00000000
       45005000	      4499	80000224	046a1063	bne	x20,x6,80000264	 x20:0x00000001  x6:0x00000000
       45015000	      4500	00000000	00000013	addi	x0,x0,0	  x0:0x00000000
       45025000	      4501	80000260	00000013	addi	x0,x0,0	  x0:0x00000000
       45035000	      4502	80000264	d151e793	ori	x15,x3,-747	  x3:0x00000001 x15=0xfffffd15
       45045000	      4503	80000268	00ddac33	slt	x24,x27,x13	 x27:0x26644000 x13:0x800069cc x24=0x00000000
       45055000	      4504	8000026c	33a5ef13	ori	x30,x11,826	 x11:0xd5ae1000 x30=0xd5ae133a
       45065000	      4505	80000270	01a726b3	slt	x13,x14,x26	 x14:0xd5ae1000 x26:0x00000000 x13=0x00000001
       45075000	      4506	80000274	04420263	beq	x4,x4,800002b8	  x4:0x000003bf  x4:0x000003bf
       45085000	      4507	00000000	00000013	addi	x0,x0,0	  x0:0x00000000
       45095000	      4508	800002b4	00000013	addi	x0,x0,0	  x0:0x00000000
       45105000	      4509	800002b8	a2e105b7	lui	x11,0xa2e10	 x11=0xa2e10000
       45115000	      4510	800002bc	02a19e63	bne	x3,x10,800002f8	  x3:0x00000001 x10:0x00000135
       45125000	      4511	00000000	00000013	addi	x0,x0,0	  x0:0x00000000
       45135000	      4512	800002f4	00000013	addi	x0,x0,0	  x0:0x00000000
       45145000	      4513	800002f8	58513593	sltiu	x11,x2,1413	  x2:0x000006b1 x11=0x00000000
       45155000	      4514	800002fc	00480933	add	x18,x16,x4	 x16:0xfffff9d9  x4:0x000003bf x18=0xfffffd98
       45165000	      4515	80000300	019cc863	blt	x25,x25,80000310	 x25:0x00000001 x25:0x00000001
       45175000	      4516	80000304	008068b3	or	x17,x0,x8	  x0:0x00000000  x8:0x000007aa x17=0x000007aa
       45185000	      4517	80000308	4fff7413	andi	x8,x30,1279	 x30:0xd5ae133a  x8=0x0000003a
       45195000	      4518	8000030c	ac7e2b13	slti	x22,x28,-1337	 x28:0x80009f84 x22=0x00000001
       45205000	      4519	80000310	1488c693	xori	x13,x17,328	 x17:0x000007aa x13=0x000006e2
       45215000	      4520	80000314	866f4d13	xori	x26,x30,-1946	 x30:0xd5ae133a x26=0x2a51eb5c
       45225000	      4521	80000318	033b4a63	blt	x22,x19,8000034c	 x22:0x00000001 x19:0x7fff620b
       45235000	      4522	00000000	00000013	addi	x0,x0,0	  x0:0x00000000
       45245000	      4523	80000348	00000013	addi	x0,x0,0	  x0:0x00000000
       45255000	      4524	8000034c	011c55b3	srl	x11,x24,x17	 x24:0x00000000 x17:0x000007aa x11=0x00000000
       45265000	      4525	80000350	27566193	ori	x3,x12,629	 x12:0x00000001  x3=0x00000275
       45275000	      4526	80000354	06eaf863	bgeu	x21,x14,800003c4	 x21:0x80009fc4 x14:0xd5ae1000
       45285000	      4527	80000358	00f27cb3	and	x25,x4,x15	  x4:0x000003bf x15:0xfffffd15 x25=0x00000115
       45295000	      4528	8000035c	43507c97	auipc	x25,0x43507	 x25=0xc3507358
       45305000	      4529	80000360	37c42293	slti	x5,x8,892	  x8:0x0000003a  x5=0x00000001
       45315000	      4530	80000364	008272b3	and	x5,x4,x8	  x4:0x000003bf  x8:0x0000003a  x5=0x0000003a
       45325000	      4531	80000368	00000013	addi	x0,x0,0	  x0:0x00000000
       45335000	      4532	8000036c	40bdd213	srai	x4,x27,0xb	 x27:0x26644000  x4=0x0004cc88
       45345000	      4533	80000370	da12b313	sltiu	x6,x5,-607	  x5:0x0000003a  x6=0x00000001
       45355000	      4534	80000374	014a59b3	srl	x19,x20,x20	 x20:0x00000001 x20:0x00000001 x19=0x00000000
       45365000	      4535	80000378	41f3d7b3	sra	x15,x7,x31	  x7:0x2a51f001 x31:0x00000001 x15=0x1528f800
       45375000	      4536	8000037c	00cad7b3	srl	x15,x21,x12	 x21:0x80009fc4 x12:0x00000001 x15=0x40004fe2
       45385000	      4537	80000380	7ea6d237	lui	x4,0x7ea6d	  x4=0x7ea6d000
       45395000	      4538	80000384	00006897	auipc	x17,0x6	 x17=0x80006380
       45405000	      4539	80000388	58488893	addi	x17,x17,1412	 x17:0x80006380 x17=0x80006904
       45415000	      4540	8000038c	92c43013	sltiu	x0,x8,-1748	  x8:0x0000003a
       45425000	      4541	80000390	7d9ea617	auipc	x12,0x7d9ea	 x12=0xfd9ea38c
       45435000	      4542	80000394	9054c593	xori	x11,x9,-1787	  x9:0x00000000 x11=0xfffff905
       45445000	      4543	80000398	190a3717	auipc	x14,0x190a3	 x14=0x990a3394
       45455000	      4544	8000039c	d4388893	addi	x17,x17,-701	 x17:0x80006904 x17=0x80006647
       45465000	      4545	800003a0	01327463	bgeu	x4,x19,800003a8	  x4:0x7ea6d000 x19:0x00000000
       45475000	      4546	00000000	00000013	addi	x0,x0,0	  x0:0x00000000
       45485000	      4547	800003a4	00000013	addi	x0,x0,0	  x0:0x00000000
       45495000	      4548	800003a8	2be88f67	jalr	x30,x17,702	 x17:0x80006647 x30=0x800003a8
       45505000	      4549	00000000	00000013	addi	x0,x0,0	  x0:0x00000000
       45515000	      4550	80006904	00000013	addi	x0,x0,0	  x0:0x00000000
       45525000	      4551	80006908	00e68463	beq	x13,x14,80006910	 x13:0x000006e2 x14:0x990a3394
       45535000	      4552	8000690c	a01e7c13	andi	x24,x28,-1535	 x28:0x80009f84 x24=0x80009a00
       45545000	      4553	80006910	fece0e13	addi	x28,x28,-20	 x28:0x80009f84 x28=0x80009f70
       45555000	      4554	80006914	000f8133	add	x2,x31,x0	 x31:0x00000001  x0:0x00000000  x2=0x00000001
       45565000	      4555	80006918	f59b6897	auipc	x17,0xf59b6	 x17=0x759bc914
       45575000	      4556	8000691c	c7650f93	addi	x31,x10,-906	 x10:0x00000135 x31=0xfffffdab
       45585000	      4557	80006920	430d8b13	addi	x22,x27,1072	 x27:0x26644000 x22=0x26644430
       45595000	      4558	80006924	b100e097	auipc	x1,0xb100e	  x1=0x31014920
       45605000	      4559	80006928	01ee2223	sw	x30,4(x28)	 x28:0x80009f70 x30:0x800003a8 PA:0x80009f74
       45615000	      4560	8000692c	0163f7b3	and	x15,x7,x22	  x7:0x2a51f001 x22:0x26644430 x15=0x22404000
       45625000	      4561	80006930	00f856b3	srl	x13,x16,x15	 x16:0xfffff9d9 x15:0x22404000 x13=0xfffff9d9
       45635000	      4562	80006934	00000013	addi	x0,x0,0	  x0:0x00000000
       45645000	      4563	80006938	408cd533	sra	x10,x25,x8	 x25:0xc3507358  x8:0x0000003a x10=0xfffffff0
       45655000	      4564	8000693c	90178f13	addi	x30,x15,-1791	 x15:0x22404000 x30=0x22403901
       45665000	      4565	80006940	01e375b3	and	x11,x6,x30	  x6:0x00000001 x30:0x22403901 x11=0x00000001
       45675000	      4566	80006944	6e597e93	andi	x29,x18,1765	 x18:0xfffffd98 x29=0x00000480
       45685000	      4567	80006948	251f8293	addi	x5,x31,593	 x31:0xfffffdab  x5=0xfffffffc
       45695000	      4568	8000694c	e2dfbf6f	jal	x30,8000694c	 x30=0x8000694c
       45705000	      4569	00000000	00000013	addi	x0,x0,0	  x0:0x00000000
       45715000	      4570	80002774	00000013	addi	x0,x0,0	  x0:0x00000000
       45725000	      4571	80002778	32009d37	lui	x26,0x32009	 x26=0x32009000
       45735000	      4572	8000277c	fc4e0e13	addi	x28,x28,-60	 x28:0x80009f70 x28=0x80009f34
       45745000	      4573	80002780	0081a5b3	slt	x11,x3,x8	  x3:0x00000275  x8:0x0000003a x11=0x00000000
       45755000	      4574	80002784	01ee2223	sw	x30,4(x28)	 x28:0x80009f34 x30:0x8000694c PA:0x80009f38
       45765000	      4575	80002788	0166afb3	slt	x31,x13,x22	 x13:0xfffff9d9 x22:0x26644430 x31=0x00000001
       45775000	      4576	8000278c	00006997	auipc	x19,0x6	 x19=0x80008788
       45785000	      4577	80002790	52a98993	addi	x19,x19,1322	 x19:0x80008788 x19=0x80008cb2
       45795000	      4578	80002794	61a26f13	ori	x30,x4,1562	  x4:0x7ea6d000 x30=0x7ea6d61a
       45805000	      4579	80002798	ff899923	sh	x24,-14(x19)	 x19:0x80008cb2 x24:0x80009a00 PA:0x80008ca4
       45815000	      4580	8000279c	0019c303	lbu	x6,1(x19)	 x19:0x80008cb2  x6=0x00000000 PA:0x80008cb3
       45825000	      4581	800027a0	e0edc193	xori	x3,x27,-498	 x27:0x26644000  x3=0xd99bbe0e
       45835000	      4582	800027a4	ff898ca3	sb	x24,-7(x19)	 x19:0x80008cb2 x24:0x80009a00 PA:0x80008cab
       45845000	      4583	800027a8	cd958717	auipc	x14,0xcd958	 x14=0x4d95a7a4
       45855000	      4584	800027ac	00899903	lh	x18,8(x19)	 x19:0x80008cb2 x18=0xffffe1d0 PA:0x80008cba
       45865000	      4585	800027b0	ff699a03	lh	x20,-10(x19)	 x19:0x80008cb2 x20=0x00000000 PA:0x80008ca8
       45875000	      4586	800027b4	01199423	sh	x17,8(x19)	 x19:0x80008cb2 x17:0x759bc914 PA:0x80008cba
       45885000	      4587	800027b8	7a1d4193	xori	x3,x26,1953	 x26:0x32009000  x3=0x320097a1
       45895000	      4588	800027bc	728e7d93	andi	x27,x28,1832	 x28:0x80009f34 x27=0x00000720
       45905000	      4589	800027c0	017f7633	and	x12,x30,x23	 x30:0x7ea6d61a x23:0xf091aa4a x12=0x7080820a
       45915000	      4590	800027c4	017450b3	srl	x1,x8,x23	  x8:0x0000003a x23:0xf091aa4a  x1=0x00000000
       45925000	      4591	800027c8	ff29cf03	lbu	x30,-14(x19)	 x19:0x80008cb2 x30=0x00000000 PA:0x80008ca4
       45935000	      4592	800027cc	00f9c103	lbu	x2,15(x19)	 x19:0x80008cb2  x2=0x000000d0 PA:0x80008cc1
       45945000	      4593	800027d0	82f28693	addi	x13,x5,-2001	  x5:0xfffffffc x13=0xfffff82b
       45955000	      4594	800027d4	ffa99303	lh	x6,-6(x19)	 x19:0x80008cb2  x6=0xffffe1d0 PA:0x80008cac
       45965000	      4595	800027d8	00f983a3	sb	x15,7(x19)	 x19:0x80008cb2 x15:0x22404000 PA:0x80008cb9
       45975000	      4596	800027dc	ff899883	lh	x17,-8(x19)	 x19:0x80008cb2 x17=0x00000000 PA:0x80008caa
       45985000	      4597	800027e0	09c5b213	sltiu	x4,x11,156	 x11:0x00000000  x4=0x00000001
       45995000	      4598	800027e4	e42f3493	sltiu	x9,x30,-446	 x30:0x00000000  x9=0x00000001
       46005000	      4599	800027e8	ffe9c283	lbu	x5,-2(x19)	 x19:0x80008cb2  x5=0x00000000 PA:0x80008cb0
       46015000	      4600	800027ec	00b98483	lb	x9,11(x19)	 x19:0x80008cb2  x9=0x00000000 PA:0x80008cbd
       46025000	      4601	800027f0	ffd99d23	sh	x29,-6(x19)	 x19:0x80008cb2 x29:0x00000480 PA:0x80008cac
       46035000	      4602	800027f4	00b980a3	sb	x11,1(x19)	 x19:0x80008cb2 x11:0x00000000 PA:0x80008cb3
       46045000	      4603	800027f8	ff79c703	lbu	x14,-9(x19)	 x19:0x80008cb2 x14=0x00000000 PA:0x80008ca9
       46055000	      4604	800027fc	00298833	add	x16,x19,x2	 x19:0x80008cb2  x2:0x000000d0 x16=0x80008d82
       46065000	      4605	80002800	01299323	sh	x18,6(x19)	 x19:0x80008cb2 x18:0xffffe1d0 PA:0x80008cb8
       46075000	      4606	80002804	ff29c783	lbu	x15,-14(x19)	 x19:0x80008cb2 x15=0x00000000 PA:0x80008ca4
       46085000	      4607	80002808	e4022197	auipc	x3,0xe4022	  x3=0x64024804
       46095000	      4608	8000280c	40335913	srai	x18,x6,0x3	  x6:0xffffe1d0 x18=0xfffffc3a
       46105000	      4609	80002810	01599223	sh	x21,4(x19)	 x19:0x80008cb2 x21:0x80009fc4 PA:0x80008cb6
       46115000	      4610	80002814	ffa9d483	lhu	x9,-6(x19)	 x19:0x80008cb2  x9=0x00000480 PA:0x80008cac
       46125000	      4611	80002818	0029af03	lw	x30,2(x19)	 x19:0x80008cb2 x30=0x9fc40000 PA:0x80008cb4
       46135000	      4612	8000281c	0049d703	lhu	x14,4(x19)	 x19:0x80008cb2 x14=0x00009fc4 PA:0x80008cb6
       46145000	      4613	80002820	ff69cf83	lbu	x31,-10(x19)	 x19:0x80008cb2 x31=0x00000000 PA:0x80008ca8
       46155000	      4614	80002824	fef98a23	sb	x15,-12(x19)	 x19:0x80008cb2 x15:0x00000000 PA:0x80008ca6
       46165000	      4615	80002828	ff798a03	lb	x20,-9(x19)	 x19:0x80008cb2 x20=0x00000000 PA:0x80008ca9
       46175000	      4616	8000282c	ff19ce83	lbu	x29,-15(x19)	 x19:0x80008cb2 x29=0x00000000 PA:0x80008ca3
       46185000	      4617	80002830	ff59cc03	lbu	x24,-11(x19)	 x19:0x80008cb2 x24=0x00000000 PA:0x80008ca7
       46195000	      4618	80002834	78e6c197	auipc	x3,0x78e6c	  x3=0xf8e6e830
       46205000	      4619	80002838	01d99823	sh	x29,16(x19)	 x19:0x80008cb2 x29:0x00000000 PA:0x80008cc2
       46215000	      4620	8000283c	ff398f03	lb	x30,-13(x19)	 x19:0x80008cb2 x30=0xffffff9a PA:0x80008ca5
       46225000	      4621	80002840	009987a3	sb	x9,15(x19)	 x19:0x80008cb2  x9:0x00000480 PA:0x80008cc1
       46235000	      4622	80002844	00006117	auipc	x2,0x6	  x2=0x80008840
       46245000	      4623	80002848	daf10113	addi	x2,x2,-593	  x2:0x80008840  x2=0x800085ef
       46255000	      4624	8000284c	09a10003	lb	x0,154(x2)	  x2:0x800085ef PA:0x80008689
       46265000	      4625	80002850	01722db3	slt	x27,x4,x23	  x4:0x00000001 x23:0xf091aa4a x27=0x00000000
       46275000	      4626	80002854	69354593	xori	x11,x10,1683	 x10:0xfffffff0 x11=0xfffff963
       46285000	      4627	80002858	07410223	sb	x20,100(x2)	  x2:0x800085ef x20:0x00000000 PA:0x80008653
       46295000	      4628	8000285c	09ea6797	auipc	x15,0x9ea6	 x15=0x89ea8858
       46305000	      4629	80002860	010557b3	srl	x15,x10,x16	 x10:0xfffffff0 x16:0x80008d82 x15=0x3ffffffc
       46315000	      4630	80002864	00d78f33	add	x30,x15,x13	 x15:0x3ffffffc x13:0xfffff82b x30=0x3ffff827
       46325000	      4631	80002868	414f5493	srai	x9,x30,0x14	 x30:0x3ffff827  x9=0x000003ff
       46335000	      4632	8000286c	05e14303	lbu	x6,94(x2)	  x2:0x800085ef  x6=0x00000000 PA:0x8000864d
       46345000	      4633	80002870	00000013	addi	x0,x0,0	  x0:0x00000000
       46355000	      4634	80002874	40026613	ori	x12,x4,1024	  x4:0x00000001 x12=0x00000401
       46365000	      4635	80002878	40855213	srai	x4,x10,0x8	 x10:0xfffffff0  x4=0xffffffff
       46375000	      4636	8000287c	41805d13	srai	x26,x0,0x18	  x0:0x00000000 x26=0x00000000
       46385000	      4637	80002880	015854b3	srl	x9,x16,x21	 x16:0x80008d82 x21:0x80009fc4  x9=0x080008d8
       46395000	      4638	80002884	04b15583	lhu	x11,75(x2)	  x2:0x800085ef x11=0x00000000 PA:0x8000863a
       46405000	      4639	80002888	40a4deb3	sra	x29,x9,x10	  x9:0x080008d8 x10:0xfffffff0 x29=0x00000800
       46415000	      4640	8000288c	018ed833	srl	x16,x29,x24	 x29:0x00000800 x24:0x00000000 x16=0x00000800
       46425000	      4641	80002890	f0014a03	lbu	x20,-256(x2)	  x2:0x800085ef x20=0x00000000 PA:0x800084ef
       46435000	      4642	80002894	03010c03	lb	x24,48(x2)	  x2:0x800085ef x24=0x00000000 PA:0x8000861f
       46445000	      4643	00000000	00000013	addi	x0,x0,0	  x0:0x00000000
       46455000	      4644	80002898	d387e493	ori	x9,x15,-712	 x15:0x3ffffffc  x9=0xfffffffc
       46465000	      4645	8000289c	77763c13	sltiu	x24,x12,1911	 x12:0x00000401 x24=0x00000001
       46475000	      4646	800028a0	98f63793	sltiu	x15,x12,-1649	 x12:0x00000401 x15=0x00000001
       46485000	      4647	800028a4	016fd913	srli	x18,x31,0x16	 x31:0x00000000 x18=0x00000000
       46495000	      4648	800028a8	2b48f413	andi	x8,x17,692	 x17:0x00000000  x8=0x00000000
       46505000	      4649	800028ac	001685b3	add	x11,x13,x1	 x13:0xfffff82b  x1:0x00000000 x11=0xfffff82b
       46515000	      4650	800028b0	00592cb3	slt	x25,x18,x5	 x18:0x00000000  x5:0x00000000 x25=0x00000000
       46525000	      4651	800028b4	0e814383	lbu	x7,232(x2)	  x2:0x800085ef  x7=0x00000000 PA:0x800086d7
       46535000	      4652	800028b8	fa310ba3	sb	x3,-73(x2)	  x2:0x800085ef  x3:0xf8e6e830 PA:0x800085a6
       46545000	      4653	800028bc	0b714e83	lbu	x29,183(x2)	  x2:0x800085ef x29=0x00000000 PA:0x800086a6
       46555000	      4654	800028c0	f5710a23	sb	x23,-172(x2)	  x2:0x800085ef x23:0xf091aa4a PA:0x80008543
       46565000	      4655	800028c4	40e554b3	sra	x9,x10,x14	 x10:0xfffffff0 x14:0x00009fc4  x9=0xffffffff
       46575000	      4656	800028c8	fed10f03	lb	x30,-19(x2)	  x2:0x800085ef x30=0x00000000 PA:0x800085dc
       46585000	      4657	800028cc	00a2dc93	srli	x25,x5,0xa	  x5:0x00000000 x25=0x00000000
       46595000	      4658	800028d0	01841093	slli	x1,x8,0x18	  x8:0x00000000  x1=0x00000000
       46605000	      4659	800028d4	03e10123	sb	x30,34(x2)	  x2:0x800085ef x30:0x00000000 PA:0x80008611
       46615000	      4660	800028d8	002207b3	add	x15,x4,x2	  x4:0xffffffff  x2:0x800085ef x15=0x800085ee
       46625000	      4661	800028dc	0dd126a3	sw	x29,205(x2)	  x2:0x800085ef x29:0x00000000 PA:0x800086bc
       46635000	      4662	800028e0	f1410fa3	sb	x20,-225(x2)	  x2:0x800085ef x20:0x00000000 PA:0x8000850e
       46645000	      4663	800028e4	00847cb3	and	x25,x8,x8	  x8:0x00000000  x8:0x00000000 x25=0x00000000
       46655000	      4664	800028e8	02f10f23	sb	x15,62(x2)	  x2:0x800085ef x15:0x800085ee PA:0x8000862d
       46665000	      4665	800028ec	07e14f03	lbu	x30,126(x2)	  x2:0x800085ef x30=0x00000000 PA:0x8000866d
       46675000	      4666	800028f0	fe010003	lb	x0,-32(x2)	  x2:0x800085ef PA:0x800085cf
       46685000	      4667	800028f4	00006117	auipc	x2,0x6	  x2=0x800088f0
       46695000	      4668	800028f8	14e10113	addi	x2,x2,334	  x2:0x800088f0  x2=0x80008a3e
       46705000	      4669	800028fc	00000013	addi	x0,x0,0	  x0:0x00000000
       46715000	      4670	80002900	009e00b3	add	x1,x28,x9	 x28:0x80009f34  x9:0xffffffff  x1=0x80009f33
       46725000	      4671	80002904	41cc01b3	sub	x3,x24,x28	 x24:0x00000001 x28:0x80009f34  x3=0x7fff60cd
       46735000	      4672	80002908	dcd70d13	addi	x26,x14,-563	 x14:0x00009fc4 x26=0x00009d91
       46745000	      4673	8000290c	1fbce413	ori	x8,x25,507	 x25:0x00000000  x8=0x000001fb
       46755000	      4674	80002910	c98ced13	ori	x26,x25,-872	 x25:0x00000000 x26=0xfffffc98
       46765000	      4675	80002914	03714803	lbu	x16,55(x2)	  x2:0x80008a3e x16=0x00000000 PA:0x80008a75
       46775000	      4676	80002918	4073ddb3	sra	x27,x7,x7	  x7:0x00000000  x7:0x00000000 x27=0x00000000
       46785000	      4677	8000291c	02410aa3	sb	x4,53(x2)	  x2:0x80008a3e  x4:0xffffffff PA:0x80008a73
       46795000	      4678	80002920	0197d013	srli	x0,x15,0x19	 x15:0x800085ee
       46805000	      4679	80002924	f74105a3	sb	x20,-149(x2)	  x2:0x80008a3e x20:0x00000000 PA:0x800089a9
       46815000	      4680	80002928	401680b3	sub	x1,x13,x1	 x13:0xfffff82b  x1:0x80009f33  x1=0x7fff58f8
       46825000	      4681	8000292c	d6dbdc37	lui	x24,0xd6dbd	 x24=0xd6dbd000
       46835000	      4682	80002930	011d9193	slli	x3,x27,0x11	 x27:0x00000000  x3=0x00000000
       46845000	      4683	80002934	02611d23	sh	x6,58(x2)	  x2:0x80008a3e  x6:0x00000000 PA:0x80008a78
       46855000	      4684	80002938	00b3c2b3	xor	x5,x7,x11	  x7:0x00000000 x11:0xfffff82b  x5=0xfffff82b
       46865000	      4685	8000293c	f7714b03	lbu	x22,-137(x2)	  x2:0x80008a3e x22=0x00000000 PA:0x800089b5
       46875000	      4686	80002940	f7ce7f93	andi	x31,x28,-132	 x28:0x80009f34 x31=0x80009f34
       46885000	      4687	80002944	01eac433	xor	x8,x21,x30	 x21:0x80009fc4 x30:0x00000000  x8=0x80009fc4
       46895000	      4688	80002948	f6c10383	lb	x7,-148(x2)	  x2:0x80008a3e  x7=0x00000000 PA:0x800089aa
       46905000	      4689	8000294c	017e6733	or	x14,x28,x23	 x28:0x80009f34 x23:0xf091aa4a x14=0xf091bf7e
       46915000	      4690	80002950	00314583	lbu	x11,3(x2)	  x2:0x80008a3e x11=0x00000000 PA:0x80008a41
       46925000	      4691	80002954	f7b14983	lbu	x19,-133(x2)	  x2:0x80008a3e x19=0x000000fe PA:0x800089b9
       46935000	      4692	80002958	40db0733	sub	x14,x22,x13	 x22:0x00000000 x13:0xfffff82b x14=0x000007d5
       46945000	      4693	8000295c	f5b14503	lbu	x10,-165(x2)	  x2:0x80008a3e x10=0x00000000 PA:0x80008999
       46955000	      4694	80002960	018e1993	slli	x19,x28,0x18	 x28:0x80009f34 x19=0x34000000
       46965000	      4695	80002964	0b910323	sb	x25,166(x2)	  x2:0x80008a3e x25:0x00000000 PA:0x80008ae4
       46975000	      4696	80002968	f07103a3	sb	x7,-249(x2)	  x2:0x80008a3e  x7:0x00000000 PA:0x80008945
       46985000	      4697	8000296c	0c3101a3	sb	x3,195(x2)	  x2:0x80008a3e  x3:0x00000000 PA:0x80008b01
       46995000	      4698	80002970	1c272e93	slti	x29,x14,450	 x14:0x000007d5 x29=0x00000000
       47005000	      4699	80002974	fcd9b037	lui	x0,0xfcd9b	
       47015000	      4700	80002978	01b977b3	and	x15,x18,x27	 x18:0x00000000 x27:0x00000000 x15=0x00000000
       47025000	      4701	8000297c	0005e8b3	or	x17,x11,x0	 x11:0x00000000  x0:0x00000000 x17=0x00000000
       47035000	      4702	80002980	546bcf13	xori	x30,x23,1350	 x23:0xf091aa4a x30=0xf091af0c
       47045000	      4703	80002984	8c30bd13	sltiu	x26,x1,-1853	  x1:0x7fff58f8 x26=0x00000001
       47055000	      4704	80002988	ee613593	sltiu	x11,x2,-282	  x2:0x80008a3e x11=0x00000001
       47065000	      4705	8000298c	01914403	lbu	x8,25(x2)	  x2:0x80008a3e  x8=0x00000000 PA:0x80008a57
       47075000	      4706	80002990	403fdcb3	sra	x25,x31,x3	 x31:0x80009f34  x3:0x00000000 x25=0x80009f34
       47085000	      4707	80002994	1d03fc17	auipc	x24,0x1d03f	 x24=0x9d041990
       47095000	      4708	80002998	5bd33097	auipc	x1,0x5bd33	  x1=0xdbd35994
       47105000	      4709	8000299c	08510aa3	sb	x5,149(x2)	  x2:0x80008a3e  x5:0xfffff82b PA:0x80008ad3
       47115000	      4710	800029a0	00005217	auipc	x4,0x5	  x4=0x8000799c
       47125000	      4711	800029a4	7f620213	addi	x4,x4,2038	  x4:0x8000799c  x4=0x80008192
       47135000	      4712	800029a8	01c21523	sh	x28,10(x4)	  x4:0x80008192 x28:0x80009f34 PA:0x8000819c
       47145000	      4713	800029ac	33d20183	lb	x3,829(x4)	  x4:0x80008192  x3=0x00000000 PA:0x800084cf
       47155000	      4714	800029b0	26124303	lbu	x6,609(x4)	  x4:0x80008192  x6=0x00000000 PA:0x800083f3
       47165000	      4715	800029b4	24024583	lbu	x11,576(x4)	  x4:0x80008192 x11=0x00000000 PA:0x800083d2
       47175000	      4716	800029b8	11722923	sw	x23,274(x4)	  x4:0x80008192 x23:0xf091aa4a PA:0x800082a4
       47185000	      4717	800029bc	10724c83	lbu	x25,263(x4)	  x4:0x80008192 x25=0x00000000 PA:0x80008299
       47195000	      4718	800029c0	01654333	xor	x6,x10,x22	 x10:0x00000000 x22:0x00000000  x6=0x00000000
       47205000	      4719	800029c4	3d425383	lhu	x7,980(x4)	  x4:0x80008192  x7=0x00000000 PA:0x80008566
       47215000	      4720	800029c8	6b9288b7	lui	x17,0x6b928	 x17=0x6b928000
       47225000	      4721	800029cc	005b54b3	srl	x9,x22,x5	 x22:0x00000000  x5:0xfffff82b  x9=0x00000000
       47235000	      4722	800029d0	5ee207a3	sb	x14,1519(x4)	  x4:0x80008192 x14:0x000007d5 PA:0x80008781
       47245000	      4723	800029d4	00fe9733	sll	x14,x29,x15	 x29:0x00000000 x15:0x00000000 x14=0x00000000
       47255000	      4724	800029d8	01fa21b3	slt	x3,x20,x31	 x20:0x00000000 x31:0x80009f34  x3=0x00000000
       47265000	      4725	800029dc	00000013	addi	x0,x0,0	  x0:0x00000000
       47275000	      4726	800029e0	feda1e97	auipc	x29,0xfeda1	 x29=0x7eda39dc
       47285000	      4727	800029e4	fbdb4793	xori	x15,x22,-67	 x22:0x00000000 x15=0xffffffbd
       47295000	      4728	800029e8	aaf4f397	auipc	x7,0xaaf4f	  x7=0x2af519e4
       47305000	      4729	800029ec	01419493	slli	x9,x3,0x14	  x3:0x00000000  x9=0x00000000
       47315000	      4730	800029f0	001370b3	and	x1,x6,x1	  x6:0x00000000  x1:0xdbd35994  x1=0x00000000
       47325000	      4731	800029f4	01240433	add	x8,x8,x18	  x8:0x00000000 x18:0x00000000  x8=0x00000000
       47335000	      4732	800029f8	2ee21b23	sh	x14,758(x4)	  x4:0x80008192 x14:0x00000000 PA:0x80008488
       47345000	      4733	800029fc	41625993	srai	x19,x4,0x16	  x4:0x80008192 x19=0xfffffe00
       47355000	      4734	80002a00	2eb84513	xori	x10,x16,747	 x16:0x00000000 x10=0x000002eb
       47365000	      4735	80002a04	5c120b03	lb	x22,1473(x4)	  x4:0x80008192 x22=0x00000000 PA:0x80008753
       47375000	      4736	80002a08	61d24c83	lbu	x25,1565(x4)	  x4:0x80008192 x25=0x00000000 PA:0x800087af
       47385000	      4737	80002a0c	75eab513	sltiu	x10,x21,1886	 x21:0x80009fc4 x10=0x00000000
       47395000	      4738	80002a10	00c95eb3	srl	x29,x18,x12	 x18:0x00000000 x12:0x00000401 x29=0x00000000
       47405000	      4739	80002a14	00693b33	sltu	x22,x18,x6	 x18:0x00000000  x6:0x00000000 x22=0x00000000
       47415000	      4740	80002a18	cfb92093	slti	x1,x18,-773	 x18:0x00000000  x1=0x00000000
       47425000	      4741	80002a1c	159c7213	andi	x4,x24,345	 x24:0x9d041990  x4=0x00000110
       47435000	      4742	80002a20	00000013	addi	x0,x0,0	  x0:0x00000000
       47445000	      4743	80002a24	02f01463	bne	x0,x15,80002a4c	  x0:0x00000000 x15:0xffffffbd
       47455000	      4744	00000000	00000013	addi	x0,x0,0	  x0:0x00000000
       47465000	      4745	80002a48	00000013	addi	x0,x0,0	  x0:0x00000000
       47475000	      4746	80002a4c	00ae5693	srli	x13,x28,0xa	 x28:0x80009f34 x13=0x00200027
       47485000	      4747	80002a50	02388463	beq	x17,x3,80002a78	 x17:0x6b928000  x3:0x00000000
       47495000	      4748	80002a54	4064db13	srai	x22,x9,0x6	  x9:0x00000000 x22=0x00000000
       47505000	      4749	80002a58	6cabf793	andi	x15,x23,1738	 x23:0xf091aa4a x15=0x0000024a
       47515000	      4750	80002a5c	01ec0233	add	x4,x24,x30	 x24:0x9d041990 x30:0xf091af0c  x4=0x8d95c89c
       47525000	      4751	80002a60	91407c13	andi	x24,x0,-1772	  x0:0x00000000 x24=0x00000000
       47535000	      4752	80002a64	40165593	srai	x11,x12,0x1	 x12:0x00000401 x11=0x00000200
       47545000	      4753	80002a68	69214617	auipc	x12,0x69214	 x12=0xe9216a64
       47555000	      4754	80002a6c	c8a47e93	andi	x29,x8,-886	  x8:0x00000000 x29=0x00000000
       47565000	      4755	80002a70	0495c063	blt	x11,x9,80002ab0	 x11:0x00000200  x9:0x00000000
       47575000	      4756	80002a74	40bb5633	sra	x12,x22,x11	 x22:0x00000000 x11:0x00000200 x12=0x00000000
       47585000	      4757	80002a78	00419633	sll	x12,x3,x4	  x3:0x00000000  x4:0x8d95c89c x12=0x00000000
       47595000	      4758	80002a7c	5fac6813	ori	x16,x24,1530	 x24:0x00000000 x16=0x000005fa
       47605000	      4759	80002a80	03924263	blt	x4,x25,80002aa4	  x4:0x8d95c89c x25:0x00000000
       47615000	      4760	00000000	00000013	addi	x0,x0,0	  x0:0x00000000
       47625000	      4761	80002aa0	00000013	addi	x0,x0,0	  x0:0x00000000
       47635000	      4762	80002aa4	006c7463	bgeu	x24,x6,80002aac	 x24:0x00000000  x6:0x00000000
       47645000	      4763	00000000	00000013	addi	x0,x0,0	  x0:0x00000000
       47655000	      4764	80002aa8	00000013	addi	x0,x0,0	  x0:0x00000000
       47665000	      4765	80002aac	0039f3b3	and	x7,x19,x3	 x19:0xfffffe00  x3:0x00000000  x7=0x00000000
       47675000	      4766	80002ab0	01209263	bne	x1,x18,80002ab4	  x1:0x00000000 x18:0x00000000
       47685000	      4767	80002ab4	004c18b3	sll	x17,x24,x4	 x24:0x00000000  x4:0x8d95c89c x17=0x00000000
       47695000	      4768	80002ab8	04577863	bgeu	x14,x5,80002b08	 x14:0x00000000  x5:0xfffff82b
       47705000	      4769	80002abc	ac333313	sltiu	x6,x6,-1341	  x6:0x00000000  x6=0x00000001
       47715000	      4770	80002ac0	006f7863	bgeu	x30,x6,80002ad0	 x30:0xf091af0c  x6:0x00000001
       47725000	      4771	00000000	00000013	addi	x0,x0,0	  x0:0x00000000
       47735000	      4772	80002acc	00000013	addi	x0,x0,0	  x0:0x00000000
       47745000	      4773	80002ad0	be4d3493	sltiu	x9,x26,-1052	 x26:0x00000001  x9=0x00000001
       47755000	      4774	80002ad4	019c0033	add	x0,x24,x25	 x24:0x00000000 x25:0x00000000
       47765000	      4775	80002ad8	004eaa33	slt	x20,x29,x4	 x29:0x00000000  x4:0x8d95c89c x20=0x00000000
       47775000	      4776	80002adc	02116e63	bltu	x2,x1,80002b18	  x2:0x80008a3e  x1:0x00000000
       47785000	      4777	80002ae0	01fd9633	sll	x12,x27,x31	 x27:0x00000000 x31:0x80009f34 x12=0x00000000
       47795000	      4778	80002ae4	05bf7c93	andi	x25,x30,91	 x30:0xf091af0c x25=0x00000008
       47805000	      4779	80002ae8	eeca4f13	xori	x30,x20,-276	 x20:0x00000000 x30=0xfffffeec
       47815000	      4780	80002aec	043fd863	bge	x31,x3,80002b3c	 x31:0x80009f34  x3:0x00000000
       47825000	      4781	80002af0	00a01033	sll	x0,x0,x10	  x0:0x00000000 x10:0x00000000
       47835000	      4782	80002af4	9e8a8997	auipc	x19,0x9e8a8	 x19=0x1e8aaaf0
       47845000	      4783	80002af8	59dae113	ori	x2,x21,1437	 x21:0x80009fc4  x2=0x80009fdd
       47855000	      4784	80002afc	00bef463	bgeu	x29,x11,80002b04	 x29:0x00000000 x11:0x00000200
       47865000	      4785	80002b00	0161ac33	slt	x24,x3,x22	  x3:0x00000000 x22:0x00000000 x24=0x00000000
       47875000	      4786	80002b04	00220533	add	x10,x4,x2	  x4:0x8d95c89c  x2:0x80009fdd x10=0x0d966879
       47885000	      4787	80002b08	000cf9b3	and	x19,x25,x0	 x25:0x00000008  x0:0x00000000 x19=0x00000000
       47895000	      4788	80002b0c	39a9a793	slti	x15,x19,922	 x19:0x00000000 x15=0x00000001
       47905000	      4789	80002b10	56d88693	addi	x13,x17,1389	 x17:0x00000000 x13=0x0000056d
       47915000	      4790	80002b14	04916463	bltu	x2,x9,80002b5c	  x2:0x80009fdd  x9:0x00000001
       47925000	      4791	80002b18	00ef50b3	srl	x1,x30,x14	 x30:0xfffffeec x14:0x00000000  x1=0xfffffeec
       47935000	      4792	80002b1c	02aef663	bgeu	x29,x10,80002b48	 x29:0x00000000 x10:0x0d966879
       47945000	      4793	80002b20	01739fb3	sll	x31,x7,x23	  x7:0x00000000 x23:0xf091aa4a x31=0x00000000
       47955000	      4794	80002b24	33ca6b13	ori	x22,x20,828	 x20:0x00000000 x22=0x0000033c
       47965000	      4795	80002b28	402a5913	srai	x18,x20,0x2	 x20:0x00000000 x18=0x00000000
       47975000	      4796	80002b2c	5c457d97	auipc	x27,0x5c457	 x27=0xdc459b28
       47985000	      4797	80002b30	003f2833	slt	x16,x30,x3	 x30:0xfffffeec  x3:0x00000000 x16=0x00000001
       47995000	      4798	80002b34	41040133	sub	x2,x8,x16	  x8:0x00000000 x16:0x00000001  x2=0xffffffff
       48005000	      4799	80002b38	019a0b37	lui	x22,0x19a0	 x22=0x019a0000
       48015000	      4800	80002b3c	01e8d193	srli	x3,x17,0x1e	 x17:0x00000000  x3=0x00000000
       48025000	      4801	80002b40	02c3f063	bgeu	x7,x12,80002b60	  x7:0x00000000 x12:0x00000000
       48035000	      4802	00000000	00000013	addi	x0,x0,0	  x0:0x00000000
       48045000	      4803	80002b5c	00000013	addi	x0,x0,0	  x0:0x00000000
       48055000	      4804	80002b60	014a3533	sltu	x10,x20,x20	 x20:0x00000000 x20:0x00000000 x10=0x00000000
       48065000	      4805	80002b64	04ea8263	beq	x21,x14,80002ba8	 x21:0x80009fc4 x14:0x00000000
       48075000	      4806	80002b68	038d6d93	ori	x27,x26,56	 x26:0x00000001 x27=0x00000039
       48085000	      4807	80002b6c	4057d8b3	sra	x17,x15,x5	 x15:0x00000001  x5:0xfffff82b x17=0x00000000
       48095000	      4808	80002b70	41e0d733	sra	x14,x1,x30	  x1:0xfffffeec x30:0xfffffeec x14=0xffffffff
       48105000	      4809	80002b74	0507e863	bltu	x15,x16,80002bc4	 x15:0x00000001 x16:0x00000001
       48115000	      4810	80002b78	01f7d133	srl	x2,x15,x31	 x15:0x00000001 x31:0x00000000  x2=0x00000001
       48125000	      4811	80002b7c	01d0d893	srli	x17,x1,0x1d	  x1:0xfffffeec x17=0x00000007
       48135000	      4812	80002b80	40b30db3	sub	x27,x6,x11	  x6:0x00000001 x11:0x00000200 x27=0xfffffe01
       48145000	      4813	80002b84	00284733	xor	x14,x16,x2	 x16:0x00000001  x2:0x00000001 x14=0x00000000
       48155000	      4814	80002b88	00000013	addi	x0,x0,0	  x0:0x00000000
       48165000	      4815	80002b8c	00704033	xor	x0,x0,x7	  x0:0x00000000  x7:0x00000000
       48175000	      4816	80002b90	02c2fc63	bgeu	x5,x12,80002bc8	  x5:0xfffff82b x12:0x00000000
       48185000	      4817	00000000	00000013	addi	x0,x0,0	  x0:0x00000000
       48195000	      4818	80002bc4	00000013	addi	x0,x0,0	  x0:0x00000000
       48205000	      4819	80002bc8	0387f063	bgeu	x15,x24,80002be8	 x15:0x00000001 x24:0x00000000
       48215000	      4820	00000000	00000013	addi	x0,x0,0	  x0:0x00000000
       48225000	      4821	80002be4	00000013	addi	x0,x0,0	  x0:0x00000000
       48235000	      4822	80002be8	7d5be313	ori	x6,x23,2005	 x23:0xf091aa4a  x6=0xf091afdf
       48245000	      4823	80002bec	844eb613	sltiu	x12,x29,-1980	 x29:0x00000000 x12=0x00000001
       48255000	      4824	80002bf0	00dd9633	sll	x12,x27,x13	 x27:0xfffffe01 x13:0x0000056d x12=0xffc02000
       48265000	      4825	80002bf4	00000013	addi	x0,x0,0	  x0:0x00000000
       48275000	      4826	80002bf8	e6374493	xori	x9,x14,-413	 x14:0x00000000  x9=0xfffffe63
       48285000	      4827	80002bfc	05344463	blt	x8,x19,80002c44	  x8:0x00000000 x19:0x00000000
       48295000	      4828	80002c00	03ed1a63	bne	x26,x30,80002c34	 x26:0x00000001 x30:0xfffffeec
       48305000	      4829	00000000	00000013	addi	x0,x0,0	  x0:0x00000000
       48315000	      4830	80002c30	00000013	addi	x0,x0,0	  x0:0x00000000
       48325000	      4831	80002c34	038ae463	bltu	x21,x24,80002c5c	 x21:0x80009fc4 x24:0x00000000
       48335000	      4832	80002c38	40e1d7b3	sra	x15,x3,x14	  x3:0x00000000 x14:0x00000000 x15=0x00000000
       48345000	      4833	80002c3c	01fb7b33	and	x22,x22,x31	 x22:0x019a0000 x31:0x00000000 x22=0x00000000
       48355000	      4834	80002c40	05807463	bgeu	x0,x24,80002c88	  x0:0x00000000 x24:0x00000000
       48365000	      4835	00000000	00000013	addi	x0,x0,0	  x0:0x00000000
       48375000	      4836	80002c84	00000013	addi	x0,x0,0	  x0:0x00000000
       48385000	      4837	80002c88	05f04463	blt	x0,x31,80002cd0	  x0:0x00000000 x31:0x00000000
       48395000	      4838	80002c8c	f5784313	xori	x6,x16,-169	 x16:0x00000001  x6=0xffffff56
       48405000	      4839	80002c90	001ec633	xor	x12,x29,x1	 x29:0x00000000  x1:0xfffffeec x12=0xfffffeec
       48415000	      4840	80002c94	03f81063	bne	x16,x31,80002cb4	 x16:0x00000001 x31:0x00000000
       48425000	      4841	00000000	00000013	addi	x0,x0,0	  x0:0x00000000
       48435000	      4842	80002cb0	00000013	addi	x0,x0,0	  x0:0x00000000
       48445000	      4843	80002cb4	03cc4a63	blt	x24,x28,80002ce8	 x24:0x00000000 x28:0x80009f34
       48455000	      4844	80002cb8	01c74c33	xor	x24,x14,x28	 x14:0x00000000 x28:0x80009f34 x24=0x80009f34
       48465000	      4845	80002cbc	02a50663	beq	x10,x10,80002ce8	 x10:0x00000000 x10:0x00000000
       48475000	      4846	00000000	00000013	addi	x0,x0,0	  x0:0x00000000
       48485000	      4847	80002ce4	00000013	addi	x0,x0,0	  x0:0x00000000
       48495000	      4848	80002ce8	00cf47b3	xor	x15,x30,x12	 x30:0xfffffeec x12:0xfffffeec x15=0x00000000
       48505000	      4849	80002cec	0132db13	srli	x22,x5,0x13	  x5:0xfffff82b x22=0x00001fff
       48515000	      4850	80002cf0	0ddd0e93	addi	x29,x26,221	 x26:0x00000001 x29=0x000000de
       48525000	      4851	80002cf4	2e85a697	auipc	x13,0x2e85a	 x13=0xae85ccf0
       48535000	      4852	80002cf8	408c0b33	sub	x22,x24,x8	 x24:0x80009f34  x8:0x00000000 x22=0x80009f34
       48545000	      4853	80002cfc	00000013	addi	x0,x0,0	  x0:0x00000000
       48555000	      4854	80002d00	01cf9913	slli	x18,x31,0x1c	 x31:0x00000000 x18=0x00000000
       48565000	      4855	80002d04	01d89e93	slli	x29,x17,0x1d	 x17:0x00000007 x29=0xe0000000
       48575000	      4856	80002d08	04156863	bltu	x10,x1,80002d58	 x10:0x00000000  x1:0xfffffeec
       48585000	      4857	00000000	00000013	addi	x0,x0,0	  x0:0x00000000
       48595000	      4858	80002d54	00000013	addi	x0,x0,0	  x0:0x00000000
       48605000	      4859	80002d58	00000013	addi	x0,x0,0	  x0:0x00000000
       48615000	      4860	80002d5c	00362733	slt	x14,x12,x3	 x12:0xfffffeec  x3:0x00000000 x14=0x00000001
       48625000	      4861	80002d60	0150af33	slt	x30,x1,x21	  x1:0xfffffeec x21:0x80009fc4 x30=0x00000000
       48635000	      4862	80002d64	8c46f5b7	lui	x11,0x8c46f	 x11=0x8c46f000
       48645000	      4863	80002d68	1d7d7613	andi	x12,x26,471	 x26:0x00000001 x12=0x00000001
       48655000	      4864	80002d6c	45776c13	ori	x24,x14,1111	 x14:0x00000001 x24=0x00000457
       48665000	      4865	80002d70	41abd0b3	sra	x1,x23,x26	 x23:0xf091aa4a x26:0x00000001  x1=0xf848d525
       48675000	      4866	80002d74	00000013	addi	x0,x0,0	  x0:0x00000000
       48685000	      4867	80002d78	036d0e63	beq	x26,x22,80002db4	 x26:0x00000001 x22:0x80009f34
       48695000	      4868	80002d7c	bc086693	ori	x13,x16,-1088	 x16:0x00000001 x13=0xfffffbc1
       48705000	      4869	80002d80	00301c33	sll	x24,x0,x3	  x0:0x00000000  x3:0x00000000 x24=0x00000000
       48715000	      4870	80002d84	01cb5a13	srli	x20,x22,0x1c	 x22:0x80009f34 x20=0x00000008
       48725000	      4871	80002d88	004359b3	srl	x19,x6,x4	  x6:0xffffff56  x4:0x8d95c89c x19=0x0000000f
       48735000	      4872	80002d8c	01e429b3	slt	x19,x8,x30	  x8:0x00000000 x30:0x00000000 x19=0x00000000
       48745000	      4873	80002d90	9fcd8313	addi	x6,x27,-1540	 x27:0xfffffe01  x6=0xfffff7fd
       48755000	      4874	80002d94	0072a633	slt	x12,x5,x7	  x5:0xfffff82b  x7:0x00000000 x12=0x00000001
       48765000	      4875	80002d98	0118d0b3	srl	x1,x17,x17	 x17:0x00000007 x17:0x00000007  x1=0x00000000
       48775000	      4876	80002d9c	03d28c63	beq	x5,x29,80002dd4	  x5:0xfffff82b x29:0xe0000000
       48785000	      4877	80002da0	40f804b3	sub	x9,x16,x15	 x16:0x00000001 x15:0x00000000  x9=0x00000001
       48795000	      4878	80002da4	004533b3	sltu	x7,x10,x4	 x10:0x00000000  x4:0x8d95c89c  x7=0x00000001
       48805000	      4879	80002da8	01171213	slli	x4,x14,0x11	 x14:0x00000001  x4=0x00020000
       48815000	      4880	80002dac	411d5593	srai	x11,x26,0x11	 x26:0x00000001 x11=0x00000000
       48825000	      4881	80002db0	00705293	srli	x5,x0,0x7	  x0:0x00000000  x5=0x00000000
       48835000	      4882	80002db4	00000013	addi	x0,x0,0	  x0:0x00000000
       48845000	      4883	80002db8	002779b3	and	x19,x14,x2	 x14:0x00000001  x2:0x00000001 x19=0x00000001
       48855000	      4884	80002dbc	89716693	ori	x13,x2,-1897	  x2:0x00000001 x13=0xfffff897
       48865000	      4885	80002dc0	013249b3	xor	x19,x4,x19	  x4:0x00020000 x19:0x00000001 x19=0x00020001
       48875000	      4886	80002dc4	018bb1b3	sltu	x3,x23,x24	 x23:0xf091aa4a x24:0x00000000  x3=0x00000000
       48885000	      4887	80002dc8	045a1663	bne	x20,x5,80002e14	 x20:0x00000008  x5:0x00000000
       48895000	      4888	00000000	00000013	addi	x0,x0,0	  x0:0x00000000
       48905000	      4889	80002e10	00000013	addi	x0,x0,0	  x0:0x00000000
       48915000	      4890	80002e14	007f8133	add	x2,x31,x7	 x31:0x00000000  x7:0x00000001  x2=0x00000001
       48925000	      4891	80002e18	01889463	bne	x17,x24,80002e20	 x17:0x00000007 x24:0x00000000
       48935000	      4892	00000000	00000013	addi	x0,x0,0	  x0:0x00000000
       48945000	      4893	80002e1c	00000013	addi	x0,x0,0	  x0:0x00000000
       48955000	      4894	80002e20	00429f13	slli	x30,x5,0x4	  x5:0x00000000 x30=0x00000000
       48965000	      4895	80002e24	ff5a28b7	lui	x17,0xff5a2	 x17=0xff5a2000
       48975000	      4896	80002e28	4c68b793	sltiu	x15,x17,1222	 x17:0xff5a2000 x15=0x00000000
       48985000	      4897	80002e2c	00ccd513	srli	x10,x25,0xc	 x25:0x00000008 x10=0x00000000
       48995000	      4898	80002e30	00101493	slli	x9,x0,0x1	  x0:0x00000000  x9=0x00000000
       49005000	      4899	80002e34	0304c463	blt	x9,x16,80002e5c	  x9:0x00000000 x16:0x00000001
       49015000	      4900	00000000	00000013	addi	x0,x0,0	  x0:0x00000000
       49025000	      4901	80002e58	00000013	addi	x0,x0,0	  x0:0x00000000
       49035000	      4902	80002e5c	0148f9b3	and	x19,x17,x20	 x17:0xff5a2000 x20:0x00000008 x19=0x00000000
       49045000	      4903	80002e60	01041a13	slli	x20,x8,0x10	  x8:0x00000000 x20=0x00000000
       49055000	      4904	80002e64	05c17863	bgeu	x2,x28,80002eb4	  x2:0x00000001 x28:0x80009f34
       49065000	      4905	80002e68	b73fb493	sltiu	x9,x31,-1165	 x31:0x00000000  x9=0x00000001
       49075000	      4906	80002e6c	e5ce9737	lui	x14,0xe5ce9	 x14=0xe5ce9000
       49085000	      4907	80002e70	013f1463	bne	x30,x19,80002e78	 x30:0x00000000 x19:0x00000000
       49095000	      4908	80002e74	039e4a63	blt	x28,x25,80002ea8	 x28:0x80009f34 x25:0x00000008
       49105000	      4909	00000000	00000013	addi	x0,x0,0	  x0:0x00000000
       49115000	      4910	80002ea4	00000013	addi	x0,x0,0	  x0:0x00000000
       49125000	      4911	80002ea8	039e8a63	beq	x29,x25,80002edc	 x29:0xe0000000 x25:0x00000008
       49135000	      4912	80002eac	01559e93	slli	x29,x11,0x15	 x11:0x00000000 x29=0x00000000
       49145000	      4913	80002eb0	00748733	add	x14,x9,x7	  x9:0x00000001  x7:0x00000001 x14=0x00000002
       49155000	      4914	80002eb4	016f2033	slt	x0,x30,x22	 x30:0x00000000 x22:0x80009f34
       49165000	      4915	80002eb8	01079d13	slli	x26,x15,0x10	 x15:0x00000000 x26=0x00000000
       49175000	      4916	80002ebc	04586863	bltu	x16,x5,80002f0c	 x16:0x00000001  x5:0x00000000
       49185000	      4917	80002ec0	9223bd13	sltiu	x26,x7,-1758	  x7:0x00000001 x26=0x00000001
       49195000	      4918	80002ec4	008af1b3	and	x3,x21,x8	 x21:0x80009fc4  x8:0x00000000  x3=0x00000000
       49205000	      4919	80002ec8	015a8b33	add	x22,x21,x21	 x21:0x80009fc4 x21:0x80009fc4 x22=0x00013f88
       49215000	      4920	80002ecc	0189e263	bltu	x19,x24,80002ed0	 x19:0x00000000 x24:0x00000000
       49225000	      4921	80002ed0	c71f0993	addi	x19,x30,-911	 x30:0x00000000 x19=0xfffffc71
       49235000	      4922	80002ed4	00000013	addi	x0,x0,0	  x0:0x00000000
       49245000	      4923	80002ed8	00119713	slli	x14,x3,0x1	  x3:0x00000000 x14=0x00000000
       49255000	      4924	80002edc	01067c63	bgeu	x12,x16,80002ef4	 x12:0x00000001 x16:0x00000001
       49265000	      4925	00000000	00000013	addi	x0,x0,0	  x0:0x00000000
       49275000	      4926	80002ef0	00000013	addi	x0,x0,0	  x0:0x00000000
       49285000	      4927	80002ef4	01c7b0b3	sltu	x1,x15,x28	 x15:0x00000000 x28:0x80009f34  x1=0x00000001
       49295000	      4928	80002ef8	04d86263	bltu	x16,x13,80002f3c	 x16:0x00000001 x13:0xfffff897
       49305000	      4929	00000000	00000013	addi	x0,x0,0	  x0:0x00000000
       49315000	      4930	80002f38	00000013	addi	x0,x0,0	  x0:0x00000000
       49325000	      4931	80002f3c	60c14213	xori	x4,x2,1548	  x2:0x00000001  x4=0x0000060d
       49335000	      4932	80002f40	01cebb33	sltu	x22,x29,x28	 x29:0x00000000 x28:0x80009f34 x22=0x00000001
       49345000	      4933	80002f44	01a49793	slli	x15,x9,0x1a	  x9:0x00000001 x15=0x04000000
       49355000	      4934	80002f48	01aa36b3	sltu	x13,x20,x26	 x20:0x00000000 x26:0x00000001 x13=0x00000001
       49365000	      4935	80002f4c	02588663	beq	x17,x5,80002f78	 x17:0xff5a2000  x5:0x00000000
       49375000	      4936	80002f50	0282d063	bge	x5,x8,80002f70	  x5:0x00000000  x8:0x00000000
       49385000	      4937	00000000	00000013	addi	x0,x0,0	  x0:0x00000000
       49395000	      4938	80002f6c	00000013	addi	x0,x0,0	  x0:0x00000000
       49405000	      4939	80002f70	f74dd097	auipc	x1,0xf74dd	  x1=0x774dff6c
       49415000	      4940	80002f74	40905313	srai	x6,x0,0x9	  x0:0x00000000  x6=0x00000000
       49425000	      4941	80002f78	1993b337	lui	x6,0x1993b	  x6=0x1993b000
       49435000	      4942	80002f7c	41c18433	sub	x8,x3,x28	  x3:0x00000000 x28:0x80009f34  x8=0x7fff60cc
       49445000	      4943	80002f80	219efc13	andi	x24,x29,537	 x29:0x00000000 x24=0x00000000
       49455000	      4944	80002f84	ae4b4c93	xori	x25,x22,-1308	 x22:0x00000001 x25=0xfffffae5
       49465000	      4945	80002f88	1ef37437	lui	x8,0x1ef37	  x8=0x1ef37000
       49475000	      4946	80002f8c	402d8cb3	sub	x25,x27,x2	 x27:0xfffffe01  x2:0x00000001 x25=0xfffffe00
       49485000	      4947	80002f90	02b46463	bltu	x8,x11,80002fb8	  x8:0x1ef37000 x11:0x00000000
       49495000	      4948	80002f94	9e37f437	lui	x8,0x9e37f	  x8=0x9e37f000
       49505000	      4949	80002f98	2fd57813	andi	x16,x10,765	 x10:0x00000000 x16=0x00000000
       49515000	      4950	80002f9c	b78d2337	lui	x6,0xb78d2	  x6=0xb78d2000
       49525000	      4951	80002fa0	01661913	slli	x18,x12,0x16	 x12:0x00000001 x18=0x00400000
       49535000	      4952	80002fa4	02dc0463	beq	x24,x13,80002fcc	 x24:0x00000000 x13:0x00000001
       49545000	      4953	80002fa8	41d6da33	sra	x20,x13,x29	 x13:0x00000001 x29:0x00000000 x20=0x00000001
       49555000	      4954	80002fac	cdf2fe93	andi	x29,x5,-801	  x5:0x00000000 x29=0x00000000
       49565000	      4955	80002fb0	1eadee93	ori	x29,x27,490	 x27:0xfffffe01 x29=0xffffffeb
       49575000	      4956	80002fb4	02e27263	bgeu	x4,x14,80002fd8	  x4:0x0000060d x14:0x00000000
       49585000	      4957	00000000	00000013	addi	x0,x0,0	  x0:0x00000000
       49595000	      4958	80002fd4	00000013	addi	x0,x0,0	  x0:0x00000000
       49605000	      4959	80002fd8	008485b3	add	x11,x9,x8	  x9:0x00000001  x8:0x9e37f000 x11=0x9e37f001
       49615000	      4960	80002fdc	01cc4133	xor	x2,x24,x28	 x24:0x00000000 x28:0x80009f34  x2=0x80009f34
       49625000	      4961	80002fe0	40db8c33	sub	x24,x23,x13	 x23:0xf091aa4a x13:0x00000001 x24=0xf091aa49
       49635000	      4962	80002fe4	00db2b33	slt	x22,x22,x13	 x22:0x00000001 x13:0x00000001 x22=0x00000000
       49645000	      4963	80002fe8	05aee063	bltu	x29,x26,80003028	 x29:0xffffffeb x26:0x00000001
       49655000	      4964	80002fec	01a25cb3	srl	x25,x4,x26	  x4:0x0000060d x26:0x00000001 x25=0x00000306
       49665000	      4965	80002ff0	00000013	addi	x0,x0,0	  x0:0x00000000
       49675000	      4966	80002ff4	00f55463	bge	x10,x15,80002ffc	 x10:0x00000000 x15:0x04000000
       49685000	      4967	80002ff8	00b8b033	sltu	x0,x17,x11	 x17:0xff5a2000 x11:0x9e37f001
       49695000	      4968	80002ffc	0047dd33	srl	x26,x15,x4	 x15:0x04000000  x4:0x0000060d x26=0x00002000
       49705000	      4969	80003000	01aac0b3	xor	x1,x21,x26	 x21:0x80009fc4 x26:0x00002000  x1=0x8000bfc4
       49715000	      4970	80003004	05f7e463	bltu	x15,x31,8000304c	 x15:0x04000000 x31:0x00000000
       49725000	      4971	80003008	04698063	beq	x19,x6,80003048	 x19:0xfffffc71  x6:0xb78d2000
       49735000	      4972	8000300c	41b681b3	sub	x3,x13,x27	 x13:0x00000001 x27:0xfffffe01  x3=0x00000200
       49745000	      4973	80003010	054f9863	bne	x31,x20,80003060	 x31:0x00000000 x20:0x00000001
       49755000	      4974	00000000	00000013	addi	x0,x0,0	  x0:0x00000000
       49765000	      4975	8000305c	00000013	addi	x0,x0,0	  x0:0x00000000
       49775000	      4976	80003060	9255d937	lui	x18,0x9255d	 x18=0x9255d000
       49785000	      4977	80003064	931886b7	lui	x13,0x93188	 x13=0x93188000
       49795000	      4978	80003068	0167edb3	or	x27,x15,x22	 x15:0x04000000 x22:0x00000000 x27=0x04000000
       49805000	      4979	8000306c	00000013	addi	x0,x0,0	  x0:0x00000000
       49815000	      4980	80003070	00000013	addi	x0,x0,0	  x0:0x00000000
       49825000	      4981	80003074	0348f663	bgeu	x17,x20,800030a0	 x17:0xff5a2000 x20:0x00000001
       49835000	      4982	00000000	00000013	addi	x0,x0,0	  x0:0x00000000
       49845000	      4983	8000309c	00000013	addi	x0,x0,0	  x0:0x00000000
       49855000	      4984	800030a0	02c67063	bgeu	x12,x12,800030c0	 x12:0x00000001 x12:0x00000001
       49865000	      4985	00000000	00000013	addi	x0,x0,0	  x0:0x00000000
       49875000	      4986	800030bc	00000013	addi	x0,x0,0	  x0:0x00000000
       49885000	      4987	800030c0	00c073b3	and	x7,x0,x12	  x0:0x00000000 x12:0x00000001  x7=0x00000000
       49895000	      4988	800030c4	0044e463	bltu	x9,x4,800030cc	  x9:0x00000001  x4:0x0000060d
       49905000	      4989	00000000	00000013	addi	x0,x0,0	  x0:0x00000000
       49915000	      4990	800030c8	00000013	addi	x0,x0,0	  x0:0x00000000
       49925000	      4991	800030cc	44343993	sltiu	x19,x8,1091	  x8:0x9e37f000 x19=0x00000000
       49935000	      4992	800030d0	019d6c33	or	x24,x26,x25	 x26:0x00002000 x25:0x00000306 x24=0x00002306
       49945000	      4993	800030d4	0494c863	blt	x9,x9,80003124	  x9:0x00000001  x9:0x00000001
       49955000	      4994	800030d8	01d9b9b3	sltu	x19,x19,x29	 x19:0x00000000 x29:0xffffffeb x19=0x00000001
       49965000	      4995	800030dc	433bbd13	sltiu	x26,x23,1075	 x23:0xf091aa4a x26=0x00000000
       49975000	      4996	800030e0	0b497593	andi	x11,x18,180	 x18:0x9255d000 x11=0x00000000
       49985000	      4997	800030e4	004ed033	srl	x0,x29,x4	 x29:0xffffffeb  x4:0x0000060d
       49995000	      4998	800030e8	043f7063	bgeu	x30,x3,80003128	 x30:0x00000000  x3:0x00000200
       50005000	      4999	800030ec	b0554497	auipc	x9,0xb0554	  x9=0x305570e8
       50015000	      5000	800030f0	04fa9263	bne	x21,x15,80003134	 x21:0x80009fc4 x15:0x04000000
       50025000	      5001	00000000	00000013	addi	x0,x0,0	  x0:0x00000000
       50035000	      5002	80003130	00000013	addi	x0,x0,0	  x0:0x00000000
       50045000	      5003	80003134	01779463	bne	x15,x23,8000313c	 x15:0x04000000 x23:0xf091aa4a
       50055000	      5004	00000000	00000013	addi	x0,x0,0	  x0:0x00000000
       50065000	      5005	80003138	00000013	addi	x0,x0,0	  x0:0x00000000
       50075000	      5006	8000313c	017ff263	bgeu	x31,x23,80003140	 x31:0x00000000 x23:0xf091aa4a
       50085000	      5007	80003140	015ec463	blt	x29,x21,80003148	 x29:0xffffffeb x21:0x80009fc4
       50095000	      5008	80003144	05c04263	blt	x0,x28,80003188	  x0:0x00000000 x28:0x80009f34
       50105000	      5009	80003148	05085463	bge	x16,x16,80003190	 x16:0x00000000 x16:0x00000000
       50115000	      5010	00000000	00000013	addi	x0,x0,0	  x0:0x00000000
       50125000	      5011	8000318c	00000013	addi	x0,x0,0	  x0:0x00000000
       50135000	      5012	80003190	01e2e133	or	x2,x5,x30	  x5:0x00000000 x30:0x00000000  x2=0x00000000
       50145000	      5013	80003194	41c2d193	srai	x3,x5,0x1c	  x5:0x00000000  x3=0x00000000
       50155000	      5014	80003198	0eaac063	blt	x21,x10,80003278	 x21:0x80009fc4 x10:0x00000000
       50165000	      5015	00000000	00000013	addi	x0,x0,0	  x0:0x00000000
       50175000	      5016	80003274	00000013	addi	x0,x0,0	  x0:0x00000000
       50185000	      5017	80003278	015d1093	slli	x1,x26,0x15	 x26:0x00000000  x1=0x00000000
       50195000	      5018	8000327c	00f3d233	srl	x4,x7,x15	  x7:0x00000000 x15:0x04000000  x4=0x00000000
       50205000	      5019	80003280	0260f463	bgeu	x1,x6,800032a8	  x1:0x00000000  x6:0xb78d2000
       50215000	      5020	80003284	569dac93	slti	x25,x27,1385	 x27:0x04000000 x25=0x00000000
       50225000	      5021	80003288	00000013	addi	x0,x0,0	  x0:0x00000000
       50235000	      5022	8000328c	02db1463	bne	x22,x13,800032b4	 x22:0x00000000 x13:0x93188000
       50245000	      5023	00000000	00000013	addi	x0,x0,0	  x0:0x00000000
       50255000	      5024	800032b0	00000013	addi	x0,x0,0	  x0:0x00000000
       50265000	      5025	800032b4	688a1e97	auipc	x29,0x688a1	 x29=0xe88a42b0
       50275000	      5026	800032b8	402fd013	srai	x0,x31,0x2	 x31:0x00000000
       50285000	      5027	800032bc	ccbb7f13	andi	x30,x22,-821	 x22:0x00000000 x30=0x00000000
       50295000	      5028	800032c0	011378b3	and	x17,x6,x17	  x6:0xb78d2000 x17:0xff5a2000 x17=0xb7082000
       50305000	      5029	800032c4	1c50b813	sltiu	x16,x1,453	  x1:0x00000000 x16=0x00000001
       50315000	      5030	800032c8	02540263	beq	x8,x5,800032ec	  x8:0x9e37f000  x5:0x00000000
       50325000	      5031	800032cc	4114d133	sra	x2,x9,x17	  x9:0x305570e8 x17:0xb7082000  x2=0x305570e8
       50335000	      5032	800032d0	b6c4ac93	slti	x25,x9,-1172	  x9:0x305570e8 x25=0x00000000
       50345000	      5033	800032d4	d9fbc237	lui	x4,0xd9fbc	  x4=0xd9fbc000
       50355000	      5034	800032d8	03ec9a63	bne	x25,x30,8000330c	 x25:0x00000000 x30:0x00000000
       50365000	      5035	800032dc	00150fb3	add	x31,x10,x1	 x10:0x00000000  x1:0x00000000 x31=0x00000000
       50375000	      5036	800032e0	d3e46293	ori	x5,x8,-706	  x8:0x9e37f000  x5=0xfffffd3e
       50385000	      5037	800032e4	0716ec93	ori	x25,x13,113	 x13:0x93188000 x25=0x93188071
       50395000	      5038	800032e8	044f6863	bltu	x30,x4,80003338	 x30:0x00000000  x4:0xd9fbc000
       50405000	      5039	00000000	00000013	addi	x0,x0,0	  x0:0x00000000
       50415000	      5040	80003334	00000013	addi	x0,x0,0	  x0:0x00000000
       50425000	      5041	80003338	00181293	slli	x5,x16,0x1	 x16:0x00000001  x5=0x00000002
       50435000	      5042	8000333c	00ec7433	and	x8,x24,x14	 x24:0x00002306 x14:0x00000000  x8=0x00000000
       50445000	      5043	80003340	67107d93	andi	x27,x0,1649	  x0:0x00000000 x27=0x00000000
       50455000	      5044	80003344	ce53c117	auipc	x2,0xce53c	  x2=0x4e53f340
       50465000	      5045	80003348	04400263	beq	x0,x4,8000338c	  x0:0x00000000  x4:0xd9fbc000
       50475000	      5046	8000334c	00fec733	xor	x14,x29,x15	 x29:0xe88a42b0 x15:0x04000000 x14=0xec8a42b0
       50485000	      5047	80003350	05334863	blt	x6,x19,800033a0	  x6:0xb78d2000 x19:0x00000001
       50495000	      5048	00000000	00000013	addi	x0,x0,0	  x0:0x00000000
       50505000	      5049	8000339c	00000013	addi	x0,x0,0	  x0:0x00000000
       50515000	      5050	800033a0	401ed293	srai	x5,x29,0x1	 x29:0xe88a42b0  x5=0xf4452158
       50525000	      5051	800033a4	01890d33	add	x26,x18,x24	 x18:0x9255d000 x24:0x00002306 x26=0x9255f306
       50535000	      5052	800033a8	01d64633	xor	x12,x12,x29	 x12:0x00000001 x29:0xe88a42b0 x12=0xe88a42b1
       50545000	      5053	800033ac	419355b3	sra	x11,x6,x25	  x6:0xb78d2000 x25:0x93188071 x11=0xffffdbc6
       50555000	      5054	800033b0	01145293	srli	x5,x8,0x11	  x8:0x00000000  x5=0x00000000
       50565000	      5055	800033b4	00fcd813	srli	x16,x25,0xf	 x25:0x93188071 x16=0x00012631
       50575000	      5056	800033b8	05807863	bgeu	x0,x24,80003408	  x0:0x00000000 x24:0x00002306
       50585000	      5057	800033bc	00000013	addi	x0,x0,0	  x0:0x00000000
       50595000	      5058	800033c0	01100663	beq	x0,x17,800033cc	  x0:0x00000000 x17:0xb7082000
       50605000	      5059	800033c4	02fa9c63	bne	x21,x15,800033fc	 x21:0x80009fc4 x15:0x04000000
       50615000	      5060	00000000	00000013	addi	x0,x0,0	  x0:0x00000000
       50625000	      5061	800033f8	00000013	addi	x0,x0,0	  x0:0x00000000
       50635000	      5062	800033fc	00465c93	srli	x25,x12,0x4	 x12:0xe88a42b1 x25=0x0e88a42b
       50645000	      5063	80003400	00215b33	srl	x22,x2,x2	  x2:0x4e53f340  x2:0x4e53f340 x22=0x4e53f340
       50655000	      5064	80003404	01a0b633	sltu	x12,x1,x26	  x1:0x00000000 x26:0x9255f306 x12=0x00000001
       50665000	      5065	80003408	01895863	bge	x18,x24,80003418	 x18:0x9255d000 x24:0x00002306
       50675000	      5066	8000340c	aab7cc13	xori	x24,x15,-1365	 x15:0x04000000 x24=0xfbfffaab
       50685000	      5067	80003410	012e7533	and	x10,x28,x18	 x28:0x80009f34 x18:0x9255d000 x10=0x80009000
       50695000	      5068	80003414	409a8033	sub	x0,x21,x9	 x21:0x80009fc4  x9:0x305570e8
       50705000	      5069	80003418	00152233	slt	x4,x10,x1	 x10:0x80009000  x1:0x00000000  x4=0x00000001
       50715000	      5070	8000341c	030edc63	bge	x29,x16,80003454	 x29:0xe88a42b0 x16:0x00012631
       50725000	      5071	80003420	00000013	addi	x0,x0,0	  x0:0x00000000
       50735000	      5072	80003424	02ae0463	beq	x28,x10,8000344c	 x28:0x80009f34 x10:0x80009000
       50745000	      5073	80003428	05af6663	bltu	x30,x26,80003474	 x30:0x00000000 x26:0x9255f306
       50755000	      5074	00000000	00000013	addi	x0,x0,0	  x0:0x00000000
       50765000	      5075	80003470	00000013	addi	x0,x0,0	  x0:0x00000000
       50775000	      5076	80003474	00025533	srl	x10,x4,x0	  x4:0x00000001  x0:0x00000000 x10=0x00000001
       50785000	      5077	80003478	01e29793	slli	x15,x5,0x1e	  x5:0x00000000 x15=0x00000000
       50795000	      5078	8000347c	019be463	bltu	x23,x25,80003484	 x23:0xf091aa4a x25:0x0e88a42b
       50805000	      5079	80003480	40ba0db3	sub	x27,x20,x11	 x20:0x00000001 x11:0xffffdbc6 x27=0x0000243b
       50815000	      5080	80003484	02410263	beq	x2,x4,800034a8	  x2:0x4e53f340  x4:0x00000001
       50825000	      5081	80003488	034ce063	bltu	x25,x20,800034a8	 x25:0x0e88a42b x20:0x00000001
       50835000	      5082	8000348c	0168ce63	blt	x17,x22,800034a8	 x17:0xb7082000 x22:0x4e53f340
       50845000	      5083	00000000	00000013	addi	x0,x0,0	  x0:0x00000000
       50855000	      5084	800034a4	00000013	addi	x0,x0,0	  x0:0x00000000
       50865000	      5085	800034a8	c5e680b7	lui	x1,0xc5e68	  x1=0xc5e68000
       50875000	      5086	800034ac	00000013	addi	x0,x0,0	  x0:0x00000000
       50885000	      5087	800034b0	004e2f03	lw	x30,4(x28)	 x28:0x80009f34 x30=0x8000694c PA:0x80009f38
       50895000	      5088	800034b4	4100df93	srai	x31,x1,0x10	  x1:0xc5e68000 x31=0xffffc5e6
       50905000	      5089	800034b8	00000013	addi	x0,x0,0	  x0:0x00000000
       50915000	      5090	800034bc	03ce0e13	addi	x28,x28,60	 x28:0x80009f34 x28=0x80009f70
       50925000	      5091	800034c0	00ad1a13	slli	x20,x26,0xa	 x26:0x9255f306 x20=0x57cc1800
       50935000	      5092	800034c4	000f0c93	addi	x25,x30,0	 x30:0x8000694c x25=0x8000694c
       50945000	      5093	800034c8	000c8ce7	jalr	x25,x25,0	 x25:0x8000694c x25=0x800034c8
       50955000	      5094	00000000	00000013	addi	x0,x0,0	  x0:0x00000000
       50965000	      5095	8000694c	00000013	addi	x0,x0,0	  x0:0x00000000
       50975000	      5096	80006950	ffffec97	auipc	x25,0xffffe	 x25=0x8000494c
       50985000	      5097	80006954	a88c8c93	addi	x25,x25,-1400	 x25:0x8000494c x25=0x800043d4
       50995000	      5098	80006958	3d0c8c93	addi	x25,x25,976	 x25:0x800043d4 x25=0x800047a4
       51005000	      5099	8000695c	93f54813	xori	x16,x10,-1729	 x10:0x00000001 x16=0xfffff93e
       51015000	      5100	80006960	4149d933	sra	x18,x19,x20	 x19:0x00000001 x20:0x57cc1800 x18=0x00000001
       51025000	      5101	80006964	992f0f37	lui	x30,0x992f0	 x30=0x992f0000
       51035000	      5102	80006968	002a6863	bltu	x20,x2,80006978	 x20:0x57cc1800  x2:0x4e53f340
       51045000	      5103	8000696c	ff7d8097	auipc	x1,0xff7d8	  x1=0x7f7de968
       51055000	      5104	80006970	875d6913	ori	x18,x26,-1931	 x26:0x9255f306 x18=0xfffffb77
       51065000	      5105	80006974	0098dd93	srli	x27,x17,0x9	 x17:0xb7082000 x27=0x005b8410
       51075000	      5106	80006978	c31c8f67	jalr	x30,x25,-975	 x25:0x800047a4 x30=0x80006978
       51085000	      5107	00000000	00000013	addi	x0,x0,0	  x0:0x00000000
       51095000	      5108	800043d4	00000013	addi	x0,x0,0	  x0:0x00000000
       51105000	      5109	800043d8	007601b3	add	x3,x12,x7	 x12:0x00000001  x7:0x00000000  x3=0x00000001
       51115000	      5110	800043dc	fcce0e13	addi	x28,x28,-52	 x28:0x80009f70 x28=0x80009f3c
       51125000	      5111	800043e0	01f675b3	and	x11,x12,x31	 x12:0x00000001 x31:0xffffc5e6 x11=0x00000000
       51135000	      5112	800043e4	00a64c33	xor	x24,x12,x10	 x12:0x00000001 x10:0x00000001 x24=0x00000000
       51145000	      5113	800043e8	41c203b3	sub	x7,x4,x28	  x4:0x00000001 x28:0x80009f3c  x7=0x7fff60c5
       51155000	      5114	800043ec	00f9f3b3	and	x7,x19,x15	 x19:0x00000001 x15:0x00000000  x7=0x00000000
       51165000	      5115	800043f0	01ee2223	sw	x30,4(x28)	 x28:0x80009f3c x30:0x80006978 PA:0x80009f40
       51175000	      5116	800043f4	01299db3	sll	x27,x19,x18	 x19:0x00000001 x18:0xfffffb77 x27=0x00800000
       51185000	      5117	800043f8	00004517	auipc	x10,0x4	 x10=0x800083f4
       51195000	      5118	800043fc	eba50513	addi	x10,x10,-326	 x10:0x800083f4 x10=0x800082ae
       51205000	      5119	80004400	01a9a2b3	slt	x5,x19,x26	 x19:0x00000001 x26:0x9255f306  x5=0x00000000
       51215000	      5120	80004404	fe550ca3	sb	x5,-7(x10)	 x10:0x800082ae  x5:0x00000000 PA:0x800082a7
       51225000	      5121	80004408	fef54483	lbu	x9,-17(x10)	 x10:0x800082ae  x9=0x00000000 PA:0x8000829d
       51235000	      5122	8000440c	01fc2133	slt	x2,x24,x31	 x24:0x00000000 x31:0xffffc5e6  x2=0x00000000
       51245000	      5123	80004410	ffb50f83	lb	x31,-5(x10)	 x10:0x800082ae x31=0x0000005a PA:0x800082a9
       51255000	      5124	80004414	fe9524b7	lui	x9,0xfe952	  x9=0xfe952000
       51265000	      5125	80004418	fe150da3	sb	x1,-5(x10)	 x10:0x800082ae  x1:0x7f7de968 PA:0x800082a9
       51275000	      5126	8000441c	02a505a3	sb	x10,43(x10)	 x10:0x800082ae x10:0x800082ae PA:0x800082d9
       51285000	      5127	80004420	4eb17193	andi	x3,x2,1259	  x2:0x00000000  x3=0x00000000
       51295000	      5128	80004424	016e9413	slli	x8,x29,0x16	 x29:0xe88a42b0  x8=0xac000000
       51305000	      5129	80004428	01b50303	lb	x6,27(x10)	 x10:0x800082ae  x6=0x00000000 PA:0x800082c9
       51315000	      5130	8000442c	ff851903	lh	x18,-8(x10)	 x10:0x800082ae x18=0x00000091 PA:0x800082a6
       51325000	      5131	80004430	03652883	lw	x17,54(x10)	 x10:0x800082ae x17=0x00000000 PA:0x800082e4
       51335000	      5132	80004434	014702b3	add	x5,x14,x20	 x14:0xec8a42b0 x20:0x57cc1800  x5=0x44565ab0
       51345000	      5133	80004438	40e380b3	sub	x1,x7,x14	  x7:0x00000000 x14:0xec8a42b0  x1=0x1375bd50
       51355000	      5134	8000443c	b6336693	ori	x13,x6,-1181	  x6:0x00000000 x13=0xfffffb63
       51365000	      5135	80004440	fd150303	lb	x6,-47(x10)	 x10:0x800082ae  x6=0x00000000 PA:0x8000827f
       51375000	      5136	80004444	01950a03	lb	x20,25(x10)	 x10:0x800082ae x20=0x00000000 PA:0x800082c7
       51385000	      5137	80004448	015f9193	slli	x3,x31,0x15	 x31:0x0000005a  x3=0x0b400000
       51395000	      5138	8000444c	fc1504a3	sb	x1,-55(x10)	 x10:0x800082ae  x1:0x1375bd50 PA:0x80008277
       51405000	      5139	80004450	002b5cb3	srl	x25,x22,x2	 x22:0x4e53f340  x2:0x00000000 x25=0x4e53f340
       51415000	      5140	80004454	04051003	lh	x0,64(x10)	 x10:0x800082ae PA:0x800082ee
       51425000	      5141	80004458	02c50083	lb	x1,44(x10)	 x10:0x800082ae  x1=0x00000000 PA:0x800082da
       51435000	      5142	8000445c	02b50b23	sb	x11,54(x10)	 x10:0x800082ae x11:0x00000000 PA:0x800082e4
       51445000	      5143	80004460	03252f83	lw	x31,50(x10)	 x10:0x800082ae x31=0x00000000 PA:0x800082e0
       51455000	      5144	80004464	02954803	lbu	x16,41(x10)	 x10:0x800082ae x16=0x00000000 PA:0x800082d7
       51465000	      5145	80004468	00054903	lbu	x18,0(x10)	 x10:0x800082ae x18=0x00000000 PA:0x800082ae
       51475000	      5146	8000446c	fc0504a3	sb	x0,-55(x10)	 x10:0x800082ae  x0:0x00000000 PA:0x80008277
       51485000	      5147	80004470	003781b3	add	x3,x15,x3	 x15:0x00000000  x3:0x0b400000  x3=0x0b400000
       51495000	      5148	80004474	00850683	lb	x13,8(x10)	 x10:0x800082ae x13=0x00000000 PA:0x800082b6
       51505000	      5149	80004478	16a2e813	ori	x16,x5,362	  x5:0x44565ab0 x16=0x44565bfa
       51515000	      5150	8000447c	03f54583	lbu	x11,63(x10)	 x10:0x800082ae x11=0x00000000 PA:0x800082ed
       51525000	      5151	80004480	0023cdb3	xor	x27,x7,x2	  x7:0x00000000  x2:0x00000000 x27=0x00000000
       51535000	      5152	80004484	fe554c03	lbu	x24,-27(x10)	 x10:0x800082ae x24=0x00000000 PA:0x80008293
       51545000	      5153	80004488	5cb50493	addi	x9,x10,1483	 x10:0x800082ae  x9=0x80008879
       51555000	      5154	8000448c	406988b3	sub	x17,x19,x6	 x19:0x00000001  x6:0x00000000 x17=0x00000001
       51565000	      5155	80004490	01ea5133	srl	x2,x20,x30	 x20:0x00000000 x30:0x80006978  x2=0x00000000
       51575000	      5156	80004494	fd750d23	sb	x23,-38(x10)	 x10:0x800082ae x23:0xf091aa4a PA:0x80008288
       51585000	      5157	80004498	419ed613	srai	x12,x29,0x19	 x29:0xe88a42b0 x12=0xfffffff4
       51595000	      5158	8000449c	04051f03	lh	x30,64(x10)	 x10:0x800082ae x30=0x00000000 PA:0x800082ee
       51605000	      5159	800044a0	01019113	slli	x2,x3,0x10	  x3:0x0b400000  x2=0x00000000
       51615000	      5160	800044a4	00d50c83	lb	x25,13(x10)	 x10:0x800082ae x25=0x00000000 PA:0x800082bb
       51625000	      5161	800044a8	01e76d33	or	x26,x14,x30	 x14:0xec8a42b0 x30:0x00000000 x26=0xec8a42b0
       51635000	      5162	800044ac	fd050903	lb	x18,-48(x10)	 x10:0x800082ae x18=0x00000000 PA:0x8000827e
       51645000	      5163	800044b0	00475193	srli	x3,x14,0x4	 x14:0xec8a42b0  x3=0x0ec8a42b
       51655000	      5164	800044b4	fe552d23	sw	x5,-6(x10)	 x10:0x800082ae  x5:0x44565ab0 PA:0x800082a8
       51665000	      5165	800044b8	03a51523	sh	x26,42(x10)	 x10:0x800082ae x26:0xec8a42b0 PA:0x800082d8
       51675000	      5166	800044bc	03954883	lbu	x17,57(x10)	 x10:0x800082ae x17=0x00000000 PA:0x800082e7
       51685000	      5167	800044c0	016b36b3	sltu	x13,x22,x22	 x22:0x4e53f340 x22:0x4e53f340 x13=0x00000000
       51695000	      5168	800044c4	001115b3	sll	x11,x2,x1	  x2:0x00000000  x1:0x00000000 x11=0x00000000
       51705000	      5169	800044c8	00fa5693	srli	x13,x20,0xf	 x20:0x00000000 x13=0x00000000
       51715000	      5170	800044cc	010b9eb3	sll	x29,x23,x16	 x23:0xf091aa4a x16:0x44565bfa x29=0x28000000
       51725000	      5171	800044d0	75f14e93	xori	x29,x2,1887	  x2:0x00000000 x29=0x0000075f
       51735000	      5172	800044d4	ffb50783	lb	x15,-5(x10)	 x10:0x800082ae x15=0x0000005a PA:0x800082a9
       51745000	      5173	800044d8	00000013	addi	x0,x0,0	  x0:0x00000000
       51755000	      5174	800044dc	41fc5033	sra	x0,x24,x31	 x24:0x00000000 x31:0x00000000
       51765000	      5175	800044e0	01fd37b3	sltu	x15,x26,x31	 x26:0xec8a42b0 x31:0x00000000 x15=0x00000000
       51775000	      5176	800044e4	fd154903	lbu	x18,-47(x10)	 x10:0x800082ae x18=0x00000000 PA:0x8000827f
       51785000	      5177	800044e8	00004597	auipc	x11,0x4	 x11=0x800084e4
       51795000	      5178	800044ec	4db58593	addi	x11,x11,1243	 x11:0x800084e4 x11=0x800089bf
       51805000	      5179	800044f0	ff75c703	lbu	x14,-9(x11)	 x11:0x800089bf x14=0x00000000 PA:0x800089b6
       51815000	      5180	800044f4	ff058083	lb	x1,-16(x11)	 x11:0x800089bf  x1=0x00000000 PA:0x800089af
       51825000	      5181	800044f8	ffc5cc83	lbu	x25,-4(x11)	 x11:0x800089bf x25=0x00000000 PA:0x800089bb
       51835000	      5182	800044fc	ff359383	lh	x7,-13(x11)	 x11:0x800089bf  x7=0x00000000 PA:0x800089b2
       51845000	      5183	80004500	fe45aea3	sw	x4,-3(x11)	 x11:0x800089bf  x4:0x00000001 PA:0x800089bc
       51855000	      5184	80004504	018658b3	srl	x17,x12,x24	 x12:0xfffffff4 x24:0x00000000 x17=0xfffffff4
       51865000	      5185	80004508	ff65c883	lbu	x17,-10(x11)	 x11:0x800089bf x17=0x00000000 PA:0x800089b5
       51875000	      5186	8000450c	009f1533	sll	x10,x30,x9	 x30:0x00000000  x9:0x80008879 x10=0x00000000
       51885000	      5187	80004510	ff759fa3	sh	x23,-1(x11)	 x11:0x800089bf x23:0xf091aa4a PA:0x800089be
       51895000	      5188	80004514	ff359883	lh	x17,-13(x11)	 x11:0x800089bf x17=0x00000000 PA:0x800089b2
       51905000	      5189	80004518	00958d83	lb	x27,9(x11)	 x11:0x800089bf x27=0x00000000 PA:0x800089c8
       51915000	      5190	8000451c	1650f493	andi	x9,x1,357	  x1:0x00000000  x9=0x00000000
       51925000	      5191	80004520	ff45c803	lbu	x16,-12(x11)	 x11:0x800089bf x16=0x00000000 PA:0x800089b3
       51935000	      5192	80004524	a84fe193	ori	x3,x31,-1404	 x31:0x00000000  x3=0xfffffa84
       51945000	      5193	80004528	00000013	addi	x0,x0,0	  x0:0x00000000
       51955000	      5194	8000452c	ffe58803	lb	x16,-2(x11)	 x11:0x800089bf x16=0x00000000 PA:0x800089bd
       51965000	      5195	80004530	00858d83	lb	x27,8(x11)	 x11:0x800089bf x27=0x00000000 PA:0x800089c7
       51975000	      5196	80004534	fef58a23	sb	x15,-12(x11)	 x11:0x800089bf x15:0x00000000 PA:0x800089b3
       51985000	      5197	80004538	ffb58883	lb	x17,-5(x11)	 x11:0x800089bf x17=0x00000000 PA:0x800089ba
       51995000	      5198	8000453c	ffe5c603	lbu	x12,-2(x11)	 x11:0x800089bf x12=0x00000000 PA:0x800089bd
       52005000	      5199	80004540	019580a3	sb	x25,1(x11)	 x11:0x800089bf x25:0x00000000 PA:0x800089c0
       52015000	      5200	80004544	00000013	addi	x0,x0,0	  x0:0x00000000
       52025000	      5201	80004548	e0b10d13	addi	x26,x2,-501	  x2:0x00000000 x26=0xfffffe0b
       52035000	      5202	8000454c	01858723	sb	x24,14(x11)	 x11:0x800089bf x24:0x00000000 PA:0x800089cd
       52045000	      5203	80004550	5e936993	ori	x19,x6,1513	  x6:0x00000000 x19=0x000005e9
       52055000	      5204	80004554	00a58383	lb	x7,10(x11)	 x11:0x800089bf  x7=0x00000000 PA:0x800089c9
       52065000	      5205	80004558	ff759a03	lh	x20,-9(x11)	 x11:0x800089bf x20=0x00000000 PA:0x800089b6
       52075000	      5206	8000455c	ff158e23	sb	x17,-4(x11)	 x11:0x800089bf x17:0x00000000 PA:0x800089bb
       52085000	      5207	80004560	ff25c103	lbu	x2,-14(x11)	 x11:0x800089bf  x2=0x00000000 PA:0x800089b1
       52095000	      5208	80004564	e5af0c13	addi	x24,x30,-422	 x30:0x00000000 x24=0xfffffe5a
       52105000	      5209	80004568	40125a13	srai	x20,x4,0x1	  x4:0x00000001 x20=0x00000000
       52115000	      5210	8000456c	00d580a3	sb	x13,1(x11)	 x11:0x800089bf x13:0x00000000 PA:0x800089c0
       52125000	      5211	80004570	ffb5db03	lhu	x22,-5(x11)	 x11:0x800089bf x22=0x00000000 PA:0x800089ba
       52135000	      5212	80004574	ff859ca3	sh	x24,-7(x11)	 x11:0x800089bf x24:0xfffffe5a PA:0x800089b8
       52145000	      5213	80004578	00004d97	auipc	x27,0x4	 x27=0x80008574
       52155000	      5214	8000457c	5f4d8d93	addi	x27,x27,1524	 x27:0x80008574 x27=0x80008b68
       52165000	      5215	80004580	006da0b3	slt	x1,x27,x6	 x27:0x80008b68  x6:0x00000000  x1=0x00000001
       52175000	      5216	80004584	001b5013	srli	x0,x22,0x1	 x22:0x00000000
       52185000	      5217	80004588	41da58b3	sra	x17,x20,x29	 x20:0x00000000 x29:0x0000075f x17=0x00000000
       52195000	      5218	8000458c	03cd86a3	sb	x28,45(x27)	 x27:0x80008b68 x28:0x80009f3c PA:0x80008b95
       52205000	      5219	80004590	03ad8b03	lb	x22,58(x27)	 x27:0x80008b68 x22=0x00000000 PA:0x80008ba2
       52215000	      5220	80004594	00bea6b3	slt	x13,x29,x11	 x29:0x0000075f x11:0x800089bf x13=0x00000000
       52225000	      5221	80004598	015baa33	slt	x20,x23,x21	 x23:0xf091aa4a x21:0x80009fc4 x20=0x00000000
       52235000	      5222	8000459c	fc1d88a3	sb	x1,-47(x27)	 x27:0x80008b68  x1:0x00000001 PA:0x80008b39
       52245000	      5223	800045a0	99fe7e93	andi	x29,x28,-1633	 x28:0x80009f3c x29=0x8000991c
       52255000	      5224	800045a4	00000013	addi	x0,x0,0	  x0:0x00000000
       52265000	      5225	800045a8	98b42293	slti	x5,x8,-1653	  x8:0xac000000  x5=0x00000001
       52275000	      5226	800045ac	4887aa13	slti	x20,x15,1160	 x15:0x00000000 x20=0x00000001
       52285000	      5227	800045b0	024dda03	lhu	x20,36(x27)	 x27:0x80008b68 x20=0x00000000 PA:0x80008b8c
       52295000	      5228	800045b4	649d7993	andi	x19,x26,1609	 x26:0xfffffe0b x19=0x00000609
       52305000	      5229	800045b8	40095b13	srai	x22,x18,0x0	 x18:0x00000000 x22=0x00000000
       52315000	      5230	800045bc	00f95c33	srl	x24,x18,x15	 x18:0x00000000 x15:0x00000000 x24=0x00000000
       52325000	      5231	800045c0	edb9d797	auipc	x15,0xedb9d	 x15=0x6dba15bc
       52335000	      5232	800045c4	00039993	slli	x19,x7,0x0	  x7:0x00000000 x19=0x00000000
       52345000	      5233	800045c8	017d9323	sh	x23,6(x27)	 x27:0x80008b68 x23:0xf091aa4a PA:0x80008b6e
       52355000	      5234	800045cc	03fd8483	lb	x9,63(x27)	 x27:0x80008b68  x9=0x00000000 PA:0x80008ba7
       52365000	      5235	800045d0	4147d313	srai	x6,x15,0x14	 x15:0x6dba15bc  x6=0x000006db
       52375000	      5236	800045d4	29e86513	ori	x10,x16,670	 x16:0x00000000 x10=0x0000029e
       52385000	      5237	800045d8	cca0c493	xori	x9,x1,-822	  x1:0x00000001  x9=0xfffffccb
       52395000	      5238	800045dc	0033a133	slt	x2,x7,x3	  x7:0x00000000  x3:0xfffffa84  x2=0x00000000
       52405000	      5239	800045e0	0052bfb3	sltu	x31,x5,x5	  x5:0x00000001  x5:0x00000001 x31=0x00000000
       52415000	      5240	800045e4	fd3dc903	lbu	x18,-45(x27)	 x27:0x80008b68 x18=0x00000000 PA:0x80008b3b
       52425000	      5241	800045e8	ff9d83a3	sb	x25,-25(x27)	 x27:0x80008b68 x25:0x00000000 PA:0x80008b4f
       52435000	      5242	800045ec	fe1dcf03	lbu	x30,-31(x27)	 x27:0x80008b68 x30=0x00000000 PA:0x80008b49
       52445000	      5243	800045f0	ea40fb13	andi	x22,x1,-348	  x1:0x00000001 x22=0x00000000
       52455000	      5244	800045f4	fd3d8403	lb	x8,-45(x27)	 x27:0x80008b68  x8=0x00000000 PA:0x80008b3b
       52465000	      5245	800045f8	ee6b0593	addi	x11,x22,-282	 x22:0x00000000 x11=0xfffffee6
       52475000	      5246	800045fc	93cee713	ori	x14,x29,-1732	 x29:0x8000991c x14=0xfffff93c
       52485000	      5247	80004600	41b25793	srai	x15,x4,0x1b	  x4:0x00000001 x15=0x00000000
       52495000	      5248	80004604	006defb3	or	x31,x27,x6	 x27:0x80008b68  x6:0x000006db x31=0x80008ffb
       52505000	      5249	80004608	4e1f0f93	addi	x31,x30,1249	 x30:0x00000000 x31=0x000004e1
       52515000	      5250	8000460c	0101cf33	xor	x30,x3,x16	  x3:0xfffffa84 x16:0x00000000 x30=0xfffffa84
       52525000	      5251	80004610	48f0a093	slti	x1,x1,1167	  x1:0x00000001  x1=0x00000001
       52535000	      5252	80004614	8f805197	auipc	x3,0x8f805	  x3=0x0f809610
       52545000	      5253	80004618	033d8983	lb	x19,51(x27)	 x27:0x80008b68 x19=0x00000000 PA:0x80008b9b
       52555000	      5254	8000461c	fe9d8583	lb	x11,-23(x27)	 x27:0x80008b68 x11=0x00000000 PA:0x80008b51
       52565000	      5255	80004620	007dd893	srli	x17,x27,0x7	 x27:0x80008b68 x17=0x01000116
       52575000	      5256	80004624	01a7d5b3	srl	x11,x15,x26	 x15:0x00000000 x26:0xfffffe0b x11=0x00000000
       52585000	      5257	80004628	7c3fa537	lui	x10,0x7c3fa	 x10=0x7c3fa000
       52595000	      5258	8000462c	006a41b3	xor	x3,x20,x6	 x20:0x00000000  x6:0x000006db  x3=0x000006db
       52605000	      5259	80004630	41fad633	sra	x12,x21,x31	 x21:0x80009fc4 x31:0x000004e1 x12=0xc0004fe2
       52615000	      5260	80004634	02e0de63	bge	x1,x14,80004670	  x1:0x00000001 x14:0xfffff93c
       52625000	      5261	00000000	00000013	addi	x0,x0,0	  x0:0x00000000
       52635000	      5262	8000466c	00000013	addi	x0,x0,0	  x0:0x00000000
       52645000	      5263	80004670	00bda6b3	slt	x13,x27,x11	 x27:0x80008b68 x11:0x00000000 x13=0x00000001
       52655000	      5264	80004674	00c29d33	sll	x26,x5,x12	  x5:0x00000001 x12:0xc0004fe2 x26=0x00000004
       52665000	      5265	80004678	056b8263	beq	x23,x22,800046bc	 x23:0xf091aa4a x22:0x00000000
       52675000	      5266	8000467c	e73cfa13	andi	x20,x25,-397	 x25:0x00000000 x20=0x00000000
       52685000	      5267	80004680	01be4633	xor	x12,x28,x27	 x28:0x80009f3c x27:0x80008b68 x12=0x00001454
       52695000	      5268	80004684	014db8b3	sltu	x17,x27,x20	 x27:0x80008b68 x20:0x00000000 x17=0x00000000
       52705000	      5269	80004688	00000013	addi	x0,x0,0	  x0:0x00000000
       52715000	      5270	8000468c	41508a33	sub	x20,x1,x21	  x1:0x00000001 x21:0x80009fc4 x20=0x7fff603d
       52725000	      5271	80004690	6cd1b313	sltiu	x6,x3,1741	  x3:0x000006db  x6=0x00000000
       52735000	      5272	80004694	00070c63	beq	x14,x0,800046ac	 x14:0xfffff93c  x0:0x00000000
       52745000	      5273	80004698	41aad0b3	sra	x1,x21,x26	 x21:0x80009fc4 x26:0x00000004  x1=0xf80009fc
       52755000	      5274	8000469c	3c0f0493	addi	x9,x30,960	 x30:0xfffffa84  x9=0xfffffe44
       52765000	      5275	800046a0	b81f6813	ori	x16,x30,-1151	 x30:0xfffffa84 x16=0xfffffb85
       52775000	      5276	800046a4	021c4863	blt	x24,x1,800046d4	 x24:0x00000000  x1:0xf80009fc
       52785000	      5277	800046a8	00c173b3	and	x7,x2,x12	  x2:0x00000000 x12:0x00001454  x7=0x00000000
       52795000	      5278	800046ac	018e8e63	beq	x29,x24,800046c8	 x29:0x8000991c x24:0x00000000
       52805000	      5279	800046b0	f847e237	lui	x4,0xf847e	  x4=0xf847e000
       52815000	      5280	800046b4	002c9cb3	sll	x25,x25,x2	 x25:0x00000000  x2:0x00000000 x25=0x00000000
       52825000	      5281	800046b8	01de5eb3	srl	x29,x28,x29	 x28:0x80009f3c x29:0x8000991c x29=0x00000008
       52835000	      5282	800046bc	0051dd13	srli	x26,x3,0x5	  x3:0x000006db x26=0x00000036
       52845000	      5283	800046c0	018d92b3	sll	x5,x27,x24	 x27:0x80008b68 x24:0x00000000  x5=0x80008b68
       52855000	      5284	800046c4	00cfdfb3	srl	x31,x31,x12	 x31:0x000004e1 x12:0x00001454 x31=0x00000000
       52865000	      5285	800046c8	e0563d17	auipc	x26,0xe0563	 x26=0x605676c4
       52875000	      5286	800046cc	0045f7b3	and	x15,x11,x4	 x11:0x00000000  x4:0xf847e000 x15=0x00000000
       52885000	      5287	800046d0	00585d33	srl	x26,x16,x5	 x16:0xfffffb85  x5:0x80008b68 x26=0x00fffffb
       52895000	      5288	800046d4	9d214413	xori	x8,x2,-1582	  x2:0x00000000  x8=0xfffff9d2
       52905000	      5289	800046d8	5c1a51b7	lui	x3,0x5c1a5	  x3=0x5c1a5000
       52915000	      5290	800046dc	00380c63	beq	x16,x3,800046f4	 x16:0xfffffb85  x3:0x5c1a5000
       52925000	      5291	800046e0	00e6dcb3	srl	x25,x13,x14	 x13:0x00000001 x14:0xfffff93c x25=0x00000000
       52935000	      5292	800046e4	00631a63	bne	x6,x6,800046f8	  x6:0x00000000  x6:0x00000000
       52945000	      5293	800046e8	002324b3	slt	x9,x6,x2	  x6:0x00000000  x2:0x00000000  x9=0x00000000
       52955000	      5294	800046ec	40f888b3	sub	x17,x17,x15	 x17:0x00000000 x15:0x00000000 x17=0x00000000
       52965000	      5295	800046f0	0ce10493	addi	x9,x2,206	  x2:0x00000000  x9=0x000000ce
       52975000	      5296	800046f4	d09e6f93	ori	x31,x28,-759	 x28:0x80009f3c x31=0xffffff3d
       52985000	      5297	800046f8	41dc5c33	sra	x24,x24,x29	 x24:0x00000000 x29:0x00000008 x24=0x00000000
       52995000	      5298	800046fc	01b84333	xor	x6,x16,x27	 x16:0xfffffb85 x27:0x80008b68  x6=0x7fff70ed
       53005000	      5299	80004700	0031c5b3	xor	x11,x3,x3	  x3:0x5c1a5000  x3:0x5c1a5000 x11=0x00000000
       53015000	      5300	80004704	018d63b3	or	x7,x26,x24	 x26:0x00fffffb x24:0x00000000  x7=0x00fffffb
       53025000	      5301	80004708	96fd2213	slti	x4,x26,-1681	 x26:0x00fffffb  x4=0x00000000
       53035000	      5302	8000470c	04f2c663	blt	x5,x15,80004758	  x5:0x80008b68 x15:0x00000000
       53045000	      5303	00000000	00000013	addi	x0,x0,0	  x0:0x00000000
       53055000	      5304	80004754	00000013	addi	x0,x0,0	  x0:0x00000000
       53065000	      5305	80004758	0427c263	blt	x15,x2,8000479c	 x15:0x00000000  x2:0x00000000
       53075000	      5306	8000475c	00ecfa63	bgeu	x25,x14,80004770	 x25:0x00000000 x14:0xfffff93c
       53085000	      5307	80004760	00ccda13	srli	x20,x25,0xc	 x25:0x00000000 x20=0x00000000
       53095000	      5308	80004764	006cfc63	bgeu	x25,x6,8000477c	 x25:0x00000000  x6:0x7fff70ed
       53105000	      5309	80004768	00000013	addi	x0,x0,0	  x0:0x00000000
       53115000	      5310	8000476c	58dc3593	sltiu	x11,x24,1421	 x24:0x00000000 x11=0x00000001
       53125000	      5311	80004770	01081633	sll	x12,x16,x16	 x16:0xfffffb85 x16:0xfffffb85 x12=0xffff70a0
       53135000	      5312	80004774	415f0733	sub	x14,x30,x21	 x30:0xfffffa84 x21:0x80009fc4 x14=0x7fff5ac0
       53145000	      5313	80004778	40c08a33	sub	x20,x1,x12	  x1:0xf80009fc x12:0xffff70a0 x20=0xf800995c
       53155000	      5314	8000477c	0302d063	bge	x5,x16,8000479c	  x5:0x80008b68 x16:0xfffffb85
       53165000	      5315	80004780	41b253b3	sra	x7,x4,x27	  x4:0x00000000 x27:0x80008b68  x7=0x00000000
       53175000	      5316	80004784	a21ecf17	auipc	x30,0xa21ec	 x30=0x221f0780
       53185000	      5317	80004788	41840db3	sub	x27,x8,x24	  x8:0xfffff9d2 x24:0x00000000 x27=0xfffff9d2
       53195000	      5318	8000478c	739ba193	slti	x3,x23,1849	 x23:0xf091aa4a  x3=0x00000001
       53205000	      5319	80004790	9a4d7193	andi	x3,x26,-1628	 x26:0x00fffffb  x3=0x00fff9a0
       53215000	      5320	80004794	01ab9293	slli	x5,x23,0x1a	 x23:0xf091aa4a  x5=0x28000000
       53225000	      5321	80004798	01c09c63	bne	x1,x28,800047b0	  x1:0xf80009fc x28:0x80009f3c
       53235000	      5322	00000000	00000013	addi	x0,x0,0	  x0:0x00000000
       53245000	      5323	800047ac	00000013	addi	x0,x0,0	  x0:0x00000000
       53255000	      5324	800047b0	00000013	addi	x0,x0,0	  x0:0x00000000
       53265000	      5325	800047b4	01d5f0b3	and	x1,x11,x29	 x11:0x00000001 x29:0x00000008  x1=0x00000000
       53275000	      5326	800047b8	00b2d8b3	srl	x17,x5,x11	  x5:0x28000000 x11:0x00000001 x17=0x14000000
       53285000	      5327	800047bc	64c60393	addi	x7,x12,1612	 x12:0xffff70a0  x7=0xffff76ec
       53295000	      5328	800047c0	017bdc63	bge	x23,x23,800047d8	 x23:0xf091aa4a x23:0xf091aa4a
       53305000	      5329	00000000	00000013	addi	x0,x0,0	  x0:0x00000000
       53315000	      5330	800047d4	00000013	addi	x0,x0,0	  x0:0x00000000
       53325000	      5331	800047d8	00000013	addi	x0,x0,0	  x0:0x00000000
       53335000	      5332	800047dc	c315e513	ori	x10,x11,-975	 x11:0x00000001 x10=0xfffffc31
       53345000	      5333	800047e0	004d5693	srli	x13,x26,0x4	 x26:0x00fffffb x13=0x000fffff
       53355000	      5334	800047e4	62f54097	auipc	x1,0x62f54	  x1=0xe2f587e0
       53365000	      5335	800047e8	01d69213	slli	x4,x13,0x1d	 x13:0x000fffff  x4=0xe0000000
       53375000	      5336	800047ec	c074e197	auipc	x3,0xc074e	  x3=0x407527e8
       53385000	      5337	800047f0	46590493	addi	x9,x18,1125	 x18:0x00000000  x9=0x00000465
       53395000	      5338	800047f4	506b0293	addi	x5,x22,1286	 x22:0x00000000  x5=0x00000506
       53405000	      5339	800047f8	04470663	beq	x14,x4,80004844	 x14:0x7fff5ac0  x4:0xe0000000
       53415000	      5340	800047fc	02216063	bltu	x2,x2,8000481c	  x2:0x00000000  x2:0x00000000
       53425000	      5341	80004800	00cad7b3	srl	x15,x21,x12	 x21:0x80009fc4 x12:0xffff70a0 x15=0x80009fc4
       53435000	      5342	80004804	0146f933	and	x18,x13,x20	 x13:0x000fffff x20:0xf800995c x18=0x0000995c
       53445000	      5343	80004808	1d624193	xori	x3,x4,470	  x4:0xe0000000  x3=0xe00001d6
       53455000	      5344	8000480c	03a69063	bne	x13,x26,8000482c	 x13:0x000fffff x26:0x00fffffb
       53465000	      5345	00000000	00000013	addi	x0,x0,0	  x0:0x00000000
       53475000	      5346	80004828	00000013	addi	x0,x0,0	  x0:0x00000000
       53485000	      5347	8000482c	01b46e63	bltu	x8,x27,80004848	  x8:0xfffff9d2 x27:0xfffff9d2
       53495000	      5348	80004830	01811993	slli	x19,x2,0x18	  x2:0x00000000 x19=0x00000000
       53505000	      5349	80004834	b8a02013	slti	x0,x0,-1142	  x0:0x00000000
       53515000	      5350	80004838	008ed613	srli	x12,x29,0x8	 x29:0x00000008 x12=0x00000000
       53525000	      5351	8000483c	005a3833	sltu	x16,x20,x5	 x20:0xf800995c  x5:0x00000506 x16=0x00000000
       53535000	      5352	80004840	6af38493	addi	x9,x7,1711	  x7:0xffff76ec  x9=0xffff7d9b
       53545000	      5353	80004844	001efeb3	and	x29,x29,x1	 x29:0x00000008  x1:0xe2f587e0 x29=0x00000000
       53555000	      5354	80004848	69cc6b37	lui	x22,0x69cc6	 x22=0x69cc6000
       53565000	      5355	8000484c	41ad5313	srai	x6,x26,0x1a	 x26:0x00fffffb  x6=0x00000000
       53575000	      5356	80004850	41b90433	sub	x8,x18,x27	 x18:0x0000995c x27:0xfffff9d2  x8=0x00009f8a
       53585000	      5357	80004854	01bbc233	xor	x4,x23,x27	 x23:0xf091aa4a x27:0xfffff9d2  x4=0x0f6e5398
       53595000	      5358	80004858	b889beb7	lui	x29,0xb889b	 x29=0xb889b000
       53605000	      5359	8000485c	f3bac193	xori	x3,x21,-197	 x21:0x80009fc4  x3=0x7fff60ff
       53615000	      5360	80004860	015e1463	bne	x28,x21,80004868	 x28:0x80009f3c x21:0x80009fc4
       53625000	      5361	00000000	00000013	addi	x0,x0,0	  x0:0x00000000
       53635000	      5362	80004864	00000013	addi	x0,x0,0	  x0:0x00000000
       53645000	      5363	80004868	332a4413	xori	x8,x20,818	 x20:0xf800995c  x8=0xf8009a6e
       53655000	      5364	8000486c	89ce4813	xori	x16,x28,-1892	 x28:0x80009f3c x16=0x7fff67a0
       53665000	      5365	80004870	bb1cb893	sltiu	x17,x25,-1103	 x25:0x00000000 x17=0x00000001
       53675000	      5366	80004874	015e3d33	sltu	x26,x28,x21	 x28:0x80009f3c x21:0x80009fc4 x26=0x00000001
       53685000	      5367	80004878	1aa15937	lui	x18,0x1aa15	 x18=0x1aa15000
       53695000	      5368	8000487c	0031d613	srli	x12,x3,0x3	  x3:0x7fff60ff x12=0x0fffec1f
       53705000	      5369	80004880	02f3f063	bgeu	x7,x15,800048a0	  x7:0xffff76ec x15:0x80009fc4
       53715000	      5370	00000000	00000013	addi	x0,x0,0	  x0:0x00000000
       53725000	      5371	8000489c	00000013	addi	x0,x0,0	  x0:0x00000000
       53735000	      5372	800048a0	7ac5b513	sltiu	x10,x11,1964	 x11:0x00000001 x10=0x00000001
       53745000	      5373	800048a4	04915663	bge	x2,x9,800048f0	  x2:0x00000000  x9:0xffff7d9b
       53755000	      5374	00000000	00000013	addi	x0,x0,0	  x0:0x00000000
       53765000	      5375	800048ec	00000013	addi	x0,x0,0	  x0:0x00000000
       53775000	      5376	800048f0	03709263	bne	x1,x23,80004914	  x1:0xe2f587e0 x23:0xf091aa4a
       53785000	      5377	00000000	00000013	addi	x0,x0,0	  x0:0x00000000
       53795000	      5378	80004910	00000013	addi	x0,x0,0	  x0:0x00000000
       53805000	      5379	80004914	00f1f9b3	and	x19,x3,x15	  x3:0x7fff60ff x15:0x80009fc4 x19=0x000000c4
       53815000	      5380	80004918	4001da13	srai	x20,x3,0x0	  x3:0x7fff60ff x20=0x7fff60ff
       53825000	      5381	8000491c	0136fcb3	and	x25,x13,x19	 x13:0x000fffff x19:0x000000c4 x25=0x000000c4
       53835000	      5382	80004920	01d3d433	srl	x8,x7,x29	  x7:0xffff76ec x29:0xb889b000  x8=0xffff76ec
       53845000	      5383	80004924	045b7663	bgeu	x22,x5,80004970	 x22:0x69cc6000  x5:0x00000506
       53855000	      5384	00000000	00000013	addi	x0,x0,0	  x0:0x00000000
       53865000	      5385	8000496c	00000013	addi	x0,x0,0	  x0:0x00000000
       53875000	      5386	80004970	02975e63	bge	x14,x9,800049ac	 x14:0x7fff5ac0  x9:0xffff7d9b
       53885000	      5387	00000000	00000013	addi	x0,x0,0	  x0:0x00000000
       53895000	      5388	800049a8	00000013	addi	x0,x0,0	  x0:0x00000000
       53905000	      5389	800049ac	7225bd13	sltiu	x26,x11,1826	 x11:0x00000001 x26=0x00000001
       53915000	      5390	800049b0	00029c63	bne	x5,x0,800049c8	  x5:0x00000506  x0:0x00000000
       53925000	      5391	00000000	00000013	addi	x0,x0,0	  x0:0x00000000
       53935000	      5392	800049c4	00000013	addi	x0,x0,0	  x0:0x00000000
       53945000	      5393	800049c8	00356e63	bltu	x10,x3,800049e4	 x10:0x00000001  x3:0x7fff60ff
       53955000	      5394	00000000	00000013	addi	x0,x0,0	  x0:0x00000000
       53965000	      5395	800049e0	00000013	addi	x0,x0,0	  x0:0x00000000
       53975000	      5396	800049e4	4043d893	srai	x17,x7,0x4	  x7:0xffff76ec x17=0xfffff76e
       53985000	      5397	800049e8	02862013	slti	x0,x12,40	 x12:0x0fffec1f
       53995000	      5398	800049ec	01fd9c63	bne	x27,x31,80004a04	 x27:0xfffff9d2 x31:0xffffff3d
       54005000	      5399	00000000	00000013	addi	x0,x0,0	  x0:0x00000000
       54015000	      5400	80004a00	00000013	addi	x0,x0,0	  x0:0x00000000
       54025000	      5401	80004a04	40f0d233	sra	x4,x1,x15	  x1:0xe2f587e0 x15:0x80009fc4  x4=0xfe2f587e
       54035000	      5402	80004a08	019877b3	and	x15,x16,x25	 x16:0x7fff67a0 x25:0x000000c4 x15=0x00000080
       54045000	      5403	80004a0c	02360863	beq	x12,x3,80004a3c	 x12:0x0fffec1f  x3:0x7fff60ff
       54055000	      5404	80004a10	04597263	bgeu	x18,x5,80004a54	 x18:0x1aa15000  x5:0x00000506
       54065000	      5405	00000000	00000013	addi	x0,x0,0	  x0:0x00000000
       54075000	      5406	80004a50	00000013	addi	x0,x0,0	  x0:0x00000000
       54085000	      5407	80004a54	4116dd93	srai	x27,x13,0x11	 x13:0x000fffff x27=0x00000007
       54095000	      5408	80004a58	04869663	bne	x13,x8,80004aa4	 x13:0x000fffff  x8:0xffff76ec
       54105000	      5409	00000000	00000013	addi	x0,x0,0	  x0:0x00000000
       54115000	      5410	80004aa0	00000013	addi	x0,x0,0	  x0:0x00000000
       54125000	      5411	80004aa4	00a37133	and	x2,x6,x10	  x6:0x00000000 x10:0x00000001  x2=0x00000000
       54135000	      5412	80004aa8	40ca5e93	srai	x29,x20,0xc	 x20:0x7fff60ff x29=0x0007fff6
       54145000	      5413	80004aac	00000013	addi	x0,x0,0	  x0:0x00000000
       54155000	      5414	80004ab0	da48fc93	andi	x25,x17,-604	 x17:0xfffff76e x25=0xfffff524
       54165000	      5415	80004ab4	41068a33	sub	x20,x13,x16	 x13:0x000fffff x16:0x7fff67a0 x20=0x8010985f
       54175000	      5416	80004ab8	03ab4263	blt	x22,x26,80004adc	 x22:0x69cc6000 x26:0x00000001
       54185000	      5417	80004abc	03281063	bne	x16,x18,80004adc	 x16:0x7fff67a0 x18:0x1aa15000
       54195000	      5418	00000000	00000013	addi	x0,x0,0	  x0:0x00000000
       54205000	      5419	80004ad8	00000013	addi	x0,x0,0	  x0:0x00000000
       54215000	      5420	80004adc	56dd7a13	andi	x20,x26,1389	 x26:0x00000001 x20=0x00000001
       54225000	      5421	80004ae0	7b87b993	sltiu	x19,x15,1976	 x15:0x00000080 x19=0x00000001
       54235000	      5422	80004ae4	40c00d33	sub	x26,x0,x12	  x0:0x00000000 x12:0x0fffec1f x26=0xf00013e1
       54245000	      5423	80004ae8	05b65263	bge	x12,x27,80004b2c	 x12:0x0fffec1f x27:0x00000007
       54255000	      5424	00000000	00000013	addi	x0,x0,0	  x0:0x00000000
       54265000	      5425	80004b28	00000013	addi	x0,x0,0	  x0:0x00000000
       54275000	      5426	80004b2c	016e5713	srli	x14,x28,0x16	 x28:0x80009f3c x14=0x00000200
       54285000	      5427	80004b30	c372c993	xori	x19,x5,-969	  x5:0x00000506 x19=0xfffff931
       54295000	      5428	80004b34	01bd1113	slli	x2,x26,0x1b	 x26:0xf00013e1  x2=0x08000000
       54305000	      5429	80004b38	fa3e2a13	slti	x20,x28,-93	 x28:0x80009f3c x20=0x00000001
       54315000	      5430	80004b3c	413680b3	sub	x1,x13,x19	 x13:0x000fffff x19:0xfffff931  x1=0x001006ce
       54325000	      5431	80004b40	01bdef33	or	x30,x27,x27	 x27:0x00000007 x27:0x00000007 x30=0x00000007
       54335000	      5432	80004b44	f5316313	ori	x6,x2,-173	  x2:0x08000000  x6=0xffffff53
       54345000	      5433	80004b48	11624693	xori	x13,x4,278	  x4:0xfe2f587e x13=0xfe2f5968
       54355000	      5434	80004b4c	a2e6ab13	slti	x22,x13,-1490	 x13:0xfe2f5968 x22=0x00000001
       54365000	      5435	80004b50	0e865e63	bge	x12,x8,80004c4c	 x12:0x0fffec1f  x8:0xffff76ec
       54375000	      5436	00000000	00000013	addi	x0,x0,0	  x0:0x00000000
       54385000	      5437	80004c48	00000013	addi	x0,x0,0	  x0:0x00000000
       54395000	      5438	80004c4c	019b5193	srli	x3,x22,0x19	 x22:0x00000001  x3=0x00000000
       54405000	      5439	80004c50	a2408c93	addi	x25,x1,-1500	  x1:0x001006ce x25=0x001000f2
       54415000	      5440	80004c54	03177393	andi	x7,x14,49	 x14:0x00000200  x7=0x00000000
       54425000	      5441	80004c58	01923f33	sltu	x30,x4,x25	  x4:0xfe2f587e x25:0x001000f2 x30=0x00000000
       54435000	      5442	80004c5c	b8a03313	sltiu	x6,x0,-1142	  x0:0x00000000  x6=0x00000001
       54445000	      5443	80004c60	018512b3	sll	x5,x10,x24	 x10:0x00000001 x24:0x00000000  x5=0x00000001
       54455000	      5444	80004c64	052a7263	bgeu	x20,x18,80004ca8	 x20:0x00000001 x18:0x1aa15000
       54465000	      5445	80004c68	32f52493	slti	x9,x10,815	 x10:0x00000001  x9=0x00000001
       54475000	      5446	80004c6c	50251c97	auipc	x25,0x50251	 x25=0xd0255c68
       54485000	      5447	80004c70	02ed0e63	beq	x26,x14,80004cac	 x26:0xf00013e1 x14:0x00000200
       54495000	      5448	80004c74	001e00b3	add	x1,x28,x1	 x28:0x80009f3c  x1:0x001006ce  x1=0x8010a60a
       54505000	      5449	80004c78	404951b3	sra	x3,x18,x4	 x18:0x1aa15000  x4:0xfe2f587e  x3=0x00000000
       54515000	      5450	80004c7c	bbcbcc13	xori	x24,x23,-1092	 x23:0xf091aa4a x24=0x0f6e51f6
       54525000	      5451	80004c80	5435c817	auipc	x16,0x5435c	 x16=0xd4360c7c
       54535000	      5452	80004c84	013a0463	beq	x20,x19,80004c8c	 x20:0x00000001 x19:0xfffff931
       54545000	      5453	80004c88	026c1263	bne	x24,x6,80004cac	 x24:0x0f6e51f6  x6:0x00000001
       54555000	      5454	00000000	00000013	addi	x0,x0,0	  x0:0x00000000
       54565000	      5455	80004ca8	00000013	addi	x0,x0,0	  x0:0x00000000
       54575000	      5456	80004cac	417c5d93	srai	x27,x24,0x17	 x24:0x0f6e51f6 x27=0x0000001e
       54585000	      5457	80004cb0	817aba13	sltiu	x20,x21,-2025	 x21:0x80009fc4 x20=0x00000001
       54595000	      5458	80004cb4	0cf88063	beq	x17,x15,80004d74	 x17:0xfffff76e x15:0x00000080
       54605000	      5459	80004cb8	00004097	auipc	x1,0x4	  x1=0x80008cb4
       54615000	      5460	80004cbc	98608093	addi	x1,x1,-1658	  x1:0x80008cb4  x1=0x8000863a
       54625000	      5461	80004cc0	ffb08fa3	sb	x27,-1(x1)	  x1:0x8000863a x27:0x0000001e PA:0x80008639
       54635000	      5462	80004cc4	72603c13	sltiu	x24,x0,1830	  x0:0x00000000 x24=0x00000001
       54645000	      5463	80004cc8	fff0cf03	lbu	x30,-1(x1)	  x1:0x8000863a x30=0x0000001e PA:0x80008639
       54655000	      5464	80004ccc	4076d733	sra	x14,x13,x7	 x13:0xfe2f5968  x7:0x00000000 x14=0xfe2f5968
       54665000	      5465	80004cd0	ff309d23	sh	x19,-6(x1)	  x1:0x8000863a x19:0xfffff931 PA:0x80008634
       54675000	      5466	80004cd4	00c775b3	and	x11,x14,x12	 x14:0xfe2f5968 x12:0x0fffec1f x11=0x0e2f4808
       54685000	      5467	80004cd8	feb08823	sb	x11,-16(x1)	  x1:0x8000863a x11:0x0e2f4808 PA:0x8000862a
       54695000	      5468	80004cdc	00009e83	lh	x29,0(x1)	  x1:0x8000863a x29=0x00000000 PA:0x8000863a
       54705000	      5469	80004ce0	ff309a23	sh	x19,-12(x1)	  x1:0x8000863a x19:0xfffff931 PA:0x8000862e
       54715000	      5470	80004ce4	00108a03	lb	x20,1(x1)	  x1:0x8000863a x20=0x00000000 PA:0x8000863b
       54725000	      5471	80004ce8	ff50cd83	lbu	x27,-11(x1)	  x1:0x8000863a x27=0x000000f9 PA:0x8000862f
       54735000	      5472	80004cec	00108823	sb	x1,16(x1)	  x1:0x8000863a  x1:0x8000863a PA:0x8000864a
       54745000	      5473	80004cf0	0020a523	sw	x2,10(x1)	  x1:0x8000863a  x2:0x08000000 PA:0x80008644
       54755000	      5474	80004cf4	ff508983	lb	x19,-11(x1)	  x1:0x8000863a x19=0xfffffff9 PA:0x8000862f
       54765000	      5475	80004cf8	00108a03	lb	x20,1(x1)	  x1:0x8000863a x20=0x00000000 PA:0x8000863b
       54775000	      5476	80004cfc	fff0cc03	lbu	x24,-1(x1)	  x1:0x8000863a x24=0x0000001e PA:0x80008639
       54785000	      5477	80004d00	01208123	sb	x18,2(x1)	  x1:0x8000863a x18:0x1aa15000 PA:0x8000863c
       54795000	      5478	80004d04	00008103	lb	x2,0(x1)	  x1:0x8000863a  x2=0x00000000 PA:0x8000863a
       54805000	      5479	80004d08	ff908983	lb	x19,-7(x1)	  x1:0x8000863a x19=0x00000000 PA:0x80008633
       54815000	      5480	80004d0c	01008203	lb	x4,16(x1)	  x1:0x8000863a  x4=0x0000003a PA:0x8000864a
       54825000	      5481	80004d10	fff0cd03	lbu	x26,-1(x1)	  x1:0x8000863a x26=0x0000001e PA:0x80008639
       54835000	      5482	80004d14	7080ec37	lui	x24,0x7080e	 x24=0x7080e000
       54845000	      5483	80004d18	00a08a03	lb	x20,10(x1)	  x1:0x8000863a x20=0x00000000 PA:0x80008644
       54855000	      5484	00000000	00000013	addi	x0,x0,0	  x0:0x00000000
       54865000	      5485	80004d1c	01475d13	srli	x26,x14,0x14	 x14:0xfe2f5968 x26=0x00000fe2
       54875000	      5486	80004d20	ffc09823	sh	x28,-16(x1)	  x1:0x8000863a x28:0x80009f3c PA:0x8000862a
       54885000	      5487	80004d24	0020d803	lhu	x16,2(x1)	  x1:0x8000863a x16=0x00000000 PA:0x8000863c
       54895000	      5488	80004d28	41340933	sub	x18,x8,x19	  x8:0xffff76ec x19:0x00000000 x18=0xffff76ec
       54905000	      5489	80004d2c	161d7313	andi	x6,x26,353	 x26:0x00000fe2  x6=0x00000160
       54915000	      5490	80004d30	000b3c33	sltu	x24,x22,x0	 x22:0x00000001  x0:0x00000000 x24=0x00000000
       54925000	      5491	80004d34	00b08983	lb	x19,11(x1)	  x1:0x8000863a x19=0x00000000 PA:0x80008645
       54935000	      5492	80004d38	402386b3	sub	x13,x7,x2	  x7:0x00000000  x2:0x00000000 x13=0x00000000
       54945000	      5493	80004d3c	01008903	lb	x18,16(x1)	  x1:0x8000863a x18=0x0000003a PA:0x8000864a
       54955000	      5494	80004d40	00108383	lb	x7,1(x1)	  x1:0x8000863a  x7=0x00000000 PA:0x8000863b
       54965000	      5495	80004d44	00fb7033	and	x0,x22,x15	 x22:0x00000001 x15:0x00000080
       54975000	      5496	80004d48	00509823	sh	x5,16(x1)	  x1:0x8000863a  x5:0x00000001 PA:0x8000864a
       54985000	      5497	80004d4c	ffb08383	lb	x7,-5(x1)	  x1:0x8000863a  x7=0xfffffff9 PA:0x80008635
       54995000	      5498	80004d50	4abff613	andi	x12,x31,1195	 x31:0xffffff3d x12=0x00000429
       55005000	      5499	80004d54	0080c403	lbu	x8,8(x1)	  x1:0x8000863a  x8=0x00000000 PA:0x80008642
       55015000	      5500	80004d58	0010c683	lbu	x13,1(x1)	  x1:0x8000863a x13=0x00000000 PA:0x8000863b
       55025000	      5501	80004d5c	001d6c63	bltu	x26,x1,80004d74	 x26:0x00000fe2  x1:0x8000863a
       55035000	      5502	00000000	00000013	addi	x0,x0,0	  x0:0x00000000
       55045000	      5503	80004d70	00000013	addi	x0,x0,0	  x0:0x00000000
       55055000	      5504	80004d74	a10cef13	ori	x30,x25,-1520	 x25:0xd0255c68 x30=0xfffffe78
       55065000	      5505	80004d78	003f64b3	or	x9,x30,x3	 x30:0xfffffe78  x3:0x00000000  x9=0xfffffe78
       55075000	      5506	80004d7c	014fc233	xor	x4,x31,x20	 x31:0xffffff3d x20:0x00000000  x4=0xffffff3d
       55085000	      5507	80004d80	40125033	sra	x0,x4,x1	  x4:0xffffff3d  x1:0x8000863a
       55095000	      5508	80004d84	0069cc63	blt	x19,x6,80004d9c	 x19:0x00000000  x6:0x00000160
       55105000	      5509	00000000	00000013	addi	x0,x0,0	  x0:0x00000000
       55115000	      5510	80004d98	00000013	addi	x0,x0,0	  x0:0x00000000
       55125000	      5511	80004d9c	00b79a63	bne	x15,x11,80004db0	 x15:0x00000080 x11:0x0e2f4808
       55135000	      5512	00000000	00000013	addi	x0,x0,0	  x0:0x00000000
       55145000	      5513	80004dac	00000013	addi	x0,x0,0	  x0:0x00000000
       55155000	      5514	80004db0	9de53c93	sltiu	x25,x10,-1570	 x10:0x00000001 x25=0x00000001
       55165000	      5515	80004db4	a195be93	sltiu	x29,x11,-1511	 x11:0x0e2f4808 x29=0x00000001
       55175000	      5516	80004db8	04401663	bne	x0,x4,80004e04	  x0:0x00000000  x4:0xffffff3d
       55185000	      5517	00000000	00000013	addi	x0,x0,0	  x0:0x00000000
       55195000	      5518	80004e00	00000013	addi	x0,x0,0	  x0:0x00000000
       55205000	      5519	80004e04	01908eb3	add	x29,x1,x25	  x1:0x8000863a x25:0x00000001 x29=0x8000863b
       55215000	      5520	80004e08	41095db3	sra	x27,x18,x16	 x18:0x0000003a x16:0x00000000 x27=0x0000003a
       55225000	      5521	80004e0c	00000013	addi	x0,x0,0	  x0:0x00000000
       55235000	      5522	80004e10	01d3c833	xor	x16,x7,x29	  x7:0xfffffff9 x29:0x8000863b x16=0x7fff79c2
       55245000	      5523	80004e14	9cf2b713	sltiu	x14,x5,-1585	  x5:0x00000001 x14=0x00000001
       55255000	      5524	80004e18	003c2333	slt	x6,x24,x3	 x24:0x00000000  x3:0x00000000  x6=0x00000000
       55265000	      5525	80004e1c	00606133	or	x2,x0,x6	  x0:0x00000000  x6:0x00000000  x2=0x00000000
       55275000	      5526	80004e20	054f6663	bltu	x30,x20,80004e6c	 x30:0xfffffe78 x20:0x00000000
       55285000	      5527	80004e24	d3b77813	andi	x16,x14,-709	 x14:0x00000001 x16=0x00000001
       55295000	      5528	80004e28	00861033	sll	x0,x12,x8	 x12:0x00000429  x8:0x00000000
       55305000	      5529	80004e2c	01bcdf93	srli	x31,x25,0x1b	 x25:0x00000001 x31=0x00000000
       55315000	      5530	80004e30	00115713	srli	x14,x2,0x1	  x2:0x00000000 x14=0x00000000
       55325000	      5531	80004e34	01b59c33	sll	x24,x11,x27	 x11:0x0e2f4808 x27:0x0000003a x24=0x20000000
       55335000	      5532	80004e38	634f3913	sltiu	x18,x30,1588	 x30:0xfffffe78 x18=0x00000000
       55345000	      5533	80004e3c	01b93333	sltu	x6,x18,x27	 x18:0x00000000 x27:0x0000003a  x6=0x00000001
       55355000	      5534	80004e40	43d46e93	ori	x29,x8,1085	  x8:0x00000000 x29=0x0000043d
       55365000	      5535	80004e44	07cd2a13	slti	x20,x26,124	 x26:0x00000fe2 x20=0x00000000
       55375000	      5536	80004e48	01949e63	bne	x9,x25,80004e64	  x9:0xfffffe78 x25:0x00000001
       55385000	      5537	00000000	00000013	addi	x0,x0,0	  x0:0x00000000
       55395000	      5538	80004e60	00000013	addi	x0,x0,0	  x0:0x00000000
       55405000	      5539	80004e64	002db5b3	sltu	x11,x27,x2	 x27:0x0000003a  x2:0x00000000 x11=0x00000000
       55415000	      5540	80004e68	19ecfa13	andi	x20,x25,414	 x25:0x00000001 x20=0x00000000
       55425000	      5541	80004e6c	40915613	srai	x12,x2,0x9	  x2:0x00000000 x12=0x00000000
       55435000	      5542	80004e70	00d95a63	bge	x18,x13,80004e84	 x18:0x00000000 x13:0x00000000
       55445000	      5543	00000000	00000013	addi	x0,x0,0	  x0:0x00000000
       55455000	      5544	80004e80	00000013	addi	x0,x0,0	  x0:0x00000000
       55465000	      5545	80004e84	f666f093	andi	x1,x13,-154	 x13:0x00000000  x1=0x00000000
       55475000	      5546	80004e88	0187e463	bltu	x15,x24,80004e90	 x15:0x00000080 x24:0x20000000
       55485000	      5547	00000000	00000013	addi	x0,x0,0	  x0:0x00000000
       55495000	      5548	80004e8c	00000013	addi	x0,x0,0	  x0:0x00000000
       55505000	      5549	80004e90	29728417	auipc	x8,0x29728	  x8=0xa972ce8c
       55515000	      5550	80004e94	19ef3817	auipc	x16,0x19ef3	 x16=0x99ef7e90
       55525000	      5551	80004e98	26d56113	ori	x2,x10,621	 x10:0x00000001  x2=0x0000026d
       55535000	      5552	80004e9c	011c2b33	slt	x22,x24,x17	 x24:0x20000000 x17:0xfffff76e x22=0x00000000
       55545000	      5553	80004ea0	6db2c0b7	lui	x1,0x6db2c	  x1=0x6db2c000
       55555000	      5554	80004ea4	01fd4533	xor	x10,x26,x31	 x26:0x00000fe2 x31:0x00000000 x10=0x00000fe2
       55565000	      5555	80004ea8	ba88a313	slti	x6,x17,-1112	 x17:0xfffff76e  x6=0x00000001
       55575000	      5556	80004eac	014e78b3	and	x17,x28,x20	 x28:0x80009f3c x20:0x00000000 x17=0x00000000
       55585000	      5557	80004eb0	b1d5a813	slti	x16,x11,-1251	 x11:0x00000000 x16=0x00000000
       55595000	      5558	80004eb4	a249fc13	andi	x24,x19,-1500	 x19:0x00000000 x24=0x00000000
       55605000	      5559	80004eb8	0136cc63	blt	x13,x19,80004ed0	 x13:0x00000000 x19:0x00000000
       55615000	      5560	80004ebc	01f14b33	xor	x22,x2,x31	  x2:0x0000026d x31:0x00000000 x22=0x0000026d
       55625000	      5561	80004ec0	01651333	sll	x6,x10,x22	 x10:0x00000fe2 x22:0x0000026d  x6=0x01fc4000
       55635000	      5562	80004ec4	05556063	bltu	x10,x21,80004f04	 x10:0x00000fe2 x21:0x80009fc4
       55645000	      5563	00000000	00000013	addi	x0,x0,0	  x0:0x00000000
       55655000	      5564	80004f00	00000013	addi	x0,x0,0	  x0:0x00000000
       55665000	      5565	80004f04	01aae9b3	or	x19,x21,x26	 x21:0x80009fc4 x26:0x00000fe2 x19=0x80009fe6
       55675000	      5566	80004f08	01911333	sll	x6,x2,x25	  x2:0x0000026d x25:0x00000001  x6=0x000004da
       55685000	      5567	80004f0c	001e06b3	add	x13,x28,x1	 x28:0x80009f3c  x1:0x6db2c000 x13=0xedb35f3c
       55695000	      5568	80004f10	6ecfc393	xori	x7,x31,1772	 x31:0x00000000  x7=0x000006ec
       55705000	      5569	80004f14	37f64513	xori	x10,x12,895	 x12:0x00000000 x10=0x0000037f
       55715000	      5570	80004f18	1285b593	sltiu	x11,x11,296	 x11:0x00000000 x11=0x00000001
       55725000	      5571	80004f1c	fed16d13	ori	x26,x2,-19	  x2:0x0000026d x26=0xffffffed
       55735000	      5572	80004f20	005a4133	xor	x2,x20,x5	 x20:0x00000000  x5:0x00000001  x2=0x00000001
       55745000	      5573	80004f24	00a91c63	bne	x18,x10,80004f3c	 x18:0x00000000 x10:0x0000037f
       55755000	      5574	00000000	00000013	addi	x0,x0,0	  x0:0x00000000
       55765000	      5575	80004f38	00000013	addi	x0,x0,0	  x0:0x00000000
       55775000	      5576	80004f3c	00aac663	blt	x21,x10,80004f48	 x21:0x80009fc4 x10:0x0000037f
       55785000	      5577	00000000	00000013	addi	x0,x0,0	  x0:0x00000000
       55795000	      5578	80004f44	00000013	addi	x0,x0,0	  x0:0x00000000
       55805000	      5579	80004f48	05261263	bne	x12,x18,80004f8c	 x12:0x00000000 x18:0x00000000
       55815000	      5580	80004f4c	03ba1e63	bne	x20,x27,80004f88	 x20:0x00000000 x27:0x0000003a
       55825000	      5581	00000000	00000013	addi	x0,x0,0	  x0:0x00000000
       55835000	      5582	80004f84	00000013	addi	x0,x0,0	  x0:0x00000000
       55845000	      5583	80004f88	019a42b3	xor	x5,x20,x25	 x20:0x00000000 x25:0x00000001  x5=0x00000001
       55855000	      5584	80004f8c	008d61b3	or	x3,x26,x8	 x26:0xffffffed  x8:0xa972ce8c  x3=0xffffffed
       55865000	      5585	80004f90	4a4f4293	xori	x5,x30,1188	 x30:0xfffffe78  x5=0xfffffadc
       55875000	      5586	80004f94	015f5eb3	srl	x29,x30,x21	 x30:0xfffffe78 x21:0x80009fc4 x29=0x0fffffe7
       55885000	      5587	80004f98	018a65b3	or	x11,x20,x24	 x20:0x00000000 x24:0x00000000 x11=0x00000000
       55895000	      5588	80004f9c	54a33893	sltiu	x17,x6,1354	  x6:0x000004da x17=0x00000001
       55905000	      5589	80004fa0	01fccc63	blt	x25,x31,80004fb8	 x25:0x00000001 x31:0x00000000
       55915000	      5590	80004fa4	00f7e533	or	x10,x15,x15	 x15:0x00000080 x15:0x00000080 x10=0x00000080
       55925000	      5591	80004fa8	401e5833	sra	x16,x28,x1	 x28:0x80009f3c  x1:0x6db2c000 x16=0x80009f3c
       55935000	      5592	80004fac	412c06b3	sub	x13,x24,x18	 x24:0x00000000 x18:0x00000000 x13=0x00000000
       55945000	      5593	80004fb0	01c9b433	sltu	x8,x19,x28	 x19:0x80009fe6 x28:0x80009f3c  x8=0x00000000
       55955000	      5594	80004fb4	00055d93	srli	x27,x10,0x0	 x10:0x00000080 x27=0x00000080
       55965000	      5595	80004fb8	005baf33	slt	x30,x23,x5	 x23:0xf091aa4a  x5:0xfffffadc x30=0x00000001
       55975000	      5596	80004fbc	89138c93	addi	x25,x7,-1903	  x7:0x000006ec x25=0xffffff7d
       55985000	      5597	80004fc0	f59c7b13	andi	x22,x24,-167	 x24:0x00000000 x22=0x00000000
       55995000	      5598	80004fc4	00000013	addi	x0,x0,0	  x0:0x00000000
       56005000	      5599	80004fc8	01b81813	slli	x16,x16,0x1b	 x16:0x80009f3c x16=0xe0000000
       56015000	      5600	80004fcc	00000013	addi	x0,x0,0	  x0:0x00000000
       56025000	      5601	80004fd0	05087263	bgeu	x16,x16,80005014	 x16:0xe0000000 x16:0xe0000000
       56035000	      5602	00000000	00000013	addi	x0,x0,0	  x0:0x00000000
       56045000	      5603	80005010	00000013	addi	x0,x0,0	  x0:0x00000000
       56055000	      5604	80005014	cf8e0413	addi	x8,x28,-776	 x28:0x80009f3c  x8=0x80009c34
       56065000	      5605	80005018	01db6c63	bltu	x22,x29,80005030	 x22:0x00000000 x29:0x0fffffe7
       56075000	      5606	00000000	00000013	addi	x0,x0,0	  x0:0x00000000
       56085000	      5607	8000502c	00000013	addi	x0,x0,0	  x0:0x00000000
       56095000	      5608	80005030	01991693	slli	x13,x18,0x19	 x18:0x00000000 x13=0x00000000
       56105000	      5609	80005034	0153f663	bgeu	x7,x21,80005040	  x7:0x000006ec x21:0x80009fc4
       56115000	      5610	80005038	01c99133	sll	x2,x19,x28	 x19:0x80009fe6 x28:0x80009f3c  x2=0x60000000
       56125000	      5611	8000503c	01551c63	bne	x10,x21,80005054	 x10:0x00000080 x21:0x80009fc4
       56135000	      5612	00000000	00000013	addi	x0,x0,0	  x0:0x00000000
       56145000	      5613	80005050	00000013	addi	x0,x0,0	  x0:0x00000000
       56155000	      5614	80005054	0100bf33	sltu	x30,x1,x16	  x1:0x6db2c000 x16:0xe0000000 x30=0x00000001
       56165000	      5615	80005058	00cedc63	bge	x29,x12,80005070	 x29:0x0fffffe7 x12:0x00000000
       56175000	      5616	00000000	00000013	addi	x0,x0,0	  x0:0x00000000
       56185000	      5617	8000506c	00000013	addi	x0,x0,0	  x0:0x00000000
       56195000	      5618	80005070	03656063	bltu	x10,x22,80005090	 x10:0x00000080 x22:0x00000000
       56205000	      5619	80005074	f0f48913	addi	x18,x9,-241	  x9:0xfffffe78 x18=0xfffffd87
       56215000	      5620	80005078	0165f933	and	x18,x11,x22	 x11:0x00000000 x22:0x00000000 x18=0x00000000
       56225000	      5621	8000507c	00ff7c63	bgeu	x30,x15,80005094	 x30:0x00000001 x15:0x00000080
       56235000	      5622	80005080	40ca5833	sra	x16,x20,x12	 x20:0x00000000 x12:0x00000000 x16=0x00000000
       56245000	      5623	80005084	00a366b3	or	x13,x6,x10	  x6:0x000004da x10:0x00000080 x13=0x000004da
       56255000	      5624	80005088	5058ed13	ori	x26,x17,1285	 x17:0x00000001 x26=0x00000505
       56265000	      5625	8000508c	40284e93	xori	x29,x16,1026	 x16:0x00000000 x29=0x00000402
       56275000	      5626	80005090	01c8de63	bge	x17,x28,800050ac	 x17:0x00000001 x28:0x80009f3c
       56285000	      5627	00000000	00000013	addi	x0,x0,0	  x0:0x00000000
       56295000	      5628	800050a8	00000013	addi	x0,x0,0	  x0:0x00000000
       56305000	      5629	800050ac	04da1663	bne	x20,x13,800050f8	 x20:0x00000000 x13:0x000004da
       56315000	      5630	00000000	00000013	addi	x0,x0,0	  x0:0x00000000
       56325000	      5631	800050f4	00000013	addi	x0,x0,0	  x0:0x00000000
       56335000	      5632	800050f8	0111a733	slt	x14,x3,x17	  x3:0xffffffed x17:0x00000001 x14=0x00000001
       56345000	      5633	800050fc	00dbe533	or	x10,x23,x13	 x23:0xf091aa4a x13:0x000004da x10=0xf091aeda
       56355000	      5634	80005100	04310663	beq	x2,x3,8000514c	  x2:0x60000000  x3:0xffffffed
       56365000	      5635	80005104	001b4033	xor	x0,x22,x1	 x22:0x00000000  x1:0x6db2c000
       56375000	      5636	80005108	055af263	bgeu	x21,x21,8000514c	 x21:0x80009fc4 x21:0x80009fc4
       56385000	      5637	00000000	00000013	addi	x0,x0,0	  x0:0x00000000
       56395000	      5638	80005148	00000013	addi	x0,x0,0	  x0:0x00000000
       56405000	      5639	8000514c	01ae5893	srli	x17,x28,0x1a	 x28:0x80009f3c x17=0x00000020
       56415000	      5640	80005150	012222b3	slt	x5,x4,x18	  x4:0xffffff3d x18:0x00000000  x5=0x00000001
       56425000	      5641	80005154	00000013	addi	x0,x0,0	  x0:0x00000000
       56435000	      5642	80005158	010e5463	bge	x28,x16,80005160	 x28:0x80009f3c x16:0x00000000
       56445000	      5643	8000515c	40928333	sub	x6,x5,x9	  x5:0x00000001  x9:0xfffffe78  x6=0x00000189
       56455000	      5644	80005160	008a4a63	blt	x20,x8,80005174	 x20:0x00000000  x8:0x80009c34
       56465000	      5645	80005164	015d1933	sll	x18,x26,x21	 x26:0x00000505 x21:0x80009fc4 x18=0x00005050
       56475000	      5646	80005168	7e734713	xori	x14,x6,2023	  x6:0x00000189 x14=0x0000066e
       56485000	      5647	8000516c	1c1df0b7	lui	x1,0x1c1df	  x1=0x1c1df000
       56495000	      5648	80005170	057ed063	bge	x29,x23,800051b0	 x29:0x00000402 x23:0xf091aa4a
       56505000	      5649	00000000	00000013	addi	x0,x0,0	  x0:0x00000000
       56515000	      5650	800051ac	00000013	addi	x0,x0,0	  x0:0x00000000
       56525000	      5651	800051b0	0212e263	bltu	x5,x1,800051d4	  x5:0x00000001  x1:0x1c1df000
       56535000	      5652	00000000	00000013	addi	x0,x0,0	  x0:0x00000000
       56545000	      5653	800051d0	00000013	addi	x0,x0,0	  x0:0x00000000
       56555000	      5654	800051d4	ddc69897	auipc	x17,0xddc69	 x17=0x5dc6e1d0
       56565000	      5655	800051d8	01018263	beq	x3,x16,800051dc	  x3:0xffffffed x16:0x00000000
       56575000	      5656	800051dc	41218633	sub	x12,x3,x18	  x3:0xffffffed x18:0x00005050 x12=0xffffaf9d
       56585000	      5657	800051e0	c0437237	lui	x4,0xc0437	  x4=0xc0437000
       56595000	      5658	800051e4	004e2f03	lw	x30,4(x28)	 x28:0x80009f3c x30=0x80006978 PA:0x80009f40
       56605000	      5659	800051e8	26717b13	andi	x22,x2,615	  x2:0x60000000 x22=0x00000000
       56615000	      5660	800051ec	69f297b7	lui	x15,0x69f29	 x15=0x69f29000
       56625000	      5661	800051f0	034e0e13	addi	x28,x28,52	 x28:0x80009f3c x28=0x80009f70
       56635000	      5662	800051f4	ddb8fe93	andi	x29,x17,-549	 x17:0x5dc6e1d0 x29=0x5dc6e1d0
       56645000	      5663	800051f8	001f0d93	addi	x27,x30,1	 x30:0x80006978 x27=0x80006979
       56655000	      5664	800051fc	000d8de7	jalr	x27,x27,0	 x27:0x80006979 x27=0x800051fc
       56665000	      5665	00000000	00000013	addi	x0,x0,0	  x0:0x00000000
       56675000	      5666	80006978	00000013	addi	x0,x0,0	  x0:0x00000000
       56685000	      5667	8000697c	ffffc097	auipc	x1,0xffffc	  x1=0x80002978
       56695000	      5668	80006980	dfc08093	addi	x1,x1,-516	  x1:0x80002978  x1=0x80002774
       56705000	      5669	80006984	016d12b3	sll	x5,x26,x22	 x26:0x00000505 x22:0x00000000  x5=0x00000505
       56715000	      5670	80006988	00000013	addi	x0,x0,0	  x0:0x00000000
       56725000	      5671	8000698c	006377b3	and	x15,x6,x6	  x6:0x00000189  x6:0x00000189 x15=0x00000189
       56735000	      5672	80006990	00000013	addi	x0,x0,0	  x0:0x00000000
       56745000	      5673	80006994	454b4993	xori	x19,x22,1108	 x22:0x00000000 x19=0x00000454
       56755000	      5674	80006998	52dd3f17	auipc	x30,0x52dd3	 x30=0xd2dd9994
       56765000	      5675	8000699c	c8908093	addi	x1,x1,-887	  x1:0x80002774  x1=0x800023fd
       56775000	      5676	800069a0	00861d33	sll	x26,x12,x8	 x12:0xffffaf9d  x8:0x80009c34 x26=0xf9d00000
       56785000	      5677	800069a4	0047f863	bgeu	x15,x4,800069b4	 x15:0x00000189  x4:0xc0437000
       56795000	      5678	800069a8	cd58b613	sltiu	x12,x17,-811	 x17:0x5dc6e1d0 x12=0x00000001
       56805000	      5679	800069ac	006ff533	and	x10,x31,x6	 x31:0x00000000  x6:0x00000189 x10=0x00000000
       56815000	      5680	800069b0	dd708993	addi	x19,x1,-553	  x1:0x800023fd x19=0x800021d4
       56825000	      5681	800069b4	37808f67	jalr	x30,x1,888	  x1:0x800023fd x30=0x800069b4
       56835000	      5682	00000000	00000013	addi	x0,x0,0	  x0:0x00000000
       56845000	      5683	80002774	00000013	addi	x0,x0,0	  x0:0x00000000
       56855000	      5684	80002778	32009d37	lui	x26,0x32009	 x26=0x32009000
       56865000	      5685	8000277c	fc4e0e13	addi	x28,x28,-60	 x28:0x80009f70 x28=0x80009f34
       56875000	      5686	80002780	0081a5b3	slt	x11,x3,x8	  x3:0xffffffed  x8:0x80009c34 x11=0x00000000
       56885000	      5687	80002784	01ee2223	sw	x30,4(x28)	 x28:0x80009f34 x30:0x800069b4 PA:0x80009f38
       56895000	      5688	80002788	0166afb3	slt	x31,x13,x22	 x13:0x000004da x22:0x00000000 x31=0x00000000
       56905000	      5689	8000278c	00006997	auipc	x19,0x6	 x19=0x80008788
       56915000	      5690	80002790	52a98993	addi	x19,x19,1322	 x19:0x80008788 x19=0x80008cb2
       56925000	      5691	80002794	61a26f13	ori	x30,x4,1562	  x4:0xc0437000 x30=0xc043761a
       56935000	      5692	80002798	ff899923	sh	x24,-14(x19)	 x19:0x80008cb2 x24:0x00000000 PA:0x80008ca4
       56945000	      5693	8000279c	0019c303	lbu	x6,1(x19)	 x19:0x80008cb2  x6=0x00000000 PA:0x80008cb3
       56955000	      5694	800027a0	e0edc193	xori	x3,x27,-498	 x27:0x800051fc  x3=0x7fffaff2
       56965000	      5695	800027a4	ff898ca3	sb	x24,-7(x19)	 x19:0x80008cb2 x24:0x00000000 PA:0x80008cab
       56975000	      5696	800027a8	cd958717	auipc	x14,0xcd958	 x14=0x4d95a7a4
       56985000	      5697	800027ac	00899903	lh	x18,8(x19)	 x19:0x80008cb2 x18=0xffffc914 PA:0x80008cba
       56995000	      5698	800027b0	ff699a03	lh	x20,-10(x19)	 x19:0x80008cb2 x20=0x00000000 PA:0x80008ca8
       57005000	      5699	800027b4	01199423	sh	x17,8(x19)	 x19:0x80008cb2 x17:0x5dc6e1d0 PA:0x80008cba
       57015000	      5700	800027b8	7a1d4193	xori	x3,x26,1953	 x26:0x32009000  x3=0x320097a1
       57025000	      5701	800027bc	728e7d93	andi	x27,x28,1832	 x28:0x80009f34 x27=0x00000720
       57035000	      5702	800027c0	017f7633	and	x12,x30,x23	 x30:0xc043761a x23:0xf091aa4a x12=0xc001220a
       57045000	      5703	800027c4	017450b3	srl	x1,x8,x23	  x8:0x80009c34 x23:0xf091aa4a  x1=0x00200027
       57055000	      5704	800027c8	ff29cf03	lbu	x30,-14(x19)	 x19:0x80008cb2 x30=0x00000000 PA:0x80008ca4
       57065000	      5705	800027cc	00f9c103	lbu	x2,15(x19)	 x19:0x80008cb2  x2=0x00000080 PA:0x80008cc1
       57075000	      5706	800027d0	82f28693	addi	x13,x5,-2001	  x5:0x00000505 x13=0xfffffd34
       57085000	      5707	800027d4	ffa99303	lh	x6,-6(x19)	 x19:0x80008cb2  x6=0x00000480 PA:0x80008cac
       57095000	      5708	800027d8	00f983a3	sb	x15,7(x19)	 x19:0x80008cb2 x15:0x00000189 PA:0x80008cb9
       57105000	      5709	800027dc	ff899883	lh	x17,-8(x19)	 x19:0x80008cb2 x17=0x00000000 PA:0x80008caa
       57115000	      5710	800027e0	09c5b213	sltiu	x4,x11,156	 x11:0x00000000  x4=0x00000001
       57125000	      5711	800027e4	e42f3493	sltiu	x9,x30,-446	 x30:0x00000000  x9=0x00000001
       57135000	      5712	800027e8	ffe9c283	lbu	x5,-2(x19)	 x19:0x80008cb2  x5=0x00000000 PA:0x80008cb0
       57145000	      5713	800027ec	00b98483	lb	x9,11(x19)	 x19:0x80008cb2  x9=0x00000000 PA:0x80008cbd
       57155000	      5714	800027f0	ffd99d23	sh	x29,-6(x19)	 x19:0x80008cb2 x29:0x5dc6e1d0 PA:0x80008cac
       57165000	      5715	800027f4	00b980a3	sb	x11,1(x19)	 x19:0x80008cb2 x11:0x00000000 PA:0x80008cb3
       57175000	      5716	800027f8	ff79c703	lbu	x14,-9(x19)	 x19:0x80008cb2 x14=0x00000000 PA:0x80008ca9
       57185000	      5717	800027fc	00298833	add	x16,x19,x2	 x19:0x80008cb2  x2:0x00000080 x16=0x80008d32
       57195000	      5718	80002800	01299323	sh	x18,6(x19)	 x19:0x80008cb2 x18:0xffffc914 PA:0x80008cb8
       57205000	      5719	80002804	ff29c783	lbu	x15,-14(x19)	 x19:0x80008cb2 x15=0x00000000 PA:0x80008ca4
       57215000	      5720	80002808	e4022197	auipc	x3,0xe4022	  x3=0x64024804
       57225000	      5721	8000280c	40335913	srai	x18,x6,0x3	  x6:0x00000480 x18=0x00000090
       57235000	      5722	80002810	01599223	sh	x21,4(x19)	 x19:0x80008cb2 x21:0x80009fc4 PA:0x80008cb6
       57245000	      5723	80002814	ffa9d483	lhu	x9,-6(x19)	 x19:0x80008cb2  x9=0x0000e1d0 PA:0x80008cac
       57255000	      5724	80002818	0029af03	lw	x30,2(x19)	 x19:0x80008cb2 x30=0x9fc40000 PA:0x80008cb4
       57265000	      5725	8000281c	0049d703	lhu	x14,4(x19)	 x19:0x80008cb2 x14=0x00009fc4 PA:0x80008cb6
       57275000	      5726	80002820	ff69cf83	lbu	x31,-10(x19)	 x19:0x80008cb2 x31=0x00000000 PA:0x80008ca8
       57285000	      5727	80002824	fef98a23	sb	x15,-12(x19)	 x19:0x80008cb2 x15:0x00000000 PA:0x80008ca6
       57295000	      5728	80002828	ff798a03	lb	x20,-9(x19)	 x19:0x80008cb2 x20=0x00000000 PA:0x80008ca9
       57305000	      5729	8000282c	ff19ce83	lbu	x29,-15(x19)	 x19:0x80008cb2 x29=0x00000000 PA:0x80008ca3
       57315000	      5730	80002830	ff59cc03	lbu	x24,-11(x19)	 x19:0x80008cb2 x24=0x00000000 PA:0x80008ca7
       57325000	      5731	80002834	78e6c197	auipc	x3,0x78e6c	  x3=0xf8e6e830
       57335000	      5732	80002838	01d99823	sh	x29,16(x19)	 x19:0x80008cb2 x29:0x00000000 PA:0x80008cc2
       57345000	      5733	8000283c	ff398f03	lb	x30,-13(x19)	 x19:0x80008cb2 x30=0x00000000 PA:0x80008ca5
       57355000	      5734	80002840	009987a3	sb	x9,15(x19)	 x19:0x80008cb2  x9:0x0000e1d0 PA:0x80008cc1
       57365000	      5735	80002844	00006117	auipc	x2,0x6	  x2=0x80008840
       57375000	      5736	80002848	daf10113	addi	x2,x2,-593	  x2:0x80008840  x2=0x800085ef
       57385000	      5737	8000284c	09a10003	lb	x0,154(x2)	  x2:0x800085ef PA:0x80008689
       57395000	      5738	80002850	01722db3	slt	x27,x4,x23	  x4:0x00000001 x23:0xf091aa4a x27=0x00000000
       57405000	      5739	80002854	69354593	xori	x11,x10,1683	 x10:0x00000000 x11=0x00000693
       57415000	      5740	80002858	07410223	sb	x20,100(x2)	  x2:0x800085ef x20:0x00000000 PA:0x80008653
       57425000	      5741	8000285c	09ea6797	auipc	x15,0x9ea6	 x15=0x89ea8858
       57435000	      5742	80002860	010557b3	srl	x15,x10,x16	 x10:0x00000000 x16:0x80008d32 x15=0x00000000
       57445000	      5743	80002864	00d78f33	add	x30,x15,x13	 x15:0x00000000 x13:0xfffffd34 x30=0xfffffd34
       57455000	      5744	80002868	414f5493	srai	x9,x30,0x14	 x30:0xfffffd34  x9=0xffffffff
       57465000	      5745	8000286c	05e14303	lbu	x6,94(x2)	  x2:0x800085ef  x6=0x00000000 PA:0x8000864d
       57475000	      5746	80002870	00000013	addi	x0,x0,0	  x0:0x00000000
       57485000	      5747	80002874	40026613	ori	x12,x4,1024	  x4:0x00000001 x12=0x00000401
       57495000	      5748	80002878	40855213	srai	x4,x10,0x8	 x10:0x00000000  x4=0x00000000
       57505000	      5749	8000287c	41805d13	srai	x26,x0,0x18	  x0:0x00000000 x26=0x00000000
       57515000	      5750	80002880	015854b3	srl	x9,x16,x21	 x16:0x80008d32 x21:0x80009fc4  x9=0x080008d3
       57525000	      5751	80002884	04b15583	lhu	x11,75(x2)	  x2:0x800085ef x11=0x00000000 PA:0x8000863a
       57535000	      5752	80002888	40a4deb3	sra	x29,x9,x10	  x9:0x080008d3 x10:0x00000000 x29=0x080008d3
       57545000	      5753	8000288c	018ed833	srl	x16,x29,x24	 x29:0x080008d3 x24:0x00000000 x16=0x080008d3
       57555000	      5754	80002890	f0014a03	lbu	x20,-256(x2)	  x2:0x800085ef x20=0x00000000 PA:0x800084ef
       57565000	      5755	80002894	03010c03	lb	x24,48(x2)	  x2:0x800085ef x24=0x00000000 PA:0x8000861f
       57575000	      5756	00000000	00000013	addi	x0,x0,0	  x0:0x00000000
       57585000	      5757	80002898	d387e493	ori	x9,x15,-712	 x15:0x00000000  x9=0xfffffd38
       57595000	      5758	8000289c	77763c13	sltiu	x24,x12,1911	 x12:0x00000401 x24=0x00000001
       57605000	      5759	800028a0	98f63793	sltiu	x15,x12,-1649	 x12:0x00000401 x15=0x00000001
       57615000	      5760	800028a4	016fd913	srli	x18,x31,0x16	 x31:0x00000000 x18=0x00000000
       57625000	      5761	800028a8	2b48f413	andi	x8,x17,692	 x17:0x00000000  x8=0x00000000
       57635000	      5762	800028ac	001685b3	add	x11,x13,x1	 x13:0xfffffd34  x1:0x00200027 x11=0x001ffd5b
       57645000	      5763	800028b0	00592cb3	slt	x25,x18,x5	 x18:0x00000000  x5:0x00000000 x25=0x00000000
       57655000	      5764	800028b4	0e814383	lbu	x7,232(x2)	  x2:0x800085ef  x7=0x00000000 PA:0x800086d7
       57665000	      5765	800028b8	fa310ba3	sb	x3,-73(x2)	  x2:0x800085ef  x3:0xf8e6e830 PA:0x800085a6
       57675000	      5766	800028bc	0b714e83	lbu	x29,183(x2)	  x2:0x800085ef x29=0x00000000 PA:0x800086a6
       57685000	      5767	800028c0	f5710a23	sb	x23,-172(x2)	  x2:0x800085ef x23:0xf091aa4a PA:0x80008543
       57695000	      5768	800028c4	40e554b3	sra	x9,x10,x14	 x10:0x00000000 x14:0x00009fc4  x9=0x00000000
       57705000	      5769	800028c8	fed10f03	lb	x30,-19(x2)	  x2:0x800085ef x30=0x00000000 PA:0x800085dc
       57715000	      5770	800028cc	00a2dc93	srli	x25,x5,0xa	  x5:0x00000000 x25=0x00000000
       57725000	      5771	800028d0	01841093	slli	x1,x8,0x18	  x8:0x00000000  x1=0x00000000
       57735000	      5772	800028d4	03e10123	sb	x30,34(x2)	  x2:0x800085ef x30:0x00000000 PA:0x80008611
       57745000	      5773	800028d8	002207b3	add	x15,x4,x2	  x4:0x00000000  x2:0x800085ef x15=0x800085ef
       57755000	      5774	800028dc	0dd126a3	sw	x29,205(x2)	  x2:0x800085ef x29:0x00000000 PA:0x800086bc
       57765000	      5775	800028e0	f1410fa3	sb	x20,-225(x2)	  x2:0x800085ef x20:0x00000000 PA:0x8000850e
       57775000	      5776	800028e4	00847cb3	and	x25,x8,x8	  x8:0x00000000  x8:0x00000000 x25=0x00000000
       57785000	      5777	800028e8	02f10f23	sb	x15,62(x2)	  x2:0x800085ef x15:0x800085ef PA:0x8000862d
       57795000	      5778	800028ec	07e14f03	lbu	x30,126(x2)	  x2:0x800085ef x30=0x00000000 PA:0x8000866d
       57805000	      5779	800028f0	fe010003	lb	x0,-32(x2)	  x2:0x800085ef PA:0x800085cf
       57815000	      5780	800028f4	00006117	auipc	x2,0x6	  x2=0x800088f0
       57825000	      5781	800028f8	14e10113	addi	x2,x2,334	  x2:0x800088f0  x2=0x80008a3e
       57835000	      5782	800028fc	00000013	addi	x0,x0,0	  x0:0x00000000
       57845000	      5783	80002900	009e00b3	add	x1,x28,x9	 x28:0x80009f34  x9:0x00000000  x1=0x80009f34
       57855000	      5784	80002904	41cc01b3	sub	x3,x24,x28	 x24:0x00000001 x28:0x80009f34  x3=0x7fff60cd
       57865000	      5785	80002908	dcd70d13	addi	x26,x14,-563	 x14:0x00009fc4 x26=0x00009d91
       57875000	      5786	8000290c	1fbce413	ori	x8,x25,507	 x25:0x00000000  x8=0x000001fb
       57885000	      5787	80002910	c98ced13	ori	x26,x25,-872	 x25:0x00000000 x26=0xfffffc98
       57895000	      5788	80002914	03714803	lbu	x16,55(x2)	  x2:0x80008a3e x16=0x00000000 PA:0x80008a75
       57905000	      5789	80002918	4073ddb3	sra	x27,x7,x7	  x7:0x00000000  x7:0x00000000 x27=0x00000000
       57915000	      5790	8000291c	02410aa3	sb	x4,53(x2)	  x2:0x80008a3e  x4:0x00000000 PA:0x80008a73
       57925000	      5791	80002920	0197d013	srli	x0,x15,0x19	 x15:0x800085ef
       57935000	      5792	80002924	f74105a3	sb	x20,-149(x2)	  x2:0x80008a3e x20:0x00000000 PA:0x800089a9
       57945000	      5793	80002928	401680b3	sub	x1,x13,x1	 x13:0xfffffd34  x1:0x80009f34  x1=0x7fff5e00
       57955000	      5794	8000292c	d6dbdc37	lui	x24,0xd6dbd	 x24=0xd6dbd000
       57965000	      5795	80002930	011d9193	slli	x3,x27,0x11	 x27:0x00000000  x3=0x00000000
       57975000	      5796	80002934	02611d23	sh	x6,58(x2)	  x2:0x80008a3e  x6:0x00000000 PA:0x80008a78
       57985000	      5797	80002938	00b3c2b3	xor	x5,x7,x11	  x7:0x00000000 x11:0x001ffd5b  x5=0x001ffd5b
       57995000	      5798	8000293c	f7714b03	lbu	x22,-137(x2)	  x2:0x80008a3e x22=0x00000000 PA:0x800089b5
       58005000	      5799	80002940	f7ce7f93	andi	x31,x28,-132	 x28:0x80009f34 x31=0x80009f34
       58015000	      5800	80002944	01eac433	xor	x8,x21,x30	 x21:0x80009fc4 x30:0x00000000  x8=0x80009fc4
       58025000	      5801	80002948	f6c10383	lb	x7,-148(x2)	  x2:0x80008a3e  x7=0x00000000 PA:0x800089aa
       58035000	      5802	8000294c	017e6733	or	x14,x28,x23	 x28:0x80009f34 x23:0xf091aa4a x14=0xf091bf7e
       58045000	      5803	80002950	00314583	lbu	x11,3(x2)	  x2:0x80008a3e x11=0x00000000 PA:0x80008a41
       58055000	      5804	80002954	f7b14983	lbu	x19,-133(x2)	  x2:0x80008a3e x19=0x000000fe PA:0x800089b9
       58065000	      5805	80002958	40db0733	sub	x14,x22,x13	 x22:0x00000000 x13:0xfffffd34 x14=0x000002cc
       58075000	      5806	8000295c	f5b14503	lbu	x10,-165(x2)	  x2:0x80008a3e x10=0x00000000 PA:0x80008999
       58085000	      5807	80002960	018e1993	slli	x19,x28,0x18	 x28:0x80009f34 x19=0x34000000
       58095000	      5808	80002964	0b910323	sb	x25,166(x2)	  x2:0x80008a3e x25:0x00000000 PA:0x80008ae4
       58105000	      5809	80002968	f07103a3	sb	x7,-249(x2)	  x2:0x80008a3e  x7:0x00000000 PA:0x80008945
       58115000	      5810	8000296c	0c3101a3	sb	x3,195(x2)	  x2:0x80008a3e  x3:0x00000000 PA:0x80008b01
       58125000	      5811	80002970	1c272e93	slti	x29,x14,450	 x14:0x000002cc x29=0x00000000
       58135000	      5812	80002974	fcd9b037	lui	x0,0xfcd9b	
       58145000	      5813	80002978	01b977b3	and	x15,x18,x27	 x18:0x00000000 x27:0x00000000 x15=0x00000000
       58155000	      5814	8000297c	0005e8b3	or	x17,x11,x0	 x11:0x00000000  x0:0x00000000 x17=0x00000000
       58165000	      5815	80002980	546bcf13	xori	x30,x23,1350	 x23:0xf091aa4a x30=0xf091af0c
       58175000	      5816	80002984	8c30bd13	sltiu	x26,x1,-1853	  x1:0x7fff5e00 x26=0x00000001
       58185000	      5817	80002988	ee613593	sltiu	x11,x2,-282	  x2:0x80008a3e x11=0x00000001
       58195000	      5818	8000298c	01914403	lbu	x8,25(x2)	  x2:0x80008a3e  x8=0x00000000 PA:0x80008a57
       58205000	      5819	80002990	403fdcb3	sra	x25,x31,x3	 x31:0x80009f34  x3:0x00000000 x25=0x80009f34
       58215000	      5820	80002994	1d03fc17	auipc	x24,0x1d03f	 x24=0x9d041990
       58225000	      5821	80002998	5bd33097	auipc	x1,0x5bd33	  x1=0xdbd35994
       58235000	      5822	8000299c	08510aa3	sb	x5,149(x2)	  x2:0x80008a3e  x5:0x001ffd5b PA:0x80008ad3
       58245000	      5823	800029a0	00005217	auipc	x4,0x5	  x4=0x8000799c
       58255000	      5824	800029a4	7f620213	addi	x4,x4,2038	  x4:0x8000799c  x4=0x80008192
       58265000	      5825	800029a8	01c21523	sh	x28,10(x4)	  x4:0x80008192 x28:0x80009f34 PA:0x8000819c
       58275000	      5826	800029ac	33d20183	lb	x3,829(x4)	  x4:0x80008192  x3=0x00000000 PA:0x800084cf
       58285000	      5827	800029b0	26124303	lbu	x6,609(x4)	  x4:0x80008192  x6=0x00000000 PA:0x800083f3
       58295000	      5828	800029b4	24024583	lbu	x11,576(x4)	  x4:0x80008192 x11=0x00000000 PA:0x800083d2
       58305000	      5829	800029b8	11722923	sw	x23,274(x4)	  x4:0x80008192 x23:0xf091aa4a PA:0x800082a4
       58315000	      5830	800029bc	10724c83	lbu	x25,263(x4)	  x4:0x80008192 x25=0x00000000 PA:0x80008299
       58325000	      5831	800029c0	01654333	xor	x6,x10,x22	 x10:0x00000000 x22:0x00000000  x6=0x00000000
       58335000	      5832	800029c4	3d425383	lhu	x7,980(x4)	  x4:0x80008192  x7=0x00000000 PA:0x80008566
       58345000	      5833	800029c8	6b9288b7	lui	x17,0x6b928	 x17=0x6b928000
       58355000	      5834	800029cc	005b54b3	srl	x9,x22,x5	 x22:0x00000000  x5:0x001ffd5b  x9=0x00000000
       58365000	      5835	800029d0	5ee207a3	sb	x14,1519(x4)	  x4:0x80008192 x14:0x000002cc PA:0x80008781
       58375000	      5836	800029d4	00fe9733	sll	x14,x29,x15	 x29:0x00000000 x15:0x00000000 x14=0x00000000
       58385000	      5837	800029d8	01fa21b3	slt	x3,x20,x31	 x20:0x00000000 x31:0x80009f34  x3=0x00000000
       58395000	      5838	800029dc	00000013	addi	x0,x0,0	  x0:0x00000000
       58405000	      5839	800029e0	feda1e97	auipc	x29,0xfeda1	 x29=0x7eda39dc
       58415000	      5840	800029e4	fbdb4793	xori	x15,x22,-67	 x22:0x00000000 x15=0xffffffbd
       58425000	      5841	800029e8	aaf4f397	auipc	x7,0xaaf4f	  x7=0x2af519e4
       58435000	      5842	800029ec	01419493	slli	x9,x3,0x14	  x3:0x00000000  x9=0x00000000
       58445000	      5843	800029f0	001370b3	and	x1,x6,x1	  x6:0x00000000  x1:0xdbd35994  x1=0x00000000
       58455000	      5844	800029f4	01240433	add	x8,x8,x18	  x8:0x00000000 x18:0x00000000  x8=0x00000000
       58465000	      5845	800029f8	2ee21b23	sh	x14,758(x4)	  x4:0x80008192 x14:0x00000000 PA:0x80008488
       58475000	      5846	800029fc	41625993	srai	x19,x4,0x16	  x4:0x80008192 x19=0xfffffe00
       58485000	      5847	80002a00	2eb84513	xori	x10,x16,747	 x16:0x00000000 x10=0x000002eb
       58495000	      5848	80002a04	5c120b03	lb	x22,1473(x4)	  x4:0x80008192 x22=0x00000000 PA:0x80008753
       58505000	      5849	80002a08	61d24c83	lbu	x25,1565(x4)	  x4:0x80008192 x25=0x00000000 PA:0x800087af
       58515000	      5850	80002a0c	75eab513	sltiu	x10,x21,1886	 x21:0x80009fc4 x10=0x00000000
       58525000	      5851	80002a10	00c95eb3	srl	x29,x18,x12	 x18:0x00000000 x12:0x00000401 x29=0x00000000
       58535000	      5852	80002a14	00693b33	sltu	x22,x18,x6	 x18:0x00000000  x6:0x00000000 x22=0x00000000
       58545000	      5853	80002a18	cfb92093	slti	x1,x18,-773	 x18:0x00000000  x1=0x00000000
       58555000	      5854	80002a1c	159c7213	andi	x4,x24,345	 x24:0x9d041990  x4=0x00000110
       58565000	      5855	80002a20	00000013	addi	x0,x0,0	  x0:0x00000000
       58575000	      5856	80002a24	02f01463	bne	x0,x15,80002a4c	  x0:0x00000000 x15:0xffffffbd
       58585000	      5857	00000000	00000013	addi	x0,x0,0	  x0:0x00000000
       58595000	      5858	80002a48	00000013	addi	x0,x0,0	  x0:0x00000000
       58605000	      5859	80002a4c	00ae5693	srli	x13,x28,0xa	 x28:0x80009f34 x13=0x00200027
       58615000	      5860	80002a50	02388463	beq	x17,x3,80002a78	 x17:0x6b928000  x3:0x00000000
       58625000	      5861	80002a54	4064db13	srai	x22,x9,0x6	  x9:0x00000000 x22=0x00000000
       58635000	      5862	80002a58	6cabf793	andi	x15,x23,1738	 x23:0xf091aa4a x15=0x0000024a
       58645000	      5863	80002a5c	01ec0233	add	x4,x24,x30	 x24:0x9d041990 x30:0xf091af0c  x4=0x8d95c89c
       58655000	      5864	80002a60	91407c13	andi	x24,x0,-1772	  x0:0x00000000 x24=0x00000000
       58665000	      5865	80002a64	40165593	srai	x11,x12,0x1	 x12:0x00000401 x11=0x00000200
       58675000	      5866	80002a68	69214617	auipc	x12,0x69214	 x12=0xe9216a64
       58685000	      5867	80002a6c	c8a47e93	andi	x29,x8,-886	  x8:0x00000000 x29=0x00000000
       58695000	      5868	80002a70	0495c063	blt	x11,x9,80002ab0	 x11:0x00000200  x9:0x00000000
       58705000	      5869	80002a74	40bb5633	sra	x12,x22,x11	 x22:0x00000000 x11:0x00000200 x12=0x00000000
       58715000	      5870	80002a78	00419633	sll	x12,x3,x4	  x3:0x00000000  x4:0x8d95c89c x12=0x00000000
       58725000	      5871	80002a7c	5fac6813	ori	x16,x24,1530	 x24:0x00000000 x16=0x000005fa
       58735000	      5872	80002a80	03924263	blt	x4,x25,80002aa4	  x4:0x8d95c89c x25:0x00000000
       58745000	      5873	00000000	00000013	addi	x0,x0,0	  x0:0x00000000
       58755000	      5874	80002aa0	00000013	addi	x0,x0,0	  x0:0x00000000
       58765000	      5875	80002aa4	006c7463	bgeu	x24,x6,80002aac	 x24:0x00000000  x6:0x00000000
       58775000	      5876	00000000	00000013	addi	x0,x0,0	  x0:0x00000000
       58785000	      5877	80002aa8	00000013	addi	x0,x0,0	  x0:0x00000000
       58795000	      5878	80002aac	0039f3b3	and	x7,x19,x3	 x19:0xfffffe00  x3:0x00000000  x7=0x00000000
       58805000	      5879	80002ab0	01209263	bne	x1,x18,80002ab4	  x1:0x00000000 x18:0x00000000
       58815000	      5880	80002ab4	004c18b3	sll	x17,x24,x4	 x24:0x00000000  x4:0x8d95c89c x17=0x00000000
       58825000	      5881	80002ab8	04577863	bgeu	x14,x5,80002b08	 x14:0x00000000  x5:0x001ffd5b
       58835000	      5882	80002abc	ac333313	sltiu	x6,x6,-1341	  x6:0x00000000  x6=0x00000001
       58845000	      5883	80002ac0	006f7863	bgeu	x30,x6,80002ad0	 x30:0xf091af0c  x6:0x00000001
       58855000	      5884	00000000	00000013	addi	x0,x0,0	  x0:0x00000000
       58865000	      5885	80002acc	00000013	addi	x0,x0,0	  x0:0x00000000
       58875000	      5886	80002ad0	be4d3493	sltiu	x9,x26,-1052	 x26:0x00000001  x9=0x00000001
       58885000	      5887	80002ad4	019c0033	add	x0,x24,x25	 x24:0x00000000 x25:0x00000000
       58895000	      5888	80002ad8	004eaa33	slt	x20,x29,x4	 x29:0x00000000  x4:0x8d95c89c x20=0x00000000
       58905000	      5889	80002adc	02116e63	bltu	x2,x1,80002b18	  x2:0x80008a3e  x1:0x00000000
       58915000	      5890	80002ae0	01fd9633	sll	x12,x27,x31	 x27:0x00000000 x31:0x80009f34 x12=0x00000000
       58925000	      5891	80002ae4	05bf7c93	andi	x25,x30,91	 x30:0xf091af0c x25=0x00000008
       58935000	      5892	80002ae8	eeca4f13	xori	x30,x20,-276	 x20:0x00000000 x30=0xfffffeec
       58945000	      5893	80002aec	043fd863	bge	x31,x3,80002b3c	 x31:0x80009f34  x3:0x00000000
       58955000	      5894	80002af0	00a01033	sll	x0,x0,x10	  x0:0x00000000 x10:0x00000000
       58965000	      5895	80002af4	9e8a8997	auipc	x19,0x9e8a8	 x19=0x1e8aaaf0
       58975000	      5896	80002af8	59dae113	ori	x2,x21,1437	 x21:0x80009fc4  x2=0x80009fdd
       58985000	      5897	80002afc	00bef463	bgeu	x29,x11,80002b04	 x29:0x00000000 x11:0x00000200
       58995000	      5898	80002b00	0161ac33	slt	x24,x3,x22	  x3:0x00000000 x22:0x00000000 x24=0x00000000
       59005000	      5899	80002b04	00220533	add	x10,x4,x2	  x4:0x8d95c89c  x2:0x80009fdd x10=0x0d966879
       59015000	      5900	80002b08	000cf9b3	and	x19,x25,x0	 x25:0x00000008  x0:0x00000000 x19=0x00000000
       59025000	      5901	80002b0c	39a9a793	slti	x15,x19,922	 x19:0x00000000 x15=0x00000001
       59035000	      5902	80002b10	56d88693	addi	x13,x17,1389	 x17:0x00000000 x13=0x0000056d
       59045000	      5903	80002b14	04916463	bltu	x2,x9,80002b5c	  x2:0x80009fdd  x9:0x00000001
       59055000	      5904	80002b18	00ef50b3	srl	x1,x30,x14	 x30:0xfffffeec x14:0x00000000  x1=0xfffffeec
       59065000	      5905	80002b1c	02aef663	bgeu	x29,x10,80002b48	 x29:0x00000000 x10:0x0d966879
       59075000	      5906	80002b20	01739fb3	sll	x31,x7,x23	  x7:0x00000000 x23:0xf091aa4a x31=0x00000000
       59085000	      5907	80002b24	33ca6b13	ori	x22,x20,828	 x20:0x00000000 x22=0x0000033c
       59095000	      5908	80002b28	402a5913	srai	x18,x20,0x2	 x20:0x00000000 x18=0x00000000
       59105000	      5909	80002b2c	5c457d97	auipc	x27,0x5c457	 x27=0xdc459b28
       59115000	      5910	80002b30	003f2833	slt	x16,x30,x3	 x30:0xfffffeec  x3:0x00000000 x16=0x00000001
       59125000	      5911	80002b34	41040133	sub	x2,x8,x16	  x8:0x00000000 x16:0x00000001  x2=0xffffffff
       59135000	      5912	80002b38	019a0b37	lui	x22,0x19a0	 x22=0x019a0000
       59145000	      5913	80002b3c	01e8d193	srli	x3,x17,0x1e	 x17:0x00000000  x3=0x00000000
       59155000	      5914	80002b40	02c3f063	bgeu	x7,x12,80002b60	  x7:0x00000000 x12:0x00000000
       59165000	      5915	00000000	00000013	addi	x0,x0,0	  x0:0x00000000
       59175000	      5916	80002b5c	00000013	addi	x0,x0,0	  x0:0x00000000
       59185000	      5917	80002b60	014a3533	sltu	x10,x20,x20	 x20:0x00000000 x20:0x00000000 x10=0x00000000
       59195000	      5918	80002b64	04ea8263	beq	x21,x14,80002ba8	 x21:0x80009fc4 x14:0x00000000
       59205000	      5919	80002b68	038d6d93	ori	x27,x26,56	 x26:0x00000001 x27=0x00000039
       59215000	      5920	80002b6c	4057d8b3	sra	x17,x15,x5	 x15:0x00000001  x5:0x001ffd5b x17=0x00000000
       59225000	      5921	80002b70	41e0d733	sra	x14,x1,x30	  x1:0xfffffeec x30:0xfffffeec x14=0xffffffff
       59235000	      5922	80002b74	0507e863	bltu	x15,x16,80002bc4	 x15:0x00000001 x16:0x00000001
       59245000	      5923	80002b78	01f7d133	srl	x2,x15,x31	 x15:0x00000001 x31:0x00000000  x2=0x00000001
       59255000	      5924	80002b7c	01d0d893	srli	x17,x1,0x1d	  x1:0xfffffeec x17=0x00000007
       59265000	      5925	80002b80	40b30db3	sub	x27,x6,x11	  x6:0x00000001 x11:0x00000200 x27=0xfffffe01
       59275000	      5926	80002b84	00284733	xor	x14,x16,x2	 x16:0x00000001  x2:0x00000001 x14=0x00000000
       59285000	      5927	80002b88	00000013	addi	x0,x0,0	  x0:0x00000000
       59295000	      5928	80002b8c	00704033	xor	x0,x0,x7	  x0:0x00000000  x7:0x00000000
       59305000	      5929	80002b90	02c2fc63	bgeu	x5,x12,80002bc8	  x5:0x001ffd5b x12:0x00000000
       59315000	      5930	00000000	00000013	addi	x0,x0,0	  x0:0x00000000
       59325000	      5931	80002bc4	00000013	addi	x0,x0,0	  x0:0x00000000
       59335000	      5932	80002bc8	0387f063	bgeu	x15,x24,80002be8	 x15:0x00000001 x24:0x00000000
       59345000	      5933	00000000	00000013	addi	x0,x0,0	  x0:0x00000000
       59355000	      5934	80002be4	00000013	addi	x0,x0,0	  x0:0x00000000
       59365000	      5935	80002be8	7d5be313	ori	x6,x23,2005	 x23:0xf091aa4a  x6=0xf091afdf
       59375000	      5936	80002bec	844eb613	sltiu	x12,x29,-1980	 x29:0x00000000 x12=0x00000001
       59385000	      5937	80002bf0	00dd9633	sll	x12,x27,x13	 x27:0xfffffe01 x13:0x0000056d x12=0xffc02000
       59395000	      5938	80002bf4	00000013	addi	x0,x0,0	  x0:0x00000000
       59405000	      5939	80002bf8	e6374493	xori	x9,x14,-413	 x14:0x00000000  x9=0xfffffe63
       59415000	      5940	80002bfc	05344463	blt	x8,x19,80002c44	  x8:0x00000000 x19:0x00000000
       59425000	      5941	80002c00	03ed1a63	bne	x26,x30,80002c34	 x26:0x00000001 x30:0xfffffeec
       59435000	      5942	00000000	00000013	addi	x0,x0,0	  x0:0x00000000
       59445000	      5943	80002c30	00000013	addi	x0,x0,0	  x0:0x00000000
       59455000	      5944	80002c34	038ae463	bltu	x21,x24,80002c5c	 x21:0x80009fc4 x24:0x00000000
       59465000	      5945	80002c38	40e1d7b3	sra	x15,x3,x14	  x3:0x00000000 x14:0x00000000 x15=0x00000000
       59475000	      5946	80002c3c	01fb7b33	and	x22,x22,x31	 x22:0x019a0000 x31:0x00000000 x22=0x00000000
       59485000	      5947	80002c40	05807463	bgeu	x0,x24,80002c88	  x0:0x00000000 x24:0x00000000
       59495000	      5948	00000000	00000013	addi	x0,x0,0	  x0:0x00000000
       59505000	      5949	80002c84	00000013	addi	x0,x0,0	  x0:0x00000000
       59515000	      5950	80002c88	05f04463	blt	x0,x31,80002cd0	  x0:0x00000000 x31:0x00000000
       59525000	      5951	80002c8c	f5784313	xori	x6,x16,-169	 x16:0x00000001  x6=0xffffff56
       59535000	      5952	80002c90	001ec633	xor	x12,x29,x1	 x29:0x00000000  x1:0xfffffeec x12=0xfffffeec
       59545000	      5953	80002c94	03f81063	bne	x16,x31,80002cb4	 x16:0x00000001 x31:0x00000000
       59555000	      5954	00000000	00000013	addi	x0,x0,0	  x0:0x00000000
       59565000	      5955	80002cb0	00000013	addi	x0,x0,0	  x0:0x00000000
       59575000	      5956	80002cb4	03cc4a63	blt	x24,x28,80002ce8	 x24:0x00000000 x28:0x80009f34
       59585000	      5957	80002cb8	01c74c33	xor	x24,x14,x28	 x14:0x00000000 x28:0x80009f34 x24=0x80009f34
       59595000	      5958	80002cbc	02a50663	beq	x10,x10,80002ce8	 x10:0x00000000 x10:0x00000000
       59605000	      5959	00000000	00000013	addi	x0,x0,0	  x0:0x00000000
       59615000	      5960	80002ce4	00000013	addi	x0,x0,0	  x0:0x00000000
       59625000	      5961	80002ce8	00cf47b3	xor	x15,x30,x12	 x30:0xfffffeec x12:0xfffffeec x15=0x00000000
       59635000	      5962	80002cec	0132db13	srli	x22,x5,0x13	  x5:0x001ffd5b x22=0x00000003
       59645000	      5963	80002cf0	0ddd0e93	addi	x29,x26,221	 x26:0x00000001 x29=0x000000de
       59655000	      5964	80002cf4	2e85a697	auipc	x13,0x2e85a	 x13=0xae85ccf0
       59665000	      5965	80002cf8	408c0b33	sub	x22,x24,x8	 x24:0x80009f34  x8:0x00000000 x22=0x80009f34
       59675000	      5966	80002cfc	00000013	addi	x0,x0,0	  x0:0x00000000
       59685000	      5967	80002d00	01cf9913	slli	x18,x31,0x1c	 x31:0x00000000 x18=0x00000000
       59695000	      5968	80002d04	01d89e93	slli	x29,x17,0x1d	 x17:0x00000007 x29=0xe0000000
       59705000	      5969	80002d08	04156863	bltu	x10,x1,80002d58	 x10:0x00000000  x1:0xfffffeec
       59715000	      5970	00000000	00000013	addi	x0,x0,0	  x0:0x00000000
       59725000	      5971	80002d54	00000013	addi	x0,x0,0	  x0:0x00000000
       59735000	      5972	80002d58	00000013	addi	x0,x0,0	  x0:0x00000000
       59745000	      5973	80002d5c	00362733	slt	x14,x12,x3	 x12:0xfffffeec  x3:0x00000000 x14=0x00000001
       59755000	      5974	80002d60	0150af33	slt	x30,x1,x21	  x1:0xfffffeec x21:0x80009fc4 x30=0x00000000
       59765000	      5975	80002d64	8c46f5b7	lui	x11,0x8c46f	 x11=0x8c46f000
       59775000	      5976	80002d68	1d7d7613	andi	x12,x26,471	 x26:0x00000001 x12=0x00000001
       59785000	      5977	80002d6c	45776c13	ori	x24,x14,1111	 x14:0x00000001 x24=0x00000457
       59795000	      5978	80002d70	41abd0b3	sra	x1,x23,x26	 x23:0xf091aa4a x26:0x00000001  x1=0xf848d525
       59805000	      5979	80002d74	00000013	addi	x0,x0,0	  x0:0x00000000
       59815000	      5980	80002d78	036d0e63	beq	x26,x22,80002db4	 x26:0x00000001 x22:0x80009f34
       59825000	      5981	80002d7c	bc086693	ori	x13,x16,-1088	 x16:0x00000001 x13=0xfffffbc1
       59835000	      5982	80002d80	00301c33	sll	x24,x0,x3	  x0:0x00000000  x3:0x00000000 x24=0x00000000
       59845000	      5983	80002d84	01cb5a13	srli	x20,x22,0x1c	 x22:0x80009f34 x20=0x00000008
       59855000	      5984	80002d88	004359b3	srl	x19,x6,x4	  x6:0xffffff56  x4:0x8d95c89c x19=0x0000000f
       59865000	      5985	80002d8c	01e429b3	slt	x19,x8,x30	  x8:0x00000000 x30:0x00000000 x19=0x00000000
       59875000	      5986	80002d90	9fcd8313	addi	x6,x27,-1540	 x27:0xfffffe01  x6=0xfffff7fd
       59885000	      5987	80002d94	0072a633	slt	x12,x5,x7	  x5:0x001ffd5b  x7:0x00000000 x12=0x00000000
       59895000	      5988	80002d98	0118d0b3	srl	x1,x17,x17	 x17:0x00000007 x17:0x00000007  x1=0x00000000
       59905000	      5989	80002d9c	03d28c63	beq	x5,x29,80002dd4	  x5:0x001ffd5b x29:0xe0000000
       59915000	      5990	80002da0	40f804b3	sub	x9,x16,x15	 x16:0x00000001 x15:0x00000000  x9=0x00000001
       59925000	      5991	80002da4	004533b3	sltu	x7,x10,x4	 x10:0x00000000  x4:0x8d95c89c  x7=0x00000001
       59935000	      5992	80002da8	01171213	slli	x4,x14,0x11	 x14:0x00000001  x4=0x00020000
       59945000	      5993	80002dac	411d5593	srai	x11,x26,0x11	 x26:0x00000001 x11=0x00000000
       59955000	      5994	80002db0	00705293	srli	x5,x0,0x7	  x0:0x00000000  x5=0x00000000
       59965000	      5995	80002db4	00000013	addi	x0,x0,0	  x0:0x00000000
       59975000	      5996	80002db8	002779b3	and	x19,x14,x2	 x14:0x00000001  x2:0x00000001 x19=0x00000001
       59985000	      5997	80002dbc	89716693	ori	x13,x2,-1897	  x2:0x00000001 x13=0xfffff897
       59995000	      5998	80002dc0	013249b3	xor	x19,x4,x19	  x4:0x00020000 x19:0x00000001 x19=0x00020001
       60005000	      5999	80002dc4	018bb1b3	sltu	x3,x23,x24	 x23:0xf091aa4a x24:0x00000000  x3=0x00000000
       60015000	      6000	80002dc8	045a1663	bne	x20,x5,80002e14	 x20:0x00000008  x5:0x00000000
       60025000	      6001	00000000	00000013	addi	x0,x0,0	  x0:0x00000000
       60035000	      6002	80002e10	00000013	addi	x0,x0,0	  x0:0x00000000
       60045000	      6003	80002e14	007f8133	add	x2,x31,x7	 x31:0x00000000  x7:0x00000001  x2=0x00000001
       60055000	      6004	80002e18	01889463	bne	x17,x24,80002e20	 x17:0x00000007 x24:0x00000000
       60065000	      6005	00000000	00000013	addi	x0,x0,0	  x0:0x00000000
       60075000	      6006	80002e1c	00000013	addi	x0,x0,0	  x0:0x00000000
       60085000	      6007	80002e20	00429f13	slli	x30,x5,0x4	  x5:0x00000000 x30=0x00000000
       60095000	      6008	80002e24	ff5a28b7	lui	x17,0xff5a2	 x17=0xff5a2000
       60105000	      6009	80002e28	4c68b793	sltiu	x15,x17,1222	 x17:0xff5a2000 x15=0x00000000
       60115000	      6010	80002e2c	00ccd513	srli	x10,x25,0xc	 x25:0x00000008 x10=0x00000000
       60125000	      6011	80002e30	00101493	slli	x9,x0,0x1	  x0:0x00000000  x9=0x00000000
       60135000	      6012	80002e34	0304c463	blt	x9,x16,80002e5c	  x9:0x00000000 x16:0x00000001
       60145000	      6013	00000000	00000013	addi	x0,x0,0	  x0:0x00000000
       60155000	      6014	80002e58	00000013	addi	x0,x0,0	  x0:0x00000000
       60165000	      6015	80002e5c	0148f9b3	and	x19,x17,x20	 x17:0xff5a2000 x20:0x00000008 x19=0x00000000
       60175000	      6016	80002e60	01041a13	slli	x20,x8,0x10	  x8:0x00000000 x20=0x00000000
       60185000	      6017	80002e64	05c17863	bgeu	x2,x28,80002eb4	  x2:0x00000001 x28:0x80009f34
       60195000	      6018	80002e68	b73fb493	sltiu	x9,x31,-1165	 x31:0x00000000  x9=0x00000001
       60205000	      6019	80002e6c	e5ce9737	lui	x14,0xe5ce9	 x14=0xe5ce9000
       60215000	      6020	80002e70	013f1463	bne	x30,x19,80002e78	 x30:0x00000000 x19:0x00000000
       60225000	      6021	80002e74	039e4a63	blt	x28,x25,80002ea8	 x28:0x80009f34 x25:0x00000008
       60235000	      6022	00000000	00000013	addi	x0,x0,0	  x0:0x00000000
       60245000	      6023	80002ea4	00000013	addi	x0,x0,0	  x0:0x00000000
       60255000	      6024	80002ea8	039e8a63	beq	x29,x25,80002edc	 x29:0xe0000000 x25:0x00000008
       60265000	      6025	80002eac	01559e93	slli	x29,x11,0x15	 x11:0x00000000 x29=0x00000000
       60275000	      6026	80002eb0	00748733	add	x14,x9,x7	  x9:0x00000001  x7:0x00000001 x14=0x00000002
       60285000	      6027	80002eb4	016f2033	slt	x0,x30,x22	 x30:0x00000000 x22:0x80009f34
       60295000	      6028	80002eb8	01079d13	slli	x26,x15,0x10	 x15:0x00000000 x26=0x00000000
       60305000	      6029	80002ebc	04586863	bltu	x16,x5,80002f0c	 x16:0x00000001  x5:0x00000000
       60315000	      6030	80002ec0	9223bd13	sltiu	x26,x7,-1758	  x7:0x00000001 x26=0x00000001
       60325000	      6031	80002ec4	008af1b3	and	x3,x21,x8	 x21:0x80009fc4  x8:0x00000000  x3=0x00000000
       60335000	      6032	80002ec8	015a8b33	add	x22,x21,x21	 x21:0x80009fc4 x21:0x80009fc4 x22=0x00013f88
       60345000	      6033	80002ecc	0189e263	bltu	x19,x24,80002ed0	 x19:0x00000000 x24:0x00000000
       60355000	      6034	80002ed0	c71f0993	addi	x19,x30,-911	 x30:0x00000000 x19=0xfffffc71
       60365000	      6035	80002ed4	00000013	addi	x0,x0,0	  x0:0x00000000
       60375000	      6036	80002ed8	00119713	slli	x14,x3,0x1	  x3:0x00000000 x14=0x00000000
       60385000	      6037	80002edc	01067c63	bgeu	x12,x16,80002ef4	 x12:0x00000000 x16:0x00000001
       60395000	      6038	80002ee0	ca5dae93	slti	x29,x27,-859	 x27:0xfffffe01 x29=0x00000000
       60405000	      6039	80002ee4	00ddbdb3	sltu	x27,x27,x13	 x27:0xfffffe01 x13:0xfffff897 x27=0x00000000
       60415000	      6040	80002ee8	00c0e663	bltu	x1,x12,80002ef4	  x1:0x00000000 x12:0x00000000
       60425000	      6041	80002eec	030f5063	bge	x30,x16,80002f0c	 x30:0x00000000 x16:0x00000001
       60435000	      6042	80002ef0	00891a13	slli	x20,x18,0x8	 x18:0x00000000 x20=0x00000000
       60445000	      6043	80002ef4	01c7b0b3	sltu	x1,x15,x28	 x15:0x00000000 x28:0x80009f34  x1=0x00000001
       60455000	      6044	80002ef8	04d86263	bltu	x16,x13,80002f3c	 x16:0x00000001 x13:0xfffff897
       60465000	      6045	00000000	00000013	addi	x0,x0,0	  x0:0x00000000
       60475000	      6046	80002f38	00000013	addi	x0,x0,0	  x0:0x00000000
       60485000	      6047	80002f3c	60c14213	xori	x4,x2,1548	  x2:0x00000001  x4=0x0000060d
       60495000	      6048	80002f40	01cebb33	sltu	x22,x29,x28	 x29:0x00000000 x28:0x80009f34 x22=0x00000001
       60505000	      6049	80002f44	01a49793	slli	x15,x9,0x1a	  x9:0x00000001 x15=0x04000000
       60515000	      6050	80002f48	01aa36b3	sltu	x13,x20,x26	 x20:0x00000000 x26:0x00000001 x13=0x00000001
       60525000	      6051	80002f4c	02588663	beq	x17,x5,80002f78	 x17:0xff5a2000  x5:0x00000000
       60535000	      6052	80002f50	0282d063	bge	x5,x8,80002f70	  x5:0x00000000  x8:0x00000000
       60545000	      6053	00000000	00000013	addi	x0,x0,0	  x0:0x00000000
       60555000	      6054	80002f6c	00000013	addi	x0,x0,0	  x0:0x00000000
       60565000	      6055	80002f70	f74dd097	auipc	x1,0xf74dd	  x1=0x774dff6c
       60575000	      6056	80002f74	40905313	srai	x6,x0,0x9	  x0:0x00000000  x6=0x00000000
       60585000	      6057	80002f78	1993b337	lui	x6,0x1993b	  x6=0x1993b000
       60595000	      6058	80002f7c	41c18433	sub	x8,x3,x28	  x3:0x00000000 x28:0x80009f34  x8=0x7fff60cc
       60605000	      6059	80002f80	219efc13	andi	x24,x29,537	 x29:0x00000000 x24=0x00000000
       60615000	      6060	80002f84	ae4b4c93	xori	x25,x22,-1308	 x22:0x00000001 x25=0xfffffae5
       60625000	      6061	80002f88	1ef37437	lui	x8,0x1ef37	  x8=0x1ef37000
       60635000	      6062	80002f8c	402d8cb3	sub	x25,x27,x2	 x27:0x00000000  x2:0x00000001 x25=0xffffffff
       60645000	      6063	80002f90	02b46463	bltu	x8,x11,80002fb8	  x8:0x1ef37000 x11:0x00000000
       60655000	      6064	80002f94	9e37f437	lui	x8,0x9e37f	  x8=0x9e37f000
       60665000	      6065	80002f98	2fd57813	andi	x16,x10,765	 x10:0x00000000 x16=0x00000000
       60675000	      6066	80002f9c	b78d2337	lui	x6,0xb78d2	  x6=0xb78d2000
       60685000	      6067	80002fa0	01661913	slli	x18,x12,0x16	 x12:0x00000000 x18=0x00000000
       60695000	      6068	80002fa4	02dc0463	beq	x24,x13,80002fcc	 x24:0x00000000 x13:0x00000001
       60705000	      6069	80002fa8	41d6da33	sra	x20,x13,x29	 x13:0x00000001 x29:0x00000000 x20=0x00000001
       60715000	      6070	80002fac	cdf2fe93	andi	x29,x5,-801	  x5:0x00000000 x29=0x00000000
       60725000	      6071	80002fb0	1eadee93	ori	x29,x27,490	 x27:0x00000000 x29=0x000001ea
       60735000	      6072	80002fb4	02e27263	bgeu	x4,x14,80002fd8	  x4:0x0000060d x14:0x00000000
       60745000	      6073	00000000	00000013	addi	x0,x0,0	  x0:0x00000000
       60755000	      6074	80002fd4	00000013	addi	x0,x0,0	  x0:0x00000000
       60765000	      6075	80002fd8	008485b3	add	x11,x9,x8	  x9:0x00000001  x8:0x9e37f000 x11=0x9e37f001
       60775000	      6076	80002fdc	01cc4133	xor	x2,x24,x28	 x24:0x00000000 x28:0x80009f34  x2=0x80009f34
       60785000	      6077	80002fe0	40db8c33	sub	x24,x23,x13	 x23:0xf091aa4a x13:0x00000001 x24=0xf091aa49
       60795000	      6078	80002fe4	00db2b33	slt	x22,x22,x13	 x22:0x00000001 x13:0x00000001 x22=0x00000000
       60805000	      6079	80002fe8	05aee063	bltu	x29,x26,80003028	 x29:0x000001ea x26:0x00000001
       60815000	      6080	80002fec	01a25cb3	srl	x25,x4,x26	  x4:0x0000060d x26:0x00000001 x25=0x00000306
       60825000	      6081	80002ff0	00000013	addi	x0,x0,0	  x0:0x00000000
       60835000	      6082	80002ff4	00f55463	bge	x10,x15,80002ffc	 x10:0x00000000 x15:0x04000000
       60845000	      6083	80002ff8	00b8b033	sltu	x0,x17,x11	 x17:0xff5a2000 x11:0x9e37f001
       60855000	      6084	80002ffc	0047dd33	srl	x26,x15,x4	 x15:0x04000000  x4:0x0000060d x26=0x00002000
       60865000	      6085	80003000	01aac0b3	xor	x1,x21,x26	 x21:0x80009fc4 x26:0x00002000  x1=0x8000bfc4
       60875000	      6086	80003004	05f7e463	bltu	x15,x31,8000304c	 x15:0x04000000 x31:0x00000000
       60885000	      6087	80003008	04698063	beq	x19,x6,80003048	 x19:0xfffffc71  x6:0xb78d2000
       60895000	      6088	8000300c	41b681b3	sub	x3,x13,x27	 x13:0x00000001 x27:0x00000000  x3=0x00000001
       60905000	      6089	80003010	054f9863	bne	x31,x20,80003060	 x31:0x00000000 x20:0x00000001
       60915000	      6090	00000000	00000013	addi	x0,x0,0	  x0:0x00000000
       60925000	      6091	8000305c	00000013	addi	x0,x0,0	  x0:0x00000000
       60935000	      6092	80003060	9255d937	lui	x18,0x9255d	 x18=0x9255d000
       60945000	      6093	80003064	931886b7	lui	x13,0x93188	 x13=0x93188000
       60955000	      6094	80003068	0167edb3	or	x27,x15,x22	 x15:0x04000000 x22:0x00000000 x27=0x04000000
       60965000	      6095	8000306c	00000013	addi	x0,x0,0	  x0:0x00000000
       60975000	      6096	80003070	00000013	addi	x0,x0,0	  x0:0x00000000
       60985000	      6097	80003074	0348f663	bgeu	x17,x20,800030a0	 x17:0xff5a2000 x20:0x00000001
       60995000	      6098	00000000	00000013	addi	x0,x0,0	  x0:0x00000000
       61005000	      6099	8000309c	00000013	addi	x0,x0,0	  x0:0x00000000
       61015000	      6100	800030a0	02c67063	bgeu	x12,x12,800030c0	 x12:0x00000000 x12:0x00000000
       61025000	      6101	00000000	00000013	addi	x0,x0,0	  x0:0x00000000
       61035000	      6102	800030bc	00000013	addi	x0,x0,0	  x0:0x00000000
       61045000	      6103	800030c0	00c073b3	and	x7,x0,x12	  x0:0x00000000 x12:0x00000000  x7=0x00000000
       61055000	      6104	800030c4	0044e463	bltu	x9,x4,800030cc	  x9:0x00000001  x4:0x0000060d
       61065000	      6105	00000000	00000013	addi	x0,x0,0	  x0:0x00000000
       61075000	      6106	800030c8	00000013	addi	x0,x0,0	  x0:0x00000000
       61085000	      6107	800030cc	44343993	sltiu	x19,x8,1091	  x8:0x9e37f000 x19=0x00000000
       61095000	      6108	800030d0	019d6c33	or	x24,x26,x25	 x26:0x00002000 x25:0x00000306 x24=0x00002306
       61105000	      6109	800030d4	0494c863	blt	x9,x9,80003124	  x9:0x00000001  x9:0x00000001
       61115000	      6110	800030d8	01d9b9b3	sltu	x19,x19,x29	 x19:0x00000000 x29:0x000001ea x19=0x00000001
       61125000	      6111	800030dc	433bbd13	sltiu	x26,x23,1075	 x23:0xf091aa4a x26=0x00000000
       61135000	      6112	800030e0	0b497593	andi	x11,x18,180	 x18:0x9255d000 x11=0x00000000
       61145000	      6113	800030e4	004ed033	srl	x0,x29,x4	 x29:0x000001ea  x4:0x0000060d
       61155000	      6114	800030e8	043f7063	bgeu	x30,x3,80003128	 x30:0x00000000  x3:0x00000001
       61165000	      6115	800030ec	b0554497	auipc	x9,0xb0554	  x9=0x305570e8
       61175000	      6116	800030f0	04fa9263	bne	x21,x15,80003134	 x21:0x80009fc4 x15:0x04000000
       61185000	      6117	00000000	00000013	addi	x0,x0,0	  x0:0x00000000
       61195000	      6118	80003130	00000013	addi	x0,x0,0	  x0:0x00000000
       61205000	      6119	80003134	01779463	bne	x15,x23,8000313c	 x15:0x04000000 x23:0xf091aa4a
       61215000	      6120	00000000	00000013	addi	x0,x0,0	  x0:0x00000000
       61225000	      6121	80003138	00000013	addi	x0,x0,0	  x0:0x00000000
       61235000	      6122	8000313c	017ff263	bgeu	x31,x23,80003140	 x31:0x00000000 x23:0xf091aa4a
       61245000	      6123	80003140	015ec463	blt	x29,x21,80003148	 x29:0x000001ea x21:0x80009fc4
       61255000	      6124	80003144	05c04263	blt	x0,x28,80003188	  x0:0x00000000 x28:0x80009f34
       61265000	      6125	80003148	05085463	bge	x16,x16,80003190	 x16:0x00000000 x16:0x00000000
       61275000	      6126	00000000	00000013	addi	x0,x0,0	  x0:0x00000000
       61285000	      6127	8000318c	00000013	addi	x0,x0,0	  x0:0x00000000
       61295000	      6128	80003190	01e2e133	or	x2,x5,x30	  x5:0x00000000 x30:0x00000000  x2=0x00000000
       61305000	      6129	80003194	41c2d193	srai	x3,x5,0x1c	  x5:0x00000000  x3=0x00000000
       61315000	      6130	80003198	0eaac063	blt	x21,x10,80003278	 x21:0x80009fc4 x10:0x00000000
       61325000	      6131	00000000	00000013	addi	x0,x0,0	  x0:0x00000000
       61335000	      6132	80003274	00000013	addi	x0,x0,0	  x0:0x00000000
       61345000	      6133	80003278	015d1093	slli	x1,x26,0x15	 x26:0x00000000  x1=0x00000000
       61355000	      6134	8000327c	00f3d233	srl	x4,x7,x15	  x7:0x00000000 x15:0x04000000  x4=0x00000000
       61365000	      6135	80003280	0260f463	bgeu	x1,x6,800032a8	  x1:0x00000000  x6:0xb78d2000
       61375000	      6136	80003284	569dac93	slti	x25,x27,1385	 x27:0x04000000 x25=0x00000000
       61385000	      6137	80003288	00000013	addi	x0,x0,0	  x0:0x00000000
       61395000	      6138	8000328c	02db1463	bne	x22,x13,800032b4	 x22:0x00000000 x13:0x93188000
       61405000	      6139	00000000	00000013	addi	x0,x0,0	  x0:0x00000000
       61415000	      6140	800032b0	00000013	addi	x0,x0,0	  x0:0x00000000
       61425000	      6141	800032b4	688a1e97	auipc	x29,0x688a1	 x29=0xe88a42b0
       61435000	      6142	800032b8	402fd013	srai	x0,x31,0x2	 x31:0x00000000
       61445000	      6143	800032bc	ccbb7f13	andi	x30,x22,-821	 x22:0x00000000 x30=0x00000000
       61455000	      6144	800032c0	011378b3	and	x17,x6,x17	  x6:0xb78d2000 x17:0xff5a2000 x17=0xb7082000
       61465000	      6145	800032c4	1c50b813	sltiu	x16,x1,453	  x1:0x00000000 x16=0x00000001
       61475000	      6146	800032c8	02540263	beq	x8,x5,800032ec	  x8:0x9e37f000  x5:0x00000000
       61485000	      6147	800032cc	4114d133	sra	x2,x9,x17	  x9:0x305570e8 x17:0xb7082000  x2=0x305570e8
       61495000	      6148	800032d0	b6c4ac93	slti	x25,x9,-1172	  x9:0x305570e8 x25=0x00000000
       61505000	      6149	800032d4	d9fbc237	lui	x4,0xd9fbc	  x4=0xd9fbc000
       61515000	      6150	800032d8	03ec9a63	bne	x25,x30,8000330c	 x25:0x00000000 x30:0x00000000
       61525000	      6151	800032dc	00150fb3	add	x31,x10,x1	 x10:0x00000000  x1:0x00000000 x31=0x00000000
       61535000	      6152	800032e0	d3e46293	ori	x5,x8,-706	  x8:0x9e37f000  x5=0xfffffd3e
       61545000	      6153	800032e4	0716ec93	ori	x25,x13,113	 x13:0x93188000 x25=0x93188071
       61555000	      6154	800032e8	044f6863	bltu	x30,x4,80003338	 x30:0x00000000  x4:0xd9fbc000
       61565000	      6155	00000000	00000013	addi	x0,x0,0	  x0:0x00000000
       61575000	      6156	80003334	00000013	addi	x0,x0,0	  x0:0x00000000
       61585000	      6157	80003338	00181293	slli	x5,x16,0x1	 x16:0x00000001  x5=0x00000002
       61595000	      6158	8000333c	00ec7433	and	x8,x24,x14	 x24:0x00002306 x14:0x00000000  x8=0x00000000
       61605000	      6159	80003340	67107d93	andi	x27,x0,1649	  x0:0x00000000 x27=0x00000000
       61615000	      6160	80003344	ce53c117	auipc	x2,0xce53c	  x2=0x4e53f340
       61625000	      6161	80003348	04400263	beq	x0,x4,8000338c	  x0:0x00000000  x4:0xd9fbc000
       61635000	      6162	8000334c	00fec733	xor	x14,x29,x15	 x29:0xe88a42b0 x15:0x04000000 x14=0xec8a42b0
       61645000	      6163	80003350	05334863	blt	x6,x19,800033a0	  x6:0xb78d2000 x19:0x00000001
       61655000	      6164	00000000	00000013	addi	x0,x0,0	  x0:0x00000000
       61665000	      6165	8000339c	00000013	addi	x0,x0,0	  x0:0x00000000
       61675000	      6166	800033a0	401ed293	srai	x5,x29,0x1	 x29:0xe88a42b0  x5=0xf4452158
       61685000	      6167	800033a4	01890d33	add	x26,x18,x24	 x18:0x9255d000 x24:0x00002306 x26=0x9255f306
       61695000	      6168	800033a8	01d64633	xor	x12,x12,x29	 x12:0x00000000 x29:0xe88a42b0 x12=0xe88a42b0
       61705000	      6169	800033ac	419355b3	sra	x11,x6,x25	  x6:0xb78d2000 x25:0x93188071 x11=0xffffdbc6
       61715000	      6170	800033b0	01145293	srli	x5,x8,0x11	  x8:0x00000000  x5=0x00000000
       61725000	      6171	800033b4	00fcd813	srli	x16,x25,0xf	 x25:0x93188071 x16=0x00012631
       61735000	      6172	800033b8	05807863	bgeu	x0,x24,80003408	  x0:0x00000000 x24:0x00002306
       61745000	      6173	800033bc	00000013	addi	x0,x0,0	  x0:0x00000000
       61755000	      6174	800033c0	01100663	beq	x0,x17,800033cc	  x0:0x00000000 x17:0xb7082000
       61765000	      6175	800033c4	02fa9c63	bne	x21,x15,800033fc	 x21:0x80009fc4 x15:0x04000000
       61775000	      6176	00000000	00000013	addi	x0,x0,0	  x0:0x00000000
       61785000	      6177	800033f8	00000013	addi	x0,x0,0	  x0:0x00000000
       61795000	      6178	800033fc	00465c93	srli	x25,x12,0x4	 x12:0xe88a42b0 x25=0x0e88a42b
       61805000	      6179	80003400	00215b33	srl	x22,x2,x2	  x2:0x4e53f340  x2:0x4e53f340 x22=0x4e53f340
       61815000	      6180	80003404	01a0b633	sltu	x12,x1,x26	  x1:0x00000000 x26:0x9255f306 x12=0x00000001
       61825000	      6181	80003408	01895863	bge	x18,x24,80003418	 x18:0x9255d000 x24:0x00002306
       61835000	      6182	8000340c	aab7cc13	xori	x24,x15,-1365	 x15:0x04000000 x24=0xfbfffaab
       61845000	      6183	80003410	012e7533	and	x10,x28,x18	 x28:0x80009f34 x18:0x9255d000 x10=0x80009000
       61855000	      6184	80003414	409a8033	sub	x0,x21,x9	 x21:0x80009fc4  x9:0x305570e8
       61865000	      6185	80003418	00152233	slt	x4,x10,x1	 x10:0x80009000  x1:0x00000000  x4=0x00000001
       61875000	      6186	8000341c	030edc63	bge	x29,x16,80003454	 x29:0xe88a42b0 x16:0x00012631
       61885000	      6187	80003420	00000013	addi	x0,x0,0	  x0:0x00000000
       61895000	      6188	80003424	02ae0463	beq	x28,x10,8000344c	 x28:0x80009f34 x10:0x80009000
       61905000	      6189	80003428	05af6663	bltu	x30,x26,80003474	 x30:0x00000000 x26:0x9255f306
       61915000	      6190	00000000	00000013	addi	x0,x0,0	  x0:0x00000000
       61925000	      6191	80003470	00000013	addi	x0,x0,0	  x0:0x00000000
       61935000	      6192	80003474	00025533	srl	x10,x4,x0	  x4:0x00000001  x0:0x00000000 x10=0x00000001
       61945000	      6193	80003478	01e29793	slli	x15,x5,0x1e	  x5:0x00000000 x15=0x00000000
       61955000	      6194	8000347c	019be463	bltu	x23,x25,80003484	 x23:0xf091aa4a x25:0x0e88a42b
       61965000	      6195	80003480	40ba0db3	sub	x27,x20,x11	 x20:0x00000001 x11:0xffffdbc6 x27=0x0000243b
       61975000	      6196	80003484	02410263	beq	x2,x4,800034a8	  x2:0x4e53f340  x4:0x00000001
       61985000	      6197	80003488	034ce063	bltu	x25,x20,800034a8	 x25:0x0e88a42b x20:0x00000001
       61995000	      6198	8000348c	0168ce63	blt	x17,x22,800034a8	 x17:0xb7082000 x22:0x4e53f340
       62005000	      6199	00000000	00000013	addi	x0,x0,0	  x0:0x00000000
       62015000	      6200	800034a4	00000013	addi	x0,x0,0	  x0:0x00000000
       62025000	      6201	800034a8	c5e680b7	lui	x1,0xc5e68	  x1=0xc5e68000
       62035000	      6202	800034ac	00000013	addi	x0,x0,0	  x0:0x00000000
       62045000	      6203	800034b0	004e2f03	lw	x30,4(x28)	 x28:0x80009f34 x30=0x800069b4 PA:0x80009f38
       62055000	      6204	800034b4	4100df93	srai	x31,x1,0x10	  x1:0xc5e68000 x31=0xffffc5e6
       62065000	      6205	800034b8	00000013	addi	x0,x0,0	  x0:0x00000000
       62075000	      6206	800034bc	03ce0e13	addi	x28,x28,60	 x28:0x80009f34 x28=0x80009f70
       62085000	      6207	800034c0	00ad1a13	slli	x20,x26,0xa	 x26:0x9255f306 x20=0x57cc1800
       62095000	      6208	800034c4	000f0c93	addi	x25,x30,0	 x30:0x800069b4 x25=0x800069b4
       62105000	      6209	800034c8	000c8ce7	jalr	x25,x25,0	 x25:0x800069b4 x25=0x800034c8
       62115000	      6210	00000000	00000013	addi	x0,x0,0	  x0:0x00000000
       62125000	      6211	800069b4	00000013	addi	x0,x0,0	  x0:0x00000000
       62135000	      6212	800069b8	01a35cb3	srl	x25,x6,x26	  x6:0xb78d2000 x26:0x9255f306 x25=0x02de3480
       62145000	      6213	800069bc	40e754b3	sra	x9,x14,x14	 x14:0xec8a42b0 x14:0xec8a42b0  x9=0xffffec8a
       62155000	      6214	800069c0	68847f93	andi	x31,x8,1672	  x8:0x00000000 x31=0x00000000
       62165000	      6215	800069c4	41d4ddb3	sra	x27,x9,x29	  x9:0xffffec8a x29:0xe88a42b0 x27=0xffffffff
       62175000	      6216	800069c8	004a4a33	xor	x20,x20,x4	 x20:0x57cc1800  x4:0x00000001 x20=0x57cc1801
       62185000	      6217	800069cc	c55f9f6f	jal	x30,800069cc	 x30=0x800069cc
       62195000	      6218	00000000	00000013	addi	x0,x0,0	  x0:0x00000000
       62205000	      6219	8000061c	00000013	addi	x0,x0,0	  x0:0x00000000
       62215000	      6220	80000620	c8308693	addi	x13,x1,-893	  x1:0xc5e68000 x13=0xc5e67c83
       62225000	      6221	80000624	fc8e0e13	addi	x28,x28,-56	 x28:0x80009f70 x28=0x80009f38
       62235000	      6222	80000628	41165d13	srai	x26,x12,0x11	 x12:0x00000001 x26=0x00000000
       62245000	      6223	8000062c	01ee2223	sw	x30,4(x28)	 x28:0x80009f38 x30:0x800069cc PA:0x80009f3c
       62255000	      6224	80000630	082b08b7	lui	x17,0x82b0	 x17=0x082b0000
       62265000	      6225	80000634	009f0133	add	x2,x30,x9	 x30:0x800069cc  x9:0xffffec8a  x2=0x80005656
       62275000	      6226	80000638	01497433	and	x8,x18,x20	 x18:0x9255d000 x20:0x57cc1801  x8=0x12441000
       62285000	      6227	8000063c	00008117	auipc	x2,0x8	  x2=0x80008638
       62295000	      6228	80000640	70a10113	addi	x2,x2,1802	  x2:0x80008638  x2=0x80008d42
       62305000	      6229	80000644	01e5c333	xor	x6,x11,x30	 x11:0xffffdbc6 x30:0x800069cc  x6=0x7fffb20a
       62315000	      6230	80000648	429ccc13	xori	x24,x25,1065	 x25:0x02de3480 x24=0x02de30a9
       62325000	      6231	8000064c	04f10003	lb	x0,79(x2)	  x2:0x80008d42 PA:0x80008d91
       62335000	      6232	80000650	00aed233	srl	x4,x29,x10	 x29:0xe88a42b0 x10:0x00000001  x4=0x74452158
       62345000	      6233	80000654	9ae06b13	ori	x22,x0,-1618	  x0:0x00000000 x22=0xfffff9ae
       62355000	      6234	80000658	41df5893	srai	x17,x30,0x1d	 x30:0x800069cc x17=0xfffffffc
       62365000	      6235	8000065c	408258b3	sra	x17,x4,x8	  x4:0x74452158  x8:0x12441000 x17=0x74452158
       62375000	      6236	80000660	fb750597	auipc	x11,0xfb750	 x11=0x7b75065c
       62385000	      6237	80000664	41df84b3	sub	x9,x31,x29	 x31:0x00000000 x29:0xe88a42b0  x9=0x1775bd50
       62395000	      6238	80000668	01d10e83	lb	x29,29(x2)	  x2:0x80008d42 x29=0x00000000 PA:0x80008d5f
       62405000	      6239	8000066c	410851b3	sra	x3,x16,x16	 x16:0x00012631 x16:0x00012631  x3=0x00000000
       62415000	      6240	80000670	65df11b7	lui	x3,0x65df1	  x3=0x65df1000
       62425000	      6241	80000674	03b14e83	lbu	x29,59(x2)	  x2:0x80008d42 x29=0x00000000 PA:0x80008d7d
       62435000	      6242	80000678	f704a0b7	lui	x1,0xf704a	  x1=0xf704a000
       62445000	      6243	8000067c	41b50633	sub	x12,x10,x27	 x10:0x00000001 x27:0xffffffff x12=0x00000002
       62455000	      6244	80000680	f06101a3	sb	x6,-253(x2)	  x2:0x80008d42  x6:0x7fffb20a PA:0x80008c45
       62465000	      6245	80000684	41215933	sra	x18,x2,x18	  x2:0x80008d42 x18:0x9255d000 x18=0x80008d42
       62475000	      6246	80000688	fdd10683	lb	x13,-35(x2)	  x2:0x80008d42 x13=0x00000000 PA:0x80008d1f
       62485000	      6247	8000068c	404887b3	sub	x15,x17,x4	 x17:0x74452158  x4:0x74452158 x15=0x00000000
       62495000	      6248	80000690	40c58fb3	sub	x31,x11,x12	 x11:0x7b75065c x12:0x00000002 x31=0x7b75065a
       62505000	      6249	80000694	f5015c03	lhu	x24,-176(x2)	  x2:0x80008d42 x24=0x00000000 PA:0x80008c92
       62515000	      6250	00000000	00000013	addi	x0,x0,0	  x0:0x00000000
       62525000	      6251	80000698	67838d93	addi	x27,x7,1656	  x7:0x00000000 x27=0x00000678
       62535000	      6252	8000069c	01219f33	sll	x30,x3,x18	  x3:0x65df1000 x18:0x80008d42 x30=0x977c4000
       62545000	      6253	800006a0	fe310ea3	sb	x3,-3(x2)	  x2:0x80008d42  x3:0x65df1000 PA:0x80008d3f
       62555000	      6254	800006a4	00000013	addi	x0,x0,0	  x0:0x00000000
       62565000	      6255	800006a8	08210583	lb	x11,130(x2)	  x2:0x80008d42 x11=0x00000000 PA:0x80008dc4
       62575000	      6256	00000000	00000013	addi	x0,x0,0	  x0:0x00000000
       62585000	      6257	800006ac	12bdf513	andi	x10,x27,299	 x27:0x00000678 x10=0x00000028
       62595000	      6258	800006b0	0f710083	lb	x1,247(x2)	  x2:0x80008d42  x1=0x00000000 PA:0x80008e39
       62605000	      6259	800006b4	032b8613	addi	x12,x23,50	 x23:0xf091aa4a x12=0xf091aa7c
       62615000	      6260	800006b8	0091dfb3	srl	x31,x3,x9	  x3:0x65df1000  x9:0x1775bd50 x31=0x000065df
       62625000	      6261	800006bc	08d14a03	lbu	x20,141(x2)	  x2:0x80008d42 x20=0x00000000 PA:0x80008dcf
       62635000	      6262	800006c0	08710523	sb	x7,138(x2)	  x2:0x80008d42  x7:0x00000000 PA:0x80008dcc
       62645000	      6263	800006c4	06214703	lbu	x14,98(x2)	  x2:0x80008d42 x14=0x00000000 PA:0x80008da4
       62655000	      6264	800006c8	f1d12323	sw	x29,-250(x2)	  x2:0x80008d42 x29:0x00000000 PA:0x80008c48
       62665000	      6265	800006cc	722fe013	ori	x0,x31,1826	 x31:0x000065df
       62675000	      6266	800006d0	0149cf33	xor	x30,x19,x20	 x19:0x00000001 x20:0x00000000 x30=0x00000001
       62685000	      6267	800006d4	01c02833	slt	x16,x0,x28	  x0:0x00000000 x28:0x80009f38 x16=0x00000000
       62695000	      6268	800006d8	f7a11f03	lh	x30,-134(x2)	  x2:0x80008d42 x30=0x00000000 PA:0x80008cbc
       62705000	      6269	800006dc	0038b9b3	sltu	x19,x17,x3	 x17:0x74452158  x3:0x65df1000 x19=0x00000000
       62715000	      6270	800006e0	017e9d13	slli	x26,x29,0x17	 x29:0x00000000 x26=0x00000000
       62725000	      6271	800006e4	06c10c83	lb	x25,108(x2)	  x2:0x80008d42 x25=0x00000000 PA:0x80008dae
       62735000	      6272	800006e8	00ad91b3	sll	x3,x27,x10	 x27:0x00000678 x10:0x00000028  x3=0x00067800
       62745000	      6273	800006ec	fd310403	lb	x8,-45(x2)	  x2:0x80008d42  x8=0x00000000 PA:0x80008d15
       62755000	      6274	800006f0	01299a13	slli	x20,x19,0x12	 x19:0x00000000 x20=0x00000000
       62765000	      6275	800006f4	3fd38397	auipc	x7,0x3fd38	  x7=0xbfd386f0
       62775000	      6276	800006f8	f5215f83	lhu	x31,-174(x2)	  x2:0x80008d42 x31=0x00000000 PA:0x80008c94
       62785000	      6277	800006fc	a4eefd13	andi	x26,x29,-1458	 x29:0x00000000 x26=0x00000000
       62795000	      6278	80000700	f5814883	lbu	x17,-168(x2)	  x2:0x80008d42 x17=0x00000000 PA:0x80008c9a
       62805000	      6279	80000704	f4c11783	lh	x15,-180(x2)	  x2:0x80008d42 x15=0x00000000 PA:0x80008c8e
       62815000	      6280	80000708	00008717	auipc	x14,0x8	 x14=0x80008704
       62825000	      6281	8000070c	6e370713	addi	x14,x14,1763	 x14:0x80008704 x14=0x80008de7
       62835000	      6282	80000710	f7c3bc13	sltiu	x24,x7,-132	  x7:0xbfd386f0 x24=0x00000001
       62845000	      6283	80000714	f1f70383	lb	x7,-225(x14)	 x14:0x80008de7  x7=0x00000000 PA:0x80008d06
       62855000	      6284	80000718	02170123	sb	x1,34(x14)	 x14:0x80008de7  x1:0x00000000 PA:0x80008e09
       62865000	      6285	8000071c	bd77bf93	sltiu	x31,x15,-1065	 x15:0x00000000 x31=0x00000001
       62875000	      6286	80000720	79597193	andi	x3,x18,1941	 x18:0x80008d42  x3=0x00000500
       62885000	      6287	80000724	fa171803	lh	x16,-95(x14)	 x14:0x80008de7 x16=0x00000000 PA:0x80008d88
       62895000	      6288	80000728	01d32cb3	slt	x25,x6,x29	  x6:0x7fffb20a x29:0x00000000 x25=0x00000000
       62905000	      6289	8000072c	0ce70583	lb	x11,206(x14)	 x14:0x80008de7 x11=0x00000000 PA:0x80008eb5
       62915000	      6290	80000730	fbd70103	lb	x2,-67(x14)	 x14:0x80008de7  x2=0x00000000 PA:0x80008da4
       62925000	      6291	80000734	f7a705a3	sb	x26,-149(x14)	 x14:0x80008de7 x26:0x00000000 PA:0x80008d52
       62935000	      6292	80000738	417d5c33	sra	x24,x26,x23	 x26:0x00000000 x23:0xf091aa4a x24=0x00000000
       62945000	      6293	8000073c	03b71c03	lh	x24,59(x14)	 x14:0x80008de7 x24=0x00000000 PA:0x80008e22
       62955000	      6294	80000740	4178d033	sra	x0,x17,x23	 x17:0x00000000 x23:0xf091aa4a
       62965000	      6295	80000744	00832233	slt	x4,x6,x8	  x6:0x7fffb20a  x8:0x00000000  x4=0x00000000
       62975000	      6296	80000748	05f70f83	lb	x31,95(x14)	 x14:0x80008de7 x31=0x00000000 PA:0x80008e46
       62985000	      6297	8000074c	007e9533	sll	x10,x29,x7	 x29:0x00000000  x7:0x00000000 x10=0x00000000
       62995000	      6298	80000750	f6b71903	lh	x18,-149(x14)	 x14:0x80008de7 x18=0x00000000 PA:0x80008d52
       63005000	      6299	80000754	0cc70d83	lb	x27,204(x14)	 x14:0x80008de7 x27=0x00000000 PA:0x80008eb3
       63015000	      6300	80000758	00ef33b3	sltu	x7,x30,x14	 x30:0x00000000 x14:0x80008de7  x7=0x00000001
       63025000	      6301	8000075c	01f19313	slli	x6,x3,0x1f	  x3:0x00000500  x6=0x00000000
       63035000	      6302	80000760	00a8b8b3	sltu	x17,x17,x10	 x17:0x00000000 x10:0x00000000 x17=0x00000000
       63045000	      6303	80000764	00c86233	or	x4,x16,x12	 x16:0x00000000 x12:0xf091aa7c  x4=0xf091aa7c
       63055000	      6304	80000768	81147f93	andi	x31,x8,-2031	  x8:0x00000000 x31=0x00000000
       63065000	      6305	8000076c	000b0f33	add	x30,x22,x0	 x22:0xfffff9ae  x0:0x00000000 x30=0xfffff9ae
       63075000	      6306	80000770	0f070c03	lb	x24,240(x14)	 x14:0x80008de7 x24=0x00000000 PA:0x80008ed7
       63085000	      6307	80000774	412380b3	sub	x1,x7,x18	  x7:0x00000001 x18:0x00000000  x1=0x00000001
       63095000	      6308	80000778	0b474283	lbu	x5,180(x14)	 x14:0x80008de7  x5=0x00000000 PA:0x80008e9b
       63105000	      6309	8000077c	052b6c13	ori	x24,x22,82	 x22:0xfffff9ae x24=0xfffff9fe
       63115000	      6310	80000780	06071aa3	sh	x0,117(x14)	 x14:0x80008de7  x0:0x00000000 PA:0x80008e5c
       63125000	      6311	80000784	00008097	auipc	x1,0x8	  x1=0x80008780
       63135000	      6312	80000788	77e08093	addi	x1,x1,1918	  x1:0x80008780  x1=0x80008efe
       63145000	      6313	8000078c	086088a3	sb	x6,145(x1)	  x1:0x80008efe  x6:0x00000000 PA:0x80008f8f
       63155000	      6314	80000790	f930cc03	lbu	x24,-109(x1)	  x1:0x80008efe x24=0x00000000 PA:0x80008e91
       63165000	      6315	00000000	00000013	addi	x0,x0,0	  x0:0x00000000
       63175000	      6316	80000794	00cc2eb3	slt	x29,x24,x12	 x24:0x00000000 x12:0xf091aa7c x29=0x00000000
       63185000	      6317	80000798	f49086a3	sb	x9,-179(x1)	  x1:0x80008efe  x9:0x1775bd50 PA:0x80008e4b
       63195000	      6318	8000079c	40cf5533	sra	x10,x30,x12	 x30:0xfffff9ae x12:0xf091aa7c x10=0xffffffff
       63205000	      6319	800007a0	f6a09823	sh	x10,-144(x1)	  x1:0x80008efe x10:0xffffffff PA:0x80008e6e
       63215000	      6320	800007a4	ff308223	sb	x19,-28(x1)	  x1:0x80008efe x19:0x00000000 PA:0x80008ee2
       63225000	      6321	800007a8	4150d5b3	sra	x11,x1,x21	  x1:0x80008efe x21:0x80009fc4 x11=0xf80008ef
       63235000	      6322	800007ac	010e4933	xor	x18,x28,x16	 x28:0x80009f38 x16:0x00000000 x18=0x80009f38
       63245000	      6323	800007b0	08208aa3	sb	x2,149(x1)	  x1:0x80008efe  x2:0x00000000 PA:0x80008f93
       63255000	      6324	800007b4	02d0cd03	lbu	x26,45(x1)	  x1:0x80008efe x26=0x00000000 PA:0x80008f2b
       63265000	      6325	800007b8	012a5f93	srli	x31,x20,0x12	 x20:0x00000000 x31=0x00000000
       63275000	      6326	800007bc	015e9b33	sll	x22,x29,x21	 x29:0x00000000 x21:0x80009fc4 x22=0x00000000
       63285000	      6327	800007c0	01c0a723	sw	x28,14(x1)	  x1:0x80008efe x28:0x80009f38 PA:0x80008f0c
       63295000	      6328	800007c4	40848f33	sub	x30,x9,x8	  x9:0x1775bd50  x8:0x00000000 x30=0x1775bd50
       63305000	      6329	800007c8	f4f08003	lb	x0,-177(x1)	  x1:0x80008efe PA:0x80008e4d
       63315000	      6330	800007cc	f400c603	lbu	x12,-192(x1)	  x1:0x80008efe x12=0x00000000 PA:0x80008e3e
       63325000	      6331	800007d0	0de09c23	sh	x30,216(x1)	  x1:0x80008efe x30:0x1775bd50 PA:0x80008fd6
       63335000	      6332	800007d4	fa208f03	lb	x30,-94(x1)	  x1:0x80008efe x30=0x00000000 PA:0x80008ea0
       63345000	      6333	800007d8	009115b3	sll	x11,x2,x9	  x2:0x00000000  x9:0x1775bd50 x11=0x00000000
       63355000	      6334	800007dc	07b3df37	lui	x30,0x7b3d	 x30=0x07b3d000
       63365000	      6335	800007e0	0e50cc83	lbu	x25,229(x1)	  x1:0x80008efe x25=0x00000000 PA:0x80008fe3
       63375000	      6336	800007e4	01030d33	add	x26,x6,x16	  x6:0x00000000 x16:0x00000000 x26=0x00000000
       63385000	      6337	800007e8	21148813	addi	x16,x9,529	  x9:0x1775bd50 x16=0x1775bf61
       63395000	      6338	800007ec	f0508103	lb	x2,-251(x1)	  x1:0x80008efe  x2=0x00000000 PA:0x80008e03
       63405000	      6339	00000000	00000013	addi	x0,x0,0	  x0:0x00000000
       63415000	      6340	800007f0	d222ca13	xori	x20,x5,-734	  x5:0x00000000 x20=0xfffffd22
       63425000	      6341	800007f4	07609383	lh	x7,118(x1)	  x1:0x80008efe  x7=0x00000000 PA:0x80008f74
       63435000	      6342	800007f8	05108283	lb	x5,81(x1)	  x1:0x80008efe  x5=0x00000000 PA:0x80008f4f
       63445000	      6343	800007fc	f27080a3	sb	x7,-223(x1)	  x1:0x80008efe  x7:0x00000000 PA:0x80008e1f
       63455000	      6344	80000800	0106b333	sltu	x6,x13,x16	 x13:0x00000000 x16:0x1775bf61  x6=0x00000001
       63465000	      6345	80000804	aaa04713	xori	x14,x0,-1366	  x0:0x00000000 x14=0xfffffaaa
       63475000	      6346	80000808	00b6c133	xor	x2,x13,x11	 x13:0x00000000 x11:0x00000000  x2=0x00000000
       63485000	      6347	8000080c	01e2ec33	or	x24,x5,x30	  x5:0x00000000 x30:0x07b3d000 x24=0x07b3d000
       63495000	      6348	80000810	40755413	srai	x8,x10,0x7	 x10:0xffffffff  x8=0xffffffff
       63505000	      6349	80000814	da93b993	sltiu	x19,x7,-599	  x7:0x00000000 x19=0x00000001
       63515000	      6350	80000818	01808103	lb	x2,24(x1)	  x1:0x80008efe  x2=0x00000000 PA:0x80008f16
       63525000	      6351	8000081c	f5c08223	sb	x28,-188(x1)	  x1:0x80008efe x28:0x80009f38 PA:0x80008e42
       63535000	      6352	80000820	04908603	lb	x12,73(x1)	  x1:0x80008efe x12=0x00000000 PA:0x80008f47
       63545000	      6353	80000824	f160db03	lhu	x22,-234(x1)	  x1:0x80008efe x22=0x00000000 PA:0x80008e14
       63555000	      6354	80000828	f2f09523	sh	x15,-214(x1)	  x1:0x80008efe x15:0x00000000 PA:0x80008e28
       63565000	      6355	8000082c	031089a3	sb	x17,51(x1)	  x1:0x80008efe x17:0x00000000 PA:0x80008f31
       63575000	      6356	80000830	01d476b3	and	x13,x8,x29	  x8:0xffffffff x29:0x00000000 x13=0x00000000
       63585000	      6357	80000834	02a0d883	lhu	x17,42(x1)	  x1:0x80008efe x17=0x000000f0 PA:0x80008f28
       63595000	      6358	80000838	f7508da3	sb	x21,-133(x1)	  x1:0x80008efe x21:0x80009fc4 PA:0x80008e79
       63605000	      6359	8000083c	03809863	bne	x1,x24,8000086c	  x1:0x80008efe x24:0x07b3d000
       63615000	      6360	00000000	00000013	addi	x0,x0,0	  x0:0x00000000
       63625000	      6361	80000868	00000013	addi	x0,x0,0	  x0:0x00000000
       63635000	      6362	8000086c	01ebdf93	srli	x31,x23,0x1e	 x23:0xf091aa4a x31=0x00000003
       63645000	      6363	80000870	007a90b3	sll	x1,x21,x7	 x21:0x80009fc4  x7:0x00000000  x1=0x80009fc4
       63655000	      6364	80000874	04830263	beq	x6,x8,800008b8	  x6:0x00000001  x8:0xffffffff
       63665000	      6365	80000878	e1993813	sltiu	x16,x18,-487	 x18:0x80009f38 x16=0x00000001
       63675000	      6366	8000087c	03d5ec63	bltu	x11,x29,800008b4	 x11:0x00000000 x29:0x00000000
       63685000	      6367	80000880	01d165b3	or	x11,x2,x29	  x2:0x00000000 x29:0x00000000 x11=0x00000000
       63695000	      6368	80000884	03d5e463	bltu	x11,x29,800008ac	 x11:0x00000000 x29:0x00000000
       63705000	      6369	80000888	3017a993	slti	x19,x15,769	 x15:0x00000000 x19=0x00000001
       63715000	      6370	8000088c	01b00a63	beq	x0,x27,800008a0	  x0:0x00000000 x27:0x00000000
       63725000	      6371	00000000	00000013	addi	x0,x0,0	  x0:0x00000000
       63735000	      6372	8000089c	00000013	addi	x0,x0,0	  x0:0x00000000
       63745000	      6373	800008a0	4046d633	sra	x12,x13,x4	 x13:0x00000000  x4:0xf091aa7c x12=0x00000000
       63755000	      6374	800008a4	41110f33	sub	x30,x2,x17	  x2:0x00000000 x17:0x000000f0 x30=0xffffff10
       63765000	      6375	800008a8	01eedeb3	srl	x29,x29,x30	 x29:0x00000000 x30:0xffffff10 x29=0x00000000
       63775000	      6376	800008ac	0148a333	slt	x6,x17,x20	 x17:0x000000f0 x20:0xfffffd22  x6=0x00000000
       63785000	      6377	800008b0	03f61063	bne	x12,x31,800008d0	 x12:0x00000000 x31:0x00000003
       63795000	      6378	00000000	00000013	addi	x0,x0,0	  x0:0x00000000
       63805000	      6379	800008cc	00000013	addi	x0,x0,0	  x0:0x00000000
       63815000	      6380	800008d0	d6a3f893	andi	x17,x7,-662	  x7:0x00000000 x17=0x00000000
       63825000	      6381	800008d4	00861333	sll	x6,x12,x8	 x12:0x00000000  x8:0xffffffff  x6=0x00000000
       63835000	      6382	800008d8	003696b3	sll	x13,x13,x3	 x13:0x00000000  x3:0x00000500 x13=0x00000000
       63845000	      6383	800008dc	67232d13	slti	x26,x6,1650	  x6:0x00000000 x26=0x00000001
       63855000	      6384	800008e0	35f68993	addi	x19,x13,863	 x13:0x00000000 x19=0x0000035f
       63865000	      6385	800008e4	00000013	addi	x0,x0,0	  x0:0x00000000
       63875000	      6386	800008e8	41a55d13	srai	x26,x10,0x1a	 x10:0xffffffff x26=0xffffffff
       63885000	      6387	800008ec	00000013	addi	x0,x0,0	  x0:0x00000000
       63895000	      6388	800008f0	00000013	addi	x0,x0,0	  x0:0x00000000
       63905000	      6389	800008f4	40b90833	sub	x16,x18,x11	 x18:0x80009f38 x11:0x00000000 x16=0x80009f38
       63915000	      6390	800008f8	40ccd193	srai	x3,x25,0xc	 x25:0x00000000  x3=0x00000000
       63925000	      6391	800008fc	007b29b3	slt	x19,x22,x7	 x22:0x00000000  x7:0x00000000 x19=0x00000000
       63935000	      6392	80000900	85efb313	sltiu	x6,x31,-1954	 x31:0x00000003  x6=0x00000001
       63945000	      6393	80000904	01cedf33	srl	x30,x29,x28	 x29:0x00000000 x28:0x80009f38 x30=0x00000000
       63955000	      6394	80000908	0363f263	bgeu	x7,x22,8000092c	  x7:0x00000000 x22:0x00000000
       63965000	      6395	00000000	00000013	addi	x0,x0,0	  x0:0x00000000
       63975000	      6396	80000928	00000013	addi	x0,x0,0	  x0:0x00000000
       63985000	      6397	8000092c	00501413	slli	x8,x0,0x5	  x0:0x00000000  x8=0x00000000
       63995000	      6398	80000930	05e67463	bgeu	x12,x30,80000978	 x12:0x00000000 x30:0x00000000
       64005000	      6399	00000000	00000013	addi	x0,x0,0	  x0:0x00000000
       64015000	      6400	80000974	00000013	addi	x0,x0,0	  x0:0x00000000
       64025000	      6401	80000978	401b81b3	sub	x3,x23,x1	 x23:0xf091aa4a  x1:0x80009fc4  x3=0x70910a86
       64035000	      6402	8000097c	03034c63	blt	x6,x16,800009b4	  x6:0x00000001 x16:0x80009f38
       64045000	      6403	80000980	4b20e113	ori	x2,x1,1202	  x1:0x80009fc4  x2=0x80009ff6
       64055000	      6404	80000984	4129d233	sra	x4,x19,x18	 x19:0x00000000 x18:0x80009f38  x4=0x00000000
       64065000	      6405	80000988	03891e63	bne	x18,x24,800009c4	 x18:0x80009f38 x24:0x07b3d000
       64075000	      6406	00000000	00000013	addi	x0,x0,0	  x0:0x00000000
       64085000	      6407	800009c0	00000013	addi	x0,x0,0	  x0:0x00000000
       64095000	      6408	800009c4	34e17a13	andi	x20,x2,846	  x2:0x80009ff6 x20=0x00000346
       64105000	      6409	800009c8	978ea793	slti	x15,x29,-1672	 x29:0x00000000 x15=0x00000000
       64115000	      6410	800009cc	b7277b13	andi	x22,x14,-1166	 x14:0xfffffaaa x22=0xfffffa22
       64125000	      6411	800009d0	405d0133	sub	x2,x26,x5	 x26:0xffffffff  x5:0x00000000  x2=0xffffffff
       64135000	      6412	800009d4	414b0d33	sub	x26,x22,x20	 x22:0xfffffa22 x20:0x00000346 x26=0xfffff6dc
       64145000	      6413	800009d8	00000013	addi	x0,x0,0	  x0:0x00000000
       64155000	      6414	800009dc	c71dac13	slti	x24,x27,-911	 x27:0x00000000 x24=0x00000000
       64165000	      6415	800009e0	01f3d033	srl	x0,x7,x31	  x7:0x00000000 x31:0x00000003
       64175000	      6416	800009e4	01c70d33	add	x26,x14,x28	 x14:0xfffffaaa x28:0x80009f38 x26=0x800099e2
       64185000	      6417	800009e8	0135c5b3	xor	x11,x11,x19	 x11:0x00000000 x19:0x00000000 x11=0x00000000
       64195000	      6418	800009ec	9af98c13	addi	x24,x19,-1617	 x19:0x00000000 x24=0xfffff9af
       64205000	      6419	800009f0	00c91463	bne	x18,x12,800009f8	 x18:0x80009f38 x12:0x00000000
       64215000	      6420	00000000	00000013	addi	x0,x0,0	  x0:0x00000000
       64225000	      6421	800009f4	00000013	addi	x0,x0,0	  x0:0x00000000
       64235000	      6422	800009f8	017507b3	add	x15,x10,x23	 x10:0xffffffff x23:0xf091aa4a x15=0xf091aa49
       64245000	      6423	800009fc	7920c613	xori	x12,x1,1938	  x1:0x80009fc4 x12=0x80009856
       64255000	      6424	80000a00	039dcc63	blt	x27,x25,80000a38	 x27:0x00000000 x25:0x00000000
       64265000	      6425	80000a04	01629d13	slli	x26,x5,0x16	  x5:0x00000000 x26=0x00000000
       64275000	      6426	80000a08	0115f463	bgeu	x11,x17,80000a10	 x11:0x00000000 x17:0x00000000
       64285000	      6427	00000000	00000013	addi	x0,x0,0	  x0:0x00000000
       64295000	      6428	80000a0c	00000013	addi	x0,x0,0	  x0:0x00000000
       64305000	      6429	80000a10	00000013	addi	x0,x0,0	  x0:0x00000000
       64315000	      6430	80000a14	a12c7d93	andi	x27,x24,-1518	 x24:0xfffff9af x27=0xfffff802
       64325000	      6431	80000a18	0e373413	sltiu	x8,x14,227	 x14:0xfffffaaa  x8=0x00000000
       64335000	      6432	80000a1c	75b28c13	addi	x24,x5,1883	  x5:0x00000000 x24=0x0000075b
       64345000	      6433	80000a20	d5c6da37	lui	x20,0xd5c6d	 x20=0xd5c6d000
       64355000	      6434	80000a24	019d0cb3	add	x25,x26,x25	 x26:0x00000000 x25:0x00000000 x25=0x00000000
       64365000	      6435	80000a28	40115533	sra	x10,x2,x1	  x2:0xffffffff  x1:0x80009fc4 x10=0xffffffff
       64375000	      6436	80000a2c	41e1da33	sra	x20,x3,x30	  x3:0x70910a86 x30:0x00000000 x20=0x70910a86
       64385000	      6437	80000a30	033f0263	beq	x30,x19,80000a54	 x30:0x00000000 x19:0x00000000
       64395000	      6438	00000000	00000013	addi	x0,x0,0	  x0:0x00000000
       64405000	      6439	80000a50	00000013	addi	x0,x0,0	  x0:0x00000000
       64415000	      6440	80000a54	01fcd933	srl	x18,x25,x31	 x25:0x00000000 x31:0x00000003 x18=0x00000000
       64425000	      6441	80000a58	00000013	addi	x0,x0,0	  x0:0x00000000
       64435000	      6442	80000a5c	017b4463	blt	x22,x23,80000a64	 x22:0xfffffa22 x23:0xf091aa4a
       64445000	      6443	80000a60	27442193	slti	x3,x8,628	  x8:0x00000000  x3=0x00000001
       64455000	      6444	80000a64	00000013	addi	x0,x0,0	  x0:0x00000000
       64465000	      6445	80000a68	01868db3	add	x27,x13,x24	 x13:0x00000000 x24:0x0000075b x27=0x0000075b
       64475000	      6446	80000a6c	022d1263	bne	x26,x2,80000a90	 x26:0x00000000  x2:0xffffffff
       64485000	      6447	00000000	00000013	addi	x0,x0,0	  x0:0x00000000
       64495000	      6448	80000a8c	00000013	addi	x0,x0,0	  x0:0x00000000
       64505000	      6449	80000a90	003afb33	and	x22,x21,x3	 x21:0x80009fc4  x3:0x00000001 x22=0x00000000
       64515000	      6450	80000a94	40625313	srai	x6,x4,0x6	  x4:0x00000000  x6=0x00000000
       64525000	      6451	80000a98	351e3717	auipc	x14,0x351e3	 x14=0xb51e3a94
       64535000	      6452	80000a9c	01795c63	bge	x18,x23,80000ab4	 x18:0x00000000 x23:0xf091aa4a
       64545000	      6453	00000000	00000013	addi	x0,x0,0	  x0:0x00000000
       64555000	      6454	80000ab0	00000013	addi	x0,x0,0	  x0:0x00000000
       64565000	      6455	80000ab4	19d67d13	andi	x26,x12,413	 x12:0x80009856 x26=0x00000014
       64575000	      6456	80000ab8	0044d233	srl	x4,x9,x4	  x9:0x1775bd50  x4:0x00000000  x4=0x1775bd50
       64585000	      6457	80000abc	03ab0663	beq	x22,x26,80000ae8	 x22:0x00000000 x26:0x00000014
       64595000	      6458	80000ac0	048a6863	bltu	x20,x8,80000b10	 x20:0x70910a86  x8:0x00000000
       64605000	      6459	80000ac4	412f5593	srai	x11,x30,0x12	 x30:0x00000000 x11=0x00000000
       64615000	      6460	80000ac8	417ed633	sra	x12,x29,x23	 x29:0x00000000 x23:0xf091aa4a x12=0x00000000
       64625000	      6461	80000acc	02756663	bltu	x10,x7,80000af8	 x10:0xffffffff  x7:0x00000000
       64635000	      6462	80000ad0	00486a63	bltu	x16,x4,80000ae4	 x16:0x80009f38  x4:0x1775bd50
       64645000	      6463	80000ad4	01488db3	add	x27,x17,x20	 x17:0x00000000 x20:0x70910a86 x27=0x70910a86
       64655000	      6464	80000ad8	02f54263	blt	x10,x15,80000afc	 x10:0xffffffff x15:0xf091aa49
       64665000	      6465	80000adc	a27e7c37	lui	x24,0xa27e7	 x24=0xa27e7000
       64675000	      6466	80000ae0	00d162b3	or	x5,x2,x13	  x2:0xffffffff x13:0x00000000  x5=0xffffffff
       64685000	      6467	80000ae4	0157d313	srli	x6,x15,0x15	 x15:0xf091aa49  x6=0x00000784
       64695000	      6468	80000ae8	03034c63	blt	x6,x16,80000b20	  x6:0x00000784 x16:0x80009f38
       64705000	      6469	80000aec	01ad9463	bne	x27,x26,80000af4	 x27:0x70910a86 x26:0x00000014
       64715000	      6470	00000000	00000013	addi	x0,x0,0	  x0:0x00000000
       64725000	      6471	80000af0	00000013	addi	x0,x0,0	  x0:0x00000000
       64735000	      6472	80000af4	d274a813	slti	x16,x9,-729	  x9:0x1775bd50 x16=0x00000000
       64745000	      6473	80000af8	00af01b3	add	x3,x30,x10	 x30:0x00000000 x10:0xffffffff  x3=0xffffffff
       64755000	      6474	80000afc	0127eeb3	or	x29,x15,x18	 x15:0xf091aa49 x18:0x00000000 x29=0xf091aa49
       64765000	      6475	80000b00	02006263	bltu	x0,x0,80000b24	  x0:0x00000000  x0:0x00000000
       64775000	      6476	80000b04	cb7e4117	auipc	x2,0xcb7e4	  x2=0x4b7e4b00
       64785000	      6477	80000b08	4fe7ae93	slti	x29,x15,1278	 x15:0xf091aa49 x29=0x00000001
       64795000	      6478	80000b0c	0245e663	bltu	x11,x4,80000b38	 x11:0x00000000  x4:0x1775bd50
       64805000	      6479	00000000	00000013	addi	x0,x0,0	  x0:0x00000000
       64815000	      6480	80000b34	00000013	addi	x0,x0,0	  x0:0x00000000
       64825000	      6481	80000b38	4117db33	sra	x22,x15,x17	 x15:0xf091aa49 x17:0x00000000 x22=0xf091aa49
       64835000	      6482	80000b3c	405dd193	srai	x3,x27,0x5	 x27:0x70910a86  x3=0x03848854
       64845000	      6483	80000b40	00000013	addi	x0,x0,0	  x0:0x00000000
       64855000	      6484	80000b44	01c39393	slli	x7,x7,0x1c	  x7:0x00000000  x7=0x00000000
       64865000	      6485	80000b48	41355633	sra	x12,x10,x19	 x10:0xffffffff x19:0x00000000 x12=0xffffffff
       64875000	      6486	80000b4c	b905e213	ori	x4,x11,-1136	 x11:0x00000000  x4=0xfffffb90
       64885000	      6487	80000b50	019312b3	sll	x5,x6,x25	  x6:0x00000784 x25:0x00000000  x5=0x00000784
       64895000	      6488	80000b54	bf423913	sltiu	x18,x4,-1036	  x4:0xfffffb90 x18=0x00000001
       64905000	      6489	80000b58	45b44fb7	lui	x31,0x45b44	 x31=0x45b44000
       64915000	      6490	80000b5c	0af5ab13	slti	x22,x11,175	 x11:0x00000000 x22=0x00000001
       64925000	      6491	80000b60	03db0463	beq	x22,x29,80000b88	 x22:0x00000001 x29:0x00000001
       64935000	      6492	00000000	00000013	addi	x0,x0,0	  x0:0x00000000
       64945000	      6493	80000b84	00000013	addi	x0,x0,0	  x0:0x00000000
       64955000	      6494	80000b88	015bd313	srli	x6,x23,0x15	 x23:0xf091aa4a  x6=0x00000784
       64965000	      6495	80000b8c	cd6ced93	ori	x27,x25,-810	 x25:0x00000000 x27=0xfffffcd6
       64975000	      6496	80000b90	404b9f17	auipc	x30,0x404b9	 x30=0xc04b9b8c
       64985000	      6497	80000b94	65556513	ori	x10,x10,1621	 x10:0xffffffff x10=0xffffffff
       64995000	      6498	80000b98	00f61d93	slli	x27,x12,0xf	 x12:0xffffffff x27=0xffff8000
       65005000	      6499	80000b9c	41108db3	sub	x27,x1,x17	  x1:0x80009fc4 x17:0x00000000 x27=0x80009fc4
       65015000	      6500	80000ba0	009c1663	bne	x24,x9,80000bac	 x24:0xa27e7000  x9:0x1775bd50
       65025000	      6501	00000000	00000013	addi	x0,x0,0	  x0:0x00000000
       65035000	      6502	80000ba8	00000013	addi	x0,x0,0	  x0:0x00000000
       65045000	      6503	80000bac	12d13c93	sltiu	x25,x2,301	  x2:0x4b7e4b00 x25=0x00000000
       65055000	      6504	80000bb0	00f5f8b3	and	x17,x11,x15	 x11:0x00000000 x15:0xf091aa49 x17=0x00000000
       65065000	      6505	80000bb4	02377c63	bgeu	x14,x3,80000bec	 x14:0xb51e3a94  x3:0x03848854
       65075000	      6506	00000000	00000013	addi	x0,x0,0	  x0:0x00000000
       65085000	      6507	80000be8	00000013	addi	x0,x0,0	  x0:0x00000000
       65095000	      6508	80000bec	01617033	and	x0,x2,x22	  x2:0x4b7e4b00 x22:0x00000001
       65105000	      6509	80000bf0	cec706b7	lui	x13,0xcec70	 x13=0xcec70000
       65115000	      6510	80000bf4	02fe7463	bgeu	x28,x15,80000c1c	 x28:0x80009f38 x15:0xf091aa49
       65125000	      6511	80000bf8	412bd693	srai	x13,x23,0x12	 x23:0xf091aa4a x13=0xfffffc24
       65135000	      6512	80000bfc	00a58f33	add	x30,x11,x10	 x11:0x00000000 x10:0xffffffff x30=0xffffffff
       65145000	      6513	80000c00	00d56733	or	x14,x10,x13	 x10:0xffffffff x13:0xfffffc24 x14=0xffffffff
       65155000	      6514	80000c04	02e90863	beq	x18,x14,80000c34	 x18:0x00000001 x14:0xffffffff
       65165000	      6515	80000c08	009331b3	sltu	x3,x6,x9	  x6:0x00000784  x9:0x1775bd50  x3=0x00000001
       65175000	      6516	80000c0c	03187c63	bgeu	x16,x17,80000c44	 x16:0x00000000 x17:0x00000000
       65185000	      6517	00000000	00000013	addi	x0,x0,0	  x0:0x00000000
       65195000	      6518	80000c40	00000013	addi	x0,x0,0	  x0:0x00000000
       65205000	      6519	80000c44	00e61e93	slli	x29,x12,0xe	 x12:0xffffffff x29=0xffffc000
       65215000	      6520	80000c48	00e5e4b3	or	x9,x11,x14	 x11:0x00000000 x14:0xffffffff  x9=0xffffffff
       65225000	      6521	80000c4c	40ea55b3	sra	x11,x20,x14	 x20:0x70910a86 x14:0xffffffff x11=0x00000000
       65235000	      6522	80000c50	0002d613	srli	x12,x5,0x0	  x5:0x00000784 x12=0x00000784
       65245000	      6523	80000c54	0169d463	bge	x19,x22,80000c5c	 x19:0x00000000 x22:0x00000001
       65255000	      6524	80000c58	01c9d833	srl	x16,x19,x28	 x19:0x00000000 x28:0x80009f38 x16=0x00000000
       65265000	      6525	80000c5c	3d874213	xori	x4,x14,984	 x14:0xffffffff  x4=0xfffffc27
       65275000	      6526	80000c60	01ec1a33	sll	x20,x24,x30	 x24:0xa27e7000 x30:0xffffffff x20=0x00000000
       65285000	      6527	80000c64	014e1fb3	sll	x31,x28,x20	 x28:0x80009f38 x20:0x00000000 x31=0x80009f38
       65295000	      6528	80000c68	005cef33	or	x30,x25,x5	 x25:0x00000000  x5:0x00000784 x30=0x00000784
       65305000	      6529	80000c6c	cdd8ce93	xori	x29,x17,-803	 x17:0x00000000 x29=0xfffffcdd
       65315000	      6530	80000c70	00639693	slli	x13,x7,0x6	  x7:0x00000000 x13=0x00000000
       65325000	      6531	80000c74	00966393	ori	x7,x12,9	 x12:0x00000784  x7=0x0000078d
       65335000	      6532	80000c78	7691fc17	auipc	x24,0x7691f	 x24=0xf691fc74
       65345000	      6533	80000c7c	ff5b2613	slti	x12,x22,-11	 x22:0x00000001 x12=0x00000000
       65355000	      6534	80000c80	027fc263	blt	x31,x7,80000ca4	 x31:0x80009f38  x7:0x0000078d
       65365000	      6535	00000000	00000013	addi	x0,x0,0	  x0:0x00000000
       65375000	      6536	80000ca0	00000013	addi	x0,x0,0	  x0:0x00000000
       65385000	      6537	80000ca4	0163e833	or	x16,x7,x22	  x7:0x0000078d x22:0x00000001 x16=0x0000078d
       65395000	      6538	80000ca8	01178733	add	x14,x15,x17	 x15:0xf091aa49 x17:0x00000000 x14=0xf091aa49
       65405000	      6539	80000cac	413e8cb3	sub	x25,x29,x19	 x29:0xfffffcdd x19:0x00000000 x25=0xfffffcdd
       65415000	      6540	80000cb0	011ae463	bltu	x21,x17,80000cb8	 x21:0x80009fc4 x17:0x00000000
       65425000	      6541	80000cb4	00000013	addi	x0,x0,0	  x0:0x00000000
       65435000	      6542	80000cb8	41835413	srai	x8,x6,0x18	  x6:0x00000784  x8=0x00000000
       65445000	      6543	80000cbc	22795e97	auipc	x29,0x22795	 x29=0xa2795cb8
       65455000	      6544	80000cc0	00000013	addi	x0,x0,0	  x0:0x00000000
       65465000	      6545	80000cc4	20a46393	ori	x7,x8,522	  x8:0x00000000  x7=0x0000020a
       65475000	      6546	80000cc8	fa507637	lui	x12,0xfa507	 x12=0xfa507000
       65485000	      6547	80000ccc	00dd32b3	sltu	x5,x26,x13	 x26:0x00000014 x13:0x00000000  x5=0x00000000
       65495000	      6548	80000cd0	01009413	slli	x8,x1,0x10	  x1:0x80009fc4  x8=0x9fc40000
       65505000	      6549	80000cd4	012101b3	add	x3,x2,x18	  x2:0x4b7e4b00 x18:0x00000001  x3=0x4b7e4b01
       65515000	      6550	80000cd8	02777063	bgeu	x14,x7,80000cf8	 x14:0xf091aa49  x7:0x0000020a
       65525000	      6551	00000000	00000013	addi	x0,x0,0	  x0:0x00000000
       65535000	      6552	80000cf4	00000013	addi	x0,x0,0	  x0:0x00000000
       65545000	      6553	80000cf8	04bd1863	bne	x26,x11,80000d48	 x26:0x00000014 x11:0x00000000
       65555000	      6554	00000000	00000013	addi	x0,x0,0	  x0:0x00000000
       65565000	      6555	80000d44	00000013	addi	x0,x0,0	  x0:0x00000000
       65575000	      6556	80000d48	00ae9893	slli	x17,x29,0xa	 x29:0xa2795cb8 x17=0xe572e000
       65585000	      6557	80000d4c	57c3e437	lui	x8,0x57c3e	  x8=0x57c3e000
       65595000	      6558	80000d50	f2320193	addi	x3,x4,-221	  x4:0xfffffc27  x3=0xfffffb4a
       65605000	      6559	80000d54	0021c9b3	xor	x19,x3,x2	  x3:0xfffffb4a  x2:0x4b7e4b00 x19=0xb481b04a
       65615000	      6560	80000d58	1f947517	auipc	x10,0x1f947	 x10=0x9f947d54
       65625000	      6561	80000d5c	1346c063	blt	x13,x20,80000e7c	 x13:0x00000000 x20:0x00000000
       65635000	      6562	80000d60	0041d413	srli	x8,x3,0x4	  x3:0xfffffb4a  x8=0x0fffffb4
       65645000	      6563	80000d64	00b86733	or	x14,x16,x11	 x16:0x0000078d x11:0x00000000 x14=0x0000078d
       65655000	      6564	80000d68	f6b3c893	xori	x17,x7,-149	  x7:0x0000020a x17=0xfffffd61
       65665000	      6565	80000d6c	4067dd33	sra	x26,x15,x6	 x15:0xf091aa49  x6:0x00000784 x26=0xff091aa4
       65675000	      6566	80000d70	0057cf33	xor	x30,x15,x5	 x15:0xf091aa49  x5:0x00000000 x30=0xf091aa49
       65685000	      6567	80000d74	00b00233	add	x4,x0,x11	  x0:0x00000000 x11:0x00000000  x4=0x00000000
       65695000	      6568	80000d78	12f97293	andi	x5,x18,303	 x18:0x00000001  x5=0x00000001
       65705000	      6569	80000d7c	00ca22b3	slt	x5,x20,x12	 x20:0x00000000 x12:0xfa507000  x5=0x00000000
       65715000	      6570	80000d80	00d810b3	sll	x1,x16,x13	 x16:0x0000078d x13:0x00000000  x1=0x0000078d
       65725000	      6571	80000d84	60076f93	ori	x31,x14,1536	 x14:0x0000078d x31=0x0000078d
       65735000	      6572	80000d88	5ba2b193	sltiu	x3,x5,1466	  x5:0x00000000  x3=0x00000001
       65745000	      6573	80000d8c	00008217	auipc	x4,0x8	  x4=0x80008d88
       65755000	      6574	80000d90	82420213	addi	x4,x4,-2012	  x4:0x80008d88  x4=0x800085ac
       65765000	      6575	80000d94	ff221e83	lh	x29,-14(x4)	  x4:0x800085ac x29=0xffffc400 PA:0x8000859e
       65775000	      6576	00000000	00000013	addi	x0,x0,0	  x0:0x00000000
       65785000	      6577	80000d98	01d20223	sb	x29,4(x4)	  x4:0x800085ac x29:0xffffc400 PA:0x800085b0
       65795000	      6578	80000d9c	010a1f93	slli	x31,x20,0x10	 x20:0x00000000 x31=0x00000000
       65805000	      6579	80000da0	01d2e333	or	x6,x5,x29	  x5:0x00000000 x29:0xffffc400  x6=0xffffc400
       65815000	      6580	80000da4	ff720f83	lb	x31,-9(x4)	  x4:0x800085ac x31=0x00000000 PA:0x800085a3
       65825000	      6581	80000da8	ff421f23	sh	x20,-2(x4)	  x4:0x800085ac x20:0x00000000 PA:0x800085aa
       65835000	      6582	80000dac	00e25c83	lhu	x25,14(x4)	  x4:0x800085ac x25=0x00000000 PA:0x800085ba
       65845000	      6583	80000db0	01f328b3	slt	x17,x6,x31	  x6:0xffffc400 x31:0x00000000 x17=0x00000001
       65855000	      6584	80000db4	015bbf33	sltu	x30,x23,x21	 x23:0xf091aa4a x21:0x80009fc4 x30=0x00000000
       65865000	      6585	80000db8	fe520823	sb	x5,-16(x4)	  x4:0x800085ac  x5:0x00000000 PA:0x8000859c
       65875000	      6586	80000dbc	812fe513	ori	x10,x31,-2030	 x31:0x00000000 x10=0xfffff812
       65885000	      6587	80000dc0	00e25c03	lhu	x24,14(x4)	  x4:0x800085ac x24=0x00000000 PA:0x800085ba
       65895000	      6588	80000dc4	00120783	lb	x15,1(x4)	  x4:0x800085ac x15=0x00000000 PA:0x800085ad
       65905000	      6589	80000dc8	00829eb3	sll	x29,x5,x8	  x5:0x00000000  x8:0x0fffffb4 x29=0x00000000
       65915000	      6590	80000dcc	ef93a513	slti	x10,x7,-263	  x7:0x0000020a x10=0x00000000
       65925000	      6591	80000dd0	00a24c03	lbu	x24,10(x4)	  x4:0x800085ac x24=0x00000000 PA:0x800085b6
       65935000	      6592	80000dd4	00c20c83	lb	x25,12(x4)	  x4:0x800085ac x25=0x00000000 PA:0x800085b8
       65945000	      6593	80000dd8	ff020603	lb	x12,-16(x4)	  x4:0x800085ac x12=0x00000000 PA:0x8000859c
       65955000	      6594	80000ddc	63fbb5b7	lui	x11,0x63fbb	 x11=0x63fbb000
       65965000	      6595	80000de0	fff20783	lb	x15,-1(x4)	  x4:0x800085ac x15=0x00000000 PA:0x800085ab
       65975000	      6596	80000de4	01203333	sltu	x6,x0,x18	  x0:0x00000000 x18:0x00000001  x6=0x00000001
       65985000	      6597	80000de8	018ddc93	srli	x25,x27,0x18	 x27:0x80009fc4 x25=0x00000080
       65995000	      6598	80000dec	00324f83	lbu	x31,3(x4)	  x4:0x800085ac x31=0x00000000 PA:0x800085af
       66005000	      6599	80000df0	fe720aa3	sb	x7,-11(x4)	  x4:0x800085ac  x7:0x0000020a PA:0x800085a1
       66015000	      6600	80000df4	ff824583	lbu	x11,-8(x4)	  x4:0x800085ac x11=0x00000000 PA:0x800085a4
       66025000	      6601	80000df8	9d2c7013	andi	x0,x24,-1582	 x24:0x00000000
       66035000	      6602	80000dfc	00a25103	lhu	x2,10(x4)	  x4:0x800085ac  x2=0x00000000 PA:0x800085b6
       66045000	      6603	80000e00	00ca54b3	srl	x9,x20,x12	 x20:0x00000000 x12:0x00000000  x9=0x00000000
       66055000	      6604	80000e04	01f68333	add	x6,x13,x31	 x13:0x00000000 x31:0x00000000  x6=0x00000000
       66065000	      6605	80000e08	01e8ed33	or	x26,x17,x30	 x17:0x00000001 x30:0x00000000 x26=0x00000001
       66075000	      6606	80000e0c	00a24303	lbu	x6,10(x4)	  x4:0x800085ac  x6=0x00000000 PA:0x800085b6
       66085000	      6607	80000e10	ffb209a3	sb	x27,-13(x4)	  x4:0x800085ac x27:0x80009fc4 PA:0x8000859f
       66095000	      6608	80000e14	00221603	lh	x12,2(x4)	  x4:0x800085ac x12=0x00000000 PA:0x800085ae
       66105000	      6609	00000000	00000013	addi	x0,x0,0	  x0:0x00000000
       66115000	      6610	80000e18	00c21183	lh	x3,12(x4)	  x4:0x800085ac  x3=0x00000000 PA:0x800085b8
       66125000	      6611	80000e1c	ffc22983	lw	x19,-4(x4)	  x4:0x800085ac x19=0x00000000 PA:0x800085a8
       66135000	      6612	80000e20	fe320ba3	sb	x3,-9(x4)	  x4:0x800085ac  x3:0x00000000 PA:0x800085a3
       66145000	      6613	80000e24	9df05697	auipc	x13,0x9df05	 x13=0x1df05e20
       66155000	      6614	80000e28	00825a03	lhu	x20,8(x4)	  x4:0x800085ac x20=0x00000000 PA:0x800085b4
       66165000	      6615	80000e2c	01822623	sw	x24,12(x4)	  x4:0x800085ac x24:0x00000000 PA:0x800085b8
       66175000	      6616	80000e30	b5adf893	andi	x17,x27,-1190	 x27:0x80009fc4 x17=0x80009b40
       66185000	      6617	80000e34	00c20383	lb	x7,12(x4)	  x4:0x800085ac  x7=0x00000000 PA:0x800085b8
       66195000	      6618	80000e38	ff425383	lhu	x7,-12(x4)	  x4:0x800085ac  x7=0x00000a00 PA:0x800085a0
       66205000	      6619	80000e3c	ff924583	lbu	x11,-7(x4)	  x4:0x800085ac x11=0x00000000 PA:0x800085a5
       66215000	      6620	80000e40	01831293	slli	x5,x6,0x18	  x6:0x00000000  x5=0x00000000
       66225000	      6621	80000e44	40d75493	srai	x9,x14,0xd	 x14:0x0000078d  x9=0x00000000
       66235000	      6622	80000e48	00924103	lbu	x2,9(x4)	  x4:0x800085ac  x2=0x00000000 PA:0x800085b5
       66245000	      6623	80000e4c	40d2dd93	srai	x27,x5,0xd	  x5:0x00000000 x27=0x00000000
       66255000	      6624	80000e50	00d0bf33	sltu	x30,x1,x13	  x1:0x0000078d x13:0x1df05e20 x30=0x00000001
       66265000	      6625	80000e54	0c5d0513	addi	x10,x26,197	 x26:0x00000001 x10=0x000000c6
       66275000	      6626	80000e58	01b6c7b3	xor	x15,x13,x27	 x13:0x1df05e20 x27:0x00000000 x15=0x1df05e20
       66285000	      6627	80000e5c	00120903	lb	x18,1(x4)	  x4:0x800085ac x18=0x00000000 PA:0x800085ad
       66295000	      6628	80000e60	fe220a23	sb	x2,-12(x4)	  x4:0x800085ac  x2:0x00000000 PA:0x800085a0
       66305000	      6629	80000e64	beaf4693	xori	x13,x30,-1046	 x30:0x00000001 x13=0xfffffbeb
       66315000	      6630	80000e68	404ad093	srai	x1,x21,0x4	 x21:0x80009fc4  x1=0xf80009fc
       66325000	      6631	80000e6c	50217493	andi	x9,x2,1282	  x2:0x00000000  x9=0x00000000
       66335000	      6632	80000e70	26c0b817	auipc	x16,0x26c0b	 x16=0xa6c0be6c
       66345000	      6633	80000e74	a3defeb7	lui	x29,0xa3def	 x29=0xa3def000
       66355000	      6634	80000e78	384b3313	sltiu	x6,x22,900	 x22:0x00000001  x6=0x00000001
       66365000	      6635	80000e7c	00000013	addi	x0,x0,0	  x0:0x00000000
       66375000	      6636	80000e80	418a08b3	sub	x17,x20,x24	 x20:0x00000000 x24:0x00000000 x17=0x00000000
       66385000	      6637	80000e84	00de5493	srli	x9,x28,0xd	 x28:0x80009f38  x9=0x00040004
       66395000	      6638	80000e88	8ce7ef37	lui	x30,0x8ce7e	 x30=0x8ce7e000
       66405000	      6639	80000e8c	00cf6463	bltu	x30,x12,80000e94	 x30:0x8ce7e000 x12:0x00000000
       66415000	      6640	80000e90	00e65313	srli	x6,x12,0xe	 x12:0x00000000  x6=0x00000000
       66425000	      6641	80000e94	00b449b3	xor	x19,x8,x11	  x8:0x0fffffb4 x11:0x00000000 x19=0x0fffffb4
       66435000	      6642	80000e98	04d71663	bne	x14,x13,80000ee4	 x14:0x0000078d x13:0xfffffbeb
       66445000	      6643	00000000	00000013	addi	x0,x0,0	  x0:0x00000000
       66455000	      6644	80000ee0	00000013	addi	x0,x0,0	  x0:0x00000000
       66465000	      6645	80000ee4	6c5adc97	auipc	x25,0x6c5ad	 x25=0xec5adee0
       66475000	      6646	80000ee8	405c5413	srai	x8,x24,0x5	 x24:0x00000000  x8=0x00000000
       66485000	      6647	80000eec	a8f38313	addi	x6,x7,-1393	  x7:0x00000a00  x6=0x0000048f
       66495000	      6648	80000ef0	03ea4063	blt	x20,x30,80000f10	 x20:0x00000000 x30:0x8ce7e000
       66505000	      6649	80000ef4	ddf66613	ori	x12,x12,-545	 x12:0x00000000 x12=0xfffffddf
       66515000	      6650	80000ef8	c25e3413	sltiu	x8,x28,-987	 x28:0x80009f38  x8=0x00000001
       66525000	      6651	80000efc	03175e63	bge	x14,x17,80000f38	 x14:0x0000078d x17:0x00000000
       66535000	      6652	00000000	00000013	addi	x0,x0,0	  x0:0x00000000
       66545000	      6653	80000f34	00000013	addi	x0,x0,0	  x0:0x00000000
       66555000	      6654	80000f38	3fa16c93	ori	x25,x2,1018	  x2:0x00000000 x25=0x000003fa
       66565000	      6655	80000f3c	d866dc17	auipc	x24,0xd866d	 x24=0x5866df38
       66575000	      6656	80000f40	01f91463	bne	x18,x31,80000f48	 x18:0x00000000 x31:0x00000000
       66585000	      6657	80000f44	270fb613	sltiu	x12,x31,624	 x31:0x00000000 x12=0x00000001
       66595000	      6658	80000f48	cf5e4093	xori	x1,x28,-779	 x28:0x80009f38  x1=0x7fff63cd
       66605000	      6659	80000f4c	4082d2b3	sra	x5,x5,x8	  x5:0x00000000  x8:0x00000001  x5=0x00000000
       66615000	      6660	80000f50	00145033	srl	x0,x8,x1	  x8:0x00000001  x1:0x7fff63cd
       66625000	      6661	80000f54	04e28263	beq	x5,x14,80000f98	  x5:0x00000000 x14:0x0000078d
       66635000	      6662	80000f58	400e8933	sub	x18,x29,x0	 x29:0xa3def000  x0:0x00000000 x18=0xa3def000
       66645000	      6663	80000f5c	4086deb3	sra	x29,x13,x8	 x13:0xfffffbeb  x8:0x00000001 x29=0xfffffdf5
       66655000	      6664	80000f60	bfc94a13	xori	x20,x18,-1028	 x18:0xa3def000 x20=0x5c210bfc
       66665000	      6665	80000f64	7a8e6d93	ori	x27,x28,1960	 x28:0x80009f38 x27=0x80009fb8
       66675000	      6666	80000f68	014cd313	srli	x6,x25,0x14	 x25:0x000003fa  x6=0x00000000
       66685000	      6667	80000f6c	c1830c93	addi	x25,x6,-1000	  x6:0x00000000 x25=0xfffffc18
       66695000	      6668	80000f70	04178463	beq	x15,x1,80000fb8	 x15:0x1df05e20  x1:0x7fff63cd
       66705000	      6669	80000f74	014aad33	slt	x26,x21,x20	 x21:0x80009fc4 x20:0x5c210bfc x26=0x00000001
       66715000	      6670	80000f78	73e2fc13	andi	x24,x5,1854	  x5:0x00000000 x24=0x00000000
       66725000	      6671	80000f7c	2fb3a913	slti	x18,x7,763	  x7:0x00000a00 x18=0x00000000
       66735000	      6672	80000f80	403c59b3	sra	x19,x24,x3	 x24:0x00000000  x3:0x00000000 x19=0x00000000
       66745000	      6673	80000f84	032d6463	bltu	x26,x18,80000fac	 x26:0x00000001 x18:0x00000000
       66755000	      6674	80000f88	03770c63	beq	x14,x23,80000fc0	 x14:0x0000078d x23:0xf091aa4a
       66765000	      6675	80000f8c	1399d1b7	lui	x3,0x1399d	  x3=0x1399d000
       66775000	      6676	80000f90	001164b3	or	x9,x2,x1	  x2:0x00000000  x1:0x7fff63cd  x9=0x7fff63cd
       66785000	      6677	80000f94	01836a63	bltu	x6,x24,80000fa8	  x6:0x00000000 x24:0x00000000
       66795000	      6678	80000f98	00ff6a33	or	x20,x30,x15	 x30:0x8ce7e000 x15:0x1df05e20 x20=0x9df7fe20
       66805000	      6679	80000f9c	00ed5e93	srli	x29,x26,0xe	 x26:0x00000001 x29=0x00000000
       66815000	      6680	80000fa0	03058e63	beq	x11,x16,80000fdc	 x11:0x00000000 x16:0xa6c0be6c
       66825000	      6681	80000fa4	9943c693	xori	x13,x7,-1644	  x7:0x00000a00 x13=0xfffff394
       66835000	      6682	80000fa8	01763c33	sltu	x24,x12,x23	 x12:0x00000001 x23:0xf091aa4a x24=0x00000001
       66845000	      6683	80000fac	a4aa0013	addi	x0,x20,-1462	 x20:0x9df7fe20
       66855000	      6684	80000fb0	00a97c63	bgeu	x18,x10,80000fc8	 x18:0x00000000 x10:0x000000c6
       66865000	      6685	80000fb4	03359863	bne	x11,x19,80000fe4	 x11:0x00000000 x19:0x00000000
       66875000	      6686	80000fb8	0127bb33	sltu	x22,x15,x18	 x15:0x1df05e20 x18:0x00000000 x22=0x00000000
       66885000	      6687	80000fbc	4182dc13	srai	x24,x5,0x18	  x5:0x00000000 x24=0x00000000
       66895000	      6688	80000fc0	4855ef93	ori	x31,x11,1157	 x11:0x00000000 x31=0x00000485
       66905000	      6689	80000fc4	3e5f0d93	addi	x27,x30,997	 x30:0x8ce7e000 x27=0x8ce7e3e5
       66915000	      6690	80000fc8	014f9e93	slli	x29,x31,0x14	 x31:0x00000485 x29=0x48500000
       66925000	      6691	80000fcc	01064833	xor	x16,x12,x16	 x12:0x00000001 x16:0xa6c0be6c x16=0xa6c0be6d
       66935000	      6692	80000fd0	47e5b793	sltiu	x15,x11,1150	 x11:0x00000000 x15=0x00000001
       66945000	      6693	80000fd4	1521ce93	xori	x29,x3,338	  x3:0x1399d000 x29=0x1399d152
       66955000	      6694	80000fd8	007fa6b3	slt	x13,x31,x7	 x31:0x00000485  x7:0x00000a00 x13=0x00000001
       66965000	      6695	80000fdc	00465793	srli	x15,x12,0x4	 x12:0x00000001 x15=0x00000000
       66975000	      6696	80000fe0	1e076493	ori	x9,x14,480	 x14:0x0000078d  x9=0x000007ed
       66985000	      6697	80000fe4	03117263	bgeu	x2,x17,80001008	  x2:0x00000000 x17:0x00000000
       66995000	      6698	00000000	00000013	addi	x0,x0,0	  x0:0x00000000
       67005000	      6699	80001004	00000013	addi	x0,x0,0	  x0:0x00000000
       67015000	      6700	80001008	01185593	srli	x11,x16,0x11	 x16:0xa6c0be6d x11=0x00005360
       67025000	      6701	8000100c	978bf113	andi	x2,x23,-1672	 x23:0xf091aa4a  x2=0xf091a848
       67035000	      6702	80001010	4034df93	srai	x31,x9,0x3	  x9:0x000007ed x31=0x000000fd
       67045000	      6703	80001014	26674413	xori	x8,x14,614	 x14:0x0000078d  x8=0x000005eb
       67055000	      6704	80001018	da0fc193	xori	x3,x31,-608	 x31:0x000000fd  x3=0xfffffd5d
       67065000	      6705	8000101c	02c8e063	bltu	x17,x12,8000103c	 x17:0x00000000 x12:0x00000001
       67075000	      6706	00000000	00000013	addi	x0,x0,0	  x0:0x00000000
       67085000	      6707	80001038	00000013	addi	x0,x0,0	  x0:0x00000000
       67095000	      6708	8000103c	02b4dc63	bge	x9,x11,80001074	  x9:0x000007ed x11:0x00005360
       67105000	      6709	80001040	00000013	addi	x0,x0,0	  x0:0x00000000
       67115000	      6710	80001044	41855413	srai	x8,x10,0x18	 x10:0x000000c6  x8=0x00000000
       67125000	      6711	80001048	41035013	srai	x0,x6,0x10	  x6:0x00000000
       67135000	      6712	8000104c	015383b3	add	x7,x7,x21	  x7:0x00000a00 x21:0x80009fc4  x7=0x8000a9c4
       67145000	      6713	80001050	004b8f33	add	x30,x23,x4	 x23:0xf091aa4a  x4:0x800085ac x30=0x70922ff6
       67155000	      6714	80001054	00000013	addi	x0,x0,0	  x0:0x00000000
       67165000	      6715	80001058	1d3ec013	xori	x0,x29,467	 x29:0x1399d152
       67175000	      6716	8000105c	002ecc63	blt	x29,x2,80001074	 x29:0x1399d152  x2:0xf091a848
       67185000	      6717	80001060	02e95c63	bge	x18,x14,80001098	 x18:0x00000000 x14:0x0000078d
       67195000	      6718	80001064	0159f533	and	x10,x19,x21	 x19:0x00000000 x21:0x80009fc4 x10=0x00000000
       67205000	      6719	80001068	417c0633	sub	x12,x24,x23	 x24:0x00000000 x23:0xf091aa4a x12=0x0f6e55b6
       67215000	      6720	8000106c	2a51f0b7	lui	x1,0x2a51f	  x1=0x2a51f000
       67225000	      6721	80001070	40c48233	sub	x4,x9,x12	  x9:0x000007ed x12:0x0f6e55b6  x4=0xf091b237
       67235000	      6722	80001074	26d85f97	auipc	x31,0x26d85	 x31=0xa6d86070
       67245000	      6723	80001078	02f3d463	bge	x7,x15,800010a0	  x7:0x8000a9c4 x15:0x00000000
       67255000	      6724	8000107c	2d092813	slti	x16,x18,720	 x18:0x00000000 x16=0x00000001
       67265000	      6725	80001080	14abcc13	xori	x24,x23,330	 x23:0xf091aa4a x24=0xf091ab00
       67275000	      6726	80001084	402e5493	srai	x9,x28,0x2	 x28:0x80009f38  x9=0xe00027ce
       67285000	      6727	80001088	023e9063	bne	x29,x3,800010a8	 x29:0x1399d152  x3:0xfffffd5d
       67295000	      6728	00000000	00000013	addi	x0,x0,0	  x0:0x00000000
       67305000	      6729	800010a4	00000013	addi	x0,x0,0	  x0:0x00000000
       67315000	      6730	800010a8	417fd6b3	sra	x13,x31,x23	 x31:0xa6d86070 x23:0xf091aa4a x13=0xffe9b618
       67325000	      6731	800010ac	0035e5b3	or	x11,x11,x3	 x11:0x00005360  x3:0xfffffd5d x11=0xffffff7d
       67335000	      6732	800010b0	f4b7a413	slti	x8,x15,-181	 x15:0x00000000  x8=0x00000000
       67345000	      6733	800010b4	40a553b3	sra	x7,x10,x10	 x10:0x00000000 x10:0x00000000  x7=0x00000000
       67355000	      6734	800010b8	01bfc233	xor	x4,x31,x27	 x31:0xa6d86070 x27:0x8ce7e3e5  x4=0x2a3f8395
       67365000	      6735	800010bc	40f9d593	srai	x11,x19,0xf	 x19:0x00000000 x11=0x00000000
       67375000	      6736	800010c0	012f0d33	add	x26,x30,x18	 x30:0x70922ff6 x18:0x00000000 x26=0x70922ff6
       67385000	      6737	800010c4	026cf663	bgeu	x25,x6,800010f0	 x25:0xfffffc18  x6:0x00000000
       67395000	      6738	00000000	00000013	addi	x0,x0,0	  x0:0x00000000
       67405000	      6739	800010ec	00000013	addi	x0,x0,0	  x0:0x00000000
       67415000	      6740	800010f0	f8f52d93	slti	x27,x10,-113	 x10:0x00000000 x27=0x00000000
       67425000	      6741	800010f4	007bc463	blt	x23,x7,800010fc	 x23:0xf091aa4a  x7:0x00000000
       67435000	      6742	00000000	00000013	addi	x0,x0,0	  x0:0x00000000
       67445000	      6743	800010f8	00000013	addi	x0,x0,0	  x0:0x00000000
       67455000	      6744	800010fc	02a36263	bltu	x6,x10,80001120	  x6:0x00000000 x10:0x00000000
       67465000	      6745	80001100	02c87263	bgeu	x16,x12,80001124	 x16:0x00000001 x12:0x0f6e55b6
       67475000	      6746	80001104	77b13413	sltiu	x8,x2,1915	  x2:0xf091a848  x8=0x00000000
       67485000	      6747	80001108	413bd493	srai	x9,x23,0x13	 x23:0xf091aa4a  x9=0xfffffe12
       67495000	      6748	8000110c	00000013	addi	x0,x0,0	  x0:0x00000000
       67505000	      6749	80001110	00cf77b3	and	x15,x30,x12	 x30:0x70922ff6 x12:0x0f6e55b6 x15=0x000205b6
       67515000	      6750	80001114	00000013	addi	x0,x0,0	  x0:0x00000000
       67525000	      6751	80001118	01e3da33	srl	x20,x7,x30	  x7:0x00000000 x30:0x70922ff6 x20=0x00000000
       67535000	      6752	8000111c	400086b3	sub	x13,x1,x0	  x1:0x2a51f000  x0:0x00000000 x13=0x2a51f000
       67545000	      6753	80001120	009a0933	add	x18,x20,x9	 x20:0x00000000  x9:0xfffffe12 x18=0xfffffe12
       67555000	      6754	80001124	00f0f663	bgeu	x1,x15,80001130	  x1:0x2a51f000 x15:0x000205b6
       67565000	      6755	00000000	00000013	addi	x0,x0,0	  x0:0x00000000
       67575000	      6756	8000112c	00000013	addi	x0,x0,0	  x0:0x00000000
       67585000	      6757	80001130	01738463	beq	x7,x23,80001138	  x7:0x00000000 x23:0xf091aa4a
       67595000	      6758	80001134	01424833	xor	x16,x4,x20	  x4:0x2a3f8395 x20:0x00000000 x16=0x2a3f8395
       67605000	      6759	80001138	01a9ca63	blt	x19,x26,8000114c	 x19:0x00000000 x26:0x70922ff6
       67615000	      6760	00000000	00000013	addi	x0,x0,0	  x0:0x00000000
       67625000	      6761	80001148	00000013	addi	x0,x0,0	  x0:0x00000000
       67635000	      6762	8000114c	03964463	blt	x12,x25,80001174	 x12:0x0f6e55b6 x25:0xfffffc18
       67645000	      6763	80001150	0096c8b3	xor	x17,x13,x9	 x13:0x2a51f000  x9:0xfffffe12 x17=0xd5ae0e12
       67655000	      6764	80001154	84956d93	ori	x27,x10,-1975	 x10:0x00000000 x27=0xfffff849
       67665000	      6765	80001158	0e108c63	beq	x1,x1,80001250	  x1:0x2a51f000  x1:0x2a51f000
       67675000	      6766	00000000	00000013	addi	x0,x0,0	  x0:0x00000000
       67685000	      6767	8000124c	00000013	addi	x0,x0,0	  x0:0x00000000
       67695000	      6768	80001250	001dc1b3	xor	x3,x27,x1	 x27:0xfffff849  x1:0x2a51f000  x3=0xd5ae0849
       67705000	      6769	80001254	0257ee63	bltu	x15,x5,80001290	 x15:0x000205b6  x5:0x00000000
       67715000	      6770	80001258	00b87833	and	x16,x16,x11	 x16:0x2a3f8395 x11:0x00000000 x16=0x00000000
       67725000	      6771	8000125c	0143c333	xor	x6,x7,x20	  x7:0x00000000 x20:0x00000000  x6=0x00000000
       67735000	      6772	80001260	5c607493	andi	x9,x0,1478	  x0:0x00000000  x9=0x00000000
       67745000	      6773	80001264	04790593	addi	x11,x18,71	 x18:0xfffffe12 x11=0xfffffe59
       67755000	      6774	80001268	00000013	addi	x0,x0,0	  x0:0x00000000
       67765000	      6775	8000126c	016947b3	xor	x15,x18,x22	 x18:0xfffffe12 x22:0x00000000 x15=0xfffffe12
       67775000	      6776	80001270	0cadf993	andi	x19,x27,202	 x27:0xfffff849 x19=0x00000048
       67785000	      6777	80001274	409857b3	sra	x15,x16,x9	 x16:0x00000000  x9:0x00000000 x15=0x00000000
       67795000	      6778	80001278	3c532217	auipc	x4,0x3c532	  x4=0xbc533274
       67805000	      6779	8000127c	fe8bfe93	andi	x29,x23,-24	 x23:0xf091aa4a x29=0xf091aa48
       67815000	      6780	80001280	401485b3	sub	x11,x9,x1	  x9:0x00000000  x1:0x2a51f000 x11=0xd5ae1000
       67825000	      6781	80001284	d4994913	xori	x18,x18,-695	 x18:0xfffffe12 x18=0x0000035b
       67835000	      6782	80001288	616d6817	auipc	x16,0x616d6	 x16=0xe16d7284
       67845000	      6783	8000128c	c0cd8213	addi	x4,x27,-1012	 x27:0xfffff849  x4=0xfffff455
       67855000	      6784	80001290	002a9233	sll	x4,x21,x2	 x21:0x80009fc4  x2:0xf091a848  x4=0x009fc400
       67865000	      6785	80001294	05631663	bne	x6,x22,800012e0	  x6:0x00000000 x22:0x00000000
       67875000	      6786	80001298	01367c33	and	x24,x12,x19	 x12:0x0f6e55b6 x19:0x00000048 x24=0x00000000
       67885000	      6787	8000129c	0144c6b3	xor	x13,x9,x20	  x9:0x00000000 x20:0x00000000 x13=0x00000000
       67895000	      6788	800012a0	a888f793	andi	x15,x17,-1400	 x17:0xd5ae0e12 x15=0xd5ae0a00
       67905000	      6789	800012a4	01f571b3	and	x3,x10,x31	 x10:0x00000000 x31:0xa6d86070  x3=0x00000000
       67915000	      6790	800012a8	9ae8e2b7	lui	x5,0x9ae8e	  x5=0x9ae8e000
       67925000	      6791	800012ac	644fcf13	xori	x30,x31,1604	 x31:0xa6d86070 x30=0xa6d86634
       67935000	      6792	800012b0	00000013	addi	x0,x0,0	  x0:0x00000000
       67945000	      6793	800012b4	01aa2133	slt	x2,x20,x26	 x20:0x00000000 x26:0x70922ff6  x2=0x00000001
       67955000	      6794	800012b8	00000013	addi	x0,x0,0	  x0:0x00000000
       67965000	      6795	800012bc	17db6793	ori	x15,x22,381	 x22:0x00000000 x15=0x0000017d
       67975000	      6796	800012c0	e9ace713	ori	x14,x25,-358	 x25:0xfffffc18 x14=0xfffffe9a
       67985000	      6797	800012c4	a9f406b7	lui	x13,0xa9f40	 x13=0xa9f40000
       67995000	      6798	800012c8	0072ac33	slt	x24,x5,x7	  x5:0x9ae8e000  x7:0x00000000 x24=0x00000001
       68005000	      6799	800012cc	00944d33	xor	x26,x8,x9	  x8:0x00000000  x9:0x00000000 x26=0x00000000
       68015000	      6800	800012d0	5bb8c493	xori	x9,x17,1467	 x17:0xd5ae0e12  x9=0xd5ae0ba9
       68025000	      6801	800012d4	da03f617	auipc	x12,0xda03f	 x12=0x5a0402d0
       68035000	      6802	800012d8	b4f5a813	slti	x16,x11,-1201	 x11:0xd5ae1000 x16=0x00000001
       68045000	      6803	800012dc	05611863	bne	x2,x22,8000132c	  x2:0x00000001 x22:0x00000000
       68055000	      6804	00000000	00000013	addi	x0,x0,0	  x0:0x00000000
       68065000	      6805	80001328	00000013	addi	x0,x0,0	  x0:0x00000000
       68075000	      6806	8000132c	416bd893	srai	x17,x23,0x16	 x23:0xf091aa4a x17=0xffffffc2
       68085000	      6807	80001330	01973c33	sltu	x24,x14,x25	 x14:0xfffffe9a x25:0xfffffc18 x24=0x00000000
       68095000	      6808	80001334	00000013	addi	x0,x0,0	  x0:0x00000000
       68105000	      6809	80001338	c47dcd13	xori	x26,x27,-953	 x27:0xfffff849 x26=0x0000040e
       68115000	      6810	8000133c	056a1463	bne	x20,x22,80001384	 x20:0x00000000 x22:0x00000000
       68125000	      6811	80001340	8ed6bc93	sltiu	x25,x13,-1811	 x13:0xa9f40000 x25=0x00000001
       68135000	      6812	80001344	41480533	sub	x10,x16,x20	 x16:0x00000001 x20:0x00000000 x10=0x00000001
       68145000	      6813	80001348	4a71a197	auipc	x3,0x4a71a	  x3=0xca71b344
       68155000	      6814	8000134c	33fba413	slti	x8,x23,831	 x23:0xf091aa4a  x8=0x00000001
       68165000	      6815	80001350	404002b3	sub	x5,x0,x4	  x0:0x00000000  x4:0x009fc400  x5=0xff603c00
       68175000	      6816	80001354	01291eb3	sll	x29,x18,x18	 x18:0x0000035b x18:0x0000035b x29=0xd8000000
       68185000	      6817	80001358	48f94b13	xori	x22,x18,1167	 x18:0x0000035b x22=0x000007d4
       68195000	      6818	8000135c	a8083493	sltiu	x9,x16,-1408	 x16:0x00000001  x9=0x00000001
       68205000	      6819	80001360	011229b3	slt	x19,x4,x17	  x4:0x009fc400 x17:0xffffffc2 x19=0x00000000
       68215000	      6820	80001364	01300b33	add	x22,x0,x19	  x0:0x00000000 x19:0x00000000 x22=0x00000000
       68225000	      6821	80001368	01901c63	bne	x0,x25,80001380	  x0:0x00000000 x25:0x00000001
       68235000	      6822	00000000	00000013	addi	x0,x0,0	  x0:0x00000000
       68245000	      6823	8000137c	00000013	addi	x0,x0,0	  x0:0x00000000
       68255000	      6824	80001380	8d38bf93	sltiu	x31,x17,-1837	 x17:0xffffffc2 x31=0x00000000
       68265000	      6825	80001384	2e75a9b7	lui	x19,0x2e75a	 x19=0x2e75a000
       68275000	      6826	80001388	00667463	bgeu	x12,x6,80001390	 x12:0x5a0402d0  x6:0x00000000
       68285000	      6827	00000000	00000013	addi	x0,x0,0	  x0:0x00000000
       68295000	      6828	8000138c	00000013	addi	x0,x0,0	  x0:0x00000000
       68305000	      6829	80001390	4155d113	srai	x2,x11,0x15	 x11:0xd5ae1000  x2=0xfffffead
       68315000	      6830	80001394	020be463	bltu	x23,x0,800013bc	 x23:0xf091aa4a  x0:0x00000000
       68325000	      6831	80001398	9c454137	lui	x2,0x9c454	  x2=0x9c454000
       68335000	      6832	8000139c	02575863	bge	x14,x5,800013cc	 x14:0xfffffe9a  x5:0xff603c00
       68345000	      6833	00000000	00000013	addi	x0,x0,0	  x0:0x00000000
       68355000	      6834	800013c8	00000013	addi	x0,x0,0	  x0:0x00000000
       68365000	      6835	800013cc	02d1c263	blt	x3,x13,800013f0	  x3:0xca71b344 x13:0xa9f40000
       68375000	      6836	800013d0	b37eb293	sltiu	x5,x29,-1225	 x29:0xd8000000  x5=0x00000001
       68385000	      6837	800013d4	05834263	blt	x6,x24,80001418	  x6:0x00000000 x24:0x00000000
       68395000	      6838	800013d8	01c6d463	bge	x13,x28,800013e0	 x13:0xa9f40000 x28:0x80009f38
       68405000	      6839	00000000	00000013	addi	x0,x0,0	  x0:0x00000000
       68415000	      6840	800013dc	00000013	addi	x0,x0,0	  x0:0x00000000
       68425000	      6841	800013e0	205c7a13	andi	x20,x24,517	 x24:0x00000000 x20=0x00000000
       68435000	      6842	800013e4	0106fdb3	and	x27,x13,x16	 x13:0xa9f40000 x16:0x00000001 x27=0x00000000
       68445000	      6843	800013e8	407788b3	sub	x17,x15,x7	 x15:0x0000017d  x7:0x00000000 x17=0x0000017d
       68455000	      6844	800013ec	41c6d013	srai	x0,x13,0x1c	 x13:0xa9f40000
       68465000	      6845	800013f0	00046433	or	x8,x8,x0	  x8:0x00000001  x0:0x00000000  x8=0x00000001
       68475000	      6846	800013f4	cd427c13	andi	x24,x4,-812	  x4:0x009fc400 x24=0x009fc400
       68485000	      6847	800013f8	00c1f463	bgeu	x3,x12,80001400	  x3:0xca71b344 x12:0x5a0402d0
       68495000	      6848	00000000	00000013	addi	x0,x0,0	  x0:0x00000000
       68505000	      6849	800013fc	00000013	addi	x0,x0,0	  x0:0x00000000
       68515000	      6850	80001400	3a9b3813	sltiu	x16,x22,937	 x22:0x00000000 x16=0x00000001
       68525000	      6851	80001404	41c50d33	sub	x26,x10,x28	 x10:0x00000001 x28:0x80009f38 x26=0x7fff60c9
       68535000	      6852	80001408	00000013	addi	x0,x0,0	  x0:0x00000000
       68545000	      6853	8000140c	001e8b33	add	x22,x29,x1	 x29:0xd8000000  x1:0x2a51f000 x22=0x0251f000
       68555000	      6854	80001410	40fe0c13	addi	x24,x28,1039	 x28:0x80009f38 x24=0x8000a347
       68565000	      6855	80001414	b1f1c213	xori	x4,x3,-1249	  x3:0xca71b344  x4=0x358e485b
       68575000	      6856	80001418	40615eb3	sra	x29,x2,x6	  x2:0x9c454000  x6:0x00000000 x29=0x9c454000
       68585000	      6857	8000141c	73f3f713	andi	x14,x7,1855	  x7:0x00000000 x14=0x00000000
       68595000	      6858	80001420	023f9263	bne	x31,x3,80001444	 x31:0x00000000  x3:0xca71b344
       68605000	      6859	00000000	00000013	addi	x0,x0,0	  x0:0x00000000
       68615000	      6860	80001440	00000013	addi	x0,x0,0	  x0:0x00000000
       68625000	      6861	80001444	40790d33	sub	x26,x18,x7	 x18:0x0000035b  x7:0x00000000 x26=0x0000035b
       68635000	      6862	80001448	01c95f93	srli	x31,x18,0x1c	 x18:0x0000035b x31=0x00000000
       68645000	      6863	8000144c	0168b2b3	sltu	x5,x17,x22	 x17:0x0000017d x22:0x0251f000  x5=0x00000001
       68655000	      6864	80001450	01b12633	slt	x12,x2,x27	  x2:0x9c454000 x27:0x00000000 x12=0x00000001
       68665000	      6865	80001454	df9a3093	sltiu	x1,x20,-519	 x20:0x00000000  x1=0x00000001
       68675000	      6866	80001458	1f147c93	andi	x25,x8,497	  x8:0x00000001 x25=0x00000001
       68685000	      6867	8000145c	03fde063	bltu	x27,x31,8000147c	 x27:0x00000000 x31:0x00000000
       68695000	      6868	80001460	0086ca33	xor	x20,x13,x8	 x13:0xa9f40000  x8:0x00000001 x20=0xa9f40001
       68705000	      6869	80001464	00c97c63	bgeu	x18,x12,8000147c	 x18:0x0000035b x12:0x00000001
       68715000	      6870	00000000	00000013	addi	x0,x0,0	  x0:0x00000000
       68725000	      6871	80001478	00000013	addi	x0,x0,0	  x0:0x00000000
       68735000	      6872	8000147c	40a45a13	srai	x20,x8,0xa	  x8:0x00000001 x20=0x00000000
       68745000	      6873	80001480	5d75c993	xori	x19,x11,1495	 x11:0xd5ae1000 x19=0xd5ae15d7
       68755000	      6874	80001484	01325113	srli	x2,x4,0x13	  x4:0x358e485b  x2=0x000006b1
       68765000	      6875	80001488	2cca2413	slti	x8,x20,716	 x20:0x00000000  x8=0x00000001
       68775000	      6876	8000148c	91ec4437	lui	x8,0x91ec4	  x8=0x91ec4000
       68785000	      6877	80001490	00782f33	slt	x30,x16,x7	 x16:0x00000001  x7:0x00000000 x30=0x00000000
       68795000	      6878	80001494	01b90fb3	add	x31,x18,x27	 x18:0x0000035b x27:0x00000000 x31=0x0000035b
       68805000	      6879	80001498	0182f433	and	x8,x5,x24	  x5:0x00000001 x24:0x8000a347  x8=0x00000001
       68815000	      6880	8000149c	3bf2ee93	ori	x29,x5,959	  x5:0x00000001 x29=0x000003bf
       68825000	      6881	800014a0	00ba4733	xor	x14,x20,x11	 x20:0x00000000 x11:0xd5ae1000 x14=0xd5ae1000
       68835000	      6882	800014a4	000e62b3	or	x5,x28,x0	 x28:0x80009f38  x0:0x00000000  x5=0x80009f38
       68845000	      6883	800014a8	00000013	addi	x0,x0,0	  x0:0x00000000
       68855000	      6884	800014ac	02b8c063	blt	x17,x11,800014cc	 x17:0x0000017d x11:0xd5ae1000
       68865000	      6885	800014b0	01bd1a13	slli	x20,x26,0x1b	 x26:0x0000035b x20=0xd8000000
       68875000	      6886	800014b4	01410f33	add	x30,x2,x20	  x2:0x000006b1 x20:0xd8000000 x30=0xd80006b1
       68885000	      6887	800014b8	01f55033	srl	x0,x10,x31	 x10:0x00000001 x31:0x0000035b
       68895000	      6888	800014bc	4156dd33	sra	x26,x13,x21	 x13:0xa9f40000 x21:0x80009fc4 x26=0xfa9f4000
       68905000	      6889	800014c0	053a6463	bltu	x20,x19,80001508	 x20:0xd8000000 x19:0xd5ae15d7
       68915000	      6890	800014c4	8262f413	andi	x8,x5,-2010	  x5:0x80009f38  x8=0x80009820
       68925000	      6891	800014c8	00ba5d93	srli	x27,x20,0xb	 x20:0xd8000000 x27=0x001b0000
       68935000	      6892	800014cc	005d5a33	srl	x20,x26,x5	 x26:0xfa9f4000  x5:0x80009f38 x20=0x000000fa
       68945000	      6893	800014d0	01803a33	sltu	x20,x0,x24	  x0:0x00000000 x24:0x8000a347 x20=0x00000001
       68955000	      6894	800014d4	02fb9c63	bne	x23,x15,8000150c	 x23:0xf091aa4a x15:0x0000017d
       68965000	      6895	00000000	00000013	addi	x0,x0,0	  x0:0x00000000
       68975000	      6896	80001508	00000013	addi	x0,x0,0	  x0:0x00000000
       68985000	      6897	8000150c	00000013	addi	x0,x0,0	  x0:0x00000000
       68995000	      6898	80001510	01a60663	beq	x12,x26,8000151c	 x12:0x00000001 x26:0xfa9f4000
       69005000	      6899	80001514	01591433	sll	x8,x18,x21	 x18:0x0000035b x21:0x80009fc4  x8=0x000035b0
       69015000	      6900	80001518	41d6dd13	srai	x26,x13,0x1d	 x13:0xa9f40000 x26=0xfffffffd
       69025000	      6901	8000151c	00708463	beq	x1,x7,80001524	  x1:0x00000001  x7:0x00000000
       69035000	      6902	80001520	b142f613	andi	x12,x5,-1260	  x5:0x80009f38 x12=0x80009b10
       69045000	      6903	80001524	28aec513	xori	x10,x29,650	 x29:0x000003bf x10=0x00000135
       69055000	      6904	80001528	7add0413	addi	x8,x26,1965	 x26:0xfffffffd  x8=0x000007aa
       69065000	      6905	8000152c	00e6da63	bge	x13,x14,80001540	 x13:0xa9f40000 x14:0xd5ae1000
       69075000	      6906	80001530	01284863	blt	x16,x18,80001540	 x16:0x00000001 x18:0x0000035b
       69085000	      6907	00000000	00000013	addi	x0,x0,0	  x0:0x00000000
       69095000	      6908	8000153c	00000013	addi	x0,x0,0	  x0:0x00000000
       69105000	      6909	80001540	00f05833	srl	x16,x0,x15	  x0:0x00000000 x15:0x0000017d x16=0x00000000
       69115000	      6910	80001544	00c47333	and	x6,x8,x12	  x8:0x000007aa x12:0x80009b10  x6=0x00000300
       69125000	      6911	80001548	00e8b4b3	sltu	x9,x17,x14	 x17:0x0000017d x14:0xd5ae1000  x9=0x00000001
       69135000	      6912	8000154c	004e2f03	lw	x30,4(x28)	 x28:0x80009f38 x30=0x800069cc PA:0x80009f3c
       69145000	      6913	80001550	00735613	srli	x12,x6,0x7	  x6:0x00000300 x12=0x00000006
       69155000	      6914	80001554	038e0e13	addi	x28,x28,56	 x28:0x80009f38 x28=0x80009f70
       69165000	      6915	80001558	0015afb3	slt	x31,x11,x1	 x11:0xd5ae1000  x1:0x00000001 x31=0x00000001
       69175000	      6916	8000155c	440a8913	addi	x18,x21,1088	 x21:0x80009fc4 x18=0x8000a404
       69185000	      6917	80001560	01328b33	add	x22,x5,x19	  x5:0x80009f38 x19:0xd5ae15d7 x22=0x55aeb50f
       69195000	      6918	80001564	018b09b3	add	x19,x22,x24	 x22:0x55aeb50f x24:0x8000a347 x19=0xd5af5856
       69205000	      6919	80001568	6ef14397	auipc	x7,0x6ef14	  x7=0xeef15564
       69215000	      6920	8000156c	005a9193	slli	x3,x21,0x5	 x21:0x80009fc4  x3=0x0013f880
       69225000	      6921	80001570	110f0613	addi	x12,x30,272	 x30:0x800069cc x12=0x80006adc
       69235000	      6922	80001574	001f0c13	addi	x24,x30,1	 x30:0x800069cc x24=0x800069cd
       69245000	      6923	80001578	000c0c67	jalr	x24,x24,0	 x24:0x800069cd x24=0x80001578
       69255000	      6924	00000000	00000013	addi	x0,x0,0	  x0:0x00000000
       69265000	      6925	800069cc	00000013	addi	x0,x0,0	  x0:0x00000000
       69275000	      6926	800069d0	a20eadb7	lui	x27,0xa20ea	 x27=0xa20ea000
       69285000	      6927	800069d4	019ee233	or	x4,x29,x25	 x29:0x000003bf x25:0x00000001  x4=0x000003bf
       69295000	      6928	800069d8	417fdd13	srai	x26,x31,0x17	 x31:0x00000001 x26=0x00000000
       69305000	      6929	800069dc	021fc463	blt	x31,x1,80006a04	 x31:0x00000001  x1:0x00000001
       69315000	      6930	800069e0	01b14463	blt	x2,x27,800069e8	  x2:0x000006b1 x27:0xa20ea000
       69325000	      6931	800069e4	0c7cb997	auipc	x19,0xc7cb	 x19=0x8c7d19e0
       69335000	      6932	800069e8	00ec31b3	sltu	x3,x24,x14	 x24:0x80001578 x14:0xd5ae1000  x3=0x00000001
       69345000	      6933	800069ec	9d808813	addi	x16,x1,-1576	  x1:0x00000001 x16=0xfffff9d9
       69355000	      6934	800069f0	00301493	slli	x9,x0,0x3	  x0:0x00000000  x9=0x00000000
       69365000	      6935	800069f4	01b5d013	srli	x0,x11,0x1b	 x11:0xd5ae1000
       69375000	      6936	800069f8	400557b3	sra	x15,x10,x0	 x10:0x00000135  x0:0x00000000 x15=0x00000135
       69385000	      6937	800069fc	04db4463	blt	x22,x13,80006a44	 x22:0x55aeb50f x13:0xa9f40000
       69395000	      6938	80006a00	40b183b3	sub	x7,x3,x11	  x3:0x00000001 x11:0xd5ae1000  x7=0x2a51f001
       69405000	      6939	80006a04	004f8db3	add	x27,x31,x4	 x31:0x00000001  x4:0x000003bf x27=0x000003c0
       69415000	      6940	80006a08	006a4a63	blt	x20,x6,80006a1c	 x20:0x00000001  x6:0x00000300
       69425000	      6941	00000000	00000013	addi	x0,x0,0	  x0:0x00000000
       69435000	      6942	80006a18	00000013	addi	x0,x0,0	  x0:0x00000000
       69445000	      6943	80006a1c	00000013	addi	x0,x0,0	  x0:0x00000000
       69455000	      6944	80006a20	da430093	addi	x1,x6,-604	  x6:0x00000300  x1=0x000000a4
       69465000	      6945	80006a24	c85aa613	slti	x12,x21,-891	 x21:0x80009fc4 x12=0x00000001
       69475000	      6946	80006a28	a1b07913	andi	x18,x0,-1509	  x0:0x00000000 x18=0x00000000
       69485000	      6947	80006a2c	40e8d093	srai	x1,x17,0xe	 x17:0x0000017d  x1=0x00000000
       69495000	      6948	80006a30	dceacb13	xori	x22,x21,-562	 x21:0x80009fc4 x22=0x7fff620a
       69505000	      6949	80006a34	02be1263	bne	x28,x11,80006a58	 x28:0x80009f70 x11:0xd5ae1000
       69515000	      6950	00000000	00000013	addi	x0,x0,0	  x0:0x00000000
       69525000	      6951	80006a54	00000013	addi	x0,x0,0	  x0:0x00000000
       69535000	      6952	80006a58	001f06b3	add	x13,x30,x1	 x30:0x800069cc  x1:0x00000000 x13=0x800069cc
       69545000	      6953	80006a5c	004e2f03	lw	x30,4(x28)	 x28:0x80009f70 x30=0x800003a8 PA:0x80009f74
       69555000	      6954	80006a60	003b49b3	xor	x19,x22,x3	 x22:0x7fff620a  x3:0x00000001 x19=0x7fff620b
       69565000	      6955	80006a64	014e0e13	addi	x28,x28,20	 x28:0x80009f70 x28=0x80009f84
       69575000	      6956	80006a68	9d5fa313	slti	x6,x31,-1579	 x31:0x00000001  x6=0x00000000
       69585000	      6957	80006a6c	26644db7	lui	x27,0x26644	 x27=0x26644000
       69595000	      6958	80006a70	001f0c13	addi	x24,x30,1	 x30:0x800003a8 x24=0x800003a9
       69605000	      6959	80006a74	000c0c67	jalr	x24,x24,0	 x24:0x800003a9 x24=0x80006a74
       69615000	      6960	00000000	00000013	addi	x0,x0,0	  x0:0x00000000
       69625000	      6961	800003a8	00000013	addi	x0,x0,0	  x0:0x00000000
       69635000	      6962	800003ac	01ea60b3	or	x1,x20,x30	 x20:0x00000001 x30:0x800003a8  x1=0x800003a9
       69645000	      6963	800003b0	00000013	addi	x0,x0,0	  x0:0x00000000
       69655000	      6964	800003b4	026cd663	bge	x25,x6,800003e0	 x25:0x00000001  x6:0x00000000
       69665000	      6965	00000000	00000013	addi	x0,x0,0	  x0:0x00000000
       69675000	      6966	800003dc	00000013	addi	x0,x0,0	  x0:0x00000000
       69685000	      6967	800003e0	00000013	addi	x0,x0,0	  x0:0x00000000
       69695000	      6968	800003e4	01ff1893	slli	x17,x30,0x1f	 x30:0x800003a8 x17=0x00000000
       69705000	      6969	800003e8	012b5cb3	srl	x25,x22,x18	 x22:0x7fff620a x18:0x00000000 x25=0x7fff620a
       69715000	      6970	800003ec	06bee263	bltu	x29,x11,80000450	 x29:0x000003bf x11:0xd5ae1000
       69725000	      6971	00000000	00000013	addi	x0,x0,0	  x0:0x00000000
       69735000	      6972	8000044c	00000013	addi	x0,x0,0	  x0:0x00000000
       69745000	      6973	80000450	00c50533	add	x10,x10,x12	 x10:0x00000135 x12:0x00000001 x10=0x00000136
       69755000	      6974	80000454	052ad063	bge	x21,x18,80000494	 x21:0x80009fc4 x18:0x00000000
       69765000	      6975	80000458	deaf3213	sltiu	x4,x30,-534	 x30:0x800003a8  x4=0x00000001
       69775000	      6976	8000045c	045d4663	blt	x26,x5,800004a8	 x26:0x00000000  x5:0x80009f38
       69785000	      6977	80000460	01d197b3	sll	x15,x3,x29	  x3:0x00000001 x29:0x000003bf x15=0x80000000
       69795000	      6978	80000464	02f89c63	bne	x17,x15,8000049c	 x17:0x00000000 x15:0x80000000
       69805000	      6979	00000000	00000013	addi	x0,x0,0	  x0:0x00000000
       69815000	      6980	80000498	00000013	addi	x0,x0,0	  x0:0x00000000
       69825000	      6981	8000049c	00ec56b3	srl	x13,x24,x14	 x24:0x80006a74 x14:0xd5ae1000 x13=0x80006a74
       69835000	      6982	800004a0	9093ff93	andi	x31,x7,-1783	  x7:0x2a51f001 x31=0x2a51f001
       69845000	      6983	800004a4	03634663	blt	x6,x22,800004d0	  x6:0x00000000 x22:0x7fff620a
       69855000	      6984	00000000	00000013	addi	x0,x0,0	  x0:0x00000000
       69865000	      6985	800004cc	00000013	addi	x0,x0,0	  x0:0x00000000
       69875000	      6986	800004d0	21c993b7	lui	x7,0x21c99	  x7=0x21c99000
       69885000	      6987	800004d4	afd16793	ori	x15,x2,-1283	  x2:0x000006b1 x15=0xfffffefd
       69895000	      6988	800004d8	0219e463	bltu	x19,x1,80000500	 x19:0x7fff620b  x1:0x800003a9
       69905000	      6989	00000000	00000013	addi	x0,x0,0	  x0:0x00000000
       69915000	      6990	800004fc	00000013	addi	x0,x0,0	  x0:0x00000000
       69925000	      6991	80000500	01d3a4b3	slt	x9,x7,x29	  x7:0x21c99000 x29:0x000003bf  x9=0x00000000
       69935000	      6992	80000504	49cfff93	andi	x31,x31,1180	 x31:0x2a51f001 x31=0x00000000
       69945000	      6993	80000508	009a1d33	sll	x26,x20,x9	 x20:0x00000001  x9:0x00000000 x26=0x00000001
       69955000	      6994	8000050c	00101993	slli	x19,x0,0x1	  x0:0x00000000 x19=0x00000000
       69965000	      6995	80000510	00637cb3	and	x25,x6,x6	  x6:0x00000000  x6:0x00000000 x25=0x00000000
       69975000	      6996	80000514	f6e6fd93	andi	x27,x13,-146	 x13:0x80006a74 x27=0x80006a64
       69985000	      6997	80000518	b427b993	sltiu	x19,x15,-1214	 x15:0xfffffefd x19=0x00000000
       69995000	      6998	8000051c	0174b6b3	sltu	x13,x9,x23	  x9:0x00000000 x23:0xf091aa4a x13=0x00000001
       70005000	      6999	80000520	432de117	auipc	x2,0x432de	  x2=0xc32de51c
       70015000	      7000	80000524	41a4dd13	srai	x26,x9,0x1a	  x9:0x00000000 x26=0x00000000
       70025000	      7001	80000528	0378c863	blt	x17,x23,80000558	 x17:0x00000000 x23:0xf091aa4a
       70035000	      7002	8000052c	01179033	sll	x0,x15,x17	 x15:0xfffffefd x17:0x00000000
       70045000	      7003	80000530	0181d233	srl	x4,x3,x24	  x3:0x00000001 x24:0x80006a74  x4=0x00000000
       70055000	      7004	80000534	01475313	srli	x6,x14,0x14	 x14:0xd5ae1000  x6=0x00000d5a
       70065000	      7005	80000538	d9637e93	andi	x29,x6,-618	  x6:0x00000d5a x29=0x00000d12
       70075000	      7006	8000053c	8ef7ad13	slti	x26,x15,-1809	 x15:0xfffffefd x26=0x00000000
       70085000	      7007	80000540	00869e63	bne	x13,x8,8000055c	 x13:0x00000001  x8:0x000007aa
       70095000	      7008	00000000	00000013	addi	x0,x0,0	  x0:0x00000000
       70105000	      7009	80000558	00000013	addi	x0,x0,0	  x0:0x00000000
       70115000	      7010	8000055c	036a9863	bne	x21,x22,8000058c	 x21:0x80009fc4 x22:0x7fff620a
       70125000	      7011	00000000	00000013	addi	x0,x0,0	  x0:0x00000000
       70135000	      7012	80000588	00000013	addi	x0,x0,0	  x0:0x00000000
       70145000	      7013	8000058c	00000013	addi	x0,x0,0	  x0:0x00000000
       70155000	      7014	80000590	9e01df97	auipc	x31,0x9e01d	 x31=0x1e01d58c
       70165000	      7015	80000594	b45fa113	slti	x2,x31,-1211	 x31:0x1e01d58c  x2=0x00000000
       70175000	      7016	80000598	1dc3b313	sltiu	x6,x7,476	  x7:0x21c99000  x6=0x00000000
       70185000	      7017	8000059c	003574b3	and	x9,x10,x3	 x10:0x00000136  x3:0x00000001  x9=0x00000000
       70195000	      7018	800005a0	01c4a0b3	slt	x1,x9,x28	  x9:0x00000000 x28:0x80009f84  x1=0x00000000
       70205000	      7019	800005a4	009600b3	add	x1,x12,x9	 x12:0x00000001  x9:0x00000000  x1=0x00000001
       70215000	      7020	800005a8	0097d233	srl	x4,x15,x9	 x15:0xfffffefd  x9:0x00000000  x4=0xfffffefd
       70225000	      7021	800005ac	0048ed33	or	x26,x17,x4	 x17:0x00000000  x4:0xfffffefd x26=0xfffffefd
       70235000	      7022	800005b0	d70ee517	auipc	x10,0xd70ee	 x10=0x570ee5ac
       70245000	      7023	800005b4	01699233	sll	x4,x19,x22	 x19:0x00000000 x22:0x7fff620a  x4=0x00000000
       70255000	      7024	800005b8	41c9d033	sra	x0,x19,x28	 x19:0x00000000 x28:0x80009f84
       70265000	      7025	800005bc	400d0d33	sub	x26,x26,x0	 x26:0xfffffefd  x0:0x00000000 x26=0xfffffefd
       70275000	      7026	800005c0	8005c493	xori	x9,x11,-2048	 x11:0xd5ae1000  x9=0x2a51e800
       70285000	      7027	800005c4	014b9113	slli	x2,x23,0x14	 x23:0xf091aa4a  x2=0xa4a00000
       70295000	      7028	800005c8	42b78413	addi	x8,x15,1067	 x15:0xfffffefd  x8=0x00000328
       70305000	      7029	800005cc	0387e663	bltu	x15,x24,800005f8	 x15:0xfffffefd x24:0x80006a74
       70315000	      7030	800005d0	00000013	addi	x0,x0,0	  x0:0x00000000
       70325000	      7031	800005d4	1b4c2f93	slti	x31,x24,436	 x24:0x80006a74 x31=0x00000001
       70335000	      7032	800005d8	0139a3b3	slt	x7,x19,x19	 x19:0x00000000 x19:0x00000000  x7=0x00000000
       70345000	      7033	800005dc	00ec5c93	srli	x25,x24,0xe	 x24:0x80006a74 x25=0x00020001
       70355000	      7034	800005e0	bb2db293	sltiu	x5,x27,-1102	 x27:0x80006a64  x5=0x00000001
       70365000	      7035	800005e4	03386263	bltu	x16,x19,80000608	 x16:0xfffff9d9 x19:0x00000000
       70375000	      7036	800005e8	0175c333	xor	x6,x11,x23	 x11:0xd5ae1000 x23:0xf091aa4a  x6=0x253fba4a
       70385000	      7037	800005ec	00e4f1b3	and	x3,x9,x14	  x9:0x2a51e800 x14:0xd5ae1000  x3=0x00000000
       70395000	      7038	800005f0	4e2c4093	xori	x1,x24,1250	 x24:0x80006a74  x1=0x80006e96
       70405000	      7039	800005f4	012f8fb3	add	x31,x31,x18	 x31:0x00000001 x18:0x00000000 x31=0x00000001
       70415000	      7040	800005f8	ba3a6993	ori	x19,x20,-1117	 x20:0x00000001 x19=0xfffffba3
       70425000	      7041	800005fc	0101f663	bgeu	x3,x16,80000608	  x3:0x00000000 x16:0xfffff9d9
       70435000	      7042	80000600	92207437	lui	x8,0x92207	  x8=0x92207000
       70445000	      7043	80000604	00bf9cb3	sll	x25,x31,x11	 x31:0x00000001 x11:0xd5ae1000 x25=0x00000001
       70455000	      7044	80000608	0f8f8293	addi	x5,x31,248	 x31:0x00000001  x5=0x000000f9
       70465000	      7045	8000060c	00000b97	auipc	x23,0x0	 x23=0x80000608
       70475000	      7046	80000610	00cb8b93	addi	x23,x23,12	 x23:0x80000608 x23=0x80000614
       70485000	      7047	80000614	000b8067	jalr	x0,x23,0	 x23:0x80000614
       70495000	      7048	00000000	00000013	addi	x0,x0,0	  x0:0x00000000
       70505000	      7049	80000614	00000013	addi	x0,x0,0	  x0:0x00000000
       70515000	      7050	80000618	00100193	addi	x3,x0,1	  x0:0x00000000  x3=0x00000001
       70525000	      7051	8000061c	00000073	ecall	
       70535000	      7052	80000620	c8308693	addi	x13,x1,-893	  x1:0x80006e96 x13=0x80006b19
